PARTICIPANT_ID	TEST_SECTION_ID	SENTENCE	USER_INPUT	KEYSTROKE_ID	PRESS_TIME	RELEASE_TIME	LETTER	KEYCODE
307255	3304651	I was trying to remember what Bobby said.	I was trying to remember what Bobby said.	157020185	1476218732121	1476218732281	SHIFT	16
307255	3304651	I was trying to remember what Bobby said.	I was trying to remember what Bobby said.	157020188	1476218732218	1476218732289	I	73
307255	3304651	I was trying to remember what Bobby said.	I was trying to remember what Bobby said.	157020193	1476218732353	1476218732417	 	32
307255	3304651	I was trying to remember what Bobby said.	I was trying to remember what Bobby said.	157020200	1476218732425	1476218732489	w	87
307255	3304651	I was trying to remember what Bobby said.	I was trying to remember what Bobby said.	157020207	1476218732609	1476218732665	a	65
307255	3304651	I was trying to remember what Bobby said.	I was trying to remember what Bobby said.	157020214	1476218732754	1476218732833	s	83
307255	3304651	I was trying to remember what Bobby said.	I was trying to remember what Bobby said.	157020239	1476218732905	1476218732984	 	32
307255	3304651	I was trying to remember what Bobby said.	I was trying to remember what Bobby said.	157020241	1476218732977	1476218733033	t	84
307255	3304651	I was trying to remember what Bobby said.	I was trying to remember what Bobby said.	157020246	1476218733113	1476218733200	r	82
307255	3304651	I was trying to remember what Bobby said.	I was trying to remember what Bobby said.	157020253	1476218733193	1476218733257	y	89
307255	3304651	I was trying to remember what Bobby said.	I was trying to remember what Bobby said.	157020261	1476218733409	1476218733473	i	73
307255	3304651	I was trying to remember what Bobby said.	I was trying to remember what Bobby said.	157020283	1476218733537	1476218733601	n	78
307255	3304651	I was trying to remember what Bobby said.	I was trying to remember what Bobby said.	157020290	1476218733609	1476218733681	g	71
307255	3304651	I was trying to remember what Bobby said.	I was trying to remember what Bobby said.	157020297	1476218733705	1476218733772	 	32
307255	3304651	I was trying to remember what Bobby said.	I was trying to remember what Bobby said.	157020302	1476218733825	1476218733897	o	84
307255	3304651	I was trying to remember what Bobby said.	I was trying to remember what Bobby said.	157020338	1476218733977	1476218734041	 	32
307255	3304651	I was trying to remember what Bobby said.	I was trying to remember what Bobby said.	157020343	1476218734089	1476218734161	r	82
307255	3304651	I was trying to remember what Bobby said.	I was trying to remember what Bobby said.	157020351	1476218734225	1476218734281	e	69
307255	3304651	I was trying to remember what Bobby said.	I was trying to remember what Bobby said.	157020358	1476218734345	1476218734401	m	77
307255	3304651	I was trying to remember what Bobby said.	I was trying to remember what Bobby said.	157020363	1476218734457	1476218734513	e	69
307255	3304651	I was trying to remember what Bobby said.	I was trying to remember what Bobby said.	157020405	1476218734529	1476218734585	m	77
307255	3304651	I was trying to remember what Bobby said.	I was trying to remember what Bobby said.	157020409	1476218734705	1476218734769	b	66
307255	3304651	I was trying to remember what Bobby said.	I was trying to remember what Bobby said.	157020414	1476218734785	1476218734865	e	69
307255	3304651	I was trying to remember what Bobby said.	I was trying to remember what Bobby said.	157020416	1476218734921	1476218734993	r	82
307255	3304651	I was trying to remember what Bobby said.	I was trying to remember what Bobby said.	157020420	1476218735025	1476218735105	 	32
307255	3304651	I was trying to remember what Bobby said.	I was trying to remember what Bobby said.	157020468	1476218735201	1476218735281	w	87
307255	3304651	I was trying to remember what Bobby said.	I was trying to remember what Bobby said.	157020475	1476218735329	1476218735417	h	72
307255	3304651	I was trying to remember what Bobby said.	I was trying to remember what Bobby said.	157020482	1476218735401	1476218735465	a	65
307255	3304651	I was trying to remember what Bobby said.	I was trying to remember what Bobby said.	157020493	1476218735561	1476218735633	t	84
307255	3304651	I was trying to remember what Bobby said.	I was trying to remember what Bobby said.	157020504	1476218735649	1476218735721	 	32
307255	3304651	I was trying to remember what Bobby said.	I was trying to remember what Bobby said.	157020544	1476218735777	1476218735897	SHIFT	16
307255	3304651	I was trying to remember what Bobby said.	I was trying to remember what Bobby said.	157020548	1476218735833	1476218735897	B	66
307255	3304651	I was trying to remember what Bobby said.	I was trying to remember what Bobby said.	157020555	1476218735985	1476218736056	o	79
307255	3304651	I was trying to remember what Bobby said.	I was trying to remember what Bobby said.	157020562	1476218736137	1476218736193	b	66
307255	3304651	I was trying to remember what Bobby said.	I was trying to remember what Bobby said.	157020567	1476218736249	1476218736321	b	66
307255	3304651	I was trying to remember what Bobby said.	I was trying to remember what Bobby said.	157020572	1476218736329	1476218736385	y	89
307255	3304651	I was trying to remember what Bobby said.	I was trying to remember what Bobby said.	157020599	1476218736409	1476218736473	 	32
307255	3304651	I was trying to remember what Bobby said.	I was trying to remember what Bobby said.	157020605	1476218736537	1476218736617	s	83
307255	3304651	I was trying to remember what Bobby said.	I was trying to remember what Bobby said.	157020610	1476218736665	1476218736761	a	65
307255	3304651	I was trying to remember what Bobby said.	I was trying to remember what Bobby said.	157020615	1476218736769	1476218736832	i	73
307255	3304651	I was trying to remember what Bobby said.	I was trying to remember what Bobby said.	157020622	1476218736873	1476218736945	d	68
307255	3304651	I was trying to remember what Bobby said.	I was trying to remember what Bobby said.	157020623	1476218736985	1476218737040	.	190
307255	3304662	Please call me if you see any problems.	Please call me if you see any problems.	157020996	1476218740641	1476218740849	SHIFT	16
307255	3304662	Please call me if you see any problems.	Please call me if you see any problems.	157020992	1476218740769	1476218740825	P	80
307255	3304662	Please call me if you see any problems.	Please call me if you see any problems.	157021000	1476218740905	1476218740969	l	76
307255	3304662	Please call me if you see any problems.	Please call me if you see any problems.	157021005	1476218740985	1476218741041	e	69
307255	3304662	Please call me if you see any problems.	Please call me if you see any problems.	157021009	1476218741121	1476218741217	a	65
307255	3304662	Please call me if you see any problems.	Please call me if you see any problems.	157021013	1476218741313	1476218741369	s	83
307255	3304662	Please call me if you see any problems.	Please call me if you see any problems.	157021035	1476218741465	1476218741529	e	69
307255	3304662	Please call me if you see any problems.	Please call me if you see any problems.	157021044	1476218741569	1476218741649	 	32
307255	3304662	Please call me if you see any problems.	Please call me if you see any problems.	157021054	1476218741657	1476218741697	c	67
307255	3304662	Please call me if you see any problems.	Please call me if you see any problems.	157021063	1476218741769	1476218741857	a	65
307255	3304662	Please call me if you see any problems.	Please call me if you see any problems.	157021085	1476218741828	1476218741881	l	76
307255	3304662	Please call me if you see any problems.	Please call me if you see any problems.	157021089	1476218741953	1476218742025	l	76
307255	3304662	Please call me if you see any problems.	Please call me if you see any problems.	157021095	1476218742073	1476218742152	 	32
307255	3304662	Please call me if you see any problems.	Please call me if you see any problems.	157021102	1476218742145	1476218742224	m	77
307255	3304662	Please call me if you see any problems.	Please call me if you see any problems.	157021110	1476218742233	1476218742289	e	69
307255	3304662	Please call me if you see any problems.	Please call me if you see any problems.	157021117	1476218742297	1476218742377	 	32
307255	3304662	Please call me if you see any problems.	Please call me if you see any problems.	157021136	1476218742369	1476218742448	i	73
307255	3304662	Please call me if you see any problems.	Please call me if you see any problems.	157021143	1476218742433	1476218742505	f	70
307255	3304662	Please call me if you see any problems.	Please call me if you see any problems.	157021150	1476218742505	1476218742625	 	32
307255	3304662	Please call me if you see any problems.	Please call me if you see any problems.	157021156	1476218742609	1476218742665	y	89
307255	3304662	Please call me if you see any problems.	Please call me if you see any problems.	157021159	1476218742737	1476218742816	o	79
307255	3304662	Please call me if you see any problems.	Please call me if you see any problems.	157021189	1476218742785	1476218742841	u	85
307255	3304662	Please call me if you see any problems.	Please call me if you see any problems.	157021194	1476218742873	1476218742945	 	32
307255	3304662	Please call me if you see any problems.	Please call me if you see any problems.	157021197	1476218742936	1476218742993	s	83
307255	3304662	Please call me if you see any problems.	Please call me if you see any problems.	157021205	1476218743097	1476218743145	e	69
307255	3304662	Please call me if you see any problems.	Please call me if you see any problems.	157021211	1476218743233	1476218743289	e	69
307255	3304662	Please call me if you see any problems.	Please call me if you see any problems.	157021214	1476218743345	1476218743384	 	32
307255	3304662	Please call me if you see any problems.	Please call me if you see any problems.	157021243	1476218743465	1476218743528	a	65
307255	3304662	Please call me if you see any problems.	Please call me if you see any problems.	157021251	1476218743545	1476218743601	n	78
307255	3304662	Please call me if you see any problems.	Please call me if you see any problems.	157021256	1476218743697	1476218743769	y	89
307255	3304662	Please call me if you see any problems.	Please call me if you see any problems.	157021259	1476218743817	1476218743888	 	32
307255	3304662	Please call me if you see any problems.	Please call me if you see any problems.	157021264	1476218743905	1476218743985	p	80
307255	3304662	Please call me if you see any problems.	Please call me if you see any problems.	157021296	1476218744017	1476218744088	r	82
307255	3304662	Please call me if you see any problems.	Please call me if you see any problems.	157021301	1476218744073	1476218744144	o	79
307255	3304662	Please call me if you see any problems.	Please call me if you see any problems.	157021308	1476218744281	1476218744345	b	66
307255	3304662	Please call me if you see any problems.	Please call me if you see any problems.	157021311	1476218744433	1476218744513	l	76
307255	3304662	Please call me if you see any problems.	Please call me if you see any problems.	157021314	1476218744545	1476218744609	e	69
307255	3304662	Please call me if you see any problems.	Please call me if you see any problems.	157021332	1476218744611	1476218744688	m	77
307255	3304662	Please call me if you see any problems.	Please call me if you see any problems.	157021336	1476218744769	1476218744857	s	83
307255	3304662	Please call me if you see any problems.	Please call me if you see any problems.	157021342	1476218744905	1476218744953	.	190
307255	3304674	Sanaa appeared to be a ghost town with many shops closed.	Sanaa appeared to be a ghost town with many shops closed.	157021702	1476218746817	1476218747953	SHIFT	16
307255	3304674	Sanaa appeared to be a ghost town with many shops closed.	Sanaa appeared to be a ghost town with many shops closed.	157021708	1476218748865	1476218749153	SHIFT	16
307255	3304674	Sanaa appeared to be a ghost town with many shops closed.	Sanaa appeared to be a ghost town with many shops closed.	157021714	1476218749065	1476218749192	S	83
307255	3304674	Sanaa appeared to be a ghost town with many shops closed.	Sanaa appeared to be a ghost town with many shops closed.	157021722	1476218749297	1476218749360	a	65
307255	3304674	Sanaa appeared to be a ghost town with many shops closed.	Sanaa appeared to be a ghost town with many shops closed.	157021728	1476218749425	1476218749480	n	78
307255	3304674	Sanaa appeared to be a ghost town with many shops closed.	Sanaa appeared to be a ghost town with many shops closed.	157021735	1476218749585	1476218749641	a	65
307255	3304674	Sanaa appeared to be a ghost town with many shops closed.	Sanaa appeared to be a ghost town with many shops closed.	157021740	1476218749737	1476218749800	a	65
307255	3304674	Sanaa appeared to be a ghost town with many shops closed.	Sanaa appeared to be a ghost town with many shops closed.	157021759	1476218749873	1476218749969	 	32
307255	3304674	Sanaa appeared to be a ghost town with many shops closed.	Sanaa appeared to be a ghost town with many shops closed.	157021765	1476218749993	1476218750057	a	65
307255	3304674	Sanaa appeared to be a ghost town with many shops closed.	Sanaa appeared to be a ghost town with many shops closed.	157021771	1476218750097	1476218750160	p	80
307255	3304674	Sanaa appeared to be a ghost town with many shops closed.	Sanaa appeared to be a ghost town with many shops closed.	157021778	1476218750241	1476218750313	p	80
307255	3304674	Sanaa appeared to be a ghost town with many shops closed.	Sanaa appeared to be a ghost town with many shops closed.	157021782	1476218750337	1476218750393	e	69
307255	3304674	Sanaa appeared to be a ghost town with many shops closed.	Sanaa appeared to be a ghost town with many shops closed.	157021817	1476218750521	1476218750585	a	65
307255	3304674	Sanaa appeared to be a ghost town with many shops closed.	Sanaa appeared to be a ghost town with many shops closed.	157021822	1476218750674	1476218750736	r	82
307255	3304674	Sanaa appeared to be a ghost town with many shops closed.	Sanaa appeared to be a ghost town with many shops closed.	157021827	1476218750801	1476218750857	e	69
307255	3304674	Sanaa appeared to be a ghost town with many shops closed.	Sanaa appeared to be a ghost town with many shops closed.	157021834	1476218750921	1476218750985	d	68
307255	3304674	Sanaa appeared to be a ghost town with many shops closed.	Sanaa appeared to be a ghost town with many shops closed.	157021842	1476218751025	1476218751088	 	32
307255	3304674	Sanaa appeared to be a ghost town with many shops closed.	Sanaa appeared to be a ghost town with many shops closed.	157021868	1476218751121	1476218751192	t	84
307255	3304674	Sanaa appeared to be a ghost town with many shops closed.	Sanaa appeared to be a ghost town with many shops closed.	157021873	1476218751177	1476218751257	o	79
307255	3304674	Sanaa appeared to be a ghost town with many shops closed.	Sanaa appeared to be a ghost town with many shops closed.	157021880	1476218751273	1476218751328	 	32
307255	3304674	Sanaa appeared to be a ghost town with many shops closed.	Sanaa appeared to be a ghost town with many shops closed.	157021886	1476218751433	1476218751497	b	66
307255	3304674	Sanaa appeared to be a ghost town with many shops closed.	Sanaa appeared to be a ghost town with many shops closed.	157021892	1476218751513	1476218751577	e	69
307255	3304674	Sanaa appeared to be a ghost town with many shops closed.	Sanaa appeared to be a ghost town with many shops closed.	157021922	1476218751593	1476218751664	 	32
307255	3304674	Sanaa appeared to be a ghost town with many shops closed.	Sanaa appeared to be a ghost town with many shops closed.	157021929	1476218751737	1476218751808	a	65
307255	3304674	Sanaa appeared to be a ghost town with many shops closed.	Sanaa appeared to be a ghost town with many shops closed.	157021939	1476218751793	1476218751856	 	32
307255	3304674	Sanaa appeared to be a ghost town with many shops closed.	Sanaa appeared to be a ghost town with many shops closed.	157021947	1476218751953	1476218752025	g	71
307255	3304674	Sanaa appeared to be a ghost town with many shops closed.	Sanaa appeared to be a ghost town with many shops closed.	157021953	1476218752033	1476218752096	h	72
307255	3304674	Sanaa appeared to be a ghost town with many shops closed.	Sanaa appeared to be a ghost town with many shops closed.	157021979	1476218752153	1476218752233	s	79
307255	3304674	Sanaa appeared to be a ghost town with many shops closed.	Sanaa appeared to be a ghost town with many shops closed.	157021983	1476218752329	1476218752377	t	84
307255	3304674	Sanaa appeared to be a ghost town with many shops closed.	Sanaa appeared to be a ghost town with many shops closed.	157021987	1476218752393	1476218752464	 	32
307255	3304674	Sanaa appeared to be a ghost town with many shops closed.	Sanaa appeared to be a ghost town with many shops closed.	157021991	1476218752481	1476218752544	t	84
307255	3304674	Sanaa appeared to be a ghost town with many shops closed.	Sanaa appeared to be a ghost town with many shops closed.	157022005	1476218752561	1476218752632	o	79
307255	3304674	Sanaa appeared to be a ghost town with many shops closed.	Sanaa appeared to be a ghost town with many shops closed.	157022007	1476218752657	1476218752737	w	87
307255	3304674	Sanaa appeared to be a ghost town with many shops closed.	Sanaa appeared to be a ghost town with many shops closed.	157022013	1476218752761	1476218752809	n	78
307255	3304674	Sanaa appeared to be a ghost town with many shops closed.	Sanaa appeared to be a ghost town with many shops closed.	157022020	1476218752857	1476218752944	 	32
307255	3304674	Sanaa appeared to be a ghost town with many shops closed.	Sanaa appeared to be a ghost town with many shops closed.	157022040	1476218752937	1476218753008	w	87
307255	3304674	Sanaa appeared to be a ghost town with many shops closed.	Sanaa appeared to be a ghost town with many shops closed.	157022042	1476218753017	1476218753080	i	73
307255	3304674	Sanaa appeared to be a ghost town with many shops closed.	Sanaa appeared to be a ghost town with many shops closed.	157022048	1476218753113	1476218753200	t	84
307255	3304674	Sanaa appeared to be a ghost town with many shops closed.	Sanaa appeared to be a ghost town with many shops closed.	157022054	1476218753185	1476218753240	h	72
307255	3304674	Sanaa appeared to be a ghost town with many shops closed.	Sanaa appeared to be a ghost town with many shops closed.	157022063	1476218753273	1476218753336	 	32
307255	3304674	Sanaa appeared to be a ghost town with many shops closed.	Sanaa appeared to be a ghost town with many shops closed.	157022068	1476218753409	1476218753472	m	77
307255	3304674	Sanaa appeared to be a ghost town with many shops closed.	Sanaa appeared to be a ghost town with many shops closed.	157022093	1476218753513	1476218753592	a	65
307255	3304674	Sanaa appeared to be a ghost town with many shops closed.	Sanaa appeared to be a ghost town with many shops closed.	157022099	1476218753569	1476218753616	n	78
307255	3304674	Sanaa appeared to be a ghost town with many shops closed.	Sanaa appeared to be a ghost town with many shops closed.	157022107	1476218753729	1476218753785	y	89
307255	3304674	Sanaa appeared to be a ghost town with many shops closed.	Sanaa appeared to be a ghost town with many shops closed.	157022113	1476218753825	1476218753896	 	32
307255	3304674	Sanaa appeared to be a ghost town with many shops closed.	Sanaa appeared to be a ghost town with many shops closed.	157022115	1476218753921	1476218753992	s	83
307255	3304674	Sanaa appeared to be a ghost town with many shops closed.	Sanaa appeared to be a ghost town with many shops closed.	157022142	1476218753944	1476218754009	h	72
307255	3304674	Sanaa appeared to be a ghost town with many shops closed.	Sanaa appeared to be a ghost town with many shops closed.	157022146	1476218754129	1476218754184	o	79
307255	3304674	Sanaa appeared to be a ghost town with many shops closed.	Sanaa appeared to be a ghost town with many shops closed.	157022151	1476218754289	1476218754360	p	80
307255	3304674	Sanaa appeared to be a ghost town with many shops closed.	Sanaa appeared to be a ghost town with many shops closed.	157022158	1476218754401	1476218754481	s	83
307255	3304674	Sanaa appeared to be a ghost town with many shops closed.	Sanaa appeared to be a ghost town with many shops closed.	157022169	1476218754489	1476218754569	 	32
307255	3304674	Sanaa appeared to be a ghost town with many shops closed.	Sanaa appeared to be a ghost town with many shops closed.	157022176	1476218754617	1476218754688	c	67
307255	3304674	Sanaa appeared to be a ghost town with many shops closed.	Sanaa appeared to be a ghost town with many shops closed.	157022208	1476218754696	1476218754768	l	76
307255	3304674	Sanaa appeared to be a ghost town with many shops closed.	Sanaa appeared to be a ghost town with many shops closed.	157022212	1476218754849	1476218754912	o	79
307255	3304674	Sanaa appeared to be a ghost town with many shops closed.	Sanaa appeared to be a ghost town with many shops closed.	157022218	1476218754905	1476218754960	s	83
307255	3304674	Sanaa appeared to be a ghost town with many shops closed.	Sanaa appeared to be a ghost town with many shops closed.	157022222	1476218755049	1476218755112	e	69
307255	3304674	Sanaa appeared to be a ghost town with many shops closed.	Sanaa appeared to be a ghost town with many shops closed.	157022227	1476218755161	1476218755265	d	68
307255	3304674	Sanaa appeared to be a ghost town with many shops closed.	Sanaa appeared to be a ghost town with many shops closed.	157022225	1476218755249	1476218755320	.	190
307255	3304699	He's a questionable Fantasy player to begin with.	He's a questionable Fantasy player to begin with.	157022499	1476218757240	1476218758096	SHIFT	16
307255	3304699	He's a questionable Fantasy player to begin with.	He's a questionable Fantasy player to begin with.	157022493	1476218757953	1476218758025	H	72
307255	3304699	He's a questionable Fantasy player to begin with.	He's a questionable Fantasy player to begin with.	157022507	1476218758233	1476218758296	e	69
307255	3304699	He's a questionable Fantasy player to begin with.	He's a questionable Fantasy player to begin with.	157022514	1476218758345	1476218758368	'	222
307255	3304699	He's a questionable Fantasy player to begin with.	He's a questionable Fantasy player to begin with.	157022519	1476218758489	1476218758560	s	83
307255	3304699	He's a questionable Fantasy player to begin with.	He's a questionable Fantasy player to begin with.	157022524	1476218758617	1476218758680	 	32
307255	3304699	He's a questionable Fantasy player to begin with.	He's a questionable Fantasy player to begin with.	157022540	1476218758713	1476218758792	a	65
307255	3304699	He's a questionable Fantasy player to begin with.	He's a questionable Fantasy player to begin with.	157022543	1476218758793	1476218758856	 	32
307255	3304699	He's a questionable Fantasy player to begin with.	He's a questionable Fantasy player to begin with.	157022547	1476218758913	1476218758976	q	81
307255	3304699	He's a questionable Fantasy player to begin with.	He's a questionable Fantasy player to begin with.	157022553	1476218759001	1476218759056	u	85
307255	3304699	He's a questionable Fantasy player to begin with.	He's a questionable Fantasy player to begin with.	157022558	1476218759104	1476218759168	e	69
307255	3304699	He's a questionable Fantasy player to begin with.	He's a questionable Fantasy player to begin with.	157022673	1476218759257	1476218759336	s	83
307255	3304699	He's a questionable Fantasy player to begin with.	He's a questionable Fantasy player to begin with.	157022679	1476218759441	1476218759512	t	84
307255	3304699	He's a questionable Fantasy player to begin with.	He's a questionable Fantasy player to begin with.	157022683	1476218759561	1476218759696	i	79
307255	3304699	He's a questionable Fantasy player to begin with.	He's a questionable Fantasy player to begin with.	157022689	1476218760345	1476218760416	BKSP	8
307255	3304699	He's a questionable Fantasy player to begin with.	He's a questionable Fantasy player to begin with.	157022700	1476218760481	1476218760544	BKSP	8
307255	3304699	He's a questionable Fantasy player to begin with.	He's a questionable Fantasy player to begin with.	157022709	1476218760657	1476218760744	i	73
307255	3304699	He's a questionable Fantasy player to begin with.	He's a questionable Fantasy player to begin with.	157022746	1476218760747	1476218760832	o	79
307255	3304699	He's a questionable Fantasy player to begin with.	He's a questionable Fantasy player to begin with.	157022749	1476218760921	1476218760992	n	78
307255	3304699	He's a questionable Fantasy player to begin with.	He's a questionable Fantasy player to begin with.	157022755	1476218761065	1476218761136	a	65
307255	3304699	He's a questionable Fantasy player to begin with.	He's a questionable Fantasy player to begin with.	157022759	1476218761137	1476218761192	b	66
307255	3304699	He's a questionable Fantasy player to begin with.	He's a questionable Fantasy player to begin with.	157022765	1476218761273	1476218761352	l	76
307255	3304699	He's a questionable Fantasy player to begin with.	He's a questionable Fantasy player to begin with.	157022830	1476218761337	1476218761400	e	69
307255	3304699	He's a questionable Fantasy player to begin with.	He's a questionable Fantasy player to begin with.	157022836	1476218761424	1476218761496	 	32
307255	3304699	He's a questionable Fantasy player to begin with.	He's a questionable Fantasy player to begin with.	157022840	1476218761552	1476218761704	SHIFT	16
307255	3304699	He's a questionable Fantasy player to begin with.	He's a questionable Fantasy player to begin with.	157022845	1476218761673	1476218761728	F	70
307255	3304699	He's a questionable Fantasy player to begin with.	He's a questionable Fantasy player to begin with.	157022852	1476218761825	1476218761904	a	65
307255	3304699	He's a questionable Fantasy player to begin with.	He's a questionable Fantasy player to begin with.	157022860	1476218761896	1476218761952	n	78
307255	3304699	He's a questionable Fantasy player to begin with.	He's a questionable Fantasy player to begin with.	157022868	1476218762081	1476218762136	t	84
307255	3304699	He's a questionable Fantasy player to begin with.	He's a questionable Fantasy player to begin with.	157022893	1476218762153	1476218762224	a	65
307255	3304699	He's a questionable Fantasy player to begin with.	He's a questionable Fantasy player to begin with.	157022897	1476218762320	1476218762392	s	83
307255	3304699	He's a questionable Fantasy player to begin with.	He's a questionable Fantasy player to begin with.	157022900	1476218762393	1476218762448	y	89
307255	3304699	He's a questionable Fantasy player to begin with.	He's a questionable Fantasy player to begin with.	157022905	1476218762513	1476218762568	 	32
307255	3304699	He's a questionable Fantasy player to begin with.	He's a questionable Fantasy player to begin with.	157022910	1476218762632	1476218762696	p	80
307255	3304699	He's a questionable Fantasy player to begin with.	He's a questionable Fantasy player to begin with.	157022942	1476218762841	1476218762904	l	76
307255	3304699	He's a questionable Fantasy player to begin with.	He's a questionable Fantasy player to begin with.	157022946	1476218762960	1476218763032	a	65
307255	3304699	He's a questionable Fantasy player to begin with.	He's a questionable Fantasy player to begin with.	157022949	1476218763065	1476218763120	y	89
307255	3304699	He's a questionable Fantasy player to begin with.	He's a questionable Fantasy player to begin with.	157022956	1476218763177	1476218763240	e	69
307255	3304699	He's a questionable Fantasy player to begin with.	He's a questionable Fantasy player to begin with.	157022964	1476218763345	1476218763417	r	82
307255	3304699	He's a questionable Fantasy player to begin with.	He's a questionable Fantasy player to begin with.	157022991	1476218763433	1476218763497	 	32
307255	3304699	He's a questionable Fantasy player to begin with.	He's a questionable Fantasy player to begin with.	157023001	1476218763561	1476218763624	o	84
307255	3304699	He's a questionable Fantasy player to begin with.	He's a questionable Fantasy player to begin with.	157023008	1476218763697	1476218763752	 	32
307255	3304699	He's a questionable Fantasy player to begin with.	He's a questionable Fantasy player to begin with.	157023014	1476218763801	1476218763864	b	66
307255	3304699	He's a questionable Fantasy player to begin with.	He's a questionable Fantasy player to begin with.	157023068	1476218764104	1476218764184	e	69
307255	3304699	He's a questionable Fantasy player to begin with.	He's a questionable Fantasy player to begin with.	157023073	1476218764265	1476218764352	g	71
307255	3304699	He's a questionable Fantasy player to begin with.	He's a questionable Fantasy player to begin with.	157023079	1476218764401	1476218764456	i	73
307255	3304699	He's a questionable Fantasy player to begin with.	He's a questionable Fantasy player to begin with.	157023084	1476218764505	1476218764584	n	78
307255	3304699	He's a questionable Fantasy player to begin with.	He's a questionable Fantasy player to begin with.	157023089	1476218764657	1476218764728	 	32
307255	3304699	He's a questionable Fantasy player to begin with.	He's a questionable Fantasy player to begin with.	157023127	1476218764865	1476218764936	w	87
307255	3304699	He's a questionable Fantasy player to begin with.	He's a questionable Fantasy player to begin with.	157023134	1476218764969	1476218765017	i	73
307255	3304699	He's a questionable Fantasy player to begin with.	He's a questionable Fantasy player to begin with.	157023144	1476218765017	1476218765104	t	84
307255	3304699	He's a questionable Fantasy player to begin with.	He's a questionable Fantasy player to begin with.	157023160	1476218765120	1476218765176	h	72
307255	3304699	He's a questionable Fantasy player to begin with.	He's a questionable Fantasy player to begin with.	157023168	1476218765313	1476218765360	.	190
307255	3304716	I appreciate you moving so quickly on this.	I appreciate you moving so quickly on this.	157023383	1476218767128	1476218767248	SHIFT	16
307255	3304716	I appreciate you moving so quickly on this.	I appreciate you moving so quickly on this.	157023374	1476218767176	1476218767232	I	73
307255	3304716	I appreciate you moving so quickly on this.	I appreciate you moving so quickly on this.	157023389	1476218767297	1476218767360	 	32
307255	3304716	I appreciate you moving so quickly on this.	I appreciate you moving so quickly on this.	157023396	1476218767513	1476218767592	a	65
307255	3304716	I appreciate you moving so quickly on this.	I appreciate you moving so quickly on this.	157023401	1476218767585	1476218767640	p	80
307255	3304716	I appreciate you moving so quickly on this.	I appreciate you moving so quickly on this.	157023405	1476218767713	1476218767784	p	80
307255	3304716	I appreciate you moving so quickly on this.	I appreciate you moving so quickly on this.	157023418	1476218767809	1476218767872	r	82
307255	3304716	I appreciate you moving so quickly on this.	I appreciate you moving so quickly on this.	157023425	1476218767952	1476218768016	e	69
307255	3304716	I appreciate you moving so quickly on this.	I appreciate you moving so quickly on this.	157023433	1476218768096	1476218768152	c	67
307255	3304716	I appreciate you moving so quickly on this.	I appreciate you moving so quickly on this.	157023441	1476218768248	1476218768313	i	73
307255	3304716	I appreciate you moving so quickly on this.	I appreciate you moving so quickly on this.	157023492	1476218768304	1476218768392	a	65
307255	3304716	I appreciate you moving so quickly on this.	I appreciate you moving so quickly on this.	157023496	1476218768553	1476218768624	t	84
307255	3304716	I appreciate you moving so quickly on this.	I appreciate you moving so quickly on this.	157023502	1476218768705	1476218768768	e	69
307255	3304716	I appreciate you moving so quickly on this.	I appreciate you moving so quickly on this.	157023507	1476218768792	1476218768888	 	32
307255	3304716	I appreciate you moving so quickly on this.	I appreciate you moving so quickly on this.	157023513	1476218768873	1476218768936	y	89
307255	3304716	I appreciate you moving so quickly on this.	I appreciate you moving so quickly on this.	157023518	1476218769017	1476218769080	o	79
307255	3304716	I appreciate you moving so quickly on this.	I appreciate you moving so quickly on this.	157023532	1476218769048	1476218769104	u	85
307255	3304716	I appreciate you moving so quickly on this.	I appreciate you moving so quickly on this.	157023535	1476218769129	1476218769184	 	32
307255	3304716	I appreciate you moving so quickly on this.	I appreciate you moving so quickly on this.	157023538	1476218769233	1476218769296	m	77
307255	3304716	I appreciate you moving so quickly on this.	I appreciate you moving so quickly on this.	157023542	1476218769336	1476218769417	o	79
307255	3304716	I appreciate you moving so quickly on this.	I appreciate you moving so quickly on this.	157023546	1476218769440	1476218769520	v	86
307255	3304716	I appreciate you moving so quickly on this.	I appreciate you moving so quickly on this.	157023552	1476218769537	1476218769592	i	73
307255	3304716	I appreciate you moving so quickly on this.	I appreciate you moving so quickly on this.	157023568	1476218769680	1476218769736	n	78
307255	3304716	I appreciate you moving so quickly on this.	I appreciate you moving so quickly on this.	157023574	1476218769745	1476218769816	g	71
307255	3304716	I appreciate you moving so quickly on this.	I appreciate you moving so quickly on this.	157023579	1476218769817	1476218769896	 	32
307255	3304716	I appreciate you moving so quickly on this.	I appreciate you moving so quickly on this.	157023585	1476218769953	1476218770048	s	83
307255	3304716	I appreciate you moving so quickly on this.	I appreciate you moving so quickly on this.	157023607	1476218770008	1476218770072	o	79
307255	3304716	I appreciate you moving so quickly on this.	I appreciate you moving so quickly on this.	157023615	1476218770105	1476218770176	 	32
307255	3304716	I appreciate you moving so quickly on this.	I appreciate you moving so quickly on this.	157023622	1476218770297	1476218770376	q	81
307255	3304716	I appreciate you moving so quickly on this.	I appreciate you moving so quickly on this.	157023637	1476218770369	1476218770432	u	85
307255	3304716	I appreciate you moving so quickly on this.	I appreciate you moving so quickly on this.	157023643	1476218770449	1476218770521	i	73
307255	3304716	I appreciate you moving so quickly on this.	I appreciate you moving so quickly on this.	157023649	1476218770553	1476218770672	c	67
307255	3304716	I appreciate you moving so quickly on this.	I appreciate you moving so quickly on this.	157023662	1476218770633	1476218770680	k	75
307255	3304716	I appreciate you moving so quickly on this.	I appreciate you moving so quickly on this.	157023664	1476218770770	1476218770848	l	76
307255	3304716	I appreciate you moving so quickly on this.	I appreciate you moving so quickly on this.	157023666	1476218770841	1476218770912	y	89
307255	3304716	I appreciate you moving so quickly on this.	I appreciate you moving so quickly on this.	157023669	1476218770920	1476218771016	 	32
307255	3304716	I appreciate you moving so quickly on this.	I appreciate you moving so quickly on this.	157023672	1476218771001	1476218771056	o	79
307255	3304716	I appreciate you moving so quickly on this.	I appreciate you moving so quickly on this.	157023679	1476218771113	1476218771177	n	78
307255	3304716	I appreciate you moving so quickly on this.	I appreciate you moving so quickly on this.	157023681	1476218771217	1476218771280	 	32
307255	3304716	I appreciate you moving so quickly on this.	I appreciate you moving so quickly on this.	157023685	1476218771256	1476218771336	t	84
307255	3304716	I appreciate you moving so quickly on this.	I appreciate you moving so quickly on this.	157023690	1476218771353	1476218771400	h	72
307255	3304716	I appreciate you moving so quickly on this.	I appreciate you moving so quickly on this.	157023696	1476218771424	1476218771488	i	73
307255	3304716	I appreciate you moving so quickly on this.	I appreciate you moving so quickly on this.	157023713	1476218771481	1476218771568	s	83
307255	3304716	I appreciate you moving so quickly on this.	I appreciate you moving so quickly on this.	157023716	1476218771641	1476218771696	.	190
307255	3304732	Thank you for your call.	Thank you for your call.	157023963	1476218774096	1476218774216	SHIFT	16
307255	3304732	Thank you for your call.	Thank you for your call.	157023973	1476218774176	1476218774240	T	84
307255	3304732	Thank you for your call.	Thank you for your call.	157023980	1476218774361	1476218774416	h	72
307255	3304732	Thank you for your call.	Thank you for your call.	157023986	1476218774488	1476218774551	a	65
307255	3304732	Thank you for your call.	Thank you for your call.	157023992	1476218774544	1476218774600	n	78
307255	3304732	Thank you for your call.	Thank you for your call.	157023997	1476218774665	1476218774728	k	75
307255	3304732	Thank you for your call.	Thank you for your call.	157024009	1476218774761	1476218774856	 	32
307255	3304732	Thank you for your call.	Thank you for your call.	157024016	1476218774832	1476218774904	y	89
307255	3304732	Thank you for your call.	Thank you for your call.	157024021	1476218774960	1476218775056	o	79
307255	3304732	Thank you for your call.	Thank you for your call.	157024026	1476218775025	1476218775104	u	85
307255	3304732	Thank you for your call.	Thank you for your call.	157024033	1476218775120	1476218775193	 	32
307255	3304732	Thank you for your call.	Thank you for your call.	157024068	1476218775177	1476218775240	f	70
307255	3304732	Thank you for your call.	Thank you for your call.	157024072	1476218775272	1476218775344	o	79
307255	3304732	Thank you for your call.	Thank you for your call.	157024077	1476218775352	1476218775433	r	82
307255	3304732	Thank you for your call.	Thank you for your call.	157024082	1476218775424	1476218775504	 	32
307255	3304732	Thank you for your call.	Thank you for your call.	157024088	1476218775520	1476218775576	y	89
307255	3304732	Thank you for your call.	Thank you for your call.	157024096	1476218775656	1476218775720	o	79
307255	3304732	Thank you for your call.	Thank you for your call.	157024108	1476218775704	1476218775767	u	85
307255	3304732	Thank you for your call.	Thank you for your call.	157024110	1476218775761	1476218775824	r	82
307255	3304732	Thank you for your call.	Thank you for your call.	157024113	1476218775840	1476218775912	 	32
307255	3304732	Thank you for your call.	Thank you for your call.	157024117	1476218775944	1476218775992	c	67
307255	3304732	Thank you for your call.	Thank you for your call.	157024122	1476218776080	1476218776160	a	65
307255	3304732	Thank you for your call.	Thank you for your call.	157024156	1476218776137	1476218776200	l	76
307255	3304732	Thank you for your call.	Thank you for your call.	157024158	1476218776256	1476218776320	l	76
307255	3304732	Thank you for your call.	Thank you for your call.	157024162	1476218776561	1476218776600	.	190
307255	3304743	Can you help me here?	Can you help me here?	157024339	1476218778608	1476218778896	SHIFT	16
307255	3304743	Can you help me here?	Can you help me here?	157024344	1476218778832	1476218778936	C	67
307255	3304743	Can you help me here?	Can you help me here?	157024349	1476218779024	1476218779096	a	65
307255	3304743	Can you help me here?	Can you help me here?	157024354	1476218779104	1476218779168	n	78
307255	3304743	Can you help me here?	Can you help me here?	157024360	1476218779216	1476218779328	 	32
307255	3304743	Can you help me here?	Can you help me here?	157024394	1476218779312	1476218779368	y	89
307255	3304743	Can you help me here?	Can you help me here?	157024399	1476218779441	1476218779520	o	79
307255	3304743	Can you help me here?	Can you help me here?	157024408	1476218779488	1476218779552	u	85
307255	3304743	Can you help me here?	Can you help me here?	157024416	1476218779576	1476218779659	 	32
307255	3304743	Can you help me here?	Can you help me here?	157024421	1476218779657	1476218779728	h	72
307255	3304743	Can you help me here?	Can you help me here?	157024424	1476218779752	1476218779816	e	69
307255	3304743	Can you help me here?	Can you help me here?	157024435	1476218779856	1476218779920	l	76
307255	3304743	Can you help me here?	Can you help me here?	157024440	1476218779952	1476218780032	p	80
307255	3304743	Can you help me here?	Can you help me here?	157024443	1476218780064	1476218780120	 	32
307255	3304743	Can you help me here?	Can you help me here?	157024451	1476218780152	1476218780224	m	77
307255	3304743	Can you help me here?	Can you help me here?	157024460	1476218780232	1476218780305	e	69
307255	3304743	Can you help me here?	Can you help me here?	157024513	1476218780288	1476218780344	 	32
307255	3304743	Can you help me here?	Can you help me here?	157024515	1476218780408	1476218780487	h	72
307255	3304743	Can you help me here?	Can you help me here?	157024518	1476218780481	1476218780544	e	69
307255	3304743	Can you help me here?	Can you help me here?	157024524	1476218780576	1476218780648	r	82
307255	3304743	Can you help me here?	Can you help me here?	157024530	1476218780680	1476218780744	e	69
307255	3304743	Can you help me here?	Can you help me here?	157024536	1476218780768	1476218780880	SHIFT	16
307255	3304743	Can you help me here?	Can you help me here?	157024525	1476218780833	1476218780912	?	191
307255	3304749	I am out of town on business.	I am out of town on business.	157024763	1476218782688	1476218782880	SHIFT	16
307255	3304749	I am out of town on business.	I am out of town on business.	157024758	1476218782809	1476218782872	I	73
307255	3304749	I am out of town on business.	I am out of town on business.	157024771	1476218782928	1476218783000	 	32
307255	3304749	I am out of town on business.	I am out of town on business.	157024780	1476218783072	1476218783128	a	65
307255	3304749	I am out of town on business.	I am out of town on business.	157024789	1476218783136	1476218783200	m	77
307255	3304749	I am out of town on business.	I am out of town on business.	157024795	1476218783352	1476218783408	 	32
307255	3304749	I am out of town on business.	I am out of town on business.	157024817	1476218783520	1476218783608	o	79
307255	3304749	I am out of town on business.	I am out of town on business.	157024822	1476218783624	1476218783688	u	85
307255	3304749	I am out of town on business.	I am out of town on business.	157024827	1476218783728	1476218783792	t	84
307255	3304749	I am out of town on business.	I am out of town on business.	157024833	1476218783792	1476218783856	 	32
307255	3304749	I am out of town on business.	I am out of town on business.	157024841	1476218783865	1476218783938	o	79
307255	3304749	I am out of town on business.	I am out of town on business.	157024867	1476218783936	1476218783999	f	70
307255	3304749	I am out of town on business.	I am out of town on business.	157024870	1476218783992	1476218784064	 	32
307255	3304749	I am out of town on business.	I am out of town on business.	157024876	1476218784152	1476218784224	t	84
307255	3304749	I am out of town on business.	I am out of town on business.	157024884	1476218784232	1476218784304	o	79
307255	3304749	I am out of town on business.	I am out of town on business.	157024891	1476218784344	1476218784424	w	87
307255	3304749	I am out of town on business.	I am out of town on business.	157024899	1476218784432	1476218784488	n	78
307255	3304749	I am out of town on business.	I am out of town on business.	157024920	1476218784552	1476218784640	 	32
307255	3304749	I am out of town on business.	I am out of town on business.	157024924	1476218784608	1476218784671	o	79
307255	3304749	I am out of town on business.	I am out of town on business.	157024928	1476218784752	1476218784808	n	78
307255	3304749	I am out of town on business.	I am out of town on business.	157024930	1476218784856	1476218784928	 	32
307255	3304749	I am out of town on business.	I am out of town on business.	157024933	1476218784992	1476218785048	b	66
307255	3304749	I am out of town on business.	I am out of town on business.	157024961	1476218785112	1476218785184	u	85
307255	3304749	I am out of town on business.	I am out of town on business.	157024968	1476218785264	1476218785343	s	83
307255	3304749	I am out of town on business.	I am out of town on business.	157024972	1476218785352	1476218785424	i	73
307255	3304749	I am out of town on business.	I am out of town on business.	157024977	1476218785488	1476218785552	n	78
307255	3304749	I am out of town on business.	I am out of town on business.	157024980	1476218785568	1476218785640	e	69
307255	3304749	I am out of town on business.	I am out of town on business.	157024998	1476218785736	1476218785800	s	83
307255	3304749	I am out of town on business.	I am out of town on business.	157025000	1476218785880	1476218785944	s	83
307255	3304749	I am out of town on business.	I am out of town on business.	157025007	1476218785969	1476218785993	.	190
307255	3304760	Every Enron employee has an internet email address.	Every Enron employee has an internet email address.	157025484	1476218790344	1476218790616	SHIFT	16
307255	3304760	Every Enron employee has an internet email address.	Every Enron employee has an internet email address.	157025486	1476218790560	1476218790664	E	69
307255	3304760	Every Enron employee has an internet email address.	Every Enron employee has an internet email address.	157025493	1476218790696	1476218790759	v	86
307255	3304760	Every Enron employee has an internet email address.	Every Enron employee has an internet email address.	157025498	1476218790784	1476218790832	e	69
307255	3304760	Every Enron employee has an internet email address.	Every Enron employee has an internet email address.	157025506	1476218790937	1476218790999	r	82
307255	3304760	Every Enron employee has an internet email address.	Every Enron employee has an internet email address.	157025514	1476218791016	1476218791088	y	89
307255	3304760	Every Enron employee has an internet email address.	Every Enron employee has an internet email address.	157025575	1476218791288	1476218791352	 	32
307255	3304760	Every Enron employee has an internet email address.	Every Enron employee has an internet email address.	157025578	1476218791575	1476218791800	SHIFT	16
307255	3304760	Every Enron employee has an internet email address.	Every Enron employee has an internet email address.	157025585	1476218791760	1476218791848	E	69
307255	3304760	Every Enron employee has an internet email address.	Every Enron employee has an internet email address.	157025590	1476218791896	1476218791960	n	78
307255	3304760	Every Enron employee has an internet email address.	Every Enron employee has an internet email address.	157025594	1476218791984	1476218792040	r	82
307255	3304760	Every Enron employee has an internet email address.	Every Enron employee has an internet email address.	157025599	1476218792088	1476218792152	o	79
307255	3304760	Every Enron employee has an internet email address.	Every Enron employee has an internet email address.	157025628	1476218792216	1476218792280	n	78
307255	3304760	Every Enron employee has an internet email address.	Every Enron employee has an internet email address.	157025633	1476218792328	1476218792392	 	32
307255	3304760	Every Enron employee has an internet email address.	Every Enron employee has an internet email address.	157025639	1476218792456	1476218792512	e	69
307255	3304760	Every Enron employee has an internet email address.	Every Enron employee has an internet email address.	157025643	1476218792520	1476218792583	m	77
307255	3304760	Every Enron employee has an internet email address.	Every Enron employee has an internet email address.	157025645	1476218792640	1476218792711	p	80
307255	3304760	Every Enron employee has an internet email address.	Every Enron employee has an internet email address.	157025707	1476218792768	1476218792824	l	76
307255	3304760	Every Enron employee has an internet email address.	Every Enron employee has an internet email address.	157025711	1476218792920	1476218792992	o	79
307255	3304760	Every Enron employee has an internet email address.	Every Enron employee has an internet email address.	157025717	1476218793200	1476218793264	y	89
307255	3304760	Every Enron employee has an internet email address.	Every Enron employee has an internet email address.	157025726	1476218793480	1476218793536	e	69
307255	3304760	Every Enron employee has an internet email address.	Every Enron employee has an internet email address.	157025729	1476218793608	1476218793688	e	69
307255	3304760	Every Enron employee has an internet email address.	Every Enron employee has an internet email address.	157025754	1476218793720	1476218793776	 	32
307255	3304760	Every Enron employee has an internet email address.	Every Enron employee has an internet email address.	157025759	1476218793832	1476218793904	h	72
307255	3304760	Every Enron employee has an internet email address.	Every Enron employee has an internet email address.	157025765	1476218793920	1476218793983	a	65
307255	3304760	Every Enron employee has an internet email address.	Every Enron employee has an internet email address.	157025770	1476218794088	1476218794144	s	83
307255	3304760	Every Enron employee has an internet email address.	Every Enron employee has an internet email address.	157025776	1476218794152	1476218794232	 	32
307255	3304760	Every Enron employee has an internet email address.	Every Enron employee has an internet email address.	157025818	1476218794328	1476218794400	a	65
307255	3304760	Every Enron employee has an internet email address.	Every Enron employee has an internet email address.	157025820	1476218794400	1476218794456	n	78
307255	3304760	Every Enron employee has an internet email address.	Every Enron employee has an internet email address.	157025826	1476218794528	1476218794599	 	32
307255	3304760	Every Enron employee has an internet email address.	Every Enron employee has an internet email address.	157025830	1476218794680	1476218794736	i	73
307255	3304760	Every Enron employee has an internet email address.	Every Enron employee has an internet email address.	157025833	1476218794824	1476218794880	n	78
307255	3304760	Every Enron employee has an internet email address.	Every Enron employee has an internet email address.	157025859	1476218794848	1476218794911	t	84
307255	3304760	Every Enron employee has an internet email address.	Every Enron employee has an internet email address.	157025866	1476218794960	1476218795023	e	69
307255	3304760	Every Enron employee has an internet email address.	Every Enron employee has an internet email address.	157025872	1476218795048	1476218795112	r	82
307255	3304760	Every Enron employee has an internet email address.	Every Enron employee has an internet email address.	157025876	1476218795152	1476218795216	n	78
307255	3304760	Every Enron employee has an internet email address.	Every Enron employee has an internet email address.	157025880	1476218795200	1476218795279	e	69
307255	3304760	Every Enron employee has an internet email address.	Every Enron employee has an internet email address.	157025885	1476218795336	1476218795416	t	84
307255	3304760	Every Enron employee has an internet email address.	Every Enron employee has an internet email address.	157025896	1476218795418	1476218795480	 	32
307255	3304760	Every Enron employee has an internet email address.	Every Enron employee has an internet email address.	157025900	1476218795520	1476218795599	e	69
307255	3304760	Every Enron employee has an internet email address.	Every Enron employee has an internet email address.	157025906	1476218795592	1476218795663	m	77
307255	3304760	Every Enron employee has an internet email address.	Every Enron employee has an internet email address.	157025912	1476218795696	1476218795759	i	73
307255	3304760	Every Enron employee has an internet email address.	Every Enron employee has an internet email address.	157025918	1476218795776	1476218795872	a	65
307255	3304760	Every Enron employee has an internet email address.	Every Enron employee has an internet email address.	157025971	1476218795888	1476218795944	l	76
307255	3304760	Every Enron employee has an internet email address.	Every Enron employee has an internet email address.	157025977	1476218796016	1476218796079	 	32
307255	3304760	Every Enron employee has an internet email address.	Every Enron employee has an internet email address.	157025983	1476218796072	1476218796152	a	65
307255	3304760	Every Enron employee has an internet email address.	Every Enron employee has an internet email address.	157025991	1476218796224	1476218796304	d	68
307255	3304760	Every Enron employee has an internet email address.	Every Enron employee has an internet email address.	157025999	1476218796736	1476218796808	r	82
307255	3304760	Every Enron employee has an internet email address.	Every Enron employee has an internet email address.	157026054	1476218796968	1476218797040	BKSP	8
307255	3304760	Every Enron employee has an internet email address.	Every Enron employee has an internet email address.	157026056	1476218797048	1476218797128	d	68
307255	3304760	Every Enron employee has an internet email address.	Every Enron employee has an internet email address.	157026060	1476218797216	1476218797280	r	82
307255	3304760	Every Enron employee has an internet email address.	Every Enron employee has an internet email address.	157026061	1476218797328	1476218797400	e	69
307255	3304760	Every Enron employee has an internet email address.	Every Enron employee has an internet email address.	157026062	1476218797504	1476218797560	s	83
307255	3304760	Every Enron employee has an internet email address.	Every Enron employee has an internet email address.	157026063	1476218797624	1476218797688	s	83
307255	3304760	Every Enron employee has an internet email address.	Every Enron employee has an internet email address.	157026218	1476218797712	1476218797776	.	190
307255	3304760	Every Enron employee has an internet email address.	Every Enron employee has an internet email address.	157026221	1476218799168	1476218799240	e	69
307255	3304760	Every Enron employee has an internet email address.	Every Enron employee has an internet email address.	157026225	1476218799272	1476218799328	m	77
307255	3304760	Every Enron employee has an internet email address.	Every Enron employee has an internet email address.	157026228	1476218799416	1476218799480	a	65
307255	3304760	Every Enron employee has an internet email address.	Every Enron employee has an internet email address.	157026237	1476218799512	1476218799559	i	73
307255	3304760	Every Enron employee has an internet email address.	Every Enron employee has an internet email address.	157026271	1476218799736	1476218799808	l	76
307255	3304783	I'll find someone to do it.	I'll find someone to do it.	157026472	1476218801841	1476218801984	SHIFT	16
307255	3304783	I'll find someone to do it.	I'll find someone to do it.	157026475	1476218801904	1476218801984	I	73
307255	3304783	I'll find someone to do it.	I'll find someone to do it.	157026480	1476218802072	1476218802136	'	222
307255	3304783	I'll find someone to do it.	I'll find someone to do it.	157026484	1476218802232	1476218802304	l	76
307255	3304783	I'll find someone to do it.	I'll find someone to do it.	157026487	1476218802352	1476218802464	l	76
307255	3304783	I'll find someone to do it.	I'll find someone to do it.	157026494	1476218802520	1476218802600	 	32
307255	3304783	I'll find someone to do it.	I'll find someone to do it.	157026518	1476218802648	1476218802719	f	70
307255	3304783	I'll find someone to do it.	I'll find someone to do it.	157026524	1476218802712	1476218802767	i	73
307255	3304783	I'll find someone to do it.	I'll find someone to do it.	157026532	1476218802856	1476218802920	n	78
307255	3304783	I'll find someone to do it.	I'll find someone to do it.	157026538	1476218802968	1476218803032	d	68
307255	3304783	I'll find someone to do it.	I'll find someone to do it.	157026542	1476218803064	1476218803144	 	32
307255	3304783	I'll find someone to do it.	I'll find someone to do it.	157026551	1476218803176	1476218803272	s	83
307255	3304783	I'll find someone to do it.	I'll find someone to do it.	157026553	1476218803216	1476218803287	o	79
307255	3304783	I'll find someone to do it.	I'll find someone to do it.	157026560	1476218803328	1476218803408	m	77
307255	3304783	I'll find someone to do it.	I'll find someone to do it.	157026566	1476218803416	1476218803480	e	69
307255	3304783	I'll find someone to do it.	I'll find someone to do it.	157026573	1476218803496	1476218803535	o	79
307255	3304783	I'll find someone to do it.	I'll find someone to do it.	157026592	1476218803592	1476218803663	n	78
307255	3304783	I'll find someone to do it.	I'll find someone to do it.	157026597	1476218803656	1476218803727	e	69
307255	3304783	I'll find someone to do it.	I'll find someone to do it.	157026601	1476218803760	1476218803823	 	32
307255	3304783	I'll find someone to do it.	I'll find someone to do it.	157026605	1476218803840	1476218803895	t	84
307255	3304783	I'll find someone to do it.	I'll find someone to do it.	157026611	1476218803912	1476218803984	o	79
307255	3304783	I'll find someone to do it.	I'll find someone to do it.	157026634	1476218804048	1476218804112	 	32
307255	3304783	I'll find someone to do it.	I'll find someone to do it.	157026638	1476218804152	1476218804232	d	68
307255	3304783	I'll find someone to do it.	I'll find someone to do it.	157026641	1476218804224	1476218804280	o	79
307255	3304783	I'll find someone to do it.	I'll find someone to do it.	157026644	1476218804328	1476218804384	 	32
307255	3304783	I'll find someone to do it.	I'll find someone to do it.	157026649	1476218804432	1476218804487	i	73
307255	3304783	I'll find someone to do it.	I'll find someone to do it.	157026659	1476218804528	1476218804600	t	84
307255	3304783	I'll find someone to do it.	I'll find someone to do it.	157026663	1476218804664	1476218804735	.	190
307255	3304795	When things get speculative the language always gets scary.	When things get speculative the language always get scary.	157027011	1476218808688	1476218808999	SHIFT	16
307255	3304795	When things get speculative the language always gets scary.	When things get speculative the language always get scary.	157027014	1476218808952	1476218809032	W	87
307255	3304795	When things get speculative the language always gets scary.	When things get speculative the language always get scary.	157027022	1476218809040	1476218809104	h	72
307255	3304795	When things get speculative the language always gets scary.	When things get speculative the language always get scary.	157027027	1476218809152	1476218809207	e	69
307255	3304795	When things get speculative the language always gets scary.	When things get speculative the language always get scary.	157027034	1476218809215	1476218809272	n	78
307255	3304795	When things get speculative the language always gets scary.	When things get speculative the language always get scary.	157027042	1476218809336	1476218809394	 	32
307255	3304795	When things get speculative the language always gets scary.	When things get speculative the language always get scary.	157027138	1476218809392	1476218809455	t	84
307255	3304795	When things get speculative the language always gets scary.	When things get speculative the language always get scary.	157027142	1476218809480	1476218809543	h	72
307255	3304795	When things get speculative the language always gets scary.	When things get speculative the language always get scary.	157027148	1476218809808	1476218809871	BKSP	8
307255	3304795	When things get speculative the language always gets scary.	When things get speculative the language always get scary.	157027153	1476218810408	1476218810471	h	72
307255	3304795	When things get speculative the language always gets scary.	When things get speculative the language always get scary.	157027158	1476218810487	1476218810552	i	73
307255	3304795	When things get speculative the language always gets scary.	When things get speculative the language always get scary.	157027162	1476218810608	1476218810663	n	78
307255	3304795	When things get speculative the language always gets scary.	When things get speculative the language always get scary.	157027165	1476218810680	1476218810759	g	71
307255	3304795	When things get speculative the language always gets scary.	When things get speculative the language always get scary.	157027185	1476218810912	1476218811000	s	83
307255	3304795	When things get speculative the language always gets scary.	When things get speculative the language always get scary.	157027191	1476218811024	1476218811104	 	32
307255	3304795	When things get speculative the language always gets scary.	When things get speculative the language always get scary.	157027197	1476218811152	1476218811239	g	71
307255	3304795	When things get speculative the language always gets scary.	When things get speculative the language always get scary.	157027202	1476218811288	1476218811352	e	69
307255	3304795	When things get speculative the language always gets scary.	When things get speculative the language always get scary.	157027206	1476218811408	1476218811480	t	84
307255	3304795	When things get speculative the language always gets scary.	When things get speculative the language always get scary.	157027225	1476218811472	1476218811552	 	32
307255	3304795	When things get speculative the language always gets scary.	When things get speculative the language always get scary.	157027231	1476218811608	1476218811671	s	83
307255	3304795	When things get speculative the language always gets scary.	When things get speculative the language always get scary.	157027237	1476218811704	1476218811776	p	80
307255	3304795	When things get speculative the language always gets scary.	When things get speculative the language always get scary.	157027242	1476218811784	1476218811831	e	69
307255	3304795	When things get speculative the language always gets scary.	When things get speculative the language always get scary.	157027248	1476218811921	1476218811999	c	67
307255	3304795	When things get speculative the language always gets scary.	When things get speculative the language always get scary.	157027252	1476218812048	1476218812103	u	85
307255	3304795	When things get speculative the language always gets scary.	When things get speculative the language always get scary.	157027265	1476218812192	1476218812287	l	76
307255	3304795	When things get speculative the language always gets scary.	When things get speculative the language always get scary.	157027268	1476218812264	1476218812327	a	65
307255	3304795	When things get speculative the language always gets scary.	When things get speculative the language always get scary.	157027275	1476218812416	1476218812488	t	84
307255	3304795	When things get speculative the language always gets scary.	When things get speculative the language always get scary.	157027281	1476218812512	1476218812584	i	73
307255	3304795	When things get speculative the language always gets scary.	When things get speculative the language always get scary.	157027288	1476218812632	1476218812704	v	86
307255	3304795	When things get speculative the language always gets scary.	When things get speculative the language always get scary.	157027287	1476218812759	1476218812831	e	69
307255	3304795	When things get speculative the language always gets scary.	When things get speculative the language always get scary.	157027295	1476218812840	1476218812919	 	32
307255	3304795	When things get speculative the language always gets scary.	When things get speculative the language always get scary.	157027301	1476218812912	1476218812991	t	84
307255	3304795	When things get speculative the language always gets scary.	When things get speculative the language always get scary.	157027307	1476218812984	1476218813055	h	72
307255	3304795	When things get speculative the language always gets scary.	When things get speculative the language always get scary.	157027349	1476218813048	1476218813145	e	69
307255	3304795	When things get speculative the language always gets scary.	When things get speculative the language always get scary.	157027351	1476218813128	1476218813215	 	32
307255	3304795	When things get speculative the language always gets scary.	When things get speculative the language always get scary.	157027354	1476218813184	1476218813271	l	76
307255	3304795	When things get speculative the language always gets scary.	When things get speculative the language always get scary.	157027357	1476218813320	1476218813399	a	65
307255	3304795	When things get speculative the language always gets scary.	When things get speculative the language always get scary.	157027360	1476218813392	1476218813447	n	78
307255	3304795	When things get speculative the language always gets scary.	When things get speculative the language always get scary.	157027364	1476218813568	1476218813639	g	71
307255	3304795	When things get speculative the language always gets scary.	When things get speculative the language always get scary.	157027385	1476218813680	1476218813751	u	85
307255	3304795	When things get speculative the language always gets scary.	When things get speculative the language always get scary.	157027388	1476218813824	1476218813888	a	65
307255	3304795	When things get speculative the language always gets scary.	When things get speculative the language always get scary.	157027392	1476218813912	1476218813983	g	71
307255	3304795	When things get speculative the language always gets scary.	When things get speculative the language always get scary.	157027396	1476218814080	1476218814151	e	69
307255	3304795	When things get speculative the language always gets scary.	When things get speculative the language always get scary.	157027400	1476218814304	1476218814376	 	32
307255	3304795	When things get speculative the language always gets scary.	When things get speculative the language always get scary.	157027416	1476218814472	1476218814575	a	65
307255	3304795	When things get speculative the language always gets scary.	When things get speculative the language always get scary.	157027418	1476218814656	1476218814736	l	76
307255	3304795	When things get speculative the language always gets scary.	When things get speculative the language always get scary.	157027420	1476218814776	1476218814831	w	87
307255	3304795	When things get speculative the language always gets scary.	When things get speculative the language always get scary.	157027423	1476218814936	1476218815007	a	65
307255	3304795	When things get speculative the language always gets scary.	When things get speculative the language always get scary.	157027426	1476218815016	1476218815071	y	89
307255	3304795	When things get speculative the language always gets scary.	When things get speculative the language always get scary.	157027438	1476218815104	1476218815175	s	83
307255	3304795	When things get speculative the language always gets scary.	When things get speculative the language always get scary.	157027439	1476218815192	1476218815271	 	32
307255	3304795	When things get speculative the language always gets scary.	When things get speculative the language always get scary.	157027441	1476218815264	1476218815327	g	71
307255	3304795	When things get speculative the language always gets scary.	When things get speculative the language always get scary.	157027443	1476218815368	1476218815439	e	69
307255	3304795	When things get speculative the language always gets scary.	When things get speculative the language always get scary.	157027445	1476218815488	1476218815543	t	84
307255	3304795	When things get speculative the language always gets scary.	When things get speculative the language always get scary.	157027469	1476218815568	1476218815639	 	32
307255	3304795	When things get speculative the language always gets scary.	When things get speculative the language always get scary.	157027471	1476218815648	1476218815719	s	83
307255	3304795	When things get speculative the language always gets scary.	When things get speculative the language always get scary.	157027475	1476218815776	1476218815831	c	67
307255	3304795	When things get speculative the language always gets scary.	When things get speculative the language always get scary.	157027480	1476218815920	1476218815991	a	65
307255	3304795	When things get speculative the language always gets scary.	When things get speculative the language always get scary.	157027484	1476218816064	1476218816127	r	82
307255	3304795	When things get speculative the language always gets scary.	When things get speculative the language always get scary.	157027514	1476218816143	1476218816199	y	89
307255	3304795	When things get speculative the language always gets scary.	When things get speculative the language always get scary.	157027518	1476218816352	1476218816408	.	190
307255	3304808	I talked to Duran.	I talked to Duran.	157027697	1476218818423	1476218818567	SHIFT	16
307255	3304808	I talked to Duran.	I talked to Duran.	157027701	1476218818536	1476218818591	I	73
307255	3304808	I talked to Duran.	I talked to Duran.	157027703	1476218818664	1476218818735	 	32
307255	3304808	I talked to Duran.	I talked to Duran.	157027705	1476218818864	1476218818919	t	84
307255	3304808	I talked to Duran.	I talked to Duran.	157027707	1476218819032	1476218819120	a	65
307255	3304808	I talked to Duran.	I talked to Duran.	157027737	1476218819088	1476218819167	l	76
307255	3304808	I talked to Duran.	I talked to Duran.	157027741	1476218819152	1476218819231	k	75
307255	3304808	I talked to Duran.	I talked to Duran.	157027745	1476218819400	1476218819471	e	69
307255	3304808	I talked to Duran.	I talked to Duran.	157027749	1476218819535	1476218819615	d	68
307255	3304808	I talked to Duran.	I talked to Duran.	157027755	1476218819624	1476218819703	 	32
307255	3304808	I talked to Duran.	I talked to Duran.	157027760	1476218819736	1476218819799	t	84
307255	3304808	I talked to Duran.	I talked to Duran.	157027797	1476218819784	1476218819855	o	79
307255	3304808	I talked to Duran.	I talked to Duran.	157027799	1476218819888	1476218819959	 	32
307255	3304808	I talked to Duran.	I talked to Duran.	157027804	1476218819975	1476218820231	SHIFT	16
307255	3304808	I talked to Duran.	I talked to Duran.	157027809	1476218820168	1476218820271	D	68
307255	3304808	I talked to Duran.	I talked to Duran.	157027814	1476218820320	1476218820384	u	85
307255	3304808	I talked to Duran.	I talked to Duran.	157027820	1476218820408	1476218820463	r	82
307255	3304808	I talked to Duran.	I talked to Duran.	157027827	1476218820560	1476218820647	a	65
307255	3304808	I talked to Duran.	I talked to Duran.	157027831	1476218820631	1476218820679	n	78
307255	3304808	I talked to Duran.	I talked to Duran.	157027836	1476218820808	1476218820863	.	190
307255	3304813	Please send to Gary Smith.	Please send to Gary Smith.	157027977	1476218823144	1476218823274	SHIFT	16
307255	3304813	Please send to Gary Smith.	Please send to Gary Smith.	157027982	1476218823232	1476218823295	P	80
307255	3304813	Please send to Gary Smith.	Please send to Gary Smith.	157027989	1476218823352	1476218823416	l	76
307255	3304813	Please send to Gary Smith.	Please send to Gary Smith.	157027994	1476218823432	1476218823495	e	69
307255	3304813	Please send to Gary Smith.	Please send to Gary Smith.	157027999	1476218823608	1476218823671	a	65
307255	3304813	Please send to Gary Smith.	Please send to Gary Smith.	157028003	1476218823768	1476218823832	s	83
307255	3304813	Please send to Gary Smith.	Please send to Gary Smith.	157028022	1476218823935	1476218823999	e	69
307255	3304813	Please send to Gary Smith.	Please send to Gary Smith.	157028025	1476218824032	1476218824111	 	32
307255	3304813	Please send to Gary Smith.	Please send to Gary Smith.	157028028	1476218824160	1476218824239	s	83
307255	3304813	Please send to Gary Smith.	Please send to Gary Smith.	157028032	1476218824336	1476218824407	e	69
307255	3304813	Please send to Gary Smith.	Please send to Gary Smith.	157028036	1476218824448	1476218824503	n	78
307255	3304813	Please send to Gary Smith.	Please send to Gary Smith.	157028046	1476218824520	1476218824575	d	68
307255	3304813	Please send to Gary Smith.	Please send to Gary Smith.	157028048	1476218824648	1476218824711	 	32
307255	3304813	Please send to Gary Smith.	Please send to Gary Smith.	157028051	1476218824720	1476218824783	t	84
307255	3304813	Please send to Gary Smith.	Please send to Gary Smith.	157028055	1476218824775	1476218824847	o	79
307255	3304813	Please send to Gary Smith.	Please send to Gary Smith.	157028061	1476218824872	1476218824943	 	32
307255	3304813	Please send to Gary Smith.	Please send to Gary Smith.	157028092	1476218824951	1476218825063	SHIFT	16
307255	3304813	Please send to Gary Smith.	Please send to Gary Smith.	157028098	1476218825047	1476218825112	G	71
307255	3304813	Please send to Gary Smith.	Please send to Gary Smith.	157028105	1476218825168	1476218825231	a	65
307255	3304813	Please send to Gary Smith.	Please send to Gary Smith.	157028111	1476218825319	1476218825383	r	82
307255	3304813	Please send to Gary Smith.	Please send to Gary Smith.	157028116	1476218825359	1476218825423	y	89
307255	3304813	Please send to Gary Smith.	Please send to Gary Smith.	157028119	1476218825480	1476218825543	 	32
307255	3304813	Please send to Gary Smith.	Please send to Gary Smith.	157028128	1476218825536	1476218825671	SHIFT	16
307255	3304813	Please send to Gary Smith.	Please send to Gary Smith.	157028136	1476218825632	1476218825719	S	83
307255	3304813	Please send to Gary Smith.	Please send to Gary Smith.	157028144	1476218825727	1476218825783	m	77
307255	3304813	Please send to Gary Smith.	Please send to Gary Smith.	157028153	1476218825816	1476218825887	i	73
307255	3304813	Please send to Gary Smith.	Please send to Gary Smith.	157028161	1476218825904	1476218825967	t	84
307255	3304813	Please send to Gary Smith.	Please send to Gary Smith.	157028165	1476218825976	1476218826047	h	72
307255	3304813	Please send to Gary Smith.	Please send to Gary Smith.	157028170	1476218826168	1476218826223	.	190
307255	3304819	I will not make the meeting at 1 PM.	I will not make the meeting at 1 PM	157028303	1476218828431	1476218828559	SHIFT	16
307255	3304819	I will not make the meeting at 1 PM.	I will not make the meeting at 1 PM	157028306	1476218828520	1476218828583	I	73
307255	3304819	I will not make the meeting at 1 PM.	I will not make the meeting at 1 PM	157028312	1476218828647	1476218828727	 	32
307255	3304819	I will not make the meeting at 1 PM.	I will not make the meeting at 1 PM	157028316	1476218828720	1476218828799	w	87
307255	3304819	I will not make the meeting at 1 PM.	I will not make the meeting at 1 PM	157028320	1476218828792	1476218828855	i	73
307255	3304819	I will not make the meeting at 1 PM.	I will not make the meeting at 1 PM	157028324	1476218828920	1476218828999	l	76
307255	3304819	I will not make the meeting at 1 PM.	I will not make the meeting at 1 PM	157028333	1476218829056	1476218829111	l	76
307255	3304819	I will not make the meeting at 1 PM.	I will not make the meeting at 1 PM	157028336	1476218829151	1476218829231	 	32
307255	3304819	I will not make the meeting at 1 PM.	I will not make the meeting at 1 PM	157028340	1476218829248	1476218829311	n	78
307255	3304819	I will not make the meeting at 1 PM.	I will not make the meeting at 1 PM	157028344	1476218829392	1476218829455	t	79
307255	3304819	I will not make the meeting at 1 PM.	I will not make the meeting at 1 PM	157028372	1476218829511	1476218829567	 	32
307255	3304819	I will not make the meeting at 1 PM.	I will not make the meeting at 1 PM	157028374	1476218829600	1476218829647	m	77
307255	3304819	I will not make the meeting at 1 PM.	I will not make the meeting at 1 PM	157028378	1476218829680	1476218829751	a	65
307255	3304819	I will not make the meeting at 1 PM.	I will not make the meeting at 1 PM	157028379	1476218829776	1476218829839	k	75
307255	3304819	I will not make the meeting at 1 PM.	I will not make the meeting at 1 PM	157028380	1476218829880	1476218829943	e	69
307255	3304819	I will not make the meeting at 1 PM.	I will not make the meeting at 1 PM	157028394	1476218829927	1476218829999	 	32
307255	3304819	I will not make the meeting at 1 PM.	I will not make the meeting at 1 PM	157028400	1476218830048	1476218830103	h	84
307255	3304819	I will not make the meeting at 1 PM.	I will not make the meeting at 1 PM	157028404	1476218830183	1476218830255	e	69
307255	3304819	I will not make the meeting at 1 PM.	I will not make the meeting at 1 PM	157028408	1476218830311	1476218830375	m	77
307255	3304819	I will not make the meeting at 1 PM.	I will not make the meeting at 1 PM	157028412	1476218830408	1476218830495	e	69
307255	3304819	I will not make the meeting at 1 PM.	I will not make the meeting at 1 PM	157028467	1476218830783	1476218830847	BKSP	8
307255	3304819	I will not make the meeting at 1 PM.	I will not make the meeting at 1 PM	157028471	1476218830895	1476218830975	BKSP	8
307255	3304819	I will not make the meeting at 1 PM.	I will not make the meeting at 1 PM	157028475	1476218831040	1476218831095	 	32
307255	3304819	I will not make the meeting at 1 PM.	I will not make the meeting at 1 PM	157028480	1476218831136	1476218831199	m	77
307255	3304819	I will not make the meeting at 1 PM.	I will not make the meeting at 1 PM	157028486	1476218831192	1476218831279	e	69
307255	3304819	I will not make the meeting at 1 PM.	I will not make the meeting at 1 PM	157028491	1476218831416	1476218831503	e	69
307255	3304819	I will not make the meeting at 1 PM.	I will not make the meeting at 1 PM	157028495	1476218831575	1476218831663	t	84
307255	3304819	I will not make the meeting at 1 PM.	I will not make the meeting at 1 PM	157028518	1476218831672	1476218831719	i	73
307255	3304819	I will not make the meeting at 1 PM.	I will not make the meeting at 1 PM	157028521	1476218831816	1476218831873	n	78
307255	3304819	I will not make the meeting at 1 PM.	I will not make the meeting at 1 PM	157028525	1476218831871	1476218831943	g	71
307255	3304819	I will not make the meeting at 1 PM.	I will not make the meeting at 1 PM	157028530	1476218831984	1476218832039	 	32
307255	3304819	I will not make the meeting at 1 PM.	I will not make the meeting at 1 PM	157028535	1476218832416	1476218832503	a	65
307255	3304819	I will not make the meeting at 1 PM.	I will not make the meeting at 1 PM	157028583	1476218832592	1476218832655	t	84
307255	3304819	I will not make the meeting at 1 PM.	I will not make the meeting at 1 PM	157028586	1476218832679	1476218832751	 	32
307255	3304819	I will not make the meeting at 1 PM.	I will not make the meeting at 1 PM	157028589	1476218832808	1476218832879	1	49
307255	3304819	I will not make the meeting at 1 PM.	I will not make the meeting at 1 PM	157028592	1476218833128	1476218833199	 	32
307255	3304819	I will not make the meeting at 1 PM.	I will not make the meeting at 1 PM	157028594	1476218833503	1476218833575	P	80
307255	3304819	I will not make the meeting at 1 PM.	I will not make the meeting at 1 PM	157028603	1476218833688	1476218833751	M	77
307255	3304833	Who should I contact regarding severance?	Who should I contact regarding severance?	157028836	1476218836927	1476218837175	SHIFT	16
307255	3304833	Who should I contact regarding severance?	Who should I contact regarding severance?	157028839	1476218837111	1476218837223	W	87
307255	3304833	Who should I contact regarding severance?	Who should I contact regarding severance?	157028842	1476218837511	1476218837567	h	72
307255	3304833	Who should I contact regarding severance?	Who should I contact regarding severance?	157028847	1476218837648	1476218837711	o	79
307255	3304833	Who should I contact regarding severance?	Who should I contact regarding severance?	157028852	1476218837752	1476218837831	 	32
307255	3304833	Who should I contact regarding severance?	Who should I contact regarding severance?	157028858	1476218838023	1476218838095	s	83
307255	3304833	Who should I contact regarding severance?	Who should I contact regarding severance?	157028873	1476218838079	1476218838135	h	72
307255	3304833	Who should I contact regarding severance?	Who should I contact regarding severance?	157028875	1476218838199	1476218838295	o	79
307255	3304833	Who should I contact regarding severance?	Who should I contact regarding severance?	157028877	1476218838271	1476218838335	u	85
307255	3304833	Who should I contact regarding severance?	Who should I contact regarding severance?	157028880	1476218838399	1476218838495	l	76
307255	3304833	Who should I contact regarding severance?	Who should I contact regarding severance?	157028882	1476218838519	1476218838591	d	68
307255	3304833	Who should I contact regarding severance?	Who should I contact regarding severance?	157028898	1476218838583	1476218838655	 	32
307255	3304833	Who should I contact regarding severance?	Who should I contact regarding severance?	157028900	1476218838719	1476218838823	SHIFT	16
307255	3304833	Who should I contact regarding severance?	Who should I contact regarding severance?	157028902	1476218838752	1476218838823	I	73
307255	3304833	Who should I contact regarding severance?	Who should I contact regarding severance?	157028903	1476218838863	1476218838935	 	32
307255	3304833	Who should I contact regarding severance?	Who should I contact regarding severance?	157028904	1476218838951	1476218839031	c	67
307255	3304833	Who should I contact regarding severance?	Who should I contact regarding severance?	157028907	1476218839015	1476218839063	o	79
307255	3304833	Who should I contact regarding severance?	Who should I contact regarding severance?	157028910	1476218839111	1476218839175	n	78
307255	3304833	Who should I contact regarding severance?	Who should I contact regarding severance?	157028933	1476218839183	1476218839247	t	84
307255	3304833	Who should I contact regarding severance?	Who should I contact regarding severance?	157028935	1476218839351	1476218839423	a	65
307255	3304833	Who should I contact regarding severance?	Who should I contact regarding severance?	157028939	1476218839495	1476218839559	c	67
307255	3304833	Who should I contact regarding severance?	Who should I contact regarding severance?	157028943	1476218839663	1476218839727	t	84
307255	3304833	Who should I contact regarding severance?	Who should I contact regarding severance?	157028947	1476218839767	1476218839847	 	32
307255	3304833	Who should I contact regarding severance?	Who should I contact regarding severance?	157028967	1476218839855	1476218839919	r	82
307255	3304833	Who should I contact regarding severance?	Who should I contact regarding severance?	157028970	1476218839991	1476218840079	e	69
307255	3304833	Who should I contact regarding severance?	Who should I contact regarding severance?	157028973	1476218840191	1476218840263	g	71
307255	3304833	Who should I contact regarding severance?	Who should I contact regarding severance?	157028975	1476218840391	1476218840447	a	65
307255	3304833	Who should I contact regarding severance?	Who should I contact regarding severance?	157028979	1476218840514	1476218840584	r	82
307255	3304833	Who should I contact regarding severance?	Who should I contact regarding severance?	157028989	1476218840672	1476218840759	d	68
307255	3304833	Who should I contact regarding severance?	Who should I contact regarding severance?	157028992	1476218840743	1476218840807	i	73
307255	3304833	Who should I contact regarding severance?	Who should I contact regarding severance?	157028995	1476218840895	1476218840959	g	78
307255	3304833	Who should I contact regarding severance?	Who should I contact regarding severance?	157028998	1476218841071	1476218841127	 	32
307255	3304833	Who should I contact regarding severance?	Who should I contact regarding severance?	157029027	1476218841456	1476218841527	s	83
307255	3304833	Who should I contact regarding severance?	Who should I contact regarding severance?	157029031	1476218841647	1476218841695	e	69
307255	3304833	Who should I contact regarding severance?	Who should I contact regarding severance?	157029035	1476218841807	1476218841871	v	86
307255	3304833	Who should I contact regarding severance?	Who should I contact regarding severance?	157029040	1476218841943	1476218842007	e	69
307255	3304833	Who should I contact regarding severance?	Who should I contact regarding severance?	157029048	1476218842071	1476218842127	r	82
307255	3304833	Who should I contact regarding severance?	Who should I contact regarding severance?	157029085	1476218842472	1476218842559	a	65
307255	3304833	Who should I contact regarding severance?	Who should I contact regarding severance?	157029090	1476218842631	1476218842695	n	78
307255	3304833	Who should I contact regarding severance?	Who should I contact regarding severance?	157029097	1476218842727	1476218842775	c	67
307255	3304833	Who should I contact regarding severance?	Who should I contact regarding severance?	157029108	1476218842831	1476218842911	e	69
307255	3304833	Who should I contact regarding severance?	Who should I contact regarding severance?	157029114	1476218843039	1476218843199	SHIFT	16
307255	3304833	Who should I contact regarding severance?	Who should I contact regarding severance?	157029104	1476218843135	1476218843223	?	191
