PARTICIPANT_ID	TEST_SECTION_ID	SENTENCE	USER_INPUT	KEYSTROKE_ID	PRESS_TIME	RELEASE_TIME	LETTER	KEYCODE
307945	3312546	I have the option of starting Jim Miller or picking up Chris Weinke.	I have the option of starting Jim Miller or picking up Chris Weinke.	157391633	1476227251154	1476227251356	SHIFT	16
307945	3312546	I have the option of starting Jim Miller or picking up Chris Weinke.	I have the option of starting Jim Miller or picking up Chris Weinke.	157391634	1476227251254	1476227251357	I	73
307945	3312546	I have the option of starting Jim Miller or picking up Chris Weinke.	I have the option of starting Jim Miller or picking up Chris Weinke.	157391635	1476227251457	1476227251530	 	32
307945	3312546	I have the option of starting Jim Miller or picking up Chris Weinke.	I have the option of starting Jim Miller or picking up Chris Weinke.	157391636	1476227251660	1476227251701	h	72
307945	3312546	I have the option of starting Jim Miller or picking up Chris Weinke.	I have the option of starting Jim Miller or picking up Chris Weinke.	157391638	1476227251701	1476227251864	a	65
307945	3312546	I have the option of starting Jim Miller or picking up Chris Weinke.	I have the option of starting Jim Miller or picking up Chris Weinke.	157391642	1476227251966	1476227252051	v	86
307945	3312546	I have the option of starting Jim Miller or picking up Chris Weinke.	I have the option of starting Jim Miller or picking up Chris Weinke.	157391687	1476227252014	1476227252172	e	69
307945	3312546	I have the option of starting Jim Miller or picking up Chris Weinke.	I have the option of starting Jim Miller or picking up Chris Weinke.	157391690	1476227252170	1476227252217	 	32
307945	3312546	I have the option of starting Jim Miller or picking up Chris Weinke.	I have the option of starting Jim Miller or picking up Chris Weinke.	157391695	1476227252472	1476227252675	t	84
307945	3312546	I have the option of starting Jim Miller or picking up Chris Weinke.	I have the option of starting Jim Miller or picking up Chris Weinke.	157391700	1476227252513	1476227252676	h	72
307945	3312546	I have the option of starting Jim Miller or picking up Chris Weinke.	I have the option of starting Jim Miller or picking up Chris Weinke.	157391708	1476227252676	1476227252747	e	69
307945	3312546	I have the option of starting Jim Miller or picking up Chris Weinke.	I have the option of starting Jim Miller or picking up Chris Weinke.	157391716	1476227253082	1476227253183	 	32
307945	3312546	I have the option of starting Jim Miller or picking up Chris Weinke.	I have the option of starting Jim Miller or picking up Chris Weinke.	157391758	1476227253285	1476227253354	o	79
307945	3312546	I have the option of starting Jim Miller or picking up Chris Weinke.	I have the option of starting Jim Miller or picking up Chris Weinke.	157391762	1476227253488	1476227253591	t	84
307945	3312546	I have the option of starting Jim Miller or picking up Chris Weinke.	I have the option of starting Jim Miller or picking up Chris Weinke.	157391765	1476227253691	1476227253793	i	73
307945	3312546	I have the option of starting Jim Miller or picking up Chris Weinke.	I have the option of starting Jim Miller or picking up Chris Weinke.	157391770	1476227253894	1476227253931	o	79
307945	3312546	I have the option of starting Jim Miller or picking up Chris Weinke.	I have the option of starting Jim Miller or picking up Chris Weinke.	157391773	1476227254097	1476227254166	n	72
307945	3312546	I have the option of starting Jim Miller or picking up Chris Weinke.	I have the option of starting Jim Miller or picking up Chris Weinke.	157391892	1476227254168	1476227254300	 	32
307945	3312546	I have the option of starting Jim Miller or picking up Chris Weinke.	I have the option of starting Jim Miller or picking up Chris Weinke.	157391893	1476227254402	1476227254503	o	79
307945	3312546	I have the option of starting Jim Miller or picking up Chris Weinke.	I have the option of starting Jim Miller or picking up Chris Weinke.	157391894	1476227254808	1476227254810	BKSP	8
307945	3312546	I have the option of starting Jim Miller or picking up Chris Weinke.	I have the option of starting Jim Miller or picking up Chris Weinke.	157391895	1476227254914	1476227254961	BKSP	8
307945	3312546	I have the option of starting Jim Miller or picking up Chris Weinke.	I have the option of starting Jim Miller or picking up Chris Weinke.	157391897	1476227255113	1476227255115	BKSP	8
307945	3312546	I have the option of starting Jim Miller or picking up Chris Weinke.	I have the option of starting Jim Miller or picking up Chris Weinke.	157391899	1476227255148	1476227255214	BKSP	8
307945	3312546	I have the option of starting Jim Miller or picking up Chris Weinke.	I have the option of starting Jim Miller or picking up Chris Weinke.	157391903	1476227255316	1476227255351	BKSP	8
307945	3312546	I have the option of starting Jim Miller or picking up Chris Weinke.	I have the option of starting Jim Miller or picking up Chris Weinke.	157391908	1476227255417	1476227255519	BKSP	8
307945	3312546	I have the option of starting Jim Miller or picking up Chris Weinke.	I have the option of starting Jim Miller or picking up Chris Weinke.	157391912	1476227256026	1476227256084	BKSP	8
307945	3312546	I have the option of starting Jim Miller or picking up Chris Weinke.	I have the option of starting Jim Miller or picking up Chris Weinke.	157391916	1476227256433	1476227256434	p	80
307945	3312546	I have the option of starting Jim Miller or picking up Chris Weinke.	I have the option of starting Jim Miller or picking up Chris Weinke.	157391921	1476227256534	1476227256636	t	84
307945	3312546	I have the option of starting Jim Miller or picking up Chris Weinke.	I have the option of starting Jim Miller or picking up Chris Weinke.	157391929	1476227256737	1476227256738	i	73
307945	3312546	I have the option of starting Jim Miller or picking up Chris Weinke.	I have the option of starting Jim Miller or picking up Chris Weinke.	157392001	1476227256808	1476227256894	o	79
307945	3312546	I have the option of starting Jim Miller or picking up Chris Weinke.	I have the option of starting Jim Miller or picking up Chris Weinke.	157392006	1476227257347	1476227257348	n	78
307945	3312546	I have the option of starting Jim Miller or picking up Chris Weinke.	I have the option of starting Jim Miller or picking up Chris Weinke.	157392011	1476227257550	1476227257651	BKSP	8
307945	3312546	I have the option of starting Jim Miller or picking up Chris Weinke.	I have the option of starting Jim Miller or picking up Chris Weinke.	157392016	1476227258464	1476227258504	n	78
307945	3312546	I have the option of starting Jim Miller or picking up Chris Weinke.	I have the option of starting Jim Miller or picking up Chris Weinke.	157392021	1476227258533	1476227258667	 	32
307945	3312546	I have the option of starting Jim Miller or picking up Chris Weinke.	I have the option of starting Jim Miller or picking up Chris Weinke.	157392024	1476227258667	1476227258706	f	79
307945	3312546	I have the option of starting Jim Miller or picking up Chris Weinke.	I have the option of starting Jim Miller or picking up Chris Weinke.	157392078	1476227258738	1476227258870	 	32
307945	3312546	I have the option of starting Jim Miller or picking up Chris Weinke.	I have the option of starting Jim Miller or picking up Chris Weinke.	157392081	1476227259073	1476227259277	s	83
307945	3312546	I have the option of starting Jim Miller or picking up Chris Weinke.	I have the option of starting Jim Miller or picking up Chris Weinke.	157392092	1476227259276	1476227259479	t	84
307945	3312546	I have the option of starting Jim Miller or picking up Chris Weinke.	I have the option of starting Jim Miller or picking up Chris Weinke.	157392084	1476227259314	1476227259479	a	65
307945	3312546	I have the option of starting Jim Miller or picking up Chris Weinke.	I have the option of starting Jim Miller or picking up Chris Weinke.	157392097	1476227260088	1476227260089	r	82
307945	3312546	I have the option of starting Jim Miller or picking up Chris Weinke.	I have the option of starting Jim Miller or picking up Chris Weinke.	157392127	1476227260190	1476227260276	t	84
307945	3312546	I have the option of starting Jim Miller or picking up Chris Weinke.	I have the option of starting Jim Miller or picking up Chris Weinke.	157392133	1476227260598	1476227260599	i	73
307945	3312546	I have the option of starting Jim Miller or picking up Chris Weinke.	I have the option of starting Jim Miller or picking up Chris Weinke.	157392143	1476227260640	1476227260766	n	78
307945	3312546	I have the option of starting Jim Miller or picking up Chris Weinke.	I have the option of starting Jim Miller or picking up Chris Weinke.	157392137	1476227260698	1476227260765	g	71
307945	3312546	I have the option of starting Jim Miller or picking up Chris Weinke.	I have the option of starting Jim Miller or picking up Chris Weinke.	157392147	1476227260766	1476227260901	 	32
307945	3312546	I have the option of starting Jim Miller or picking up Chris Weinke.	I have the option of starting Jim Miller or picking up Chris Weinke.	157392223	1476227261104	1476227261279	SHIFT	16
307945	3312546	I have the option of starting Jim Miller or picking up Chris Weinke.	I have the option of starting Jim Miller or picking up Chris Weinke.	157392226	1476227261205	1476227261279	J	74
307945	3312546	I have the option of starting Jim Miller or picking up Chris Weinke.	I have the option of starting Jim Miller or picking up Chris Weinke.	157392231	1476227261408	1476227261453	i	73
307945	3312546	I have the option of starting Jim Miller or picking up Chris Weinke.	I have the option of starting Jim Miller or picking up Chris Weinke.	157392234	1476227261611	1476227261656	m	77
307945	3312546	I have the option of starting Jim Miller or picking up Chris Weinke.	I have the option of starting Jim Miller or picking up Chris Weinke.	157392237	1476227262729	1476227262830	 	32
307945	3312546	I have the option of starting Jim Miller or picking up Chris Weinke.	I have the option of starting Jim Miller or picking up Chris Weinke.	157392243	1476227262830	1476227263035	SHIFT	16
307945	3312546	I have the option of starting Jim Miller or picking up Chris Weinke.	I have the option of starting Jim Miller or picking up Chris Weinke.	157392262	1476227263033	1476227263037	M	77
307945	3312546	I have the option of starting Jim Miller or picking up Chris Weinke.	I have the option of starting Jim Miller or picking up Chris Weinke.	157392266	1476227263236	1476227263237	i	73
307945	3312546	I have the option of starting Jim Miller or picking up Chris Weinke.	I have the option of starting Jim Miller or picking up Chris Weinke.	157392274	1476227263439	1476227263440	l	76
307945	3312546	I have the option of starting Jim Miller or picking up Chris Weinke.	I have the option of starting Jim Miller or picking up Chris Weinke.	157392278	1476227263479	1476227263541	l	76
307945	3312546	I have the option of starting Jim Miller or picking up Chris Weinke.	I have the option of starting Jim Miller or picking up Chris Weinke.	157392285	1476227263642	1476227263760	e	69
307945	3312546	I have the option of starting Jim Miller or picking up Chris Weinke.	I have the option of starting Jim Miller or picking up Chris Weinke.	157392346	1476227263714	1476227263848	r	82
307945	3312546	I have the option of starting Jim Miller or picking up Chris Weinke.	I have the option of starting Jim Miller or picking up Chris Weinke.	157392350	1476227263846	1476227263884	 	32
307945	3312546	I have the option of starting Jim Miller or picking up Chris Weinke.	I have the option of starting Jim Miller or picking up Chris Weinke.	157392356	1476227263948	1476227264049	o	79
307945	3312546	I have the option of starting Jim Miller or picking up Chris Weinke.	I have the option of starting Jim Miller or picking up Chris Weinke.	157392360	1476227264252	1476227264322	r	82
307945	3312546	I have the option of starting Jim Miller or picking up Chris Weinke.	I have the option of starting Jim Miller or picking up Chris Weinke.	157392362	1476227264556	1476227264559	 	32
307945	3312546	I have the option of starting Jim Miller or picking up Chris Weinke.	I have the option of starting Jim Miller or picking up Chris Weinke.	157392364	1476227264760	1476227264805	[	219
307945	3312546	I have the option of starting Jim Miller or picking up Chris Weinke.	I have the option of starting Jim Miller or picking up Chris Weinke.	157392434	1476227265064	1476227265065	o	79
307945	3312546	I have the option of starting Jim Miller or picking up Chris Weinke.	I have the option of starting Jim Miller or picking up Chris Weinke.	157392436	1476227265369	1476227265413	BKSP	8
307945	3312546	I have the option of starting Jim Miller or picking up Chris Weinke.	I have the option of starting Jim Miller or picking up Chris Weinke.	157392437	1476227265572	1476227265574	BKSP	8
307945	3312546	I have the option of starting Jim Miller or picking up Chris Weinke.	I have the option of starting Jim Miller or picking up Chris Weinke.	157392439	1476227266080	1476227266081	p	80
307945	3312546	I have the option of starting Jim Miller or picking up Chris Weinke.	I have the option of starting Jim Miller or picking up Chris Weinke.	157392440	1476227266283	1476227266318	i	73
307945	3312546	I have the option of starting Jim Miller or picking up Chris Weinke.	I have the option of starting Jim Miller or picking up Chris Weinke.	157392442	1476227266349	1476227266447	c	67
307945	3312546	I have the option of starting Jim Miller or picking up Chris Weinke.	I have the option of starting Jim Miller or picking up Chris Weinke.	157392444	1476227266790	1476227266791	k	75
307945	3312546	I have the option of starting Jim Miller or picking up Chris Weinke.	I have the option of starting Jim Miller or picking up Chris Weinke.	157392485	1476227266993	1476227266994	i	73
307945	3312546	I have the option of starting Jim Miller or picking up Chris Weinke.	I have the option of starting Jim Miller or picking up Chris Weinke.	157392486	1476227267082	1476227267132	n	78
307945	3312546	I have the option of starting Jim Miller or picking up Chris Weinke.	I have the option of starting Jim Miller or picking up Chris Weinke.	157392488	1476227267160	1476227267260	g	71
307945	3312546	I have the option of starting Jim Miller or picking up Chris Weinke.	I have the option of starting Jim Miller or picking up Chris Weinke.	157392490	1476227267200	1476227267260	 	32
307945	3312546	I have the option of starting Jim Miller or picking up Chris Weinke.	I have the option of starting Jim Miller or picking up Chris Weinke.	157392492	1476227267907	1476227267940	u	85
307945	3312546	I have the option of starting Jim Miller or picking up Chris Weinke.	I have the option of starting Jim Miller or picking up Chris Weinke.	157392552	1476227268114	1476227268115	p	80
307945	3312546	I have the option of starting Jim Miller or picking up Chris Weinke.	I have the option of starting Jim Miller or picking up Chris Weinke.	157392556	1476227268212	1476227268252	 	32
307945	3312546	I have the option of starting Jim Miller or picking up Chris Weinke.	I have the option of starting Jim Miller or picking up Chris Weinke.	157392562	1476227268415	1476227268619	SHIFT	16
307945	3312546	I have the option of starting Jim Miller or picking up Chris Weinke.	I have the option of starting Jim Miller or picking up Chris Weinke.	157392567	1476227268618	1476227268619	C	67
307945	3312546	I have the option of starting Jim Miller or picking up Chris Weinke.	I have the option of starting Jim Miller or picking up Chris Weinke.	157392571	1476227268821	1476227268863	h	72
307945	3312546	I have the option of starting Jim Miller or picking up Chris Weinke.	I have the option of starting Jim Miller or picking up Chris Weinke.	157392577	1476227269024	1476227269097	r	82
307945	3312546	I have the option of starting Jim Miller or picking up Chris Weinke.	I have the option of starting Jim Miller or picking up Chris Weinke.	157392691	1476227269227	1476227269228	i	73
307945	3312546	I have the option of starting Jim Miller or picking up Chris Weinke.	I have the option of starting Jim Miller or picking up Chris Weinke.	157392695	1476227269299	1476227269376	s	83
307945	3312546	I have the option of starting Jim Miller or picking up Chris Weinke.	I have the option of starting Jim Miller or picking up Chris Weinke.	157392700	1476227269736	1476227269739	 	32
307945	3312546	I have the option of starting Jim Miller or picking up Chris Weinke.	I have the option of starting Jim Miller or picking up Chris Weinke.	157392706	1476227270040	1476227270040	SHIFT	16
307945	3312546	I have the option of starting Jim Miller or picking up Chris Weinke.	I have the option of starting Jim Miller or picking up Chris Weinke.	157392710	1476227270243	1476227270346	SHIFT	16
307945	3312546	I have the option of starting Jim Miller or picking up Chris Weinke.	I have the option of starting Jim Miller or picking up Chris Weinke.	157392714	1476227270751	1476227270889	SHIFT	16
307945	3312546	I have the option of starting Jim Miller or picking up Chris Weinke.	I have the option of starting Jim Miller or picking up Chris Weinke.	157392716	1476227270852	1476227270920	W	87
307945	3312546	I have the option of starting Jim Miller or picking up Chris Weinke.	I have the option of starting Jim Miller or picking up Chris Weinke.	157392718	1476227271157	1476227271243	e	69
307945	3312546	I have the option of starting Jim Miller or picking up Chris Weinke.	I have the option of starting Jim Miller or picking up Chris Weinke.	157392739	1476227271664	1476227271703	i	73
307945	3312546	I have the option of starting Jim Miller or picking up Chris Weinke.	I have the option of starting Jim Miller or picking up Chris Weinke.	157392741	1476227271766	1476227271852	n	78
307945	3312546	I have the option of starting Jim Miller or picking up Chris Weinke.	I have the option of starting Jim Miller or picking up Chris Weinke.	157392743	1476227272071	1476227272172	k	75
307945	3312546	I have the option of starting Jim Miller or picking up Chris Weinke.	I have the option of starting Jim Miller or picking up Chris Weinke.	157392745	1476227272274	1476227272375	e	69
307945	3312546	I have the option of starting Jim Miller or picking up Chris Weinke.	I have the option of starting Jim Miller or picking up Chris Weinke.	157392749	1476227272477	1476227272511	.	190
307945	3312577	Come join the fun.	Come join the fun.	157392883	1476227274609	1476227274687	C	16
307945	3312577	Come join the fun.	Come join the fun.	157392885	1476227274812	1476227274885	o	79
307945	3312577	Come join the fun.	Come join the fun.	157392887	1476227275117	1476227275119	n	77
307945	3312577	Come join the fun.	Come join the fun.	157393035	1476227275118	1476227277757	e	78
307945	3312577	Come join the fun.	Come join the fun.	157392981	1476227275828	1476227275832	BKSP	8
307945	3312577	Come join the fun.	Come join the fun.	157392985	1476227275930	1476227275976	BKSP	8
307945	3312577	Come join the fun.	Come join the fun.	157392989	1476227276133	1476227276134	e	69
307945	3312577	Come join the fun.	Come join the fun.	157392993	1476227276224	1476227276336	 	32
307945	3312577	Come join the fun.	Come join the fun.	157392999	1476227276742	1476227276786	j	74
307945	3312577	Come join the fun.	Come join the fun.	157393003	1476227276945	1476227276990	o	79
307945	3312577	Come join the fun.	Come join the fun.	157393005	1476227277554	1476227277555	i	73
307945	3312577	Come join the fun.	Come join the fun.	157393191	1476227277601	1476227280437	n	78
307945	3312577	Come join the fun.	Come join the fun.	157393041	1476227277758	1476227277859	 	32
307945	3312577	Come join the fun.	Come join the fun.	157393044	1476227278165	1476227278206	h	84
307945	3312577	Come join the fun.	Come join the fun.	157393046	1476227278237	1476227278366	e	69
307945	3312577	Come join the fun.	Come join the fun.	157393170	1476227278570	1476227278611	 	32
307945	3312577	Come join the fun.	Come join the fun.	157393174	1476227278773	1476227278851	f	70
307945	3312577	Come join the fun.	Come join the fun.	157393180	1476227278852	1476227278930	u	85
307945	3312577	Come join the fun.	Come join the fun.	157393183	1476227279077	1476227279110	m	77
307945	3312577	Come join the fun.	Come join the fun.	157393187	1476227279991	1476227279994	BKSP	8
307945	3312577	Come join the fun.	Come join the fun.	157393200	1476227280905	1476227280906	.	190
307945	3312586	Southern forces said they had shot down three northern warplanes.	Southern forces said they had shot down three nothern warplanes.	157393377	1476227282835	1476227282937	SHIFT	16
307945	3312586	Southern forces said they had shot down three northern warplanes.	Southern forces said they had shot down three nothern warplanes.	157393381	1476227282936	1476227283029	S	83
307945	3312586	Southern forces said they had shot down three northern warplanes.	Southern forces said they had shot down three nothern warplanes.	157393385	1476227283139	1476227283228	o	79
307945	3312586	Southern forces said they had shot down three northern warplanes.	Southern forces said they had shot down three nothern warplanes.	157393392	1476227284154	1476227284227	y	89
307945	3312586	Southern forces said they had shot down three northern warplanes.	Southern forces said they had shot down three nothern warplanes.	157393397	1476227284358	1476227284398	t	84
307945	3312586	Southern forces said they had shot down three northern warplanes.	Southern forces said they had shot down three nothern warplanes.	157393402	1476227284429	1476227284493	h	72
307945	3312586	Southern forces said they had shot down three northern warplanes.	Southern forces said they had shot down three nothern warplanes.	157393489	1476227284764	1476227284820	BKSP	8
307945	3312586	Southern forces said they had shot down three northern warplanes.	Southern forces said they had shot down three nothern warplanes.	157393493	1476227284967	1476227284968	BKSP	8
307945	3312586	Southern forces said they had shot down three northern warplanes.	Southern forces said they had shot down three nothern warplanes.	157393496	1476227285069	1476227285116	BKSP	8
307945	3312586	Southern forces said they had shot down three northern warplanes.	Southern forces said they had shot down three nothern warplanes.	157393500	1476227285678	1476227285679	u	85
307945	3312586	Southern forces said they had shot down three northern warplanes.	Southern forces said they had shot down three nothern warplanes.	157393503	1476227285756	1476227285881	t	84
307945	3312586	Southern forces said they had shot down three northern warplanes.	Southern forces said they had shot down three nothern warplanes.	157393506	1476227285835	1476227285913	h	72
307945	3312586	Southern forces said they had shot down three northern warplanes.	Southern forces said they had shot down three nothern warplanes.	157393509	1476227285914	1476227286086	e	69
307945	3312586	Southern forces said they had shot down three northern warplanes.	Southern forces said they had shot down three nothern warplanes.	157393616	1476227286085	1476227286162	r	82
307945	3312586	Southern forces said they had shot down three northern warplanes.	Southern forces said they had shot down three nothern warplanes.	157393891	1476227286693	1476227294554	n	78
307945	3312586	Southern forces said they had shot down three northern warplanes.	Southern forces said they had shot down three nothern warplanes.	157393624	1476227287709	1476227287752	 	32
307945	3312586	Southern forces said they had shot down three northern warplanes.	Southern forces said they had shot down three nothern warplanes.	157393627	1476227287912	1476227287956	F	16
307945	3312586	Southern forces said they had shot down three northern warplanes.	Southern forces said they had shot down three nothern warplanes.	157393630	1476227288420	1476227288423	BKSP	8
307945	3312586	Southern forces said they had shot down three northern warplanes.	Southern forces said they had shot down three nothern warplanes.	157393633	1476227288623	1476227288658	f	70
307945	3312586	Southern forces said they had shot down three northern warplanes.	Southern forces said they had shot down three nothern warplanes.	157393667	1476227288658	1476227288724	o	79
307945	3312586	Southern forces said they had shot down three northern warplanes.	Southern forces said they had shot down three nothern warplanes.	157393671	1476227288826	1476227288891	r	82
307945	3312586	Southern forces said they had shot down three northern warplanes.	Southern forces said they had shot down three nothern warplanes.	157393677	1476227289029	1476227289232	c	67
307945	3312586	Southern forces said they had shot down three northern warplanes.	Southern forces said they had shot down three nothern warplanes.	157393681	1476227289232	1476227289299	e	69
307945	3312586	Southern forces said they had shot down three northern warplanes.	Southern forces said they had shot down three nothern warplanes.	157393685	1476227289435	1476227289506	s	83
307945	3312586	Southern forces said they had shot down three northern warplanes.	Southern forces said they had shot down three nothern warplanes.	157393722	1476227289469	1476227289638	 	32
307945	3312586	Southern forces said they had shot down three northern warplanes.	Southern forces said they had shot down three nothern warplanes.	157393724	1476227289638	1476227289843	s	83
307945	3312586	Southern forces said they had shot down three northern warplanes.	Southern forces said they had shot down three nothern warplanes.	157393726	1476227289841	1476227289905	a	65
307945	3312586	Southern forces said they had shot down three northern warplanes.	Southern forces said they had shot down three nothern warplanes.	157393728	1476227290045	1476227290046	i	73
307945	3312586	Southern forces said they had shot down three northern warplanes.	Southern forces said they had shot down three nothern warplanes.	157393730	1476227290077	1476227290162	d	68
307945	3312586	Southern forces said they had shot down three northern warplanes.	Southern forces said they had shot down three nothern warplanes.	157393734	1476227290552	1476227290592	 	32
307945	3312586	Southern forces said they had shot down three northern warplanes.	Southern forces said they had shot down three nothern warplanes.	157393753	1476227290857	1476227290921	t	84
307945	3312586	Southern forces said they had shot down three northern warplanes.	Southern forces said they had shot down three nothern warplanes.	157393754	1476227290921	1476227291006	h	72
307945	3312586	Southern forces said they had shot down three northern warplanes.	Southern forces said they had shot down three nothern warplanes.	157393755	1476227291006	1476227291060	e	69
307945	3312586	Southern forces said they had shot down three northern warplanes.	Southern forces said they had shot down three nothern warplanes.	157393756	1476227291162	1476227291247	y	89
307945	3312586	Southern forces said they had shot down three northern warplanes.	Southern forces said they had shot down three nothern warplanes.	157393757	1476227291568	1476227291608	 	32
307945	3312586	Southern forces said they had shot down three northern warplanes.	Southern forces said they had shot down three nothern warplanes.	157393803	1476227291872	1476227291933	h	72
307945	3312586	Southern forces said they had shot down three northern warplanes.	Southern forces said they had shot down three nothern warplanes.	157393806	1476227291974	1476227292177	a	65
307945	3312586	Southern forces said they had shot down three northern warplanes.	Southern forces said they had shot down three nothern warplanes.	157393808	1476227292177	1476227292278	d	68
307945	3312586	Southern forces said they had shot down three northern warplanes.	Southern forces said they had shot down three nothern warplanes.	157393812	1476227292380	1476227292481	 	32
307945	3312586	Southern forces said they had shot down three northern warplanes.	Southern forces said they had shot down three nothern warplanes.	157393816	1476227292786	1476227292888	s	83
307945	3312586	Southern forces said they had shot down three northern warplanes.	Southern forces said they had shot down three nothern warplanes.	157393841	1476227292989	1476227293027	h	72
307945	3312586	Southern forces said they had shot down three northern warplanes.	Southern forces said they had shot down three nothern warplanes.	157393846	1476227293090	1476227293294	o	79
307945	3312586	Southern forces said they had shot down three northern warplanes.	Southern forces said they had shot down three nothern warplanes.	157393852	1476227293395	1476227293431	 	84
307945	3312586	Southern forces said they had shot down three northern warplanes.	Southern forces said they had shot down three nothern warplanes.	157393855	1476227293598	1476227293700	d	68
307945	3312586	Southern forces said they had shot down three northern warplanes.	Southern forces said they had shot down three nothern warplanes.	157393887	1476227294207	1476227294208	o	79
307945	3312586	Southern forces said they had shot down three northern warplanes.	Southern forces said they had shot down three nothern warplanes.	157393889	1476227294242	1476227294411	w	87
307945	3312586	Southern forces said they had shot down three northern warplanes.	Southern forces said they had shot down three nothern warplanes.	157394094	1476227294512	1476227298254	n	78
307945	3312586	Southern forces said they had shot down three northern warplanes.	Southern forces said they had shot down three nothern warplanes.	157393894	1476227294587	1476227294715	 	32
307945	3312586	Southern forces said they had shot down three northern warplanes.	Southern forces said they had shot down three nothern warplanes.	157393899	1476227294716	1476227294817	t	84
307945	3312586	Southern forces said they had shot down three northern warplanes.	Southern forces said they had shot down three nothern warplanes.	157394027	1476227295324	1476227295365	b	66
307945	3312586	Southern forces said they had shot down three northern warplanes.	Southern forces said they had shot down three nothern warplanes.	157394030	1476227295832	1476227295835	=	187
307945	3312586	Southern forces said they had shot down three northern warplanes.	Southern forces said they had shot down three nothern warplanes.	157394033	1476227295833	1476227295835	BKSP	8
307945	3312586	Southern forces said they had shot down three northern warplanes.	Southern forces said they had shot down three nothern warplanes.	157394037	1476227296543	1476227296584	BKSP	8
307945	3312586	Southern forces said they had shot down three northern warplanes.	Southern forces said they had shot down three nothern warplanes.	157394040	1476227296848	1476227296849	h	72
307945	3312586	Southern forces said they had shot down three northern warplanes.	Southern forces said they had shot down three nothern warplanes.	157394041	1476227297356	1476227297425	r	82
307945	3312586	Southern forces said they had shot down three northern warplanes.	Southern forces said they had shot down three nothern warplanes.	157394044	1476227297457	1476227297538	e	69
307945	3312586	Southern forces said they had shot down three northern warplanes.	Southern forces said they had shot down three nothern warplanes.	157394088	1476227297660	1476227297661	e	69
307945	3312586	Southern forces said they had shot down three northern warplanes.	Southern forces said they had shot down three nothern warplanes.	157394091	1476227297740	1476227297784	 	32
307945	3312586	Southern forces said they had shot down three northern warplanes.	Southern forces said they had shot down three nothern warplanes.	157394242	1476227298169	1476227300808	n	78
307945	3312586	Southern forces said they had shot down three northern warplanes.	Southern forces said they had shot down three nothern warplanes.	157394097	1476227298270	1476227298371	o	79
307945	3312586	Southern forces said they had shot down three northern warplanes.	Southern forces said they had shot down three nothern warplanes.	157394100	1476227298474	1476227298517	t	84
307945	3312586	Southern forces said they had shot down three northern warplanes.	Southern forces said they had shot down three nothern warplanes.	157394225	1476227299693	1476227299733	h	72
307945	3312586	Southern forces said they had shot down three northern warplanes.	Southern forces said they had shot down three nothern warplanes.	157394228	1476227299793	1476227299995	t	84
307945	3312586	Southern forces said they had shot down three northern warplanes.	Southern forces said they had shot down three nothern warplanes.	157394232	1476227300199	1476227300301	BKSP	8
307945	3312586	Southern forces said they had shot down three northern warplanes.	Southern forces said they had shot down three nothern warplanes.	157394237	1476227300402	1476227300510	e	69
307945	3312586	Southern forces said they had shot down three northern warplanes.	Southern forces said they had shot down three nothern warplanes.	157394240	1476227300467	1476227300605	r	82
307945	3312586	Southern forces said they had shot down three northern warplanes.	Southern forces said they had shot down three nothern warplanes.	157394540	1476227300706	1476227304836	n	78
307945	3312586	Southern forces said they had shot down three northern warplanes.	Southern forces said they had shot down three nothern warplanes.	157394277	1476227300910	1476227300951	 	32
307945	3312586	Southern forces said they had shot down three northern warplanes.	Southern forces said they had shot down three nothern warplanes.	157394279	1476227301420	1476227301519	w	87
307945	3312586	Southern forces said they had shot down three northern warplanes.	Southern forces said they had shot down three nothern warplanes.	157394281	1476227301621	1476227301621	a	65
307945	3312586	Southern forces said they had shot down three northern warplanes.	Southern forces said they had shot down three nothern warplanes.	157394284	1476227301622	1476227301824	s	83
307945	3312586	Southern forces said they had shot down three northern warplanes.	Southern forces said they had shot down three nothern warplanes.	157394288	1476227301925	1476227301968	r	82
307945	3312586	Southern forces said they had shot down three northern warplanes.	Southern forces said they had shot down three nothern warplanes.	157394408	1476227302534	1476227302538	BKSP	8
307945	3312586	Southern forces said they had shot down three northern warplanes.	Southern forces said they had shot down three nothern warplanes.	157394413	1476227302573	1476227302637	BKSP	8
307945	3312586	Southern forces said they had shot down three northern warplanes.	Southern forces said they had shot down three nothern warplanes.	157394417	1476227302737	1476227302808	r	82
307945	3312586	Southern forces said they had shot down three northern warplanes.	Southern forces said they had shot down three nothern warplanes.	157394420	1476227302941	1476227302941	o	79
307945	3312586	Southern forces said they had shot down three northern warplanes.	Southern forces said they had shot down three nothern warplanes.	157394426	1476227303753	1476227303791	BKSP	8
307945	3312586	Southern forces said they had shot down three northern warplanes.	Southern forces said they had shot down three nothern warplanes.	157394433	1476227304057	1476227304058	p	80
307945	3312586	Southern forces said they had shot down three northern warplanes.	Southern forces said they had shot down three nothern warplanes.	157394439	1476227304138	1476227304215	l	76
307945	3312586	Southern forces said they had shot down three northern warplanes.	Southern forces said they had shot down three nothern warplanes.	157394442	1476227304216	1476227304367	a	65
307945	3312586	Southern forces said they had shot down three northern warplanes.	Southern forces said they had shot down three nothern warplanes.	157394541	1476227305479	1476227305569	e	69
307945	3312586	Southern forces said they had shot down three northern warplanes.	Southern forces said they had shot down three nothern warplanes.	157394542	1476227305682	1476227305761	s	83
307945	3312586	Southern forces said they had shot down three northern warplanes.	Southern forces said they had shot down three nothern warplanes.	157394543	1476227305987	1476227306021	.	190
307945	3312607	I am on a plane, sorry.	I am on a Plane, sorry.	157394647	1476227308322	1476227308392	I	16
307945	3312607	I am on a plane, sorry.	I am on a Plane, sorry.	157394649	1476227308525	1476227308564	 	32
307945	3312607	I am on a plane, sorry.	I am on a Plane, sorry.	157394651	1476227308629	1476227308703	a	65
307945	3312607	I am on a plane, sorry.	I am on a Plane, sorry.	157394654	1476227308728	1476227308830	m	77
307945	3312607	I am on a plane, sorry.	I am on a Plane, sorry.	157394657	1476227308932	1476227309033	 	32
307945	3312607	I am on a plane, sorry.	I am on a Plane, sorry.	157394708	1476227309134	1476227309188	o	79
307945	3312607	I am on a plane, sorry.	I am on a Plane, sorry.	157394770	1476227309236	1476227311610	n	78
307945	3312607	I am on a plane, sorry.	I am on a Plane, sorry.	157394715	1476227309439	1476227309485	 	32
307945	3312607	I am on a plane, sorry.	I am on a Plane, sorry.	157394718	1476227309541	1476227309646	a	65
307945	3312607	I am on a plane, sorry.	I am on a Plane, sorry.	157394720	1476227310150	1476227310353	 	32
307945	3312607	I am on a plane, sorry.	I am on a Plane, sorry.	157394765	1476227310455	1476227310529	P	16
307945	3312607	I am on a plane, sorry.	I am on a Plane, sorry.	157394767	1476227311064	1476227311109	l	76
307945	3312607	I am on a plane, sorry.	I am on a Plane, sorry.	157394769	1476227311267	1476227311310	a	65
307945	3312607	I am on a plane, sorry.	I am on a Plane, sorry.	157394772	1476227311673	1476227311775	e	69
307945	3312607	I am on a plane, sorry.	I am on a Plane, sorry.	157394811	1476227312181	1476227312182	,	188
307945	3312607	I am on a plane, sorry.	I am on a Plane, sorry.	157394812	1476227312389	1476227312434	 	32
307945	3312607	I am on a plane, sorry.	I am on a Plane, sorry.	157394813	1476227312892	1476227313095	s	83
307945	3312607	I am on a plane, sorry.	I am on a Plane, sorry.	157394814	1476227313095	1476227313136	o	79
307945	3312607	I am on a plane, sorry.	I am on a Plane, sorry.	157394815	1476227313165	1476227313251	r	82
307945	3312607	I am on a plane, sorry.	I am on a Plane, sorry.	157394876	1476227313298	1476227313369	r	82
307945	3312607	I am on a plane, sorry.	I am on a Plane, sorry.	157394880	1476227313501	1476227313704	y	89
307945	3312607	I am on a plane, sorry.	I am on a Plane, sorry.	157394883	1476227313907	1476227313977	.	190
307945	3312618	I'll bug Holloway and let you know what he says.	I'll bug Holloway and let you know what he says.	157395097	1476227316141	1476227316244	SHIFT	16
307945	3312618	I'll bug Holloway and let you know what he says.	I'll bug Holloway and let you know what he says.	157395101	1476227316243	1476227316244	I	73
307945	3312618	I'll bug Holloway and let you know what he says.	I'll bug Holloway and let you know what he says.	157395104	1476227316751	1476227316753	'	186
307945	3312618	I'll bug Holloway and let you know what he says.	I'll bug Holloway and let you know what he says.	157395109	1476227317157	1476227317192	l	76
307945	3312618	I'll bug Holloway and let you know what he says.	I'll bug Holloway and let you know what he says.	157395112	1476227317461	1476227317463	BKSP	8
307945	3312618	I'll bug Holloway and let you know what he says.	I'll bug Holloway and let you know what he says.	157395115	1476227317563	1476227317664	BKSP	8
307945	3312618	I'll bug Holloway and let you know what he says.	I'll bug Holloway and let you know what he says.	157395117	1476227317766	1476227317770	BKSP	8
307945	3312618	I'll bug Holloway and let you know what he says.	I'll bug Holloway and let you know what he says.	157395120	1476227318477	1476227318478	'	222
307945	3312618	I'll bug Holloway and let you know what he says.	I'll bug Holloway and let you know what he says.	157395175	1476227318680	1476227318721	l	76
307945	3312618	I'll bug Holloway and let you know what he says.	I'll bug Holloway and let you know what he says.	157395177	1476227318783	1476227318859	l	76
307945	3312618	I'll bug Holloway and let you know what he says.	I'll bug Holloway and let you know what he says.	157395182	1476227318985	1476227319086	 	32
307945	3312618	I'll bug Holloway and let you know what he says.	I'll bug Holloway and let you know what he says.	157395184	1476227319594	1476227319671	b	66
307945	3312618	I'll bug Holloway and let you know what he says.	I'll bug Holloway and let you know what he says.	157395186	1476227319797	1476227319884	u	85
307945	3312618	I'll bug Holloway and let you know what he says.	I'll bug Holloway and let you know what he says.	157395249	1476227320406	1476227320485	g	71
307945	3312618	I'll bug Holloway and let you know what he says.	I'll bug Holloway and let you know what he says.	157395253	1476227320485	1476227320609	 	32
307945	3312618	I'll bug Holloway and let you know what he says.	I'll bug Holloway and let you know what he says.	157395260	1476227320914	1476227321061	SHIFT	16
307945	3312618	I'll bug Holloway and let you know what he says.	I'll bug Holloway and let you know what he says.	157395263	1476227321016	1476227321062	H	72
307945	3312618	I'll bug Holloway and let you know what he says.	I'll bug Holloway and let you know what he says.	157395268	1476227321219	1476227321220	o	79
307945	3312618	I'll bug Holloway and let you know what he says.	I'll bug Holloway and let you know what he says.	157395269	1476227321262	1476227321320	o	79
307945	3312618	I'll bug Holloway and let you know what he says.	I'll bug Holloway and let you know what he says.	157395417	1476227321727	1476227321761	l	76
307945	3312618	I'll bug Holloway and let you know what he says.	I'll bug Holloway and let you know what he says.	157395422	1476227321930	1476227321932	o	79
307945	3312618	I'll bug Holloway and let you know what he says.	I'll bug Holloway and let you know what he says.	157395425	1476227322539	1476227322572	BKSP	8
307945	3312618	I'll bug Holloway and let you know what he says.	I'll bug Holloway and let you know what he says.	157395429	1476227322640	1476227322742	BKSP	8
307945	3312618	I'll bug Holloway and let you know what he says.	I'll bug Holloway and let you know what he says.	157395433	1476227322945	1476227322978	BKSP	8
307945	3312618	I'll bug Holloway and let you know what he says.	I'll bug Holloway and let you know what he says.	157395437	1476227323250	1476227323251	l	76
307945	3312618	I'll bug Holloway and let you know what he says.	I'll bug Holloway and let you know what he says.	157395442	1476227323351	1476227323438	o	79
307945	3312618	I'll bug Holloway and let you know what he says.	I'll bug Holloway and let you know what he says.	157395448	1476227323960	1476227323963	BKSP	8
307945	3312618	I'll bug Holloway and let you know what he says.	I'll bug Holloway and let you know what he says.	157395452	1476227324062	1476227324065	BKSP	8
307945	3312618	I'll bug Holloway and let you know what he says.	I'll bug Holloway and let you know what he says.	157395454	1476227324367	1476227324368	l	76
307945	3312618	I'll bug Holloway and let you know what he says.	I'll bug Holloway and let you know what he says.	157395506	1476227324671	1476227324672	l	76
307945	3312618	I'll bug Holloway and let you know what he says.	I'll bug Holloway and let you know what he says.	157395507	1476227324874	1476227324875	o	79
307945	3312618	I'll bug Holloway and let you know what he says.	I'll bug Holloway and let you know what he says.	157395508	1476227325078	1476227325117	w	87
307945	3312618	I'll bug Holloway and let you know what he says.	I'll bug Holloway and let you know what he says.	157395510	1476227325585	1476227325661	a	65
307945	3312618	I'll bug Holloway and let you know what he says.	I'll bug Holloway and let you know what he says.	157395512	1476227326094	1476227326129	y	89
307945	3312618	I'll bug Holloway and let you know what he says.	I'll bug Holloway and let you know what he says.	157395568	1476227326194	1476227326296	 	32
307945	3312618	I'll bug Holloway and let you know what he says.	I'll bug Holloway and let you know what he says.	157395571	1476227326397	1476227326492	a	65
307945	3312618	I'll bug Holloway and let you know what he says.	I'll bug Holloway and let you know what he says.	157395836	1476227326804	1476227332728	n	78
307945	3312618	I'll bug Holloway and let you know what he says.	I'll bug Holloway and let you know what he says.	157395575	1476227327007	1476227327053	d	68
307945	3312618	I'll bug Holloway and let you know what he says.	I'll bug Holloway and let you know what he says.	157395577	1476227327288	1476227327289	 	32
307945	3312618	I'll bug Holloway and let you know what he says.	I'll bug Holloway and let you know what he says.	157395618	1476227328124	1476227328225	l	76
307945	3312618	I'll bug Holloway and let you know what he says.	I'll bug Holloway and let you know what he says.	157395619	1476227328225	1476227328361	e	69
307945	3312618	I'll bug Holloway and let you know what he says.	I'll bug Holloway and let you know what he says.	157395620	1476227328327	1476227328431	t	84
307945	3312618	I'll bug Holloway and let you know what he says.	I'll bug Holloway and let you know what he says.	157395621	1476227328428	1476227328488	 	32
307945	3312618	I'll bug Holloway and let you know what he says.	I'll bug Holloway and let you know what he says.	157395690	1476227328632	1476227328705	y	72
307945	3312618	I'll bug Holloway and let you know what he says.	I'll bug Holloway and let you know what he says.	157395694	1476227328736	1476227328937	o	79
307945	3312618	I'll bug Holloway and let you know what he says.	I'll bug Holloway and let you know what he says.	157395699	1476227328936	1476227328985	u	85
307945	3312618	I'll bug Holloway and let you know what he says.	I'll bug Holloway and let you know what he says.	157395704	1476227329241	1476227329282	BKSP	8
307945	3312618	I'll bug Holloway and let you know what he says.	I'll bug Holloway and let you know what he says.	157395708	1476227329342	1476227329379	BKSP	8
307945	3312618	I'll bug Holloway and let you know what he says.	I'll bug Holloway and let you know what he says.	157395710	1476227329548	1476227329550	BKSP	8
307945	3312618	I'll bug Holloway and let you know what he says.	I'll bug Holloway and let you know what he says.	157395711	1476227329593	1476227329670	BKSP	8
307945	3312618	I'll bug Holloway and let you know what he says.	I'll bug Holloway and let you know what he says.	157395713	1476227330256	1476227330258	h	89
307945	3312618	I'll bug Holloway and let you know what he says.	I'll bug Holloway and let you know what he says.	157395787	1476227330296	1476227330461	p	79
307945	3312618	I'll bug Holloway and let you know what he says.	I'll bug Holloway and let you know what he says.	157395790	1476227330460	1476227330528	u	85
307945	3312618	I'll bug Holloway and let you know what he says.	I'll bug Holloway and let you know what he says.	157395793	1476227330764	1476227330766	=	187
307945	3312618	I'll bug Holloway and let you know what he says.	I'll bug Holloway and let you know what he says.	157395796	1476227330765	1476227330767	BKSP	8
307945	3312618	I'll bug Holloway and let you know what he says.	I'll bug Holloway and let you know what he says.	157395799	1476227330865	1476227330868	=	187
307945	3312618	I'll bug Holloway and let you know what he says.	I'll bug Holloway and let you know what he says.	157395802	1476227330866	1476227330868	BKSP	8
307945	3312618	I'll bug Holloway and let you know what he says.	I'll bug Holloway and let you know what he says.	157395804	1476227330967	1476227331020	BKSP	8
307945	3312618	I'll bug Holloway and let you know what he says.	I'll bug Holloway and let you know what he says.	157395809	1476227331069	1476227331170	BKSP	8
307945	3312618	I'll bug Holloway and let you know what he says.	I'll bug Holloway and let you know what he says.	157395811	1476227331272	1476227331274	BKSP	8
307945	3312618	I'll bug Holloway and let you know what he says.	I'll bug Holloway and let you know what he says.	157395814	1476227331373	1476227331418	BKSP	8
307945	3312618	I'll bug Holloway and let you know what he says.	I'll bug Holloway and let you know what he says.	157395818	1476227332084	1476227332151	o	79
307945	3312618	I'll bug Holloway and let you know what he says.	I'll bug Holloway and let you know what he says.	157395823	1476227332186	1476227332264	u	85
307945	3312618	I'll bug Holloway and let you know what he says.	I'll bug Holloway and let you know what he says.	157395831	1476227332389	1476227332391	 	32
307945	3312618	I'll bug Holloway and let you know what he says.	I'll bug Holloway and let you know what he says.	157395833	1476227332490	1476227332526	k	75
307945	3312618	I'll bug Holloway and let you know what he says.	I'll bug Holloway and let you know what he says.	157395838	1476227332759	1476227332897	o	79
307945	3312618	I'll bug Holloway and let you know what he says.	I'll bug Holloway and let you know what he says.	157395841	1476227332999	1476227333046	w	87
307945	3312618	I'll bug Holloway and let you know what he says.	I'll bug Holloway and let you know what he says.	157395882	1476227333302	1476227333304	 	32
307945	3312618	I'll bug Holloway and let you know what he says.	I'll bug Holloway and let you know what he says.	157395887	1476227333607	1476227333679	w	87
307945	3312618	I'll bug Holloway and let you know what he says.	I'll bug Holloway and let you know what he says.	157395960	1476227333709	1476227333913	a	65
307945	3312618	I'll bug Holloway and let you know what he says.	I'll bug Holloway and let you know what he says.	157395892	1476227333789	1476227333869	h	72
307945	3312618	I'll bug Holloway and let you know what he says.	I'll bug Holloway and let you know what he says.	157395958	1476227333825	1476227333913	b	66
307945	3312618	I'll bug Holloway and let you know what he says.	I'll bug Holloway and let you know what he says.	157395964	1476227333913	1476227334013	t	84
307945	3312618	I'll bug Holloway and let you know what he says.	I'll bug Holloway and let you know what he says.	157395965	1476227334419	1476227334421	BKSP	8
307945	3312618	I'll bug Holloway and let you know what he says.	I'll bug Holloway and let you know what he says.	157395966	1476227334521	1476227334553	BKSP	8
307945	3312618	I'll bug Holloway and let you know what he says.	I'll bug Holloway and let you know what he says.	157395968	1476227334623	1476227334662	BKSP	8
307945	3312618	I'll bug Holloway and let you know what he says.	I'll bug Holloway and let you know what he says.	157395971	1476227334826	1476227334828	BKSP	8
307945	3312618	I'll bug Holloway and let you know what he says.	I'll bug Holloway and let you know what he says.	157395974	1476227335232	1476227335286	a	72
307945	3312618	I'll bug Holloway and let you know what he says.	I'll bug Holloway and let you know what he says.	157395978	1476227335435	1476227335474	t	84
307945	3312618	I'll bug Holloway and let you know what he says.	I'll bug Holloway and let you know what he says.	157395981	1476227335841	1476227335944	 	32
307945	3312618	I'll bug Holloway and let you know what he says.	I'll bug Holloway and let you know what he says.	157396020	1476227336044	1476227336085	h	72
307945	3312618	I'll bug Holloway and let you know what he says.	I'll bug Holloway and let you know what he says.	157396023	1476227336114	1476227336248	e	69
307945	3312618	I'll bug Holloway and let you know what he says.	I'll bug Holloway and let you know what he says.	157396026	1476227336248	1476227336285	 	32
307945	3312618	I'll bug Holloway and let you know what he says.	I'll bug Holloway and let you know what he says.	157396029	1476227336349	1476227336552	w	87
307945	3312618	I'll bug Holloway and let you know what he says.	I'll bug Holloway and let you know what he says.	157396032	1476227336755	1476227336801	BKSP	8
307945	3312618	I'll bug Holloway and let you know what he says.	I'll bug Holloway and let you know what he says.	157396036	1476227336801	1476227337061	s	83
307945	3312618	I'll bug Holloway and let you know what he says.	I'll bug Holloway and let you know what he says.	157396067	1476227337060	1476227337127	a	65
307945	3312618	I'll bug Holloway and let you know what he says.	I'll bug Holloway and let you know what he says.	157396069	1476227337161	1476227337263	y	89
307945	3312618	I'll bug Holloway and let you know what he says.	I'll bug Holloway and let you know what he says.	157396070	1476227337365	1476227337568	s	83
307945	3312618	I'll bug Holloway and let you know what he says.	I'll bug Holloway and let you know what he says.	157396071	1476227337568	1476227337669	.	190
307945	3312640	I'll call you when I get to the office.	I'll call you when I get to the office.	157396215	1476227340106	1476227340184	I	16
307945	3312640	I'll call you when I get to the office.	I'll call you when I get to the office.	157396217	1476227341020	1476227341090	'	222
307945	3312640	I'll call you when I get to the office.	I'll call you when I get to the office.	157396219	1476227341528	1476227341588	l	76
307945	3312640	I'll call you when I get to the office.	I'll call you when I get to the office.	157396220	1476227341629	1476227341708	l	76
307945	3312640	I'll call you when I get to the office.	I'll call you when I get to the office.	157396221	1476227341832	1476227341835	 	32
307945	3312640	I'll call you when I get to the office.	I'll call you when I get to the office.	157396264	1476227342340	1476227342402	c	67
307945	3312640	I'll call you when I get to the office.	I'll call you when I get to the office.	157396267	1476227342389	1476227342467	a	65
307945	3312640	I'll call you when I get to the office.	I'll call you when I get to the office.	157396270	1476227342544	1476227342545	l	76
307945	3312640	I'll call you when I get to the office.	I'll call you when I get to the office.	157396274	1476227342623	1476227342667	l	76
307945	3312640	I'll call you when I get to the office.	I'll call you when I get to the office.	157396276	1476227342848	1476227342885	 	32
307945	3312640	I'll call you when I get to the office.	I'll call you when I get to the office.	157396334	1476227343051	1476227343052	y	89
307945	3312640	I'll call you when I get to the office.	I'll call you when I get to the office.	157396339	1476227343153	1476227343254	o	79
307945	3312640	I'll call you when I get to the office.	I'll call you when I get to the office.	157396343	1476227343232	1476227343356	u	85
307945	3312640	I'll call you when I get to the office.	I'll call you when I get to the office.	157396347	1476227343863	1476227343899	 	32
307945	3312640	I'll call you when I get to the office.	I'll call you when I get to the office.	157396351	1476227344270	1476227344341	w	87
307945	3312640	I'll call you when I get to the office.	I'll call you when I get to the office.	157396379	1476227344344	1476227344420	h	72
307945	3312640	I'll call you when I get to the office.	I'll call you when I get to the office.	157396381	1476227344574	1476227344578	e	69
307945	3312640	I'll call you when I get to the office.	I'll call you when I get to the office.	157396386	1476227344879	1476227344980	 	32
307945	3312640	I'll call you when I get to the office.	I'll call you when I get to the office.	157396392	1476227345082	1476227345225	SHIFT	16
307945	3312640	I'll call you when I get to the office.	I'll call you when I get to the office.	157396442	1476227345184	1476227345256	I	73
307945	3312640	I'll call you when I get to the office.	I'll call you when I get to the office.	157396446	1476227345387	1476227345429	 	32
307945	3312640	I'll call you when I get to the office.	I'll call you when I get to the office.	157396450	1476227345793	1476227345996	g	71
307945	3312640	I'll call you when I get to the office.	I'll call you when I get to the office.	157396454	1476227345997	1476227346147	e	69
307945	3312640	I'll call you when I get to the office.	I'll call you when I get to the office.	157396455	1476227346102	1476227346199	t	84
307945	3312640	I'll call you when I get to the office.	I'll call you when I get to the office.	157396456	1476227346302	1476227346304	 	32
307945	3312640	I'll call you when I get to the office.	I'll call you when I get to the office.	157396477	1476227346507	1476227346566	t	84
307945	3312640	I'll call you when I get to the office.	I'll call you when I get to the office.	157396480	1476227346567	1476227346645	o	79
307945	3312640	I'll call you when I get to the office.	I'll call you when I get to the office.	157396483	1476227346646	1476227346808	 	32
307945	3312640	I'll call you when I get to the office.	I'll call you when I get to the office.	157396485	1476227347011	1476227347122	t	84
307945	3312640	I'll call you when I get to the office.	I'll call you when I get to the office.	157396523	1476227347081	1476227347214	h	72
307945	3312640	I'll call you when I get to the office.	I'll call you when I get to the office.	157396526	1476227347214	1476227347316	e	69
307945	3312640	I'll call you when I get to the office.	I'll call you when I get to the office.	157396529	1476227347417	1476227347454	 	32
307945	3312640	I'll call you when I get to the office.	I'll call you when I get to the office.	157396530	1476227347824	1476227347861	o	79
307945	3312640	I'll call you when I get to the office.	I'll call you when I get to the office.	157396531	1476227348029	1476227348109	f	70
307945	3312640	I'll call you when I get to the office.	I'll call you when I get to the office.	157396532	1476227348230	1476227348267	f	70
307945	3312640	I'll call you when I get to the office.	I'll call you when I get to the office.	157396543	1476227348297	1476227348410	i	73
307945	3312640	I'll call you when I get to the office.	I'll call you when I get to the office.	157396546	1476227348410	1476227348636	c	67
307945	3312640	I'll call you when I get to the office.	I'll call you when I get to the office.	157396549	1476227348637	1476227348703	e	69
307945	3312640	I'll call you when I get to the office.	I'll call you when I get to the office.	157396552	1476227348703	1476227348793	.	190
307945	3312653	The wind was strong and gusting.	The wind was strong and gusting.	157396632	1476227351277	1476227351466	SHIFT	16
307945	3312653	The wind was strong and gusting.	The wind was strong and gusting.	157396636	1476227351378	1476227351480	T	84
307945	3312653	The wind was strong and gusting.	The wind was strong and gusting.	157396642	1476227351581	1476227351583	e	72
307945	3312653	The wind was strong and gusting.	The wind was strong and gusting.	157396649	1476227351653	1476227351784	 	32
307945	3312653	The wind was strong and gusting.	The wind was strong and gusting.	157396656	1476227351987	1476227352091	w	87
307945	3312653	The wind was strong and gusting.	The wind was strong and gusting.	157396676	1476227352095	1476227352167	i	73
307945	3312653	The wind was strong and gusting.	The wind was strong and gusting.	157396808	1476227352292	1476227355643	n	78
307945	3312653	The wind was strong and gusting.	The wind was strong and gusting.	157396684	1476227352339	1476227352417	d	68
307945	3312653	The wind was strong and gusting.	The wind was strong and gusting.	157396689	1476227352799	1476227352836	 	32
307945	3312653	The wind was strong and gusting.	The wind was strong and gusting.	157396693	1476227353003	1476227353206	w	87
307945	3312653	The wind was strong and gusting.	The wind was strong and gusting.	157396749	1476227353309	1476227353391	s	83
307945	3312653	The wind was strong and gusting.	The wind was strong and gusting.	157396751	1476227353354	1476227353510	 	32
307945	3312653	The wind was strong and gusting.	The wind was strong and gusting.	157396754	1476227353916	1476227353963	BKSP	8
307945	3312653	The wind was strong and gusting.	The wind was strong and gusting.	157396756	1476227354120	1476227354122	BKSP	8
307945	3312653	The wind was strong and gusting.	The wind was strong and gusting.	157396759	1476227354123	1476227354276	a	65
307945	3312653	The wind was strong and gusting.	The wind was strong and gusting.	157396762	1476227354198	1476227354424	s	83
307945	3312653	The wind was strong and gusting.	The wind was strong and gusting.	157396765	1476227354425	1476227354526	 	32
307945	3312653	The wind was strong and gusting.	The wind was strong and gusting.	157396786	1476227354729	1476227354933	s	83
307945	3312653	The wind was strong and gusting.	The wind was strong and gusting.	157396788	1476227354932	1476227355005	t	84
307945	3312653	The wind was strong and gusting.	The wind was strong and gusting.	157396794	1476227355237	1476227355238	r	82
307945	3312653	The wind was strong and gusting.	The wind was strong and gusting.	157396801	1476227355338	1476227355439	o	79
307945	3312653	The wind was strong and gusting.	The wind was strong and gusting.	157396841	1476227355541	1476227356209	n	78
307945	3312653	The wind was strong and gusting.	The wind was strong and gusting.	157396831	1476227355744	1476227355745	g	71
307945	3312653	The wind was strong and gusting.	The wind was strong and gusting.	157396835	1476227355787	1476227355948	 	32
307945	3312653	The wind was strong and gusting.	The wind was strong and gusting.	157396837	1476227355948	1476227356049	a	65
307945	3312653	The wind was strong and gusting.	The wind was strong and gusting.	157396964	1476227356150	1476227357962	n	78
307945	3312653	The wind was strong and gusting.	The wind was strong and gusting.	157396899	1476227356208	1476227356304	d	68
307945	3312653	The wind was strong and gusting.	The wind was strong and gusting.	157396902	1476227356304	1476227356455	 	32
307945	3312653	The wind was strong and gusting.	The wind was strong and gusting.	157396907	1476227356760	1476227356801	g	71
307945	3312653	The wind was strong and gusting.	The wind was strong and gusting.	157396910	1476227356963	1476227357142	u	85
307945	3312653	The wind was strong and gusting.	The wind was strong and gusting.	157396913	1476227357369	1476227357448	s	83
307945	3312653	The wind was strong and gusting.	The wind was strong and gusting.	157396916	1476227357674	1476227357721	t	84
307945	3312653	The wind was strong and gusting.	The wind was strong and gusting.	157396961	1476227357723	1476227357775	i	73
307945	3312653	The wind was strong and gusting.	The wind was strong and gusting.	157397036	1476227357877	1476227359807	n	78
307945	3312653	The wind was strong and gusting.	The wind was strong and gusting.	157396967	1476227357924	1476227357978	g	71
307945	3312653	The wind was strong and gusting.	The wind was strong and gusting.	157396971	1476227358080	1476227358134	'	222
307945	3312653	The wind was strong and gusting.	The wind was strong and gusting.	157396976	1476227358587	1476227358624	BKSP	8
307945	3312653	The wind was strong and gusting.	The wind was strong and gusting.	157396981	1476227358791	1476227358794	BKSP	8
307945	3312653	The wind was strong and gusting.	The wind was strong and gusting.	157396985	1476227358893	1476227358937	BKSP	8
307945	3312653	The wind was strong and gusting.	The wind was strong and gusting.	157396986	1476227358994	1476227359095	BKSP	8
307945	3312653	The wind was strong and gusting.	The wind was strong and gusting.	157396988	1476227359603	1476227359638	i	73
307945	3312653	The wind was strong and gusting.	The wind was strong and gusting.	157397040	1476227359806	1476227359888	g	71
307945	3312653	The wind was strong and gusting.	The wind was strong and gusting.	157397044	1476227359888	1476227360009	'	222
307945	3312653	The wind was strong and gusting.	The wind was strong and gusting.	157397047	1476227360720	1476227360822	BKSP	8
307945	3312653	The wind was strong and gusting.	The wind was strong and gusting.	157397050	1476227361126	1476227361167	.	190
307945	3312662	The Auction this year is hosted by EGS.	The Auction this year is hosted by EGS/	157397170	1476227363360	1476227363463	SHIFT	16
307945	3312662	The Auction this year is hosted by EGS.	The Auction this year is hosted by EGS/	157397174	1476227363462	1476227363557	T	84
307945	3312662	The Auction this year is hosted by EGS.	The Auction this year is hosted by EGS/	157397175	1476227363969	1476227364038	h	72
307945	3312662	The Auction this year is hosted by EGS.	The Auction this year is hosted by EGS/	157397177	1476227364071	1476227364173	e	69
307945	3312662	The Auction this year is hosted by EGS.	The Auction this year is hosted by EGS/	157397179	1476227364274	1476227364318	 	32
307945	3312662	The Auction this year is hosted by EGS.	The Auction this year is hosted by EGS/	157397181	1476227364579	1476227364657	A	16
307945	3312662	The Auction this year is hosted by EGS.	The Auction this year is hosted by EGS/	157397218	1476227364985	1476227365021	u	85
307945	3312662	The Auction this year is hosted by EGS.	The Auction this year is hosted by EGS/	157397219	1476227365052	1476227365188	c	67
307945	3312662	The Auction this year is hosted by EGS.	The Auction this year is hosted by EGS/	157397220	1476227365696	1476227365769	t	84
307945	3312662	The Auction this year is hosted by EGS.	The Auction this year is hosted by EGS/	157397221	1476227365770	1476227365899	i	73
307945	3312662	The Auction this year is hosted by EGS.	The Auction this year is hosted by EGS/	157397222	1476227366000	1476227366036	o	79
307945	3312662	The Auction this year is hosted by EGS.	The Auction this year is hosted by EGS/	157397258	1476227366347	1476227366509	 	32
307945	3312662	The Auction this year is hosted by EGS.	The Auction this year is hosted by EGS/	157397262	1476227366711	1476227366813	t	84
307945	3312662	The Auction this year is hosted by EGS.	The Auction this year is hosted by EGS/	157397266	1476227366786	1476227366919	h	72
307945	3312662	The Auction this year is hosted by EGS.	The Auction this year is hosted by EGS/	157397284	1476227366876	1476227367016	i	73
307945	3312662	The Auction this year is hosted by EGS.	The Auction this year is hosted by EGS/	157397288	1476227367016	1476227367117	s	83
307945	3312662	The Auction this year is hosted by EGS.	The Auction this year is hosted by EGS/	157397292	1476227367083	1476227367173	 	32
307945	3312662	The Auction this year is hosted by EGS.	The Auction this year is hosted by EGS/	157397296	1476227367428	1476227367473	y	89
307945	3312662	The Auction this year is hosted by EGS.	The Auction this year is hosted by EGS/	157397300	1476227367501	1476227367727	e	69
307945	3312662	The Auction this year is hosted by EGS.	The Auction this year is hosted by EGS/	157397303	1476227367727	1476227367797	a	65
307945	3312662	The Auction this year is hosted by EGS.	The Auction this year is hosted by EGS/	157397311	1476227367930	1476227368000	r	82
307945	3312662	The Auction this year is hosted by EGS.	The Auction this year is hosted by EGS/	157397314	1476227368031	1476227368096	 	32
307945	3312662	The Auction this year is hosted by EGS.	The Auction this year is hosted by EGS/	157397317	1476227368234	1476227368438	i	73
307945	3312662	The Auction this year is hosted by EGS.	The Auction this year is hosted by EGS/	157397321	1476227368438	1476227368484	 	83
307945	3312662	The Auction this year is hosted by EGS.	The Auction this year is hosted by EGS/	157397346	1476227368641	1476227368845	h	72
307945	3312662	The Auction this year is hosted by EGS.	The Auction this year is hosted by EGS/	157397347	1476227368845	1476227368889	o	79
307945	3312662	The Auction this year is hosted by EGS.	The Auction this year is hosted by EGS/	157397348	1476227369049	1476227369188	s	83
307945	3312662	The Auction this year is hosted by EGS.	The Auction this year is hosted by EGS/	157397349	1476227369148	1476227369351	t	84
307945	3312662	The Auction this year is hosted by EGS.	The Auction this year is hosted by EGS/	157397351	1476227369352	1476227369390	e	69
307945	3312662	The Auction this year is hosted by EGS.	The Auction this year is hosted by EGS/	157397418	1476227369554	1476227369555	d	68
307945	3312662	The Auction this year is hosted by EGS.	The Auction this year is hosted by EGS/	157397419	1476227369556	1476227369616	d	68
307945	3312662	The Auction this year is hosted by EGS.	The Auction this year is hosted by EGS/	157397420	1476227370062	1476227370107	BKSP	8
307945	3312662	The Auction this year is hosted by EGS.	The Auction this year is hosted by EGS/	157397421	1476227370367	1476227370369	 	32
307945	3312662	The Auction this year is hosted by EGS.	The Auction this year is hosted by EGS/	157397422	1476227370672	1476227370673	b	66
307945	3312662	The Auction this year is hosted by EGS.	The Auction this year is hosted by EGS/	157397424	1476227370777	1476227370976	y	89
307945	3312662	The Auction this year is hosted by EGS.	The Auction this year is hosted by EGS/	157397475	1476227371077	1476227371079	 	32
307945	3312662	The Auction this year is hosted by EGS.	The Auction this year is hosted by EGS/	157397477	1476227371382	1476227371585	SHIFT	16
307945	3312662	The Auction this year is hosted by EGS.	The Auction this year is hosted by EGS/	157397479	1476227371484	1476227371586	E	69
307945	3312662	The Auction this year is hosted by EGS.	The Auction this year is hosted by EGS/	157397483	1476227371895	1476227371896	G	16
307945	3312662	The Auction this year is hosted by EGS.	The Auction this year is hosted by EGS/	157397486	1476227372093	1476227372180	S	16
307945	3312662	The Auction this year is hosted by EGS.	The Auction this year is hosted by EGS/	157397492	1476227372804	1476227372905	/	191
307945	3312671	Washington was not moving toward a unilateral lifting of the embargo.	Washington was not moving toward a unilatersal lifting of the embargo.	157397597	1476227375241	1476227375343	SHIFT	16
307945	3312671	Washington was not moving toward a unilateral lifting of the embargo.	Washington was not moving toward a unilatersal lifting of the embargo.	157397599	1476227375342	1476227375424	W	87
307945	3312671	Washington was not moving toward a unilateral lifting of the embargo.	Washington was not moving toward a unilatersal lifting of the embargo.	157397601	1476227375545	1476227375627	a	65
307945	3312671	Washington was not moving toward a unilateral lifting of the embargo.	Washington was not moving toward a unilatersal lifting of the embargo.	157397604	1476227375627	1476227375749	s	83
307945	3312671	Washington was not moving toward a unilateral lifting of the embargo.	Washington was not moving toward a unilatersal lifting of the embargo.	157397607	1476227376256	1476227376297	h	72
307945	3312671	Washington was not moving toward a unilateral lifting of the embargo.	Washington was not moving toward a unilatersal lifting of the embargo.	157397611	1476227376298	1476227376459	i	73
307945	3312671	Washington was not moving toward a unilateral lifting of the embargo.	Washington was not moving toward a unilatersal lifting of the embargo.	157397638	1476227376462	1476227377249	n	78
307945	3312671	Washington was not moving toward a unilateral lifting of the embargo.	Washington was not moving toward a unilatersal lifting of the embargo.	157397634	1476227376508	1476227376564	g	71
307945	3312671	Washington was not moving toward a unilateral lifting of the embargo.	Washington was not moving toward a unilatersal lifting of the embargo.	157397636	1476227376663	1476227376766	t	84
307945	3312671	Washington was not moving toward a unilateral lifting of the embargo.	Washington was not moving toward a unilatersal lifting of the embargo.	157397637	1476227376866	1476227376908	o	79
307945	3312671	Washington was not moving toward a unilateral lifting of the embargo.	Washington was not moving toward a unilatersal lifting of the embargo.	157397707	1476227377171	1476227379304	n	78
307945	3312671	Washington was not moving toward a unilateral lifting of the embargo.	Washington was not moving toward a unilatersal lifting of the embargo.	157397669	1476227377272	1476227377373	 	32
307945	3312671	Washington was not moving toward a unilateral lifting of the embargo.	Washington was not moving toward a unilatersal lifting of the embargo.	157397670	1476227377475	1476227377576	w	87
307945	3312671	Washington was not moving toward a unilateral lifting of the embargo.	Washington was not moving toward a unilatersal lifting of the embargo.	157397672	1476227377678	1476227377718	s	87
307945	3312671	Washington was not moving toward a unilateral lifting of the embargo.	Washington was not moving toward a unilatersal lifting of the embargo.	157397674	1476227378389	1476227378401	BKSP	8
307945	3312671	Washington was not moving toward a unilateral lifting of the embargo.	Washington was not moving toward a unilatersal lifting of the embargo.	157397676	1476227378435	1476227378592	BKSP	8
307945	3312671	Washington was not moving toward a unilateral lifting of the embargo.	Washington was not moving toward a unilatersal lifting of the embargo.	157397678	1476227378593	1476227378655	s	65
307945	3312671	Washington was not moving toward a unilateral lifting of the embargo.	Washington was not moving toward a unilatersal lifting of the embargo.	157397702	1476227378795	1476227378841	 	32
307945	3312671	Washington was not moving toward a unilateral lifting of the embargo.	Washington was not moving toward a unilatersal lifting of the embargo.	157397704	1476227379100	1476227379138	o	79
307945	3312671	Washington was not moving toward a unilateral lifting of the embargo.	Washington was not moving toward a unilatersal lifting of the embargo.	157397719	1476227379303	1476227380153	n	78
307945	3312671	Washington was not moving toward a unilateral lifting of the embargo.	Washington was not moving toward a unilatersal lifting of the embargo.	157397712	1476227379506	1476227379508	BKSP	8
307945	3312671	Washington was not moving toward a unilateral lifting of the embargo.	Washington was not moving toward a unilatersal lifting of the embargo.	157397716	1476227379912	1476227379915	BKSP	8
307945	3312671	Washington was not moving toward a unilateral lifting of the embargo.	Washington was not moving toward a unilatersal lifting of the embargo.	157397850	1476227380115	1476227383913	n	78
307945	3312671	Washington was not moving toward a unilateral lifting of the embargo.	Washington was not moving toward a unilatersal lifting of the embargo.	157397723	1476227380318	1476227380319	o	79
307945	3312671	Washington was not moving toward a unilateral lifting of the embargo.	Washington was not moving toward a unilatersal lifting of the embargo.	157397760	1476227380386	1476227380476	t	84
307945	3312671	Washington was not moving toward a unilateral lifting of the embargo.	Washington was not moving toward a unilatersal lifting of the embargo.	157397761	1476227380521	1476227380557	 	32
307945	3312671	Washington was not moving toward a unilateral lifting of the embargo.	Washington was not moving toward a unilatersal lifting of the embargo.	157397764	1476227380928	1476227380929	m	77
307945	3312671	Washington was not moving toward a unilateral lifting of the embargo.	Washington was not moving toward a unilatersal lifting of the embargo.	157397765	1476227381537	1476227381571	o	79
307945	3312671	Washington was not moving toward a unilateral lifting of the embargo.	Washington was not moving toward a unilatersal lifting of the embargo.	157397768	1476227381740	1476227381776	b	66
307945	3312671	Washington was not moving toward a unilateral lifting of the embargo.	Washington was not moving toward a unilatersal lifting of the embargo.	157397832	1476227382250	1476227382292	BKSP	8
307945	3312671	Washington was not moving toward a unilateral lifting of the embargo.	Washington was not moving toward a unilatersal lifting of the embargo.	157397835	1476227382451	1476227382491	v	86
307945	3312671	Washington was not moving toward a unilateral lifting of the embargo.	Washington was not moving toward a unilatersal lifting of the embargo.	157397838	1476227382553	1476227382758	o	79
307945	3312671	Washington was not moving toward a unilateral lifting of the embargo.	Washington was not moving toward a unilatersal lifting of the embargo.	157397841	1476227382968	1476227383038	i	73
307945	3312671	Washington was not moving toward a unilateral lifting of the embargo.	Washington was not moving toward a unilatersal lifting of the embargo.	157397844	1476227383263	1476227383303	BKSP	8
307945	3312671	Washington was not moving toward a unilateral lifting of the embargo.	Washington was not moving toward a unilatersal lifting of the embargo.	157397846	1476227383466	1476227383468	BKSP	8
307945	3312671	Washington was not moving toward a unilateral lifting of the embargo.	Washington was not moving toward a unilatersal lifting of the embargo.	157397848	1476227383669	1476227383708	i	73
307945	3312671	Washington was not moving toward a unilateral lifting of the embargo.	Washington was not moving toward a unilatersal lifting of the embargo.	157397943	1476227383872	1476227386513	g	78
307945	3312671	Washington was not moving toward a unilateral lifting of the embargo.	Washington was not moving toward a unilatersal lifting of the embargo.	157397882	1476227384079	1476227384114	 	32
307945	3312671	Washington was not moving toward a unilateral lifting of the embargo.	Washington was not moving toward a unilatersal lifting of the embargo.	157397883	1476227384380	1476227384466	t	84
307945	3312671	Washington was not moving toward a unilateral lifting of the embargo.	Washington was not moving toward a unilatersal lifting of the embargo.	157397884	1476227384467	1476227384544	o	79
307945	3312671	Washington was not moving toward a unilateral lifting of the embargo.	Washington was not moving toward a unilatersal lifting of the embargo.	157397885	1476227384583	1476227384786	w	87
307945	3312671	Washington was not moving toward a unilateral lifting of the embargo.	Washington was not moving toward a unilatersal lifting of the embargo.	157397886	1476227385091	1476227385294	a	65
307945	3312671	Washington was not moving toward a unilateral lifting of the embargo.	Washington was not moving toward a unilatersal lifting of the embargo.	157397910	1476227385295	1476227385497	r	82
307945	3312671	Washington was not moving toward a unilateral lifting of the embargo.	Washington was not moving toward a unilatersal lifting of the embargo.	157397911	1476227385497	1476227385644	d	68
307945	3312671	Washington was not moving toward a unilateral lifting of the embargo.	Washington was not moving toward a unilatersal lifting of the embargo.	157397912	1476227385604	1476227385700	 	32
307945	3312671	Washington was not moving toward a unilateral lifting of the embargo.	Washington was not moving toward a unilatersal lifting of the embargo.	157397913	1476227385802	1476227385846	a	65
307945	3312671	Washington was not moving toward a unilateral lifting of the embargo.	Washington was not moving toward a unilatersal lifting of the embargo.	157397914	1476227385877	1476227386007	 	32
307945	3312671	Washington was not moving toward a unilateral lifting of the embargo.	Washington was not moving toward a unilatersal lifting of the embargo.	157397942	1476227386107	1476227386141	u	85
307945	3312671	Washington was not moving toward a unilateral lifting of the embargo.	Washington was not moving toward a unilatersal lifting of the embargo.	157398107	1476227386309	1476227390168	n	78
307945	3312671	Washington was not moving toward a unilateral lifting of the embargo.	Washington was not moving toward a unilatersal lifting of the embargo.	157397945	1476227386618	1476227386715	i	73
307945	3312671	Washington was not moving toward a unilateral lifting of the embargo.	Washington was not moving toward a unilatersal lifting of the embargo.	157397949	1476227386919	1476227386954	l	76
307945	3312671	Washington was not moving toward a unilateral lifting of the embargo.	Washington was not moving toward a unilatersal lifting of the embargo.	157397952	1476227387186	1476227387325	a	65
307945	3312671	Washington was not moving toward a unilateral lifting of the embargo.	Washington was not moving toward a unilatersal lifting of the embargo.	157397967	1476227387426	1476227387503	t	84
307945	3312671	Washington was not moving toward a unilateral lifting of the embargo.	Washington was not moving toward a unilatersal lifting of the embargo.	157397971	1476227387467	1476227387672	e	69
307945	3312671	Washington was not moving toward a unilateral lifting of the embargo.	Washington was not moving toward a unilatersal lifting of the embargo.	157397974	1476227387629	1476227387731	r	82
307945	3312671	Washington was not moving toward a unilateral lifting of the embargo.	Washington was not moving toward a unilatersal lifting of the embargo.	157397979	1476227387832	1476227387883	a	83
307945	3312671	Washington was not moving toward a unilateral lifting of the embargo.	Washington was not moving toward a unilatersal lifting of the embargo.	157398019	1476227388036	1476227388077	l	76
307945	3312671	Washington was not moving toward a unilateral lifting of the embargo.	Washington was not moving toward a unilatersal lifting of the embargo.	157398021	1476227388138	1476227388239	 	32
307945	3312671	Washington was not moving toward a unilateral lifting of the embargo.	Washington was not moving toward a unilatersal lifting of the embargo.	157398024	1476227388341	1476227388403	l	76
307945	3312671	Washington was not moving toward a unilateral lifting of the embargo.	Washington was not moving toward a unilatersal lifting of the embargo.	157398027	1476227388543	1476227388607	i	73
307945	3312671	Washington was not moving toward a unilateral lifting of the embargo.	Washington was not moving toward a unilatersal lifting of the embargo.	157398032	1476227388607	1476227388692	f	70
307945	3312671	Washington was not moving toward a unilateral lifting of the embargo.	Washington was not moving toward a unilatersal lifting of the embargo.	157398099	1476227388848	1476227389051	t	84
307945	3312671	Washington was not moving toward a unilateral lifting of the embargo.	Washington was not moving toward a unilatersal lifting of the embargo.	157398101	1476227389051	1476227389121	e	69
307945	3312671	Washington was not moving toward a unilateral lifting of the embargo.	Washington was not moving toward a unilatersal lifting of the embargo.	157398103	1476227389559	1476227389621	BKSP	8
307945	3312671	Washington was not moving toward a unilateral lifting of the embargo.	Washington was not moving toward a unilatersal lifting of the embargo.	157398105	1476227389965	1476227389966	i	73
307945	3312671	Washington was not moving toward a unilateral lifting of the embargo.	Washington was not moving toward a unilatersal lifting of the embargo.	157398123	1476227390067	1476227390170	g	71
307945	3312671	Washington was not moving toward a unilateral lifting of the embargo.	Washington was not moving toward a unilatersal lifting of the embargo.	157398125	1476227390270	1476227390307	 	32
307945	3312671	Washington was not moving toward a unilateral lifting of the embargo.	Washington was not moving toward a unilatersal lifting of the embargo.	157398128	1476227390371	1476227390473	o	79
307945	3312671	Washington was not moving toward a unilateral lifting of the embargo.	Washington was not moving toward a unilatersal lifting of the embargo.	157398132	1476227390473	1476227390581	f	70
307945	3312671	Washington was not moving toward a unilateral lifting of the embargo.	Washington was not moving toward a unilatersal lifting of the embargo.	157398137	1476227390582	1476227390676	 	32
307945	3312671	Washington was not moving toward a unilateral lifting of the embargo.	Washington was not moving toward a unilatersal lifting of the embargo.	157398139	1476227390676	1476227390880	t	84
307945	3312671	Washington was not moving toward a unilateral lifting of the embargo.	Washington was not moving toward a unilatersal lifting of the embargo.	157398208	1476227390879	1476227390915	h	72
307945	3312671	Washington was not moving toward a unilateral lifting of the embargo.	Washington was not moving toward a unilatersal lifting of the embargo.	157398211	1476227391387	1476227391432	e	69
307945	3312671	Washington was not moving toward a unilateral lifting of the embargo.	Washington was not moving toward a unilatersal lifting of the embargo.	157398216	1476227391433	1476227391504	 	32
307945	3312671	Washington was not moving toward a unilateral lifting of the embargo.	Washington was not moving toward a unilatersal lifting of the embargo.	157398219	1476227391895	1476227391996	e	69
307945	3312671	Washington was not moving toward a unilateral lifting of the embargo.	Washington was not moving toward a unilatersal lifting of the embargo.	157398223	1476227393215	1476227393256	m	77
307945	3312671	Washington was not moving toward a unilateral lifting of the embargo.	Washington was not moving toward a unilatersal lifting of the embargo.	157398227	1476227393418	1476227393621	b	66
307945	3312671	Washington was not moving toward a unilateral lifting of the embargo.	Washington was not moving toward a unilatersal lifting of the embargo.	157398248	1476227393623	1476227393662	a	65
307945	3312671	Washington was not moving toward a unilateral lifting of the embargo.	Washington was not moving toward a unilatersal lifting of the embargo.	157398249	1476227393828	1476227393926	r	82
307945	3312671	Washington was not moving toward a unilateral lifting of the embargo.	Washington was not moving toward a unilatersal lifting of the embargo.	157398250	1476227394129	1476227394129	g	71
307945	3312671	Washington was not moving toward a unilateral lifting of the embargo.	Washington was not moving toward a unilatersal lifting of the embargo.	157398251	1476227394230	1476227394332	o	79
307945	3312671	Washington was not moving toward a unilateral lifting of the embargo.	Washington was not moving toward a unilatersal lifting of the embargo.	157398252	1476227394535	1476227394586	.	190
307945	3312671	Washington was not moving toward a unilateral lifting of the embargo.	Washington was not moving toward a unilatersal lifting of the embargo.	157398278	1476227394738	1476227394817	'	222
307945	3312671	Washington was not moving toward a unilateral lifting of the embargo.	Washington was not moving toward a unilatersal lifting of the embargo.	157398281	1476227395348	1476227395351	BKSP	8
307945	3312687	Let me know either way.	Let me Know either way.	157398392	1476227397480	1476227397624	SHIFT	16
307945	3312687	Let me know either way.	Let me Know either way.	157398395	1476227397581	1476227397654	L	76
307945	3312687	Let me know either way.	Let me Know either way.	157398397	1476227397784	1476227397873	e	69
307945	3312687	Let me know either way.	Let me Know either way.	157398399	1476227398089	1476227398158	t	84
307945	3312687	Let me know either way.	Let me Know either way.	157398401	1476227398122	1476227398292	 	32
307945	3312687	Let me know either way.	Let me Know either way.	157398405	1476227398393	1476227398486	m	77
307945	3312687	Let me know either way.	Let me Know either way.	157398448	1476227398488	1476227398566	e	69
307945	3312687	Let me know either way.	Let me Know either way.	157398449	1476227398596	1476227398698	 	32
307945	3312687	Let me know either way.	Let me Know either way.	157398450	1476227398901	1476227399558	SHIFT	16
307945	3312687	Let me know either way.	Let me Know either way.	157398451	1476227399513	1476227399558	K	75
307945	3312687	Let me know either way.	Let me Know either way.	157398453	1476227400019	1476227400120	o	79
307945	3312687	Let me know either way.	Let me Know either way.	157398470	1476227400221	1476227400309	w	87
307945	3312687	Let me know either way.	Let me Know either way.	157398473	1476227400526	1476227400729	 	32
307945	3312687	Let me know either way.	Let me Know either way.	157398478	1476227400830	1476227400900	e	69
307945	3312687	Let me know either way.	Let me Know either way.	157398480	1476227401034	1476227401137	i	73
307945	3312687	Let me know either way.	Let me Know either way.	157398481	1476227401138	1476227401214	t	84
307945	3312687	Let me know either way.	Let me Know either way.	157398499	1476227401338	1476227401340	e	72
307945	3312687	Let me know either way.	Let me Know either way.	157398501	1476227401445	1476227401524	r	82
307945	3312687	Let me know either way.	Let me Know either way.	157398505	1476227401644	1476227401679	 	32
307945	3312687	Let me know either way.	Let me Know either way.	157398510	1476227401846	1476227402049	w	87
307945	3312687	Let me know either way.	Let me Know either way.	157398569	1476227402051	1476227402151	a	65
307945	3312687	Let me know either way.	Let me Know either way.	157398571	1476227402211	1476227402212	s	83
307945	3312687	Let me know either way.	Let me Know either way.	157398576	1476227402252	1476227402304	y	89
307945	3312687	Let me know either way.	Let me Know either way.	157398581	1476227403166	1476227403168	BKSP	8
307945	3312687	Let me know either way.	Let me Know either way.	157398587	1476227403208	1476227403369	BKSP	8
307945	3312687	Let me know either way.	Let me Know either way.	157398594	1476227403572	1476227403615	y	89
307945	3312687	Let me know either way.	Let me Know either way.	157398600	1476227404082	1476227404146	.	190
307945	3312693	I've sort of lost track of what all I've received.	I've sort of lost track of what all I've received.	157398745	1476227406010	1476227406203	SHIFT	16
307945	3312693	I've sort of lost track of what all I've received.	I've sort of lost track of what all I've received.	157398747	1476227406111	1476227406203	I	73
307945	3312693	I've sort of lost track of what all I've received.	I've sort of lost track of what all I've received.	157398748	1476227407025	1476227407093	;	186
307945	3312693	I've sort of lost track of what all I've received.	I've sort of lost track of what all I've received.	157398749	1476227407634	1476227407736	BKSP	8
307945	3312693	I've sort of lost track of what all I've received.	I've sort of lost track of what all I've received.	157398750	1476227407950	1476227407999	'	222
307945	3312693	I've sort of lost track of what all I've received.	I've sort of lost track of what all I've received.	157398751	1476227408650	1476227408853	v	86
307945	3312693	I've sort of lost track of what all I've received.	I've sort of lost track of what all I've received.	157398752	1476227408954	1476227408997	e	69
307945	3312693	I've sort of lost track of what all I've received.	I've sort of lost track of what all I've received.	157398775	1476227409162	1476227409199	 	32
307945	3312693	I've sort of lost track of what all I've received.	I've sort of lost track of what all I've received.	157398778	1476227409361	1476227409564	s	83
307945	3312693	I've sort of lost track of what all I've received.	I've sort of lost track of what all I've received.	157398781	1476227409564	1476227409665	o	79
307945	3312693	I've sort of lost track of what all I've received.	I've sort of lost track of what all I've received.	157398784	1476227409665	1476227409766	r	82
307945	3312693	I've sort of lost track of what all I've received.	I've sort of lost track of what all I've received.	157398788	1476227409869	1476227409970	t	84
307945	3312693	I've sort of lost track of what all I've received.	I've sort of lost track of what all I've received.	157398834	1476227409940	1476227410071	 	32
307945	3312693	I've sort of lost track of what all I've received.	I've sort of lost track of what all I've received.	157398835	1476227410173	1476227410275	o	79
307945	3312693	I've sort of lost track of what all I've received.	I've sort of lost track of what all I've received.	157398838	1476227410376	1476227410478	f	70
307945	3312693	I've sort of lost track of what all I've received.	I've sort of lost track of what all I've received.	157398842	1476227410579	1476227410681	 	32
307945	3312693	I've sort of lost track of what all I've received.	I've sort of lost track of what all I've received.	157398846	1476227410985	1476227411024	l	76
307945	3312693	I've sort of lost track of what all I've received.	I've sort of lost track of what all I've received.	157398851	1476227411290	1476227411368	o	79
307945	3312693	I've sort of lost track of what all I've received.	I've sort of lost track of what all I've received.	157398869	1476227411391	1476227411596	s	83
307945	3312693	I've sort of lost track of what all I've received.	I've sort of lost track of what all I've received.	157398872	1476227411595	1476227411704	t	84
307945	3312693	I've sort of lost track of what all I've received.	I've sort of lost track of what all I've received.	157398873	1476227411665	1476227411798	 	32
307945	3312693	I've sort of lost track of what all I've received.	I've sort of lost track of what all I've received.	157398874	1476227412001	1476227412204	l	76
307945	3312693	I've sort of lost track of what all I've received.	I've sort of lost track of what all I've received.	157398875	1476227412204	1476227412272	t	84
307945	3312693	I've sort of lost track of what all I've received.	I've sort of lost track of what all I've received.	157398954	1476227412508	1476227412511	BKSP	8
307945	3312693	I've sort of lost track of what all I've received.	I've sort of lost track of what all I've received.	157398958	1476227412711	1476227412756	BKSP	8
307945	3312693	I've sort of lost track of what all I've received.	I've sort of lost track of what all I've received.	157398962	1476227412915	1476227412917	BKSP	8
307945	3312693	I've sort of lost track of what all I've received.	I've sort of lost track of what all I've received.	157398964	1476227412958	1476227413119	t	84
307945	3312693	I've sort of lost track of what all I've received.	I've sort of lost track of what all I've received.	157398966	1476227413422	1476227413524	BKSP	8
307945	3312693	I've sort of lost track of what all I've received.	I've sort of lost track of what all I've received.	157398970	1476227413625	1476227413727	 	32
307945	3312693	I've sort of lost track of what all I've received.	I've sort of lost track of what all I've received.	157398973	1476227413828	1476227413829	t	84
307945	3312693	I've sort of lost track of what all I've received.	I've sort of lost track of what all I've received.	157398975	1476227413930	1476227414016	t	84
307945	3312693	I've sort of lost track of what all I've received.	I've sort of lost track of what all I've received.	157398977	1476227414438	1476227414472	BKSP	8
307945	3312693	I've sort of lost track of what all I've received.	I've sort of lost track of what all I've received.	157398979	1476227414641	1476227414712	r	82
307945	3312693	I've sort of lost track of what all I've received.	I've sort of lost track of what all I've received.	157399008	1476227415148	1476227415227	e	69
307945	3312693	I've sort of lost track of what all I've received.	I've sort of lost track of what all I've received.	157399011	1476227415351	1476227415391	a	65
307945	3312693	I've sort of lost track of what all I've received.	I've sort of lost track of what all I've received.	157399014	1476227415758	1476227415760	BKSP	8
307945	3312693	I've sort of lost track of what all I've received.	I've sort of lost track of what all I've received.	157399016	1476227415797	1476227415859	BKSP	8
307945	3312693	I've sort of lost track of what all I've received.	I've sort of lost track of what all I've received.	157399018	1476227415961	1476227416033	a	65
307945	3312693	I've sort of lost track of what all I've received.	I've sort of lost track of what all I've received.	157399021	1476227416063	1476227416265	c	67
307945	3312693	I've sort of lost track of what all I've received.	I've sort of lost track of what all I've received.	157399023	1476227416469	1476227416546	k	75
307945	3312693	I've sort of lost track of what all I've received.	I've sort of lost track of what all I've received.	157399041	1476227416672	1476227416717	 	32
307945	3312693	I've sort of lost track of what all I've received.	I've sort of lost track of what all I've received.	157399042	1476227416718	1476227416813	o	79
307945	3312693	I've sort of lost track of what all I've received.	I've sort of lost track of what all I've received.	157399043	1476227416875	1476227416922	 	70
307945	3312693	I've sort of lost track of what all I've received.	I've sort of lost track of what all I've received.	157399044	1476227417382	1476227417586	w	87
307945	3312693	I've sort of lost track of what all I've received.	I've sort of lost track of what all I've received.	157399076	1476227417588	1476227417590	h	72
307945	3312693	I've sort of lost track of what all I've received.	I've sort of lost track of what all I've received.	157399078	1476227417654	1476227417780	a	65
307945	3312693	I've sort of lost track of what all I've received.	I've sort of lost track of what all I've received.	157399080	1476227417734	1476227417900	t	84
307945	3312693	I've sort of lost track of what all I've received.	I've sort of lost track of what all I've received.	157399083	1476227418195	1476227418231	 	32
307945	3312693	I've sort of lost track of what all I've received.	I've sort of lost track of what all I've received.	157399085	1476227418398	1476227418436	a	65
307945	3312693	I've sort of lost track of what all I've received.	I've sort of lost track of what all I've received.	157399113	1476227418468	1476227418543	l	76
307945	3312693	I've sort of lost track of what all I've received.	I've sort of lost track of what all I've received.	157399115	1476227418702	1476227418703	l	76
307945	3312693	I've sort of lost track of what all I've received.	I've sort of lost track of what all I've received.	157399117	1476227418746	1476227418804	 	32
307945	3312693	I've sort of lost track of what all I've received.	I've sort of lost track of what all I've received.	157399118	1476227418905	1476227419012	i	73
307945	3312693	I've sort of lost track of what all I've received.	I've sort of lost track of what all I've received.	157399122	1476227419312	1476227419355	BKSP	8
307945	3312693	I've sort of lost track of what all I've received.	I've sort of lost track of what all I've received.	157399125	1476227419413	1476227419617	SHIFT	16
307945	3312693	I've sort of lost track of what all I've received.	I've sort of lost track of what all I've received.	157399192	1476227419616	1476227419620	L	76
307945	3312693	I've sort of lost track of what all I've received.	I've sort of lost track of what all I've received.	157399193	1476227420226	1476227420260	BKSP	8
307945	3312693	I've sort of lost track of what all I've received.	I've sort of lost track of what all I've received.	157399195	1476227420530	1476227420572	I	16
307945	3312693	I've sort of lost track of what all I've received.	I've sort of lost track of what all I've received.	157399197	1476227421139	1476227421140	'	222
307945	3312693	I've sort of lost track of what all I've received.	I've sort of lost track of what all I've received.	157399199	1476227421648	1476227421694	v	86
307945	3312693	I've sort of lost track of what all I've received.	I've sort of lost track of what all I've received.	157399201	1476227421725	1476227421812	e	69
307945	3312693	I've sort of lost track of what all I've received.	I've sort of lost track of what all I've received.	157399203	1476227422054	1476227422155	 	32
307945	3312693	I've sort of lost track of what all I've received.	I've sort of lost track of what all I've received.	157399230	1476227422663	1476227422709	t	82
307945	3312693	I've sort of lost track of what all I've received.	I've sort of lost track of what all I've received.	157399232	1476227422709	1476227422967	e	69
307945	3312693	I've sort of lost track of what all I've received.	I've sort of lost track of what all I've received.	157399234	1476227423171	1476227423173	BKSP	8
307945	3312693	I've sort of lost track of what all I've received.	I've sort of lost track of what all I've received.	157399236	1476227423272	1476227423318	BKSP	8
307945	3312693	I've sort of lost track of what all I've received.	I've sort of lost track of what all I've received.	157399239	1476227423577	1476227423780	e	69
307945	3312693	I've sort of lost track of what all I've received.	I've sort of lost track of what all I've received.	157399243	1476227423881	1476227423983	v	86
307945	3312693	I've sort of lost track of what all I've received.	I've sort of lost track of what all I've received.	157399345	1476227424084	1476227424172	i	73
307945	3312693	I've sort of lost track of what all I've received.	I've sort of lost track of what all I've received.	157399348	1476227424592	1476227424602	BKSP	8
307945	3312693	I've sort of lost track of what all I've received.	I've sort of lost track of what all I've received.	157399351	1476227424694	1476227424737	BKSP	8
307945	3312693	I've sort of lost track of what all I've received.	I've sort of lost track of what all I've received.	157399354	1476227424738	1476227424897	c	67
307945	3312693	I've sort of lost track of what all I've received.	I've sort of lost track of what all I've received.	157399356	1476227425202	1476227425268	e	69
307945	3312693	I've sort of lost track of what all I've received.	I've sort of lost track of what all I've received.	157399358	1476227425405	1476227425440	i	73
307945	3312693	I've sort of lost track of what all I've received.	I've sort of lost track of what all I've received.	157399362	1476227426115	1476227426163	v	86
307945	3312693	I've sort of lost track of what all I've received.	I've sort of lost track of what all I've received.	157399399	1476227426188	1476227426217	e	69
307945	3312693	I've sort of lost track of what all I've received.	I've sort of lost track of what all I've received.	157399403	1476227426420	1476227426421	d	68
307945	3312693	I've sort of lost track of what all I've received.	I've sort of lost track of what all I've received.	157399406	1476227427131	1476227427132	.	190
307945	3312714	Need you or John to step out.	Need you or John to step out.	157399548	1476227429162	1476227429366	SHIFT	16
307945	3312714	Need you or John to step out.	Need you or John to step out.	157399782	1476227429365	1476227433201	N	78
307945	3312714	Need you or John to step out.	Need you or John to step out.	157399559	1476227429434	1476227429512	e	69
307945	3312714	Need you or John to step out.	Need you or John to step out.	157399566	1476227429670	1476227429671	e	69
307945	3312714	Need you or John to step out.	Need you or John to step out.	157399571	1476227429771	1476227429851	d	68
307945	3312714	Need you or John to step out.	Need you or John to step out.	157399572	1476227430075	1476227430119	 	32
307945	3312714	Need you or John to step out.	Need you or John to step out.	157399627	1476227430380	1476227430381	y	89
307945	3312714	Need you or John to step out.	Need you or John to step out.	157399629	1476227430452	1476227430584	o	79
307945	3312714	Need you or John to step out.	Need you or John to step out.	157399630	1476227430583	1476227430685	u	85
307945	3312714	Need you or John to step out.	Need you or John to step out.	157399631	1476227430888	1476227430989	 	32
307945	3312714	Need you or John to step out.	Need you or John to step out.	157399632	1476227431193	1476227431194	o	79
307945	3312714	Need you or John to step out.	Need you or John to step out.	157399730	1476227431294	1476227431497	r	82
307945	3312714	Need you or John to step out.	Need you or John to step out.	157399733	1476227431497	1476227431539	 	32
307945	3312714	Need you or John to step out.	Need you or John to step out.	157399736	1476227431802	1476227431983	SHIFT	16
307945	3312714	Need you or John to step out.	Need you or John to step out.	157399741	1476227431904	1476227431983	J	74
307945	3312714	Need you or John to step out.	Need you or John to step out.	157399745	1476227432106	1476227432310	o	79
307945	3312714	Need you or John to step out.	Need you or John to step out.	157399747	1476227432919	1476227432989	h	72
307945	3312714	Need you or John to step out.	Need you or John to step out.	157399785	1476227433223	1476227433427	 	32
307945	3312714	Need you or John to step out.	Need you or John to step out.	157399788	1476227433427	1476227433569	t	84
307945	3312714	Need you or John to step out.	Need you or John to step out.	157399792	1476227433528	1476227433570	o	79
307945	3312714	Need you or John to step out.	Need you or John to step out.	157399793	1476227433597	1476227433731	 	32
307945	3312714	Need you or John to step out.	Need you or John to step out.	157399883	1476227433934	1476227434139	s	83
307945	3312714	Need you or John to step out.	Need you or John to step out.	157399886	1476227434138	1476227434239	t	84
307945	3312714	Need you or John to step out.	Need you or John to step out.	157399890	1476227434442	1476227434645	r	82
307945	3312714	Need you or John to step out.	Need you or John to step out.	157399895	1476227435153	1476227435190	BKSP	8
307945	3312714	Need you or John to step out.	Need you or John to step out.	157399901	1476227435255	1476227435330	e	69
307945	3312714	Need you or John to step out.	Need you or John to step out.	157399978	1476227435661	1476227435704	[	80
307945	3312714	Need you or John to step out.	Need you or John to step out.	157399980	1476227436371	1476227436405	BKSP	8
307945	3312714	Need you or John to step out.	Need you or John to step out.	157399981	1476227436574	1476227436576	 	32
307945	3312714	Need you or John to step out.	Need you or John to step out.	157399982	1476227436676	1476227436748	o	79
307945	3312714	Need you or John to step out.	Need you or John to step out.	157399983	1476227436879	1476227436920	u	85
307945	3312714	Need you or John to step out.	Need you or John to step out.	157399984	1476227437082	1476227437123	t	84
307945	3312714	Need you or John to step out.	Need you or John to step out.	157399985	1476227437692	1476227437763	.	190
307945	3312725	1.5 million visitors will flood Atlanta each day of the Olympics.	1.5 million visitors will flood Atlanta each day of the Olympics.	157400243	1476227440433	1476227440524	1	97
307945	3312725	1.5 million visitors will flood Atlanta each day of the Olympics.	1.5 million visitors will flood Atlanta each day of the Olympics.	157400247	1476227440738	1476227440739	.	110
307945	3312725	1.5 million visitors will flood Atlanta each day of the Olympics.	1.5 million visitors will flood Atlanta each day of the Olympics.	157400250	1476227441144	1476227441146	5	101
307945	3312725	1.5 million visitors will flood Atlanta each day of the Olympics.	1.5 million visitors will flood Atlanta each day of the Olympics.	157400253	1476227441550	1476227441607	 	32
307945	3312725	1.5 million visitors will flood Atlanta each day of the Olympics.	1.5 million visitors will flood Atlanta each day of the Olympics.	157400256	1476227442160	1476227442162	m	77
307945	3312725	1.5 million visitors will flood Atlanta each day of the Olympics.	1.5 million visitors will flood Atlanta each day of the Olympics.	157400291	1476227442231	1476227442288	i	73
307945	3312725	1.5 million visitors will flood Atlanta each day of the Olympics.	1.5 million visitors will flood Atlanta each day of the Olympics.	157400295	1476227442464	1476227442465	l	76
307945	3312725	1.5 million visitors will flood Atlanta each day of the Olympics.	1.5 million visitors will flood Atlanta each day of the Olympics.	157400299	1476227442566	1476227442567	l	76
307945	3312725	1.5 million visitors will flood Atlanta each day of the Olympics.	1.5 million visitors will flood Atlanta each day of the Olympics.	157400302	1476227442667	1476227442740	i	73
307945	3312725	1.5 million visitors will flood Atlanta each day of the Olympics.	1.5 million visitors will flood Atlanta each day of the Olympics.	157400307	1476227442973	1476227442973	o	79
307945	3312725	1.5 million visitors will flood Atlanta each day of the Olympics.	1.5 million visitors will flood Atlanta each day of the Olympics.	157400998	1476227443584	1476227454212	n	78
307945	3312725	1.5 million visitors will flood Atlanta each day of the Olympics.	1.5 million visitors will flood Atlanta each day of the Olympics.	157400402	1476227443785	1476227443846	 	32
307945	3312725	1.5 million visitors will flood Atlanta each day of the Olympics.	1.5 million visitors will flood Atlanta each day of the Olympics.	157400405	1476227444800	1476227444845	v	86
307945	3312725	1.5 million visitors will flood Atlanta each day of the Olympics.	1.5 million visitors will flood Atlanta each day of the Olympics.	157400406	1476227444876	1476227444927	i	73
307945	3312725	1.5 million visitors will flood Atlanta each day of the Olympics.	1.5 million visitors will flood Atlanta each day of the Olympics.	157400409	1476227444955	1476227445081	s	83
307945	3312725	1.5 million visitors will flood Atlanta each day of the Olympics.	1.5 million visitors will flood Atlanta each day of the Olympics.	157400472	1476227445206	1476227445251	t	84
307945	3312725	1.5 million visitors will flood Atlanta each day of the Olympics.	1.5 million visitors will flood Atlanta each day of the Olympics.	157400474	1476227445252	1476227445409	o	79
307945	3312725	1.5 million visitors will flood Atlanta each day of the Olympics.	1.5 million visitors will flood Atlanta each day of the Olympics.	157400476	1476227445714	1476227445750	BKSP	8
307945	3312725	1.5 million visitors will flood Atlanta each day of the Olympics.	1.5 million visitors will flood Atlanta each day of the Olympics.	157400478	1476227445917	1476227445919	BKSP	8
307945	3312725	1.5 million visitors will flood Atlanta each day of the Olympics.	1.5 million visitors will flood Atlanta each day of the Olympics.	157400481	1476227446120	1476227446121	i	73
307945	3312725	1.5 million visitors will flood Atlanta each day of the Olympics.	1.5 million visitors will flood Atlanta each day of the Olympics.	157400485	1476227446323	1476227446358	t	84
307945	3312725	1.5 million visitors will flood Atlanta each day of the Olympics.	1.5 million visitors will flood Atlanta each day of the Olympics.	157400489	1476227446526	1476227446561	o	79
307945	3312725	1.5 million visitors will flood Atlanta each day of the Olympics.	1.5 million visitors will flood Atlanta each day of the Olympics.	157400556	1476227446630	1476227446831	r	82
307945	3312725	1.5 million visitors will flood Atlanta each day of the Olympics.	1.5 million visitors will flood Atlanta each day of the Olympics.	157400559	1476227447440	1476227447542	s	83
307945	3312725	1.5 million visitors will flood Atlanta each day of the Olympics.	1.5 million visitors will flood Atlanta each day of the Olympics.	157400563	1476227447513	1476227447643	 	32
307945	3312725	1.5 million visitors will flood Atlanta each day of the Olympics.	1.5 million visitors will flood Atlanta each day of the Olympics.	157400568	1476227447846	1476227447888	w	87
307945	3312725	1.5 million visitors will flood Atlanta each day of the Olympics.	1.5 million visitors will flood Atlanta each day of the Olympics.	157400573	1476227447921	1476227448011	i	73
307945	3312725	1.5 million visitors will flood Atlanta each day of the Olympics.	1.5 million visitors will flood Atlanta each day of the Olympics.	157400613	1476227448560	1476227448562	l	76
307945	3312725	1.5 million visitors will flood Atlanta each day of the Olympics.	1.5 million visitors will flood Atlanta each day of the Olympics.	157400617	1476227448643	1476227448682	l	76
307945	3312725	1.5 million visitors will flood Atlanta each day of the Olympics.	1.5 million visitors will flood Atlanta each day of the Olympics.	157400621	1476227448713	1476227448794	 	32
307945	3312725	1.5 million visitors will flood Atlanta each day of the Olympics.	1.5 million visitors will flood Atlanta each day of the Olympics.	157400626	1476227448760	1476227448863	f	70
307945	3312725	1.5 million visitors will flood Atlanta each day of the Olympics.	1.5 million visitors will flood Atlanta each day of the Olympics.	157400764	1476227448862	1476227448935	o	79
307945	3312725	1.5 million visitors will flood Atlanta each day of the Olympics.	1.5 million visitors will flood Atlanta each day of the Olympics.	157400766	1476227449572	1476227449575	BKSP	8
307945	3312725	1.5 million visitors will flood Atlanta each day of the Olympics.	1.5 million visitors will flood Atlanta each day of the Olympics.	157400772	1476227449776	1476227449845	l	76
307945	3312725	1.5 million visitors will flood Atlanta each day of the Olympics.	1.5 million visitors will flood Atlanta each day of the Olympics.	157400776	1476227450283	1476227450284	o	79
307945	3312725	1.5 million visitors will flood Atlanta each day of the Olympics.	1.5 million visitors will flood Atlanta each day of the Olympics.	157400780	1476227450385	1476227450430	o	79
307945	3312725	1.5 million visitors will flood Atlanta each day of the Olympics.	1.5 million visitors will flood Atlanta each day of the Olympics.	157400783	1476227450461	1476227450588	d	68
307945	3312725	1.5 million visitors will flood Atlanta each day of the Olympics.	1.5 million visitors will flood Atlanta each day of the Olympics.	157400785	1476227451096	1476227451098	 	32
307945	3312725	1.5 million visitors will flood Atlanta each day of the Olympics.	1.5 million visitors will flood Atlanta each day of the Olympics.	157400849	1476227451502	1476227451539	A	16
307945	3312725	1.5 million visitors will flood Atlanta each day of the Olympics.	1.5 million visitors will flood Atlanta each day of the Olympics.	157400852	1476227452010	1476227452053	r	84
307945	3312725	1.5 million visitors will flood Atlanta each day of the Olympics.	1.5 million visitors will flood Atlanta each day of the Olympics.	157400858	1476227452213	1476227452255	a	76
307945	3312725	1.5 million visitors will flood Atlanta each day of the Olympics.	1.5 million visitors will flood Atlanta each day of the Olympics.	157400967	1476227452619	1476227452692	BKSP	8
307945	3312725	1.5 million visitors will flood Atlanta each day of the Olympics.	1.5 million visitors will flood Atlanta each day of the Olympics.	157400972	1476227452822	1476227452825	BKSP	8
307945	3312725	1.5 million visitors will flood Atlanta each day of the Olympics.	1.5 million visitors will flood Atlanta each day of the Olympics.	157400976	1476227452924	1476227453025	BKSP	8
307945	3312725	1.5 million visitors will flood Atlanta each day of the Olympics.	1.5 million visitors will flood Atlanta each day of the Olympics.	157400981	1476227453228	1476227453431	a	65
307945	3312725	1.5 million visitors will flood Atlanta each day of the Olympics.	1.5 million visitors will flood Atlanta each day of the Olympics.	157400986	1476227453634	1476227453674	BKSP	8
307945	3312725	1.5 million visitors will flood Atlanta each day of the Olympics.	1.5 million visitors will flood Atlanta each day of the Olympics.	157400991	1476227453837	1476227453924	l	76
307945	3312725	1.5 million visitors will flood Atlanta each day of the Olympics.	1.5 million visitors will flood Atlanta each day of the Olympics.	157400994	1476227454040	1476227454081	a	65
307945	3312725	1.5 million visitors will flood Atlanta each day of the Olympics.	1.5 million visitors will flood Atlanta each day of the Olympics.	157401001	1476227454447	1476227454488	t	84
307945	3312725	1.5 million visitors will flood Atlanta each day of the Olympics.	1.5 million visitors will flood Atlanta each day of the Olympics.	157401043	1476227454650	1476227454751	a	65
307945	3312725	1.5 million visitors will flood Atlanta each day of the Olympics.	1.5 million visitors will flood Atlanta each day of the Olympics.	157401045	1476227454853	1476227454954	 	32
307945	3312725	1.5 million visitors will flood Atlanta each day of the Olympics.	1.5 million visitors will flood Atlanta each day of the Olympics.	157401049	1476227455259	1476227455361	e	69
307945	3312725	1.5 million visitors will flood Atlanta each day of the Olympics.	1.5 million visitors will flood Atlanta each day of the Olympics.	157401050	1476227455362	1476227455564	a	65
307945	3312725	1.5 million visitors will flood Atlanta each day of the Olympics.	1.5 million visitors will flood Atlanta each day of the Olympics.	157401053	1476227455564	1476227455665	c	67
307945	3312725	1.5 million visitors will flood Atlanta each day of the Olympics.	1.5 million visitors will flood Atlanta each day of the Olympics.	157401083	1476227455767	1476227455767	h	72
307945	3312725	1.5 million visitors will flood Atlanta each day of the Olympics.	1.5 million visitors will flood Atlanta each day of the Olympics.	157401085	1476227455813	1476227455972	 	32
307945	3312725	1.5 million visitors will flood Atlanta each day of the Olympics.	1.5 million visitors will flood Atlanta each day of the Olympics.	157401088	1476227456071	1476227456110	d	68
307945	3312725	1.5 million visitors will flood Atlanta each day of the Olympics.	1.5 million visitors will flood Atlanta each day of the Olympics.	157401093	1476227456139	1476227456274	a	65
307945	3312725	1.5 million visitors will flood Atlanta each day of the Olympics.	1.5 million visitors will flood Atlanta each day of the Olympics.	157401096	1476227456378	1476227456455	y	89
307945	3312725	1.5 million visitors will flood Atlanta each day of the Olympics.	1.5 million visitors will flood Atlanta each day of the Olympics.	157401138	1476227456457	1476227456579	 	32
307945	3312725	1.5 million visitors will flood Atlanta each day of the Olympics.	1.5 million visitors will flood Atlanta each day of the Olympics.	157401141	1476227456681	1476227456753	o	79
307945	3312725	1.5 million visitors will flood Atlanta each day of the Olympics.	1.5 million visitors will flood Atlanta each day of the Olympics.	157401149	1476227456754	1476227456873	f	70
307945	3312725	1.5 million visitors will flood Atlanta each day of the Olympics.	1.5 million visitors will flood Atlanta each day of the Olympics.	157401156	1476227456837	1476227456985	 	32
307945	3312725	1.5 million visitors will flood Atlanta each day of the Olympics.	1.5 million visitors will flood Atlanta each day of the Olympics.	157401159	1476227456986	1476227457188	t	84
307945	3312725	1.5 million visitors will flood Atlanta each day of the Olympics.	1.5 million visitors will flood Atlanta each day of the Olympics.	157401239	1476227457191	1476227457192	h	72
307945	3312725	1.5 million visitors will flood Atlanta each day of the Olympics.	1.5 million visitors will flood Atlanta each day of the Olympics.	157401241	1476227457192	1476227457290	 	32
307945	3312725	1.5 million visitors will flood Atlanta each day of the Olympics.	1.5 million visitors will flood Atlanta each day of the Olympics.	157401242	1476227457696	1476227457731	BKSP	8
307945	3312725	1.5 million visitors will flood Atlanta each day of the Olympics.	1.5 million visitors will flood Atlanta each day of the Olympics.	157401243	1476227457899	1476227457902	BKSP	8
307945	3312725	1.5 million visitors will flood Atlanta each day of the Olympics.	1.5 million visitors will flood Atlanta each day of the Olympics.	157401245	1476227458001	1476227458044	e	69
307945	3312725	1.5 million visitors will flood Atlanta each day of the Olympics.	1.5 million visitors will flood Atlanta each day of the Olympics.	157401249	1476227458408	1476227458509	BKSP	8
307945	3312725	1.5 million visitors will flood Atlanta each day of the Olympics.	1.5 million visitors will flood Atlanta each day of the Olympics.	157401253	1476227458711	1476227458713	h	72
307945	3312725	1.5 million visitors will flood Atlanta each day of the Olympics.	1.5 million visitors will flood Atlanta each day of the Olympics.	157401257	1476227458789	1476227458824	e	69
307945	3312725	1.5 million visitors will flood Atlanta each day of the Olympics.	1.5 million visitors will flood Atlanta each day of the Olympics.	157401383	1476227458915	1476227458947	 	32
307945	3312725	1.5 million visitors will flood Atlanta each day of the Olympics.	1.5 million visitors will flood Atlanta each day of the Olympics.	157401388	1476227459322	1476227459463	SHIFT	16
307945	3312725	1.5 million visitors will flood Atlanta each day of the Olympics.	1.5 million visitors will flood Atlanta each day of the Olympics.	157401393	1476227459422	1476227459463	O	79
307945	3312725	1.5 million visitors will flood Atlanta each day of the Olympics.	1.5 million visitors will flood Atlanta each day of the Olympics.	157401399	1476227459626	1476227459665	l	76
307945	3312725	1.5 million visitors will flood Atlanta each day of the Olympics.	1.5 million visitors will flood Atlanta each day of the Olympics.	157401407	1476227460337	1476227460431	y	89
307945	3312725	1.5 million visitors will flood Atlanta each day of the Olympics.	1.5 million visitors will flood Atlanta each day of the Olympics.	157401414	1476227460745	1476227460822	m	77
307945	3312725	1.5 million visitors will flood Atlanta each day of the Olympics.	1.5 million visitors will flood Atlanta each day of the Olympics.	157401546	1476227461150	1476227461352	[	219
307945	3312725	1.5 million visitors will flood Atlanta each day of the Olympics.	1.5 million visitors will flood Atlanta each day of the Olympics.	157401549	1476227461758	1476227461802	BKSP	8
307945	3312725	1.5 million visitors will flood Atlanta each day of the Olympics.	1.5 million visitors will flood Atlanta each day of the Olympics.	157401552	1476227462571	1476227462650	p	80
307945	3312725	1.5 million visitors will flood Atlanta each day of the Olympics.	1.5 million visitors will flood Atlanta each day of the Olympics.	157401556	1476227462875	1476227462876	i	73
307945	3312725	1.5 million visitors will flood Atlanta each day of the Olympics.	1.5 million visitors will flood Atlanta each day of the Olympics.	157401559	1476227462927	1476227463078	c	67
307945	3312725	1.5 million visitors will flood Atlanta each day of the Olympics.	1.5 million visitors will flood Atlanta each day of the Olympics.	157401563	1476227463078	1476227463281	s	83
307945	3312725	1.5 million visitors will flood Atlanta each day of the Olympics.	1.5 million visitors will flood Atlanta each day of the Olympics.	157401578	1476227463383	1476227463384	.	190
307945	3312763	Bob, I'll pick San Diego as my winner.	Bob, I'll pick San Diego as my winner.	157401914	1476227464601	1476227464647	j	74
307945	3312763	Bob, I'll pick San Diego as my winner.	Bob, I'll pick San Diego as my winner.	157401916	1476227465118	1476227465122	BKSP	8
307945	3312763	Bob, I'll pick San Diego as my winner.	Bob, I'll pick San Diego as my winner.	157401921	1476227465718	1476227465820	SHIFT	16
307945	3312763	Bob, I'll pick San Diego as my winner.	Bob, I'll pick San Diego as my winner.	157401928	1476227466226	1476227466227	BKSP	8
307945	3312763	Bob, I'll pick San Diego as my winner.	Bob, I'll pick San Diego as my winner.	157401934	1476227466433	1476227466532	SHIFT	16
307945	3312763	Bob, I'll pick San Diego as my winner.	Bob, I'll pick San Diego as my winner.	157401939	1476227466531	1476227466532	B	66
307945	3312763	Bob, I'll pick San Diego as my winner.	Bob, I'll pick San Diego as my winner.	157401944	1476227467241	1476227467278	o	79
307945	3312763	Bob, I'll pick San Diego as my winner.	Bob, I'll pick San Diego as my winner.	157401949	1476227467327	1476227467406	b	66
307945	3312763	Bob, I'll pick San Diego as my winner.	Bob, I'll pick San Diego as my winner.	157401951	1476227468460	1476227468531	,	188
307945	3312763	Bob, I'll pick San Diego as my winner.	Bob, I'll pick San Diego as my winner.	157402068	1476227468663	1476227468699	 	32
307945	3312763	Bob, I'll pick San Diego as my winner.	Bob, I'll pick San Diego as my winner.	157402075	1476227468765	1476227469073	SHIFT	16
307945	3312763	Bob, I'll pick San Diego as my winner.	Bob, I'll pick San Diego as my winner.	157402080	1476227469072	1476227469074	I	73
307945	3312763	Bob, I'll pick San Diego as my winner.	Bob, I'll pick San Diego as my winner.	157402086	1476227469681	1476227469682	'	222
307945	3312763	Bob, I'll pick San Diego as my winner.	Bob, I'll pick San Diego as my winner.	157402093	1476227470085	1476227470085	l	76
307945	3312763	Bob, I'll pick San Diego as my winner.	Bob, I'll pick San Diego as my winner.	157402096	1476227470186	1476227470228	l	76
307945	3312763	Bob, I'll pick San Diego as my winner.	Bob, I'll pick San Diego as my winner.	157402179	1476227470389	1476227470391	 	32
307945	3312763	Bob, I'll pick San Diego as my winner.	Bob, I'll pick San Diego as my winner.	157402181	1476227470592	1476227470635	p	80
307945	3312763	Bob, I'll pick San Diego as my winner.	Bob, I'll pick San Diego as my winner.	157402183	1476227470999	1476227471000	i	73
307945	3312763	Bob, I'll pick San Diego as my winner.	Bob, I'll pick San Diego as my winner.	157402185	1476227471201	1476227471242	c	67
307945	3312763	Bob, I'll pick San Diego as my winner.	Bob, I'll pick San Diego as my winner.	157402190	1476227471405	1476227471608	 	32
307945	3312763	Bob, I'll pick San Diego as my winner.	Bob, I'll pick San Diego as my winner.	157402258	1476227471912	1476227471963	BKSP	8
307945	3312763	Bob, I'll pick San Diego as my winner.	Bob, I'll pick San Diego as my winner.	157402260	1476227472425	1476227472489	k	75
307945	3312763	Bob, I'll pick San Diego as my winner.	Bob, I'll pick San Diego as my winner.	157402262	1476227472623	1476227472660	 	32
307945	3312763	Bob, I'll pick San Diego as my winner.	Bob, I'll pick San Diego as my winner.	157402266	1476227472826	1476227472905	S	16
307945	3312763	Bob, I'll pick San Diego as my winner.	Bob, I'll pick San Diego as my winner.	157402270	1476227473029	1476227473107	a	65
307945	3312763	Bob, I'll pick San Diego as my winner.	Bob, I'll pick San Diego as my winner.	157402708	1476227473233	1476227479535	n	78
307945	3312763	Bob, I'll pick San Diego as my winner.	Bob, I'll pick San Diego as my winner.	157402337	1476227473436	1476227473473	 	32
307945	3312763	Bob, I'll pick San Diego as my winner.	Bob, I'll pick San Diego as my winner.	157402342	1476227473639	1476227473742	SHIFT	16
307945	3312763	Bob, I'll pick San Diego as my winner.	Bob, I'll pick San Diego as my winner.	157402347	1476227473741	1476227473743	D	68
307945	3312763	Bob, I'll pick San Diego as my winner.	Bob, I'll pick San Diego as my winner.	157402351	1476227474045	1476227474083	e	69
307945	3312763	Bob, I'll pick San Diego as my winner.	Bob, I'll pick San Diego as my winner.	157402355	1476227474146	1476227474248	i	73
307945	3312763	Bob, I'll pick San Diego as my winner.	Bob, I'll pick San Diego as my winner.	157402359	1476227474451	1476227474487	BKSP	8
307945	3312763	Bob, I'll pick San Diego as my winner.	Bob, I'll pick San Diego as my winner.	157402365	1476227474654	1476227474657	BKSP	8
307945	3312763	Bob, I'll pick San Diego as my winner.	Bob, I'll pick San Diego as my winner.	157402368	1476227474858	1476227474859	i	73
307945	3312763	Bob, I'll pick San Diego as my winner.	Bob, I'll pick San Diego as my winner.	157402413	1476227474925	1476227475006	e	69
307945	3312763	Bob, I'll pick San Diego as my winner.	Bob, I'll pick San Diego as my winner.	157402415	1476227475466	1476227475503	g	71
307945	3312763	Bob, I'll pick San Diego as my winner.	Bob, I'll pick San Diego as my winner.	157402422	1476227475546	1476227475670	o	79
307945	3312763	Bob, I'll pick San Diego as my winner.	Bob, I'll pick San Diego as my winner.	157402430	1476227475771	1476227475811	 	32
307945	3312763	Bob, I'll pick San Diego as my winner.	Bob, I'll pick San Diego as my winner.	157402438	1476227475874	1476227475959	w	87
307945	3312763	Bob, I'll pick San Diego as my winner.	Bob, I'll pick San Diego as my winner.	157402513	1476227476281	1476227476326	BKSP	8
307945	3312763	Bob, I'll pick San Diego as my winner.	Bob, I'll pick San Diego as my winner.	157402518	1476227476327	1476227476547	a	65
307945	3312763	Bob, I'll pick San Diego as my winner.	Bob, I'll pick San Diego as my winner.	157402522	1476227476488	1476227476685	s	83
307945	3312763	Bob, I'll pick San Diego as my winner.	Bob, I'll pick San Diego as my winner.	157402527	1476227476787	1476227476890	 	32
307945	3312763	Bob, I'll pick San Diego as my winner.	Bob, I'll pick San Diego as my winner.	157402535	1476227477193	1476227477232	m	77
307945	3312763	Bob, I'll pick San Diego as my winner.	Bob, I'll pick San Diego as my winner.	157402657	1476227477396	1476227477470	y	85
307945	3312763	Bob, I'll pick San Diego as my winner.	Bob, I'll pick San Diego as my winner.	157402665	1476227477599	1476227477636	 	32
307945	3312763	Bob, I'll pick San Diego as my winner.	Bob, I'll pick San Diego as my winner.	157402673	1476227478005	1476227478008	BKSP	8
307945	3312763	Bob, I'll pick San Diego as my winner.	Bob, I'll pick San Diego as my winner.	157402682	1476227478115	1476227478151	BKSP	8
307945	3312763	Bob, I'll pick San Diego as my winner.	Bob, I'll pick San Diego as my winner.	157402687	1476227478208	1476227478315	BKSP	8
307945	3312763	Bob, I'll pick San Diego as my winner.	Bob, I'll pick San Diego as my winner.	157402690	1476227478817	1476227478884	y	89
307945	3312763	Bob, I'll pick San Diego as my winner.	Bob, I'll pick San Diego as my winner.	157402692	1476227479021	1476227479023	 	32
307945	3312763	Bob, I'll pick San Diego as my winner.	Bob, I'll pick San Diego as my winner.	157402695	1476227479224	1476227479224	w	87
307945	3312763	Bob, I'll pick San Diego as my winner.	Bob, I'll pick San Diego as my winner.	157402699	1476227479292	1476227479368	i	73
307945	3312763	Bob, I'll pick San Diego as my winner.	Bob, I'll pick San Diego as my winner.	157402711	1476227479534	1476227479650	n	78
307945	3312763	Bob, I'll pick San Diego as my winner.	Bob, I'll pick San Diego as my winner.	157402717	1476227479732	1476227479834	e	69
307945	3312763	Bob, I'll pick San Diego as my winner.	Bob, I'll pick San Diego as my winner.	157402724	1476227479833	1476227479912	r	82
307945	3312763	Bob, I'll pick San Diego as my winner.	Bob, I'll pick San Diego as my winner.	157402731	1476227479935	1476227480009	.	190
307945	3312788	I will not be available.	I will not be available.	157402967	1476227482575	1476227482723	SHIFT	16
307945	3312788	I will not be available.	I will not be available.	157402973	1476227482676	1476227482724	I	73
307945	3312788	I will not be available.	I will not be available.	157402977	1476227482778	1476227482881	 	32
307945	3312788	I will not be available.	I will not be available.	157402982	1476227482981	1476227483082	w	87
307945	3312788	I will not be available.	I will not be available.	157402985	1476227483184	1476227483184	i	73
307945	3312788	I will not be available.	I will not be available.	157402989	1476227483387	1476227483388	l	76
307945	3312788	I will not be available.	I will not be available.	157403074	1476227483457	1476227483519	l	76
307945	3312788	I will not be available.	I will not be available.	157403079	1476227483590	1476227483692	 	32
307945	3312788	I will not be available.	I will not be available.	157403085	1476227483793	1476227483830	b	66
307945	3312788	I will not be available.	I will not be available.	157403087	1476227483996	1476227484034	o	79
307945	3312788	I will not be available.	I will not be available.	157403091	1476227484402	1476227484438	BKSP	8
307945	3312788	I will not be available.	I will not be available.	157403095	1476227484606	1476227484609	BKSP	8
307945	3312788	I will not be available.	I will not be available.	157403187	1476227485215	1476227485316	o	79
307945	3312788	I will not be available.	I will not be available.	157403192	1476227485418	1476227485485	y	84
307945	3312788	I will not be available.	I will not be available.	157403196	1476227485520	1476227485561	 	32
307945	3312788	I will not be available.	I will not be available.	157403200	1476227486027	1476227486035	BKSP	8
307945	3312788	I will not be available.	I will not be available.	157403205	1476227486129	1476227486195	BKSP	8
307945	3312788	I will not be available.	I will not be available.	157403208	1476227486433	1476227486436	 	32
307945	3312788	I will not be available.	I will not be available.	157403305	1476227486738	1476227486949	e	69
307945	3312788	I will not be available.	I will not be available.	157403309	1476227487144	1476227487184	BKSP	8
307945	3312788	I will not be available.	I will not be available.	157403311	1476227487342	1476227487344	BKSP	8
307945	3312788	I will not be available.	I will not be available.	157403313	1476227487956	1476227487958	 	32
307945	3312788	I will not be available.	I will not be available.	157403315	1476227488058	1476227488160	b	66
307945	3312788	I will not be available.	I will not be available.	157403317	1476227488160	1476227488264	e	69
307945	3312788	I will not be available.	I will not be available.	157403376	1476227488262	1476227488307	 	32
307945	3312788	I will not be available.	I will not be available.	157403378	1476227488363	1476227488566	a	65
307945	3312788	I will not be available.	I will not be available.	157403380	1476227488667	1476227488668	b	66
307945	3312788	I will not be available.	I will not be available.	157403383	1476227489074	1476227489175	BKSP	8
307945	3312788	I will not be available.	I will not be available.	157403390	1476227489277	1476227489378	v	86
307945	3312788	I will not be available.	I will not be available.	157403396	1476227489480	1476227489581	a	65
307945	3312788	I will not be available.	I will not be available.	157403401	1476227489683	1476227489785	i	73
307945	3312788	I will not be available.	I will not be available.	157403461	1476227489886	1476227489988	l	76
307945	3312788	I will not be available.	I will not be available.	157403464	1476227490496	1476227490541	a	65
307945	3312788	I will not be available.	I will not be available.	157403465	1476227490699	1476227490703	b	66
307945	3312788	I will not be available.	I will not be available.	157403468	1476227490902	1476227490948	l	76
307945	3312788	I will not be available.	I will not be available.	157403473	1476227491107	1476227491151	e	69
307945	3312788	I will not be available.	I will not be available.	157403598	1476227491409	1476227491511	'	222
307945	3312788	I will not be available.	I will not be available.	157403601	1476227492120	1476227492161	BKSP	8
307945	3312788	I will not be available.	I will not be available.	157403607	1476227492527	1476227492569	.	190
