PARTICIPANT_ID	TEST_SECTION_ID	SENTENCE	USER_INPUT	KEYSTROKE_ID	PRESS_TIME	RELEASE_TIME	LETTER	KEYCODE
30811	330187	Please call tomorrow if possible.	Please call tomorrow if possible.	15678070	1472289363911	1472289364133	SHIFT	16
30811	330187	Please call tomorrow if possible.	Please call tomorrow if possible.	15678071	1472289364046	1472289364146	P	80
30811	330187	Please call tomorrow if possible.	Please call tomorrow if possible.	15678072	1472289364246	1472289364358	l	76
30811	330187	Please call tomorrow if possible.	Please call tomorrow if possible.	15678073	1472289364326	1472289364402	e	69
30811	330187	Please call tomorrow if possible.	Please call tomorrow if possible.	15678074	1472289364438	1472289364509	a	65
30811	330187	Please call tomorrow if possible.	Please call tomorrow if possible.	15678076	1472289364541	1472289364588	s	83
30811	330187	Please call tomorrow if possible.	Please call tomorrow if possible.	15678092	1472289364653	1472289364749	e	69
30811	330187	Please call tomorrow if possible.	Please call tomorrow if possible.	15678093	1472289364753	1472289364844	 	32
30811	330187	Please call tomorrow if possible.	Please call tomorrow if possible.	15678094	1472289364837	1472289364940	c	67
30811	330187	Please call tomorrow if possible.	Please call tomorrow if possible.	15678095	1472289364945	1472289365020	a	65
30811	330187	Please call tomorrow if possible.	Please call tomorrow if possible.	15678096	1472289365025	1472289365088	l	76
30811	330187	Please call tomorrow if possible.	Please call tomorrow if possible.	15678097	1472289365149	1472289365220	l	76
30811	330187	Please call tomorrow if possible.	Please call tomorrow if possible.	15678099	1472289365233	1472289365324	 	32
30811	330187	Please call tomorrow if possible.	Please call tomorrow if possible.	15678100	1472289365297	1472289365368	t	84
30811	330187	Please call tomorrow if possible.	Please call tomorrow if possible.	15678102	1472289365385	1472289365428	o	79
30811	330187	Please call tomorrow if possible.	Please call tomorrow if possible.	15678103	1472289365505	1472289365588	m	77
30811	330187	Please call tomorrow if possible.	Please call tomorrow if possible.	15678112	1472289365637	1472289365716	o	79
30811	330187	Please call tomorrow if possible.	Please call tomorrow if possible.	15678113	1472289365712	1472289365767	r	82
30811	330187	Please call tomorrow if possible.	Please call tomorrow if possible.	15678114	1472289365821	1472289365888	r	82
30811	330187	Please call tomorrow if possible.	Please call tomorrow if possible.	15678115	1472289365885	1472289365972	o	79
30811	330187	Please call tomorrow if possible.	Please call tomorrow if possible.	15678116	1472289366008	1472289366078	w	87
30811	330187	Please call tomorrow if possible.	Please call tomorrow if possible.	15678123	1472289366098	1472289366168	 	32
30811	330187	Please call tomorrow if possible.	Please call tomorrow if possible.	15678124	1472289366194	1472289366278	i	73
30811	330187	Please call tomorrow if possible.	Please call tomorrow if possible.	15678125	1472289366267	1472289366333	f	70
30811	330187	Please call tomorrow if possible.	Please call tomorrow if possible.	15678126	1472289366353	1472289366417	 	32
30811	330187	Please call tomorrow if possible.	Please call tomorrow if possible.	15678127	1472289366447	1472289366534	p	80
30811	330187	Please call tomorrow if possible.	Please call tomorrow if possible.	15678136	1472289366604	1472289366708	o	79
30811	330187	Please call tomorrow if possible.	Please call tomorrow if possible.	15678139	1472289366760	1472289366804	s	83
30811	330187	Please call tomorrow if possible.	Please call tomorrow if possible.	15678140	1472289366869	1472289366924	s	83
30811	330187	Please call tomorrow if possible.	Please call tomorrow if possible.	15678141	1472289366929	1472289367004	i	73
30811	330187	Please call tomorrow if possible.	Please call tomorrow if possible.	15678143	1472289367042	1472289367111	b	66
30811	330187	Please call tomorrow if possible.	Please call tomorrow if possible.	15678150	1472289367122	1472289367190	l	76
30811	330187	Please call tomorrow if possible.	Please call tomorrow if possible.	15678151	1472289367208	1472289367280	e	69
30811	330187	Please call tomorrow if possible.	Please call tomorrow if possible.	15678152	1472289367285	1472289367356	.	190
30811	330188	Do you know anything?	Do you know anyting?	15678182	1472289369351	1472289369566	SHIFT	16
30811	330188	Do you know anything?	Do you know anyting?	15678183	1472289369523	1472289369578	D	68
30811	330188	Do you know anything?	Do you know anyting?	15678184	1472289369614	1472289369691	o	79
30811	330188	Do you know anything?	Do you know anyting?	15678185	1472289369695	1472289369770	 	32
30811	330188	Do you know anything?	Do you know anyting?	15678186	1472289369800	1472289369866	y	89
30811	330188	Do you know anything?	Do you know anyting?	15678187	1472289369893	1472289369980	o	79
30811	330188	Do you know anything?	Do you know anyting?	15678195	1472289369960	1472289370028	u	85
30811	330188	Do you know anything?	Do you know anyting?	15678197	1472289370038	1472289370104	 	32
30811	330188	Do you know anything?	Do you know anyting?	15678199	1472289370154	1472289370222	k	75
30811	330188	Do you know anything?	Do you know anyting?	15678202	1472289370289	1472289370357	n	78
30811	330188	Do you know anything?	Do you know anyting?	15678204	1472289370416	1472289370495	o	79
30811	330188	Do you know anything?	Do you know anyting?	15678214	1472289370488	1472289370539	w	87
30811	330188	Do you know anything?	Do you know anyting?	15678217	1472289370556	1472289370615	 	32
30811	330188	Do you know anything?	Do you know anyting?	15678219	1472289370628	1472289370683	a	65
30811	330188	Do you know anything?	Do you know anyting?	15678221	1472289370697	1472289370759	n	78
30811	330188	Do you know anything?	Do you know anyting?	15678223	1472289370837	1472289370904	y	89
30811	330188	Do you know anything?	Do you know anyting?	15678225	1472289370909	1472289370976	t	84
30811	330188	Do you know anything?	Do you know anyting?	15678226	1472289371071	1472289371134	i	73
30811	330188	Do you know anything?	Do you know anyting?	15678227	1472289371163	1472289371237	n	78
30811	330188	Do you know anything?	Do you know anyting?	15678228	1472289371227	1472289371290	g	71
30811	330188	Do you know anything?	Do you know anyting?	15678230	1472289371349	1472289371533	SHIFT	16
30811	330188	Do you know anything?	Do you know anyting?	15678229	1472289371426	1472289371529	?	191
30811	330189	I think I played three different courses.	I think I played thre different courses.	15678274	1472289373756	1472289373904	SHIFT	16
30811	330189	I think I played three different courses.	I think I played thre different courses.	15678276	1472289373853	1472289373928	I	73
30811	330189	I think I played three different courses.	I think I played thre different courses.	15678280	1472289373941	1472289373992	 	32
30811	330189	I think I played three different courses.	I think I played thre different courses.	15678282	1472289374026	1472289374090	t	84
30811	330189	I think I played three different courses.	I think I played thre different courses.	15678285	1472289374086	1472289374153	h	72
30811	330189	I think I played three different courses.	I think I played thre different courses.	15678288	1472289374193	1472289374252	i	73
30811	330189	I think I played three different courses.	I think I played thre different courses.	15678277	1472289374281	1472289374336	n	78
30811	330189	I think I played three different courses.	I think I played thre different courses.	15678279	1472289374399	1472289374470	k	75
30811	330189	I think I played three different courses.	I think I played thre different courses.	15678283	1472289374499	1472289374574	 	32
30811	330189	I think I played three different courses.	I think I played thre different courses.	15678286	1472289374578	1472289374710	SHIFT	16
30811	330189	I think I played three different courses.	I think I played thre different courses.	15678289	1472289374662	1472289374730	I	73
30811	330189	I think I played three different courses.	I think I played thre different courses.	15678291	1472289374735	1472289374802	 	32
30811	330189	I think I played three different courses.	I think I played thre different courses.	15678297	1472289374864	1472289374930	p	80
30811	330189	I think I played three different courses.	I think I played thre different courses.	15678298	1472289374977	1472289375076	l	76
30811	330189	I think I played three different courses.	I think I played thre different courses.	15678299	1472289375069	1472289375132	a	65
30811	330189	I think I played three different courses.	I think I played thre different courses.	15678300	1472289375318	1472289375401	y	89
30811	330189	I think I played three different courses.	I think I played thre different courses.	15678301	1472289375406	1472289375466	e	69
30811	330189	I think I played three different courses.	I think I played thre different courses.	15678302	1472289375529	1472289375580	d	68
30811	330189	I think I played three different courses.	I think I played thre different courses.	15678304	1472289375569	1472289375632	 	32
30811	330189	I think I played three different courses.	I think I played thre different courses.	15678306	1472289375690	1472289375746	t	84
30811	330189	I think I played three different courses.	I think I played thre different courses.	15678308	1472289375722	1472289375805	h	72
30811	330189	I think I played three different courses.	I think I played thre different courses.	15678309	1472289375827	1472289375878	e	69
30811	330189	I think I played three different courses.	I think I played thre different courses.	15678315	1472289375993	1472289376040	r	82
30811	330189	I think I played three different courses.	I think I played thre different courses.	15678317	1472289376287	1472289376359	BKSP	8
30811	330189	I think I played three different courses.	I think I played thre different courses.	15678319	1472289376412	1472289376472	BKSP	8
30811	330189	I think I played three different courses.	I think I played thre different courses.	15678321	1472289376501	1472289376596	r	82
30811	330189	I think I played three different courses.	I think I played thre different courses.	15678323	1472289376618	1472289376677	e	69
30811	330189	I think I played three different courses.	I think I played thre different courses.	15678325	1472289376744	1472289376791	e	69
30811	330189	I think I played three different courses.	I think I played thre different courses.	15678327	1472289376848	1472289376895	e	69
30811	330189	I think I played three different courses.	I think I played thre different courses.	15678335	1472289376930	1472289376995	 	32
30811	330189	I think I played three different courses.	I think I played thre different courses.	15678336	1472289377194	1472289377265	BKSP	8
30811	330189	I think I played three different courses.	I think I played thre different courses.	15678337	1472289377338	1472289377377	BKSP	8
30811	330189	I think I played three different courses.	I think I played thre different courses.	15678338	1472289377445	1472289377484	BKSP	8
30811	330189	I think I played three different courses.	I think I played thre different courses.	15678339	1472289377555	1472289377638	 	32
30811	330189	I think I played three different courses.	I think I played thre different courses.	15678340	1472289377884	1472289377939	d	68
30811	330189	I think I played three different courses.	I think I played thre different courses.	15678342	1472289377977	1472289378065	i	73
30811	330189	I think I played three different courses.	I think I played thre different courses.	15678354	1472289378057	1472289378100	f	70
30811	330189	I think I played three different courses.	I think I played thre different courses.	15678357	1472289378167	1472289378214	f	70
30811	330189	I think I played three different courses.	I think I played thre different courses.	15678360	1472289378282	1472289378337	e	69
30811	330189	I think I played three different courses.	I think I played thre different courses.	15678362	1472289378388	1472289378460	r	82
30811	330189	I think I played three different courses.	I think I played thre different courses.	15678364	1472289378534	1472289378589	e	69
30811	330189	I think I played three different courses.	I think I played thre different courses.	15678373	1472289378570	1472289378665	n	78
30811	330189	I think I played three different courses.	I think I played thre different courses.	15678375	1472289378677	1472289378757	t	84
30811	330189	I think I played three different courses.	I think I played thre different courses.	15678376	1472289378766	1472289378857	 	32
30811	330189	I think I played three different courses.	I think I played thre different courses.	15678377	1472289378885	1472289378976	c	67
30811	330189	I think I played three different courses.	I think I played thre different courses.	15678378	1472289378969	1472289379024	o	79
30811	330189	I think I played three different courses.	I think I played thre different courses.	15678379	1472289379094	1472289379164	u	85
30811	330189	I think I played three different courses.	I think I played thre different courses.	15678380	1472289379162	1472289379245	r	82
30811	330189	I think I played three different courses.	I think I played thre different courses.	15678382	1472289379319	1472289379406	s	83
30811	330189	I think I played three different courses.	I think I played thre different courses.	15678384	1472289379457	1472289379540	e	69
30811	330189	I think I played three different courses.	I think I played thre different courses.	15678386	1472289379589	1472289379649	.	83
30811	330192	Did you get this?	Did you get this?	15678416	1472289381569	1472289381781	SHIFT	16
30811	330192	Did you get this?	Did you get this?	15678415	1472289381702	1472289381777	D	68
30811	330192	Did you get this?	Did you get this?	15678417	1472289381832	1472289381911	i	73
30811	330192	Did you get this?	Did you get this?	15678418	1472289382285	1472289382355	d	68
30811	330192	Did you get this?	Did you get this?	15678419	1472289382433	1472289382501	 	32
30811	330192	Did you get this?	Did you get this?	15678421	1472289382559	1472289382641	y	89
30811	330192	Did you get this?	Did you get this?	15678431	1472289382639	1472289382730	o	79
30811	330192	Did you get this?	Did you get this?	15678432	1472289382731	1472289382794	u	85
30811	330192	Did you get this?	Did you get this?	15678433	1472289382807	1472289382878	 	32
30811	330192	Did you get this?	Did you get this?	15678434	1472289383311	1472289383394	g	71
30811	330192	Did you get this?	Did you get this?	15678435	1472289383446	1472289383517	e	69
30811	330192	Did you get this?	Did you get this?	15678436	1472289383542	1472289383593	t	84
30811	330192	Did you get this?	Did you get this?	15678440	1472289383625	1472289383677	 	32
30811	330192	Did you get this?	Did you get this?	15678442	1472289383681	1472289383750	t	84
30811	330192	Did you get this?	Did you get this?	15678444	1472289383758	1472289383829	h	72
30811	330192	Did you get this?	Did you get this?	15678445	1472289383853	1472289383920	i	73
30811	330192	Did you get this?	Did you get this?	15678451	1472289383904	1472289383972	s	83
30811	330192	Did you get this?	Did you get this?	15678453	1472289384037	1472289384189	SHIFT	16
30811	330192	Did you get this?	Did you get this?	15678452	1472289384093	1472289384185	?	191
30811	330194	Ladies, I am finished with July 01 and everything ties.	Ladies, I am finished with July 01 and everything ties.	15678472	1472289385820	1472289385948	SHIFT	16
30811	330194	Ladies, I am finished with July 01 and everything ties.	Ladies, I am finished with July 01 and everything ties.	15678473	1472289385909	1472289385996	L	76
30811	330194	Ladies, I am finished with July 01 and everything ties.	Ladies, I am finished with July 01 and everything ties.	15678474	1472289386001	1472289386079	a	65
30811	330194	Ladies, I am finished with July 01 and everything ties.	Ladies, I am finished with July 01 and everything ties.	15678475	1472289386251	1472289386342	d	68
30811	330194	Ladies, I am finished with July 01 and everything ties.	Ladies, I am finished with July 01 and everything ties.	15678476	1472289386366	1472289386441	i	73
30811	330194	Ladies, I am finished with July 01 and everything ties.	Ladies, I am finished with July 01 and everything ties.	15678477	1472289386447	1472289386517	e	69
30811	330194	Ladies, I am finished with July 01 and everything ties.	Ladies, I am finished with July 01 and everything ties.	15678486	1472289386584	1472289386659	s	83
30811	330194	Ladies, I am finished with July 01 and everything ties.	Ladies, I am finished with July 01 and everything ties.	15678488	1472289386675	1472289386751	,	188
30811	330194	Ladies, I am finished with July 01 and everything ties.	Ladies, I am finished with July 01 and everything ties.	15678490	1472289386773	1472289386853	 	32
30811	330194	Ladies, I am finished with July 01 and everything ties.	Ladies, I am finished with July 01 and everything ties.	15678492	1472289386948	1472289387080	SHIFT	16
30811	330194	Ladies, I am finished with July 01 and everything ties.	Ladies, I am finished with July 01 and everything ties.	15678493	1472289387056	1472289387128	I	73
30811	330194	Ladies, I am finished with July 01 and everything ties.	Ladies, I am finished with July 01 and everything ties.	15678494	1472289387129	1472289387188	 	32
30811	330194	Ladies, I am finished with July 01 and everything ties.	Ladies, I am finished with July 01 and everything ties.	15678495	1472289387205	1472289387284	a	65
30811	330194	Ladies, I am finished with July 01 and everything ties.	Ladies, I am finished with July 01 and everything ties.	15678496	1472289387320	1472289387415	m	77
30811	330194	Ladies, I am finished with July 01 and everything ties.	Ladies, I am finished with July 01 and everything ties.	15678497	1472289387431	1472289387523	 	32
30811	330194	Ladies, I am finished with July 01 and everything ties.	Ladies, I am finished with July 01 and everything ties.	15678498	1472289387571	1472289387650	f	70
30811	330194	Ladies, I am finished with July 01 and everything ties.	Ladies, I am finished with July 01 and everything ties.	15678499	1472289387658	1472289387718	i	73
30811	330194	Ladies, I am finished with July 01 and everything ties.	Ladies, I am finished with July 01 and everything ties.	15678503	1472289387795	1472289387858	n	78
30811	330194	Ladies, I am finished with July 01 and everything ties.	Ladies, I am finished with July 01 and everything ties.	15678505	1472289387905	1472289387976	i	73
30811	330194	Ladies, I am finished with July 01 and everything ties.	Ladies, I am finished with July 01 and everything ties.	15678507	1472289387977	1472289388036	s	83
30811	330194	Ladies, I am finished with July 01 and everything ties.	Ladies, I am finished with July 01 and everything ties.	15678509	1472289388072	1472289388151	h	72
30811	330194	Ladies, I am finished with July 01 and everything ties.	Ladies, I am finished with July 01 and everything ties.	15678512	1472289388148	1472289388209	e	69
30811	330194	Ladies, I am finished with July 01 and everything ties.	Ladies, I am finished with July 01 and everything ties.	15678513	1472289388277	1472289388333	d	68
30811	330194	Ladies, I am finished with July 01 and everything ties.	Ladies, I am finished with July 01 and everything ties.	15678514	1472289388309	1472289388389	 	32
30811	330194	Ladies, I am finished with July 01 and everything ties.	Ladies, I am finished with July 01 and everything ties.	15678515	1472289388427	1472289388491	w	87
30811	330194	Ladies, I am finished with July 01 and everything ties.	Ladies, I am finished with July 01 and everything ties.	15678516	1472289388522	1472289388582	i	73
30811	330194	Ladies, I am finished with July 01 and everything ties.	Ladies, I am finished with July 01 and everything ties.	15678517	1472289388598	1472289388666	t	84
30811	330194	Ladies, I am finished with July 01 and everything ties.	Ladies, I am finished with July 01 and everything ties.	15678522	1472289388683	1472289388748	h	72
30811	330194	Ladies, I am finished with July 01 and everything ties.	Ladies, I am finished with July 01 and everything ties.	15678524	1472289388751	1472289388823	 	32
30811	330194	Ladies, I am finished with July 01 and everything ties.	Ladies, I am finished with July 01 and everything ties.	15678528	1472289388845	1472289389017	SHIFT	16
30811	330194	Ladies, I am finished with July 01 and everything ties.	Ladies, I am finished with July 01 and everything ties.	15678526	1472289388946	1472289389004	K	75
30811	330194	Ladies, I am finished with July 01 and everything ties.	Ladies, I am finished with July 01 and everything ties.	15678530	1472289389109	1472289389180	u	85
30811	330194	Ladies, I am finished with July 01 and everything ties.	Ladies, I am finished with July 01 and everything ties.	15678531	1472289389316	1472289389384	BKSP	8
30811	330194	Ladies, I am finished with July 01 and everything ties.	Ladies, I am finished with July 01 and everything ties.	15678532	1472289389453	1472289389500	BKSP	8
30811	330194	Ladies, I am finished with July 01 and everything ties.	Ladies, I am finished with July 01 and everything ties.	15678533	1472289389853	1472289390046	SHIFT	16
30811	330194	Ladies, I am finished with July 01 and everything ties.	Ladies, I am finished with July 01 and everything ties.	15678550	1472289390011	1472289390070	J	74
30811	330194	Ladies, I am finished with July 01 and everything ties.	Ladies, I am finished with July 01 and everything ties.	15678551	1472289390151	1472289390218	u	85
30811	330194	Ladies, I am finished with July 01 and everything ties.	Ladies, I am finished with July 01 and everything ties.	15678552	1472289390554	1472289390726	l	76
30811	330194	Ladies, I am finished with July 01 and everything ties.	Ladies, I am finished with July 01 and everything ties.	15678553	1472289390754	1472289390814	y	89
30811	330194	Ladies, I am finished with July 01 and everything ties.	Ladies, I am finished with July 01 and everything ties.	15678554	1472289390858	1472289390941	 	32
30811	330194	Ladies, I am finished with July 01 and everything ties.	Ladies, I am finished with July 01 and everything ties.	15678555	1472289392094	1472289392166	0	48
30811	330194	Ladies, I am finished with July 01 and everything ties.	Ladies, I am finished with July 01 and everything ties.	15678565	1472289392174	1472289392234	1	49
30811	330194	Ladies, I am finished with July 01 and everything ties.	Ladies, I am finished with July 01 and everything ties.	15678567	1472289392279	1472289392361	 	32
30811	330194	Ladies, I am finished with July 01 and everything ties.	Ladies, I am finished with July 01 and everything ties.	15678568	1472289392398	1472289392466	a	65
30811	330194	Ladies, I am finished with July 01 and everything ties.	Ladies, I am finished with July 01 and everything ties.	15678569	1472289392499	1472289392596	n	78
30811	330194	Ladies, I am finished with July 01 and everything ties.	Ladies, I am finished with July 01 and everything ties.	15678570	1472289392594	1472289392646	d	68
30811	330194	Ladies, I am finished with July 01 and everything ties.	Ladies, I am finished with July 01 and everything ties.	15678572	1472289392672	1472289392772	 	32
30811	330194	Ladies, I am finished with July 01 and everything ties.	Ladies, I am finished with July 01 and everything ties.	15678574	1472289392740	1472289392800	e	69
30811	330194	Ladies, I am finished with July 01 and everything ties.	Ladies, I am finished with July 01 and everything ties.	15678576	1472289392850	1472289392965	v	86
30811	330194	Ladies, I am finished with July 01 and everything ties.	Ladies, I am finished with July 01 and everything ties.	15678578	1472289392977	1472289393012	e	69
30811	330194	Ladies, I am finished with July 01 and everything ties.	Ladies, I am finished with July 01 and everything ties.	15678580	1472289393077	1472289393145	r	82
30811	330194	Ladies, I am finished with July 01 and everything ties.	Ladies, I am finished with July 01 and everything ties.	15678582	1472289393163	1472289393231	y	89
30811	330194	Ladies, I am finished with July 01 and everything ties.	Ladies, I am finished with July 01 and everything ties.	15678584	1472289393262	1472289393318	t	84
30811	330194	Ladies, I am finished with July 01 and everything ties.	Ladies, I am finished with July 01 and everything ties.	15678586	1472289393335	1472289393390	h	72
30811	330194	Ladies, I am finished with July 01 and everything ties.	Ladies, I am finished with July 01 and everything ties.	15678588	1472289393409	1472289393492	i	73
30811	330194	Ladies, I am finished with July 01 and everything ties.	Ladies, I am finished with July 01 and everything ties.	15678590	1472289393522	1472289393601	n	78
30811	330194	Ladies, I am finished with July 01 and everything ties.	Ladies, I am finished with July 01 and everything ties.	15678591	1472289393543	1472289393605	g	71
30811	330194	Ladies, I am finished with July 01 and everything ties.	Ladies, I am finished with July 01 and everything ties.	15678592	1472289393657	1472289393744	 	32
30811	330194	Ladies, I am finished with July 01 and everything ties.	Ladies, I am finished with July 01 and everything ties.	15678593	1472289393773	1472289393848	t	84
30811	330194	Ladies, I am finished with July 01 and everything ties.	Ladies, I am finished with July 01 and everything ties.	15678594	1472289393895	1472289393971	i	73
30811	330194	Ladies, I am finished with July 01 and everything ties.	Ladies, I am finished with July 01 and everything ties.	15678595	1472289394020	1472289394047	e	69
30811	330194	Ladies, I am finished with July 01 and everything ties.	Ladies, I am finished with July 01 and everything ties.	15678596	1472289394134	1472289394185	s	83
30811	330194	Ladies, I am finished with July 01 and everything ties.	Ladies, I am finished with July 01 and everything ties.	15678603	1472289394197	1472289394261	.	190
30811	330198	Ty needs to work on our model before we could start anything anyway.	Ty need to work on our model before we could start anything anyway.	15678667	1472289400550	1472289401211	SHIFT	16
30811	330198	Ty needs to work on our model before we could start anything anyway.	Ty need to work on our model before we could start anything anyway.	15678666	1472289401103	1472289401191	T	84
30811	330198	Ty needs to work on our model before we could start anything anyway.	Ty need to work on our model before we could start anything anyway.	15678668	1472289401276	1472289401359	y	89
30811	330198	Ty needs to work on our model before we could start anything anyway.	Ty need to work on our model before we could start anything anyway.	15678669	1472289401368	1472289401419	 	32
30811	330198	Ty needs to work on our model before we could start anything anyway.	Ty need to work on our model before we could start anything anyway.	15678670	1472289401477	1472289401571	n	78
30811	330198	Ty needs to work on our model before we could start anything anyway.	Ty need to work on our model before we could start anything anyway.	15678681	1472289401560	1472289401628	e	69
30811	330198	Ty needs to work on our model before we could start anything anyway.	Ty need to work on our model before we could start anything anyway.	15678683	1472289401685	1472289401765	e	69
30811	330198	Ty needs to work on our model before we could start anything anyway.	Ty need to work on our model before we could start anything anyway.	15678686	1472289401837	1472289401909	d	68
30811	330198	Ty needs to work on our model before we could start anything anyway.	Ty need to work on our model before we could start anything anyway.	15678689	1472289401960	1472289402043	 	32
30811	330198	Ty needs to work on our model before we could start anything anyway.	Ty need to work on our model before we could start anything anyway.	15678692	1472289402048	1472289402115	t	84
30811	330198	Ty needs to work on our model before we could start anything anyway.	Ty need to work on our model before we could start anything anyway.	15678695	1472289402168	1472289402239	o	79
30811	330198	Ty needs to work on our model before we could start anything anyway.	Ty need to work on our model before we could start anything anyway.	15678682	1472289402247	1472289402319	 	32
30811	330198	Ty needs to work on our model before we could start anything anyway.	Ty need to work on our model before we could start anything anyway.	15678684	1472289402359	1472289402426	w	87
30811	330198	Ty needs to work on our model before we could start anything anyway.	Ty need to work on our model before we could start anything anyway.	15678687	1472289402454	1472289402511	o	79
30811	330198	Ty needs to work on our model before we could start anything anyway.	Ty need to work on our model before we could start anything anyway.	15678690	1472289402529	1472289402596	r	82
30811	330198	Ty needs to work on our model before we could start anything anyway.	Ty need to work on our model before we could start anything anyway.	15678694	1472289402616	1472289402680	k	75
30811	330198	Ty needs to work on our model before we could start anything anyway.	Ty need to work on our model before we could start anything anyway.	15678697	1472289402714	1472289402801	 	32
30811	330198	Ty needs to work on our model before we could start anything anyway.	Ty need to work on our model before we could start anything anyway.	15678698	1472289402985	1472289403052	o	79
30811	330198	Ty needs to work on our model before we could start anything anyway.	Ty need to work on our model before we could start anything anyway.	15678699	1472289403184	1472289403260	n	78
30811	330198	Ty needs to work on our model before we could start anything anyway.	Ty need to work on our model before we could start anything anyway.	15678700	1472289403297	1472289403369	 	32
30811	330198	Ty needs to work on our model before we could start anything anyway.	Ty need to work on our model before we could start anything anyway.	15678701	1472289403456	1472289403540	o	79
30811	330198	Ty needs to work on our model before we could start anything anyway.	Ty need to work on our model before we could start anything anyway.	15678702	1472289403634	1472289403716	u	85
30811	330198	Ty needs to work on our model before we could start anything anyway.	Ty need to work on our model before we could start anything anyway.	15678703	1472289403734	1472289403814	r	82
30811	330198	Ty needs to work on our model before we could start anything anyway.	Ty need to work on our model before we could start anything anyway.	15678704	1472289403815	1472289403857	 	32
30811	330198	Ty needs to work on our model before we could start anything anyway.	Ty need to work on our model before we could start anything anyway.	15678705	1472289403926	1472289404004	m	77
30811	330198	Ty needs to work on our model before we could start anything anyway.	Ty need to work on our model before we could start anything anyway.	15678706	1472289404157	1472289404252	BKSP	8
30811	330198	Ty needs to work on our model before we could start anything anyway.	Ty need to work on our model before we could start anything anyway.	15678707	1472289404676	1472289404759	m	77
30811	330198	Ty needs to work on our model before we could start anything anyway.	Ty need to work on our model before we could start anything anyway.	15678709	1472289404831	1472289404906	o	79
30811	330198	Ty needs to work on our model before we could start anything anyway.	Ty need to work on our model before we could start anything anyway.	15678711	1472289404899	1472289404963	d	68
30811	330198	Ty needs to work on our model before we could start anything anyway.	Ty need to work on our model before we could start anything anyway.	15678713	1472289405040	1472289405111	e	69
30811	330198	Ty needs to work on our model before we could start anything anyway.	Ty need to work on our model before we could start anything anyway.	15678716	1472289405116	1472289405172	l	76
30811	330198	Ty needs to work on our model before we could start anything anyway.	Ty need to work on our model before we could start anything anyway.	15678719	1472289405194	1472289405257	 	32
30811	330198	Ty needs to work on our model before we could start anything anyway.	Ty need to work on our model before we could start anything anyway.	15678727	1472289405354	1472289405413	b	66
30811	330198	Ty needs to work on our model before we could start anything anyway.	Ty need to work on our model before we could start anything anyway.	15678728	1472289405431	1472289405486	e	69
30811	330198	Ty needs to work on our model before we could start anything anyway.	Ty need to work on our model before we could start anything anyway.	15678729	1472289405548	1472289405620	f	70
30811	330198	Ty needs to work on our model before we could start anything anyway.	Ty need to work on our model before we could start anything anyway.	15678730	1472289405632	1472289405716	o	79
30811	330198	Ty needs to work on our model before we could start anything anyway.	Ty need to work on our model before we could start anything anyway.	15678738	1472289405704	1472289405768	r	82
30811	330198	Ty needs to work on our model before we could start anything anyway.	Ty need to work on our model before we could start anything anyway.	15678739	1472289405821	1472289405871	e	69
30811	330198	Ty needs to work on our model before we could start anything anyway.	Ty need to work on our model before we could start anything anyway.	15678740	1472289405893	1472289405984	 	32
30811	330198	Ty needs to work on our model before we could start anything anyway.	Ty need to work on our model before we could start anything anyway.	15678741	1472289405964	1472289406016	w	87
30811	330198	Ty needs to work on our model before we could start anything anyway.	Ty need to work on our model before we could start anything anyway.	15678742	1472289406096	1472289406156	e	69
30811	330198	Ty needs to work on our model before we could start anything anyway.	Ty need to work on our model before we could start anything anyway.	15678743	1472289406209	1472289406272	 	32
30811	330198	Ty needs to work on our model before we could start anything anyway.	Ty need to work on our model before we could start anything anyway.	15678744	1472289406410	1472289406494	c	67
30811	330198	Ty needs to work on our model before we could start anything anyway.	Ty need to work on our model before we could start anything anyway.	15678745	1472289406528	1472289406579	o	79
30811	330198	Ty needs to work on our model before we could start anything anyway.	Ty need to work on our model before we could start anything anyway.	15678746	1472289406663	1472289406718	u	85
30811	330198	Ty needs to work on our model before we could start anything anyway.	Ty need to work on our model before we could start anything anyway.	15678747	1472289406810	1472289406900	l	76
30811	330198	Ty needs to work on our model before we could start anything anyway.	Ty need to work on our model before we could start anything anyway.	15678763	1472289406869	1472289406921	d	68
30811	330198	Ty needs to work on our model before we could start anything anyway.	Ty need to work on our model before we could start anything anyway.	15678764	1472289406977	1472289407080	 	32
30811	330198	Ty needs to work on our model before we could start anything anyway.	Ty need to work on our model before we could start anything anyway.	15678765	1472289407046	1472289407088	s	83
30811	330198	Ty needs to work on our model before we could start anything anyway.	Ty need to work on our model before we could start anything anyway.	15678766	1472289407151	1472289407223	t	84
30811	330198	Ty needs to work on our model before we could start anything anyway.	Ty need to work on our model before we could start anything anyway.	15678767	1472289407278	1472289407357	a	65
30811	330198	Ty needs to work on our model before we could start anything anyway.	Ty need to work on our model before we could start anything anyway.	15678768	1472289407502	1472289407573	t	84
30811	330198	Ty needs to work on our model before we could start anything anyway.	Ty need to work on our model before we could start anything anyway.	15678782	1472289407933	1472289408021	BKSP	8
30811	330198	Ty needs to work on our model before we could start anything anyway.	Ty need to work on our model before we could start anything anyway.	15678784	1472289408051	1472289408110	r	82
30811	330198	Ty needs to work on our model before we could start anything anyway.	Ty need to work on our model before we could start anything anyway.	15678786	1472289408180	1472289408255	t	84
30811	330198	Ty needs to work on our model before we could start anything anyway.	Ty need to work on our model before we could start anything anyway.	15678787	1472289408291	1472289408362	 	32
30811	330198	Ty needs to work on our model before we could start anything anyway.	Ty need to work on our model before we could start anything anyway.	15678788	1472289408454	1472289408538	a	65
30811	330198	Ty needs to work on our model before we could start anything anyway.	Ty need to work on our model before we could start anything anyway.	15678789	1472289408550	1472289408613	n	78
30811	330198	Ty needs to work on our model before we could start anything anyway.	Ty need to work on our model before we could start anything anyway.	15678790	1472289408712	1472289408772	y	89
30811	330198	Ty needs to work on our model before we could start anything anyway.	Ty need to work on our model before we could start anything anyway.	15678791	1472289408752	1472289408816	t	84
30811	330198	Ty needs to work on our model before we could start anything anyway.	Ty need to work on our model before we could start anything anyway.	15678792	1472289408841	1472289408912	h	72
30811	330198	Ty needs to work on our model before we could start anything anyway.	Ty need to work on our model before we could start anything anyway.	15678794	1472289408959	1472289409038	i	73
30811	330198	Ty needs to work on our model before we could start anything anyway.	Ty need to work on our model before we could start anything anyway.	15678797	1472289409047	1472289409137	n	78
30811	330198	Ty needs to work on our model before we could start anything anyway.	Ty need to work on our model before we could start anything anyway.	15678796	1472289409071	1472289409130	g	71
30811	330198	Ty needs to work on our model before we could start anything anyway.	Ty need to work on our model before we could start anything anyway.	15678798	1472289409162	1472289409229	 	32
30811	330198	Ty needs to work on our model before we could start anything anyway.	Ty need to work on our model before we could start anything anyway.	15678799	1472289409222	1472289409294	a	65
30811	330198	Ty needs to work on our model before we could start anything anyway.	Ty need to work on our model before we could start anything anyway.	15678801	1472289409287	1472289409346	n	78
30811	330198	Ty needs to work on our model before we could start anything anyway.	Ty need to work on our model before we could start anything anyway.	15678803	1472289409419	1472289409486	y	89
30811	330198	Ty needs to work on our model before we could start anything anyway.	Ty need to work on our model before we could start anything anyway.	15678807	1472289409452	1472289409514	w	87
30811	330198	Ty needs to work on our model before we could start anything anyway.	Ty need to work on our model before we could start anything anyway.	15678808	1472289409528	1472289409586	a	65
30811	330198	Ty needs to work on our model before we could start anything anyway.	Ty need to work on our model before we could start anything anyway.	15678809	1472289409580	1472289409638	y	89
30811	330198	Ty needs to work on our model before we could start anything anyway.	Ty need to work on our model before we could start anything anyway.	15678810	1472289409760	1472289409826	.	190
30811	330203	Let me know if you can't open it.	Let me know if you can't open it.	15678822	1472289411561	1472289412249	SHIFT	16
30811	330203	Let me know if you can't open it.	Let me know if you can't open it.	15678823	1472289412225	1472289412313	L	76
30811	330203	Let me know if you can't open it.	Let me know if you can't open it.	15678824	1472289412359	1472289412430	e	69
30811	330203	Let me know if you can't open it.	Let me know if you can't open it.	15678825	1472289412501	1472289412568	t	84
30811	330203	Let me know if you can't open it.	Let me know if you can't open it.	15678826	1472289412584	1472289412644	 	32
30811	330203	Let me know if you can't open it.	Let me know if you can't open it.	15678827	1472289412694	1472289412765	m	77
30811	330203	Let me know if you can't open it.	Let me know if you can't open it.	15678841	1472289412770	1472289412833	e	69
30811	330203	Let me know if you can't open it.	Let me know if you can't open it.	15678843	1472289412858	1472289412917	 	32
30811	330203	Let me know if you can't open it.	Let me know if you can't open it.	15678845	1472289412956	1472289413028	k	75
30811	330203	Let me know if you can't open it.	Let me know if you can't open it.	15678846	1472289413111	1472289413181	n	78
30811	330203	Let me know if you can't open it.	Let me know if you can't open it.	15678847	1472289413262	1472289413300	o	79
30811	330203	Let me know if you can't open it.	Let me know if you can't open it.	15678858	1472289413290	1472289413340	w	87
30811	330203	Let me know if you can't open it.	Let me know if you can't open it.	15678859	1472289413410	1472289413485	 	32
30811	330203	Let me know if you can't open it.	Let me know if you can't open it.	15678860	1472289413548	1472289413615	i	73
30811	330203	Let me know if you can't open it.	Let me know if you can't open it.	15678861	1472289413651	1472289413705	f	70
30811	330203	Let me know if you can't open it.	Let me know if you can't open it.	15678862	1472289413710	1472289413765	 	32
30811	330203	Let me know if you can't open it.	Let me know if you can't open it.	15678863	1472289414381	1472289414448	y	89
30811	330203	Let me know if you can't open it.	Let me know if you can't open it.	15678871	1472289414475	1472289414550	o	79
30811	330203	Let me know if you can't open it.	Let me know if you can't open it.	15678873	1472289414554	1472289414610	u	85
30811	330203	Let me know if you can't open it.	Let me know if you can't open it.	15678874	1472289414634	1472289414713	 	32
30811	330203	Let me know if you can't open it.	Let me know if you can't open it.	15678875	1472289414773	1472289414876	c	67
30811	330203	Let me know if you can't open it.	Let me know if you can't open it.	15678876	1472289414894	1472289414961	a	65
30811	330203	Let me know if you can't open it.	Let me know if you can't open it.	15678884	1472289414984	1472289415039	n	78
30811	330203	Let me know if you can't open it.	Let me know if you can't open it.	15678886	1472289415181	1472289415260	'	222
30811	330203	Let me know if you can't open it.	Let me know if you can't open it.	15678888	1472289415280	1472289415351	t	84
30811	330203	Let me know if you can't open it.	Let me know if you can't open it.	15678890	1472289415375	1472289415447	 	32
30811	330203	Let me know if you can't open it.	Let me know if you can't open it.	15678892	1472289415542	1472289415617	o	79
30811	330203	Let me know if you can't open it.	Let me know if you can't open it.	15678904	1472289415701	1472289415761	p	80
30811	330203	Let me know if you can't open it.	Let me know if you can't open it.	15678908	1472289415792	1472289415858	e	69
30811	330203	Let me know if you can't open it.	Let me know if you can't open it.	15678910	1472289415871	1472289415935	n	78
30811	330203	Let me know if you can't open it.	Let me know if you can't open it.	15678914	1472289415961	1472289416020	 	32
30811	330203	Let me know if you can't open it.	Let me know if you can't open it.	15678916	1472289416058	1472289416129	i	73
30811	330203	Let me know if you can't open it.	Let me know if you can't open it.	15678917	1472289416142	1472289416217	t	84
30811	330203	Let me know if you can't open it.	Let me know if you can't open it.	15678918	1472289416227	1472289416302	.	190
30811	330206	I'll keep it in miles.	I'll keep it in miles.	15678968	1472289417931	1472289418355	SHIFT	16
30811	330206	I'll keep it in miles.	I'll keep it in miles.	15678967	1472289418256	1472289418328	I	73
30811	330206	I'll keep it in miles.	I'll keep it in miles.	15678969	1472289418565	1472289418650	'	222
30811	330206	I'll keep it in miles.	I'll keep it in miles.	15678970	1472289418819	1472289418874	l	76
30811	330206	I'll keep it in miles.	I'll keep it in miles.	15678971	1472289418922	1472289418992	l	76
30811	330206	I'll keep it in miles.	I'll keep it in miles.	15678972	1472289419036	1472289419098	 	32
30811	330206	I'll keep it in miles.	I'll keep it in miles.	15678973	1472289419121	1472289419179	k	75
30811	330206	I'll keep it in miles.	I'll keep it in miles.	15678974	1472289419217	1472289419268	e	69
30811	330206	I'll keep it in miles.	I'll keep it in miles.	15678975	1472289419327	1472289419390	e	69
30811	330206	I'll keep it in miles.	I'll keep it in miles.	15678976	1472289419392	1472289419458	p	80
30811	330206	I'll keep it in miles.	I'll keep it in miles.	15678977	1472289419481	1472289419553	 	32
30811	330206	I'll keep it in miles.	I'll keep it in miles.	15678991	1472289419590	1472289419641	i	73
30811	330206	I'll keep it in miles.	I'll keep it in miles.	15678992	1472289419721	1472289419800	n	78
30811	330206	I'll keep it in miles.	I'll keep it in miles.	15678993	1472289419949	1472289420036	BKSP	8
30811	330206	I'll keep it in miles.	I'll keep it in miles.	15678994	1472289420067	1472289420130	t	84
30811	330206	I'll keep it in miles.	I'll keep it in miles.	15678995	1472289420160	1472289420207	 	32
30811	330206	I'll keep it in miles.	I'll keep it in miles.	15678996	1472289420237	1472289420305	i	73
30811	330206	I'll keep it in miles.	I'll keep it in miles.	15679015	1472289420375	1472289420470	n	78
30811	330206	I'll keep it in miles.	I'll keep it in miles.	15679016	1472289420503	1472289420577	 	32
30811	330206	I'll keep it in miles.	I'll keep it in miles.	15679017	1472289420608	1472289420696	m	77
30811	330206	I'll keep it in miles.	I'll keep it in miles.	15679018	1472289420908	1472289421003	i	73
30811	330206	I'll keep it in miles.	I'll keep it in miles.	15679019	1472289421098	1472289421197	l	76
30811	330206	I'll keep it in miles.	I'll keep it in miles.	15679022	1472289421209	1472289421272	e	69
30811	330206	I'll keep it in miles.	I'll keep it in miles.	15679025	1472289421322	1472289421393	s	83
30811	330206	I'll keep it in miles.	I'll keep it in miles.	15679028	1472289421378	1472289421473	.	190
30811	330208	We have lots of forks, etc.	We have lots of forks, etc.	15679086	1472289423943	1472289424170	SHIFT	16
30811	330208	We have lots of forks, etc.	We have lots of forks, etc.	15679084	1472289424059	1472289424147	W	87
30811	330208	We have lots of forks, etc.	We have lots of forks, etc.	15679087	1472289424244	1472289424307	e	69
30811	330208	We have lots of forks, etc.	We have lots of forks, etc.	15679088	1472289424316	1472289424367	 	32
30811	330208	We have lots of forks, etc.	We have lots of forks, etc.	15679089	1472289424413	1472289424480	h	72
30811	330208	We have lots of forks, etc.	We have lots of forks, etc.	15679095	1472289424462	1472289424520	a	65
30811	330208	We have lots of forks, etc.	We have lots of forks, etc.	15679096	1472289424570	1472289424641	v	86
30811	330208	We have lots of forks, etc.	We have lots of forks, etc.	15679097	1472289424626	1472289424708	e	69
30811	330208	We have lots of forks, etc.	We have lots of forks, etc.	15679098	1472289424694	1472289424753	 	32
30811	330208	We have lots of forks, etc.	We have lots of forks, etc.	15679099	1472289424817	1472289424889	l	76
30811	330208	We have lots of forks, etc.	We have lots of forks, etc.	15679101	1472289424951	1472289425042	o	79
30811	330208	We have lots of forks, etc.	We have lots of forks, etc.	15679111	1472289425075	1472289425151	t	84
30811	330208	We have lots of forks, etc.	We have lots of forks, etc.	15679113	1472289425225	1472289425287	s	83
30811	330208	We have lots of forks, etc.	We have lots of forks, etc.	15679114	1472289425296	1472289425348	 	32
30811	330208	We have lots of forks, etc.	We have lots of forks, etc.	15679115	1472289425366	1472289425455	o	79
30811	330208	We have lots of forks, etc.	We have lots of forks, etc.	15679121	1472289425452	1472289425498	f	70
30811	330208	We have lots of forks, etc.	We have lots of forks, etc.	15679122	1472289425537	1472289425608	 	32
30811	330208	We have lots of forks, etc.	We have lots of forks, etc.	15679123	1472289425715	1472289425798	f	70
30811	330208	We have lots of forks, etc.	We have lots of forks, etc.	15679124	1472289425807	1472289425887	o	79
30811	330208	We have lots of forks, etc.	We have lots of forks, etc.	15679125	1472289425895	1472289425955	r	82
30811	330208	We have lots of forks, etc.	We have lots of forks, etc.	15679126	1472289426017	1472289426086	k	75
30811	330208	We have lots of forks, etc.	We have lots of forks, etc.	15679140	1472289426121	1472289426195	s	83
30811	330208	We have lots of forks, etc.	We have lots of forks, etc.	15679142	1472289426326	1472289426425	,	188
30811	330208	We have lots of forks, etc.	We have lots of forks, etc.	15679144	1472289426553	1472289426628	 	32
30811	330208	We have lots of forks, etc.	We have lots of forks, etc.	15679146	1472289426748	1472289426835	e	69
30811	330208	We have lots of forks, etc.	We have lots of forks, etc.	15679147	1472289426877	1472289426928	t	84
30811	330208	We have lots of forks, etc.	We have lots of forks, etc.	15679154	1472289427022	1472289427087	c	67
30811	330208	We have lots of forks, etc.	We have lots of forks, etc.	15679157	1472289427082	1472289427165	.	190
30811	330210	I will call in 20 to 30 minutes.	I will call in 20 to 30 minutes.	15679188	1472289428931	1472289429100	SHIFT	16
30811	330210	I will call in 20 to 30 minutes.	I will call in 20 to 30 minutes.	15679190	1472289429052	1472289429132	I	73
30811	330210	I will call in 20 to 30 minutes.	I will call in 20 to 30 minutes.	15679192	1472289429137	1472289429213	 	32
30811	330210	I will call in 20 to 30 minutes.	I will call in 20 to 30 minutes.	15679194	1472289429208	1472289429276	w	87
30811	330210	I will call in 20 to 30 minutes.	I will call in 20 to 30 minutes.	15679196	1472289429297	1472289429368	i	73
30811	330210	I will call in 20 to 30 minutes.	I will call in 20 to 30 minutes.	15679197	1472289429459	1472289429527	l	76
30811	330210	I will call in 20 to 30 minutes.	I will call in 20 to 30 minutes.	15679204	1472289429579	1472289429658	l	76
30811	330210	I will call in 20 to 30 minutes.	I will call in 20 to 30 minutes.	15679205	1472289429688	1472289429778	 	32
30811	330210	I will call in 20 to 30 minutes.	I will call in 20 to 30 minutes.	15679206	1472289429771	1472289429854	c	67
30811	330210	I will call in 20 to 30 minutes.	I will call in 20 to 30 minutes.	15679207	1472289429847	1472289429927	a	65
30811	330210	I will call in 20 to 30 minutes.	I will call in 20 to 30 minutes.	15679208	1472289429927	1472289429982	l	76
30811	330210	I will call in 20 to 30 minutes.	I will call in 20 to 30 minutes.	15679215	1472289430041	1472289430096	l	76
30811	330210	I will call in 20 to 30 minutes.	I will call in 20 to 30 minutes.	15679218	1472289430116	1472289430195	 	32
30811	330210	I will call in 20 to 30 minutes.	I will call in 20 to 30 minutes.	15679221	1472289430227	1472289430287	i	73
30811	330210	I will call in 20 to 30 minutes.	I will call in 20 to 30 minutes.	15679223	1472289430361	1472289430437	n	78
30811	330210	I will call in 20 to 30 minutes.	I will call in 20 to 30 minutes.	15679225	1472289430463	1472289430534	 	32
30811	330210	I will call in 20 to 30 minutes.	I will call in 20 to 30 minutes.	15679244	1472289430743	1472289430814	2	50
30811	330210	I will call in 20 to 30 minutes.	I will call in 20 to 30 minutes.	15679245	1472289430847	1472289430930	0	48
30811	330210	I will call in 20 to 30 minutes.	I will call in 20 to 30 minutes.	15679246	1472289430948	1472289431029	 	32
30811	330210	I will call in 20 to 30 minutes.	I will call in 20 to 30 minutes.	15679247	1472289431051	1472289431111	t	84
30811	330210	I will call in 20 to 30 minutes.	I will call in 20 to 30 minutes.	15679248	1472289431139	1472289431226	o	79
30811	330210	I will call in 20 to 30 minutes.	I will call in 20 to 30 minutes.	15679253	1472289431260	1472289431347	 	32
30811	330210	I will call in 20 to 30 minutes.	I will call in 20 to 30 minutes.	15679254	1472289431520	1472289431594	3	51
30811	330210	I will call in 20 to 30 minutes.	I will call in 20 to 30 minutes.	15679256	1472289431603	1472289431678	0	48
30811	330210	I will call in 20 to 30 minutes.	I will call in 20 to 30 minutes.	15679258	1472289431679	1472289431727	 	32
30811	330210	I will call in 20 to 30 minutes.	I will call in 20 to 30 minutes.	15679260	1472289431811	1472289431862	m	77
30811	330210	I will call in 20 to 30 minutes.	I will call in 20 to 30 minutes.	15679268	1472289431880	1472289431960	i	73
30811	330210	I will call in 20 to 30 minutes.	I will call in 20 to 30 minutes.	15679269	1472289432005	1472289432084	n	78
30811	330210	I will call in 20 to 30 minutes.	I will call in 20 to 30 minutes.	15679270	1472289432096	1472289432188	u	85
30811	330210	I will call in 20 to 30 minutes.	I will call in 20 to 30 minutes.	15679271	1472289432193	1472289432260	t	84
30811	330210	I will call in 20 to 30 minutes.	I will call in 20 to 30 minutes.	15679272	1472289432297	1472289432356	e	69
30811	330210	I will call in 20 to 30 minutes.	I will call in 20 to 30 minutes.	15679273	1472289432431	1472289432500	.	83
30811	330212	The qualifying continues on the west side of town.	The qualifying continues on the west side of town.	15679295	1472289434173	1472289434369	SHIFT	16
30811	330212	The qualifying continues on the west side of town.	The qualifying continues on the west side of town.	15679291	1472289434313	1472289434361	T	84
30811	330212	The qualifying continues on the west side of town.	The qualifying continues on the west side of town.	15679297	1472289434404	1472289434477	h	72
30811	330212	The qualifying continues on the west side of town.	The qualifying continues on the west side of town.	15679299	1472289434496	1472289434559	e	69
30811	330212	The qualifying continues on the west side of town.	The qualifying continues on the west side of town.	15679301	1472289434588	1472289434663	 	32
30811	330212	The qualifying continues on the west side of town.	The qualifying continues on the west side of town.	15679303	1472289434681	1472289434740	q	81
30811	330212	The qualifying continues on the west side of town.	The qualifying continues on the west side of town.	15679324	1472289434810	1472289434877	u	85
30811	330212	The qualifying continues on the west side of town.	The qualifying continues on the west side of town.	15679326	1472289434928	1472289435000	a	65
30811	330212	The qualifying continues on the west side of town.	The qualifying continues on the west side of town.	15679328	1472289435030	1472289435106	l	76
30811	330212	The qualifying continues on the west side of town.	The qualifying continues on the west side of town.	15679330	1472289435174	1472289435258	i	73
30811	330212	The qualifying continues on the west side of town.	The qualifying continues on the west side of town.	15679332	1472289435932	1472289435991	f	70
30811	330212	The qualifying continues on the west side of town.	The qualifying continues on the west side of town.	15679337	1472289436032	1472289436091	y	89
30811	330212	The qualifying continues on the west side of town.	The qualifying continues on the west side of town.	15679338	1472289436201	1472289436234	i	73
30811	330212	The qualifying continues on the west side of town.	The qualifying continues on the west side of town.	15679340	1472289436310	1472289436410	n	78
30811	330212	The qualifying continues on the west side of town.	The qualifying continues on the west side of town.	15679342	1472289436407	1472289436458	g	71
30811	330212	The qualifying continues on the west side of town.	The qualifying continues on the west side of town.	15679344	1472289436477	1472289436557	 	32
30811	330212	The qualifying continues on the west side of town.	The qualifying continues on the west side of town.	15679352	1472289436603	1472289436662	c	67
30811	330212	The qualifying continues on the west side of town.	The qualifying continues on the west side of town.	15679353	1472289436659	1472289436710	o	79
30811	330212	The qualifying continues on the west side of town.	The qualifying continues on the west side of town.	15679354	1472289436811	1472289436855	n	78
30811	330212	The qualifying continues on the west side of town.	The qualifying continues on the west side of town.	15679355	1472289436873	1472289436944	t	84
30811	330212	The qualifying continues on the west side of town.	The qualifying continues on the west side of town.	15679356	1472289436946	1472289437013	i	73
30811	330212	The qualifying continues on the west side of town.	The qualifying continues on the west side of town.	15679369	1472289437069	1472289437148	n	78
30811	330212	The qualifying continues on the west side of town.	The qualifying continues on the west side of town.	15679371	1472289437162	1472289437236	u	85
30811	330212	The qualifying continues on the west side of town.	The qualifying continues on the west side of town.	15679372	1472289437234	1472289437293	e	69
30811	330212	The qualifying continues on the west side of town.	The qualifying continues on the west side of town.	15679373	1472289437360	1472289437423	s	83
30811	330212	The qualifying continues on the west side of town.	The qualifying continues on the west side of town.	15679375	1472289437412	1472289437472	 	32
30811	330212	The qualifying continues on the west side of town.	The qualifying continues on the west side of town.	15679377	1472289437501	1472289437567	o	79
30811	330212	The qualifying continues on the west side of town.	The qualifying continues on the west side of town.	15679379	1472289437642	1472289437718	n	78
30811	330212	The qualifying continues on the west side of town.	The qualifying continues on the west side of town.	15679381	1472289437730	1472289437786	 	32
30811	330212	The qualifying continues on the west side of town.	The qualifying continues on the west side of town.	15679383	1472289437766	1472289437835	t	84
30811	330212	The qualifying continues on the west side of town.	The qualifying continues on the west side of town.	15679384	1472289437875	1472289437942	h	72
30811	330212	The qualifying continues on the west side of town.	The qualifying continues on the west side of town.	15679389	1472289437902	1472289437959	e	69
30811	330212	The qualifying continues on the west side of town.	The qualifying continues on the west side of town.	15679391	1472289437998	1472289438074	 	32
30811	330212	The qualifying continues on the west side of town.	The qualifying continues on the west side of town.	15679393	1472289438078	1472289438186	w	87
30811	330212	The qualifying continues on the west side of town.	The qualifying continues on the west side of town.	15679395	1472289438264	1472289438351	e	69
30811	330212	The qualifying continues on the west side of town.	The qualifying continues on the west side of town.	15679396	1472289438426	1472289438478	s	83
30811	330212	The qualifying continues on the west side of town.	The qualifying continues on the west side of town.	15679397	1472289438538	1472289438613	t	84
30811	330212	The qualifying continues on the west side of town.	The qualifying continues on the west side of town.	15679403	1472289438638	1472289438721	 	32
30811	330212	The qualifying continues on the west side of town.	The qualifying continues on the west side of town.	15679404	1472289438858	1472289438937	s	83
30811	330212	The qualifying continues on the west side of town.	The qualifying continues on the west side of town.	15679405	1472289438998	1472289439089	i	73
30811	330212	The qualifying continues on the west side of town.	The qualifying continues on the west side of town.	15679406	1472289439078	1472289439133	d	68
30811	330212	The qualifying continues on the west side of town.	The qualifying continues on the west side of town.	15679407	1472289439199	1472289439287	e	69
30811	330212	The qualifying continues on the west side of town.	The qualifying continues on the west side of town.	15679416	1472289439304	1472289439372	 	32
30811	330212	The qualifying continues on the west side of town.	The qualifying continues on the west side of town.	15679418	1472289439395	1472289439482	o	79
30811	330212	The qualifying continues on the west side of town.	The qualifying continues on the west side of town.	15679419	1472289439455	1472289439521	f	70
30811	330212	The qualifying continues on the west side of town.	The qualifying continues on the west side of town.	15679420	1472289439539	1472289439635	 	32
30811	330212	The qualifying continues on the west side of town.	The qualifying continues on the west side of town.	15679422	1472289439734	1472289439822	t	84
30811	330212	The qualifying continues on the west side of town.	The qualifying continues on the west side of town.	15679427	1472289439838	1472289439909	o	79
30811	330212	The qualifying continues on the west side of town.	The qualifying continues on the west side of town.	15679428	1472289439948	1472289440003	w	87
30811	330212	The qualifying continues on the west side of town.	The qualifying continues on the west side of town.	15679430	1472289440029	1472289440104	n	78
30811	330218	The letters of credit were to cover three agreements.	The letters of credit were to cover three agreements.	15679633	1472289440241	1472289449405	.	190
30811	330218	The letters of credit were to cover three agreements.	The letters of credit were to cover three agreements.	15679452	1472289442061	1472289442198	SHIFT	16
30811	330218	The letters of credit were to cover three agreements.	The letters of credit were to cover three agreements.	15679453	1472289442138	1472289442206	T	84
30811	330218	The letters of credit were to cover three agreements.	The letters of credit were to cover three agreements.	15679455	1472289442236	1472289442308	h	72
30811	330218	The letters of credit were to cover three agreements.	The letters of credit were to cover three agreements.	15679457	1472289442316	1472289442374	e	69
30811	330218	The letters of credit were to cover three agreements.	The letters of credit were to cover three agreements.	15679459	1472289442369	1472289442429	 	32
30811	330218	The letters of credit were to cover three agreements.	The letters of credit were to cover three agreements.	15679461	1472289442488	1472289442591	l	76
30811	330218	The letters of credit were to cover three agreements.	The letters of credit were to cover three agreements.	15679469	1472289442527	1472289442595	e	69
30811	330218	The letters of credit were to cover three agreements.	The letters of credit were to cover three agreements.	15679470	1472289442672	1472289442730	t	84
30811	330218	The letters of credit were to cover three agreements.	The letters of credit were to cover three agreements.	15679471	1472289442782	1472289442858	t	84
30811	330218	The letters of credit were to cover three agreements.	The letters of credit were to cover three agreements.	15679473	1472289442911	1472289442975	e	69
30811	330218	The letters of credit were to cover three agreements.	The letters of credit were to cover three agreements.	15679475	1472289443032	1472289443096	r	82
30811	330218	The letters of credit were to cover three agreements.	The letters of credit were to cover three agreements.	15679478	1472289443177	1472289443244	s	83
30811	330218	The letters of credit were to cover three agreements.	The letters of credit were to cover three agreements.	15679485	1472289443248	1472289443283	 	32
30811	330218	The letters of credit were to cover three agreements.	The letters of credit were to cover three agreements.	15679487	1472289443339	1472289443417	o	79
30811	330218	The letters of credit were to cover three agreements.	The letters of credit were to cover three agreements.	15679489	1472289443398	1472289443449	f	70
30811	330218	The letters of credit were to cover three agreements.	The letters of credit were to cover three agreements.	15679491	1472289443471	1472289443574	 	32
30811	330218	The letters of credit were to cover three agreements.	The letters of credit were to cover three agreements.	15679493	1472289443614	1472289443701	c	67
30811	330218	The letters of credit were to cover three agreements.	The letters of credit were to cover three agreements.	15679509	1472289443773	1472289443836	r	82
30811	330218	The letters of credit were to cover three agreements.	The letters of credit were to cover three agreements.	15679510	1472289443903	1472289443971	e	69
30811	330218	The letters of credit were to cover three agreements.	The letters of credit were to cover three agreements.	15679511	1472289444061	1472289444121	d	68
30811	330218	The letters of credit were to cover three agreements.	The letters of credit were to cover three agreements.	15679512	1472289444139	1472289444222	i	73
30811	330218	The letters of credit were to cover three agreements.	The letters of credit were to cover three agreements.	15679513	1472289444223	1472289444287	t	84
30811	330218	The letters of credit were to cover three agreements.	The letters of credit were to cover three agreements.	15679519	1472289444317	1472289444412	 	32
30811	330218	The letters of credit were to cover three agreements.	The letters of credit were to cover three agreements.	15679521	1472289444401	1472289444472	w	87
30811	330218	The letters of credit were to cover three agreements.	The letters of credit were to cover three agreements.	15679524	1472289444536	1472289444607	e	69
30811	330218	The letters of credit were to cover three agreements.	The letters of credit were to cover three agreements.	15679527	1472289444672	1472289444744	r	82
30811	330218	The letters of credit were to cover three agreements.	The letters of credit were to cover three agreements.	15679532	1472289444824	1472289444883	e	69
30811	330218	The letters of credit were to cover three agreements.	The letters of credit were to cover three agreements.	15679542	1472289444908	1472289444968	 	32
30811	330218	The letters of credit were to cover three agreements.	The letters of credit were to cover three agreements.	15679543	1472289444957	1472289445032	t	84
30811	330218	The letters of credit were to cover three agreements.	The letters of credit were to cover three agreements.	15679544	1472289445073	1472289445149	o	79
30811	330218	The letters of credit were to cover three agreements.	The letters of credit were to cover three agreements.	15679545	1472289445150	1472289445237	 	32
30811	330218	The letters of credit were to cover three agreements.	The letters of credit were to cover three agreements.	15679546	1472289445260	1472289445326	c	67
30811	330218	The letters of credit were to cover three agreements.	The letters of credit were to cover three agreements.	15679551	1472289445352	1472289445456	o	79
30811	330218	The letters of credit were to cover three agreements.	The letters of credit were to cover three agreements.	15679553	1472289445458	1472289445524	v	86
30811	330218	The letters of credit were to cover three agreements.	The letters of credit were to cover three agreements.	15679554	1472289445579	1472289445654	e	69
30811	330218	The letters of credit were to cover three agreements.	The letters of credit were to cover three agreements.	15679555	1472289445718	1472289445786	r	82
30811	330218	The letters of credit were to cover three agreements.	The letters of credit were to cover three agreements.	15679557	1472289445805	1472289445881	 	32
30811	330218	The letters of credit were to cover three agreements.	The letters of credit were to cover three agreements.	15679568	1472289445933	1472289446000	t	84
30811	330218	The letters of credit were to cover three agreements.	The letters of credit were to cover three agreements.	15679569	1472289446017	1472289446095	h	72
30811	330218	The letters of credit were to cover three agreements.	The letters of credit were to cover three agreements.	15679570	1472289446088	1472289446155	r	82
30811	330218	The letters of credit were to cover three agreements.	The letters of credit were to cover three agreements.	15679571	1472289446361	1472289446424	e	69
30811	330218	The letters of credit were to cover three agreements.	The letters of credit were to cover three agreements.	15679572	1472289446665	1472289446764	BKSP	8
30811	330218	The letters of credit were to cover three agreements.	The letters of credit were to cover three agreements.	15679573	1472289446786	1472289446877	r	82
30811	330218	The letters of credit were to cover three agreements.	The letters of credit were to cover three agreements.	15679591	1472289447193	1472289447269	BKSP	8
30811	330218	The letters of credit were to cover three agreements.	The letters of credit were to cover three agreements.	15679593	1472289447288	1472289447363	e	69
30811	330218	The letters of credit were to cover three agreements.	The letters of credit were to cover three agreements.	15679594	1472289447428	1472289447496	e	69
30811	330218	The letters of credit were to cover three agreements.	The letters of credit were to cover three agreements.	15679596	1472289447571	1472289447655	 	32
30811	330218	The letters of credit were to cover three agreements.	The letters of credit were to cover three agreements.	15679597	1472289447678	1472289447759	a	65
30811	330218	The letters of credit were to cover three agreements.	The letters of credit were to cover three agreements.	15679599	1472289447867	1472289447931	r	82
30811	330218	The letters of credit were to cover three agreements.	The letters of credit were to cover three agreements.	15679606	1472289448395	1472289448483	BKSP	8
30811	330218	The letters of credit were to cover three agreements.	The letters of credit were to cover three agreements.	15679607	1472289448500	1472289448576	g	71
30811	330218	The letters of credit were to cover three agreements.	The letters of credit were to cover three agreements.	15679608	1472289448582	1472289448656	r	82
30811	330218	The letters of credit were to cover three agreements.	The letters of credit were to cover three agreements.	15679609	1472289448741	1472289448780	e	69
30811	330218	The letters of credit were to cover three agreements.	The letters of credit were to cover three agreements.	15679610	1472289448864	1472289448920	e	69
30811	330218	The letters of credit were to cover three agreements.	The letters of credit were to cover three agreements.	15679611	1472289448949	1472289449029	m	77
30811	330218	The letters of credit were to cover three agreements.	The letters of credit were to cover three agreements.	15679621	1472289449028	1472289449072	e	69
30811	330218	The letters of credit were to cover three agreements.	The letters of credit were to cover three agreements.	15679624	1472289449117	1472289449188	n	78
30811	330218	The letters of credit were to cover three agreements.	The letters of credit were to cover three agreements.	15679627	1472289449157	1472289449211	t	84
30811	330218	The letters of credit were to cover three agreements.	The letters of credit were to cover three agreements.	15679630	1472289449281	1472289449340	s	83
30811	330221	Please leave it to Brian.	Please leave it to Brian.	15679666	1472289451246	1472289451401	SHIFT	16
30811	330221	Please leave it to Brian.	Please leave it to Brian.	15679668	1472289451335	1472289451402	P	80
30811	330221	Please leave it to Brian.	Please leave it to Brian.	15679669	1472289451479	1472289451569	l	76
30811	330221	Please leave it to Brian.	Please leave it to Brian.	15679670	1472289451506	1472289451581	e	69
30811	330221	Please leave it to Brian.	Please leave it to Brian.	15679671	1472289451613	1472289451689	a	65
30811	330221	Please leave it to Brian.	Please leave it to Brian.	15679673	1472289451709	1472289451761	s	83
30811	330221	Please leave it to Brian.	Please leave it to Brian.	15679691	1472289451905	1472289451961	 	32
30811	330221	Please leave it to Brian.	Please leave it to Brian.	15679692	1472289452013	1472289452124	l	76
30811	330221	Please leave it to Brian.	Please leave it to Brian.	15679693	1472289452096	1472289452152	e	69
30811	330221	Please leave it to Brian.	Please leave it to Brian.	15679694	1472289452311	1472289452363	BKSP	8
30811	330221	Please leave it to Brian.	Please leave it to Brian.	15679695	1472289452451	1472289452507	BKSP	8
30811	330221	Please leave it to Brian.	Please leave it to Brian.	15679696	1472289452569	1472289452628	BKSP	8
30811	330221	Please leave it to Brian.	Please leave it to Brian.	15679697	1472289452773	1472289452817	e	69
30811	330221	Please leave it to Brian.	Please leave it to Brian.	15679698	1472289453041	1472289453104	 	32
30811	330221	Please leave it to Brian.	Please leave it to Brian.	15679700	1472289453171	1472289453270	l	76
30811	330221	Please leave it to Brian.	Please leave it to Brian.	15679702	1472289453219	1472289453303	e	69
30811	330221	Please leave it to Brian.	Please leave it to Brian.	15679704	1472289453329	1472289453405	a	65
30811	330221	Please leave it to Brian.	Please leave it to Brian.	15679707	1472289453424	1472289453528	v	86
30811	330221	Please leave it to Brian.	Please leave it to Brian.	15679710	1472289453532	1472289453591	e	69
30811	330221	Please leave it to Brian.	Please leave it to Brian.	15679719	1472289453556	1472289453632	 	32
30811	330221	Please leave it to Brian.	Please leave it to Brian.	15679721	1472289453650	1472289453730	i	73
30811	330221	Please leave it to Brian.	Please leave it to Brian.	15679723	1472289453718	1472289453788	t	84
30811	330221	Please leave it to Brian.	Please leave it to Brian.	15679724	1472289453798	1472289453882	 	32
30811	330221	Please leave it to Brian.	Please leave it to Brian.	15679725	1472289453899	1472289453970	t	84
30811	330221	Please leave it to Brian.	Please leave it to Brian.	15679726	1472289453984	1472289454070	o	79
30811	330221	Please leave it to Brian.	Please leave it to Brian.	15679732	1472289454083	1472289454155	 	32
30811	330221	Please leave it to Brian.	Please leave it to Brian.	15679733	1472289454175	1472289454315	SHIFT	16
30811	330221	Please leave it to Brian.	Please leave it to Brian.	15679734	1472289454279	1472289454347	B	66
30811	330221	Please leave it to Brian.	Please leave it to Brian.	15679736	1472289454379	1472289454438	r	82
30811	330221	Please leave it to Brian.	Please leave it to Brian.	15679738	1472289454615	1472289454699	i	73
30811	330221	Please leave it to Brian.	Please leave it to Brian.	15679741	1472289454703	1472289454766	a	65
30811	330221	Please leave it to Brian.	Please leave it to Brian.	15679746	1472289454844	1472289454920	n	78
30811	330224	OK to make changes, change out original.	OK to make changes, change out original.	15679778	1472289456677	1472289457163	SHIFT	16
30811	330224	OK to make changes, change out original.	OK to make changes, change out original.	15679776	1472289456800	1472289456899	O	79
30811	330224	OK to make changes, change out original.	OK to make changes, change out original.	15679777	1472289456961	1472289457068	K	75
30811	330224	OK to make changes, change out original.	OK to make changes, change out original.	15679779	1472289457149	1472289457244	 	32
30811	330224	OK to make changes, change out original.	OK to make changes, change out original.	15679780	1472289457416	1472289457498	t	84
30811	330224	OK to make changes, change out original.	OK to make changes, change out original.	15679781	1472289457508	1472289457587	o	79
30811	330224	OK to make changes, change out original.	OK to make changes, change out original.	15679782	1472289457583	1472289457650	 	32
30811	330224	OK to make changes, change out original.	OK to make changes, change out original.	15679783	1472289457698	1472289457772	m	77
30811	330224	OK to make changes, change out original.	OK to make changes, change out original.	15679784	1472289457765	1472289457829	a	65
30811	330224	OK to make changes, change out original.	OK to make changes, change out original.	15679785	1472289457867	1472289457958	k	75
30811	330224	OK to make changes, change out original.	OK to make changes, change out original.	15679786	1472289457943	1472289458015	e	69
30811	330224	OK to make changes, change out original.	OK to make changes, change out original.	15679787	1472289458037	1472289458129	 	32
30811	330224	OK to make changes, change out original.	OK to make changes, change out original.	15679788	1472289458196	1472289458283	c	67
30811	330224	OK to make changes, change out original.	OK to make changes, change out original.	15679789	1472289458313	1472289458387	h	72
30811	330224	OK to make changes, change out original.	OK to make changes, change out original.	15679790	1472289458392	1472289458464	a	65
30811	330224	OK to make changes, change out original.	OK to make changes, change out original.	15679791	1472289458485	1472289458588	n	78
30811	330224	OK to make changes, change out original.	OK to make changes, change out original.	15679793	1472289458562	1472289458624	c	67
30811	330224	OK to make changes, change out original.	OK to make changes, change out original.	15679795	1472289458715	1472289458809	e	69
30811	330224	OK to make changes, change out original.	OK to make changes, change out original.	15679797	1472289459139	1472289459190	BKSP	8
30811	330224	OK to make changes, change out original.	OK to make changes, change out original.	15679799	1472289459271	1472289459334	BKSP	8
30811	330224	OK to make changes, change out original.	OK to make changes, change out original.	15679801	1472289459359	1472289459455	g	71
30811	330224	OK to make changes, change out original.	OK to make changes, change out original.	15679803	1472289459502	1472289459573	e	69
30811	330224	OK to make changes, change out original.	OK to make changes, change out original.	15679804	1472289459657	1472289459732	s	83
30811	330224	OK to make changes, change out original.	OK to make changes, change out original.	15679810	1472289459722	1472289459820	,	188
30811	330224	OK to make changes, change out original.	OK to make changes, change out original.	15679812	1472289459833	1472289459917	 	32
30811	330224	OK to make changes, change out original.	OK to make changes, change out original.	15679814	1472289460215	1472289460306	c	67
30811	330224	OK to make changes, change out original.	OK to make changes, change out original.	15679815	1472289460311	1472289460378	h	72
30811	330224	OK to make changes, change out original.	OK to make changes, change out original.	15679816	1472289460383	1472289460459	a	65
30811	330224	OK to make changes, change out original.	OK to make changes, change out original.	15679817	1472289460506	1472289460604	n	78
30811	330224	OK to make changes, change out original.	OK to make changes, change out original.	15679832	1472289460690	1472289460757	e	69
30811	330224	OK to make changes, change out original.	OK to make changes, change out original.	15679833	1472289460983	1472289461043	BKSP	8
30811	330224	OK to make changes, change out original.	OK to make changes, change out original.	15679834	1472289461073	1472289461144	g	71
30811	330224	OK to make changes, change out original.	OK to make changes, change out original.	15679835	1472289461157	1472289461244	e	69
30811	330224	OK to make changes, change out original.	OK to make changes, change out original.	15679836	1472289461250	1472289461328	 	32
30811	330224	OK to make changes, change out original.	OK to make changes, change out original.	15679837	1472289461367	1472289461430	o	79
30811	330224	OK to make changes, change out original.	OK to make changes, change out original.	15679841	1472289461509	1472289461584	u	85
30811	330224	OK to make changes, change out original.	OK to make changes, change out original.	15679843	1472289461581	1472289461644	t	84
30811	330224	OK to make changes, change out original.	OK to make changes, change out original.	15679844	1472289461634	1472289461709	 	32
30811	330224	OK to make changes, change out original.	OK to make changes, change out original.	15679845	1472289461823	1472289461910	o	79
30811	330224	OK to make changes, change out original.	OK to make changes, change out original.	15679846	1472289461912	1472289461978	r	82
30811	330224	OK to make changes, change out original.	OK to make changes, change out original.	15679855	1472289462024	1472289462101	i	73
30811	330224	OK to make changes, change out original.	OK to make changes, change out original.	15679857	1472289462110	1472289462189	g	71
30811	330224	OK to make changes, change out original.	OK to make changes, change out original.	15679859	1472289462220	1472289462295	i	73
30811	330224	OK to make changes, change out original.	OK to make changes, change out original.	15679861	1472289462366	1472289462436	n	78
30811	330224	OK to make changes, change out original.	OK to make changes, change out original.	15679868	1472289462429	1472289462492	a	65
30811	330224	OK to make changes, change out original.	OK to make changes, change out original.	15679869	1472289462530	1472289462613	l	76
30811	330227	He was in great shape last night.	He was in great shape last night.	15679900	1472289464446	1472289464578	SHIFT	16
30811	330227	He was in great shape last night.	He was in great shape last night.	15679901	1472289464555	1472289464622	H	72
30811	330227	He was in great shape last night.	He was in great shape last night.	15679902	1472289464643	1472289464698	e	69
30811	330227	He was in great shape last night.	He was in great shape last night.	15679903	1472289464730	1472289464805	 	32
30811	330227	He was in great shape last night.	He was in great shape last night.	15679904	1472289464886	1472289464973	w	87
30811	330227	He was in great shape last night.	He was in great shape last night.	15679905	1472289464998	1472289465072	a	65
30811	330227	He was in great shape last night.	He was in great shape last night.	15679912	1472289465119	1472289465190	s	83
30811	330227	He was in great shape last night.	He was in great shape last night.	15679913	1472289465199	1472289465270	 	32
30811	330227	He was in great shape last night.	He was in great shape last night.	15679914	1472289465316	1472289465371	i	73
30811	330227	He was in great shape last night.	He was in great shape last night.	15679915	1472289465454	1472289465514	n	78
30811	330227	He was in great shape last night.	He was in great shape last night.	15679916	1472289465523	1472289465605	 	32
30811	330227	He was in great shape last night.	He was in great shape last night.	15679923	1472289465610	1472289465702	g	71
30811	330227	He was in great shape last night.	He was in great shape last night.	15679924	1472289465726	1472289465773	r	82
30811	330227	He was in great shape last night.	He was in great shape last night.	15679925	1472289465821	1472289465944	e	69
30811	330227	He was in great shape last night.	He was in great shape last night.	15679926	1472289465952	1472289466043	a	65
30811	330227	He was in great shape last night.	He was in great shape last night.	15679927	1472289466099	1472289466161	t	84
30811	330227	He was in great shape last night.	He was in great shape last night.	15679940	1472289466189	1472289466275	 	32
30811	330227	He was in great shape last night.	He was in great shape last night.	15679942	1472289466458	1472289466542	s	83
30811	330227	He was in great shape last night.	He was in great shape last night.	15679944	1472289466574	1472289466649	h	72
30811	330227	He was in great shape last night.	He was in great shape last night.	15679946	1472289466654	1472289466717	a	65
30811	330227	He was in great shape last night.	He was in great shape last night.	15679948	1472289466810	1472289466908	p	80
30811	330227	He was in great shape last night.	He was in great shape last night.	15679950	1472289466917	1472289466981	e	69
30811	330227	He was in great shape last night.	He was in great shape last night.	15679951	1472289467002	1472289467082	 	32
30811	330227	He was in great shape last night.	He was in great shape last night.	15679952	1472289467145	1472289467249	l	76
30811	330227	He was in great shape last night.	He was in great shape last night.	15679953	1472289467221	1472289467276	a	65
30811	330227	He was in great shape last night.	He was in great shape last night.	15679954	1472289467314	1472289467381	s	83
30811	330227	He was in great shape last night.	He was in great shape last night.	15679967	1472289467448	1472289467525	t	84
30811	330227	He was in great shape last night.	He was in great shape last night.	15679969	1472289467520	1472289467571	 	32
30811	330227	He was in great shape last night.	He was in great shape last night.	15679972	1472289467633	1472289467716	n	78
30811	330227	He was in great shape last night.	He was in great shape last night.	15679974	1472289467765	1472289467857	i	73
30811	330227	He was in great shape last night.	He was in great shape last night.	15679978	1472289467841	1472289467864	g	71
30811	330227	He was in great shape last night.	He was in great shape last night.	15679979	1472289467912	1472289467994	h	72
30811	330227	He was in great shape last night.	He was in great shape last night.	15679980	1472289467963	1472289468055	t	84
