PARTICIPANT_ID	TEST_SECTION_ID	SENTENCE	USER_INPUT	KEYSTROKE_ID	PRESS_TIME	RELEASE_TIME	LETTER	KEYCODE
308925	3323899	Hours are listed in 24hr format central time.	Hours are listed in 24hr format central time.	157935642	1476239071448	1476239071560	CAPS_LOCK	20
308925	3323899	Hours are listed in 24hr format central time.	Hours are listed in 24hr format central time.	157935646	1476239071623	1476239071727	H	72
308925	3323899	Hours are listed in 24hr format central time.	Hours are listed in 24hr format central time.	157935650	1476239071742	1476239071875	CAPS_LOCK	20
308925	3323899	Hours are listed in 24hr format central time.	Hours are listed in 24hr format central time.	157935652	1476239071852	1476239071956	o	79
308925	3323899	Hours are listed in 24hr format central time.	Hours are listed in 24hr format central time.	157935653	1476239072056	1476239072171	u	85
308925	3323899	Hours are listed in 24hr format central time.	Hours are listed in 24hr format central time.	157935654	1476239072164	1476239072259	r	82
308925	3323899	Hours are listed in 24hr format central time.	Hours are listed in 24hr format central time.	157935655	1476239072385	1476239072499	s	83
308925	3323899	Hours are listed in 24hr format central time.	Hours are listed in 24hr format central time.	157936763	1476239103469	1476239103536	CAPS_LOCK	20
308925	3323899	Hours are listed in 24hr format central time.	Hours are listed in 24hr format central time.	157936765	1476239103501	1476239103588	H	72
308925	3323899	Hours are listed in 24hr format central time.	Hours are listed in 24hr format central time.	157936768	1476239103667	1476239103791	CAPS_LOCK	20
308925	3323899	Hours are listed in 24hr format central time.	Hours are listed in 24hr format central time.	157936772	1476239103746	1476239103822	o	79
308925	3323899	Hours are listed in 24hr format central time.	Hours are listed in 24hr format central time.	157936776	1476239103916	1476239104021	u	85
308925	3323899	Hours are listed in 24hr format central time.	Hours are listed in 24hr format central time.	157936781	1476239103989	1476239104088	r	82
308925	3323899	Hours are listed in 24hr format central time.	Hours are listed in 24hr format central time.	157936786	1476239104197	1476239104294	s	83
308925	3323899	Hours are listed in 24hr format central time.	Hours are listed in 24hr format central time.	157936795	1476239104272	1476239104401	 	32
308925	3323899	Hours are listed in 24hr format central time.	Hours are listed in 24hr format central time.	157936797	1476239104401	1476239104504	a	65
308925	3323899	Hours are listed in 24hr format central time.	Hours are listed in 24hr format central time.	157936798	1476239104600	1476239104672	r	82
308925	3323899	Hours are listed in 24hr format central time.	Hours are listed in 24hr format central time.	157936802	1476239104734	1476239104882	e	69
308925	3323899	Hours are listed in 24hr format central time.	Hours are listed in 24hr format central time.	157936800	1476239104790	1476239104848	 	32
308925	3323899	Hours are listed in 24hr format central time.	Hours are listed in 24hr format central time.	157936804	1476239104940	1476239105036	l	76
308925	3323899	Hours are listed in 24hr format central time.	Hours are listed in 24hr format central time.	157936810	1476239105115	1476239105238	i	73
308925	3323899	Hours are listed in 24hr format central time.	Hours are listed in 24hr format central time.	157936811	1476239105173	1476239105279	s	83
308925	3323899	Hours are listed in 24hr format central time.	Hours are listed in 24hr format central time.	157936812	1476239105382	1476239105486	t	84
308925	3323899	Hours are listed in 24hr format central time.	Hours are listed in 24hr format central time.	157936871	1476239105568	1476239105720	e	69
308925	3323899	Hours are listed in 24hr format central time.	Hours are listed in 24hr format central time.	157936814	1476239105640	1476239105705	n	78
308925	3323899	Hours are listed in 24hr format central time.	Hours are listed in 24hr format central time.	157936876	1476239105782	1476239105885	 	32
308925	3323899	Hours are listed in 24hr format central time.	Hours are listed in 24hr format central time.	157936882	1476239106052	1476239106107	i	73
308925	3323899	Hours are listed in 24hr format central time.	Hours are listed in 24hr format central time.	157936886	1476239106311	1476239106387	BKSP	8
308925	3323899	Hours are listed in 24hr format central time.	Hours are listed in 24hr format central time.	157936890	1476239106450	1476239106517	BKSP	8
308925	3323899	Hours are listed in 24hr format central time.	Hours are listed in 24hr format central time.	157936894	1476239106608	1476239106671	BKSP	8
308925	3323899	Hours are listed in 24hr format central time.	Hours are listed in 24hr format central time.	157936897	1476239106782	1476239106883	d	68
308925	3323899	Hours are listed in 24hr format central time.	Hours are listed in 24hr format central time.	157936899	1476239106899	1476239106986	 	32
308925	3323899	Hours are listed in 24hr format central time.	Hours are listed in 24hr format central time.	157936900	1476239107040	1476239107136	i	73
308925	3323899	Hours are listed in 24hr format central time.	Hours are listed in 24hr format central time.	157937118	1476239113519	1476239113610	CAPS_LOCK	20
308925	3323899	Hours are listed in 24hr format central time.	Hours are listed in 24hr format central time.	157937120	1476239113610	1476239113697	H	72
308925	3323899	Hours are listed in 24hr format central time.	Hours are listed in 24hr format central time.	157937124	1476239113744	1476239113882	CAPS_LOCK	20
308925	3323899	Hours are listed in 24hr format central time.	Hours are listed in 24hr format central time.	157937128	1476239113807	1476239113929	o	79
308925	3323899	Hours are listed in 24hr format central time.	Hours are listed in 24hr format central time.	157937133	1476239114007	1476239114093	u	85
308925	3323899	Hours are listed in 24hr format central time.	Hours are listed in 24hr format central time.	157937136	1476239114067	1476239114164	r	82
308925	3323899	Hours are listed in 24hr format central time.	Hours are listed in 24hr format central time.	157937142	1476239114274	1476239114368	s	83
308925	3323899	Hours are listed in 24hr format central time.	Hours are listed in 24hr format central time.	157937165	1476239114332	1476239114450	 	32
308925	3323899	Hours are listed in 24hr format central time.	Hours are listed in 24hr format central time.	157937167	1476239114483	1476239114582	a	65
308925	3323899	Hours are listed in 24hr format central time.	Hours are listed in 24hr format central time.	157937171	1476239114713	1476239114765	r	82
308925	3323899	Hours are listed in 24hr format central time.	Hours are listed in 24hr format central time.	157937179	1476239114832	1476239114967	e	69
308925	3323899	Hours are listed in 24hr format central time.	Hours are listed in 24hr format central time.	157937175	1476239114878	1476239114936	 	32
308925	3323899	Hours are listed in 24hr format central time.	Hours are listed in 24hr format central time.	157937183	1476239115030	1476239115113	l	76
308925	3323899	Hours are listed in 24hr format central time.	Hours are listed in 24hr format central time.	157937202	1476239115200	1476239115295	i	73
308925	3323899	Hours are listed in 24hr format central time.	Hours are listed in 24hr format central time.	157937207	1476239115249	1476239115330	s	83
308925	3323899	Hours are listed in 24hr format central time.	Hours are listed in 24hr format central time.	157937212	1476239115437	1476239115535	t	84
308925	3323899	Hours are listed in 24hr format central time.	Hours are listed in 24hr format central time.	157937219	1476239115610	1476239115711	e	69
308925	3323899	Hours are listed in 24hr format central time.	Hours are listed in 24hr format central time.	157937223	1476239115784	1476239115929	d	68
308925	3323899	Hours are listed in 24hr format central time.	Hours are listed in 24hr format central time.	157937276	1476239115849	1476239115935	 	32
308925	3323899	Hours are listed in 24hr format central time.	Hours are listed in 24hr format central time.	157937279	1476239116004	1476239116096	i	73
308925	3323899	Hours are listed in 24hr format central time.	Hours are listed in 24hr format central time.	157937282	1476239116158	1476239116233	n	78
308925	3323899	Hours are listed in 24hr format central time.	Hours are listed in 24hr format central time.	157937284	1476239116311	1476239116427	 	32
308925	3323899	Hours are listed in 24hr format central time.	Hours are listed in 24hr format central time.	157937285	1476239116914	1476239117103	2	50
308925	3323899	Hours are listed in 24hr format central time.	Hours are listed in 24hr format central time.	157937330	1476239117089	1476239117163	4	52
308925	3323899	Hours are listed in 24hr format central time.	Hours are listed in 24hr format central time.	157937333	1476239117475	1476239117648	h	72
308925	3323899	Hours are listed in 24hr format central time.	Hours are listed in 24hr format central time.	157937336	1476239117898	1476239118005	 	32
308925	3323899	Hours are listed in 24hr format central time.	Hours are listed in 24hr format central time.	157937339	1476239118380	1476239118501	f	70
308925	3323899	Hours are listed in 24hr format central time.	Hours are listed in 24hr format central time.	157937341	1476239118478	1476239118613	o	79
308925	3323899	Hours are listed in 24hr format central time.	Hours are listed in 24hr format central time.	157937437	1476239118609	1476239118729	r	82
308925	3323899	Hours are listed in 24hr format central time.	Hours are listed in 24hr format central time.	157937440	1476239118760	1476239118908	m	77
308925	3323899	Hours are listed in 24hr format central time.	Hours are listed in 24hr format central time.	157937443	1476239119095	1476239119162	BKSP	8
308925	3323899	Hours are listed in 24hr format central time.	Hours are listed in 24hr format central time.	157937447	1476239119224	1476239119295	BKSP	8
308925	3323899	Hours are listed in 24hr format central time.	Hours are listed in 24hr format central time.	157937452	1476239119373	1476239119431	BKSP	8
308925	3323899	Hours are listed in 24hr format central time.	Hours are listed in 24hr format central time.	157937455	1476239119678	1476239119748	BKSP	8
308925	3323899	Hours are listed in 24hr format central time.	Hours are listed in 24hr format central time.	157937458	1476239119859	1476239119915	BKSP	8
308925	3323899	Hours are listed in 24hr format central time.	Hours are listed in 24hr format central time.	157937460	1476239119998	1476239120046	BKSP	8
308925	3323899	Hours are listed in 24hr format central time.	Hours are listed in 24hr format central time.	157937461	1476239120563	1476239120658	h	72
308925	3323899	Hours are listed in 24hr format central time.	Hours are listed in 24hr format central time.	157937462	1476239120709	1476239120823	r	82
308925	3323899	Hours are listed in 24hr format central time.	Hours are listed in 24hr format central time.	157937463	1476239120798	1476239120923	 	32
308925	3323899	Hours are listed in 24hr format central time.	Hours are listed in 24hr format central time.	157937465	1476239120970	1476239121079	f	70
308925	3323899	Hours are listed in 24hr format central time.	Hours are listed in 24hr format central time.	157937468	1476239121060	1476239121188	o	79
308925	3323899	Hours are listed in 24hr format central time.	Hours are listed in 24hr format central time.	157937470	1476239121180	1476239121275	r	82
308925	3323899	Hours are listed in 24hr format central time.	Hours are listed in 24hr format central time.	157937474	1476239121322	1476239121456	m	77
308925	3323899	Hours are listed in 24hr format central time.	Hours are listed in 24hr format central time.	157937477	1476239121456	1476239121571	a	65
308925	3323899	Hours are listed in 24hr format central time.	Hours are listed in 24hr format central time.	157937479	1476239121696	1476239121800	t	84
308925	3323899	Hours are listed in 24hr format central time.	Hours are listed in 24hr format central time.	157937496	1476239121763	1476239121877	 	32
308925	3323899	Hours are listed in 24hr format central time.	Hours are listed in 24hr format central time.	157937497	1476239121939	1476239122025	c	67
308925	3323899	Hours are listed in 24hr format central time.	Hours are listed in 24hr format central time.	157937498	1476239122134	1476239122269	e	69
308925	3323899	Hours are listed in 24hr format central time.	Hours are listed in 24hr format central time.	157937499	1476239122216	1476239122349	n	78
308925	3323899	Hours are listed in 24hr format central time.	Hours are listed in 24hr format central time.	157937500	1476239122364	1476239122421	t	84
308925	3323899	Hours are listed in 24hr format central time.	Hours are listed in 24hr format central time.	157937501	1476239122694	1476239122803	r	82
308925	3323899	Hours are listed in 24hr format central time.	Hours are listed in 24hr format central time.	157937521	1476239122952	1476239123108	a	65
308925	3323899	Hours are listed in 24hr format central time.	Hours are listed in 24hr format central time.	157937526	1476239123010	1476239123124	l	76
308925	3323899	Hours are listed in 24hr format central time.	Hours are listed in 24hr format central time.	157937530	1476239123202	1476239123297	 	32
308925	3323899	Hours are listed in 24hr format central time.	Hours are listed in 24hr format central time.	157937533	1476239123344	1476239123459	t	84
308925	3323899	Hours are listed in 24hr format central time.	Hours are listed in 24hr format central time.	157937566	1476239123392	1476239123490	i	73
308925	3323899	Hours are listed in 24hr format central time.	Hours are listed in 24hr format central time.	157937568	1476239123680	1476239123786	m	77
308925	3323899	Hours are listed in 24hr format central time.	Hours are listed in 24hr format central time.	157937571	1476239123849	1476239123983	e	69
308925	3323899	Hours are listed in 24hr format central time.	Hours are listed in 24hr format central time.	157937572	1476239123925	1476239124066	.	190
308925	3323941	Take what you can get.	Take what you can get.	157937649	1476239126207	1476239126301	CAPS_LOCK	20
308925	3323941	Take what you can get.	Take what you can get.	157937652	1476239126446	1476239126504	T	84
308925	3323941	Take what you can get.	Take what you can get.	157937655	1476239126585	1476239126754	CAPS_LOCK	20
308925	3323941	Take what you can get.	Take what you can get.	157937660	1476239126741	1476239126832	k	75
308925	3323941	Take what you can get.	Take what you can get.	157937663	1476239126832	1476239126953	a	65
308925	3323941	Take what you can get.	Take what you can get.	157937666	1476239127121	1476239127174	BKSP	8
308925	3323941	Take what you can get.	Take what you can get.	157937668	1476239127236	1476239127306	BKSP	8
308925	3323941	Take what you can get.	Take what you can get.	157937670	1476239127321	1476239127440	a	65
308925	3323941	Take what you can get.	Take what you can get.	157937675	1476239127420	1476239127527	k	75
308925	3323941	Take what you can get.	Take what you can get.	157937678	1476239127546	1476239127640	e	69
308925	3323941	Take what you can get.	Take what you can get.	157937682	1476239127622	1476239127703	 	32
308925	3323941	Take what you can get.	Take what you can get.	157937685	1476239127718	1476239127846	w	87
308925	3323941	Take what you can get.	Take what you can get.	157937687	1476239127805	1476239127920	h	72
308925	3323941	Take what you can get.	Take what you can get.	157937690	1476239127936	1476239128006	a	65
308925	3323941	Take what you can get.	Take what you can get.	157937704	1476239128144	1476239128257	t	84
308925	3323941	Take what you can get.	Take what you can get.	157937706	1476239128190	1476239128279	 	32
308925	3323941	Take what you can get.	Take what you can get.	157937711	1476239128372	1476239128485	y	89
308925	3323941	Take what you can get.	Take what you can get.	157937716	1476239128470	1476239128582	o	79
308925	3323941	Take what you can get.	Take what you can get.	157937732	1476239128570	1476239128653	u	85
308925	3323941	Take what you can get.	Take what you can get.	157937733	1476239128700	1476239128797	 	32
308925	3323941	Take what you can get.	Take what you can get.	157937734	1476239128812	1476239128919	c	67
308925	3323941	Take what you can get.	Take what you can get.	157937740	1476239129029	1476239129153	a	65
308925	3323941	Take what you can get.	Take what you can get.	157937736	1476239129076	1476239129138	n	78
308925	3323941	Take what you can get.	Take what you can get.	157937744	1476239129216	1476239129288	 	32
308925	3323941	Take what you can get.	Take what you can get.	157937761	1476239129377	1476239129505	g	71
308925	3323941	Take what you can get.	Take what you can get.	157937763	1476239129453	1476239129552	e	69
308925	3323941	Take what you can get.	Take what you can get.	157937766	1476239129625	1476239129780	t	84
308925	3323941	Take what you can get.	Take what you can get.	157937769	1476239129687	1476239129812	.	190
308925	3323947	I am sorry you had to come in.	I am sorry you had to come in.	157937880	1476239131699	1476239131798	CAPS_LOCK	20
308925	3323947	I am sorry you had to come in.	I am sorry you had to come in.	157937883	1476239131762	1476239131853	U	85
308925	3323947	I am sorry you had to come in.	I am sorry you had to come in.	157937885	1476239131931	1476239131983	CAPS_LOCK	20
308925	3323947	I am sorry you had to come in.	I am sorry you had to come in.	157937886	1476239132234	1476239132288	BKSP	8
308925	3323947	I am sorry you had to come in.	I am sorry you had to come in.	157937887	1476239132251	1476239132350	CAPS_LOCK	20
308925	3323947	I am sorry you had to come in.	I am sorry you had to come in.	157937889	1476239132397	1476239132500	I	73
308925	3323947	I am sorry you had to come in.	I am sorry you had to come in.	157937891	1476239132469	1476239132600	CAPS_LOCK	20
308925	3323947	I am sorry you had to come in.	I am sorry you had to come in.	157937893	1476239132600	1476239132693	 	32
308925	3323947	I am sorry you had to come in.	I am sorry you had to come in.	157937899	1476239132678	1476239132835	a	65
308925	3323947	I am sorry you had to come in.	I am sorry you had to come in.	157937912	1476239132768	1476239132871	m	77
308925	3323947	I am sorry you had to come in.	I am sorry you had to come in.	157937914	1476239132933	1476239133020	 	32
308925	3323947	I am sorry you had to come in.	I am sorry you had to come in.	157937915	1476239133037	1476239133174	s	83
308925	3323947	I am sorry you had to come in.	I am sorry you had to come in.	157937917	1476239133144	1476239133252	o	79
308925	3323947	I am sorry you had to come in.	I am sorry you had to come in.	157937919	1476239133283	1476239133353	r	82
308925	3323947	I am sorry you had to come in.	I am sorry you had to come in.	157937920	1476239133415	1476239133524	r	82
308925	3323947	I am sorry you had to come in.	I am sorry you had to come in.	157937951	1476239133549	1476239133666	y	89
308925	3323947	I am sorry you had to come in.	I am sorry you had to come in.	157937952	1476239133750	1476239133856	 	32
308925	3323947	I am sorry you had to come in.	I am sorry you had to come in.	157937953	1476239133950	1476239134019	y	89
308925	3323947	I am sorry you had to come in.	I am sorry you had to come in.	157937954	1476239134130	1476239134218	o	79
308925	3323947	I am sorry you had to come in.	I am sorry you had to come in.	157937955	1476239134530	1476239134566	 	32
308925	3323947	I am sorry you had to come in.	I am sorry you had to come in.	157937986	1476239134715	1476239134770	u	85
308925	3323947	I am sorry you had to come in.	I am sorry you had to come in.	157937988	1476239134926	1476239134987	BKSP	8
308925	3323947	I am sorry you had to come in.	I am sorry you had to come in.	157937991	1476239135065	1476239135151	BKSP	8
308925	3323947	I am sorry you had to come in.	I am sorry you had to come in.	157937996	1476239135261	1476239135335	u	85
308925	3323947	I am sorry you had to come in.	I am sorry you had to come in.	157938001	1476239135413	1476239135500	 	32
308925	3323947	I am sorry you had to come in.	I am sorry you had to come in.	157938004	1476239135578	1476239135670	h	72
308925	3323947	I am sorry you had to come in.	I am sorry you had to come in.	157938019	1476239135606	1476239135695	a	65
308925	3323947	I am sorry you had to come in.	I am sorry you had to come in.	157938021	1476239135773	1476239135897	d	68
308925	3323947	I am sorry you had to come in.	I am sorry you had to come in.	157938024	1476239135835	1476239135914	 	32
308925	3323947	I am sorry you had to come in.	I am sorry you had to come in.	157938032	1476239135992	1476239136100	t	84
308925	3323947	I am sorry you had to come in.	I am sorry you had to come in.	157938029	1476239136033	1476239136100	o	79
308925	3323947	I am sorry you had to come in.	I am sorry you had to come in.	157938033	1476239136185	1476239136252	 	32
308925	3323947	I am sorry you had to come in.	I am sorry you had to come in.	157938041	1476239136258	1476239136365	c	67
308925	3323947	I am sorry you had to come in.	I am sorry you had to come in.	157938044	1476239136333	1476239136400	o	79
308925	3323947	I am sorry you had to come in.	I am sorry you had to come in.	157938047	1476239136462	1476239136543	m	77
308925	3323947	I am sorry you had to come in.	I am sorry you had to come in.	157938053	1476239136574	1476239136716	e	69
308925	3323947	I am sorry you had to come in.	I am sorry you had to come in.	157938048	1476239136634	1476239136711	 	32
308925	3323947	I am sorry you had to come in.	I am sorry you had to come in.	157938054	1476239136785	1476239136866	i	73
308925	3323947	I am sorry you had to come in.	I am sorry you had to come in.	157938055	1476239136914	1476239136984	n	78
308925	3323947	I am sorry you had to come in.	I am sorry you had to come in.	157938056	1476239137093	1476239137206	.	190
308925	3323953	A bit behind on my emails.	A bit behind on my emails.	157938157	1476239138960	1476239139093	CAPS_LOCK	20
308925	3323953	A bit behind on my emails.	A bit behind on my emails.	157938158	1476239139076	1476239139228	A	65
308925	3323953	A bit behind on my emails.	A bit behind on my emails.	157938159	1476239139164	1476239139264	CAPS_LOCK	20
308925	3323953	A bit behind on my emails.	A bit behind on my emails.	157938160	1476239139211	1476239139312	 	32
308925	3323953	A bit behind on my emails.	A bit behind on my emails.	157938161	1476239139374	1476239139451	b	66
308925	3323953	A bit behind on my emails.	A bit behind on my emails.	157938162	1476239139537	1476239139646	i	73
308925	3323953	A bit behind on my emails.	A bit behind on my emails.	157938205	1476239139629	1476239139767	t	84
308925	3323953	A bit behind on my emails.	A bit behind on my emails.	157938207	1476239139715	1476239139799	 	32
308925	3323953	A bit behind on my emails.	A bit behind on my emails.	157938209	1476239140469	1476239140616	e	69
308925	3323953	A bit behind on my emails.	A bit behind on my emails.	157938212	1476239140830	1476239140898	BKSP	8
308925	3323953	A bit behind on my emails.	A bit behind on my emails.	157938213	1476239141070	1476239141162	b	66
308925	3323953	A bit behind on my emails.	A bit behind on my emails.	157938215	1476239141178	1476239141297	e	69
308925	3323953	A bit behind on my emails.	A bit behind on my emails.	157938234	1476239141232	1476239141331	h	72
308925	3323953	A bit behind on my emails.	A bit behind on my emails.	157938237	1476239141456	1476239141527	i	73
308925	3323953	A bit behind on my emails.	A bit behind on my emails.	157938241	1476239141577	1476239141678	n	78
308925	3323953	A bit behind on my emails.	A bit behind on my emails.	157938245	1476239141740	1476239141886	d	68
308925	3323953	A bit behind on my emails.	A bit behind on my emails.	157938249	1476239141830	1476239141900	 	32
308925	3323953	A bit behind on my emails.	A bit behind on my emails.	157938250	1476239141984	1476239142062	o	79
308925	3323953	A bit behind on my emails.	A bit behind on my emails.	157938260	1476239142127	1476239142197	n	78
308925	3323953	A bit behind on my emails.	A bit behind on my emails.	157938263	1476239142258	1476239142345	 	32
308925	3323953	A bit behind on my emails.	A bit behind on my emails.	157938267	1476239142392	1476239142524	m	77
308925	3323953	A bit behind on my emails.	A bit behind on my emails.	157938271	1476239142524	1476239142648	y	89
308925	3323953	A bit behind on my emails.	A bit behind on my emails.	157938292	1476239142627	1476239142725	 	32
308925	3323953	A bit behind on my emails.	A bit behind on my emails.	157938293	1476239142797	1476239142912	e	69
308925	3323953	A bit behind on my emails.	A bit behind on my emails.	157938295	1476239142927	1476239142996	m	77
308925	3323953	A bit behind on my emails.	A bit behind on my emails.	157938297	1476239143059	1476239143164	a	65
308925	3323953	A bit behind on my emails.	A bit behind on my emails.	157938300	1476239143109	1476239143205	i	73
308925	3323953	A bit behind on my emails.	A bit behind on my emails.	157938303	1476239143283	1476239143378	l	76
308925	3323953	A bit behind on my emails.	A bit behind on my emails.	157938306	1476239143429	1476239143564	s	83
308925	3323953	A bit behind on my emails.	A bit behind on my emails.	157938308	1476239143467	1476239143564	.	190
308925	3323956	I don't know that I will be back Monday.	I don't know that I will be back Monday.	157938343	1476239145360	1476239145472	CAPS_LOCK	20
308925	3323956	I don't know that I will be back Monday.	I don't know that I will be back Monday.	157938344	1476239145438	1476239145542	I	73
308925	3323956	I don't know that I will be back Monday.	I don't know that I will be back Monday.	157938345	1476239145589	1476239145670	CAPS_LOCK	20
308925	3323956	I don't know that I will be back Monday.	I don't know that I will be back Monday.	157938347	1476239145651	1476239145719	 	32
308925	3323956	I don't know that I will be back Monday.	I don't know that I will be back Monday.	157938351	1476239145777	1476239145909	d	68
308925	3323956	I don't know that I will be back Monday.	I don't know that I will be back Monday.	157938349	1476239145812	1476239145893	o	79
308925	3323956	I don't know that I will be back Monday.	I don't know that I will be back Monday.	157938353	1476239145971	1476239146011	n	78
308925	3323956	I don't know that I will be back Monday.	I don't know that I will be back Monday.	157938372	1476239146163	1476239146214	'	222
308925	3323956	I don't know that I will be back Monday.	I don't know that I will be back Monday.	157938375	1476239146301	1476239146429	t	84
308925	3323956	I don't know that I will be back Monday.	I don't know that I will be back Monday.	157938377	1476239146408	1476239146480	 	32
308925	3323956	I don't know that I will be back Monday.	I don't know that I will be back Monday.	157938378	1476239146553	1476239146643	k	75
308925	3323956	I don't know that I will be back Monday.	I don't know that I will be back Monday.	157938379	1476239146705	1476239146776	n	78
308925	3323956	I don't know that I will be back Monday.	I don't know that I will be back Monday.	157938380	1476239146843	1476239146941	o	79
308925	3323956	I don't know that I will be back Monday.	I don't know that I will be back Monday.	157938381	1476239146972	1476239147096	w	87
308925	3323956	I don't know that I will be back Monday.	I don't know that I will be back Monday.	157938382	1476239147089	1476239147160	 	32
308925	3323956	I don't know that I will be back Monday.	I don't know that I will be back Monday.	157938383	1476239147203	1476239147310	t	84
308925	3323956	I don't know that I will be back Monday.	I don't know that I will be back Monday.	157938412	1476239147262	1476239147374	h	72
308925	3323956	I don't know that I will be back Monday.	I don't know that I will be back Monday.	157938415	1476239147446	1476239147525	a	65
308925	3323956	I don't know that I will be back Monday.	I don't know that I will be back Monday.	157938420	1476239147638	1476239147717	t	84
308925	3323956	I don't know that I will be back Monday.	I don't know that I will be back Monday.	157938422	1476239147692	1476239147762	 	32
308925	3323956	I don't know that I will be back Monday.	I don't know that I will be back Monday.	157938423	1476239147827	1476239147906	CAPS_LOCK	20
308925	3323956	I don't know that I will be back Monday.	I don't know that I will be back Monday.	157938424	1476239147889	1476239147959	I	73
308925	3323956	I don't know that I will be back Monday.	I don't know that I will be back Monday.	157938425	1476239148006	1476239148130	CAPS_LOCK	20
308925	3323956	I don't know that I will be back Monday.	I don't know that I will be back Monday.	157938428	1476239148100	1476239148162	 	32
308925	3323956	I don't know that I will be back Monday.	I don't know that I will be back Monday.	157938430	1476239148192	1476239148327	w	87
308925	3323956	I don't know that I will be back Monday.	I don't know that I will be back Monday.	157938432	1476239148260	1476239148327	i	73
308925	3323956	I don't know that I will be back Monday.	I don't know that I will be back Monday.	157938434	1476239148428	1476239148514	l	76
308925	3323956	I don't know that I will be back Monday.	I don't know that I will be back Monday.	157938438	1476239148548	1476239148642	l	76
308925	3323956	I don't know that I will be back Monday.	I don't know that I will be back Monday.	157938443	1476239148735	1476239148804	 	32
308925	3323956	I don't know that I will be back Monday.	I don't know that I will be back Monday.	157938458	1476239148894	1476239148960	b	66
308925	3323956	I don't know that I will be back Monday.	I don't know that I will be back Monday.	157938460	1476239148975	1476239149089	e	69
308925	3323956	I don't know that I will be back Monday.	I don't know that I will be back Monday.	157938464	1476239149072	1476239149142	 	32
308925	3323956	I don't know that I will be back Monday.	I don't know that I will be back Monday.	157938469	1476239149220	1476239149313	b	66
308925	3323956	I don't know that I will be back Monday.	I don't know that I will be back Monday.	157938500	1476239149306	1476239149390	a	65
308925	3323956	I don't know that I will be back Monday.	I don't know that I will be back Monday.	157938502	1476239149499	1476239149617	c	67
308925	3323956	I don't know that I will be back Monday.	I don't know that I will be back Monday.	157938504	1476239149534	1476239149617	k	75
308925	3323956	I don't know that I will be back Monday.	I don't know that I will be back Monday.	157938506	1476239149706	1476239149780	 	32
308925	3323956	I don't know that I will be back Monday.	I don't know that I will be back Monday.	157938508	1476239149849	1476239149929	o	79
308925	3323956	I don't know that I will be back Monday.	I don't know that I will be back Monday.	157938509	1476239150208	1476239150274	BKSP	8
308925	3323956	I don't know that I will be back Monday.	I don't know that I will be back Monday.	157938511	1476239150305	1476239150408	CAPS_LOCK	20
308925	3323956	I don't know that I will be back Monday.	I don't know that I will be back Monday.	157938546	1476239150383	1476239150504	M	77
308925	3323956	I don't know that I will be back Monday.	I don't know that I will be back Monday.	157938548	1476239150504	1476239150642	CAPS_LOCK	20
308925	3323956	I don't know that I will be back Monday.	I don't know that I will be back Monday.	157938551	1476239150591	1476239150642	o	79
308925	3323956	I don't know that I will be back Monday.	I don't know that I will be back Monday.	157938556	1476239150720	1476239150805	n	78
308925	3323956	I don't know that I will be back Monday.	I don't know that I will be back Monday.	157938559	1476239150771	1476239150840	d	68
308925	3323956	I don't know that I will be back Monday.	I don't know that I will be back Monday.	157938563	1476239150934	1476239151085	a	65
308925	3323956	I don't know that I will be back Monday.	I don't know that I will be back Monday.	157938591	1476239151661	1476239151772	.	85
308925	3323956	I don't know that I will be back Monday.	I don't know that I will be back Monday.	157938592	1476239152137	1476239152194	BKSP	8
308925	3323956	I don't know that I will be back Monday.	I don't know that I will be back Monday.	157938593	1476239152258	1476239152324	BKSP	8
308925	3323956	I don't know that I will be back Monday.	I don't know that I will be back Monday.	157938595	1476239152340	1476239152453	y	89
308925	3323956	I don't know that I will be back Monday.	I don't know that I will be back Monday.	157938597	1476239152469	1476239152555	.	190
308925	3323962	The German slowed down enough to beat Frenchman Cedric Pioline 6-3.	The German slowed down enough to beat Frenchman Cedric Pioline 6-3	157938654	1476239154483	1476239154585	CAPS_LOCK	20
308925	3323962	The German slowed down enough to beat Frenchman Cedric Pioline 6-3.	The German slowed down enough to beat Frenchman Cedric Pioline 6-3	157938655	1476239154695	1476239154755	T	84
308925	3323962	The German slowed down enough to beat Frenchman Cedric Pioline 6-3.	The German slowed down enough to beat Frenchman Cedric Pioline 6-3	157938656	1476239154849	1476239155018	CAPS_LOCK	20
308925	3323962	The German slowed down enough to beat Frenchman Cedric Pioline 6-3.	The German slowed down enough to beat Frenchman Cedric Pioline 6-3	157938657	1476239154911	1476239155018	h	72
308925	3323962	The German slowed down enough to beat Frenchman Cedric Pioline 6-3.	The German slowed down enough to beat Frenchman Cedric Pioline 6-3	157938658	1476239155065	1476239155162	e	69
308925	3323962	The German slowed down enough to beat Frenchman Cedric Pioline 6-3.	The German slowed down enough to beat Frenchman Cedric Pioline 6-3	157938659	1476239155137	1476239155204	 	32
308925	3323962	The German slowed down enough to beat Frenchman Cedric Pioline 6-3.	The German slowed down enough to beat Frenchman Cedric Pioline 6-3	157938660	1476239155220	1476239155350	CAPS_LOCK	20
308925	3323962	The German slowed down enough to beat Frenchman Cedric Pioline 6-3.	The German slowed down enough to beat Frenchman Cedric Pioline 6-3	157938676	1476239155334	1476239155467	G	71
308925	3323962	The German slowed down enough to beat Frenchman Cedric Pioline 6-3.	The German slowed down enough to beat Frenchman Cedric Pioline 6-3	157938677	1476239155467	1476239155595	CAPS_LOCK	20
308925	3323962	The German slowed down enough to beat Frenchman Cedric Pioline 6-3.	The German slowed down enough to beat Frenchman Cedric Pioline 6-3	157938678	1476239155626	1476239155735	e	69
308925	3323962	The German slowed down enough to beat Frenchman Cedric Pioline 6-3.	The German slowed down enough to beat Frenchman Cedric Pioline 6-3	157938679	1476239155799	1476239155900	r	82
308925	3323962	The German slowed down enough to beat Frenchman Cedric Pioline 6-3.	The German slowed down enough to beat Frenchman Cedric Pioline 6-3	157938680	1476239155886	1476239156033	m	77
308925	3323962	The German slowed down enough to beat Frenchman Cedric Pioline 6-3.	The German slowed down enough to beat Frenchman Cedric Pioline 6-3	157938681	1476239156064	1476239156217	a	65
308925	3323962	The German slowed down enough to beat Frenchman Cedric Pioline 6-3.	The German slowed down enough to beat Frenchman Cedric Pioline 6-3	157938689	1476239156168	1476239156245	n	78
308925	3323962	The German slowed down enough to beat Frenchman Cedric Pioline 6-3.	The German slowed down enough to beat Frenchman Cedric Pioline 6-3	157938691	1476239156339	1476239156404	 	32
308925	3323962	The German slowed down enough to beat Frenchman Cedric Pioline 6-3.	The German slowed down enough to beat Frenchman Cedric Pioline 6-3	157938694	1476239156396	1476239156520	s	83
308925	3323962	The German slowed down enough to beat Frenchman Cedric Pioline 6-3.	The German slowed down enough to beat Frenchman Cedric Pioline 6-3	157938696	1476239156500	1476239156617	l	76
308925	3323962	The German slowed down enough to beat Frenchman Cedric Pioline 6-3.	The German slowed down enough to beat Frenchman Cedric Pioline 6-3	157938698	1476239156680	1476239156775	o	79
308925	3323962	The German slowed down enough to beat Frenchman Cedric Pioline 6-3.	The German slowed down enough to beat Frenchman Cedric Pioline 6-3	157938720	1476239156752	1476239156867	w	87
308925	3323962	The German slowed down enough to beat Frenchman Cedric Pioline 6-3.	The German slowed down enough to beat Frenchman Cedric Pioline 6-3	157938721	1476239156898	1476239157018	l	76
308925	3323962	The German slowed down enough to beat Frenchman Cedric Pioline 6-3.	The German slowed down enough to beat Frenchman Cedric Pioline 6-3	157938723	1476239157251	1476239157317	e	69
308925	3323962	The German slowed down enough to beat Frenchman Cedric Pioline 6-3.	The German slowed down enough to beat Frenchman Cedric Pioline 6-3	157938725	1476239157411	1476239157535	d	68
308925	3323962	The German slowed down enough to beat Frenchman Cedric Pioline 6-3.	The German slowed down enough to beat Frenchman Cedric Pioline 6-3	157938727	1476239157486	1476239157565	 	32
308925	3323962	The German slowed down enough to beat Frenchman Cedric Pioline 6-3.	The German slowed down enough to beat Frenchman Cedric Pioline 6-3	157938729	1476239157616	1476239157725	d	68
308925	3323962	The German slowed down enough to beat Frenchman Cedric Pioline 6-3.	The German slowed down enough to beat Frenchman Cedric Pioline 6-3	157938745	1476239157671	1476239157779	o	79
308925	3323962	The German slowed down enough to beat Frenchman Cedric Pioline 6-3.	The German slowed down enough to beat Frenchman Cedric Pioline 6-3	157938754	1476239157816	1476239157985	w	87
308925	3323962	The German slowed down enough to beat Frenchman Cedric Pioline 6-3.	The German slowed down enough to beat Frenchman Cedric Pioline 6-3	157938749	1476239157901	1476239157953	n	78
308925	3323962	The German slowed down enough to beat Frenchman Cedric Pioline 6-3.	The German slowed down enough to beat Frenchman Cedric Pioline 6-3	157938755	1476239158079	1476239158134	 	32
308925	3323962	The German slowed down enough to beat Frenchman Cedric Pioline 6-3.	The German slowed down enough to beat Frenchman Cedric Pioline 6-3	157938757	1476239158138	1476239158282	e	69
308925	3323962	The German slowed down enough to beat Frenchman Cedric Pioline 6-3.	The German slowed down enough to beat Frenchman Cedric Pioline 6-3	157938772	1476239158234	1476239158293	n	78
308925	3323962	The German slowed down enough to beat Frenchman Cedric Pioline 6-3.	The German slowed down enough to beat Frenchman Cedric Pioline 6-3	157938773	1476239158371	1476239158470	o	79
308925	3323962	The German slowed down enough to beat Frenchman Cedric Pioline 6-3.	The German slowed down enough to beat Frenchman Cedric Pioline 6-3	157938774	1476239158568	1476239158667	u	85
308925	3323962	The German slowed down enough to beat Frenchman Cedric Pioline 6-3.	The German slowed down enough to beat Frenchman Cedric Pioline 6-3	157938776	1476239158651	1476239158756	g	71
308925	3323962	The German slowed down enough to beat Frenchman Cedric Pioline 6-3.	The German slowed down enough to beat Frenchman Cedric Pioline 6-3	157938778	1476239158719	1476239158816	h	72
308925	3323962	The German slowed down enough to beat Frenchman Cedric Pioline 6-3.	The German slowed down enough to beat Frenchman Cedric Pioline 6-3	157938780	1476239158941	1476239159001	 	32
308925	3323962	The German slowed down enough to beat Frenchman Cedric Pioline 6-3.	The German slowed down enough to beat Frenchman Cedric Pioline 6-3	157938784	1476239159046	1476239159167	t	84
308925	3323962	The German slowed down enough to beat Frenchman Cedric Pioline 6-3.	The German slowed down enough to beat Frenchman Cedric Pioline 6-3	157938787	1476239159124	1476239159200	o	79
308925	3323962	The German slowed down enough to beat Frenchman Cedric Pioline 6-3.	The German slowed down enough to beat Frenchman Cedric Pioline 6-3	157938790	1476239159299	1476239159384	 	32
308925	3323962	The German slowed down enough to beat Frenchman Cedric Pioline 6-3.	The German slowed down enough to beat Frenchman Cedric Pioline 6-3	157938793	1476239159450	1476239159546	b	66
308925	3323962	The German slowed down enough to beat Frenchman Cedric Pioline 6-3.	The German slowed down enough to beat Frenchman Cedric Pioline 6-3	157938838	1476239159534	1476239159649	e	69
308925	3323962	The German slowed down enough to beat Frenchman Cedric Pioline 6-3.	The German slowed down enough to beat Frenchman Cedric Pioline 6-3	157938842	1476239159868	1476239159966	a	65
308925	3323962	The German slowed down enough to beat Frenchman Cedric Pioline 6-3.	The German slowed down enough to beat Frenchman Cedric Pioline 6-3	157938847	1476239160108	1476239160205	t	84
308925	3323962	The German slowed down enough to beat Frenchman Cedric Pioline 6-3.	The German slowed down enough to beat Frenchman Cedric Pioline 6-3	157938855	1476239160183	1476239160317	 	32
308925	3323962	The German slowed down enough to beat Frenchman Cedric Pioline 6-3.	The German slowed down enough to beat Frenchman Cedric Pioline 6-3	157938859	1476239160380	1476239160490	CAPS_LOCK	20
308925	3323962	The German slowed down enough to beat Frenchman Cedric Pioline 6-3.	The German slowed down enough to beat Frenchman Cedric Pioline 6-3	157938863	1476239160759	1476239160863	F	70
308925	3323962	The German slowed down enough to beat Frenchman Cedric Pioline 6-3.	The German slowed down enough to beat Frenchman Cedric Pioline 6-3	157938865	1476239160957	1476239161097	CAPS_LOCK	20
308925	3323962	The German slowed down enough to beat Frenchman Cedric Pioline 6-3.	The German slowed down enough to beat Frenchman Cedric Pioline 6-3	157938866	1476239161129	1476239161214	r	82
308925	3323962	The German slowed down enough to beat Frenchman Cedric Pioline 6-3.	The German slowed down enough to beat Frenchman Cedric Pioline 6-3	157938886	1476239161291	1476239161414	e	69
308925	3323962	The German slowed down enough to beat Frenchman Cedric Pioline 6-3.	The German slowed down enough to beat Frenchman Cedric Pioline 6-3	157938888	1476239161492	1476239161647	n	78
308925	3323962	The German slowed down enough to beat Frenchman Cedric Pioline 6-3.	The German slowed down enough to beat Frenchman Cedric Pioline 6-3	157938890	1476239161663	1476239161798	c	67
308925	3323962	The German slowed down enough to beat Frenchman Cedric Pioline 6-3.	The German slowed down enough to beat Frenchman Cedric Pioline 6-3	157938891	1476239161781	1476239161885	h	72
308925	3323962	The German slowed down enough to beat Frenchman Cedric Pioline 6-3.	The German slowed down enough to beat Frenchman Cedric Pioline 6-3	157938892	1476239161995	1476239162148	m	77
308925	3323962	The German slowed down enough to beat Frenchman Cedric Pioline 6-3.	The German slowed down enough to beat Frenchman Cedric Pioline 6-3	157938898	1476239162130	1476239162300	a	65
308925	3323962	The German slowed down enough to beat Frenchman Cedric Pioline 6-3.	The German slowed down enough to beat Frenchman Cedric Pioline 6-3	157938900	1476239162243	1476239162347	n	78
308925	3323962	The German slowed down enough to beat Frenchman Cedric Pioline 6-3.	The German slowed down enough to beat Frenchman Cedric Pioline 6-3	157938905	1476239162456	1476239162567	 	32
308925	3323962	The German slowed down enough to beat Frenchman Cedric Pioline 6-3.	The German slowed down enough to beat Frenchman Cedric Pioline 6-3	157938902	1476239162501	1476239162561	CAPS_LOCK	20
308925	3323962	The German slowed down enough to beat Frenchman Cedric Pioline 6-3.	The German slowed down enough to beat Frenchman Cedric Pioline 6-3	157938908	1476239162661	1476239162732	C	67
308925	3323962	The German slowed down enough to beat Frenchman Cedric Pioline 6-3.	The German slowed down enough to beat Frenchman Cedric Pioline 6-3	157938910	1476239162829	1476239162970	CAPS_LOCK	20
308925	3323962	The German slowed down enough to beat Frenchman Cedric Pioline 6-3.	The German slowed down enough to beat Frenchman Cedric Pioline 6-3	157938913	1476239163048	1476239163165	e	69
308925	3323962	The German slowed down enough to beat Frenchman Cedric Pioline 6-3.	The German slowed down enough to beat Frenchman Cedric Pioline 6-3	157938915	1476239163274	1476239163364	d	68
308925	3323962	The German slowed down enough to beat Frenchman Cedric Pioline 6-3.	The German slowed down enough to beat Frenchman Cedric Pioline 6-3	157938916	1476239163484	1476239163593	r	82
308925	3323962	The German slowed down enough to beat Frenchman Cedric Pioline 6-3.	The German slowed down enough to beat Frenchman Cedric Pioline 6-3	157938918	1476239163580	1476239163726	i	73
308925	3323962	The German slowed down enough to beat Frenchman Cedric Pioline 6-3.	The German slowed down enough to beat Frenchman Cedric Pioline 6-3	157938920	1476239163742	1476239163821	c	67
308925	3323962	The German slowed down enough to beat Frenchman Cedric Pioline 6-3.	The German slowed down enough to beat Frenchman Cedric Pioline 6-3	157938922	1476239163867	1476239163947	 	32
308925	3323962	The German slowed down enough to beat Frenchman Cedric Pioline 6-3.	The German slowed down enough to beat Frenchman Cedric Pioline 6-3	157938924	1476239163963	1476239164047	CAPS_LOCK	20
308925	3323962	The German slowed down enough to beat Frenchman Cedric Pioline 6-3.	The German slowed down enough to beat Frenchman Cedric Pioline 6-3	157938926	1476239164079	1476239164184	P	80
308925	3323962	The German slowed down enough to beat Frenchman Cedric Pioline 6-3.	The German slowed down enough to beat Frenchman Cedric Pioline 6-3	157938976	1476239164164	1476239164309	CAPS_LOCK	20
308925	3323962	The German slowed down enough to beat Frenchman Cedric Pioline 6-3.	The German slowed down enough to beat Frenchman Cedric Pioline 6-3	157938977	1476239164309	1476239164381	i	73
308925	3323962	The German slowed down enough to beat Frenchman Cedric Pioline 6-3.	The German slowed down enough to beat Frenchman Cedric Pioline 6-3	157938978	1476239164522	1476239164582	o	79
308925	3323962	The German slowed down enough to beat Frenchman Cedric Pioline 6-3.	The German slowed down enough to beat Frenchman Cedric Pioline 6-3	157938979	1476239164848	1476239164898	BKSP	8
308925	3323962	The German slowed down enough to beat Frenchman Cedric Pioline 6-3.	The German slowed down enough to beat Frenchman Cedric Pioline 6-3	157938980	1476239165158	1476239165249	o	79
308925	3323962	The German slowed down enough to beat Frenchman Cedric Pioline 6-3.	The German slowed down enough to beat Frenchman Cedric Pioline 6-3	157938982	1476239165339	1476239165429	l	76
308925	3323962	The German slowed down enough to beat Frenchman Cedric Pioline 6-3.	The German slowed down enough to beat Frenchman Cedric Pioline 6-3	157938984	1476239165523	1476239165599	i	73
308925	3323962	The German slowed down enough to beat Frenchman Cedric Pioline 6-3.	The German slowed down enough to beat Frenchman Cedric Pioline 6-3	157939047	1476239165679	1476239165794	n	78
308925	3323962	The German slowed down enough to beat Frenchman Cedric Pioline 6-3.	The German slowed down enough to beat Frenchman Cedric Pioline 6-3	157939050	1476239165809	1476239165965	e	69
308925	3323962	The German slowed down enough to beat Frenchman Cedric Pioline 6-3.	The German slowed down enough to beat Frenchman Cedric Pioline 6-3	157939053	1476239165927	1476239166042	 	32
308925	3323962	The German slowed down enough to beat Frenchman Cedric Pioline 6-3.	The German slowed down enough to beat Frenchman Cedric Pioline 6-3	157939056	1476239167474	1476239167631	6	54
308925	3323962	The German slowed down enough to beat Frenchman Cedric Pioline 6-3.	The German slowed down enough to beat Frenchman Cedric Pioline 6-3	157939059	1476239167808	1476239167925	-	189
308925	3323962	The German slowed down enough to beat Frenchman Cedric Pioline 6-3.	The German slowed down enough to beat Frenchman Cedric Pioline 6-3	157939133	1476239168447	1476239168585	3	51
308925	3323962	The German slowed down enough to beat Frenchman Cedric Pioline 6-3.	The German slowed down enough to beat Frenchman Cedric Pioline 6-3	157939135	1476239171524	1476239171654	DELETE	46
308925	3323976	Need before board meeting.	Need before board meeting.	157939207	1476239174740	1476239174849	CAPS_LOCK	20
308925	3323976	Need before board meeting.	Need before board meeting.	157939210	1476239174849	1476239174987	N	78
308925	3323976	Need before board meeting.	Need before board meeting.	157939212	1476239174971	1476239175065	CAPS_LOCK	20
308925	3323976	Need before board meeting.	Need before board meeting.	157939213	1476239175096	1476239175192	e	69
308925	3323976	Need before board meeting.	Need before board meeting.	157939215	1476239175270	1476239175371	e	69
308925	3323976	Need before board meeting.	Need before board meeting.	157939217	1476239175465	1476239175598	d	68
308925	3323976	Need before board meeting.	Need before board meeting.	157939232	1476239175508	1476239175609	 	32
308925	3323976	Need before board meeting.	Need before board meeting.	157939235	1476239175678	1476239175786	b	66
308925	3323976	Need before board meeting.	Need before board meeting.	157939239	1476239175771	1476239175871	e	69
308925	3323976	Need before board meeting.	Need before board meeting.	157939241	1476239175996	1476239176104	f	70
308925	3323976	Need before board meeting.	Need before board meeting.	157939242	1476239176091	1476239176225	o	79
308925	3323976	Need before board meeting.	Need before board meeting.	157939248	1476239176202	1476239176308	r	82
308925	3323976	Need before board meeting.	Need before board meeting.	157939250	1476239176386	1476239176547	e	69
308925	3323976	Need before board meeting.	Need before board meeting.	157939249	1476239176438	1476239176520	 	32
308925	3323976	Need before board meeting.	Need before board meeting.	157939251	1476239176611	1476239176721	b	66
308925	3323976	Need before board meeting.	Need before board meeting.	157939252	1476239176821	1476239176977	o	79
308925	3323976	Need before board meeting.	Need before board meeting.	157939274	1476239176952	1476239177053	a	65
308925	3323976	Need before board meeting.	Need before board meeting.	157939276	1476239177180	1476239177255	r	82
308925	3323976	Need before board meeting.	Need before board meeting.	157939279	1476239177349	1476239177460	d	68
308925	3323976	Need before board meeting.	Need before board meeting.	157939283	1476239177424	1476239177466	 	32
308925	3323976	Need before board meeting.	Need before board meeting.	157939287	1476239177567	1476239177689	m	77
308925	3323976	Need before board meeting.	Need before board meeting.	157939325	1476239177661	1476239177740	e	69
308925	3323976	Need before board meeting.	Need before board meeting.	157939328	1476239177990	1476239178118	e	69
308925	3323976	Need before board meeting.	Need before board meeting.	157939331	1476239178244	1476239178321	i	84
308925	3323976	Need before board meeting.	Need before board meeting.	157939334	1476239178399	1476239178486	n	78
308925	3323976	Need before board meeting.	Need before board meeting.	157939339	1476239178502	1476239178620	g	71
308925	3323976	Need before board meeting.	Need before board meeting.	157939337	1476239178603	1476239178715	.	190
308925	3323977	The UN still recognizes Lisbon as the administrator of the territory.	The UN still recognizes Lisbon as the administrator of the territory.	157939478	1476239180377	1476239180484	CAPS_LOCK	20
308925	3323977	The UN still recognizes Lisbon as the administrator of the territory.	The UN still recognizes Lisbon as the administrator of the territory.	157939532	1476239180672	1476239185514	T	84
308925	3323977	The UN still recognizes Lisbon as the administrator of the territory.	The UN still recognizes Lisbon as the administrator of the territory.	157939479	1476239182892	1476239183045	H	72
308925	3323977	The UN still recognizes Lisbon as the administrator of the territory.	The UN still recognizes Lisbon as the administrator of the territory.	157939480	1476239183045	1476239183148	E	69
308925	3323977	The UN still recognizes Lisbon as the administrator of the territory.	The UN still recognizes Lisbon as the administrator of the territory.	157939481	1476239183179	1476239183255	 	32
308925	3323977	The UN still recognizes Lisbon as the administrator of the territory.	The UN still recognizes Lisbon as the administrator of the territory.	157939482	1476239183255	1476239183364	CAPS_LOCK	20
308925	3323977	The UN still recognizes Lisbon as the administrator of the territory.	The UN still recognizes Lisbon as the administrator of the territory.	157939483	1476239183549	1476239183666	CAPS_LOCK	20
308925	3323977	The UN still recognizes Lisbon as the administrator of the territory.	The UN still recognizes Lisbon as the administrator of the territory.	157939484	1476239183596	1476239183666	BKSP	8
308925	3323977	The UN still recognizes Lisbon as the administrator of the territory.	The UN still recognizes Lisbon as the administrator of the territory.	157939485	1476239183744	1476239183801	BKSP	8
308925	3323977	The UN still recognizes Lisbon as the administrator of the territory.	The UN still recognizes Lisbon as the administrator of the territory.	157939487	1476239183895	1476239183951	BKSP	8
308925	3323977	The UN still recognizes Lisbon as the administrator of the territory.	The UN still recognizes Lisbon as the administrator of the territory.	157939490	1476239184092	1476239184150	H	72
308925	3323977	The UN still recognizes Lisbon as the administrator of the territory.	The UN still recognizes Lisbon as the administrator of the territory.	157939502	1476239184176	1476239184266	E	69
308925	3323977	The UN still recognizes Lisbon as the administrator of the territory.	The UN still recognizes Lisbon as the administrator of the territory.	157939504	1476239184282	1476239184381	 	32
308925	3323977	The UN still recognizes Lisbon as the administrator of the territory.	The UN still recognizes Lisbon as the administrator of the territory.	157939505	1476239184366	1476239184475	CAPS_LOCK	20
308925	3323977	The UN still recognizes Lisbon as the administrator of the territory.	The UN still recognizes Lisbon as the administrator of the territory.	157939507	1476239184506	1476239184599	u	85
308925	3323977	The UN still recognizes Lisbon as the administrator of the territory.	The UN still recognizes Lisbon as the administrator of the territory.	157939508	1476239184677	1476239184765	n	78
308925	3323977	The UN still recognizes Lisbon as the administrator of the territory.	The UN still recognizes Lisbon as the administrator of the territory.	157939510	1476239184843	1476239184934	 	32
308925	3323977	The UN still recognizes Lisbon as the administrator of the territory.	The UN still recognizes Lisbon as the administrator of the territory.	157939530	1476239184954	1476239185032	s	83
308925	3323977	The UN still recognizes Lisbon as the administrator of the territory.	The UN still recognizes Lisbon as the administrator of the territory.	157939531	1476239185048	1476239185173	CAPS_LOCK	20
308925	3323977	The UN still recognizes Lisbon as the administrator of the territory.	The UN still recognizes Lisbon as the administrator of the territory.	157939534	1476239185547	1476239185648	I	73
308925	3323977	The UN still recognizes Lisbon as the administrator of the territory.	The UN still recognizes Lisbon as the administrator of the territory.	157939536	1476239185742	1476239185800	L	76
308925	3323977	The UN still recognizes Lisbon as the administrator of the territory.	The UN still recognizes Lisbon as the administrator of the territory.	157939539	1476239185862	1476239185966	L	76
308925	3323977	The UN still recognizes Lisbon as the administrator of the territory.	The UN still recognizes Lisbon as the administrator of the territory.	157939542	1476239186044	1476239186145	 	32
308925	3323977	The UN still recognizes Lisbon as the administrator of the territory.	The UN still recognizes Lisbon as the administrator of the territory.	157939584	1476239186159	1476239186249	R	82
308925	3323977	The UN still recognizes Lisbon as the administrator of the territory.	The UN still recognizes Lisbon as the administrator of the territory.	157939585	1476239186327	1476239186465	E	69
308925	3323977	The UN still recognizes Lisbon as the administrator of the territory.	The UN still recognizes Lisbon as the administrator of the territory.	157939586	1476239186755	1476239186866	O	79
308925	3323977	The UN still recognizes Lisbon as the administrator of the territory.	The UN still recognizes Lisbon as the administrator of the territory.	157939587	1476239187199	1476239187264	BKSP	8
308925	3323977	The UN still recognizes Lisbon as the administrator of the territory.	The UN still recognizes Lisbon as the administrator of the territory.	157939590	1476239187264	1476239187411	C	67
308925	3323977	The UN still recognizes Lisbon as the administrator of the territory.	The UN still recognizes Lisbon as the administrator of the territory.	157939594	1476239187427	1476239187514	O	79
308925	3323977	The UN still recognizes Lisbon as the administrator of the territory.	The UN still recognizes Lisbon as the administrator of the territory.	157939696	1476239187815	1476239187865	BKSP	8
308925	3323977	The UN still recognizes Lisbon as the administrator of the territory.	The UN still recognizes Lisbon as the administrator of the territory.	157939704	1476239187912	1476239188047	CAPS_LOCK	20
308925	3323977	The UN still recognizes Lisbon as the administrator of the territory.	The UN still recognizes Lisbon as the administrator of the territory.	157939700	1476239187977	1476239188031	BKSP	8
308925	3323977	The UN still recognizes Lisbon as the administrator of the territory.	The UN still recognizes Lisbon as the administrator of the territory.	157939707	1476239188125	1476239189410	BKSP	8
308925	3323977	The UN still recognizes Lisbon as the administrator of the territory.	The UN still recognizes Lisbon as the administrator of the territory.	157939710	1476239189706	1476239189854	CAPS_LOCK	20
308925	3323977	The UN still recognizes Lisbon as the administrator of the territory.	The UN still recognizes Lisbon as the administrator of the territory.	157939713	1476239189849	1476239189933	T	84
308925	3323977	The UN still recognizes Lisbon as the administrator of the territory.	The UN still recognizes Lisbon as the administrator of the territory.	157939715	1476239189978	1476239190083	CAPS_LOCK	20
308925	3323977	The UN still recognizes Lisbon as the administrator of the territory.	The UN still recognizes Lisbon as the administrator of the territory.	157939717	1476239190056	1476239190144	h	72
308925	3323977	The UN still recognizes Lisbon as the administrator of the territory.	The UN still recognizes Lisbon as the administrator of the territory.	157939719	1476239190176	1476239190278	e	69
308925	3323977	The UN still recognizes Lisbon as the administrator of the territory.	The UN still recognizes Lisbon as the administrator of the territory.	157939722	1476239190434	1476239190546	 	32
308925	3323977	The UN still recognizes Lisbon as the administrator of the territory.	The UN still recognizes Lisbon as the administrator of the territory.	157939726	1476239190580	1476239190714	CAPS_LOCK	20
308925	3323977	The UN still recognizes Lisbon as the administrator of the territory.	The UN still recognizes Lisbon as the administrator of the territory.	157939767	1476239190690	1476239190764	U	85
308925	3323977	The UN still recognizes Lisbon as the administrator of the territory.	The UN still recognizes Lisbon as the administrator of the territory.	157939768	1476239190878	1476239190992	N	78
308925	3323977	The UN still recognizes Lisbon as the administrator of the territory.	The UN still recognizes Lisbon as the administrator of the territory.	157939771	1476239191086	1476239191212	 	32
308925	3323977	The UN still recognizes Lisbon as the administrator of the territory.	The UN still recognizes Lisbon as the administrator of the territory.	157939774	1476239191259	1476239191368	CAPS_LOCK	20
308925	3323977	The UN still recognizes Lisbon as the administrator of the territory.	The UN still recognizes Lisbon as the administrator of the territory.	157939776	1476239191656	1476239191759	s	83
308925	3323977	The UN still recognizes Lisbon as the administrator of the territory.	The UN still recognizes Lisbon as the administrator of the territory.	157939777	1476239191868	1476239192010	t	84
308925	3323977	The UN still recognizes Lisbon as the administrator of the territory.	The UN still recognizes Lisbon as the administrator of the territory.	157939788	1476239191928	1476239192025	i	73
308925	3323977	The UN still recognizes Lisbon as the administrator of the territory.	The UN still recognizes Lisbon as the administrator of the territory.	157939789	1476239192135	1476239192195	l	76
308925	3323977	The UN still recognizes Lisbon as the administrator of the territory.	The UN still recognizes Lisbon as the administrator of the territory.	157939790	1476239192273	1476239192374	l	76
308925	3323977	The UN still recognizes Lisbon as the administrator of the territory.	The UN still recognizes Lisbon as the administrator of the territory.	157939791	1476239192488	1476239192578	r	32
308925	3323977	The UN still recognizes Lisbon as the administrator of the territory.	The UN still recognizes Lisbon as the administrator of the territory.	157939792	1476239192660	1476239192774	e	69
308925	3323977	The UN still recognizes Lisbon as the administrator of the territory.	The UN still recognizes Lisbon as the administrator of the territory.	157939828	1476239192884	1476239193060	c	67
308925	3323977	The UN still recognizes Lisbon as the administrator of the territory.	The UN still recognizes Lisbon as the administrator of the territory.	157939829	1476239192990	1476239193092	o	79
308925	3323977	The UN still recognizes Lisbon as the administrator of the territory.	The UN still recognizes Lisbon as the administrator of the territory.	157939830	1476239193185	1476239193275	n	78
308925	3323977	The UN still recognizes Lisbon as the administrator of the territory.	The UN still recognizes Lisbon as the administrator of the territory.	157939831	1476239193509	1476239193578	BKSP	8
308925	3323977	The UN still recognizes Lisbon as the administrator of the territory.	The UN still recognizes Lisbon as the administrator of the territory.	157939832	1476239193629	1476239193661	g	71
308925	3323977	The UN still recognizes Lisbon as the administrator of the territory.	The UN still recognizes Lisbon as the administrator of the territory.	157939834	1476239193692	1476239193791	n	78
308925	3323977	The UN still recognizes Lisbon as the administrator of the territory.	The UN still recognizes Lisbon as the administrator of the territory.	157939857	1476239193870	1476239194005	i	73
308925	3323977	The UN still recognizes Lisbon as the administrator of the territory.	The UN still recognizes Lisbon as the administrator of the territory.	157939858	1476239194021	1476239194123	z	90
308925	3323977	The UN still recognizes Lisbon as the administrator of the territory.	The UN still recognizes Lisbon as the administrator of the territory.	157939860	1476239194254	1476239194357	e	69
308925	3323977	The UN still recognizes Lisbon as the administrator of the territory.	The UN still recognizes Lisbon as the administrator of the territory.	157939862	1476239194482	1476239194623	s	83
308925	3323977	The UN still recognizes Lisbon as the administrator of the territory.	The UN still recognizes Lisbon as the administrator of the territory.	157939892	1476239194611	1476239194737	 	32
308925	3323977	The UN still recognizes Lisbon as the administrator of the territory.	The UN still recognizes Lisbon as the administrator of the territory.	157939893	1476239194878	1476239194956	CAPS_LOCK	20
308925	3323977	The UN still recognizes Lisbon as the administrator of the territory.	The UN still recognizes Lisbon as the administrator of the territory.	157939894	1476239194971	1476239195074	L	76
308925	3323977	The UN still recognizes Lisbon as the administrator of the territory.	The UN still recognizes Lisbon as the administrator of the territory.	157939895	1476239195121	1476239195258	CAPS_LOCK	20
308925	3323977	The UN still recognizes Lisbon as the administrator of the territory.	The UN still recognizes Lisbon as the administrator of the territory.	157939897	1476239195183	1476239195290	i	73
308925	3323977	The UN still recognizes Lisbon as the administrator of the territory.	The UN still recognizes Lisbon as the administrator of the territory.	157939900	1476239195399	1476239195490	b	66
308925	3323977	The UN still recognizes Lisbon as the administrator of the territory.	The UN still recognizes Lisbon as the administrator of the territory.	157939903	1476239195648	1476239195709	BKSP	8
308925	3323977	The UN still recognizes Lisbon as the administrator of the territory.	The UN still recognizes Lisbon as the administrator of the territory.	157939906	1476239195740	1476239195908	s	83
308925	3323977	The UN still recognizes Lisbon as the administrator of the territory.	The UN still recognizes Lisbon as the administrator of the territory.	157939938	1476239195855	1476239195934	b	66
308925	3323977	The UN still recognizes Lisbon as the administrator of the territory.	The UN still recognizes Lisbon as the administrator of the territory.	157939941	1476239196048	1476239196156	o	79
308925	3323977	The UN still recognizes Lisbon as the administrator of the territory.	The UN still recognizes Lisbon as the administrator of the territory.	157939945	1476239196253	1476239196308	n	78
308925	3323977	The UN still recognizes Lisbon as the administrator of the territory.	The UN still recognizes Lisbon as the administrator of the territory.	157939948	1476239196422	1476239196503	 	32
308925	3323977	The UN still recognizes Lisbon as the administrator of the territory.	The UN still recognizes Lisbon as the administrator of the territory.	157939952	1476239196462	1476239196569	a	65
308925	3323977	The UN still recognizes Lisbon as the administrator of the territory.	The UN still recognizes Lisbon as the administrator of the territory.	157939955	1476239196615	1476239196749	s	83
308925	3323977	The UN still recognizes Lisbon as the administrator of the territory.	The UN still recognizes Lisbon as the administrator of the territory.	157939964	1476239196668	1476239196765	 	32
308925	3323977	The UN still recognizes Lisbon as the administrator of the territory.	The UN still recognizes Lisbon as the administrator of the territory.	157939966	1476239196846	1476239196943	t	84
308925	3323977	The UN still recognizes Lisbon as the administrator of the territory.	The UN still recognizes Lisbon as the administrator of the territory.	157939968	1476239196907	1476239197010	h	72
308925	3323977	The UN still recognizes Lisbon as the administrator of the territory.	The UN still recognizes Lisbon as the administrator of the territory.	157939970	1476239197041	1476239197176	e	69
308925	3323977	The UN still recognizes Lisbon as the administrator of the territory.	The UN still recognizes Lisbon as the administrator of the territory.	157939972	1476239197139	1476239197238	 	32
308925	3323977	The UN still recognizes Lisbon as the administrator of the territory.	The UN still recognizes Lisbon as the administrator of the territory.	157939974	1476239197270	1476239197355	a	65
308925	3323977	The UN still recognizes Lisbon as the administrator of the territory.	The UN still recognizes Lisbon as the administrator of the territory.	157939995	1476239197444	1476239197607	d	68
308925	3323977	The UN still recognizes Lisbon as the administrator of the territory.	The UN still recognizes Lisbon as the administrator of the territory.	157939992	1476239197496	1476239197576	m	77
308925	3323977	The UN still recognizes Lisbon as the administrator of the territory.	The UN still recognizes Lisbon as the administrator of the territory.	157939999	1476239197659	1476239197740	i	73
308925	3323977	The UN still recognizes Lisbon as the administrator of the territory.	The UN still recognizes Lisbon as the administrator of the territory.	157940003	1476239197818	1476239197905	n	78
308925	3323977	The UN still recognizes Lisbon as the administrator of the territory.	The UN still recognizes Lisbon as the administrator of the territory.	157940007	1476239197968	1476239198074	i	73
308925	3323977	The UN still recognizes Lisbon as the administrator of the territory.	The UN still recognizes Lisbon as the administrator of the territory.	157940035	1476239198044	1476239198133	s	83
308925	3323977	The UN still recognizes Lisbon as the administrator of the territory.	The UN still recognizes Lisbon as the administrator of the territory.	157940037	1476239198258	1476239198402	t	84
308925	3323977	The UN still recognizes Lisbon as the administrator of the territory.	The UN still recognizes Lisbon as the administrator of the territory.	157940041	1476239198633	1476239198737	a	65
308925	3323977	The UN still recognizes Lisbon as the administrator of the territory.	The UN still recognizes Lisbon as the administrator of the territory.	157940044	1476239198911	1476239199010	BKSP	8
308925	3323977	The UN still recognizes Lisbon as the administrator of the territory.	The UN still recognizes Lisbon as the administrator of the territory.	157940047	1476239198973	1476239199056	r	82
308925	3323977	The UN still recognizes Lisbon as the administrator of the territory.	The UN still recognizes Lisbon as the administrator of the territory.	157940049	1476239199181	1476239199222	a	65
308925	3323977	The UN still recognizes Lisbon as the administrator of the territory.	The UN still recognizes Lisbon as the administrator of the territory.	157940051	1476239199347	1476239199457	t	84
308925	3323977	The UN still recognizes Lisbon as the administrator of the territory.	The UN still recognizes Lisbon as the administrator of the territory.	157940062	1476239199407	1476239199518	o	79
308925	3323977	The UN still recognizes Lisbon as the administrator of the territory.	The UN still recognizes Lisbon as the administrator of the territory.	157940064	1476239199545	1476239199685	r	82
308925	3323977	The UN still recognizes Lisbon as the administrator of the territory.	The UN still recognizes Lisbon as the administrator of the territory.	157940065	1476239199668	1476239199733	 	32
308925	3323977	The UN still recognizes Lisbon as the administrator of the territory.	The UN still recognizes Lisbon as the administrator of the territory.	157940066	1476239199810	1476239199905	o	79
308925	3323977	The UN still recognizes Lisbon as the administrator of the territory.	The UN still recognizes Lisbon as the administrator of the territory.	157940067	1476239199921	1476239200004	f	70
308925	3323977	The UN still recognizes Lisbon as the administrator of the territory.	The UN still recognizes Lisbon as the administrator of the territory.	157940068	1476239200020	1476239200112	 	32
308925	3323977	The UN still recognizes Lisbon as the administrator of the territory.	The UN still recognizes Lisbon as the administrator of the territory.	157940085	1476239200123	1476239200210	t	84
308925	3323977	The UN still recognizes Lisbon as the administrator of the territory.	The UN still recognizes Lisbon as the administrator of the territory.	157940088	1476239200212	1476239200288	h	72
308925	3323977	The UN still recognizes Lisbon as the administrator of the territory.	The UN still recognizes Lisbon as the administrator of the territory.	157940090	1476239200303	1476239200402	e	69
308925	3323977	The UN still recognizes Lisbon as the administrator of the territory.	The UN still recognizes Lisbon as the administrator of the territory.	157940092	1476239200418	1476239200499	 	32
308925	3323977	The UN still recognizes Lisbon as the administrator of the territory.	The UN still recognizes Lisbon as the administrator of the territory.	157940094	1476239200514	1476239200598	t	84
308925	3323977	The UN still recognizes Lisbon as the administrator of the territory.	The UN still recognizes Lisbon as the administrator of the territory.	157940119	1476239200700	1476239200803	e	69
308925	3323977	The UN still recognizes Lisbon as the administrator of the territory.	The UN still recognizes Lisbon as the administrator of the territory.	157940121	1476239200881	1476239200954	r	82
308925	3323977	The UN still recognizes Lisbon as the administrator of the territory.	The UN still recognizes Lisbon as the administrator of the territory.	157940123	1476239201017	1476239201153	r	82
308925	3323977	The UN still recognizes Lisbon as the administrator of the territory.	The UN still recognizes Lisbon as the administrator of the territory.	157940125	1476239201087	1476239201153	i	73
308925	3323977	The UN still recognizes Lisbon as the administrator of the territory.	The UN still recognizes Lisbon as the administrator of the territory.	157940126	1476239201371	1476239201485	r	82
308925	3323977	The UN still recognizes Lisbon as the administrator of the territory.	The UN still recognizes Lisbon as the administrator of the territory.	157940148	1476239201773	1476239201837	BKSP	8
308925	3323977	The UN still recognizes Lisbon as the administrator of the territory.	The UN still recognizes Lisbon as the administrator of the territory.	157940149	1476239201884	1476239201955	t	84
308925	3323977	The UN still recognizes Lisbon as the administrator of the territory.	The UN still recognizes Lisbon as the administrator of the territory.	157940150	1476239201971	1476239202068	o	79
308925	3323977	The UN still recognizes Lisbon as the administrator of the territory.	The UN still recognizes Lisbon as the administrator of the territory.	157940151	1476239202099	1476239202185	r	82
308925	3323977	The UN still recognizes Lisbon as the administrator of the territory.	The UN still recognizes Lisbon as the administrator of the territory.	157940152	1476239202274	1476239202422	y	89
308925	3323977	The UN still recognizes Lisbon as the administrator of the territory.	The UN still recognizes Lisbon as the administrator of the territory.	157940157	1476239202338	1476239202438	.	190
308925	3323992	I see some volume reversing in the system.	I see some volume reversing in the system.	157940227	1476239204561	1476239204681	I	73
308925	3323992	I see some volume reversing in the system.	I see some volume reversing in the system.	157940229	1476239204713	1476239204864	CAPS_LOCK	20
308925	3323992	I see some volume reversing in the system.	I see some volume reversing in the system.	157940231	1476239204822	1476239204915	 	32
308925	3323992	I see some volume reversing in the system.	I see some volume reversing in the system.	157940233	1476239204906	1476239204998	s	83
308925	3323992	I see some volume reversing in the system.	I see some volume reversing in the system.	157940235	1476239205077	1476239205198	e	69
308925	3323992	I see some volume reversing in the system.	I see some volume reversing in the system.	157940236	1476239205260	1476239205400	e	69
308925	3323992	I see some volume reversing in the system.	I see some volume reversing in the system.	157940244	1476239205433	1476239205495	 	32
308925	3323992	I see some volume reversing in the system.	I see some volume reversing in the system.	157940245	1476239205516	1476239205652	s	83
308925	3323992	I see some volume reversing in the system.	I see some volume reversing in the system.	157940246	1476239205600	1476239205698	o	79
308925	3323992	I see some volume reversing in the system.	I see some volume reversing in the system.	157940247	1476239205761	1476239205850	m	77
308925	3323992	I see some volume reversing in the system.	I see some volume reversing in the system.	157940248	1476239205866	1476239205990	e	69
308925	3323992	I see some volume reversing in the system.	I see some volume reversing in the system.	157940271	1476239205954	1476239206035	 	32
308925	3323992	I see some volume reversing in the system.	I see some volume reversing in the system.	157940273	1476239206145	1476239206284	v	86
308925	3323992	I see some volume reversing in the system.	I see some volume reversing in the system.	157940275	1476239206201	1476239206284	o	79
308925	3323992	I see some volume reversing in the system.	I see some volume reversing in the system.	157940278	1476239206380	1476239206450	l	76
308925	3323992	I see some volume reversing in the system.	I see some volume reversing in the system.	157940281	1476239206562	1476239206634	u	85
308925	3323992	I see some volume reversing in the system.	I see some volume reversing in the system.	157940284	1476239206712	1476239206846	m	77
308925	3323992	I see some volume reversing in the system.	I see some volume reversing in the system.	157940304	1476239206830	1476239206937	e	69
308925	3323992	I see some volume reversing in the system.	I see some volume reversing in the system.	157940306	1476239206975	1476239207096	 	32
308925	3323992	I see some volume reversing in the system.	I see some volume reversing in the system.	157940308	1476239207221	1476239207284	r	82
308925	3323992	I see some volume reversing in the system.	I see some volume reversing in the system.	157940310	1476239207377	1476239207465	e	69
308925	3323992	I see some volume reversing in the system.	I see some volume reversing in the system.	157940312	1476239207833	1476239207915	v	86
308925	3323992	I see some volume reversing in the system.	I see some volume reversing in the system.	157940315	1476239208057	1476239208181	e	69
308925	3323992	I see some volume reversing in the system.	I see some volume reversing in the system.	157940326	1476239208254	1476239208363	r	82
308925	3323992	I see some volume reversing in the system.	I see some volume reversing in the system.	157940327	1476239208492	1476239208611	s	83
308925	3323992	I see some volume reversing in the system.	I see some volume reversing in the system.	157940328	1476239208596	1476239208681	i	73
308925	3323992	I see some volume reversing in the system.	I see some volume reversing in the system.	157940329	1476239208744	1476239208831	n	78
308925	3323992	I see some volume reversing in the system.	I see some volume reversing in the system.	157940330	1476239208846	1476239208958	g	71
308925	3323992	I see some volume reversing in the system.	I see some volume reversing in the system.	157940340	1476239208915	1476239208988	 	32
308925	3323992	I see some volume reversing in the system.	I see some volume reversing in the system.	157940343	1476239209056	1476239209132	i	73
308925	3323992	I see some volume reversing in the system.	I see some volume reversing in the system.	157940346	1476239209194	1476239209268	n	78
308925	3323992	I see some volume reversing in the system.	I see some volume reversing in the system.	157940348	1476239209311	1476239209398	 	32
308925	3323992	I see some volume reversing in the system.	I see some volume reversing in the system.	157940350	1476239209445	1476239209535	t	84
308925	3323992	I see some volume reversing in the system.	I see some volume reversing in the system.	157940364	1476239209509	1476239209597	h	72
308925	3323992	I see some volume reversing in the system.	I see some volume reversing in the system.	157940366	1476239209644	1476239209763	e	69
308925	3323992	I see some volume reversing in the system.	I see some volume reversing in the system.	157940369	1476239209745	1476239209864	 	32
308925	3323992	I see some volume reversing in the system.	I see some volume reversing in the system.	157940373	1476239209852	1476239209983	s	83
308925	3323992	I see some volume reversing in the system.	I see some volume reversing in the system.	157940375	1476239209983	1476239210111	y	89
308925	3323992	I see some volume reversing in the system.	I see some volume reversing in the system.	157940377	1476239210111	1476239210218	s	83
308925	3323992	I see some volume reversing in the system.	I see some volume reversing in the system.	157940379	1476239210320	1476239210382	t	84
308925	3323992	I see some volume reversing in the system.	I see some volume reversing in the system.	157940386	1476239210492	1476239210597	e	69
308925	3323992	I see some volume reversing in the system.	I see some volume reversing in the system.	157940382	1476239210528	1476239210597	m	77
308925	3323992	I see some volume reversing in the system.	I see some volume reversing in the system.	157940390	1476239210684	1476239210784	.	190
308925	3323997	Milly is a seller.	milly is a seller.	157940469	1476239212573	1476239212642	CAPS_LOCK	20
308925	3323997	Milly is a seller.	milly is a seller.	157940471	1476239212864	1476239212930	K	75
308925	3323997	Milly is a seller.	milly is a seller.	157940477	1476239213310	1476239213363	BKSP	8
308925	3323997	Milly is a seller.	milly is a seller.	157940479	1476239213593	1476239213708	m	20
308925	3323997	Milly is a seller.	milly is a seller.	157940483	1476239213661	1476239213744	i	73
308925	3323997	Milly is a seller.	milly is a seller.	157940486	1476239213838	1476239213896	l	76
308925	3323997	Milly is a seller.	milly is a seller.	157940499	1476239213962	1476239214060	l	76
308925	3323997	Milly is a seller.	milly is a seller.	157940500	1476239214076	1476239214209	y	89
308925	3323997	Milly is a seller.	milly is a seller.	157940501	1476239214161	1476239214224	 	32
308925	3323997	Milly is a seller.	milly is a seller.	157940502	1476239214300	1476239214362	i	73
308925	3323997	Milly is a seller.	milly is a seller.	157940503	1476239214692	1476239214825	s	83
308925	3323997	Milly is a seller.	milly is a seller.	157940506	1476239214841	1476239214924	 	32
308925	3323997	Milly is a seller.	milly is a seller.	157940509	1476239215027	1476239215132	a	65
308925	3323997	Milly is a seller.	milly is a seller.	157940513	1476239215062	1476239215151	 	32
308925	3323997	Milly is a seller.	milly is a seller.	157940517	1476239215245	1476239215373	s	83
308925	3323997	Milly is a seller.	milly is a seller.	157940520	1476239215467	1476239215595	e	69
308925	3323997	Milly is a seller.	milly is a seller.	157940546	1476239215695	1476239215793	l	76
308925	3323997	Milly is a seller.	milly is a seller.	157940547	1476239215856	1476239215959	l	76
308925	3323997	Milly is a seller.	milly is a seller.	157940548	1476239216089	1476239216239	r	82
308925	3323997	Milly is a seller.	milly is a seller.	157940549	1476239216207	1476239216343	.	190
308925	3323997	Milly is a seller.	milly is a seller.	157940550	1476239216888	1476239216945	BKSP	8
308925	3323997	Milly is a seller.	milly is a seller.	157940551	1476239217024	1476239217109	BKSP	8
308925	3323997	Milly is a seller.	milly is a seller.	157940552	1476239217109	1476239217240	e	69
308925	3323997	Milly is a seller.	milly is a seller.	157940556	1476239217302	1476239217432	r	82
308925	3323997	Milly is a seller.	milly is a seller.	157940559	1476239217337	1476239217463	.	190
308925	3324003	Ruth, the market drove us back for the weekend.	Ruth, the market drove us back for the weekend.	157940644	1476239219063	1476239219181	CAPS_LOCK	20
308925	3324003	Ruth, the market drove us back for the weekend.	Ruth, the market drove us back for the weekend.	157940645	1476239219483	1476239219572	R	82
308925	3324003	Ruth, the market drove us back for the weekend.	Ruth, the market drove us back for the weekend.	157940646	1476239219650	1476239219779	CAPS_LOCK	20
308925	3324003	Ruth, the market drove us back for the weekend.	Ruth, the market drove us back for the weekend.	157940648	1476239219744	1476239219871	u	85
308925	3324003	Ruth, the market drove us back for the weekend.	Ruth, the market drove us back for the weekend.	157940650	1476239219903	1476239220019	t	84
308925	3324003	Ruth, the market drove us back for the weekend.	Ruth, the market drove us back for the weekend.	157940653	1476239220005	1476239220106	h	72
308925	3324003	Ruth, the market drove us back for the weekend.	Ruth, the market drove us back for the weekend.	157940656	1476239220231	1476239220326	,	188
308925	3324003	Ruth, the market drove us back for the weekend.	Ruth, the market drove us back for the weekend.	157940674	1476239220415	1476239220490	 	32
308925	3324003	Ruth, the market drove us back for the weekend.	Ruth, the market drove us back for the weekend.	157940676	1476239220490	1476239220589	t	84
308925	3324003	Ruth, the market drove us back for the weekend.	Ruth, the market drove us back for the weekend.	157940679	1476239220589	1476239220672	h	72
308925	3324003	Ruth, the market drove us back for the weekend.	Ruth, the market drove us back for the weekend.	157940681	1476239220703	1476239220822	e	69
308925	3324003	Ruth, the market drove us back for the weekend.	Ruth, the market drove us back for the weekend.	157940707	1476239220800	1476239220863	 	32
308925	3324003	Ruth, the market drove us back for the weekend.	Ruth, the market drove us back for the weekend.	157940709	1476239220988	1476239221087	a	65
308925	3324003	Ruth, the market drove us back for the weekend.	Ruth, the market drove us back for the weekend.	157940711	1476239221181	1476239221291	r	82
308925	3324003	Ruth, the market drove us back for the weekend.	Ruth, the market drove us back for the weekend.	157940714	1476239221241	1476239221414	k	75
308925	3324003	Ruth, the market drove us back for the weekend.	Ruth, the market drove us back for the weekend.	157940717	1476239221385	1476239221489	e	69
308925	3324003	Ruth, the market drove us back for the weekend.	Ruth, the market drove us back for the weekend.	157940720	1476239221582	1476239221705	t	84
308925	3324003	Ruth, the market drove us back for the weekend.	Ruth, the market drove us back for the weekend.	157940744	1476239221656	1476239221765	 	32
308925	3324003	Ruth, the market drove us back for the weekend.	Ruth, the market drove us back for the weekend.	157940745	1476239221865	1476239221971	d	68
308925	3324003	Ruth, the market drove us back for the weekend.	Ruth, the market drove us back for the weekend.	157940746	1476239222049	1476239222177	r	82
308925	3324003	Ruth, the market drove us back for the weekend.	Ruth, the market drove us back for the weekend.	157940747	1476239222138	1476239222304	o	79
308925	3324003	Ruth, the market drove us back for the weekend.	Ruth, the market drove us back for the weekend.	157940748	1476239222288	1476239222404	v	86
308925	3324003	Ruth, the market drove us back for the weekend.	Ruth, the market drove us back for the weekend.	157940750	1476239222529	1476239222714	e	69
308925	3324003	Ruth, the market drove us back for the weekend.	Ruth, the market drove us back for the weekend.	157940809	1476239222903	1476239223767	BKSP	8
308925	3324003	Ruth, the market drove us back for the weekend.	Ruth, the market drove us back for the weekend.	157940811	1476239224053	1476239224170	 	32
308925	3324003	Ruth, the market drove us back for the weekend.	Ruth, the market drove us back for the weekend.	157940813	1476239224170	1476239224316	m	77
308925	3324003	Ruth, the market drove us back for the weekend.	Ruth, the market drove us back for the weekend.	157940815	1476239224302	1476239224385	a	65
308925	3324003	Ruth, the market drove us back for the weekend.	Ruth, the market drove us back for the weekend.	157940817	1476239224511	1476239224577	k	82
308925	3324003	Ruth, the market drove us back for the weekend.	Ruth, the market drove us back for the weekend.	157940829	1476239224716	1476239224834	e	69
308925	3324003	Ruth, the market drove us back for the weekend.	Ruth, the market drove us back for the weekend.	157940831	1476239224928	1476239225038	t	84
308925	3324003	Ruth, the market drove us back for the weekend.	Ruth, the market drove us back for the weekend.	157940833	1476239225004	1476239225123	 	32
308925	3324003	Ruth, the market drove us back for the weekend.	Ruth, the market drove us back for the weekend.	157940835	1476239225186	1476239225284	d	68
308925	3324003	Ruth, the market drove us back for the weekend.	Ruth, the market drove us back for the weekend.	157940838	1476239225410	1476239225486	r	82
308925	3324003	Ruth, the market drove us back for the weekend.	Ruth, the market drove us back for the weekend.	157940847	1476239225441	1476239225594	o	79
308925	3324003	Ruth, the market drove us back for the weekend.	Ruth, the market drove us back for the weekend.	157940849	1476239225609	1476239225687	v	86
308925	3324003	Ruth, the market drove us back for the weekend.	Ruth, the market drove us back for the weekend.	157940851	1476239225798	1476239225921	e	69
308925	3324003	Ruth, the market drove us back for the weekend.	Ruth, the market drove us back for the weekend.	157940853	1476239225871	1476239225936	 	32
308925	3324003	Ruth, the market drove us back for the weekend.	Ruth, the market drove us back for the weekend.	157940856	1476239226024	1476239226114	u	85
308925	3324003	Ruth, the market drove us back for the weekend.	Ruth, the market drove us back for the weekend.	157940871	1476239226086	1476239226185	s	83
308925	3324003	Ruth, the market drove us back for the weekend.	Ruth, the market drove us back for the weekend.	157940873	1476239226211	1476239226291	 	32
308925	3324003	Ruth, the market drove us back for the weekend.	Ruth, the market drove us back for the weekend.	157940874	1476239226356	1476239226435	b	66
308925	3324003	Ruth, the market drove us back for the weekend.	Ruth, the market drove us back for the weekend.	157940876	1476239226387	1476239226468	a	65
308925	3324003	Ruth, the market drove us back for the weekend.	Ruth, the market drove us back for the weekend.	157940878	1476239226572	1476239226669	c	67
308925	3324003	Ruth, the market drove us back for the weekend.	Ruth, the market drove us back for the weekend.	157940895	1476239226603	1476239226687	k	75
308925	3324003	Ruth, the market drove us back for the weekend.	Ruth, the market drove us back for the weekend.	157940897	1476239226766	1476239226854	 	32
308925	3324003	Ruth, the market drove us back for the weekend.	Ruth, the market drove us back for the weekend.	157940898	1476239226800	1476239226886	f	70
308925	3324003	Ruth, the market drove us back for the weekend.	Ruth, the market drove us back for the weekend.	157940900	1476239226934	1476239227018	o	79
308925	3324003	Ruth, the market drove us back for the weekend.	Ruth, the market drove us back for the weekend.	157940901	1476239227018	1476239227121	r	82
308925	3324003	Ruth, the market drove us back for the weekend.	Ruth, the market drove us back for the weekend.	157940903	1476239227135	1476239227219	 	32
308925	3324003	Ruth, the market drove us back for the weekend.	Ruth, the market drove us back for the weekend.	157940914	1476239227203	1476239227285	t	84
308925	3324003	Ruth, the market drove us back for the weekend.	Ruth, the market drove us back for the weekend.	157940917	1476239227316	1476239227369	h	72
308925	3324003	Ruth, the market drove us back for the weekend.	Ruth, the market drove us back for the weekend.	157940919	1476239227400	1476239227538	e	69
308925	3324003	Ruth, the market drove us back for the weekend.	Ruth, the market drove us back for the weekend.	157940921	1476239227541	1476239227620	 	32
308925	3324003	Ruth, the market drove us back for the weekend.	Ruth, the market drove us back for the weekend.	157940923	1476239227602	1476239227733	w	87
308925	3324003	Ruth, the market drove us back for the weekend.	Ruth, the market drove us back for the weekend.	157940925	1476239227821	1476239227902	e	69
308925	3324003	Ruth, the market drove us back for the weekend.	Ruth, the market drove us back for the weekend.	157940933	1476239227989	1476239228119	e	69
308925	3324003	Ruth, the market drove us back for the weekend.	Ruth, the market drove us back for the weekend.	157940935	1476239228069	1476239228197	k	75
308925	3324003	Ruth, the market drove us back for the weekend.	Ruth, the market drove us back for the weekend.	157940937	1476239228234	1476239228354	e	69
308925	3324003	Ruth, the market drove us back for the weekend.	Ruth, the market drove us back for the weekend.	157940938	1476239228334	1476239228439	n	78
308925	3324003	Ruth, the market drove us back for the weekend.	Ruth, the market drove us back for the weekend.	157940939	1476239228454	1476239228607	d	68
308925	3324003	Ruth, the market drove us back for the weekend.	Ruth, the market drove us back for the weekend.	157940941	1476239228564	1476239228668	.	190
308925	3324009	Please stay on top of the security issue.	Please stay on top of the security issue.	157941026	1476239230488	1476239230599	CAPS_LOCK	20
308925	3324009	Please stay on top of the security issue.	Please stay on top of the security issue.	157941027	1476239230590	1476239230713	O	79
308925	3324009	Please stay on top of the security issue.	Please stay on top of the security issue.	157941028	1476239230729	1476239230823	CAPS_LOCK	20
308925	3324009	Please stay on top of the security issue.	Please stay on top of the security issue.	157941030	1476239231089	1476239231150	BKSP	8
308925	3324009	Please stay on top of the security issue.	Please stay on top of the security issue.	157941032	1476239231150	1476239231266	CAPS_LOCK	20
308925	3324009	Please stay on top of the security issue.	Please stay on top of the security issue.	157941034	1476239231260	1476239231398	P	80
308925	3324009	Please stay on top of the security issue.	Please stay on top of the security issue.	157941036	1476239231363	1476239231468	CAPS_LOCK	20
308925	3324009	Please stay on top of the security issue.	Please stay on top of the security issue.	157941038	1476239231445	1476239231573	l	76
308925	3324009	Please stay on top of the security issue.	Please stay on top of the security issue.	157941039	1476239231532	1476239231616	e	69
308925	3324009	Please stay on top of the security issue.	Please stay on top of the security issue.	157941040	1476239231709	1476239231798	a	65
308925	3324009	Please stay on top of the security issue.	Please stay on top of the security issue.	157941066	1476239231885	1476239231996	s	83
308925	3324009	Please stay on top of the security issue.	Please stay on top of the security issue.	157941067	1476239232074	1476239232219	e	69
308925	3324009	Please stay on top of the security issue.	Please stay on top of the security issue.	157941068	1476239232180	1476239232270	 	32
308925	3324009	Please stay on top of the security issue.	Please stay on top of the security issue.	157941069	1476239232496	1476239232628	s	83
308925	3324009	Please stay on top of the security issue.	Please stay on top of the security issue.	157941070	1476239232987	1476239233133	r	82
308925	3324009	Please stay on top of the security issue.	Please stay on top of the security issue.	157941117	1476239233629	1476239233712	BKSP	8
308925	3324009	Please stay on top of the security issue.	Please stay on top of the security issue.	157941119	1476239233679	1476239233779	t	84
308925	3324009	Please stay on top of the security issue.	Please stay on top of the security issue.	157941121	1476239233873	1476239233929	e	69
308925	3324009	Please stay on top of the security issue.	Please stay on top of the security issue.	157941123	1476239234188	1476239234263	BKSP	8
308925	3324009	Please stay on top of the security issue.	Please stay on top of the security issue.	157941124	1476239234263	1476239234423	a	65
308925	3324009	Please stay on top of the security issue.	Please stay on top of the security issue.	157941126	1476239234378	1476239234460	y	89
308925	3324009	Please stay on top of the security issue.	Please stay on top of the security issue.	157941128	1476239234560	1476239234637	 	32
308925	3324009	Please stay on top of the security issue.	Please stay on top of the security issue.	157941135	1476239234696	1476239234766	o	79
308925	3324009	Please stay on top of the security issue.	Please stay on top of the security issue.	157941137	1476239234831	1476239234898	n	78
308925	3324009	Please stay on top of the security issue.	Please stay on top of the security issue.	157941141	1476239234976	1476239235049	 	32
308925	3324009	Please stay on top of the security issue.	Please stay on top of the security issue.	157941143	1476239235158	1476239235212	o	79
308925	3324009	Please stay on top of the security issue.	Please stay on top of the security issue.	157941180	1476239235192	1476239235256	t	84
308925	3324009	Please stay on top of the security issue.	Please stay on top of the security issue.	157941181	1476239235444	1476239235494	BKSP	8
308925	3324009	Please stay on top of the security issue.	Please stay on top of the security issue.	157941182	1476239235571	1476239235645	BKSP	8
308925	3324009	Please stay on top of the security issue.	Please stay on top of the security issue.	157941183	1476239235660	1476239235755	t	84
308925	3324009	Please stay on top of the security issue.	Please stay on top of the security issue.	157941185	1476239235737	1476239235812	o	79
308925	3324009	Please stay on top of the security issue.	Please stay on top of the security issue.	157941187	1476239235875	1476239235964	p	80
308925	3324009	Please stay on top of the security issue.	Please stay on top of the security issue.	157941189	1476239236058	1476239236129	 	32
308925	3324009	Please stay on top of the security issue.	Please stay on top of the security issue.	157941191	1476239236223	1476239236298	o	79
308925	3324009	Please stay on top of the security issue.	Please stay on top of the security issue.	157941196	1476239236312	1476239236394	f	70
308925	3324009	Please stay on top of the security issue.	Please stay on top of the security issue.	157941197	1476239236410	1476239236479	 	32
308925	3324009	Please stay on top of the security issue.	Please stay on top of the security issue.	157941198	1476239236528	1476239236621	t	84
308925	3324009	Please stay on top of the security issue.	Please stay on top of the security issue.	157941200	1476239236580	1476239236648	h	72
308925	3324009	Please stay on top of the security issue.	Please stay on top of the security issue.	157941202	1476239236711	1476239236822	e	69
308925	3324009	Please stay on top of the security issue.	Please stay on top of the security issue.	157941227	1476239236780	1476239236870	 	32
308925	3324009	Please stay on top of the security issue.	Please stay on top of the security issue.	157941228	1476239236901	1476239237014	s	83
308925	3324009	Please stay on top of the security issue.	Please stay on top of the security issue.	157941230	1476239237076	1476239237177	e	69
308925	3324009	Please stay on top of the security issue.	Please stay on top of the security issue.	157941232	1476239237287	1476239237405	c	67
308925	3324009	Please stay on top of the security issue.	Please stay on top of the security issue.	157941234	1476239237377	1476239237476	u	85
308925	3324009	Please stay on top of the security issue.	Please stay on top of the security issue.	157941238	1476239237507	1476239237663	r	82
308925	3324009	Please stay on top of the security issue.	Please stay on top of the security issue.	157941258	1476239237641	1476239237727	i	73
308925	3324009	Please stay on top of the security issue.	Please stay on top of the security issue.	157941263	1476239237742	1476239237828	t	84
308925	3324009	Please stay on top of the security issue.	Please stay on top of the security issue.	157941265	1476239237937	1476239238069	y	89
308925	3324009	Please stay on top of the security issue.	Please stay on top of the security issue.	157941269	1476239238058	1476239238165	 	32
308925	3324009	Please stay on top of the security issue.	Please stay on top of the security issue.	157941273	1476239238276	1476239238345	i	73
308925	3324009	Please stay on top of the security issue.	Please stay on top of the security issue.	157941276	1476239238408	1476239238478	s	83
308925	3324009	Please stay on top of the security issue.	Please stay on top of the security issue.	157941288	1476239238569	1476239238674	s	83
308925	3324009	Please stay on top of the security issue.	Please stay on top of the security issue.	157941291	1476239238630	1476239238711	u	85
308925	3324009	Please stay on top of the security issue.	Please stay on top of the security issue.	157941295	1476239238758	1476239238912	e	69
308925	3324009	Please stay on top of the security issue.	Please stay on top of the security issue.	157941298	1476239238859	1476239238969	.	190
308925	3324014	Do you know anything?	Do you know anything?	157941382	1476239240671	1476239240750	CAPS_LOCK	20
308925	3324014	Do you know anything?	Do you know anything?	157941383	1476239240869	1476239240942	D	68
308925	3324014	Do you know anything?	Do you know anything?	157941384	1476239241020	1476239241144	CAPS_LOCK	20
308925	3324014	Do you know anything?	Do you know anything?	157941385	1476239241099	1476239241159	o	79
308925	3324014	Do you know anything?	Do you know anything?	157941386	1476239241284	1476239241371	 	32
308925	3324014	Do you know anything?	Do you know anything?	157941387	1476239241387	1476239241522	y	89
308925	3324014	Do you know anything?	Do you know anything?	157941396	1476239241505	1476239241575	o	79
308925	3324014	Do you know anything?	Do you know anything?	157941399	1476239241591	1476239241706	u	85
308925	3324014	Do you know anything?	Do you know anything?	157941401	1476239241706	1476239241746	 	32
308925	3324014	Do you know anything?	Do you know anything?	157941403	1476239241807	1476239241876	k	75
308925	3324014	Do you know anything?	Do you know anything?	157941405	1476239241939	1476239241988	n	78
308925	3324014	Do you know anything?	Do you know anything?	157941407	1476239242040	1476239242124	o	79
308925	3324014	Do you know anything?	Do you know anything?	157941422	1476239242124	1476239242245	w	87
308925	3324014	Do you know anything?	Do you know anything?	157941425	1476239242253	1476239242327	 	32
308925	3324014	Do you know anything?	Do you know anything?	157941428	1476239242343	1476239242474	a	65
308925	3324014	Do you know anything?	Do you know anything?	157941431	1476239242408	1476239242492	n	78
308925	3324014	Do you know anything?	Do you know anything?	157941433	1476239242583	1476239242672	y	89
308925	3324014	Do you know anything?	Do you know anything?	157941449	1476239242704	1476239242850	t	84
308925	3324014	Do you know anything?	Do you know anything?	157941450	1476239242807	1476239242859	h	72
308925	3324014	Do you know anything?	Do you know anything?	157941451	1476239242906	1476239243006	i	73
308925	3324014	Do you know anything?	Do you know anything?	157941452	1476239243052	1476239243132	n	78
308925	3324014	Do you know anything?	Do you know anything?	157941455	1476239243147	1476239243287	g	71
308925	3324014	Do you know anything?	Do you know anything?	157941467	1476239243271	1476239243392	SHIFT	16
308925	3324014	Do you know anything?	Do you know anything?	157941468	1476239243323	1476239243434	?	191
308925	3324019	Never mind, I already deleted it.	Never mind, I already deleted it.	157941506	1476239244953	1476239245092	CAPS_LOCK	20
308925	3324019	Never mind, I already deleted it.	Never mind, I already deleted it.	157941508	1476239245072	1476239245219	N	78
308925	3324019	Never mind, I already deleted it.	Never mind, I already deleted it.	157941510	1476239245235	1476239245328	CAPS_LOCK	20
308925	3324019	Never mind, I already deleted it.	Never mind, I already deleted it.	157941512	1476239245359	1476239245485	e	69
308925	3324019	Never mind, I already deleted it.	Never mind, I already deleted it.	157941514	1476239245471	1476239245577	v	86
308925	3324019	Never mind, I already deleted it.	Never mind, I already deleted it.	157941516	1476239245569	1476239245655	e	69
308925	3324019	Never mind, I already deleted it.	Never mind, I already deleted it.	157941518	1476239245718	1476239245847	r	82
308925	3324019	Never mind, I already deleted it.	Never mind, I already deleted it.	157941527	1476239245806	1476239245890	 	32
308925	3324019	Never mind, I already deleted it.	Never mind, I already deleted it.	157941530	1476239245971	1476239246070	m	77
308925	3324019	Never mind, I already deleted it.	Never mind, I already deleted it.	157941534	1476239246134	1476239246205	i	73
308925	3324019	Never mind, I already deleted it.	Never mind, I already deleted it.	157941538	1476239246268	1476239246355	n	78
308925	3324019	Never mind, I already deleted it.	Never mind, I already deleted it.	157941543	1476239246355	1476239246453	d	68
308925	3324019	Never mind, I already deleted it.	Never mind, I already deleted it.	157941546	1476239246453	1476239246545	,	188
308925	3324019	Never mind, I already deleted it.	Never mind, I already deleted it.	157942122	1476239246641	1476239246737	CAPS_LOCK	20
308925	3324019	Never mind, I already deleted it.	Never mind, I already deleted it.	157942120	1476239246688	1476239246721	 	32
308925	3324019	Never mind, I already deleted it.	Never mind, I already deleted it.	157942123	1476239246881	1476239246954	I	73
308925	3324019	Never mind, I already deleted it.	Never mind, I already deleted it.	157942126	1476239247001	1476239247130	CAPS_LOCK	20
308925	3324019	Never mind, I already deleted it.	Never mind, I already deleted it.	157942129	1476239247111	1476239247173	 	32
308925	3324019	Never mind, I already deleted it.	Never mind, I already deleted it.	157942132	1476239247236	1476239247337	a	65
308925	3324019	Never mind, I already deleted it.	Never mind, I already deleted it.	157942146	1476239247305	1476239247418	l	76
308925	3324019	Never mind, I already deleted it.	Never mind, I already deleted it.	157942149	1476239247499	1476239247572	r	82
308925	3324019	Never mind, I already deleted it.	Never mind, I already deleted it.	157942152	1476239247667	1476239247769	e	69
308925	3324019	Never mind, I already deleted it.	Never mind, I already deleted it.	157942155	1476239247848	1476239247937	a	65
308925	3324019	Never mind, I already deleted it.	Never mind, I already deleted it.	157942159	1476239248046	1476239248155	d	68
308925	3324019	Never mind, I already deleted it.	Never mind, I already deleted it.	157942165	1476239248083	1476239248173	y	89
308925	3324019	Never mind, I already deleted it.	Never mind, I already deleted it.	157942166	1476239248293	1476239248385	 	32
308925	3324019	Never mind, I already deleted it.	Never mind, I already deleted it.	157942167	1476239248313	1476239248385	d	68
308925	3324019	Never mind, I already deleted it.	Never mind, I already deleted it.	157942168	1476239248481	1476239248597	e	69
308925	3324019	Never mind, I already deleted it.	Never mind, I already deleted it.	157942169	1476239248564	1476239248668	l	76
308925	3324019	Never mind, I already deleted it.	Never mind, I already deleted it.	157942170	1476239248668	1476239248753	e	69
308925	3324019	Never mind, I already deleted it.	Never mind, I already deleted it.	157942296	1476239248846	1476239248905	t	84
308925	3324019	Never mind, I already deleted it.	Never mind, I already deleted it.	157942298	1476239249030	1476239249119	e	69
308925	3324019	Never mind, I already deleted it.	Never mind, I already deleted it.	157942300	1476239249197	1476239249333	d	68
308925	3324019	Never mind, I already deleted it.	Never mind, I already deleted it.	157942303	1476239249395	1476239249455	 	32
308925	3324019	Never mind, I already deleted it.	Never mind, I already deleted it.	157942305	1476239249534	1476239249619	i	73
308925	3324019	Never mind, I already deleted it.	Never mind, I already deleted it.	157942366	1476239249630	1476239249749	t	84
308925	3324019	Never mind, I already deleted it.	Never mind, I already deleted it.	157942371	1476239249749	1476239249852	.	190
308925	3324035	Are you on the diet with me?	Are you on the diet with me?	157942462	1476239276985	1476239277084	CAPS_LOCK	20
308925	3324035	Are you on the diet with me?	Are you on the diet with me?	157942463	1476239277093	1476239277211	A	65
308925	3324035	Are you on the diet with me?	Are you on the diet with me?	157942464	1476239277193	1476239277295	CAPS_LOCK	20
308925	3324035	Are you on the diet with me?	Are you on the diet with me?	157942465	1476239277377	1476239277471	r	82
308925	3324035	Are you on the diet with me?	Are you on the diet with me?	157942469	1476239277543	1476239277698	e	69
308925	3324035	Are you on the diet with me?	Are you on the diet with me?	157942467	1476239277602	1476239277668	 	32
308925	3324035	Are you on the diet with me?	Are you on the diet with me?	157942471	1476239277757	1476239277846	y	89
308925	3324035	Are you on the diet with me?	Are you on the diet with me?	157942487	1476239277951	1476239278051	o	79
308925	3324035	Are you on the diet with me?	Are you on the diet with me?	157942489	1476239278140	1476239278213	u	85
308925	3324035	Are you on the diet with me?	Are you on the diet with me?	157942491	1476239278297	1476239278373	 	32
308925	3324035	Are you on the diet with me?	Are you on the diet with me?	157942493	1476239278460	1476239278521	o	79
308925	3324035	Are you on the diet with me?	Are you on the diet with me?	157942494	1476239278594	1476239278662	n	78
308925	3324035	Are you on the diet with me?	Are you on the diet with me?	157942504	1476239278738	1476239278810	 	32
308925	3324035	Are you on the diet with me?	Are you on the diet with me?	157942506	1476239278833	1476239278927	t	84
308925	3324035	Are you on the diet with me?	Are you on the diet with me?	157942509	1476239278921	1476239278997	h	72
308925	3324035	Are you on the diet with me?	Are you on the diet with me?	157942512	1476239279038	1476239279155	e	69
308925	3324035	Are you on the diet with me?	Are you on the diet with me?	157942533	1476239279130	1476239279226	 	32
308925	3324035	Are you on the diet with me?	Are you on the diet with me?	157942534	1476239279257	1476239279362	d	68
308925	3324035	Are you on the diet with me?	Are you on the diet with me?	157942538	1476239279357	1476239279494	i	73
308925	3324035	Are you on the diet with me?	Are you on the diet with me?	157942542	1476239279464	1476239279581	e	69
308925	3324035	Are you on the diet with me?	Are you on the diet with me?	157942546	1476239279681	1476239279807	t	84
308925	3324035	Are you on the diet with me?	Are you on the diet with me?	157942558	1476239279747	1476239279843	 	32
308925	3324035	Are you on the diet with me?	Are you on the diet with me?	157942559	1476239279951	1476239280050	w	87
308925	3324035	Are you on the diet with me?	Are you on the diet with me?	157942560	1476239280029	1476239280120	i	73
308925	3324035	Are you on the diet with me?	Are you on the diet with me?	157942562	1476239280151	1476239280260	t	84
308925	3324035	Are you on the diet with me?	Are you on the diet with me?	157942564	1476239280217	1476239280293	h	72
308925	3324035	Are you on the diet with me?	Are you on the diet with me?	157942565	1476239280394	1476239280496	 	32
308925	3324035	Are you on the diet with me?	Are you on the diet with me?	157942584	1476239280505	1476239280594	m	77
308925	3324035	Are you on the diet with me?	Are you on the diet with me?	157942586	1476239280608	1476239280750	e	69
308925	3324035	Are you on the diet with me?	Are you on the diet with me?	157942589	1476239280717	1476239280970	SHIFT	16
308925	3324035	Are you on the diet with me?	Are you on the diet with me?	157942592	1476239280818	1476239280985	?	191
