PARTICIPANT_ID	TEST_SECTION_ID	SENTENCE	USER_INPUT	KEYSTROKE_ID	PRESS_TIME	RELEASE_TIME	LETTER	KEYCODE
31482	337099	San Francisco was Interconnect meeting.	San Francisco was Interconnect meeting.	16007751	1472303101306	1472303101505	SHIFT	16
31482	337099	San Francisco was Interconnect meeting.	San Francisco was Interconnect meeting.	16007752	1472303101473	1472303101641	S	83
31482	337099	San Francisco was Interconnect meeting.	San Francisco was Interconnect meeting.	16007754	1472303101601	1472303101745	a	65
31482	337099	San Francisco was Interconnect meeting.	San Francisco was Interconnect meeting.	16007756	1472303101785	1472303101889	n	78
31482	337099	San Francisco was Interconnect meeting.	San Francisco was Interconnect meeting.	16007758	1472303101905	1472303102025	 	32
31482	337099	San Francisco was Interconnect meeting.	San Francisco was Interconnect meeting.	16007760	1472303102241	1472303102449	SHIFT	16
31482	337099	San Francisco was Interconnect meeting.	San Francisco was Interconnect meeting.	16007796	1472303102370	1472303102505	F	70
31482	337099	San Francisco was Interconnect meeting.	San Francisco was Interconnect meeting.	16007798	1472303102625	1472303102713	r	82
31482	337099	San Francisco was Interconnect meeting.	San Francisco was Interconnect meeting.	16007801	1472303102730	1472303102857	a	65
31482	337099	San Francisco was Interconnect meeting.	San Francisco was Interconnect meeting.	16007804	1472303102889	1472303103041	n	78
31482	337099	San Francisco was Interconnect meeting.	San Francisco was Interconnect meeting.	16007808	1472303103169	1472303103305	s	83
31482	337099	San Francisco was Interconnect meeting.	San Francisco was Interconnect meeting.	16007812	1472303103657	1472303103745	i	73
31482	337099	San Francisco was Interconnect meeting.	San Francisco was Interconnect meeting.	16007933	1472303104825	1472303104945	c	67
31482	337099	San Francisco was Interconnect meeting.	San Francisco was Interconnect meeting.	16007936	1472303105089	1472303105163	BKSP	8
31482	337099	San Francisco was Interconnect meeting.	San Francisco was Interconnect meeting.	16007939	1472303105249	1472303105305	BKSP	8
31482	337099	San Francisco was Interconnect meeting.	San Francisco was Interconnect meeting.	16007943	1472303105389	1472303105441	BKSP	8
31482	337099	San Francisco was Interconnect meeting.	San Francisco was Interconnect meeting.	16007946	1472303105561	1472303105641	c	67
31482	337099	San Francisco was Interconnect meeting.	San Francisco was Interconnect meeting.	16007949	1472303105730	1472303105833	i	73
31482	337099	San Francisco was Interconnect meeting.	San Francisco was Interconnect meeting.	16007953	1472303105873	1472303106009	s	83
31482	337099	San Francisco was Interconnect meeting.	San Francisco was Interconnect meeting.	16007956	1472303106297	1472303106425	c	67
31482	337099	San Francisco was Interconnect meeting.	San Francisco was Interconnect meeting.	16007968	1472303106473	1472303106521	i	73
31482	337099	San Francisco was Interconnect meeting.	San Francisco was Interconnect meeting.	16007971	1472303106497	1472303106529	o	79
31482	337099	San Francisco was Interconnect meeting.	San Francisco was Interconnect meeting.	16007975	1472303106889	1472303106937	BKSP	8
31482	337099	San Francisco was Interconnect meeting.	San Francisco was Interconnect meeting.	16007978	1472303107425	1472303107489	BKSP	8
31482	337099	San Francisco was Interconnect meeting.	San Francisco was Interconnect meeting.	16007981	1472303107577	1472303107696	o	79
31482	337099	San Francisco was Interconnect meeting.	San Francisco was Interconnect meeting.	16007984	1472303107761	1472303107889	 	32
31482	337099	San Francisco was Interconnect meeting.	San Francisco was Interconnect meeting.	16008042	1472303107873	1472303108025	w	87
31482	337099	San Francisco was Interconnect meeting.	San Francisco was Interconnect meeting.	16008047	1472303107977	1472303108153	a	65
31482	337099	San Francisco was Interconnect meeting.	San Francisco was Interconnect meeting.	16008050	1472303108137	1472303108329	s	83
31482	337099	San Francisco was Interconnect meeting.	San Francisco was Interconnect meeting.	16008053	1472303108489	1472303108608	 	32
31482	337099	San Francisco was Interconnect meeting.	San Francisco was Interconnect meeting.	16008056	1472303108800	1472303109209	SHIFT	16
31482	337099	San Francisco was Interconnect meeting.	San Francisco was Interconnect meeting.	16008060	1472303109146	1472303109233	I	73
31482	337099	San Francisco was Interconnect meeting.	San Francisco was Interconnect meeting.	16008063	1472303109481	1472303109577	n	78
31482	337099	San Francisco was Interconnect meeting.	San Francisco was Interconnect meeting.	16008173	1472303109713	1472303109801	t	84
31482	337099	San Francisco was Interconnect meeting.	San Francisco was Interconnect meeting.	16008175	1472303109826	1472303109929	e	69
31482	337099	San Francisco was Interconnect meeting.	San Francisco was Interconnect meeting.	16008177	1472303110121	1472303110184	r	82
31482	337099	San Francisco was Interconnect meeting.	San Francisco was Interconnect meeting.	16008180	1472303110586	1472303110688	n	78
31482	337099	San Francisco was Interconnect meeting.	San Francisco was Interconnect meeting.	16008185	1472303110993	1472303111072	BKSP	8
31482	337099	San Francisco was Interconnect meeting.	San Francisco was Interconnect meeting.	16008189	1472303111081	1472303111200	c	67
31482	337099	San Francisco was Interconnect meeting.	San Francisco was Interconnect meeting.	16008137	1472303111233	1472303111273	o	79
31482	337099	San Francisco was Interconnect meeting.	San Francisco was Interconnect meeting.	16008141	1472303111529	1472303111608	n	78
31482	337099	San Francisco was Interconnect meeting.	San Francisco was Interconnect meeting.	16008144	1472303111689	1472303111792	n	78
31482	337099	San Francisco was Interconnect meeting.	San Francisco was Interconnect meeting.	16008147	1472303111800	1472303111912	e	69
31482	337099	San Francisco was Interconnect meeting.	San Francisco was Interconnect meeting.	16008150	1472303112296	1472303112432	c	67
31482	337099	San Francisco was Interconnect meeting.	San Francisco was Interconnect meeting.	16008179	1472303112505	1472303112593	t	84
31482	337099	San Francisco was Interconnect meeting.	San Francisco was Interconnect meeting.	16008182	1472303112628	1472303112729	 	32
31482	337099	San Francisco was Interconnect meeting.	San Francisco was Interconnect meeting.	16008186	1472303112800	1472303113105	SHIFT	16
31482	337099	San Francisco was Interconnect meeting.	San Francisco was Interconnect meeting.	16008190	1472303113272	1472303113385	m	77
31482	337099	San Francisco was Interconnect meeting.	San Francisco was Interconnect meeting.	16008193	1472303113400	1472303113465	e	69
31482	337099	San Francisco was Interconnect meeting.	San Francisco was Interconnect meeting.	16008196	1472303113545	1472303113608	e	69
31482	337099	San Francisco was Interconnect meeting.	San Francisco was Interconnect meeting.	16008219	1472303113744	1472303113825	t	84
31482	337099	San Francisco was Interconnect meeting.	San Francisco was Interconnect meeting.	16008225	1472303113880	1472303113937	i	73
31482	337099	San Francisco was Interconnect meeting.	San Francisco was Interconnect meeting.	16008229	1472303114073	1472303114144	n	78
31482	337099	San Francisco was Interconnect meeting.	San Francisco was Interconnect meeting.	16008231	1472303114153	1472303114264	g	71
31482	337099	San Francisco was Interconnect meeting.	San Francisco was Interconnect meeting.	16008235	1472303114401	1472303114481	.	190
31482	337099	San Francisco was Interconnect meeting.	San Francisco was Interconnect meeting.	16008333	1472303115105	1472303115192	\	220
31482	337099	San Francisco was Interconnect meeting.	San Francisco was Interconnect meeting.	16008335	1472303115736	1472303115816	BKSP	8
31482	337115	I decided that I am going to stay here!	I decided That I am going to stay here!	16008488	1472303122097	1472303122385	SHIFT	16
31482	337115	I decided that I am going to stay here!	I decided That I am going to stay here!	16008492	1472303122321	1472303122409	I	73
31482	337115	I decided that I am going to stay here!	I decided That I am going to stay here!	16008496	1472303122425	1472303122537	 	32
31482	337115	I decided that I am going to stay here!	I decided That I am going to stay here!	16008500	1472303122593	1472303122667	d	68
31482	337115	I decided that I am going to stay here!	I decided That I am going to stay here!	16008503	1472303122761	1472303122825	e	69
31482	337115	I decided that I am going to stay here!	I decided That I am going to stay here!	16008507	1472303122937	1472303123041	c	67
31482	337115	I decided that I am going to stay here!	I decided That I am going to stay here!	16008515	1472303123081	1472303123161	i	73
31482	337115	I decided that I am going to stay here!	I decided That I am going to stay here!	16008517	1472303123219	1472303123297	d	68
31482	337115	I decided that I am going to stay here!	I decided That I am going to stay here!	16008519	1472303123385	1472303123449	e	69
31482	337115	I decided that I am going to stay here!	I decided That I am going to stay here!	16008522	1472303123547	1472303123657	d	68
31482	337115	I decided that I am going to stay here!	I decided That I am going to stay here!	16008525	1472303123705	1472303123817	 	32
31482	337115	I decided that I am going to stay here!	I decided That I am going to stay here!	16008565	1472303123945	1472303124177	SHIFT	16
31482	337115	I decided that I am going to stay here!	I decided That I am going to stay here!	16008564	1472303124098	1472303124161	T	84
31482	337115	I decided that I am going to stay here!	I decided That I am going to stay here!	16008567	1472303124273	1472303124369	h	72
31482	337115	I decided that I am going to stay here!	I decided That I am going to stay here!	16008570	1472303124377	1472303124505	a	65
31482	337115	I decided that I am going to stay here!	I decided That I am going to stay here!	16008572	1472303124489	1472303124569	t	84
31482	337115	I decided that I am going to stay here!	I decided That I am going to stay here!	16008574	1472303124625	1472303124745	 	32
31482	337115	I decided that I am going to stay here!	I decided That I am going to stay here!	16008631	1472303124841	1472303125281	SHIFT	16
31482	337115	I decided that I am going to stay here!	I decided That I am going to stay here!	16008630	1472303125089	1472303125177	I	73
31482	337115	I decided that I am going to stay here!	I decided That I am going to stay here!	16008632	1472303125233	1472303125385	A	65
31482	337115	I decided that I am going to stay here!	I decided That I am going to stay here!	16008633	1472303126034	1472303126105	BKSP	8
31482	337115	I decided that I am going to stay here!	I decided That I am going to stay here!	16008634	1472303126177	1472303126241	BKSP	8
31482	337115	I decided that I am going to stay here!	I decided That I am going to stay here!	16008637	1472303126633	1472303126850	SHIFT	16
31482	337115	I decided that I am going to stay here!	I decided That I am going to stay here!	16008635	1472303126737	1472303126809	I	73
31482	337115	I decided that I am going to stay here!	I decided That I am going to stay here!	16008640	1472303126913	1472303127027	 	32
31482	337115	I decided that I am going to stay here!	I decided That I am going to stay here!	16008643	1472303127065	1472303127217	a	65
31482	337115	I decided that I am going to stay here!	I decided That I am going to stay here!	16008675	1472303127233	1472303127352	m	77
31482	337115	I decided that I am going to stay here!	I decided That I am going to stay here!	16008676	1472303127376	1472303127496	 	32
31482	337115	I decided that I am going to stay here!	I decided That I am going to stay here!	16008677	1472303127929	1472303128009	g	71
31482	337115	I decided that I am going to stay here!	I decided That I am going to stay here!	16008678	1472303128025	1472303128113	o	79
31482	337115	I decided that I am going to stay here!	I decided That I am going to stay here!	16008679	1472303128201	1472303128257	i	73
31482	337115	I decided that I am going to stay here!	I decided That I am going to stay here!	16008710	1472303128369	1472303128473	n	78
31482	337115	I decided that I am going to stay here!	I decided That I am going to stay here!	16008712	1472303128489	1472303128648	g	71
31482	337115	I decided that I am going to stay here!	I decided That I am going to stay here!	16008715	1472303128610	1472303128752	 	32
31482	337115	I decided that I am going to stay here!	I decided That I am going to stay here!	16008718	1472303128960	1472303129056	t	84
31482	337115	I decided that I am going to stay here!	I decided That I am going to stay here!	16008751	1472303129040	1472303129184	o	79
31482	337115	I decided that I am going to stay here!	I decided That I am going to stay here!	16008753	1472303129241	1472303129344	 	32
31482	337115	I decided that I am going to stay here!	I decided That I am going to stay here!	16008755	1472303129440	1472303129552	s	83
31482	337115	I decided that I am going to stay here!	I decided That I am going to stay here!	16008758	1472303129842	1472303129920	t	84
31482	337115	I decided that I am going to stay here!	I decided That I am going to stay here!	16008761	1472303129968	1472303130080	a	65
31482	337115	I decided that I am going to stay here!	I decided That I am going to stay here!	16008785	1472303130066	1472303130145	y	89
31482	337115	I decided that I am going to stay here!	I decided That I am going to stay here!	16008789	1472303130257	1472303130369	 	32
31482	337115	I decided that I am going to stay here!	I decided That I am going to stay here!	16008792	1472303130425	1472303130529	h	72
31482	337115	I decided that I am going to stay here!	I decided That I am going to stay here!	16008795	1472303130544	1472303130640	e	69
31482	337115	I decided that I am going to stay here!	I decided That I am going to stay here!	16008797	1472303130745	1472303130865	r	82
31482	337115	I decided that I am going to stay here!	I decided That I am going to stay here!	16008814	1472303130842	1472303130985	e	69
31482	337115	I decided that I am going to stay here!	I decided That I am going to stay here!	16008817	1472303131369	1472303131608	SHIFT	16
31482	337115	I decided that I am going to stay here!	I decided That I am going to stay here!	16008820	1472303131521	1472303131672	!	49
31482	337125	Is this the conference rate?	Is this the conference rate?	16008947	1472303134762	1472303135089	SHIFT	16
31482	337125	Is this the conference rate?	Is this the conference rate?	16008951	1472303135033	1472303135105	I	73
31482	337125	Is this the conference rate?	Is this the conference rate?	16008954	1472303135185	1472303135322	s	83
31482	337125	Is this the conference rate?	Is this the conference rate?	16008955	1472303135353	1472303135481	 	32
31482	337125	Is this the conference rate?	Is this the conference rate?	16008956	1472303135497	1472303135570	t	84
31482	337125	Is this the conference rate?	Is this the conference rate?	16008957	1472303135673	1472303135745	h	72
31482	337125	Is this the conference rate?	Is this the conference rate?	16008972	1472303135865	1472303135961	i	73
31482	337125	Is this the conference rate?	Is this the conference rate?	16008975	1472303135985	1472303136153	s	83
31482	337125	Is this the conference rate?	Is this the conference rate?	16008978	1472303136146	1472303136257	 	32
31482	337125	Is this the conference rate?	Is this the conference rate?	16008980	1472303136417	1472303136497	t	84
31482	337125	Is this the conference rate?	Is this the conference rate?	16008982	1472303136602	1472303136689	h	72
31482	337125	Is this the conference rate?	Is this the conference rate?	16009013	1472303136665	1472303136817	e	69
31482	337125	Is this the conference rate?	Is this the conference rate?	16009014	1472303136793	1472303136897	 	32
31482	337125	Is this the conference rate?	Is this the conference rate?	16009015	1472303137009	1472303137097	o	67
31482	337125	Is this the conference rate?	Is this the conference rate?	16009016	1472303137569	1472303137673	n	78
31482	337125	Is this the conference rate?	Is this the conference rate?	16009017	1472303137777	1472303137865	f	70
31482	337125	Is this the conference rate?	Is this the conference rate?	16009031	1472303137987	1472303138123	e	69
31482	337125	Is this the conference rate?	Is this the conference rate?	16009036	1472303138113	1472303138225	r	82
31482	337125	Is this the conference rate?	Is this the conference rate?	16009039	1472303138201	1472303138323	e	69
31482	337125	Is this the conference rate?	Is this the conference rate?	16009043	1472303138409	1472303138513	n	78
31482	337125	Is this the conference rate?	Is this the conference rate?	16009046	1472303138569	1472303138689	c	67
31482	337125	Is this the conference rate?	Is this the conference rate?	16009066	1472303138713	1472303138873	e	69
31482	337125	Is this the conference rate?	Is this the conference rate?	16009068	1472303138857	1472303138985	 	32
31482	337125	Is this the conference rate?	Is this the conference rate?	16009070	1472303139561	1472303139689	r	82
31482	337125	Is this the conference rate?	Is this the conference rate?	16009072	1472303139705	1472303139842	a	65
31482	337125	Is this the conference rate?	Is this the conference rate?	16009073	1472303139905	1472303139977	t	84
31482	337125	Is this the conference rate?	Is this the conference rate?	16009099	1472303140018	1472303140121	e	69
31482	337125	Is this the conference rate?	Is this the conference rate?	16009103	1472303140193	1472303140417	SHIFT	16
31482	337125	Is this the conference rate?	Is this the conference rate?	16009101	1472303140329	1472303140409	?	191
31482	337133	Nothing but good news everyday.	Nothing but good news everyday.	16009264	1472303145329	1472303145553	SHIFT	16
31482	337133	Nothing but good news everyday.	Nothing but good news everyday.	16009263	1472303145451	1472303145537	N	78
31482	337133	Nothing but good news everyday.	Nothing but good news everyday.	16009265	1472303145649	1472303145721	o	79
31482	337133	Nothing but good news everyday.	Nothing but good news everyday.	16009266	1472303145841	1472303145904	t	84
31482	337133	Nothing but good news everyday.	Nothing but good news everyday.	16009267	1472303145994	1472303146057	h	72
31482	337133	Nothing but good news everyday.	Nothing but good news everyday.	16009269	1472303146161	1472303146216	i	73
31482	337133	Nothing but good news everyday.	Nothing but good news everyday.	16009301	1472303146320	1472303146416	n	78
31482	337133	Nothing but good news everyday.	Nothing but good news everyday.	16009303	1472303146401	1472303146569	g	71
31482	337133	Nothing but good news everyday.	Nothing but good news everyday.	16009304	1472303146521	1472303146641	 	32
31482	337133	Nothing but good news everyday.	Nothing but good news everyday.	16009306	1472303147105	1472303147177	b	66
31482	337133	Nothing but good news everyday.	Nothing but good news everyday.	16009307	1472303147321	1472303147402	u	85
31482	337133	Nothing but good news everyday.	Nothing but good news everyday.	16009328	1472303147512	1472303147577	t	84
31482	337133	Nothing but good news everyday.	Nothing but good news everyday.	16009330	1472303147640	1472303147728	 	32
31482	337133	Nothing but good news everyday.	Nothing but good news everyday.	16009332	1472303147801	1472303147923	g	71
31482	337133	Nothing but good news everyday.	Nothing but good news everyday.	16009334	1472303147937	1472303148008	o	79
31482	337133	Nothing but good news everyday.	Nothing but good news everyday.	16009336	1472303148088	1472303148152	o	79
31482	337133	Nothing but good news everyday.	Nothing but good news everyday.	16009347	1472303148208	1472303148360	d	68
31482	337133	Nothing but good news everyday.	Nothing but good news everyday.	16009349	1472303148369	1472303148472	 	32
31482	337133	Nothing but good news everyday.	Nothing but good news everyday.	16009351	1472303148545	1472303148673	n	78
31482	337133	Nothing but good news everyday.	Nothing but good news everyday.	16009353	1472303148657	1472303148800	e	69
31482	337133	Nothing but good news everyday.	Nothing but good news everyday.	16009355	1472303148881	1472303148944	w	87
31482	337133	Nothing but good news everyday.	Nothing but good news everyday.	16009426	1472303149112	1472303149200	s	83
31482	337133	Nothing but good news everyday.	Nothing but good news everyday.	16009428	1472303149473	1472303149608	 	32
31482	337133	Nothing but good news everyday.	Nothing but good news everyday.	16009430	1472303150265	1472303150371	e	69
31482	337133	Nothing but good news everyday.	Nothing but good news everyday.	16009431	1472303150552	1472303150648	v	86
31482	337133	Nothing but good news everyday.	Nothing but good news everyday.	16009432	1472303150672	1472303150808	e	69
31482	337133	Nothing but good news everyday.	Nothing but good news everyday.	16009447	1472303150776	1472303150920	r	82
31482	337133	Nothing but good news everyday.	Nothing but good news everyday.	16009448	1472303151048	1472303151128	y	89
31482	337133	Nothing but good news everyday.	Nothing but good news everyday.	16009449	1472303151528	1472303151648	d	68
31482	337133	Nothing but good news everyday.	Nothing but good news everyday.	16009450	1472303151608	1472303151760	a	65
31482	337133	Nothing but good news everyday.	Nothing but good news everyday.	16009452	1472303151784	1472303151873	y	89
31482	337133	Nothing but good news everyday.	Nothing but good news everyday.	16009454	1472303152168	1472303152258	.	190
31482	337139	He extended Freudian theory into adolescence and adulthood.	He extended Freudian theory into adolescence and adulthood.	16009603	1472303155714	1472303156001	SHIFT	16
31482	337139	He extended Freudian theory into adolescence and adulthood.	He extended Freudian theory into adolescence and adulthood.	16009605	1472303155929	1472303156025	H	72
31482	337139	He extended Freudian theory into adolescence and adulthood.	He extended Freudian theory into adolescence and adulthood.	16009606	1472303156041	1472303156129	e	69
31482	337139	He extended Freudian theory into adolescence and adulthood.	He extended Freudian theory into adolescence and adulthood.	16009607	1472303156225	1472303156330	 	32
31482	337139	He extended Freudian theory into adolescence and adulthood.	He extended Freudian theory into adolescence and adulthood.	16009608	1472303156553	1472303156641	e	69
31482	337139	He extended Freudian theory into adolescence and adulthood.	He extended Freudian theory into adolescence and adulthood.	16009609	1472303156809	1472303156913	x	88
31482	337139	He extended Freudian theory into adolescence and adulthood.	He extended Freudian theory into adolescence and adulthood.	16009662	1472303157025	1472303157105	t	84
31482	337139	He extended Freudian theory into adolescence and adulthood.	He extended Freudian theory into adolescence and adulthood.	16009664	1472303157129	1472303157225	e	69
31482	337139	He extended Freudian theory into adolescence and adulthood.	He extended Freudian theory into adolescence and adulthood.	16009665	1472303157321	1472303157393	b	66
31482	337139	He extended Freudian theory into adolescence and adulthood.	He extended Freudian theory into adolescence and adulthood.	16009666	1472303157657	1472303157737	BKSP	8
31482	337139	He extended Freudian theory into adolescence and adulthood.	He extended Freudian theory into adolescence and adulthood.	16009667	1472303157873	1472303157969	n	78
31482	337139	He extended Freudian theory into adolescence and adulthood.	He extended Freudian theory into adolescence and adulthood.	16009668	1472303157985	1472303158097	d	68
31482	337139	He extended Freudian theory into adolescence and adulthood.	He extended Freudian theory into adolescence and adulthood.	16009689	1472303158209	1472303158281	e	69
31482	337139	He extended Freudian theory into adolescence and adulthood.	He extended Freudian theory into adolescence and adulthood.	16009692	1472303158385	1472303158481	d	68
31482	337139	He extended Freudian theory into adolescence and adulthood.	He extended Freudian theory into adolescence and adulthood.	16009694	1472303158601	1472303158705	 	32
31482	337139	He extended Freudian theory into adolescence and adulthood.	He extended Freudian theory into adolescence and adulthood.	16009696	1472303158849	1472303159193	SHIFT	16
31482	337139	He extended Freudian theory into adolescence and adulthood.	He extended Freudian theory into adolescence and adulthood.	16009698	1472303159153	1472303159249	F	70
31482	337139	He extended Freudian theory into adolescence and adulthood.	He extended Freudian theory into adolescence and adulthood.	16009699	1472303159369	1472303159473	r	82
31482	337139	He extended Freudian theory into adolescence and adulthood.	He extended Freudian theory into adolescence and adulthood.	16009736	1472303159585	1472303159713	e	69
31482	337139	He extended Freudian theory into adolescence and adulthood.	He extended Freudian theory into adolescence and adulthood.	16009738	1472303160426	1472303160529	i	73
31482	337139	He extended Freudian theory into adolescence and adulthood.	He extended Freudian theory into adolescence and adulthood.	16009740	1472303160722	1472303160784	BKSP	8
31482	337139	He extended Freudian theory into adolescence and adulthood.	He extended Freudian theory into adolescence and adulthood.	16009741	1472303160913	1472303160992	u	85
31482	337139	He extended Freudian theory into adolescence and adulthood.	He extended Freudian theory into adolescence and adulthood.	16009742	1472303161048	1472303161169	d	68
31482	337139	He extended Freudian theory into adolescence and adulthood.	He extended Freudian theory into adolescence and adulthood.	16009743	1472303161265	1472303161337	i	73
31482	337139	He extended Freudian theory into adolescence and adulthood.	He extended Freudian theory into adolescence and adulthood.	16009758	1472303161376	1472303161504	a	65
31482	337139	He extended Freudian theory into adolescence and adulthood.	He extended Freudian theory into adolescence and adulthood.	16009759	1472303161529	1472303161617	n	78
31482	337139	He extended Freudian theory into adolescence and adulthood.	He extended Freudian theory into adolescence and adulthood.	16009760	1472303161689	1472303161801	 	32
31482	337139	He extended Freudian theory into adolescence and adulthood.	He extended Freudian theory into adolescence and adulthood.	16009761	1472303162208	1472303162273	t	84
31482	337139	He extended Freudian theory into adolescence and adulthood.	He extended Freudian theory into adolescence and adulthood.	16009763	1472303162401	1472303162481	h	72
31482	337139	He extended Freudian theory into adolescence and adulthood.	He extended Freudian theory into adolescence and adulthood.	16009788	1472303162617	1472303162720	o	79
31482	337139	He extended Freudian theory into adolescence and adulthood.	He extended Freudian theory into adolescence and adulthood.	16009791	1472303163336	1472303163418	BKSP	8
31482	337139	He extended Freudian theory into adolescence and adulthood.	He extended Freudian theory into adolescence and adulthood.	16009794	1472303163457	1472303163577	e	69
31482	337139	He extended Freudian theory into adolescence and adulthood.	He extended Freudian theory into adolescence and adulthood.	16009796	1472303163585	1472303163680	o	79
31482	337139	He extended Freudian theory into adolescence and adulthood.	He extended Freudian theory into adolescence and adulthood.	16009798	1472303163841	1472303163953	r	82
31482	337139	He extended Freudian theory into adolescence and adulthood.	He extended Freudian theory into adolescence and adulthood.	16009800	1472303164033	1472303164129	y	89
31482	337139	He extended Freudian theory into adolescence and adulthood.	He extended Freudian theory into adolescence and adulthood.	16009819	1472303164240	1472303164353	 	32
31482	337139	He extended Freudian theory into adolescence and adulthood.	He extended Freudian theory into adolescence and adulthood.	16009821	1472303164713	1472303164753	o	79
31482	337139	He extended Freudian theory into adolescence and adulthood.	He extended Freudian theory into adolescence and adulthood.	16009823	1472303164976	1472303165044	BKSP	8
31482	337139	He extended Freudian theory into adolescence and adulthood.	He extended Freudian theory into adolescence and adulthood.	16009825	1472303165144	1472303165224	i	73
31482	337139	He extended Freudian theory into adolescence and adulthood.	He extended Freudian theory into adolescence and adulthood.	16009829	1472303165336	1472303165417	n	78
31482	337139	He extended Freudian theory into adolescence and adulthood.	He extended Freudian theory into adolescence and adulthood.	16009831	1472303165449	1472303165594	t	84
31482	337139	He extended Freudian theory into adolescence and adulthood.	He extended Freudian theory into adolescence and adulthood.	16009855	1472303165576	1472303165665	 	32
31482	337139	He extended Freudian theory into adolescence and adulthood.	He extended Freudian theory into adolescence and adulthood.	16009857	1472303166008	1472303166082	BKSP	8
31482	337139	He extended Freudian theory into adolescence and adulthood.	He extended Freudian theory into adolescence and adulthood.	16009858	1472303166184	1472303166256	o	79
31482	337139	He extended Freudian theory into adolescence and adulthood.	He extended Freudian theory into adolescence and adulthood.	16009860	1472303166312	1472303166416	 	32
31482	337139	He extended Freudian theory into adolescence and adulthood.	He extended Freudian theory into adolescence and adulthood.	16009861	1472303166544	1472303166680	a	65
31482	337139	He extended Freudian theory into adolescence and adulthood.	He extended Freudian theory into adolescence and adulthood.	16009864	1472303166752	1472303166888	d	68
31482	337139	He extended Freudian theory into adolescence and adulthood.	He extended Freudian theory into adolescence and adulthood.	16009865	1472303167032	1472303167113	o	79
31482	337139	He extended Freudian theory into adolescence and adulthood.	He extended Freudian theory into adolescence and adulthood.	16009951	1472303167216	1472303167312	l	76
31482	337139	He extended Freudian theory into adolescence and adulthood.	He extended Freudian theory into adolescence and adulthood.	16009952	1472303167344	1472303167456	e	69
31482	337139	He extended Freudian theory into adolescence and adulthood.	He extended Freudian theory into adolescence and adulthood.	16009953	1472303169000	1472303169129	s	83
31482	337139	He extended Freudian theory into adolescence and adulthood.	He extended Freudian theory into adolescence and adulthood.	16009954	1472303169467	1472303169594	c	67
31482	337139	He extended Freudian theory into adolescence and adulthood.	He extended Freudian theory into adolescence and adulthood.	16009955	1472303169786	1472303169881	e	69
31482	337139	He extended Freudian theory into adolescence and adulthood.	He extended Freudian theory into adolescence and adulthood.	16009990	1472303169930	1472303170036	n	78
31482	337139	He extended Freudian theory into adolescence and adulthood.	He extended Freudian theory into adolescence and adulthood.	16009993	1472303170073	1472303170227	c	67
31482	337139	He extended Freudian theory into adolescence and adulthood.	He extended Freudian theory into adolescence and adulthood.	16009998	1472303170281	1472303170458	e	69
31482	337139	He extended Freudian theory into adolescence and adulthood.	He extended Freudian theory into adolescence and adulthood.	16010001	1472303170473	1472303170577	 	32
31482	337139	He extended Freudian theory into adolescence and adulthood.	He extended Freudian theory into adolescence and adulthood.	16010004	1472303170665	1472303170769	a	65
31482	337139	He extended Freudian theory into adolescence and adulthood.	He extended Freudian theory into adolescence and adulthood.	16010019	1472303170793	1472303170921	n	78
31482	337139	He extended Freudian theory into adolescence and adulthood.	He extended Freudian theory into adolescence and adulthood.	16010022	1472303170945	1472303171098	d	68
31482	337139	He extended Freudian theory into adolescence and adulthood.	He extended Freudian theory into adolescence and adulthood.	16010024	1472303171089	1472303171209	 	32
31482	337139	He extended Freudian theory into adolescence and adulthood.	He extended Freudian theory into adolescence and adulthood.	16010028	1472303171321	1472303171449	a	65
31482	337139	He extended Freudian theory into adolescence and adulthood.	He extended Freudian theory into adolescence and adulthood.	16010030	1472303171529	1472303171641	d	68
31482	337139	He extended Freudian theory into adolescence and adulthood.	He extended Freudian theory into adolescence and adulthood.	16010046	1472303171745	1472303171801	u	85
31482	337139	He extended Freudian theory into adolescence and adulthood.	He extended Freudian theory into adolescence and adulthood.	16010048	1472303171921	1472303172009	l	76
31482	337139	He extended Freudian theory into adolescence and adulthood.	He extended Freudian theory into adolescence and adulthood.	16010049	1472303172121	1472303172225	t	84
31482	337139	He extended Freudian theory into adolescence and adulthood.	He extended Freudian theory into adolescence and adulthood.	16010050	1472303172457	1472303172537	h	72
31482	337139	He extended Freudian theory into adolescence and adulthood.	He extended Freudian theory into adolescence and adulthood.	16010051	1472303172721	1472303172778	o	79
31482	337139	He extended Freudian theory into adolescence and adulthood.	He extended Freudian theory into adolescence and adulthood.	16010084	1472303172841	1472303172921	o	79
31482	337139	He extended Freudian theory into adolescence and adulthood.	He extended Freudian theory into adolescence and adulthood.	16010086	1472303172946	1472303173074	d	68
31482	337139	He extended Freudian theory into adolescence and adulthood.	He extended Freudian theory into adolescence and adulthood.	16010089	1472303173417	1472303173505	.	190
31482	337152	Does Dan know about Julia changing groups?	Does Dan know about Julia changing grups?	16010192	1472303177633	1472303178241	SHIFT	16
31482	337152	Does Dan know about Julia changing groups?	Does Dan know about Julia changing grups?	16010194	1472303178160	1472303178296	D	68
31482	337152	Does Dan know about Julia changing groups?	Does Dan know about Julia changing grups?	16010197	1472303178425	1472303178528	o	79
31482	337152	Does Dan know about Julia changing groups?	Does Dan know about Julia changing grups?	16010200	1472303178542	1472303178681	e	69
31482	337152	Does Dan know about Julia changing groups?	Does Dan know about Julia changing grups?	16010202	1472303178745	1472303178788	w	87
31482	337152	Does Dan know about Julia changing groups?	Does Dan know about Julia changing grups?	16010204	1472303179177	1472303179281	BKSP	8
31482	337152	Does Dan know about Julia changing groups?	Does Dan know about Julia changing grups?	16010228	1472303179257	1472303179417	s	83
31482	337152	Does Dan know about Julia changing groups?	Does Dan know about Julia changing grups?	16010229	1472303179401	1472303179521	 	32
31482	337152	Does Dan know about Julia changing groups?	Does Dan know about Julia changing grups?	16010230	1472303179593	1472303179768	SHIFT	16
31482	337152	Does Dan know about Julia changing groups?	Does Dan know about Julia changing grups?	16010231	1472303179752	1472303179888	D	68
31482	337152	Does Dan know about Julia changing groups?	Does Dan know about Julia changing grups?	16010232	1472303179872	1472303180025	a	65
31482	337152	Does Dan know about Julia changing groups?	Does Dan know about Julia changing grups?	16010234	1472303180097	1472303180201	n	78
31482	337152	Does Dan know about Julia changing groups?	Does Dan know about Julia changing grups?	16010235	1472303180233	1472303180353	 	32
31482	337152	Does Dan know about Julia changing groups?	Does Dan know about Julia changing grups?	16010256	1472303180849	1472303180937	k	75
31482	337152	Does Dan know about Julia changing groups?	Does Dan know about Julia changing grups?	16010259	1472303181040	1472303181120	n	78
31482	337152	Does Dan know about Julia changing groups?	Does Dan know about Julia changing grups?	16010262	1472303181249	1472303181345	o	79
31482	337152	Does Dan know about Julia changing groups?	Does Dan know about Julia changing grups?	16010264	1472303181330	1472303181481	w	87
31482	337152	Does Dan know about Julia changing groups?	Does Dan know about Julia changing grups?	16010288	1472303181450	1472303181560	 	32
31482	337152	Does Dan know about Julia changing groups?	Does Dan know about Julia changing grups?	16010289	1472303181616	1472303181729	a	65
31482	337152	Does Dan know about Julia changing groups?	Does Dan know about Julia changing grups?	16010290	1472303181880	1472303182017	b	66
31482	337152	Does Dan know about Julia changing groups?	Does Dan know about Julia changing grups?	16010291	1472303182179	1472303182266	o	79
31482	337152	Does Dan know about Julia changing groups?	Does Dan know about Julia changing grups?	16010292	1472303182361	1472303182457	u	85
31482	337152	Does Dan know about Julia changing groups?	Does Dan know about Julia changing grups?	16010293	1472303182489	1472303182616	t	84
31482	337152	Does Dan know about Julia changing groups?	Does Dan know about Julia changing grups?	16010320	1472303182722	1472303182817	 	32
31482	337152	Does Dan know about Julia changing groups?	Does Dan know about Julia changing grups?	16010321	1472303182872	1472303183064	SHIFT	16
31482	337152	Does Dan know about Julia changing groups?	Does Dan know about Julia changing grups?	16010323	1472303182985	1472303183074	J	74
31482	337152	Does Dan know about Julia changing groups?	Does Dan know about Julia changing grups?	16010327	1472303183177	1472303183246	u	85
31482	337152	Does Dan know about Julia changing groups?	Does Dan know about Julia changing grups?	16010330	1472303183369	1472303183464	l	76
31482	337152	Does Dan know about Julia changing groups?	Does Dan know about Julia changing grups?	16010333	1472303183562	1472303183641	i	73
31482	337152	Does Dan know about Julia changing groups?	Does Dan know about Julia changing grups?	16010363	1472303183680	1472303183849	a	65
31482	337152	Does Dan know about Julia changing groups?	Does Dan know about Julia changing grups?	16010365	1472303183977	1472303184081	 	32
31482	337152	Does Dan know about Julia changing groups?	Does Dan know about Julia changing grups?	16010367	1472303184305	1472303184432	c	67
31482	337152	Does Dan know about Julia changing groups?	Does Dan know about Julia changing grups?	16010370	1472303184529	1472303184600	h	72
31482	337152	Does Dan know about Julia changing groups?	Does Dan know about Julia changing grups?	16010372	1472303184632	1472303184760	a	65
31482	337152	Does Dan know about Julia changing groups?	Does Dan know about Julia changing grups?	16010389	1472303184752	1472303184858	n	78
31482	337152	Does Dan know about Julia changing groups?	Does Dan know about Julia changing grups?	16010392	1472303185017	1472303185112	g	71
31482	337152	Does Dan know about Julia changing groups?	Does Dan know about Julia changing grups?	16010394	1472303185321	1472303185392	i	73
31482	337152	Does Dan know about Julia changing groups?	Does Dan know about Julia changing grups?	16010395	1472303185529	1472303185640	n	78
31482	337152	Does Dan know about Julia changing groups?	Does Dan know about Julia changing grups?	16010397	1472303185609	1472303185768	g	71
31482	337152	Does Dan know about Julia changing groups?	Does Dan know about Julia changing grups?	16010437	1472303185745	1472303185865	 	32
31482	337152	Does Dan know about Julia changing groups?	Does Dan know about Julia changing grups?	16010439	1472303186208	1472303186344	f	70
31482	337152	Does Dan know about Julia changing groups?	Does Dan know about Julia changing grups?	16010441	1472303186456	1472303186552	BKSP	8
31482	337152	Does Dan know about Julia changing groups?	Does Dan know about Julia changing grups?	16010443	1472303186576	1472303186664	g	71
31482	337152	Does Dan know about Julia changing groups?	Does Dan know about Julia changing grups?	16010445	1472303186784	1472303186872	r	82
31482	337152	Does Dan know about Julia changing groups?	Does Dan know about Julia changing grups?	16010449	1472303187096	1472303187168	u	85
31482	337152	Does Dan know about Julia changing groups?	Does Dan know about Julia changing grups?	16010453	1472303187322	1472303187401	p	80
31482	337152	Does Dan know about Julia changing groups?	Does Dan know about Julia changing grups?	16010457	1472303187450	1472303187545	s	83
31482	337152	Does Dan know about Julia changing groups?	Does Dan know about Julia changing grups?	16010461	1472303187569	1472303187794	SHIFT	16
31482	337152	Does Dan know about Julia changing groups?	Does Dan know about Julia changing grups?	16010459	1472303187674	1472303187777	?	191
31482	337160	Thanks I needed that today!	That I needed that today!	16010605	1472303192153	1472303192473	SHIFT	16
31482	337160	Thanks I needed that today!	That I needed that today!	16010603	1472303192385	1472303192465	T	84
31482	337160	Thanks I needed that today!	That I needed that today!	16010609	1472303192577	1472303192665	h	72
31482	337160	Thanks I needed that today!	That I needed that today!	16010612	1472303192681	1472303192817	a	65
31482	337160	Thanks I needed that today!	That I needed that today!	16010615	1472303192785	1472303192857	t	84
31482	337160	Thanks I needed that today!	That I needed that today!	16010618	1472303192977	1472303193097	 	32
31482	337160	Thanks I needed that today!	That I needed that today!	16010646	1472303193187	1472303193425	SHIFT	16
31482	337160	Thanks I needed that today!	That I needed that today!	16010645	1472303193345	1472303193409	I	73
31482	337160	Thanks I needed that today!	That I needed that today!	16010648	1472303193457	1472303193577	 	32
31482	337160	Thanks I needed that today!	That I needed that today!	16010650	1472303193649	1472303193738	n	78
31482	337160	Thanks I needed that today!	That I needed that today!	16010652	1472303193801	1472303193865	e	69
31482	337160	Thanks I needed that today!	That I needed that today!	16010653	1472303193985	1472303194017	e	69
31482	337160	Thanks I needed that today!	That I needed that today!	16010681	1472303194275	1472303194409	s	83
31482	337160	Thanks I needed that today!	That I needed that today!	16010683	1472303194587	1472303194673	BKSP	8
31482	337160	Thanks I needed that today!	That I needed that today!	16010685	1472303194673	1472303194785	d	68
31482	337160	Thanks I needed that today!	That I needed that today!	16010687	1472303194897	1472303194977	e	69
31482	337160	Thanks I needed that today!	That I needed that today!	16010689	1472303195067	1472303195169	d	68
31482	337160	Thanks I needed that today!	That I needed that today!	16010691	1472303195201	1472303195320	 	32
31482	337160	Thanks I needed that today!	That I needed that today!	16010716	1472303195449	1472303195672	SHIFT	16
31482	337160	Thanks I needed that today!	That I needed that today!	16010715	1472303195529	1472303195608	T	84
31482	337160	Thanks I needed that today!	That I needed that today!	16010717	1472303195704	1472303195793	h	72
31482	337160	Thanks I needed that today!	That I needed that today!	16010718	1472303195809	1472303195944	a	65
31482	337160	Thanks I needed that today!	That I needed that today!	16010719	1472303195936	1472303196032	t	84
31482	337160	Thanks I needed that today!	That I needed that today!	16010720	1472303196089	1472303196209	 	32
31482	337160	Thanks I needed that today!	That I needed that today!	16010781	1472303196737	1472303196857	t	84
31482	337160	Thanks I needed that today!	That I needed that today!	16010784	1472303196970	1472303197033	BKSP	8
31482	337160	Thanks I needed that today!	That I needed that today!	16010788	1472303197121	1472303197177	BKSP	8
31482	337160	Thanks I needed that today!	That I needed that today!	16010792	1472303197329	1472303197384	BKSP	8
31482	337160	Thanks I needed that today!	That I needed that today!	16010795	1472303197537	1472303197592	BKSP	8
31482	337160	Thanks I needed that today!	That I needed that today!	16010800	1472303197672	1472303197721	BKSP	8
31482	337160	Thanks I needed that today!	That I needed that today!	16010802	1472303197840	1472303197880	BKSP	8
31482	337160	Thanks I needed that today!	That I needed that today!	16010804	1472303198193	1472303198241	t	84
31482	337160	Thanks I needed that today!	That I needed that today!	16010806	1472303198353	1472303198433	h	72
31482	337160	Thanks I needed that today!	That I needed that today!	16010807	1472303198464	1472303198581	a	65
31482	337160	Thanks I needed that today!	That I needed that today!	16010819	1472303198572	1472303198641	t	84
31482	337160	Thanks I needed that today!	That I needed that today!	16010820	1472303198729	1472303198832	 	32
31482	337160	Thanks I needed that today!	That I needed that today!	16010821	1472303199080	1472303199193	t	84
31482	337160	Thanks I needed that today!	That I needed that today!	16010822	1472303199225	1472303199336	o	79
31482	337160	Thanks I needed that today!	That I needed that today!	16010823	1472303199376	1472303199523	d	68
31482	337160	Thanks I needed that today!	That I needed that today!	16010848	1472303199489	1472303199634	a	65
31482	337160	Thanks I needed that today!	That I needed that today!	16010850	1472303200113	1472303200200	y	89
31482	337160	Thanks I needed that today!	That I needed that today!	16010853	1472303200224	1472303200480	SHIFT	16
31482	337160	Thanks I needed that today!	That I needed that today!	16010855	1472303200368	1472303200529	!	49
31482	337168	We have lots of paper stuff.	We have lots of paper stuff.	16010952	1472303204201	1472303204512	SHIFT	16
31482	337168	We have lots of paper stuff.	We have lots of paper stuff.	16010955	1472303204475	1472303204552	W	87
31482	337168	We have lots of paper stuff.	We have lots of paper stuff.	16010959	1472303204929	1472303204977	e	69
31482	337168	We have lots of paper stuff.	We have lots of paper stuff.	16010965	1472303205129	1472303205265	 	32
31482	337168	We have lots of paper stuff.	We have lots of paper stuff.	16010970	1472303205938	1472303206033	h	72
31482	337168	We have lots of paper stuff.	We have lots of paper stuff.	16010974	1472303206049	1472303206161	a	65
31482	337168	We have lots of paper stuff.	We have lots of paper stuff.	16010982	1472303206185	1472303206265	v	86
31482	337168	We have lots of paper stuff.	We have lots of paper stuff.	16010984	1472303206297	1472303206433	e	69
31482	337168	We have lots of paper stuff.	We have lots of paper stuff.	16010986	1472303206393	1472303206529	 	32
31482	337168	We have lots of paper stuff.	We have lots of paper stuff.	16010988	1472303206593	1472303206665	l	76
31482	337168	We have lots of paper stuff.	We have lots of paper stuff.	16010992	1472303206761	1472303206833	o	79
31482	337168	We have lots of paper stuff.	We have lots of paper stuff.	16011021	1472303206953	1472303207042	t	84
31482	337168	We have lots of paper stuff.	We have lots of paper stuff.	16011022	1472303207075	1472303207257	s	83
31482	337168	We have lots of paper stuff.	We have lots of paper stuff.	16011024	1472303207249	1472303207379	 	32
31482	337168	We have lots of paper stuff.	We have lots of paper stuff.	16011030	1472303207401	1472303207513	o	79
31482	337168	We have lots of paper stuff.	We have lots of paper stuff.	16011037	1472303207553	1472303207714	f	70
31482	337168	We have lots of paper stuff.	We have lots of paper stuff.	16011074	1472303207739	1472303207849	 	32
31482	337168	We have lots of paper stuff.	We have lots of paper stuff.	16011076	1472303208225	1472303208313	p	80
31482	337168	We have lots of paper stuff.	We have lots of paper stuff.	16011077	1472303208369	1472303208497	a	65
31482	337168	We have lots of paper stuff.	We have lots of paper stuff.	16011078	1472303208516	1472303208601	p	80
31482	337168	We have lots of paper stuff.	We have lots of paper stuff.	16011079	1472303209073	1472303209225	e	69
31482	337168	We have lots of paper stuff.	We have lots of paper stuff.	16011138	1472303209185	1472303209337	r	82
31482	337168	We have lots of paper stuff.	We have lots of paper stuff.	16011140	1472303209513	1472303209609	 	32
31482	337168	We have lots of paper stuff.	We have lots of paper stuff.	16011146	1472303209706	1472303209817	s	83
31482	337168	We have lots of paper stuff.	We have lots of paper stuff.	16011148	1472303209945	1472303210017	t	84
31482	337168	We have lots of paper stuff.	We have lots of paper stuff.	16011151	1472303210177	1472303210249	i	73
31482	337168	We have lots of paper stuff.	We have lots of paper stuff.	16011154	1472303210529	1472303210618	BKSP	8
31482	337168	We have lots of paper stuff.	We have lots of paper stuff.	16011157	1472303210738	1472303210818	u	85
31482	337168	We have lots of paper stuff.	We have lots of paper stuff.	16011176	1472303210857	1472303210921	f	70
31482	337168	We have lots of paper stuff.	We have lots of paper stuff.	16011179	1472303211001	1472303211089	f	70
31482	337168	We have lots of paper stuff.	We have lots of paper stuff.	16011183	1472303211289	1472303211369	.	190
31482	337174	Washington was not moving toward a unilateral lifting of the embargo.	Washington was not moving toward a unilateral lifting of the embargo.	16011319	1472303215673	1472303215867	SHIFT	16
31482	337174	Washington was not moving toward a unilateral lifting of the embargo.	Washington was not moving toward a unilateral lifting of the embargo.	16011321	1472303215849	1472303215905	w	81
31482	337174	Washington was not moving toward a unilateral lifting of the embargo.	Washington was not moving toward a unilateral lifting of the embargo.	16011323	1472303216561	1472303216643	BKSP	8
31482	337174	Washington was not moving toward a unilateral lifting of the embargo.	Washington was not moving toward a unilateral lifting of the embargo.	16011325	1472303216723	1472303216792	BKSP	8
31482	337174	Washington was not moving toward a unilateral lifting of the embargo.	Washington was not moving toward a unilateral lifting of the embargo.	16011327	1472303216777	1472303216961	SHIFT	16
31482	337174	Washington was not moving toward a unilateral lifting of the embargo.	Washington was not moving toward a unilateral lifting of the embargo.	16011328	1472303216880	1472303217025	W	87
31482	337174	Washington was not moving toward a unilateral lifting of the embargo.	Washington was not moving toward a unilateral lifting of the embargo.	16011329	1472303217073	1472303217200	a	65
31482	337174	Washington was not moving toward a unilateral lifting of the embargo.	Washington was not moving toward a unilateral lifting of the embargo.	16011331	1472303217296	1472303217432	s	83
31482	337174	Washington was not moving toward a unilateral lifting of the embargo.	Washington was not moving toward a unilateral lifting of the embargo.	16011356	1472303217672	1472303217753	h	72
31482	337174	Washington was not moving toward a unilateral lifting of the embargo.	Washington was not moving toward a unilateral lifting of the embargo.	16011358	1472303217889	1472303217936	i	73
31482	337174	Washington was not moving toward a unilateral lifting of the embargo.	Washington was not moving toward a unilateral lifting of the embargo.	16011359	1472303218048	1472303218145	n	78
31482	337174	Washington was not moving toward a unilateral lifting of the embargo.	Washington was not moving toward a unilateral lifting of the embargo.	16011360	1472303218161	1472303218257	g	71
31482	337174	Washington was not moving toward a unilateral lifting of the embargo.	Washington was not moving toward a unilateral lifting of the embargo.	16011362	1472303218361	1472303218472	t	84
31482	337174	Washington was not moving toward a unilateral lifting of the embargo.	Washington was not moving toward a unilateral lifting of the embargo.	16011378	1472303218464	1472303218544	o	79
31482	337174	Washington was not moving toward a unilateral lifting of the embargo.	Washington was not moving toward a unilateral lifting of the embargo.	16011380	1472303218673	1472303218784	n	78
31482	337174	Washington was not moving toward a unilateral lifting of the embargo.	Washington was not moving toward a unilateral lifting of the embargo.	16011382	1472303218824	1472303218968	 	32
31482	337174	Washington was not moving toward a unilateral lifting of the embargo.	Washington was not moving toward a unilateral lifting of the embargo.	16011384	1472303219025	1472303219144	w	87
31482	337174	Washington was not moving toward a unilateral lifting of the embargo.	Washington was not moving toward a unilateral lifting of the embargo.	16011386	1472303219136	1472303219296	a	65
31482	337174	Washington was not moving toward a unilateral lifting of the embargo.	Washington was not moving toward a unilateral lifting of the embargo.	16011398	1472303219257	1472303219442	s	83
31482	337174	Washington was not moving toward a unilateral lifting of the embargo.	Washington was not moving toward a unilateral lifting of the embargo.	16011401	1472303219442	1472303219569	 	32
31482	337174	Washington was not moving toward a unilateral lifting of the embargo.	Washington was not moving toward a unilateral lifting of the embargo.	16011403	1472303219728	1472303219801	n	78
31482	337174	Washington was not moving toward a unilateral lifting of the embargo.	Washington was not moving toward a unilateral lifting of the embargo.	16011406	1472303219944	1472303220032	o	79
31482	337174	Washington was not moving toward a unilateral lifting of the embargo.	Washington was not moving toward a unilateral lifting of the embargo.	16011409	1472303220145	1472303220272	t	84
31482	337174	Washington was not moving toward a unilateral lifting of the embargo.	Washington was not moving toward a unilateral lifting of the embargo.	16011410	1472303220281	1472303220400	 	32
31482	337174	Washington was not moving toward a unilateral lifting of the embargo.	Washington was not moving toward a unilateral lifting of the embargo.	16011426	1472303220537	1472303220616	m	77
31482	337174	Washington was not moving toward a unilateral lifting of the embargo.	Washington was not moving toward a unilateral lifting of the embargo.	16011428	1472303220737	1472303220810	o	79
31482	337174	Washington was not moving toward a unilateral lifting of the embargo.	Washington was not moving toward a unilateral lifting of the embargo.	16011430	1472303221208	1472303221280	BKSP	8
31482	337174	Washington was not moving toward a unilateral lifting of the embargo.	Washington was not moving toward a unilateral lifting of the embargo.	16011434	1472303221316	1472303221418	v	86
31482	337174	Washington was not moving toward a unilateral lifting of the embargo.	Washington was not moving toward a unilateral lifting of the embargo.	16011439	1472303221409	1472303221480	i	73
31482	337174	Washington was not moving toward a unilateral lifting of the embargo.	Washington was not moving toward a unilateral lifting of the embargo.	16011442	1472303221609	1472303221704	n	78
31482	337174	Washington was not moving toward a unilateral lifting of the embargo.	Washington was not moving toward a unilateral lifting of the embargo.	16011462	1472303221713	1472303221865	g	71
31482	337174	Washington was not moving toward a unilateral lifting of the embargo.	Washington was not moving toward a unilateral lifting of the embargo.	16011463	1472303221873	1472303222008	 	32
31482	337174	Washington was not moving toward a unilateral lifting of the embargo.	Washington was not moving toward a unilateral lifting of the embargo.	16011464	1472303222649	1472303222777	t	84
31482	337174	Washington was not moving toward a unilateral lifting of the embargo.	Washington was not moving toward a unilateral lifting of the embargo.	16011465	1472303222818	1472303222913	o	79
31482	337174	Washington was not moving toward a unilateral lifting of the embargo.	Washington was not moving toward a unilateral lifting of the embargo.	16011466	1472303223305	1472303223442	w	87
31482	337174	Washington was not moving toward a unilateral lifting of the embargo.	Washington was not moving toward a unilateral lifting of the embargo.	16011573	1472303223779	1472303223913	a	65
31482	337174	Washington was not moving toward a unilateral lifting of the embargo.	Washington was not moving toward a unilateral lifting of the embargo.	16011576	1472303224169	1472303224297	r	82
31482	337174	Washington was not moving toward a unilateral lifting of the embargo.	Washington was not moving toward a unilateral lifting of the embargo.	16011578	1472303224609	1472303225361	BKSP	8
31482	337174	Washington was not moving toward a unilateral lifting of the embargo.	Washington was not moving toward a unilateral lifting of the embargo.	16011581	1472303225682	1472303225777	BKSP	8
31482	337174	Washington was not moving toward a unilateral lifting of the embargo.	Washington was not moving toward a unilateral lifting of the embargo.	16011584	1472303225929	1472303226026	o	79
31482	337174	Washington was not moving toward a unilateral lifting of the embargo.	Washington was not moving toward a unilateral lifting of the embargo.	16011586	1472303226145	1472303226257	v	86
31482	337174	Washington was not moving toward a unilateral lifting of the embargo.	Washington was not moving toward a unilateral lifting of the embargo.	16011588	1472303226313	1472303226361	i	73
31482	337174	Washington was not moving toward a unilateral lifting of the embargo.	Washington was not moving toward a unilateral lifting of the embargo.	16011598	1472303226497	1472303226593	n	78
31482	337174	Washington was not moving toward a unilateral lifting of the embargo.	Washington was not moving toward a unilateral lifting of the embargo.	16011600	1472303226553	1472303226689	g	71
31482	337174	Washington was not moving toward a unilateral lifting of the embargo.	Washington was not moving toward a unilateral lifting of the embargo.	16011604	1472303226673	1472303226803	 	32
31482	337174	Washington was not moving toward a unilateral lifting of the embargo.	Washington was not moving toward a unilateral lifting of the embargo.	16011609	1472303226825	1472303226946	t	84
31482	337174	Washington was not moving toward a unilateral lifting of the embargo.	Washington was not moving toward a unilateral lifting of the embargo.	16011640	1472303226938	1472303227017	o	79
31482	337174	Washington was not moving toward a unilateral lifting of the embargo.	Washington was not moving toward a unilateral lifting of the embargo.	16011643	1472303227059	1472303227233	w	87
31482	337174	Washington was not moving toward a unilateral lifting of the embargo.	Washington was not moving toward a unilateral lifting of the embargo.	16011645	1472303227201	1472303227337	a	65
31482	337174	Washington was not moving toward a unilateral lifting of the embargo.	Washington was not moving toward a unilateral lifting of the embargo.	16011650	1472303227385	1472303227489	r	82
31482	337174	Washington was not moving toward a unilateral lifting of the embargo.	Washington was not moving toward a unilateral lifting of the embargo.	16011652	1472303227601	1472303227729	d	68
31482	337174	Washington was not moving toward a unilateral lifting of the embargo.	Washington was not moving toward a unilateral lifting of the embargo.	16011655	1472303228065	1472303228193	 	32
31482	337174	Washington was not moving toward a unilateral lifting of the embargo.	Washington was not moving toward a unilateral lifting of the embargo.	16011681	1472303228201	1472303228357	a	65
31482	337174	Washington was not moving toward a unilateral lifting of the embargo.	Washington was not moving toward a unilateral lifting of the embargo.	16011682	1472303228361	1472303228497	 	32
31482	337174	Washington was not moving toward a unilateral lifting of the embargo.	Washington was not moving toward a unilateral lifting of the embargo.	16011684	1472303228738	1472303228817	u	85
31482	337174	Washington was not moving toward a unilateral lifting of the embargo.	Washington was not moving toward a unilateral lifting of the embargo.	16011686	1472303229217	1472303229305	n	78
31482	337174	Washington was not moving toward a unilateral lifting of the embargo.	Washington was not moving toward a unilateral lifting of the embargo.	16011688	1472303229434	1472303229513	i	73
31482	337174	Washington was not moving toward a unilateral lifting of the embargo.	Washington was not moving toward a unilateral lifting of the embargo.	16011715	1472303229794	1472303229889	l	76
31482	337174	Washington was not moving toward a unilateral lifting of the embargo.	Washington was not moving toward a unilateral lifting of the embargo.	16011721	1472303230129	1472303230209	BKSP	8
31482	337174	Washington was not moving toward a unilateral lifting of the embargo.	Washington was not moving toward a unilateral lifting of the embargo.	16011724	1472303230433	1472303230545	l	76
31482	337174	Washington was not moving toward a unilateral lifting of the embargo.	Washington was not moving toward a unilateral lifting of the embargo.	16011731	1472303230585	1472303230704	a	65
31482	337174	Washington was not moving toward a unilateral lifting of the embargo.	Washington was not moving toward a unilateral lifting of the embargo.	16011735	1472303231025	1472303231120	t	84
31482	337174	Washington was not moving toward a unilateral lifting of the embargo.	Washington was not moving toward a unilateral lifting of the embargo.	16011738	1472303231371	1472303231480	e	69
31482	337174	Washington was not moving toward a unilateral lifting of the embargo.	Washington was not moving toward a unilateral lifting of the embargo.	16011744	1472303231577	1472303231697	r	82
31482	337174	Washington was not moving toward a unilateral lifting of the embargo.	Washington was not moving toward a unilateral lifting of the embargo.	16011747	1472303231689	1472303231832	a	65
31482	337174	Washington was not moving toward a unilateral lifting of the embargo.	Washington was not moving toward a unilateral lifting of the embargo.	16011751	1472303231944	1472303232065	l	76
31482	337174	Washington was not moving toward a unilateral lifting of the embargo.	Washington was not moving toward a unilateral lifting of the embargo.	16011755	1472303232170	1472303232297	 	32
31482	337174	Washington was not moving toward a unilateral lifting of the embargo.	Washington was not moving toward a unilateral lifting of the embargo.	16011759	1472303232433	1472303232529	l	76
31482	337174	Washington was not moving toward a unilateral lifting of the embargo.	Washington was not moving toward a unilateral lifting of the embargo.	16011776	1472303232658	1472303232753	i	73
31482	337174	Washington was not moving toward a unilateral lifting of the embargo.	Washington was not moving toward a unilateral lifting of the embargo.	16011777	1472303232817	1472303232953	f	70
31482	337174	Washington was not moving toward a unilateral lifting of the embargo.	Washington was not moving toward a unilateral lifting of the embargo.	16011778	1472303232985	1472303233041	t	84
31482	337174	Washington was not moving toward a unilateral lifting of the embargo.	Washington was not moving toward a unilateral lifting of the embargo.	16011779	1472303233203	1472303233265	i	73
31482	337174	Washington was not moving toward a unilateral lifting of the embargo.	Washington was not moving toward a unilateral lifting of the embargo.	16011780	1472303233393	1472303233498	n	78
31482	337174	Washington was not moving toward a unilateral lifting of the embargo.	Washington was not moving toward a unilateral lifting of the embargo.	16011786	1472303233489	1472303233641	g	71
31482	337174	Washington was not moving toward a unilateral lifting of the embargo.	Washington was not moving toward a unilateral lifting of the embargo.	16011788	1472303233617	1472303233760	 	32
31482	337174	Washington was not moving toward a unilateral lifting of the embargo.	Washington was not moving toward a unilateral lifting of the embargo.	16011790	1472303233848	1472303233945	o	79
31482	337174	Washington was not moving toward a unilateral lifting of the embargo.	Washington was not moving toward a unilateral lifting of the embargo.	16011792	1472303233993	1472303234145	f	70
31482	337174	Washington was not moving toward a unilateral lifting of the embargo.	Washington was not moving toward a unilateral lifting of the embargo.	16011796	1472303234217	1472303234242	 	32
31482	337174	Washington was not moving toward a unilateral lifting of the embargo.	Washington was not moving toward a unilateral lifting of the embargo.	16011802	1472303234696	1472303234777	t	84
31482	337174	Washington was not moving toward a unilateral lifting of the embargo.	Washington was not moving toward a unilateral lifting of the embargo.	16011818	1472303234904	1472303234985	h	72
31482	337174	Washington was not moving toward a unilateral lifting of the embargo.	Washington was not moving toward a unilateral lifting of the embargo.	16011819	1472303234954	1472303235097	e	69
31482	337174	Washington was not moving toward a unilateral lifting of the embargo.	Washington was not moving toward a unilateral lifting of the embargo.	16011820	1472303235082	1472303235192	 	32
31482	337174	Washington was not moving toward a unilateral lifting of the embargo.	Washington was not moving toward a unilateral lifting of the embargo.	16011821	1472303235457	1472303235593	e	69
31482	337174	Washington was not moving toward a unilateral lifting of the embargo.	Washington was not moving toward a unilateral lifting of the embargo.	16011822	1472303235713	1472303235800	m	77
31482	337174	Washington was not moving toward a unilateral lifting of the embargo.	Washington was not moving toward a unilateral lifting of the embargo.	16011887	1472303236208	1472303236313	b	66
31482	337174	Washington was not moving toward a unilateral lifting of the embargo.	Washington was not moving toward a unilateral lifting of the embargo.	16011889	1472303236378	1472303236544	a	65
31482	337174	Washington was not moving toward a unilateral lifting of the embargo.	Washington was not moving toward a unilateral lifting of the embargo.	16011892	1472303236632	1472303236777	r	82
31482	337174	Washington was not moving toward a unilateral lifting of the embargo.	Washington was not moving toward a unilateral lifting of the embargo.	16011894	1472303237544	1472303237658	g	71
31482	337174	Washington was not moving toward a unilateral lifting of the embargo.	Washington was not moving toward a unilateral lifting of the embargo.	16011896	1472303237659	1472303237744	o	79
31482	337174	Washington was not moving toward a unilateral lifting of the embargo.	Washington was not moving toward a unilateral lifting of the embargo.	16011899	1472303237889	1472303237976	.	190
31482	337189	I haven't really done any studying for it.	I haven't rally done any studying for it.	16011985	1472303241785	1472303242122	SHIFT	16
31482	337189	I haven't really done any studying for it.	I haven't rally done any studying for it.	16011984	1472303242009	1472303242089	I	73
31482	337189	I haven't really done any studying for it.	I haven't rally done any studying for it.	16011987	1472303242193	1472303242313	 	32
31482	337189	I haven't really done any studying for it.	I haven't rally done any studying for it.	16011989	1472303242657	1472303242745	h	72
31482	337189	I haven't really done any studying for it.	I haven't rally done any studying for it.	16011991	1472303242785	1472303242931	a	65
31482	337189	I haven't really done any studying for it.	I haven't rally done any studying for it.	16012023	1472303242897	1472303242985	v	86
31482	337189	I haven't really done any studying for it.	I haven't rally done any studying for it.	16012025	1472303243049	1472303243169	e	69
31482	337189	I haven't really done any studying for it.	I haven't rally done any studying for it.	16012027	1472303244137	1472303244273	n	78
31482	337189	I haven't really done any studying for it.	I haven't rally done any studying for it.	16012029	1472303244841	1472303244945	'	222
31482	337189	I haven't really done any studying for it.	I haven't rally done any studying for it.	16012030	1472303245114	1472303245217	t	84
31482	337189	I haven't really done any studying for it.	I haven't rally done any studying for it.	16012031	1472303245289	1472303245417	 	32
31482	337189	I haven't really done any studying for it.	I haven't rally done any studying for it.	16012061	1472303245793	1472303245921	r	82
31482	337189	I haven't really done any studying for it.	I haven't rally done any studying for it.	16012062	1472303245937	1472303246081	a	65
31482	337189	I haven't really done any studying for it.	I haven't rally done any studying for it.	16012063	1472303246145	1472303246217	l	76
31482	337189	I haven't really done any studying for it.	I haven't rally done any studying for it.	16012064	1472303246297	1472303246393	l	76
31482	337189	I haven't really done any studying for it.	I haven't rally done any studying for it.	16012065	1472303246604	1472303246722	y	89
31482	337189	I haven't really done any studying for it.	I haven't rally done any studying for it.	16012096	1472303246793	1472303246920	 	32
31482	337189	I haven't really done any studying for it.	I haven't rally done any studying for it.	16012098	1472303247170	1472303247313	d	68
31482	337189	I haven't really done any studying for it.	I haven't rally done any studying for it.	16012099	1472303247273	1472303247385	a	65
31482	337189	I haven't really done any studying for it.	I haven't rally done any studying for it.	16012100	1472303247545	1472303247625	BKSP	8
31482	337189	I haven't really done any studying for it.	I haven't rally done any studying for it.	16012101	1472303247721	1472303247801	o	79
31482	337189	I haven't really done any studying for it.	I haven't rally done any studying for it.	16012102	1472303247929	1472303248049	n	78
31482	337189	I haven't really done any studying for it.	I haven't rally done any studying for it.	16012130	1472303248033	1472303248185	e	69
31482	337189	I haven't really done any studying for it.	I haven't rally done any studying for it.	16012132	1472303248161	1472303248273	 	32
31482	337189	I haven't really done any studying for it.	I haven't rally done any studying for it.	16012133	1472303248336	1472303248441	a	65
31482	337189	I haven't really done any studying for it.	I haven't rally done any studying for it.	16012135	1472303248521	1472303248640	n	78
31482	337189	I haven't really done any studying for it.	I haven't rally done any studying for it.	16012137	1472303248769	1472303248937	y	89
31482	337189	I haven't really done any studying for it.	I haven't rally done any studying for it.	16012182	1472303248929	1472303249041	 	32
31482	337189	I haven't really done any studying for it.	I haven't rally done any studying for it.	16012183	1472303249337	1472303249481	s	83
31482	337189	I haven't really done any studying for it.	I haven't rally done any studying for it.	16012184	1472303249665	1472303249777	t	84
31482	337189	I haven't really done any studying for it.	I haven't rally done any studying for it.	16012185	1472303249873	1472303249969	u	85
31482	337189	I haven't really done any studying for it.	I haven't rally done any studying for it.	16012186	1472303250713	1472303250880	d	68
31482	337189	I haven't really done any studying for it.	I haven't rally done any studying for it.	16012187	1472303250904	1472303251008	u	85
31482	337189	I haven't really done any studying for it.	I haven't rally done any studying for it.	16012230	1472303251337	1472303251417	BKSP	8
31482	337189	I haven't really done any studying for it.	I haven't rally done any studying for it.	16012233	1472303251832	1472303251888	y	89
31482	337189	I haven't really done any studying for it.	I haven't rally done any studying for it.	16012235	1472303252280	1472303252392	i	73
31482	337189	I haven't really done any studying for it.	I haven't rally done any studying for it.	16012236	1472303252552	1472303252657	n	78
31482	337189	I haven't really done any studying for it.	I haven't rally done any studying for it.	16012237	1472303252793	1472303252897	g	71
31482	337189	I haven't really done any studying for it.	I haven't rally done any studying for it.	16012238	1472303252977	1472303253128	 	32
31482	337189	I haven't really done any studying for it.	I haven't rally done any studying for it.	16012269	1472303253505	1472303253641	f	70
31482	337189	I haven't really done any studying for it.	I haven't rally done any studying for it.	16012270	1472303253649	1472303253769	o	79
31482	337189	I haven't really done any studying for it.	I haven't rally done any studying for it.	16012271	1472303253825	1472303253960	r	82
31482	337189	I haven't really done any studying for it.	I haven't rally done any studying for it.	16012272	1472303253952	1472303254080	 	32
31482	337189	I haven't really done any studying for it.	I haven't rally done any studying for it.	16012273	1472303254392	1472303254464	i	73
31482	337189	I haven't really done any studying for it.	I haven't rally done any studying for it.	16012282	1472303254544	1472303254656	t	84
31482	337189	I haven't really done any studying for it.	I haven't rally done any studying for it.	16012284	1472303254753	1472303254816	.	190
31482	337197	Pressure to finish my review!	Pressure to finish my review!	16012410	1472303258306	1472303258515	SHIFT	16
31482	337197	Pressure to finish my review!	Pressure to finish my review!	16012413	1472303258434	1472303258529	P	80
31482	337197	Pressure to finish my review!	Pressure to finish my review!	16012415	1472303258569	1472303258713	r	82
31482	337197	Pressure to finish my review!	Pressure to finish my review!	16012419	1472303258681	1472303258785	e	69
31482	337197	Pressure to finish my review!	Pressure to finish my review!	16012424	1472303258881	1472303258961	s	83
31482	337197	Pressure to finish my review!	Pressure to finish my review!	16012427	1472303259033	1472303259145	s	83
31482	337197	Pressure to finish my review!	Pressure to finish my review!	16012451	1472303259185	1472303259297	u	85
31482	337197	Pressure to finish my review!	Pressure to finish my review!	16012456	1472303259346	1472303259498	r	82
31482	337197	Pressure to finish my review!	Pressure to finish my review!	16012460	1472303259458	1472303259625	e	69
31482	337197	Pressure to finish my review!	Pressure to finish my review!	16012463	1472303259681	1472303259801	 	32
31482	337197	Pressure to finish my review!	Pressure to finish my review!	16012467	1472303260049	1472303260177	t	84
31482	337197	Pressure to finish my review!	Pressure to finish my review!	16012497	1472303260225	1472303260337	o	79
31482	337197	Pressure to finish my review!	Pressure to finish my review!	16012498	1472303260361	1472303260505	 	32
31482	337197	Pressure to finish my review!	Pressure to finish my review!	16012499	1472303260641	1472303260817	SHIFT	16
31482	337197	Pressure to finish my review!	Pressure to finish my review!	16012501	1472303260985	1472303261129	f	70
31482	337197	Pressure to finish my review!	Pressure to finish my review!	16012503	1472303261177	1472303261257	i	73
31482	337197	Pressure to finish my review!	Pressure to finish my review!	16012507	1472303261361	1472303261433	n	78
31482	337197	Pressure to finish my review!	Pressure to finish my review!	16012555	1472303261657	1472303261785	s	83
31482	337197	Pressure to finish my review!	Pressure to finish my review!	16012557	1472303261969	1472303262057	BKSP	8
31482	337197	Pressure to finish my review!	Pressure to finish my review!	16012560	1472303262369	1472303262385	s	83
31482	337197	Pressure to finish my review!	Pressure to finish my review!	16012563	1472303262585	1472303262689	BKSP	8
31482	337197	Pressure to finish my review!	Pressure to finish my review!	16012565	1472303262817	1472303262908	i	73
31482	337197	Pressure to finish my review!	Pressure to finish my review!	16012567	1472303262953	1472303263073	s	83
31482	337197	Pressure to finish my review!	Pressure to finish my review!	16012569	1472303263089	1472303263201	h	72
31482	337197	Pressure to finish my review!	Pressure to finish my review!	16012590	1472303263305	1472303263425	 	32
31482	337197	Pressure to finish my review!	Pressure to finish my review!	16012594	1472303263729	1472303263833	m	77
31482	337197	Pressure to finish my review!	Pressure to finish my review!	16012592	1472303263761	1472303263793	,	188
31482	337197	Pressure to finish my review!	Pressure to finish my review!	16012596	1472303264073	1472303264145	y	89
31482	337197	Pressure to finish my review!	Pressure to finish my review!	16012598	1472303264449	1472303264521	BKSP	8
31482	337197	Pressure to finish my review!	Pressure to finish my review!	16012600	1472303264611	1472303264681	BKSP	8
31482	337197	Pressure to finish my review!	Pressure to finish my review!	16012602	1472303264889	1472303264961	y	89
31482	337197	Pressure to finish my review!	Pressure to finish my review!	16012614	1472303265017	1472303265129	 	32
31482	337197	Pressure to finish my review!	Pressure to finish my review!	16012616	1472303265281	1472303265369	r	82
31482	337197	Pressure to finish my review!	Pressure to finish my review!	16012618	1472303265329	1472303265489	e	69
31482	337197	Pressure to finish my review!	Pressure to finish my review!	16012620	1472303265601	1472303265673	v	86
31482	337197	Pressure to finish my review!	Pressure to finish my review!	16012621	1472303265841	1472303265905	i	73
31482	337197	Pressure to finish my review!	Pressure to finish my review!	16012628	1472303265897	1472303266064	e	69
31482	337197	Pressure to finish my review!	Pressure to finish my review!	16012629	1472303266019	1472303266177	w	87
31482	337197	Pressure to finish my review!	Pressure to finish my review!	16012632	1472303266385	1472303266689	SHIFT	16
31482	337197	Pressure to finish my review!	Pressure to finish my review!	16012635	1472303266537	1472303266696	!	49
31482	337203	Lance and I have the same chance to win.	Lance and I have the same chance to win/	16012705	1472303269905	1472303270169	SHIFT	16
31482	337203	Lance and I have the same chance to win.	Lance and I have the same chance to win/	16012707	1472303270129	1472303270200	L	76
31482	337203	Lance and I have the same chance to win.	Lance and I have the same chance to win/	16012710	1472303270288	1472303270424	a	65
31482	337203	Lance and I have the same chance to win.	Lance and I have the same chance to win/	16012712	1472303270448	1472303270544	n	78
31482	337203	Lance and I have the same chance to win.	Lance and I have the same chance to win/	16012714	1472303270576	1472303270697	c	67
31482	337203	Lance and I have the same chance to win.	Lance and I have the same chance to win/	16012715	1472303270753	1472303270913	e	69
31482	337203	Lance and I have the same chance to win.	Lance and I have the same chance to win/	16012727	1472303270920	1472303271041	 	32
31482	337203	Lance and I have the same chance to win.	Lance and I have the same chance to win/	16012729	1472303271424	1472303271561	a	65
31482	337203	Lance and I have the same chance to win.	Lance and I have the same chance to win/	16012732	1472303271584	1472303271680	n	78
31482	337203	Lance and I have the same chance to win.	Lance and I have the same chance to win/	16012735	1472303271736	1472303271881	d	68
31482	337203	Lance and I have the same chance to win.	Lance and I have the same chance to win/	16012758	1472303271873	1472303271968	 	32
31482	337203	Lance and I have the same chance to win.	Lance and I have the same chance to win/	16012761	1472303271977	1472303272232	SHIFT	16
31482	337203	Lance and I have the same chance to win.	Lance and I have the same chance to win/	16012759	1472303272105	1472303272216	I	73
31482	337203	Lance and I have the same chance to win.	Lance and I have the same chance to win/	16012763	1472303272249	1472303272392	 	32
31482	337203	Lance and I have the same chance to win.	Lance and I have the same chance to win/	16012766	1472303272744	1472303272857	h	72
31482	337203	Lance and I have the same chance to win.	Lance and I have the same chance to win/	16012769	1472303272874	1472303272976	a	65
31482	337203	Lance and I have the same chance to win.	Lance and I have the same chance to win/	16012773	1472303273016	1472303273129	v	86
31482	337203	Lance and I have the same chance to win.	Lance and I have the same chance to win/	16012782	1472303273153	1472303273305	e	69
31482	337203	Lance and I have the same chance to win.	Lance and I have the same chance to win/	16012785	1472303273280	1472303273409	 	32
31482	337203	Lance and I have the same chance to win.	Lance and I have the same chance to win/	16012788	1472303273713	1472303273778	t	84
31482	337203	Lance and I have the same chance to win.	Lance and I have the same chance to win/	16012791	1472303273873	1472303273976	h	72
31482	337203	Lance and I have the same chance to win.	Lance and I have the same chance to win/	16012797	1472303273961	1472303274073	e	69
31482	337203	Lance and I have the same chance to win.	Lance and I have the same chance to win/	16012801	1472303274056	1472303274154	 	32
31482	337203	Lance and I have the same chance to win.	Lance and I have the same chance to win/	16012804	1472303274233	1472303274400	s	83
31482	337203	Lance and I have the same chance to win.	Lance and I have the same chance to win/	16012807	1472303274336	1472303274504	a	65
31482	337203	Lance and I have the same chance to win.	Lance and I have the same chance to win/	16012808	1472303274553	1472303274698	m	77
31482	337203	Lance and I have the same chance to win.	Lance and I have the same chance to win/	16012827	1472303274690	1472303274833	e	69
31482	337203	Lance and I have the same chance to win.	Lance and I have the same chance to win/	16012828	1472303274945	1472303275065	 	32
31482	337203	Lance and I have the same chance to win.	Lance and I have the same chance to win/	16012829	1472303275401	1472303275537	c	67
31482	337203	Lance and I have the same chance to win.	Lance and I have the same chance to win/	16012830	1472303275553	1472303275649	h	72
31482	337203	Lance and I have the same chance to win.	Lance and I have the same chance to win/	16012831	1472303275673	1472303275793	a	65
31482	337203	Lance and I have the same chance to win.	Lance and I have the same chance to win/	16012833	1472303275841	1472303275953	n	78
31482	337203	Lance and I have the same chance to win.	Lance and I have the same chance to win/	16012849	1472303276001	1472303276145	c	67
31482	337203	Lance and I have the same chance to win.	Lance and I have the same chance to win/	16012850	1472303276177	1472303276329	e	69
31482	337203	Lance and I have the same chance to win.	Lance and I have the same chance to win/	16012851	1472303276337	1472303276442	 	32
31482	337203	Lance and I have the same chance to win.	Lance and I have the same chance to win/	16012852	1472303276689	1472303276793	t	84
31482	337203	Lance and I have the same chance to win.	Lance and I have the same chance to win/	16012853	1472303276801	1472303276913	o	79
31482	337203	Lance and I have the same chance to win.	Lance and I have the same chance to win/	16012875	1472303276953	1472303277042	 	32
31482	337203	Lance and I have the same chance to win.	Lance and I have the same chance to win/	16012877	1472303277025	1472303277193	w	87
31482	337203	Lance and I have the same chance to win.	Lance and I have the same chance to win/	16012881	1472303277185	1472303277265	i	73
31482	337203	Lance and I have the same chance to win.	Lance and I have the same chance to win/	16012883	1472303277393	1472303277473	n	78
31482	337203	Lance and I have the same chance to win.	Lance and I have the same chance to win/	16012884	1472303277505	1472303277721	SHIFT	16
31482	337203	Lance and I have the same chance to win.	Lance and I have the same chance to win/	16012886	1472303277850	1472303277961	/	191
31482	337209	Chris Foster is in!	Chris Foster s in!	16012966	1472303280920	1472303281384	SHIFT	16
31482	337209	Chris Foster is in!	Chris Foster s in!	16012967	1472303281344	1472303281480	C	67
31482	337209	Chris Foster is in!	Chris Foster s in!	16012969	1472303281529	1472303281624	h	72
31482	337209	Chris Foster is in!	Chris Foster s in!	16012971	1472303281696	1472303281808	r	82
31482	337209	Chris Foster is in!	Chris Foster s in!	16012973	1472303281906	1472303282008	i	73
31482	337209	Chris Foster is in!	Chris Foster s in!	16012975	1472303282024	1472303282176	s	83
31482	337209	Chris Foster is in!	Chris Foster s in!	16012988	1472303282184	1472303282312	 	32
31482	337209	Chris Foster is in!	Chris Foster s in!	16012991	1472303282776	1472303282944	SHIFT	16
31482	337209	Chris Foster is in!	Chris Foster s in!	16012993	1472303282904	1472303283032	F	70
31482	337209	Chris Foster is in!	Chris Foster s in!	16012995	1472303283105	1472303283208	o	79
31482	337209	Chris Foster is in!	Chris Foster s in!	16012997	1472303283536	1472303283664	s	83
31482	337209	Chris Foster is in!	Chris Foster s in!	16013001	1472303283792	1472303283911	t	84
31482	337209	Chris Foster is in!	Chris Foster s in!	16013030	1472303284048	1472303284232	e	69
31482	337209	Chris Foster is in!	Chris Foster s in!	16013032	1472303284184	1472303284352	r	82
31482	337209	Chris Foster is in!	Chris Foster s in!	16013034	1472303284344	1472303284488	 	32
31482	337209	Chris Foster is in!	Chris Foster s in!	16013036	1472303285056	1472303285184	s	83
31482	337209	Chris Foster is in!	Chris Foster s in!	16013039	1472303285362	1472303285464	 	32
31482	337209	Chris Foster is in!	Chris Foster s in!	16013052	1472303285568	1472303285648	i	73
31482	337209	Chris Foster is in!	Chris Foster s in!	16013053	1472303285768	1472303285847	n	78
31482	337209	Chris Foster is in!	Chris Foster s in!	16013055	1472303285792	1472303285984	SHIFT	16
31482	337213	Jordan is taking her last job, corporate development.	Jordan is taking her last job, corporate development	16013190	1472303290503	1472303291127	SHIFT	16
31482	337213	Jordan is taking her last job, corporate development.	Jordan is taking her last job, corporate development	16013189	1472303291015	1472303291095	J	74
31482	337213	Jordan is taking her last job, corporate development.	Jordan is taking her last job, corporate development	16013192	1472303291232	1472303291345	o	79
31482	337213	Jordan is taking her last job, corporate development.	Jordan is taking her last job, corporate development	16013194	1472303291360	1472303291496	r	82
31482	337213	Jordan is taking her last job, corporate development.	Jordan is taking her last job, corporate development	16013196	1472303291512	1472303291607	 	32
31482	337213	Jordan is taking her last job, corporate development.	Jordan is taking her last job, corporate development	16013199	1472303291906	1472303292008	BKSP	8
31482	337213	Jordan is taking her last job, corporate development.	Jordan is taking her last job, corporate development	16013202	1472303292023	1472303292176	d	68
31482	337213	Jordan is taking her last job, corporate development.	Jordan is taking her last job, corporate development	16013206	1472303292153	1472303292339	a	65
31482	337213	Jordan is taking her last job, corporate development.	Jordan is taking her last job, corporate development	16013207	1472303292592	1472303292664	s	83
31482	337213	Jordan is taking her last job, corporate development.	Jordan is taking her last job, corporate development	16013208	1472303292888	1472303292976	BKSP	8
31482	337213	Jordan is taking her last job, corporate development.	Jordan is taking her last job, corporate development	16013210	1472303293121	1472303293208	n	78
31482	337213	Jordan is taking her last job, corporate development.	Jordan is taking her last job, corporate development	16013212	1472303293185	1472303293297	 	32
31482	337213	Jordan is taking her last job, corporate development.	Jordan is taking her last job, corporate development	16013213	1472303293328	1472303293440	i	73
31482	337213	Jordan is taking her last job, corporate development.	Jordan is taking her last job, corporate development	16013235	1472303293424	1472303293600	s	83
31482	337213	Jordan is taking her last job, corporate development.	Jordan is taking her last job, corporate development	16013237	1472303293568	1472303293705	 	32
31482	337213	Jordan is taking her last job, corporate development.	Jordan is taking her last job, corporate development	16013239	1472303293696	1472303293792	t	84
31482	337213	Jordan is taking her last job, corporate development.	Jordan is taking her last job, corporate development	16013241	1472303294067	1472303294193	a	65
31482	337213	Jordan is taking her last job, corporate development.	Jordan is taking her last job, corporate development	16013243	1472303294305	1472303294392	k	75
31482	337213	Jordan is taking her last job, corporate development.	Jordan is taking her last job, corporate development	16013245	1472303294488	1472303294552	i	73
31482	337213	Jordan is taking her last job, corporate development.	Jordan is taking her last job, corporate development	16013258	1472303294688	1472303294768	n	78
31482	337213	Jordan is taking her last job, corporate development.	Jordan is taking her last job, corporate development	16013260	1472303294736	1472303294912	g	71
31482	337213	Jordan is taking her last job, corporate development.	Jordan is taking her last job, corporate development	16013261	1472303294896	1472303295016	 	32
31482	337213	Jordan is taking her last job, corporate development.	Jordan is taking her last job, corporate development	16013263	1472303295360	1472303295448	h	72
31482	337213	Jordan is taking her last job, corporate development.	Jordan is taking her last job, corporate development	16013264	1472303295536	1472303295632	e	69
31482	337213	Jordan is taking her last job, corporate development.	Jordan is taking her last job, corporate development	16013285	1472303295738	1472303295848	r	82
31482	337213	Jordan is taking her last job, corporate development.	Jordan is taking her last job, corporate development	16013286	1472303295864	1472303295976	 	32
31482	337213	Jordan is taking her last job, corporate development.	Jordan is taking her last job, corporate development	16013287	1472303296008	1472303296144	l	76
31482	337213	Jordan is taking her last job, corporate development.	Jordan is taking her last job, corporate development	16013288	1472303296130	1472303296304	a	65
31482	337213	Jordan is taking her last job, corporate development.	Jordan is taking her last job, corporate development	16013308	1472303296272	1472303296425	s	83
31482	337213	Jordan is taking her last job, corporate development.	Jordan is taking her last job, corporate development	16013309	1472303296728	1472303296800	t	84
31482	337213	Jordan is taking her last job, corporate development.	Jordan is taking her last job, corporate development	16013310	1472303296960	1472303297048	 	32
31482	337213	Jordan is taking her last job, corporate development.	Jordan is taking her last job, corporate development	16013311	1472303297297	1472303297368	j	74
31482	337213	Jordan is taking her last job, corporate development.	Jordan is taking her last job, corporate development	16013312	1472303297504	1472303297576	o	79
31482	337213	Jordan is taking her last job, corporate development.	Jordan is taking her last job, corporate development	16013313	1472303297744	1472303297824	b	66
31482	337213	Jordan is taking her last job, corporate development.	Jordan is taking her last job, corporate development	16013337	1472303298088	1472303298233	,	188
31482	337213	Jordan is taking her last job, corporate development.	Jordan is taking her last job, corporate development	16013338	1472303298384	1472303298488	 	32
31482	337213	Jordan is taking her last job, corporate development.	Jordan is taking her last job, corporate development	16013339	1472303298840	1472303298976	c	67
31482	337213	Jordan is taking her last job, corporate development.	Jordan is taking her last job, corporate development	16013340	1472303299008	1472303299104	o	79
31482	337213	Jordan is taking her last job, corporate development.	Jordan is taking her last job, corporate development	16013341	1472303299232	1472303299360	r	82
31482	337213	Jordan is taking her last job, corporate development.	Jordan is taking her last job, corporate development	16013353	1472303299433	1472303299520	p	80
31482	337213	Jordan is taking her last job, corporate development.	Jordan is taking her last job, corporate development	16013354	1472303299632	1472303299728	o	79
31482	337213	Jordan is taking her last job, corporate development.	Jordan is taking her last job, corporate development	16013355	1472303299752	1472303299874	r	82
31482	337213	Jordan is taking her last job, corporate development.	Jordan is taking her last job, corporate development	16013356	1472303299936	1472303300064	a	65
31482	337213	Jordan is taking her last job, corporate development.	Jordan is taking her last job, corporate development	16013358	1472303300232	1472303300368	e	69
31482	337213	Jordan is taking her last job, corporate development.	Jordan is taking her last job, corporate development	16013407	1472303300456	1472303300608	t	84
31482	337213	Jordan is taking her last job, corporate development.	Jordan is taking her last job, corporate development	16013408	1472303300872	1472303300928	BKSP	8
31482	337213	Jordan is taking her last job, corporate development.	Jordan is taking her last job, corporate development	16013410	1472303301032	1472303301113	BKSP	8
31482	337213	Jordan is taking her last job, corporate development.	Jordan is taking her last job, corporate development	16013413	1472303301528	1472303301647	t	84
31482	337213	Jordan is taking her last job, corporate development.	Jordan is taking her last job, corporate development	16013416	1472303301656	1472303301823	e	69
31482	337213	Jordan is taking her last job, corporate development.	Jordan is taking her last job, corporate development	16013419	1472303301808	1472303301871	r	82
31482	337213	Jordan is taking her last job, corporate development.	Jordan is taking her last job, corporate development	16013421	1472303302272	1472303302359	BKSP	8
31482	337213	Jordan is taking her last job, corporate development.	Jordan is taking her last job, corporate development	16013423	1472303302440	1472303302559	 	32
31482	337213	Jordan is taking her last job, corporate development.	Jordan is taking her last job, corporate development	16013432	1472303302935	1472303303032	d	68
31482	337213	Jordan is taking her last job, corporate development.	Jordan is taking her last job, corporate development	16013434	1472303303120	1472303303231	e	69
31482	337213	Jordan is taking her last job, corporate development.	Jordan is taking her last job, corporate development	16013436	1472303303272	1472303303344	v	86
31482	337213	Jordan is taking her last job, corporate development.	Jordan is taking her last job, corporate development	16013439	1472303303384	1472303303479	e	69
31482	337213	Jordan is taking her last job, corporate development.	Jordan is taking her last job, corporate development	16013441	1472303303584	1472303303656	l	76
31482	337213	Jordan is taking her last job, corporate development.	Jordan is taking her last job, corporate development	16013459	1472303303792	1472303303864	o	79
31482	337213	Jordan is taking her last job, corporate development.	Jordan is taking her last job, corporate development	16013461	1472303303983	1472303304064	p	80
31482	337213	Jordan is taking her last job, corporate development.	Jordan is taking her last job, corporate development	16013465	1472303304240	1472303304312	m	77
31482	337213	Jordan is taking her last job, corporate development.	Jordan is taking her last job, corporate development	16013468	1472303304344	1472303304455	e	69
31482	337213	Jordan is taking her last job, corporate development.	Jordan is taking her last job, corporate development	16013471	1472303304456	1472303304527	n	78
31482	337213	Jordan is taking her last job, corporate development.	Jordan is taking her last job, corporate development	16013470	1472303304583	1472303304700	t	84
31482	337219	I hope you went.	I hope you went!	16013543	1472303307729	1472303307991	SHIFT	16
31482	337219	I hope you went.	I hope you went!	16013544	1472303307919	1472303308007	I	73
31482	337219	I hope you went.	I hope you went!	16013545	1472303308007	1472303308120	 	32
31482	337219	I hope you went.	I hope you went!	16013546	1472303308288	1472303308361	h	72
31482	337219	I hope you went.	I hope you went!	16013547	1472303308504	1472303308575	o	79
31482	337219	I hope you went.	I hope you went!	16013548	1472303308923	1472303309023	e	69
31482	337219	I hope you went.	I hope you went!	16013566	1472303309176	1472303309263	BKSP	8
31482	337219	I hope you went.	I hope you went!	16013568	1472303309391	1472303309487	p	80
31482	337219	I hope you went.	I hope you went!	16013570	1472303309519	1472303309672	e	69
31482	337219	I hope you went.	I hope you went!	16013571	1472303309680	1472303309792	 	32
31482	337219	I hope you went.	I hope you went!	16013572	1472303309922	1472303310000	w	87
31482	337219	I hope you went.	I hope you went!	16013573	1472303310144	1472303310224	BKSP	8
31482	337219	I hope you went.	I hope you went!	16013574	1472303310328	1472303310464	y	89
31482	337219	I hope you went.	I hope you went!	16013586	1472303310449	1472303310544	o	79
31482	337219	I hope you went.	I hope you went!	16013587	1472303310664	1472303310736	u	85
31482	337219	I hope you went.	I hope you went!	16013588	1472303310744	1472303310864	 	32
31482	337219	I hope you went.	I hope you went!	16013589	1472303311128	1472303311272	w	87
31482	337219	I hope you went.	I hope you went!	16013590	1472303311288	1472303311416	e	69
31482	337219	I hope you went.	I hope you went!	16013591	1472303311496	1472303311616	n	78
31482	337219	I hope you went.	I hope you went!	16013597	1472303311672	1472303311784	t	84
31482	337219	I hope you went.	I hope you went!	16013599	1472303311848	1472303312152	SHIFT	16
