PARTICIPANT_ID	TEST_SECTION_ID	SENTENCE	USER_INPUT	KEYSTROKE_ID	PRESS_TIME	RELEASE_TIME	LETTER	KEYCODE
314930	3389136	Juppe said such a force was in the process of being sent to Haiti.	Juppe said such a force was in the process of being sent to Haiti.	161026069	1476309136344	1476309136433	NA	74
314930	3389136	Juppe said such a force was in the process of being sent to Haiti.	Juppe said such a force was in the process of being sent to Haiti.	161026073	1476309136599	1476309136693		8
314930	3389136	Juppe said such a force was in the process of being sent to Haiti.	Juppe said such a force was in the process of being sent to Haiti.	161026077	1476309136814	1476309136988	SHIFT	16
314930	3389136	Juppe said such a force was in the process of being sent to Haiti.	Juppe said such a force was in the process of being sent to Haiti.	161026082	1476309136902	1476309137043	NA	74
314930	3389136	Juppe said such a force was in the process of being sent to Haiti.	Juppe said such a force was in the process of being sent to Haiti.	161026088	1476309137102	1476309137242	NA	85
314930	3389136	Juppe said such a force was in the process of being sent to Haiti.	Juppe said such a force was in the process of being sent to Haiti.	161026094	1476309137309	1476309137391	NA	80
314930	3389136	Juppe said such a force was in the process of being sent to Haiti.	Juppe said such a force was in the process of being sent to Haiti.	161026136	1476309137440	1476309137520	NA	80
314930	3389136	Juppe said such a force was in the process of being sent to Haiti.	Juppe said such a force was in the process of being sent to Haiti.	161026139	1476309137559	1476309137661	NA	69
314930	3389136	Juppe said such a force was in the process of being sent to Haiti.	Juppe said such a force was in the process of being sent to Haiti.	161026143	1476309137833	1476309137946	NA	32
314930	3389136	Juppe said such a force was in the process of being sent to Haiti.	Juppe said such a force was in the process of being sent to Haiti.	161026146	1476309137922	1476309138043	NA	83
314930	3389136	Juppe said such a force was in the process of being sent to Haiti.	Juppe said such a force was in the process of being sent to Haiti.	161026151	1476309138232	1476309138320	NA	73
314930	3389136	Juppe said such a force was in the process of being sent to Haiti.	Juppe said such a force was in the process of being sent to Haiti.	161026170	1476309138317	1476309138452	NA	65
314930	3389136	Juppe said such a force was in the process of being sent to Haiti.	Juppe said such a force was in the process of being sent to Haiti.	161026172	1476309138530	1476309138605		8
314930	3389136	Juppe said such a force was in the process of being sent to Haiti.	Juppe said such a force was in the process of being sent to Haiti.	161026174	1476309138671	1476309138802	NA	65
314930	3389136	Juppe said such a force was in the process of being sent to Haiti.	Juppe said such a force was in the process of being sent to Haiti.	161026176	1476309138760	1476309138849		8
314930	3389136	Juppe said such a force was in the process of being sent to Haiti.	Juppe said such a force was in the process of being sent to Haiti.	161026177	1476309139004	1476309139117	NA	65
314930	3389136	Juppe said such a force was in the process of being sent to Haiti.	Juppe said such a force was in the process of being sent to Haiti.	161026200	1476309139036	1476309139135		8
314930	3389136	Juppe said such a force was in the process of being sent to Haiti.	Juppe said such a force was in the process of being sent to Haiti.	161026204	1476309139175	1476309139325		8
314930	3389136	Juppe said such a force was in the process of being sent to Haiti.	Juppe said such a force was in the process of being sent to Haiti.	161026207	1476309139334	1476309139474	NA	65
314930	3389136	Juppe said such a force was in the process of being sent to Haiti.	Juppe said such a force was in the process of being sent to Haiti.	161026210	1476309139507	1476309139610	NA	73
314930	3389136	Juppe said such a force was in the process of being sent to Haiti.	Juppe said such a force was in the process of being sent to Haiti.	161026215	1476309139626	1476309139762	NA	68
314930	3389136	Juppe said such a force was in the process of being sent to Haiti.	Juppe said such a force was in the process of being sent to Haiti.	161026221	1476309139771	1476309139874	NA	32
314930	3389136	Juppe said such a force was in the process of being sent to Haiti.	Juppe said such a force was in the process of being sent to Haiti.	161026252	1476309139919	1476309140013	NA	83
314930	3389136	Juppe said such a force was in the process of being sent to Haiti.	Juppe said such a force was in the process of being sent to Haiti.	161026256	1476309140081	1476309140173	NA	85
314930	3389136	Juppe said such a force was in the process of being sent to Haiti.	Juppe said such a force was in the process of being sent to Haiti.	161026260	1476309140212	1476309140334	NA	67
314930	3389136	Juppe said such a force was in the process of being sent to Haiti.	Juppe said such a force was in the process of being sent to Haiti.	161026264	1476309140329	1476309140396	NA	72
314930	3389136	Juppe said such a force was in the process of being sent to Haiti.	Juppe said such a force was in the process of being sent to Haiti.	161026272	1476309140551	1476309140631	NA	66
314930	3389136	Juppe said such a force was in the process of being sent to Haiti.	Juppe said such a force was in the process of being sent to Haiti.	161026325	1476309140685	1476309140803	NA	65
314930	3389136	Juppe said such a force was in the process of being sent to Haiti.	Juppe said such a force was in the process of being sent to Haiti.	161026326	1476309140792	1476309140872	NA	32
314930	3389136	Juppe said such a force was in the process of being sent to Haiti.	Juppe said such a force was in the process of being sent to Haiti.	161026327	1476309141316	1476309141443		8
314930	3389136	Juppe said such a force was in the process of being sent to Haiti.	Juppe said such a force was in the process of being sent to Haiti.	161026328	1476309141468	1476309141591		8
314930	3389136	Juppe said such a force was in the process of being sent to Haiti.	Juppe said such a force was in the process of being sent to Haiti.	161026329	1476309141591	1476309141660		8
314930	3389136	Juppe said such a force was in the process of being sent to Haiti.	Juppe said such a force was in the process of being sent to Haiti.	161026362	1476309141748	1476309141889	NA	32
314930	3389136	Juppe said such a force was in the process of being sent to Haiti.	Juppe said such a force was in the process of being sent to Haiti.	161026365	1476309141840	1476309141943	NA	65
314930	3389136	Juppe said such a force was in the process of being sent to Haiti.	Juppe said such a force was in the process of being sent to Haiti.	161026368	1476309142042	1476309142107	NA	32
314930	3389136	Juppe said such a force was in the process of being sent to Haiti.	Juppe said such a force was in the process of being sent to Haiti.	161026372	1476309142151	1476309142262	NA	70
314930	3389136	Juppe said such a force was in the process of being sent to Haiti.	Juppe said such a force was in the process of being sent to Haiti.	161026375	1476309142296	1476309142394	NA	79
314930	3389136	Juppe said such a force was in the process of being sent to Haiti.	Juppe said such a force was in the process of being sent to Haiti.	161026433	1476309142427	1476309142526	NA	82
314930	3389136	Juppe said such a force was in the process of being sent to Haiti.	Juppe said such a force was in the process of being sent to Haiti.	161026438	1476309142716	1476309142823	NA	67
314930	3389136	Juppe said such a force was in the process of being sent to Haiti.	Juppe said such a force was in the process of being sent to Haiti.	161026442	1476309142925	1476309143000	NA	69
314930	3389136	Juppe said such a force was in the process of being sent to Haiti.	Juppe said such a force was in the process of being sent to Haiti.	161026446	1476309143542	1476309143549	NA	32
314930	3389136	Juppe said such a force was in the process of being sent to Haiti.	Juppe said such a force was in the process of being sent to Haiti.	161026912	1476309143565	1476309149114	NA	65
314930	3389136	Juppe said such a force was in the process of being sent to Haiti.	Juppe said such a force was in the process of being sent to Haiti.	161026461	1476309143622	1476309143730	NA	32
314930	3389136	Juppe said such a force was in the process of being sent to Haiti.	Juppe said such a force was in the process of being sent to Haiti.	161026463	1476309143842	1476309143919	NA	73
314930	3389136	Juppe said such a force was in the process of being sent to Haiti.	Juppe said such a force was in the process of being sent to Haiti.	161026466	1476309144017	1476309144125	NA	78
314930	3389136	Juppe said such a force was in the process of being sent to Haiti.	Juppe said such a force was in the process of being sent to Haiti.	161026517	1476309144089	1476309144224	NA	32
314930	3389136	Juppe said such a force was in the process of being sent to Haiti.	Juppe said such a force was in the process of being sent to Haiti.	161026521	1476309144374	1476309144454	NA	84
314930	3389136	Juppe said such a force was in the process of being sent to Haiti.	Juppe said such a force was in the process of being sent to Haiti.	161026524	1476309144541	1476309144630	NA	72
314930	3389136	Juppe said such a force was in the process of being sent to Haiti.	Juppe said such a force was in the process of being sent to Haiti.	161026526	1476309144602	1476309144709	NA	69
314930	3389136	Juppe said such a force was in the process of being sent to Haiti.	Juppe said such a force was in the process of being sent to Haiti.	161026530	1476309144728	1476309144817	NA	32
314930	3389136	Juppe said such a force was in the process of being sent to Haiti.	Juppe said such a force was in the process of being sent to Haiti.	161026534	1476309144912	1476309145011	NA	80
314930	3389136	Juppe said such a force was in the process of being sent to Haiti.	Juppe said such a force was in the process of being sent to Haiti.	161026592	1476309145006	1476309145100	NA	82
314930	3389136	Juppe said such a force was in the process of being sent to Haiti.	Juppe said such a force was in the process of being sent to Haiti.	161026597	1476309145192	1476309145258	NA	79
314930	3389136	Juppe said such a force was in the process of being sent to Haiti.	Juppe said such a force was in the process of being sent to Haiti.	161026601	1476309145489	1476309145602	NA	67
314930	3389136	Juppe said such a force was in the process of being sent to Haiti.	Juppe said such a force was in the process of being sent to Haiti.	161026606	1476309145728	1476309145809	NA	69
314930	3389136	Juppe said such a force was in the process of being sent to Haiti.	Juppe said such a force was in the process of being sent to Haiti.	161026612	1476309145922	1476309146009	NA	83
314930	3389136	Juppe said such a force was in the process of being sent to Haiti.	Juppe said such a force was in the process of being sent to Haiti.	161026617	1476309146048	1476309146161	NA	83
314930	3389136	Juppe said such a force was in the process of being sent to Haiti.	Juppe said such a force was in the process of being sent to Haiti.	161026644	1476309146170	1476309146259	NA	32
314930	3389136	Juppe said such a force was in the process of being sent to Haiti.	Juppe said such a force was in the process of being sent to Haiti.	161026645	1476309146344	1476309146435	NA	79
314930	3389136	Juppe said such a force was in the process of being sent to Haiti.	Juppe said such a force was in the process of being sent to Haiti.	161026647	1476309146396	1476309146495	NA	70
314930	3389136	Juppe said such a force was in the process of being sent to Haiti.	Juppe said such a force was in the process of being sent to Haiti.	161026650	1476309146523	1476309146599	NA	32
314930	3389136	Juppe said such a force was in the process of being sent to Haiti.	Juppe said such a force was in the process of being sent to Haiti.	161026658	1476309146676	1476309146775	NA	66
314930	3389136	Juppe said such a force was in the process of being sent to Haiti.	Juppe said such a force was in the process of being sent to Haiti.	161026712	1476309146732	1476309146826	NA	69
314930	3389136	Juppe said such a force was in the process of being sent to Haiti.	Juppe said such a force was in the process of being sent to Haiti.	161026717	1476309146865	1476309146955	NA	73
314930	3389136	Juppe said such a force was in the process of being sent to Haiti.	Juppe said such a force was in the process of being sent to Haiti.	161026723	1476309146980	1476309147081	NA	78
314930	3389136	Juppe said such a force was in the process of being sent to Haiti.	Juppe said such a force was in the process of being sent to Haiti.	161026726	1476309147078	1476309147158	NA	71
314930	3389136	Juppe said such a force was in the process of being sent to Haiti.	Juppe said such a force was in the process of being sent to Haiti.	161026732	1476309147185	1476309147279	NA	32
314930	3389136	Juppe said such a force was in the process of being sent to Haiti.	Juppe said such a force was in the process of being sent to Haiti.	161026737	1476309147351	1476309147459	NA	83
314930	3389136	Juppe said such a force was in the process of being sent to Haiti.	Juppe said such a force was in the process of being sent to Haiti.	161026769	1476309147525	1476309147619	NA	69
314930	3389136	Juppe said such a force was in the process of being sent to Haiti.	Juppe said such a force was in the process of being sent to Haiti.	161026773	1476309147623	1476309147731	NA	78
314930	3389136	Juppe said such a force was in the process of being sent to Haiti.	Juppe said such a force was in the process of being sent to Haiti.	161026779	1476309147761	1476309147855	NA	84
314930	3389136	Juppe said such a force was in the process of being sent to Haiti.	Juppe said such a force was in the process of being sent to Haiti.	161026784	1476309147878	1476309147967	NA	32
314930	3389136	Juppe said such a force was in the process of being sent to Haiti.	Juppe said such a force was in the process of being sent to Haiti.	161026788	1476309148034	1476309148128	NA	84
314930	3389136	Juppe said such a force was in the process of being sent to Haiti.	Juppe said such a force was in the process of being sent to Haiti.	161026814	1476309148137	1476309148240	NA	79
314930	3389136	Juppe said such a force was in the process of being sent to Haiti.	Juppe said such a force was in the process of being sent to Haiti.	161026817	1476309148244	1476309148352	NA	84
314930	3389136	Juppe said such a force was in the process of being sent to Haiti.	Juppe said such a force was in the process of being sent to Haiti.	161026821	1476309148567	1476309148661		8
314930	3389136	Juppe said such a force was in the process of being sent to Haiti.	Juppe said such a force was in the process of being sent to Haiti.	161026824	1476309148677	1476309148785	NA	32
314930	3389136	Juppe said such a force was in the process of being sent to Haiti.	Juppe said such a force was in the process of being sent to Haiti.	161026828	1476309148801	1476309148961	SHIFT	16
314930	3389136	Juppe said such a force was in the process of being sent to Haiti.	Juppe said such a force was in the process of being sent to Haiti.	161026909	1476309148913	1476309149021	NA	72
314930	3389136	Juppe said such a force was in the process of being sent to Haiti.	Juppe said such a force was in the process of being sent to Haiti.	161026915	1476309149108	1476309149232	NA	73
314930	3389136	Juppe said such a force was in the process of being sent to Haiti.	Juppe said such a force was in the process of being sent to Haiti.	161026917	1476309149308	1476309149388	NA	84
314930	3389136	Juppe said such a force was in the process of being sent to Haiti.	Juppe said such a force was in the process of being sent to Haiti.	161026920	1476309149644	1476309149779	NA	73
314930	3389136	Juppe said such a force was in the process of being sent to Haiti.	Juppe said such a force was in the process of being sent to Haiti.	161026923	1476309150328	1476309150455	NA	191
314930	3389136	Juppe said such a force was in the process of being sent to Haiti.	Juppe said such a force was in the process of being sent to Haiti.	161026960	1476309150856	1476309150950		8
314930	3389136	Juppe said such a force was in the process of being sent to Haiti.	Juppe said such a force was in the process of being sent to Haiti.	161026964	1476309151077	1476309151177	NA	190
314930	3389161	I told Gary you could make the call.	I told Gary you could make the call.	161027185	1476309148988	1476309154658	NA	65
314930	3389161	I told Gary you could make the call.	I told Gary you could make the call.	161027118	1476309153196	1476309153429	SHIFT	16
314930	3389161	I told Gary you could make the call.	I told Gary you could make the call.	161027122	1476309153358	1476309153490	NA	73
314930	3389161	I told Gary you could make the call.	I told Gary you could make the call.	161027126	1476309153493	1476309153663	NA	32
314930	3389161	I told Gary you could make the call.	I told Gary you could make the call.	161027130	1476309153625	1476309153742	NA	84
314930	3389161	I told Gary you could make the call.	I told Gary you could make the call.	161027133	1476309153746	1476309153853	NA	79
314930	3389161	I told Gary you could make the call.	I told Gary you could make the call.	161027136	1476309153924	1476309154037	NA	76
314930	3389161	I told Gary you could make the call.	I told Gary you could make the call.	161027166	1476309154003	1476309154139	NA	68
314930	3389161	I told Gary you could make the call.	I told Gary you could make the call.	161027168	1476309154144	1476309154289	NA	32
314930	3389161	I told Gary you could make the call.	I told Gary you could make the call.	161027172	1476309154209	1476309154434	SHIFT	16
314930	3389161	I told Gary you could make the call.	I told Gary you could make the call.	161027177	1476309154400	1476309154471	NA	72
314930	3389161	I told Gary you could make the call.	I told Gary you could make the call.	161027181	1476309154424	1476309154499	NA	71
314930	3389161	I told Gary you could make the call.	I told Gary you could make the call.	161027330	1476309154514	1476309156043	NA	65
314930	3389161	I told Gary you could make the call.	I told Gary you could make the call.	161027190	1476309154789	1476309154894		8
314930	3389161	I told Gary you could make the call.	I told Gary you could make the call.	161027243	1476309155112	1476309155197		8
314930	3389161	I told Gary you could make the call.	I told Gary you could make the call.	161027245	1476309155402	1476309155524		8
314930	3389161	I told Gary you could make the call.	I told Gary you could make the call.	161027249	1476309155643	1476309155875	SHIFT	16
314930	3389161	I told Gary you could make the call.	I told Gary you could make the call.	161027252	1476309155837	1476309155924	NA	71
314930	3389161	I told Gary you could make the call.	I told Gary you could make the call.	161027344	1476309155921	1476309156570	NA	65
314930	3389161	I told Gary you could make the call.	I told Gary you could make the call.	161027334	1476309156255	1476309156336		8
314930	3389161	I told Gary you could make the call.	I told Gary you could make the call.	161027338	1476309156377	1476309156491		8
314930	3389161	I told Gary you could make the call.	I told Gary you could make the call.	161027556	1476309156467	1476309159553	NA	65
314930	3389161	I told Gary you could make the call.	I told Gary you could make the call.	161027348	1476309156768	1476309156811	NA	82
314930	3389161	I told Gary you could make the call.	I told Gary you could make the call.	161027353	1476309156819	1476309156932	NA	89
314930	3389161	I told Gary you could make the call.	I told Gary you could make the call.	161027389	1476309157171	1476309157312	NA	32
314930	3389161	I told Gary you could make the call.	I told Gary you could make the call.	161027392	1476309157402	1476309157495	NA	89
314930	3389161	I told Gary you could make the call.	I told Gary you could make the call.	161027397	1476309157532	1476309157691	NA	79
314930	3389161	I told Gary you could make the call.	I told Gary you could make the call.	161027401	1476309157644	1476309157752	NA	85
314930	3389161	I told Gary you could make the call.	I told Gary you could make the call.	161027435	1476309157732	1476309157818	NA	32
314930	3389161	I told Gary you could make the call.	I told Gary you could make the call.	161027440	1476309157886	1476309158008	NA	67
314930	3389161	I told Gary you could make the call.	I told Gary you could make the call.	161027445	1476309157974	1476309158098	NA	79
314930	3389161	I told Gary you could make the call.	I told Gary you could make the call.	161027451	1476309158054	1476309158157	NA	85
314930	3389161	I told Gary you could make the call.	I told Gary you could make the call.	161027454	1476309158208	1476309158330	NA	76
314930	3389161	I told Gary you could make the call.	I told Gary you could make the call.	161027456	1476309158340	1476309158465	NA	83
314930	3389161	I told Gary you could make the call.	I told Gary you could make the call.	161027519	1476309158642	1476309158731	NA	32
314930	3389161	I told Gary you could make the call.	I told Gary you could make the call.	161027525	1476309158911	1476309158991		8
314930	3389161	I told Gary you could make the call.	I told Gary you could make the call.	161027530	1476309159023	1476309159126		8
314930	3389161	I told Gary you could make the call.	I told Gary you could make the call.	161027533	1476309159051	1476309159238	NA	68
314930	3389161	I told Gary you could make the call.	I told Gary you could make the call.	161027535	1476309159254	1476309159385	NA	32
314930	3389161	I told Gary you could make the call.	I told Gary you could make the call.	161027555	1476309159282	1476309159418	NA	77
314930	3389161	I told Gary you could make the call.	I told Gary you could make the call.	161027746	1476309159426	1476309161676	NA	65
314930	3389161	I told Gary you could make the call.	I told Gary you could make the call.	161027560	1476309159570	1476309159673	NA	75
314930	3389161	I told Gary you could make the call.	I told Gary you could make the call.	161027562	1476309159667	1476309159781	NA	69
314930	3389161	I told Gary you could make the call.	I told Gary you could make the call.	161027567	1476309159770	1476309159873	NA	32
314930	3389161	I told Gary you could make the call.	I told Gary you could make the call.	161027569	1476309159900	1476309159998	NA	84
314930	3389161	I told Gary you could make the call.	I told Gary you could make the call.	161027622	1476309160007	1476309160106	NA	72
314930	3389161	I told Gary you could make the call.	I told Gary you could make the call.	161027634	1476309160219	1476309160336	NA	32
314930	3389161	I told Gary you could make the call.	I told Gary you could make the call.	161027642	1476309160420	1476309160514	NA	67
314930	3389161	I told Gary you could make the call.	I told Gary you could make the call.	161027649	1476309160670	1476309160750		8
314930	3389161	I told Gary you could make the call.	I told Gary you could make the call.	161027691	1476309160803	1476309160869		8
314930	3389161	I told Gary you could make the call.	I told Gary you could make the call.	161027694	1476309160904	1476309160972		8
314930	3389161	I told Gary you could make the call.	I told Gary you could make the call.	161027699	1476309160970	1476309161096	NA	69
314930	3389161	I told Gary you could make the call.	I told Gary you could make the call.	161027704	1476309161189	1476309161339	NA	32
314930	3389161	I told Gary you could make the call.	I told Gary you could make the call.	161027707	1476309161370	1476309161449	NA	67
314930	3389161	I told Gary you could make the call.	I told Gary you could make the call.	161027748	1476309161670	1476309161751	NA	76
314930	3389161	I told Gary you could make the call.	I told Gary you could make the call.	161027751	1476309161781	1476309161865	NA	76
314930	3389161	I told Gary you could make the call.	I told Gary you could make the call.	161027753	1476309161976	1476309162061	NA	190
314930	3389175	I'm working on a liquidity forecast.	I'm working on a liquidity forecast.	161028110	1476309161554	1476309167100	NA	65
314930	3389175	I'm working on a liquidity forecast.	I'm working on a liquidity forecast.	161028004	1476309164076	1476309164338	SHIFT	16
314930	3389175	I'm working on a liquidity forecast.	I'm working on a liquidity forecast.	161028011	1476309164244	1476309164371	NA	73
314930	3389175	I'm working on a liquidity forecast.	I'm working on a liquidity forecast.	161028017	1476309164463	1476309164575	NA	222
314930	3389175	I'm working on a liquidity forecast.	I'm working on a liquidity forecast.	161028025	1476309164662	1476309164767	NA	77
314930	3389175	I'm working on a liquidity forecast.	I'm working on a liquidity forecast.	161028031	1476309164732	1476309164882	NA	32
314930	3389175	I'm working on a liquidity forecast.	I'm working on a liquidity forecast.	161028008	1476309165074	1476309165173	NA	79
314930	3389175	I'm working on a liquidity forecast.	I'm working on a liquidity forecast.	161028013	1476309165299	1476309165388	NA	75
314930	3389175	I'm working on a liquidity forecast.	I'm working on a liquidity forecast.	161028021	1476309165605	1476309165709		8
314930	3389175	I'm working on a liquidity forecast.	I'm working on a liquidity forecast.	161028029	1476309165918	1476309166007	NA	82
314930	3389175	I'm working on a liquidity forecast.	I'm working on a liquidity forecast.	161028032	1476309166002	1476309166096	NA	75
314930	3389175	I'm working on a liquidity forecast.	I'm working on a liquidity forecast.	161028036	1476309166174	1476309166273	NA	73
314930	3389175	I'm working on a liquidity forecast.	I'm working on a liquidity forecast.	161028015	1476309166319	1476309166400	NA	78
314930	3389175	I'm working on a liquidity forecast.	I'm working on a liquidity forecast.	161028020	1476309166375	1476309166487	NA	71
314930	3389175	I'm working on a liquidity forecast.	I'm working on a liquidity forecast.	161028026	1476309166477	1476309166562	NA	32
314930	3389175	I'm working on a liquidity forecast.	I'm working on a liquidity forecast.	161028030	1476309166641	1476309166725	NA	79
314930	3389175	I'm working on a liquidity forecast.	I'm working on a liquidity forecast.	161028035	1476309166770	1476309166859	NA	78
314930	3389175	I'm working on a liquidity forecast.	I'm working on a liquidity forecast.	161028106	1476309166831	1476309166966	NA	32
314930	3389175	I'm working on a liquidity forecast.	I'm working on a liquidity forecast.	161028309	1476309166982	1476309170981	NA	65
314930	3389175	I'm working on a liquidity forecast.	I'm working on a liquidity forecast.	161028114	1476309167706	1476309167832	NA	32
314930	3389175	I'm working on a liquidity forecast.	I'm working on a liquidity forecast.	161028118	1476309167914	1476309168047	NA	76
314930	3389175	I'm working on a liquidity forecast.	I'm working on a liquidity forecast.	161028123	1476309168003	1476309168125	NA	73
314930	3389175	I'm working on a liquidity forecast.	I'm working on a liquidity forecast.	161028127	1476309168207	1476309168339	NA	81
314930	3389175	I'm working on a liquidity forecast.	I'm working on a liquidity forecast.	161028171	1476309168309	1476309168413	NA	85
314930	3389175	I'm working on a liquidity forecast.	I'm working on a liquidity forecast.	161028173	1476309168495	1476309168608	NA	73
314930	3389175	I'm working on a liquidity forecast.	I'm working on a liquidity forecast.	161028175	1476309168884	1476309169006	NA	68
314930	3389175	I'm working on a liquidity forecast.	I'm working on a liquidity forecast.	161028177	1476309169019	1476309169114	NA	73
314930	3389175	I'm working on a liquidity forecast.	I'm working on a liquidity forecast.	161028180	1476309169198	1476309169297	NA	84
314930	3389175	I'm working on a liquidity forecast.	I'm working on a liquidity forecast.	161028183	1476309169399	1476309169493	NA	89
314930	3389175	I'm working on a liquidity forecast.	I'm working on a liquidity forecast.	161028229	1476309169523	1476309169660	NA	32
314930	3389175	I'm working on a liquidity forecast.	I'm working on a liquidity forecast.	161028231	1476309169703	1476309169821	SHIFT	16
314930	3389175	I'm working on a liquidity forecast.	I'm working on a liquidity forecast.	161028235	1476309169986	1476309170113	NA	70
314930	3389175	I'm working on a liquidity forecast.	I'm working on a liquidity forecast.	161028238	1476309170098	1476309170207	NA	79
314930	3389175	I'm working on a liquidity forecast.	I'm working on a liquidity forecast.	161028241	1476309170205	1476309170299	NA	82
314930	3389175	I'm working on a liquidity forecast.	I'm working on a liquidity forecast.	161028243	1476309170366	1476309170469	NA	69
314930	3389175	I'm working on a liquidity forecast.	I'm working on a liquidity forecast.	161028304	1476309170648	1476309170738	NA	67
314930	3389175	I'm working on a liquidity forecast.	I'm working on a liquidity forecast.	161028317	1476309171052	1476309171133	NA	83
314930	3389175	I'm working on a liquidity forecast.	I'm working on a liquidity forecast.	161028324	1476309171130	1476309171238	NA	84
314930	3389175	I'm working on a liquidity forecast.	I'm working on a liquidity forecast.	161028328	1476309171382	1476309171466	NA	190
314930	3389189	Not at this time.	Not at this time/	161028504	1476309173164	1476309173370	SHIFT	16
314930	3389189	Not at this time.	Not at this time/	161028510	1476309173670	1476309173941	SHIFT	16
314930	3389189	Not at this time.	Not at this time/	161028517	1476309173847	1476309173993	NA	78
314930	3389189	Not at this time.	Not at this time/	161028524	1476309174020	1476309174143	NA	79
314930	3389189	Not at this time.	Not at this time/	161028534	1476309174118	1476309174240	NA	84
314930	3389189	Not at this time.	Not at this time/	161028542	1476309174308	1476309174411	NA	32
314930	3389189	Not at this time.	Not at this time/	161028562	1476309174612	1476309174702	NA	84
314930	3389189	Not at this time.	Not at this time/	161028565	1476309174716	1476309174858	NA	32
314930	3389189	Not at this time.	Not at this time/	161028569	1476309174814	1476309174913	NA	84
314930	3389189	Not at this time.	Not at this time/	161028571	1476309174970	1476309175134	NA	72
314930	3389189	Not at this time.	Not at this time/	161028613	1476309175091	1476309175213	NA	73
314930	3389189	Not at this time.	Not at this time/	161028616	1476309175161	1476309175293	NA	83
314930	3389189	Not at this time.	Not at this time/	161028620	1476309175283	1476309175442	NA	32
314930	3389189	Not at this time.	Not at this time/	161028625	1476309175524	1476309175633	NA	84
314930	3389189	Not at this time.	Not at this time/	161028629	1476309175599	1476309175702	NA	73
314930	3389189	Not at this time.	Not at this time/	161028635	1476309175724	1476309175855	NA	77
314930	3389189	Not at this time.	Not at this time/	161028644	1476309175813	1476309175916	NA	69
314930	3389189	Not at this time.	Not at this time/	161028648	1476309175941	1476309176039	NA	191
314930	3389201	Let me know if you have any problems.	Let me know if you have any problems.	161028950	1476309174487	1476309180683	NA	65
314930	3389201	Let me know if you have any problems.	Let me know if you have any problems.	161028775	1476309177923	1476309178124	SHIFT	16
314930	3389201	Let me know if you have any problems.	Let me know if you have any problems.	161028781	1476309178058	1476309178237	NA	76
314930	3389201	Let me know if you have any problems.	Let me know if you have any problems.	161028787	1476309178179	1476309178302	NA	69
314930	3389201	Let me know if you have any problems.	Let me know if you have any problems.	161028794	1476309178367	1476309178489	NA	84
314930	3389201	Let me know if you have any problems.	Let me know if you have any problems.	161028802	1476309178455	1476309178559	NA	32
314930	3389201	Let me know if you have any problems.	Let me know if you have any problems.	161028808	1476309178599	1476309178699	NA	77
314930	3389201	Let me know if you have any problems.	Let me know if you have any problems.	161028827	1476309178683	1476309178773	NA	69
314930	3389201	Let me know if you have any problems.	Let me know if you have any problems.	161028828	1476309178753	1476309178843	NA	32
314930	3389201	Let me know if you have any problems.	Let me know if you have any problems.	161028830	1476309178902	1476309178996	NA	75
314930	3389201	Let me know if you have any problems.	Let me know if you have any problems.	161028833	1476309179028	1476309179108	NA	78
314930	3389201	Let me know if you have any problems.	Let me know if you have any problems.	161028836	1476309179165	1476309179255	NA	79
314930	3389201	Let me know if you have any problems.	Let me know if you have any problems.	161028885	1476309179389	1476309179469	NA	32
314930	3389201	Let me know if you have any problems.	Let me know if you have any problems.	161028889	1476309179570	1476309179664	NA	73
314930	3389201	Let me know if you have any problems.	Let me know if you have any problems.	161028891	1476309179672	1476309179808	NA	70
314930	3389201	Let me know if you have any problems.	Let me know if you have any problems.	161028896	1476309179794	1476309179874	NA	32
314930	3389201	Let me know if you have any problems.	Let me know if you have any problems.	161028901	1476309180003	1476309180088	NA	89
314930	3389201	Let me know if you have any problems.	Let me know if you have any problems.	161028935	1476309180166	1476309180298	NA	79
314930	3389201	Let me know if you have any problems.	Let me know if you have any problems.	161028939	1476309180236	1476309180354	NA	85
314930	3389201	Let me know if you have any problems.	Let me know if you have any problems.	161028945	1476309180349	1476309180512	NA	32
314930	3389201	Let me know if you have any problems.	Let me know if you have any problems.	161028992	1476309180547	1476309181186	NA	65
314930	3389201	Let me know if you have any problems.	Let me know if you have any problems.	161028956	1476309180842	1476309180932		8
314930	3389201	Let me know if you have any problems.	Let me know if you have any problems.	161028988	1476309181007	1476309181097	NA	72
314930	3389201	Let me know if you have any problems.	Let me know if you have any problems.	161029060	1476309181073	1476309181732	NA	65
314930	3389201	Let me know if you have any problems.	Let me know if you have any problems.	161028996	1476309181194	1476309181269	NA	86
314930	3389201	Let me know if you have any problems.	Let me know if you have any problems.	161029002	1476309181274	1476309181409	NA	69
314930	3389201	Let me know if you have any problems.	Let me know if you have any problems.	161029046	1476309181348	1476309181423	NA	32
314930	3389201	Let me know if you have any problems.	Let me know if you have any problems.	161029053	1476309181516	1476309181610	NA	78
314930	3389201	Let me know if you have any problems.	Let me know if you have any problems.	161029094	1476309181568	1476309182557	NA	65
314930	3389201	Let me know if you have any problems.	Let me know if you have any problems.	161029066	1476309181712	1476309181792	NA	72
314930	3389201	Let me know if you have any problems.	Let me know if you have any problems.	161029071	1476309182081	1476309182156		8
314930	3389201	Let me know if you have any problems.	Let me know if you have any problems.	161029075	1476309182196	1476309182281		8
314930	3389201	Let me know if you have any problems.	Let me know if you have any problems.	161029087	1476309182309	1476309182411		8
314930	3389201	Let me know if you have any problems.	Let me know if you have any problems.	161029100	1476309182537	1476309182626	NA	78
314930	3389201	Let me know if you have any problems.	Let me know if you have any problems.	161029105	1476309182736	1476309182815	NA	89
314930	3389201	Let me know if you have any problems.	Let me know if you have any problems.	161029164	1476309182796	1476309182939	NA	32
314930	3389201	Let me know if you have any problems.	Let me know if you have any problems.	161029168	1476309182936	1476309183048	NA	80
314930	3389201	Let me know if you have any problems.	Let me know if you have any problems.	161029171	1476309183025	1476309183165	NA	82
314930	3389201	Let me know if you have any problems.	Let me know if you have any problems.	161029175	1476309183156	1476309183208	NA	73
314930	3389201	Let me know if you have any problems.	Let me know if you have any problems.	161029180	1476309183382	1476309183453	NA	66
314930	3389201	Let me know if you have any problems.	Let me know if you have any problems.	161029184	1476309183616	1476309183686		8
314930	3389201	Let me know if you have any problems.	Let me know if you have any problems.	161029237	1476309183725	1476309183931		8
314930	3389201	Let me know if you have any problems.	Let me know if you have any problems.	161029242	1476309184049	1476309184143		8
314930	3389201	Let me know if you have any problems.	Let me know if you have any problems.	161029253	1476309184224	1476309184318	NA	79
314930	3389201	Let me know if you have any problems.	Let me know if you have any problems.	161029258	1476309184299	1476309184462	NA	66
314930	3389201	Let me know if you have any problems.	Let me know if you have any problems.	161029266	1476309184535	1476309184602		8
314930	3389201	Let me know if you have any problems.	Let me know if you have any problems.	161029301	1476309184646	1476309184749		8
314930	3389201	Let me know if you have any problems.	Let me know if you have any problems.	161029305	1476309184805	1476309184880	NA	82
314930	3389201	Let me know if you have any problems.	Let me know if you have any problems.	161029308	1476309184874	1476309184954	NA	79
314930	3389201	Let me know if you have any problems.	Let me know if you have any problems.	161029312	1476309185098	1476309185224	NA	66
314930	3389201	Let me know if you have any problems.	Let me know if you have any problems.	161029313	1476309185259	1476309185365	NA	76
314930	3389201	Let me know if you have any problems.	Let me know if you have any problems.	161029350	1476309185487	1476309185565	NA	73
314930	3389201	Let me know if you have any problems.	Let me know if you have any problems.	161029356	1476309185562	1476309185684	NA	69
314930	3389201	Let me know if you have any problems.	Let me know if you have any problems.	161029363	1476309185754	1476309185824		8
314930	3389201	Let me know if you have any problems.	Let me know if you have any problems.	161029368	1476309185855	1476309185954		8
314930	3389201	Let me know if you have any problems.	Let me know if you have any problems.	161029388	1476309185925	1476309186043	NA	69
314930	3389201	Let me know if you have any problems.	Let me know if you have any problems.	161029392	1476309186057	1476309186154	NA	77
314930	3389201	Let me know if you have any problems.	Let me know if you have any problems.	161029397	1476309186178	1476309186310	NA	83
314930	3389201	Let me know if you have any problems.	Let me know if you have any problems.	161029404	1476309186239	1476309186342	NA	190
314930	3389216	Add a Star Trek convention and sports memorabilia show to the mix.	Add a Star Trek convention and sports memorabilia show to the mix.	161029604	1476309182416	1476309188647	NA	65
314930	3389216	Add a Star Trek convention and sports memorabilia show to the mix.	Add a Star Trek convention and sports memorabilia show to the mix.	161029600	1476309188367	1476309188600	SHIFT	16
314930	3389216	Add a Star Trek convention and sports memorabilia show to the mix.	Add a Star Trek convention and sports memorabilia show to the mix.	161029704	1476309188507	1476309190164	NA	65
314930	3389216	Add a Star Trek convention and sports memorabilia show to the mix.	Add a Star Trek convention and sports memorabilia show to the mix.	161029609	1476309188726	1476309188820	NA	83
314930	3389216	Add a Star Trek convention and sports memorabilia show to the mix.	Add a Star Trek convention and sports memorabilia show to the mix.	161029612	1476309188842	1476309188948	NA	83
314930	3389216	Add a Star Trek convention and sports memorabilia show to the mix.	Add a Star Trek convention and sports memorabilia show to the mix.	161029617	1476309188944	1476309189062	NA	32
314930	3389216	Add a Star Trek convention and sports memorabilia show to the mix.	Add a Star Trek convention and sports memorabilia show to the mix.	161029622	1476309189289	1476309189369		8
314930	3389216	Add a Star Trek convention and sports memorabilia show to the mix.	Add a Star Trek convention and sports memorabilia show to the mix.	161029652	1476309189406	1476309189490		8
314930	3389216	Add a Star Trek convention and sports memorabilia show to the mix.	Add a Star Trek convention and sports memorabilia show to the mix.	161029656	1476309189520	1476309189598		8
314930	3389216	Add a Star Trek convention and sports memorabilia show to the mix.	Add a Star Trek convention and sports memorabilia show to the mix.	161029659	1476309189639	1476309189742	NA	68
314930	3389216	Add a Star Trek convention and sports memorabilia show to the mix.	Add a Star Trek convention and sports memorabilia show to the mix.	161029662	1476309189794	1476309189893	NA	68
314930	3389216	Add a Star Trek convention and sports memorabilia show to the mix.	Add a Star Trek convention and sports memorabilia show to the mix.	161029667	1476309189948	1476309190042	NA	32
314930	3389216	Add a Star Trek convention and sports memorabilia show to the mix.	Add a Star Trek convention and sports memorabilia show to the mix.	161029773	1476309190056	1476309190939	NA	65
314930	3389216	Add a Star Trek convention and sports memorabilia show to the mix.	Add a Star Trek convention and sports memorabilia show to the mix.	161029707	1476309190218	1476309190307	NA	32
314930	3389216	Add a Star Trek convention and sports memorabilia show to the mix.	Add a Star Trek convention and sports memorabilia show to the mix.	161029710	1476309190450	1476309190582	SHIFT	16
314930	3389216	Add a Star Trek convention and sports memorabilia show to the mix.	Add a Star Trek convention and sports memorabilia show to the mix.	161029713	1476309190520	1476309190618	NA	83
314930	3389216	Add a Star Trek convention and sports memorabilia show to the mix.	Add a Star Trek convention and sports memorabilia show to the mix.	161029716	1476309190728	1476309190822	NA	84
314930	3389216	Add a Star Trek convention and sports memorabilia show to the mix.	Add a Star Trek convention and sports memorabilia show to the mix.	161030034	1476309190813	1476309194508	NA	65
314930	3389216	Add a Star Trek convention and sports memorabilia show to the mix.	Add a Star Trek convention and sports memorabilia show to the mix.	161029774	1476309191015	1476309191133	NA	82
314930	3389216	Add a Star Trek convention and sports memorabilia show to the mix.	Add a Star Trek convention and sports memorabilia show to the mix.	161029776	1476309191298	1476309191393	NA	32
314930	3389216	Add a Star Trek convention and sports memorabilia show to the mix.	Add a Star Trek convention and sports memorabilia show to the mix.	161029782	1476309191451	1476309191639	SHIFT	16
314930	3389216	Add a Star Trek convention and sports memorabilia show to the mix.	Add a Star Trek convention and sports memorabilia show to the mix.	161029788	1476309191559	1476309191676	NA	84
314930	3389216	Add a Star Trek convention and sports memorabilia show to the mix.	Add a Star Trek convention and sports memorabilia show to the mix.	161029798	1476309191879	1476309192015	NA	82
314930	3389216	Add a Star Trek convention and sports memorabilia show to the mix.	Add a Star Trek convention and sports memorabilia show to the mix.	161029806	1476309192101	1476309192195	NA	69
314930	3389216	Add a Star Trek convention and sports memorabilia show to the mix.	Add a Star Trek convention and sports memorabilia show to the mix.	161029985	1476309192253	1476309192380	NA	75
314930	3389216	Add a Star Trek convention and sports memorabilia show to the mix.	Add a Star Trek convention and sports memorabilia show to the mix.	161029990	1476309192375	1476309192525	NA	32
314930	3389216	Add a Star Trek convention and sports memorabilia show to the mix.	Add a Star Trek convention and sports memorabilia show to the mix.	161029993	1476309192564	1476309192706	NA	67
314930	3389216	Add a Star Trek convention and sports memorabilia show to the mix.	Add a Star Trek convention and sports memorabilia show to the mix.	161029997	1476309192643	1476309192732	NA	79
314930	3389216	Add a Star Trek convention and sports memorabilia show to the mix.	Add a Star Trek convention and sports memorabilia show to the mix.	161030000	1476309192808	1476309192917	NA	78
314930	3389216	Add a Star Trek convention and sports memorabilia show to the mix.	Add a Star Trek convention and sports memorabilia show to the mix.	161029986	1476309193104	1476309193230	NA	86
314930	3389216	Add a Star Trek convention and sports memorabilia show to the mix.	Add a Star Trek convention and sports memorabilia show to the mix.	161029988	1476309193323	1476309193441	NA	69
314930	3389216	Add a Star Trek convention and sports memorabilia show to the mix.	Add a Star Trek convention and sports memorabilia show to the mix.	161029992	1476309193482	1476309193586	NA	78
314930	3389216	Add a Star Trek convention and sports memorabilia show to the mix.	Add a Star Trek convention and sports memorabilia show to the mix.	161029998	1476309193611	1476309193733	NA	84
314930	3389216	Add a Star Trek convention and sports memorabilia show to the mix.	Add a Star Trek convention and sports memorabilia show to the mix.	161030001	1476309193823	1476309193968	NA	73
314930	3389216	Add a Star Trek convention and sports memorabilia show to the mix.	Add a Star Trek convention and sports memorabilia show to the mix.	161030021	1476309193935	1476309194058	NA	79
314930	3389216	Add a Star Trek convention and sports memorabilia show to the mix.	Add a Star Trek convention and sports memorabilia show to the mix.	161030025	1476309194141	1476309194216	NA	78
314930	3389216	Add a Star Trek convention and sports memorabilia show to the mix.	Add a Star Trek convention and sports memorabilia show to the mix.	161030029	1476309194302	1476309194401	NA	32
314930	3389216	Add a Star Trek convention and sports memorabilia show to the mix.	Add a Star Trek convention and sports memorabilia show to the mix.	161030249	1476309194363	1476309198083	NA	65
314930	3389216	Add a Star Trek convention and sports memorabilia show to the mix.	Add a Star Trek convention and sports memorabilia show to the mix.	161030037	1476309194750	1476309194863	NA	78
314930	3389216	Add a Star Trek convention and sports memorabilia show to the mix.	Add a Star Trek convention and sports memorabilia show to the mix.	161030045	1476309195227	1476309195360	NA	68
314930	3389216	Add a Star Trek convention and sports memorabilia show to the mix.	Add a Star Trek convention and sports memorabilia show to the mix.	161030119	1476309195348	1476309195461	NA	32
314930	3389216	Add a Star Trek convention and sports memorabilia show to the mix.	Add a Star Trek convention and sports memorabilia show to the mix.	161030124	1476309195668	1476309195794	NA	83
314930	3389216	Add a Star Trek convention and sports memorabilia show to the mix.	Add a Star Trek convention and sports memorabilia show to the mix.	161030129	1476309195835	1476309195947	NA	80
314930	3389216	Add a Star Trek convention and sports memorabilia show to the mix.	Add a Star Trek convention and sports memorabilia show to the mix.	161030136	1476309196063	1476309196227	NA	79
314930	3389216	Add a Star Trek convention and sports memorabilia show to the mix.	Add a Star Trek convention and sports memorabilia show to the mix.	161030141	1476309196331	1476309196449	NA	82
314930	3389216	Add a Star Trek convention and sports memorabilia show to the mix.	Add a Star Trek convention and sports memorabilia show to the mix.	161030147	1476309196493	1476309196610	NA	76
314930	3389216	Add a Star Trek convention and sports memorabilia show to the mix.	Add a Star Trek convention and sports memorabilia show to the mix.	161030176	1476309196778	1476309196890		8
314930	3389216	Add a Star Trek convention and sports memorabilia show to the mix.	Add a Star Trek convention and sports memorabilia show to the mix.	161030179	1476309196861	1476309196974	NA	84
314930	3389216	Add a Star Trek convention and sports memorabilia show to the mix.	Add a Star Trek convention and sports memorabilia show to the mix.	161030184	1476309197080	1476309197193	NA	83
314930	3389216	Add a Star Trek convention and sports memorabilia show to the mix.	Add a Star Trek convention and sports memorabilia show to the mix.	161030186	1476309197188	1476309197282	NA	32
314930	3389216	Add a Star Trek convention and sports memorabilia show to the mix.	Add a Star Trek convention and sports memorabilia show to the mix.	161030190	1476309197351	1476309197436	NA	77
314930	3389216	Add a Star Trek convention and sports memorabilia show to the mix.	Add a Star Trek convention and sports memorabilia show to the mix.	161030230	1476309197384	1476309197511	NA	69
314930	3389216	Add a Star Trek convention and sports memorabilia show to the mix.	Add a Star Trek convention and sports memorabilia show to the mix.	161030234	1476309197520	1476309197613	NA	77
314930	3389216	Add a Star Trek convention and sports memorabilia show to the mix.	Add a Star Trek convention and sports memorabilia show to the mix.	161030237	1476309197664	1476309197762	NA	79
314930	3389216	Add a Star Trek convention and sports memorabilia show to the mix.	Add a Star Trek convention and sports memorabilia show to the mix.	161030240	1476309197738	1476309197842	NA	82
314930	3389216	Add a Star Trek convention and sports memorabilia show to the mix.	Add a Star Trek convention and sports memorabilia show to the mix.	161030292	1476309198012	1476309198976	NA	65
314930	3389216	Add a Star Trek convention and sports memorabilia show to the mix.	Add a Star Trek convention and sports memorabilia show to the mix.	161030257	1476309198194	1476309198279	NA	66
314930	3389216	Add a Star Trek convention and sports memorabilia show to the mix.	Add a Star Trek convention and sports memorabilia show to the mix.	161030282	1476309198387	1476309198540	NA	73
314930	3389216	Add a Star Trek convention and sports memorabilia show to the mix.	Add a Star Trek convention and sports memorabilia show to the mix.	161030286	1476309198571	1476309198665	NA	76
314930	3389216	Add a Star Trek convention and sports memorabilia show to the mix.	Add a Star Trek convention and sports memorabilia show to the mix.	161030289	1476309198689	1476309198793	NA	73
314930	3389216	Add a Star Trek convention and sports memorabilia show to the mix.	Add a Star Trek convention and sports memorabilia show to the mix.	161030318	1476309198974	1476309199064	NA	32
314930	3389216	Add a Star Trek convention and sports memorabilia show to the mix.	Add a Star Trek convention and sports memorabilia show to the mix.	161030322	1476309199146	1476309199296	NA	83
314930	3389216	Add a Star Trek convention and sports memorabilia show to the mix.	Add a Star Trek convention and sports memorabilia show to the mix.	161030327	1476309199444	1476309199528	NA	72
314930	3389216	Add a Star Trek convention and sports memorabilia show to the mix.	Add a Star Trek convention and sports memorabilia show to the mix.	161030331	1476309199567	1476309199675	NA	79
314930	3389216	Add a Star Trek convention and sports memorabilia show to the mix.	Add a Star Trek convention and sports memorabilia show to the mix.	161030340	1476309199780	1476309199869	NA	32
314930	3389216	Add a Star Trek convention and sports memorabilia show to the mix.	Add a Star Trek convention and sports memorabilia show to the mix.	161030351	1476309199883	1476309200042	NA	84
314930	3389216	Add a Star Trek convention and sports memorabilia show to the mix.	Add a Star Trek convention and sports memorabilia show to the mix.	161030354	1476309199994	1476309200093	NA	79
314930	3389216	Add a Star Trek convention and sports memorabilia show to the mix.	Add a Star Trek convention and sports memorabilia show to the mix.	161030358	1476309200073	1476309200191	NA	32
314930	3389216	Add a Star Trek convention and sports memorabilia show to the mix.	Add a Star Trek convention and sports memorabilia show to the mix.	161030360	1476309200216	1476309200310	NA	84
314930	3389216	Add a Star Trek convention and sports memorabilia show to the mix.	Add a Star Trek convention and sports memorabilia show to the mix.	161030395	1476309200296	1476309200409	NA	72
314930	3389216	Add a Star Trek convention and sports memorabilia show to the mix.	Add a Star Trek convention and sports memorabilia show to the mix.	161030400	1476309200460	1476309200578	NA	69
314930	3389216	Add a Star Trek convention and sports memorabilia show to the mix.	Add a Star Trek convention and sports memorabilia show to the mix.	161030405	1476309200558	1476309200643	NA	32
314930	3389216	Add a Star Trek convention and sports memorabilia show to the mix.	Add a Star Trek convention and sports memorabilia show to the mix.	161030411	1476309200725	1476309200880	NA	77
314930	3389216	Add a Star Trek convention and sports memorabilia show to the mix.	Add a Star Trek convention and sports memorabilia show to the mix.	161030414	1476309200865	1476309200970	NA	73
314930	3389216	Add a Star Trek convention and sports memorabilia show to the mix.	Add a Star Trek convention and sports memorabilia show to the mix.	161030432	1476309200968	1476309201117	NA	88
314930	3389216	Add a Star Trek convention and sports memorabilia show to the mix.	Add a Star Trek convention and sports memorabilia show to the mix.	161030435	1476309201179	1476309201268	NA	190
314930	3389239	We have been consistent and we have a good balance.	We have been consistent and we have a good balance.	161030617	1476309199628	1476309203527	NA	87
314930	3389239	We have been consistent and we have a good balance.	We have been consistent and we have a good balance.	161030615	1476309203321	1476309203522	SHIFT	16
314930	3389239	We have been consistent and we have a good balance.	We have been consistent and we have a good balance.	161031039	1476309203396	1476309210339	NA	87
314930	3389239	We have been consistent and we have a good balance.	We have been consistent and we have a good balance.	161030620	1476309203613	1476309203782	NA	69
314930	3389239	We have been consistent and we have a good balance.	We have been consistent and we have a good balance.	161030622	1476309203941	1476309203997	NA	66
314930	3389239	We have been consistent and we have a good balance.	We have been consistent and we have a good balance.	161030624	1476309204062	1476309204133	NA	32
314930	3389239	We have been consistent and we have a good balance.	We have been consistent and we have a good balance.	161030628	1476309204416	1476309204454		8
314930	3389239	We have been consistent and we have a good balance.	We have been consistent and we have a good balance.	161030673	1476309204522	1476309204617		8
314930	3389239	We have been consistent and we have a good balance.	We have been consistent and we have a good balance.	161030677	1476309204703	1476309204849	NA	32
314930	3389239	We have been consistent and we have a good balance.	We have been consistent and we have a good balance.	161030681	1476309204829	1476309204886	NA	72
314930	3389239	We have been consistent and we have a good balance.	We have been consistent and we have a good balance.	161031000	1476309204912	1476309209887	NA	65
314930	3389239	We have been consistent and we have a good balance.	We have been consistent and we have a good balance.	161030693	1476309205148	1476309205270	NA	86
314930	3389239	We have been consistent and we have a good balance.	We have been consistent and we have a good balance.	161030722	1476309205233	1476309205373	NA	69
314930	3389239	We have been consistent and we have a good balance.	We have been consistent and we have a good balance.	161030726	1476309205354	1476309205457	NA	32
314930	3389239	We have been consistent and we have a good balance.	We have been consistent and we have a good balance.	161030731	1476309205541	1476309205639	NA	66
314930	3389239	We have been consistent and we have a good balance.	We have been consistent and we have a good balance.	161030738	1476309205606	1476309205695	NA	69
314930	3389239	We have been consistent and we have a good balance.	We have been consistent and we have a good balance.	161030742	1476309205740	1476309205848	NA	69
314930	3389239	We have been consistent and we have a good balance.	We have been consistent and we have a good balance.	161030801	1476309205834	1476309205937	NA	78
314930	3389239	We have been consistent and we have a good balance.	We have been consistent and we have a good balance.	161030810	1476309205961	1476309206079	NA	32
314930	3389239	We have been consistent and we have a good balance.	We have been consistent and we have a good balance.	161030817	1476309206241	1476309206351	NA	83
314930	3389239	We have been consistent and we have a good balance.	We have been consistent and we have a good balance.	161030820	1476309206503	1476309206590		8
314930	3389239	We have been consistent and we have a good balance.	We have been consistent and we have a good balance.	161030827	1476309206587	1476309206709	NA	67
314930	3389239	We have been consistent and we have a good balance.	We have been consistent and we have a good balance.	161030830	1476309206712	1476309206803	NA	73
314930	3389239	We have been consistent and we have a good balance.	We have been consistent and we have a good balance.	161030859	1476309206868	1476309206967	NA	78
314930	3389239	We have been consistent and we have a good balance.	We have been consistent and we have a good balance.	161030868	1476309206975	1476309207079	NA	83
314930	3389239	We have been consistent and we have a good balance.	We have been consistent and we have a good balance.	161030875	1476309207095	1476309207134	NA	73
314930	3389239	We have been consistent and we have a good balance.	We have been consistent and we have a good balance.	161030879	1476309207316	1476309207396		8
314930	3389239	We have been consistent and we have a good balance.	We have been consistent and we have a good balance.	161030882	1476309207552	1476309207623		8
314930	3389239	We have been consistent and we have a good balance.	We have been consistent and we have a good balance.	161030907	1476309207745	1476309207830		8
314930	3389239	We have been consistent and we have a good balance.	We have been consistent and we have a good balance.	161030909	1476309207861	1476309207979		8
314930	3389239	We have been consistent and we have a good balance.	We have been consistent and we have a good balance.	161030912	1476309208194	1476309208316	NA	79
314930	3389239	We have been consistent and we have a good balance.	We have been consistent and we have a good balance.	161030915	1476309208406	1476309208489	NA	78
314930	3389239	We have been consistent and we have a good balance.	We have been consistent and we have a good balance.	161030966	1476309208476	1476309208576	NA	83
314930	3389239	We have been consistent and we have a good balance.	We have been consistent and we have a good balance.	161030968	1476309208610	1476309208699	NA	73
314930	3389239	We have been consistent and we have a good balance.	We have been consistent and we have a good balance.	161030971	1476309208717	1476309208829	NA	83
314930	3389239	We have been consistent and we have a good balance.	We have been consistent and we have a good balance.	161030976	1476309209034	1476309209123	NA	84
314930	3389239	We have been consistent and we have a good balance.	We have been consistent and we have a good balance.	161030980	1476309209118	1476309209221	NA	69
314930	3389239	We have been consistent and we have a good balance.	We have been consistent and we have a good balance.	161030983	1476309209361	1476309209450	NA	78
314930	3389239	We have been consistent and we have a good balance.	We have been consistent and we have a good balance.	161030996	1476309209498	1476309209620	NA	84
314930	3389239	We have been consistent and we have a good balance.	We have been consistent and we have a good balance.	161030998	1476309209650	1476309209744	NA	32
314930	3389239	We have been consistent and we have a good balance.	We have been consistent and we have a good balance.	161031074	1476309209765	1476309210895	NA	65
314930	3389239	We have been consistent and we have a good balance.	We have been consistent and we have a good balance.	161031005	1476309209881	1476309209966	NA	78
314930	3389239	We have been consistent and we have a good balance.	We have been consistent and we have a good balance.	161031009	1476309209980	1476309210103	NA	68
314930	3389239	We have been consistent and we have a good balance.	We have been consistent and we have a good balance.	161031035	1476309210101	1476309210204	NA	32
314930	3389239	We have been consistent and we have a good balance.	We have been consistent and we have a good balance.	161031044	1476309210389	1476309210515	NA	69
314930	3389239	We have been consistent and we have a good balance.	We have been consistent and we have a good balance.	161031048	1476309210486	1476309210581	NA	32
314930	3389239	We have been consistent and we have a good balance.	We have been consistent and we have a good balance.	161031053	1476309210658	1476309210756	NA	72
314930	3389239	We have been consistent and we have a good balance.	We have been consistent and we have a good balance.	161031089	1476309210751	1476309211241	NA	65
314930	3389239	We have been consistent and we have a good balance.	We have been consistent and we have a good balance.	161031077	1476309210891	1476309210920	NA	86
314930	3389239	We have been consistent and we have a good balance.	We have been consistent and we have a good balance.	161031081	1476309210924	1476309211022	NA	69
314930	3389239	We have been consistent and we have a good balance.	We have been consistent and we have a good balance.	161031084	1476309211018	1476309211111	NA	32
314930	3389239	We have been consistent and we have a good balance.	We have been consistent and we have a good balance.	161031182	1476309211130	1476309212548	NA	65
314930	3389239	We have been consistent and we have a good balance.	We have been consistent and we have a good balance.	161031143	1476309211194	1476309211302	NA	32
314930	3389239	We have been consistent and we have a good balance.	We have been consistent and we have a good balance.	161031144	1476309211422	1476309211557	NA	71
314930	3389239	We have been consistent and we have a good balance.	We have been consistent and we have a good balance.	161031146	1476309211524	1476309211613	NA	79
314930	3389239	We have been consistent and we have a good balance.	We have been consistent and we have a good balance.	161031149	1476309211669	1476309211752	NA	79
314930	3389239	We have been consistent and we have a good balance.	We have been consistent and we have a good balance.	161031153	1476309211990	1476309212115	NA	68
314930	3389239	We have been consistent and we have a good balance.	We have been consistent and we have a good balance.	161031158	1476309212170	1476309212299	NA	32
314930	3389239	We have been consistent and we have a good balance.	We have been consistent and we have a good balance.	161031176	1476309212348	1476309212454	NA	66
314930	3389239	We have been consistent and we have a good balance.	We have been consistent and we have a good balance.	161031193	1476309212455	1476309212747	NA	65
314930	3389239	We have been consistent and we have a good balance.	We have been consistent and we have a good balance.	161031186	1476309212602	1476309212658	NA	76
314930	3389239	We have been consistent and we have a good balance.	We have been consistent and we have a good balance.	161031197	1476309212750	1476309212844	NA	78
314930	3389239	We have been consistent and we have a good balance.	We have been consistent and we have a good balance.	161031263	1476309213136	1476309213242	NA	69
314930	3389239	We have been consistent and we have a good balance.	We have been consistent and we have a good balance.	161031267	1476309213441	1476309213526		8
314930	3389239	We have been consistent and we have a good balance.	We have been consistent and we have a good balance.	161031273	1476309213505	1476309213610	NA	67
314930	3389239	We have been consistent and we have a good balance.	We have been consistent and we have a good balance.	161031277	1476309213678	1476309213790	NA	69
314930	3389239	We have been consistent and we have a good balance.	We have been consistent and we have a good balance.	161031287	1476309213781	1476309213866	NA	190
314930	3389256	The sooner I get this, the sooner we can get this implemented.	The sooner I get this, the sooner we can get this implemented.	161031935	1476309212629	1476309224126	NA	65
314930	3389256	The sooner I get this, the sooner we can get this implemented.	The sooner I get this, the sooner we can get this implemented.	161031515	1476309217308	1476309217509	SHIFT	16
314930	3389256	The sooner I get this, the sooner we can get this implemented.	The sooner I get this, the sooner we can get this implemented.	161031518	1476309217438	1476309217565	NA	84
314930	3389256	The sooner I get this, the sooner we can get this implemented.	The sooner I get this, the sooner we can get this implemented.	161031523	1476309217598	1476309217692	NA	72
314930	3389256	The sooner I get this, the sooner we can get this implemented.	The sooner I get this, the sooner we can get this implemented.	161031528	1476309217682	1476309217813	NA	69
314930	3389256	The sooner I get this, the sooner we can get this implemented.	The sooner I get this, the sooner we can get this implemented.	161031531	1476309217809	1476309217916	NA	32
314930	3389256	The sooner I get this, the sooner we can get this implemented.	The sooner I get this, the sooner we can get this implemented.	161031532	1476309217986	1476309218116	NA	68
314930	3389256	The sooner I get this, the sooner we can get this implemented.	The sooner I get this, the sooner we can get this implemented.	161031554	1476309218112	1476309218203	NA	79
314930	3389256	The sooner I get this, the sooner we can get this implemented.	The sooner I get this, the sooner we can get this implemented.	161031557	1476309218377	1476309218439		8
314930	3389256	The sooner I get this, the sooner we can get this implemented.	The sooner I get this, the sooner we can get this implemented.	161031563	1476309218490	1476309218579		8
314930	3389256	The sooner I get this, the sooner we can get this implemented.	The sooner I get this, the sooner we can get this implemented.	161031568	1476309218564	1476309218697	NA	83
314930	3389256	The sooner I get this, the sooner we can get this implemented.	The sooner I get this, the sooner we can get this implemented.	161031572	1476309218695	1476309218798	NA	79
314930	3389256	The sooner I get this, the sooner we can get this implemented.	The sooner I get this, the sooner we can get this implemented.	161031576	1476309218818	1476309218908	NA	79
314930	3389256	The sooner I get this, the sooner we can get this implemented.	The sooner I get this, the sooner we can get this implemented.	161031630	1476309219009	1476309219118	NA	78
314930	3389256	The sooner I get this, the sooner we can get this implemented.	The sooner I get this, the sooner we can get this implemented.	161031636	1476309219097	1476309219196	NA	69
314930	3389256	The sooner I get this, the sooner we can get this implemented.	The sooner I get this, the sooner we can get this implemented.	161031642	1476309219421	1476309219595	NA	82
314930	3389256	The sooner I get this, the sooner we can get this implemented.	The sooner I get this, the sooner we can get this implemented.	161031646	1476309219637	1476309219791	NA	32
314930	3389256	The sooner I get this, the sooner we can get this implemented.	The sooner I get this, the sooner we can get this implemented.	161031650	1476309219702	1476309219874	SHIFT	16
314930	3389256	The sooner I get this, the sooner we can get this implemented.	The sooner I get this, the sooner we can get this implemented.	161031675	1476309219809	1476309219936	NA	73
314930	3389256	The sooner I get this, the sooner we can get this implemented.	The sooner I get this, the sooner we can get this implemented.	161031677	1476309219912	1476309220047	NA	32
314930	3389256	The sooner I get this, the sooner we can get this implemented.	The sooner I get this, the sooner we can get this implemented.	161031680	1476309220166	1476309220264	NA	71
314930	3389256	The sooner I get this, the sooner we can get this implemented.	The sooner I get this, the sooner we can get this implemented.	161031683	1476309220227	1476309220379	NA	69
314930	3389256	The sooner I get this, the sooner we can get this implemented.	The sooner I get this, the sooner we can get this implemented.	161031687	1476309220375	1476309220470	NA	84
314930	3389256	The sooner I get this, the sooner we can get this implemented.	The sooner I get this, the sooner we can get this implemented.	161031723	1476309220455	1476309220587	NA	32
314930	3389256	The sooner I get this, the sooner we can get this implemented.	The sooner I get this, the sooner we can get this implemented.	161031726	1476309220581	1476309220680	NA	84
314930	3389256	The sooner I get this, the sooner we can get this implemented.	The sooner I get this, the sooner we can get this implemented.	161031727	1476309220781	1476309220889	NA	72
314930	3389256	The sooner I get this, the sooner we can get this implemented.	The sooner I get this, the sooner we can get this implemented.	161031729	1476309220917	1476309221024	NA	73
314930	3389256	The sooner I get this, the sooner we can get this implemented.	The sooner I get this, the sooner we can get this implemented.	161031733	1476309221085	1476309221217	NA	83
314930	3389256	The sooner I get this, the sooner we can get this implemented.	The sooner I get this, the sooner we can get this implemented.	161031783	1476309221212	1476309221296	NA	76
314930	3389256	The sooner I get this, the sooner we can get this implemented.	The sooner I get this, the sooner we can get this implemented.	161031786	1476309221340	1476309221467	NA	32
314930	3389256	The sooner I get this, the sooner we can get this implemented.	The sooner I get this, the sooner we can get this implemented.	161031790	1476309221546	1476309221635		8
314930	3389256	The sooner I get this, the sooner we can get this implemented.	The sooner I get this, the sooner we can get this implemented.	161031793	1476309221649	1476309221808		8
314930	3389256	The sooner I get this, the sooner we can get this implemented.	The sooner I get this, the sooner we can get this implemented.	161031796	1476309221916	1476309222030	NA	188
314930	3389256	The sooner I get this, the sooner we can get this implemented.	The sooner I get this, the sooner we can get this implemented.	161031822	1476309221963	1476309222090	NA	32
314930	3389256	The sooner I get this, the sooner we can get this implemented.	The sooner I get this, the sooner we can get this implemented.	161031826	1476309222105	1476309222246	NA	84
314930	3389256	The sooner I get this, the sooner we can get this implemented.	The sooner I get this, the sooner we can get this implemented.	161031832	1476309222203	1476309222302	NA	72
314930	3389256	The sooner I get this, the sooner we can get this implemented.	The sooner I get this, the sooner we can get this implemented.	161031838	1476309222330	1476309222438	NA	69
314930	3389256	The sooner I get this, the sooner we can get this implemented.	The sooner I get this, the sooner we can get this implemented.	161031842	1476309222410	1476309222500	NA	32
314930	3389256	The sooner I get this, the sooner we can get this implemented.	The sooner I get this, the sooner we can get this implemented.	161031845	1476309222540	1476309222644	NA	83
314930	3389256	The sooner I get this, the sooner we can get this implemented.	The sooner I get this, the sooner we can get this implemented.	161031868	1476309222634	1476309222719	NA	79
314930	3389256	The sooner I get this, the sooner we can get this implemented.	The sooner I get this, the sooner we can get this implemented.	161031869	1476309222756	1476309222841	NA	79
314930	3389256	The sooner I get this, the sooner we can get this implemented.	The sooner I get this, the sooner we can get this implemented.	161031871	1476309222916	1476309223006	NA	78
314930	3389256	The sooner I get this, the sooner we can get this implemented.	The sooner I get this, the sooner we can get this implemented.	161031873	1476309222972	1476309223076	NA	69
314930	3389256	The sooner I get this, the sooner we can get this implemented.	The sooner I get this, the sooner we can get this implemented.	161031877	1476309223129	1476309223233	NA	82
314930	3389256	The sooner I get this, the sooner we can get this implemented.	The sooner I get this, the sooner we can get this implemented.	161031880	1476309223273	1476309223367	NA	32
314930	3389256	The sooner I get this, the sooner we can get this implemented.	The sooner I get this, the sooner we can get this implemented.	161031923	1476309223498	1476309223621	NA	69
314930	3389256	The sooner I get this, the sooner we can get this implemented.	The sooner I get this, the sooner we can get this implemented.	161031928	1476309223663	1476309223771	NA	32
314930	3389256	The sooner I get this, the sooner we can get this implemented.	The sooner I get this, the sooner we can get this implemented.	161031931	1476309223835	1476309223929	NA	67
314930	3389256	The sooner I get this, the sooner we can get this implemented.	The sooner I get this, the sooner we can get this implemented.	161031967	1476309224093	1476309224177	NA	78
314930	3389256	The sooner I get this, the sooner we can get this implemented.	The sooner I get this, the sooner we can get this implemented.	161031970	1476309224228	1476309224322	NA	32
314930	3389256	The sooner I get this, the sooner we can get this implemented.	The sooner I get this, the sooner we can get this implemented.	161031975	1476309224387	1476309224485	NA	71
314930	3389256	The sooner I get this, the sooner we can get this implemented.	The sooner I get this, the sooner we can get this implemented.	161031981	1476309224452	1476309224593	NA	69
314930	3389256	The sooner I get this, the sooner we can get this implemented.	The sooner I get this, the sooner we can get this implemented.	161031986	1476309224582	1476309224667	NA	84
314930	3389256	The sooner I get this, the sooner we can get this implemented.	The sooner I get this, the sooner we can get this implemented.	161032010	1476309224662	1476309224794	NA	32
314930	3389256	The sooner I get this, the sooner we can get this implemented.	The sooner I get this, the sooner we can get this implemented.	161032015	1476309224797	1476309224900	NA	84
314930	3389256	The sooner I get this, the sooner we can get this implemented.	The sooner I get this, the sooner we can get this implemented.	161032018	1476309224985	1476309225078	NA	72
314930	3389256	The sooner I get this, the sooner we can get this implemented.	The sooner I get this, the sooner we can get this implemented.	161032026	1476309225098	1476309225211	NA	73
314930	3389256	The sooner I get this, the sooner we can get this implemented.	The sooner I get this, the sooner we can get this implemented.	161032031	1476309225177	1476309225304	NA	83
314930	3389256	The sooner I get this, the sooner we can get this implemented.	The sooner I get this, the sooner we can get this implemented.	161032085	1476309225275	1476309225437	NA	32
314930	3389256	The sooner I get this, the sooner we can get this implemented.	The sooner I get this, the sooner we can get this implemented.	161032090	1476309225468	1476309225538	NA	73
314930	3389256	The sooner I get this, the sooner we can get this implemented.	The sooner I get this, the sooner we can get this implemented.	161032094	1476309225619	1476309225708	NA	77
314930	3389256	The sooner I get this, the sooner we can get this implemented.	The sooner I get this, the sooner we can get this implemented.	161032100	1476309225813	1476309225888	NA	80
314930	3389256	The sooner I get this, the sooner we can get this implemented.	The sooner I get this, the sooner we can get this implemented.	161032105	1476309226092	1476309226181	NA	76
314930	3389256	The sooner I get this, the sooner we can get this implemented.	The sooner I get this, the sooner we can get this implemented.	161032230	1476309226148	1476309226256	NA	69
314930	3389256	The sooner I get this, the sooner we can get this implemented.	The sooner I get this, the sooner we can get this implemented.	161032235	1476309226375	1476309226436	NA	82
314930	3389256	The sooner I get this, the sooner we can get this implemented.	The sooner I get this, the sooner we can get this implemented.	161032241	1476309226689	1476309226769		8
314930	3389256	The sooner I get this, the sooner we can get this implemented.	The sooner I get this, the sooner we can get this implemented.	161032247	1476309226863	1476309226948	NA	77
314930	3389256	The sooner I get this, the sooner we can get this implemented.	The sooner I get this, the sooner we can get this implemented.	161032253	1476309227047	1476309227122	NA	78
314930	3389256	The sooner I get this, the sooner we can get this implemented.	The sooner I get this, the sooner we can get this implemented.	161032257	1476309227345	1476309227432		8
314930	3389256	The sooner I get this, the sooner we can get this implemented.	The sooner I get this, the sooner we can get this implemented.	161032232	1476309227410	1476309227551	NA	69
314930	3389256	The sooner I get this, the sooner we can get this implemented.	The sooner I get this, the sooner we can get this implemented.	161032237	1476309227566	1476309227631	NA	78
314930	3389256	The sooner I get this, the sooner we can get this implemented.	The sooner I get this, the sooner we can get this implemented.	161032242	1476309227640	1476309227748	NA	84
314930	3389256	The sooner I get this, the sooner we can get this implemented.	The sooner I get this, the sooner we can get this implemented.	161032248	1476309228225	1476309228328	NA	69
314930	3389256	The sooner I get this, the sooner we can get this implemented.	The sooner I get this, the sooner we can get this implemented.	161032252	1476309228402	1476309228534	NA	68
314930	3389256	The sooner I get this, the sooner we can get this implemented.	The sooner I get this, the sooner we can get this implemented.	161032231	1476309228482	1476309228585	NA	190
314930	3389275	Yes, I am playing.	Yes, I am playing.	161032411	1476309230677	1476309231009	SHIFT	16
314930	3389275	Yes, I am playing.	Yes, I am playing.	161032414	1476309230962	1476309231056	NA	89
314930	3389275	Yes, I am playing.	Yes, I am playing.	161032417	1476309231069	1476309231135	NA	69
314930	3389275	Yes, I am playing.	Yes, I am playing.	161032421	1476309231276	1476309231370	NA	83
314930	3389275	Yes, I am playing.	Yes, I am playing.	161032424	1476309231598	1476309231708	NA	188
314930	3389275	Yes, I am playing.	Yes, I am playing.	161032450	1476309231705	1476309231856	NA	32
314930	3389275	Yes, I am playing.	Yes, I am playing.	161032454	1476309231818	1476309232005	SHIFT	16
314930	3389275	Yes, I am playing.	Yes, I am playing.	161032458	1476309231934	1476309232057	NA	73
314930	3389275	Yes, I am playing.	Yes, I am playing.	161032460	1476309232009	1476309232159	NA	32
314930	3389275	Yes, I am playing.	Yes, I am playing.	161032520	1476309232254	1476309233063	NA	65
314930	3389275	Yes, I am playing.	Yes, I am playing.	161032470	1476309232357	1476309232456	NA	77
314930	3389275	Yes, I am playing.	Yes, I am playing.	161032502	1476309232451	1476309232596	NA	32
314930	3389275	Yes, I am playing.	Yes, I am playing.	161032508	1476309232653	1476309232752	NA	80
314930	3389275	Yes, I am playing.	Yes, I am playing.	161032514	1476309232820	1476309232942	NA	76
314930	3389275	Yes, I am playing.	Yes, I am playing.	161032524	1476309233049	1476309233134	NA	89
314930	3389275	Yes, I am playing.	Yes, I am playing.	161032528	1476309233183	1476309233277	NA	73
314930	3389275	Yes, I am playing.	Yes, I am playing.	161032572	1476309233357	1476309233493	NA	71
314930	3389275	Yes, I am playing.	Yes, I am playing.	161032575	1476309233691	1476309233790		8
314930	3389275	Yes, I am playing.	Yes, I am playing.	161032577	1476309233921	1476309234025	NA	71
314930	3389275	Yes, I am playing.	Yes, I am playing.	161032580	1476309234401	1476309234481		8
314930	3389275	Yes, I am playing.	Yes, I am playing.	161032583	1476309234490	1476309234565	NA	78
314930	3389275	Yes, I am playing.	Yes, I am playing.	161032604	1476309234667	1476309234805	NA	71
314930	3389275	Yes, I am playing.	Yes, I am playing.	161032607	1476309234803	1476309234901	NA	190
314930	3389286	Hence the importannce of the media bidding battle in Britain.	Hence the importance of the media bidding battle in the Britain.	161032747	1476309236997	1476309237199	SHIFT	16
314930	3389286	Hence the importannce of the media bidding battle in Britain.	Hence the importance of the media bidding battle in the Britain.	161032749	1476309237165	1476309237268	NA	72
314930	3389286	Hence the importannce of the media bidding battle in Britain.	Hence the importance of the media bidding battle in the Britain.	161032751	1476309237211	1476309237329	NA	69
314930	3389286	Hence the importannce of the media bidding battle in Britain.	Hence the importance of the media bidding battle in the Britain.	161032754	1476309237388	1476309237484	NA	78
314930	3389286	Hence the importannce of the media bidding battle in Britain.	Hence the importance of the media bidding battle in the Britain.	161032757	1476309237482	1476309237623	NA	83
314930	3389286	Hence the importannce of the media bidding battle in Britain.	Hence the importance of the media bidding battle in the Britain.	161032761	1476309237783	1476309237888	NA	67
314930	3389286	Hence the importannce of the media bidding battle in Britain.	Hence the importance of the media bidding battle in the Britain.	161032775	1476309238005	1476309238080		8
314930	3389286	Hence the importannce of the media bidding battle in Britain.	Hence the importance of the media bidding battle in the Britain.	161032778	1476309238115	1476309238223		8
314930	3389286	Hence the importannce of the media bidding battle in Britain.	Hence the importance of the media bidding battle in the Britain.	161032784	1476309238148	1476309238261	NA	67
314930	3389286	Hence the importannce of the media bidding battle in Britain.	Hence the importance of the media bidding battle in the Britain.	161032787	1476309238328	1476309238473	NA	69
314930	3389286	Hence the importannce of the media bidding battle in Britain.	Hence the importance of the media bidding battle in the Britain.	161032819	1476309238426	1476309238529	NA	32
314930	3389286	Hence the importannce of the media bidding battle in Britain.	Hence the importance of the media bidding battle in the Britain.	161032822	1476309238574	1476309238691	NA	84
314930	3389286	Hence the importannce of the media bidding battle in Britain.	Hence the importance of the media bidding battle in the Britain.	161032827	1476309238663	1476309238766	NA	72
314930	3389286	Hence the importannce of the media bidding battle in Britain.	Hence the importance of the media bidding battle in the Britain.	161032830	1476309238786	1476309238890	NA	69
314930	3389286	Hence the importannce of the media bidding battle in Britain.	Hence the importance of the media bidding battle in the Britain.	161032833	1476309238861	1476309238950	NA	32
314930	3389286	Hence the importannce of the media bidding battle in Britain.	Hence the importance of the media bidding battle in the Britain.	161032835	1476309239034	1476309239127	NA	73
314930	3389286	Hence the importannce of the media bidding battle in Britain.	Hence the importance of the media bidding battle in the Britain.	161032861	1476309239202	1476309239292	NA	77
314930	3389286	Hence the importannce of the media bidding battle in Britain.	Hence the importance of the media bidding battle in the Britain.	161032865	1476309239361	1476309239475	NA	80
314930	3389286	Hence the importannce of the media bidding battle in Britain.	Hence the importance of the media bidding battle in the Britain.	161032870	1476309239477	1476309239580	NA	79
314930	3389286	Hence the importannce of the media bidding battle in Britain.	Hence the importance of the media bidding battle in the Britain.	161032873	1476309239584	1476309239754	NA	83
314930	3389286	Hence the importannce of the media bidding battle in Britain.	Hence the importance of the media bidding battle in the Britain.	161032876	1476309239853	1476309239942	NA	84
314930	3389286	Hence the importannce of the media bidding battle in Britain.	Hence the importance of the media bidding battle in the Britain.	161032889	1476309240035	1476309240111		8
314930	3389286	Hence the importannce of the media bidding battle in Britain.	Hence the importance of the media bidding battle in the Britain.	161032891	1476309240139	1476309240257		8
314930	3389286	Hence the importannce of the media bidding battle in Britain.	Hence the importance of the media bidding battle in the Britain.	161032895	1476309240177	1476309240303	NA	82
314930	3389286	Hence the importannce of the media bidding battle in Britain.	Hence the importance of the media bidding battle in the Britain.	161032897	1476309240373	1476309240476	NA	84
314930	3389286	Hence the importannce of the media bidding battle in Britain.	Hence the importance of the media bidding battle in the Britain.	161033086	1476309240622	1476309243328	NA	65
314930	3389286	Hence the importannce of the media bidding battle in Britain.	Hence the importance of the media bidding battle in the Britain.	161032942	1476309240709	1476309240790	NA	78
314930	3389286	Hence the importannce of the media bidding battle in Britain.	Hence the importance of the media bidding battle in the Britain.	161032943	1476309241002	1476309241091	NA	67
314930	3389286	Hence the importannce of the media bidding battle in Britain.	Hence the importance of the media bidding battle in the Britain.	161032944	1476309241048	1476309241156	NA	69
314930	3389286	Hence the importannce of the media bidding battle in Britain.	Hence the importance of the media bidding battle in the Britain.	161032947	1476309241203	1476309241292	NA	32
314930	3389286	Hence the importannce of the media bidding battle in Britain.	Hence the importance of the media bidding battle in the Britain.	161032949	1476309241375	1476309241460	NA	79
314930	3389286	Hence the importannce of the media bidding battle in Britain.	Hence the importance of the media bidding battle in the Britain.	161032953	1476309241450	1476309241543	NA	70
314930	3389286	Hence the importannce of the media bidding battle in Britain.	Hence the importance of the media bidding battle in the Britain.	161032955	1476309241547	1476309241641	NA	32
314930	3389286	Hence the importannce of the media bidding battle in Britain.	Hence the importance of the media bidding battle in the Britain.	161032957	1476309241660	1476309241783	NA	84
314930	3389286	Hence the importannce of the media bidding battle in Britain.	Hence the importance of the media bidding battle in the Britain.	161032960	1476309241768	1476309241862	NA	72
314930	3389286	Hence the importannce of the media bidding battle in Britain.	Hence the importance of the media bidding battle in the Britain.	161032963	1476309241881	1476309241994	NA	69
314930	3389286	Hence the importannce of the media bidding battle in Britain.	Hence the importance of the media bidding battle in the Britain.	161033019	1476309241942	1476309242041	NA	32
314930	3389286	Hence the importannce of the media bidding battle in Britain.	Hence the importance of the media bidding battle in the Britain.	161033022	1476309242204	1476309242317	NA	69
314930	3389286	Hence the importannce of the media bidding battle in Britain.	Hence the importance of the media bidding battle in the Britain.	161033026	1476309242530	1476309242619		8
314930	3389286	Hence the importannce of the media bidding battle in Britain.	Hence the importance of the media bidding battle in the Britain.	161033030	1476309242727	1476309242844	NA	77
314930	3389286	Hence the importannce of the media bidding battle in Britain.	Hence the importance of the media bidding battle in the Britain.	161033036	1476309242764	1476309242849	NA	69
314930	3389286	Hence the importannce of the media bidding battle in Britain.	Hence the importance of the media bidding battle in the Britain.	161033040	1476309242937	1476309243026	NA	68
314930	3389286	Hence the importannce of the media bidding battle in Britain.	Hence the importance of the media bidding battle in the Britain.	161033079	1476309242993	1476309243091	NA	73
314930	3389286	Hence the importannce of the media bidding battle in Britain.	Hence the importance of the media bidding battle in the Britain.	161033167	1476309243216	1476309244900	NA	65
314930	3389286	Hence the importannce of the media bidding battle in Britain.	Hence the importance of the media bidding battle in the Britain.	161033091	1476309243367	1476309243465	NA	32
314930	3389286	Hence the importannce of the media bidding battle in Britain.	Hence the importance of the media bidding battle in the Britain.	161033095	1476309243550	1476309243644	NA	66
314930	3389286	Hence the importannce of the media bidding battle in Britain.	Hence the importance of the media bidding battle in the Britain.	161033098	1476309243736	1476309243836	NA	73
314930	3389286	Hence the importannce of the media bidding battle in Britain.	Hence the importance of the media bidding battle in the Britain.	161033113	1476309243829	1476309243943	NA	68
314930	3389286	Hence the importannce of the media bidding battle in Britain.	Hence the importance of the media bidding battle in the Britain.	161033115	1476309243983	1476309244101	NA	68
314930	3389286	Hence the importannce of the media bidding battle in Britain.	Hence the importance of the media bidding battle in the Britain.	161033119	1476309244114	1476309244223	NA	73
314930	3389286	Hence the importannce of the media bidding battle in Britain.	Hence the importance of the media bidding battle in the Britain.	161033123	1476309244249	1476309244347	NA	78
314930	3389286	Hence the importannce of the media bidding battle in Britain.	Hence the importance of the media bidding battle in the Britain.	161033126	1476309244337	1476309244442	NA	71
314930	3389286	Hence the importannce of the media bidding battle in Britain.	Hence the importance of the media bidding battle in the Britain.	161033159	1476309244426	1476309244543	NA	32
314930	3389286	Hence the importannce of the media bidding battle in Britain.	Hence the importance of the media bidding battle in the Britain.	161033162	1476309244661	1476309244764	NA	66
314930	3389286	Hence the importannce of the media bidding battle in Britain.	Hence the importance of the media bidding battle in the Britain.	161033377	1476309244778	1476309248851	NA	65
314930	3389286	Hence the importannce of the media bidding battle in Britain.	Hence the importance of the media bidding battle in the Britain.	161033171	1476309244919	1476309244995	NA	66
314930	3389286	Hence the importannce of the media bidding battle in Britain.	Hence the importance of the media bidding battle in the Britain.	161033175	1476309245208	1476309245307		8
314930	3389286	Hence the importannce of the media bidding battle in Britain.	Hence the importance of the media bidding battle in the Britain.	161033206	1476309245254	1476309245358	NA	84
314930	3389286	Hence the importannce of the media bidding battle in Britain.	Hence the importance of the media bidding battle in the Britain.	161033210	1476309245418	1476309245521	NA	84
314930	3389286	Hence the importannce of the media bidding battle in Britain.	Hence the importance of the media bidding battle in the Britain.	161033217	1476309245592	1476309245710	NA	76
314930	3389286	Hence the importannce of the media bidding battle in Britain.	Hence the importance of the media bidding battle in the Britain.	161033224	1476309245690	1476309245812	NA	69
314930	3389286	Hence the importannce of the media bidding battle in Britain.	Hence the importance of the media bidding battle in the Britain.	161033229	1476309245870	1476309245937	NA	32
314930	3389286	Hence the importannce of the media bidding battle in Britain.	Hence the importance of the media bidding battle in the Britain.	161033234	1476309246014	1476309246113	NA	73
314930	3389286	Hence the importannce of the media bidding battle in Britain.	Hence the importance of the media bidding battle in the Britain.	161033283	1476309246165	1476309246263	NA	78
314930	3389286	Hence the importannce of the media bidding battle in Britain.	Hence the importance of the media bidding battle in the Britain.	161033284	1476309246253	1476309246404	NA	32
314930	3389286	Hence the importannce of the media bidding battle in Britain.	Hence the importance of the media bidding battle in the Britain.	161033286	1476309246416	1476309246539	NA	84
314930	3389286	Hence the importannce of the media bidding battle in Britain.	Hence the importance of the media bidding battle in the Britain.	161033289	1476309246820	1476309246932	NA	72
314930	3389286	Hence the importannce of the media bidding battle in Britain.	Hence the importance of the media bidding battle in the Britain.	161033331	1476309246913	1476309247045	NA	69
314930	3389286	Hence the importannce of the media bidding battle in Britain.	Hence the importance of the media bidding battle in the Britain.	161033337	1476309247030	1476309247138	NA	32
314930	3389286	Hence the importannce of the media bidding battle in Britain.	Hence the importance of the media bidding battle in the Britain.	161033342	1476309247161	1476309247545	SHIFT	16
314930	3389286	Hence the importannce of the media bidding battle in Britain.	Hence the importance of the media bidding battle in the Britain.	161033348	1476309247464	1476309247596	NA	66
314930	3389286	Hence the importannce of the media bidding battle in Britain.	Hence the importance of the media bidding battle in the Britain.	161033354	1476309247666	1476309247775	NA	73
314930	3389286	Hence the importannce of the media bidding battle in Britain.	Hence the importance of the media bidding battle in the Britain.	161033359	1476309247830	1476309247971	NA	82
314930	3389286	Hence the importannce of the media bidding battle in Britain.	Hence the importance of the media bidding battle in the Britain.	161033362	1476309248030	1476309248101		8
314930	3389286	Hence the importannce of the media bidding battle in Britain.	Hence the importance of the media bidding battle in the Britain.	161033365	1476309248137	1476309248236		8
314930	3389286	Hence the importannce of the media bidding battle in Britain.	Hence the importance of the media bidding battle in the Britain.	161033367	1476309248225	1476309248366	NA	82
314930	3389286	Hence the importannce of the media bidding battle in Britain.	Hence the importance of the media bidding battle in the Britain.	161033370	1476309248328	1476309248451	NA	73
314930	3389286	Hence the importannce of the media bidding battle in Britain.	Hence the importance of the media bidding battle in the Britain.	161033374	1476309248505	1476309248609	NA	84
314930	3389286	Hence the importannce of the media bidding battle in Britain.	Hence the importance of the media bidding battle in the Britain.	161033394	1476309248812	1476309248901	NA	73
314930	3389286	Hence the importannce of the media bidding battle in Britain.	Hence the importance of the media bidding battle in the Britain.	161033398	1476309248948	1476309249042	NA	78
314930	3389286	Hence the importannce of the media bidding battle in Britain.	Hence the importance of the media bidding battle in the Britain.	161033402	1476309249126	1476309249235	NA	190
314930	3389301	I worked on the grade level promotion.	I worked on the grade level promotion.	161033667	1476309248742	1476309254144	NA	65
314930	3389301	I worked on the grade level promotion.	I worked on the grade level promotion.	161033598	1476309250986	1476309251271	SHIFT	16
314930	3389301	I worked on the grade level promotion.	I worked on the grade level promotion.	161033602	1476309251205	1476309251323	NA	73
314930	3389301	I worked on the grade level promotion.	I worked on the grade level promotion.	161033607	1476309251290	1476309251426	NA	32
314930	3389301	I worked on the grade level promotion.	I worked on the grade level promotion.	161033611	1476309251562	1476309251665	NA	79
314930	3389301	I worked on the grade level promotion.	I worked on the grade level promotion.	161033614	1476309251706	1476309251847	NA	82
314930	3389301	I worked on the grade level promotion.	I worked on the grade level promotion.	161033599	1476309251819	1476309251913	NA	75
314930	3389301	I worked on the grade level promotion.	I worked on the grade level promotion.	161033603	1476309251981	1476309252075	NA	32
314930	3389301	I worked on the grade level promotion.	I worked on the grade level promotion.	161033606	1476309252227	1476309252325		8
314930	3389301	I worked on the grade level promotion.	I worked on the grade level promotion.	161033608	1476309252311	1476309252414	NA	69
314930	3389301	I worked on the grade level promotion.	I worked on the grade level promotion.	161033610	1476309252534	1476309252693	NA	68
314930	3389301	I worked on the grade level promotion.	I worked on the grade level promotion.	161033622	1476309252651	1476309252824	NA	32
314930	3389301	I worked on the grade level promotion.	I worked on the grade level promotion.	161033627	1476309252850	1476309252958	NA	79
314930	3389301	I worked on the grade level promotion.	I worked on the grade level promotion.	161033631	1476309253040	1476309253157	NA	78
314930	3389301	I worked on the grade level promotion.	I worked on the grade level promotion.	161033634	1476309253119	1476309253251	NA	32
314930	3389301	I worked on the grade level promotion.	I worked on the grade level promotion.	161033639	1476309253296	1476309253418	NA	84
314930	3389301	I worked on the grade level promotion.	I worked on the grade level promotion.	161033662	1476309253385	1476309253479	NA	72
314930	3389301	I worked on the grade level promotion.	I worked on the grade level promotion.	161033663	1476309253515	1476309253637	NA	69
314930	3389301	I worked on the grade level promotion.	I worked on the grade level promotion.	161033664	1476309253589	1476309253702	NA	32
314930	3389301	I worked on the grade level promotion.	I worked on the grade level promotion.	161033665	1476309253798	1476309253878	NA	71
314930	3389301	I worked on the grade level promotion.	I worked on the grade level promotion.	161033666	1476309253820	1476309253928	NA	82
314930	3389301	I worked on the grade level promotion.	I worked on the grade level promotion.	161033706	1476309254425	1476309254533	NA	69
314930	3389301	I worked on the grade level promotion.	I worked on the grade level promotion.	161033708	1476309254940	1476309255049		8
314930	3389301	I worked on the grade level promotion.	I worked on the grade level promotion.	161033713	1476309255010	1476309255090	NA	68
314930	3389301	I worked on the grade level promotion.	I worked on the grade level promotion.	161033718	1476309255162	1476309255285	NA	69
314930	3389301	I worked on the grade level promotion.	I worked on the grade level promotion.	161033758	1476309255283	1476309255381	NA	32
314930	3389301	I worked on the grade level promotion.	I worked on the grade level promotion.	161033759	1476309255503	1476309255618	NA	76
314930	3389301	I worked on the grade level promotion.	I worked on the grade level promotion.	161033761	1476309255588	1476309255678	NA	69
314930	3389301	I worked on the grade level promotion.	I worked on the grade level promotion.	161033763	1476309255745	1476309255838	NA	86
314930	3389301	I worked on the grade level promotion.	I worked on the grade level promotion.	161033765	1476309255824	1476309255922	NA	69
314930	3389301	I worked on the grade level promotion.	I worked on the grade level promotion.	161033767	1476309256217	1476309256306	NA	69
314930	3389301	I worked on the grade level promotion.	I worked on the grade level promotion.	161033789	1476309256352	1476309256437	NA	76
314930	3389301	I worked on the grade level promotion.	I worked on the grade level promotion.	161033790	1476309256546	1476309256626		8
314930	3389301	I worked on the grade level promotion.	I worked on the grade level promotion.	161033792	1476309256653	1476309256756		8
314930	3389301	I worked on the grade level promotion.	I worked on the grade level promotion.	161033794	1476309256808	1476309256949	NA	76
314930	3389301	I worked on the grade level promotion.	I worked on the grade level promotion.	161033821	1476309256897	1476309257019	NA	32
314930	3389301	I worked on the grade level promotion.	I worked on the grade level promotion.	161033825	1476309257023	1476309257136	NA	80
314930	3389301	I worked on the grade level promotion.	I worked on the grade level promotion.	161033829	1476309257144	1476309257271	NA	82
314930	3389301	I worked on the grade level promotion.	I worked on the grade level promotion.	161033832	1476309257261	1476309257378	NA	79
314930	3389301	I worked on the grade level promotion.	I worked on the grade level promotion.	161033834	1476309257579	1476309257687	NA	77
314930	3389301	I worked on the grade level promotion.	I worked on the grade level promotion.	161033837	1476309257751	1476309257841	NA	79
314930	3389301	I worked on the grade level promotion.	I worked on the grade level promotion.	161033875	1476309257849	1476309257962	NA	84
314930	3389301	I worked on the grade level promotion.	I worked on the grade level promotion.	161033879	1476309257992	1476309258068	NA	73
314930	3389301	I worked on the grade level promotion.	I worked on the grade level promotion.	161033885	1476309258150	1476309258207	NA	73
314930	3389301	I worked on the grade level promotion.	I worked on the grade level promotion.	161033888	1476309258657	1476309258747		8
314930	3389301	I worked on the grade level promotion.	I worked on the grade level promotion.	161033891	1476309258867	1476309258943	NA	79
314930	3389301	I worked on the grade level promotion.	I worked on the grade level promotion.	161033931	1476309258995	1476309259084	NA	78
314930	3389301	I worked on the grade level promotion.	I worked on the grade level promotion.	161033939	1476309259163	1476309259252	NA	59
314930	3389301	I worked on the grade level promotion.	I worked on the grade level promotion.	161033944	1476309259526	1476309259617		8
314930	3389301	I worked on the grade level promotion.	I worked on the grade level promotion.	161033950	1476309259698	1476309259824	NA	190
314930	3389309	However, he's still expected to start in the 49ers next game on Oct.	However, he's still expected to start in the 49ers next game on Oct.	161034330	1476309254050	1476309269632	NA	65
314930	3389309	However, he's still expected to start in the 49ers next game on Oct.	However, he's still expected to start in the 49ers next game on Oct.	161034056	1476309261611	1476309261803	SHIFT	16
314930	3389309	However, he's still expected to start in the 49ers next game on Oct.	However, he's still expected to start in the 49ers next game on Oct.	161034058	1476309261718	1476309261854	NA	72
314930	3389309	However, he's still expected to start in the 49ers next game on Oct.	However, he's still expected to start in the 49ers next game on Oct.	161034060	1476309261967	1476309262099	NA	79
314930	3389309	However, he's still expected to start in the 49ers next game on Oct.	However, he's still expected to start in the 49ers next game on Oct.	161034062	1476309262139	1476309262242	NA	69
314930	3389309	However, he's still expected to start in the 49ers next game on Oct.	However, he's still expected to start in the 49ers next game on Oct.	161034065	1476309262601	1476309262705		8
314930	3389309	However, he's still expected to start in the 49ers next game on Oct.	However, he's still expected to start in the 49ers next game on Oct.	161034122	1476309262803	1476309262917	NA	69
314930	3389309	However, he's still expected to start in the 49ers next game on Oct.	However, he's still expected to start in the 49ers next game on Oct.	161034127	1476309262914	1476309263024	NA	86
314930	3389309	However, he's still expected to start in the 49ers next game on Oct.	However, he's still expected to start in the 49ers next game on Oct.	161034130	1476309263022	1476309263116	NA	69
314930	3389309	However, he's still expected to start in the 49ers next game on Oct.	However, he's still expected to start in the 49ers next game on Oct.	161034132	1476309263297	1476309263476	NA	82
314930	3389309	However, he's still expected to start in the 49ers next game on Oct.	However, he's still expected to start in the 49ers next game on Oct.	161034133	1476309263480	1476309263602	NA	188
314930	3389309	However, he's still expected to start in the 49ers next game on Oct.	However, he's still expected to start in the 49ers next game on Oct.	161034117	1476309263605	1476309263741	NA	32
314930	3389309	However, he's still expected to start in the 49ers next game on Oct.	However, he's still expected to start in the 49ers next game on Oct.	161034120	1476309263896	1476309263982	NA	72
314930	3389309	However, he's still expected to start in the 49ers next game on Oct.	However, he's still expected to start in the 49ers next game on Oct.	161034125	1476309263952	1476309264070	NA	69
314930	3389309	However, he's still expected to start in the 49ers next game on Oct.	However, he's still expected to start in the 49ers next game on Oct.	161034129	1476309264145	1476309264202	NA	59
314930	3389309	However, he's still expected to start in the 49ers next game on Oct.	However, he's still expected to start in the 49ers next game on Oct.	161034131	1476309264280	1476309264407	NA	83
314930	3389309	However, he's still expected to start in the 49ers next game on Oct.	However, he's still expected to start in the 49ers next game on Oct.	161034118	1476309264476	1476309264537		8
314930	3389309	However, he's still expected to start in the 49ers next game on Oct.	However, he's still expected to start in the 49ers next game on Oct.	161034123	1476309264575	1476309264684		8
314930	3389309	However, he's still expected to start in the 49ers next game on Oct.	However, he's still expected to start in the 49ers next game on Oct.	161034124	1476309264781	1476309264885	NA	222
314930	3389309	However, he's still expected to start in the 49ers next game on Oct.	However, he's still expected to start in the 49ers next game on Oct.	161034128	1476309264818	1476309264996	NA	83
314930	3389309	However, he's still expected to start in the 49ers next game on Oct.	However, he's still expected to start in the 49ers next game on Oct.	161034167	1476309264949	1476309265108	NA	32
314930	3389309	However, he's still expected to start in the 49ers next game on Oct.	However, he's still expected to start in the 49ers next game on Oct.	161034169	1476309265103	1476309265281	NA	83
314930	3389309	However, he's still expected to start in the 49ers next game on Oct.	However, he's still expected to start in the 49ers next game on Oct.	161034170	1476309265343	1476309265474	NA	84
314930	3389309	However, he's still expected to start in the 49ers next game on Oct.	However, he's still expected to start in the 49ers next game on Oct.	161034171	1476309265417	1476309265530	NA	73
314930	3389309	However, he's still expected to start in the 49ers next game on Oct.	However, he's still expected to start in the 49ers next game on Oct.	161034172	1476309265599	1476309265684	NA	76
314930	3389309	However, he's still expected to start in the 49ers next game on Oct.	However, he's still expected to start in the 49ers next game on Oct.	161034173	1476309265715	1476309265799	NA	76
314930	3389309	However, he's still expected to start in the 49ers next game on Oct.	However, he's still expected to start in the 49ers next game on Oct.	161034195	1476309265876	1476309265989	NA	32
314930	3389309	However, he's still expected to start in the 49ers next game on Oct.	However, he's still expected to start in the 49ers next game on Oct.	161034196	1476309266179	1476309266296	NA	69
314930	3389309	However, he's still expected to start in the 49ers next game on Oct.	However, he's still expected to start in the 49ers next game on Oct.	161034197	1476309266519	1476309266631	NA	80
314930	3389309	However, he's still expected to start in the 49ers next game on Oct.	However, he's still expected to start in the 49ers next game on Oct.	161034199	1476309266841	1476309266930		8
314930	3389309	However, he's still expected to start in the 49ers next game on Oct.	However, he's still expected to start in the 49ers next game on Oct.	161034201	1476309266951	1476309267084	NA	88
314930	3389309	However, he's still expected to start in the 49ers next game on Oct.	However, he's still expected to start in the 49ers next game on Oct.	161034228	1476309267082	1476309267209	NA	80
314930	3389309	However, he's still expected to start in the 49ers next game on Oct.	However, he's still expected to start in the 49ers next game on Oct.	161034230	1476309267212	1476309267325	NA	69
314930	3389309	However, he's still expected to start in the 49ers next game on Oct.	However, he's still expected to start in the 49ers next game on Oct.	161034232	1476309267461	1476309267583	NA	67
314930	3389309	However, he's still expected to start in the 49ers next game on Oct.	However, he's still expected to start in the 49ers next game on Oct.	161034234	1476309267641	1476309267777	NA	84
314930	3389309	However, he's still expected to start in the 49ers next game on Oct.	However, he's still expected to start in the 49ers next game on Oct.	161034236	1476309267857	1476309267951	NA	69
314930	3389309	However, he's still expected to start in the 49ers next game on Oct.	However, he's still expected to start in the 49ers next game on Oct.	161034239	1476309268015	1476309268118	NA	69
314930	3389309	However, he's still expected to start in the 49ers next game on Oct.	However, he's still expected to start in the 49ers next game on Oct.	161034262	1476309268203	1476309268283	NA	32
314930	3389309	However, he's still expected to start in the 49ers next game on Oct.	However, he's still expected to start in the 49ers next game on Oct.	161034265	1476309268398	1476309268492		8
314930	3389309	However, he's still expected to start in the 49ers next game on Oct.	However, he's still expected to start in the 49ers next game on Oct.	161034269	1476309268514	1476309268651		8
314930	3389309	However, he's still expected to start in the 49ers next game on Oct.	However, he's still expected to start in the 49ers next game on Oct.	161034272	1476309268570	1476309268725	NA	68
314930	3389309	However, he's still expected to start in the 49ers next game on Oct.	However, he's still expected to start in the 49ers next game on Oct.	161034287	1476309268682	1476309268832	NA	32
314930	3389309	However, he's still expected to start in the 49ers next game on Oct.	However, he's still expected to start in the 49ers next game on Oct.	161034289	1476309268841	1476309268963	NA	84
314930	3389309	However, he's still expected to start in the 49ers next game on Oct.	However, he's still expected to start in the 49ers next game on Oct.	161034291	1476309268939	1476309269049	NA	79
314930	3389309	However, he's still expected to start in the 49ers next game on Oct.	However, he's still expected to start in the 49ers next game on Oct.	161034293	1476309269046	1476309269220	NA	32
314930	3389309	However, he's still expected to start in the 49ers next game on Oct.	However, he's still expected to start in the 49ers next game on Oct.	161034297	1476309269283	1476309269410	NA	83
314930	3389309	However, he's still expected to start in the 49ers next game on Oct.	However, he's still expected to start in the 49ers next game on Oct.	161034329	1476309269386	1476309269484	NA	84
314930	3389309	However, he's still expected to start in the 49ers next game on Oct.	However, he's still expected to start in the 49ers next game on Oct.	161034631	1476309269501	1476309275390	NA	65
314930	3389309	However, he's still expected to start in the 49ers next game on Oct.	However, he's still expected to start in the 49ers next game on Oct.	161034333	1476309269756	1476309269804	NA	82
314930	3389309	However, he's still expected to start in the 49ers next game on Oct.	However, he's still expected to start in the 49ers next game on Oct.	161034336	1476309269794	1476309269920	NA	84
314930	3389309	However, he's still expected to start in the 49ers next game on Oct.	However, he's still expected to start in the 49ers next game on Oct.	161034339	1476309270221	1476309270358	NA	32
314930	3389309	However, he's still expected to start in the 49ers next game on Oct.	However, he's still expected to start in the 49ers next game on Oct.	161034342	1476309270393	1476309270501	NA	73
314930	3389309	However, he's still expected to start in the 49ers next game on Oct.	However, he's still expected to start in the 49ers next game on Oct.	161034383	1476309270553	1476309270656	NA	78
314930	3389309	However, he's still expected to start in the 49ers next game on Oct.	However, he's still expected to start in the 49ers next game on Oct.	161034389	1476309270632	1476309270805	NA	32
314930	3389309	However, he's still expected to start in the 49ers next game on Oct.	However, he's still expected to start in the 49ers next game on Oct.	161034392	1476309271107	1476309271262	NA	84
314930	3389309	However, he's still expected to start in the 49ers next game on Oct.	However, he's still expected to start in the 49ers next game on Oct.	161034399	1476309271224	1476309271309	NA	72
314930	3389309	However, he's still expected to start in the 49ers next game on Oct.	However, he's still expected to start in the 49ers next game on Oct.	161034403	1476309271389	1476309271583	NA	69
314930	3389309	However, he's still expected to start in the 49ers next game on Oct.	However, he's still expected to start in the 49ers next game on Oct.	161034443	1476309271571	1476309271666	NA	32
314930	3389309	However, he's still expected to start in the 49ers next game on Oct.	However, he's still expected to start in the 49ers next game on Oct.	161034446	1476309272104	1476309272207	NA	51
314930	3389309	However, he's still expected to start in the 49ers next game on Oct.	However, he's still expected to start in the 49ers next game on Oct.	161034449	1476309272357	1476309272469		8
314930	3389309	However, he's still expected to start in the 49ers next game on Oct.	However, he's still expected to start in the 49ers next game on Oct.	161034453	1476309272460	1476309272572	NA	52
314930	3389309	However, he's still expected to start in the 49ers next game on Oct.	However, he's still expected to start in the 49ers next game on Oct.	161034457	1476309272562	1476309272670	NA	57
314930	3389309	However, he's still expected to start in the 49ers next game on Oct.	However, he's still expected to start in the 49ers next game on Oct.	161034460	1476309272690	1476309272779	NA	32
314930	3389309	However, he's still expected to start in the 49ers next game on Oct.	However, he's still expected to start in the 49ers next game on Oct.	161034519	1476309273111	1476309273266	NA	69
314930	3389309	However, he's still expected to start in the 49ers next game on Oct.	However, he's still expected to start in the 49ers next game on Oct.	161034522	1476309273335	1476309273387		8
314930	3389309	However, he's still expected to start in the 49ers next game on Oct.	However, he's still expected to start in the 49ers next game on Oct.	161034523	1476309273423	1476309273493		8
314930	3389309	However, he's still expected to start in the 49ers next game on Oct.	However, he's still expected to start in the 49ers next game on Oct.	161034525	1476309273579	1476309273692	NA	69
314930	3389309	However, he's still expected to start in the 49ers next game on Oct.	However, he's still expected to start in the 49ers next game on Oct.	161034527	1476309273771	1476309273876	NA	82
314930	3389309	However, he's still expected to start in the 49ers next game on Oct.	However, he's still expected to start in the 49ers next game on Oct.	161034559	1476309274003	1476309274098	NA	83
314930	3389309	However, he's still expected to start in the 49ers next game on Oct.	However, he's still expected to start in the 49ers next game on Oct.	161034561	1476309274123	1476309274231	NA	32
314930	3389309	However, he's still expected to start in the 49ers next game on Oct.	However, he's still expected to start in the 49ers next game on Oct.	161034567	1476309274378	1476309274481	NA	78
314930	3389309	However, he's still expected to start in the 49ers next game on Oct.	However, he's still expected to start in the 49ers next game on Oct.	161034571	1476309274582	1476309274676	NA	69
314930	3389309	However, he's still expected to start in the 49ers next game on Oct.	However, he's still expected to start in the 49ers next game on Oct.	161034574	1476309274814	1476309274899	NA	88
314930	3389309	However, he's still expected to start in the 49ers next game on Oct.	However, he's still expected to start in the 49ers next game on Oct.	161034624	1476309274889	1476309274988	NA	84
314930	3389309	However, he's still expected to start in the 49ers next game on Oct.	However, he's still expected to start in the 49ers next game on Oct.	161034627	1476309275063	1476309275251	NA	32
314930	3389309	However, he's still expected to start in the 49ers next game on Oct.	However, he's still expected to start in the 49ers next game on Oct.	161034629	1476309275156	1476309275256	NA	71
314930	3389309	However, he's still expected to start in the 49ers next game on Oct.	However, he's still expected to start in the 49ers next game on Oct.	161034634	1476309275476	1476309275607	NA	69
314930	3389309	However, he's still expected to start in the 49ers next game on Oct.	However, he's still expected to start in the 49ers next game on Oct.	161034636	1476309275757	1476309275842		8
314930	3389309	However, he's still expected to start in the 49ers next game on Oct.	However, he's still expected to start in the 49ers next game on Oct.	161034665	1476309275932	1476309276045	NA	77
314930	3389309	However, he's still expected to start in the 49ers next game on Oct.	However, he's still expected to start in the 49ers next game on Oct.	161034669	1476309275974	1476309276133	NA	69
314930	3389309	However, he's still expected to start in the 49ers next game on Oct.	However, he's still expected to start in the 49ers next game on Oct.	161034672	1476309276095	1476309276245	NA	32
314930	3389309	However, he's still expected to start in the 49ers next game on Oct.	However, he's still expected to start in the 49ers next game on Oct.	161034677	1476309276217	1476309276306	NA	79
314930	3389309	However, he's still expected to start in the 49ers next game on Oct.	However, he's still expected to start in the 49ers next game on Oct.	161034680	1476309276357	1476309276455	NA	78
314930	3389309	However, he's still expected to start in the 49ers next game on Oct.	However, he's still expected to start in the 49ers next game on Oct.	161034714	1476309276523	1476309276641	NA	32
314930	3389309	However, he's still expected to start in the 49ers next game on Oct.	However, he's still expected to start in the 49ers next game on Oct.	161034719	1476309276560	1476309276776	SHIFT	16
314930	3389309	However, he's still expected to start in the 49ers next game on Oct.	However, he's still expected to start in the 49ers next game on Oct.	161034723	1476309276719	1476309276855	NA	79
314930	3389309	However, he's still expected to start in the 49ers next game on Oct.	However, he's still expected to start in the 49ers next game on Oct.	161034728	1476309276872	1476309277018	NA	86
314930	3389309	However, he's still expected to start in the 49ers next game on Oct.	However, he's still expected to start in the 49ers next game on Oct.	161034733	1476309277226	1476309277315		8
314930	3389309	However, he's still expected to start in the 49ers next game on Oct.	However, he's still expected to start in the 49ers next game on Oct.	161034736	1476309277453	1476309277639	NA	67
314930	3389309	However, he's still expected to start in the 49ers next game on Oct.	However, he's still expected to start in the 49ers next game on Oct.	161034738	1476309277721	1476309277862	NA	84
314930	3389309	However, he's still expected to start in the 49ers next game on Oct.	However, he's still expected to start in the 49ers next game on Oct.	161034739	1476309277827	1476309277923	NA	190
314930	3389329	I would assume this week sometime.	I would assume this week sometime,	161034893	1476309275254	1476309280729	NA	65
314930	3389329	I would assume this week sometime.	I would assume this week sometime,	161034829	1476309279636	1476309279834	SHIFT	16
314930	3389329	I would assume this week sometime.	I would assume this week sometime,	161034832	1476309279775	1476309279907	NA	73
314930	3389329	I would assume this week sometime.	I would assume this week sometime,	161034836	1476309279832	1476309279991	NA	32
314930	3389329	I would assume this week sometime.	I would assume this week sometime,	161034989	1476309279957	1476309282242	NA	87
314930	3389329	I would assume this week sometime.	I would assume this week sometime,	161034842	1476309280061	1476309280201	NA	79
314930	3389329	I would assume this week sometime.	I would assume this week sometime,	161034871	1476309280172	1476309280275	NA	85
314930	3389329	I would assume this week sometime.	I would assume this week sometime,	161034879	1476309280295	1476309280444	NA	76
314930	3389329	I would assume this week sometime.	I would assume this week sometime,	161034885	1476309280365	1476309280510	NA	68
314930	3389329	I would assume this week sometime.	I would assume this week sometime,	161034888	1476309280477	1476309280636	NA	32
314930	3389329	I would assume this week sometime.	I would assume this week sometime,	161034899	1476309280810	1476309280899	NA	83
314930	3389329	I would assume this week sometime.	I would assume this week sometime,	161034923	1476309280926	1476309281039	NA	83
314930	3389329	I would assume this week sometime.	I would assume this week sometime,	161034928	1476309281010	1476309281095	NA	85
314930	3389329	I would assume this week sometime.	I would assume this week sometime,	161034930	1476309281230	1476309281375	NA	77
314930	3389329	I would assume this week sometime.	I would assume this week sometime,	161034934	1476309281304	1476309281459	NA	69
314930	3389329	I would assume this week sometime.	I would assume this week sometime,	161034936	1476309281532	1476309281622	NA	32
314930	3389329	I would assume this week sometime.	I would assume this week sometime,	161034951	1476309281597	1476309281721	NA	84
314930	3389329	I would assume this week sometime.	I would assume this week sometime,	161034956	1476309281719	1476309281850	NA	72
314930	3389329	I would assume this week sometime.	I would assume this week sometime,	161034961	1476309281812	1476309281935	NA	73
314930	3389329	I would assume this week sometime.	I would assume this week sometime,	161034964	1476309281882	1476309282013	NA	83
314930	3389329	I would assume this week sometime.	I would assume this week sometime,	161034970	1476309282023	1476309282191	NA	32
314930	3389329	I would assume this week sometime.	I would assume this week sometime,	161034992	1476309282318	1476309282402	NA	69
314930	3389329	I would assume this week sometime.	I would assume this week sometime,	161034996	1476309282472	1476309282552	NA	69
314930	3389329	I would assume this week sometime.	I would assume this week sometime,	161034999	1476309282519	1476309282613	NA	75
314930	3389329	I would assume this week sometime.	I would assume this week sometime,	161035003	1476309282673	1476309282764	NA	32
314930	3389329	I would assume this week sometime.	I would assume this week sometime,	161035048	1476309282761	1476309282890	NA	83
314930	3389329	I would assume this week sometime.	I would assume this week sometime,	161035051	1476309282850	1476309282935	NA	79
314930	3389329	I would assume this week sometime.	I would assume this week sometime,	161035057	1476309282987	1476309283104	NA	77
314930	3389329	I would assume this week sometime.	I would assume this week sometime,	161035062	1476309283061	1476309283178	NA	69
314930	3389329	I would assume this week sometime.	I would assume this week sometime,	161035064	1476309283331	1476309283449	NA	84
314930	3389329	I would assume this week sometime.	I would assume this week sometime,	161035067	1476309283539	1476309283637	NA	73
314930	3389329	I would assume this week sometime.	I would assume this week sometime,	161035090	1476309283703	1476309283812	NA	77
314930	3389329	I would assume this week sometime.	I would assume this week sometime,	161035093	1476309283755	1476309283854	NA	69
314930	3389329	I would assume this week sometime.	I would assume this week sometime,	161035096	1476309283949	1476309284052	NA	83
314930	3389329	I would assume this week sometime.	I would assume this week sometime,	161035101	1476309284014	1476309284113	NA	190
314930	3389329	I would assume this week sometime.	I would assume this week sometime,	161035105	1476309284345	1476309284424		8
314930	3389329	I would assume this week sometime.	I would assume this week sometime,	161035176	1476309284456	1476309284537		8
314930	3389329	I would assume this week sometime.	I would assume this week sometime,	161035179	1476309284662	1476309284714	NA	188
314930	3389329	I would assume this week sometime.	I would assume this week sometime,	161035183	1476309285439	1476309285505		8
314930	3389329	I would assume this week sometime.	I would assume this week sometime,	161035186	1476309285635	1476309285729	NA	188
314930	3389337	All our demographics indicate that is a family audience.	All our demographics indicate that is a family audience.	161035297	1476309287606	1476309287803	SHIFT	16
314930	3389337	All our demographics indicate that is a family audience.	All our demographics indicate that is a family audience.	161035496	1476309287778	1476309290566	NA	65
314930	3389337	All our demographics indicate that is a family audience.	All our demographics indicate that is a family audience.	161035302	1476309287876	1476309287961	NA	76
314930	3389337	All our demographics indicate that is a family audience.	All our demographics indicate that is a family audience.	161035306	1476309288006	1476309288091	NA	76
314930	3389337	All our demographics indicate that is a family audience.	All our demographics indicate that is a family audience.	161035311	1476309288094	1476309288254	NA	32
314930	3389337	All our demographics indicate that is a family audience.	All our demographics indicate that is a family audience.	161035481	1476309288248	1476309288403	NA	79
314930	3389337	All our demographics indicate that is a family audience.	All our demographics indicate that is a family audience.	161035486	1476309288384	1476309288487	NA	85
314930	3389337	All our demographics indicate that is a family audience.	All our demographics indicate that is a family audience.	161035492	1476309288578	1476309288733	NA	32
314930	3389337	All our demographics indicate that is a family audience.	All our demographics indicate that is a family audience.	161035500	1476309288657	1476309288817	NA	82
314930	3389337	All our demographics indicate that is a family audience.	All our demographics indicate that is a family audience.	161035508	1476309288974	1476309289012		8
314930	3389337	All our demographics indicate that is a family audience.	All our demographics indicate that is a family audience.	161035516	1476309289096	1476309289188		8
314930	3389337	All our demographics indicate that is a family audience.	All our demographics indicate that is a family audience.	161035483	1476309289171	1476309289298	NA	82
314930	3389337	All our demographics indicate that is a family audience.	All our demographics indicate that is a family audience.	161035490	1476309289269	1476309289405	NA	32
314930	3389337	All our demographics indicate that is a family audience.	All our demographics indicate that is a family audience.	161035495	1476309289453	1476309289583	NA	68
314930	3389337	All our demographics indicate that is a family audience.	All our demographics indicate that is a family audience.	161035502	1476309289660	1476309289750	NA	69
314930	3389337	All our demographics indicate that is a family audience.	All our demographics indicate that is a family audience.	161035506	1476309289782	1476309289875	NA	77
314930	3389337	All our demographics indicate that is a family audience.	All our demographics indicate that is a family audience.	161035510	1476309289934	1476309290038	NA	79
314930	3389337	All our demographics indicate that is a family audience.	All our demographics indicate that is a family audience.	161035484	1476309290118	1476309290217	NA	71
314930	3389337	All our demographics indicate that is a family audience.	All our demographics indicate that is a family audience.	161035489	1476309290202	1476309290311	NA	82
314930	3389337	All our demographics indicate that is a family audience.	All our demographics indicate that is a family audience.	161035623	1476309290421	1476309292992	NA	65
314930	3389337	All our demographics indicate that is a family audience.	All our demographics indicate that is a family audience.	161035503	1476309290784	1476309290915	NA	80
314930	3389337	All our demographics indicate that is a family audience.	All our demographics indicate that is a family audience.	161035511	1476309290969	1476309291058	NA	72
314930	3389337	All our demographics indicate that is a family audience.	All our demographics indicate that is a family audience.	161035548	1476309291123	1476309291222	NA	73
314930	3389337	All our demographics indicate that is a family audience.	All our demographics indicate that is a family audience.	161035550	1476309291328	1476309291436	NA	67
314930	3389337	All our demographics indicate that is a family audience.	All our demographics indicate that is a family audience.	161035553	1476309291575	1476309291697	NA	83
314930	3389337	All our demographics indicate that is a family audience.	All our demographics indicate that is a family audience.	161035555	1476309291687	1476309291786	NA	32
314930	3389337	All our demographics indicate that is a family audience.	All our demographics indicate that is a family audience.	161035557	1476309291890	1476309291965	NA	73
314930	3389337	All our demographics indicate that is a family audience.	All our demographics indicate that is a family audience.	161035608	1476309292014	1476309292103	NA	78
314930	3389337	All our demographics indicate that is a family audience.	All our demographics indicate that is a family audience.	161035611	1476309292112	1476309292220	NA	68
314930	3389337	All our demographics indicate that is a family audience.	All our demographics indicate that is a family audience.	161035614	1476309292497	1476309292596	NA	73
314930	3389337	All our demographics indicate that is a family audience.	All our demographics indicate that is a family audience.	161035619	1476309292659	1476309292763	NA	67
314930	3389337	All our demographics indicate that is a family audience.	All our demographics indicate that is a family audience.	161035668	1476309292894	1476309293704	NA	65
314930	3389337	All our demographics indicate that is a family audience.	All our demographics indicate that is a family audience.	161035650	1476309292983	1476309293082	NA	84
314930	3389337	All our demographics indicate that is a family audience.	All our demographics indicate that is a family audience.	161035653	1476309293118	1476309293217	NA	69
314930	3389337	All our demographics indicate that is a family audience.	All our demographics indicate that is a family audience.	161035658	1476309293226	1476309293324	NA	32
314930	3389337	All our demographics indicate that is a family audience.	All our demographics indicate that is a family audience.	161035660	1476309293328	1476309293432	NA	84
314930	3389337	All our demographics indicate that is a family audience.	All our demographics indicate that is a family audience.	161035664	1476309293440	1476309293548	NA	72
314930	3389337	All our demographics indicate that is a family audience.	All our demographics indicate that is a family audience.	161035729	1476309293562	1476309294380	NA	65
314930	3389337	All our demographics indicate that is a family audience.	All our demographics indicate that is a family audience.	161035703	1476309293656	1476309293750	NA	84
314930	3389337	All our demographics indicate that is a family audience.	All our demographics indicate that is a family audience.	161035707	1476309293791	1476309293912	NA	32
314930	3389337	All our demographics indicate that is a family audience.	All our demographics indicate that is a family audience.	161035714	1476309293898	1476309294011	NA	73
314930	3389337	All our demographics indicate that is a family audience.	All our demographics indicate that is a family audience.	161035720	1476309293968	1476309294104	NA	83
314930	3389337	All our demographics indicate that is a family audience.	All our demographics indicate that is a family audience.	161035725	1476309294123	1476309294246	NA	32
314930	3389337	All our demographics indicate that is a family audience.	All our demographics indicate that is a family audience.	161035755	1476309294281	1476309294978	NA	65
314930	3389337	All our demographics indicate that is a family audience.	All our demographics indicate that is a family audience.	161035748	1476309294444	1476309294538	NA	32
314930	3389337	All our demographics indicate that is a family audience.	All our demographics indicate that is a family audience.	161035751	1476309294637	1476309294721	NA	70
314930	3389337	All our demographics indicate that is a family audience.	All our demographics indicate that is a family audience.	161035839	1476309294856	1476309295875	NA	65
314930	3389337	All our demographics indicate that is a family audience.	All our demographics indicate that is a family audience.	161035760	1476309294922	1476309295094	NA	77
314930	3389337	All our demographics indicate that is a family audience.	All our demographics indicate that is a family audience.	161035816	1476309295047	1476309295174	NA	73
314930	3389337	All our demographics indicate that is a family audience.	All our demographics indicate that is a family audience.	161035819	1476309295269	1476309295391	NA	76
314930	3389337	All our demographics indicate that is a family audience.	All our demographics indicate that is a family audience.	161035829	1476309295476	1476309295574	NA	89
314930	3389337	All our demographics indicate that is a family audience.	All our demographics indicate that is a family audience.	161035835	1476309295551	1476309295705	NA	32
314930	3389337	All our demographics indicate that is a family audience.	All our demographics indicate that is a family audience.	161035843	1476309295953	1476309296057	NA	85
314930	3389337	All our demographics indicate that is a family audience.	All our demographics indicate that is a family audience.	161035881	1476309296108	1476309296272	NA	68
314930	3389337	All our demographics indicate that is a family audience.	All our demographics indicate that is a family audience.	161035882	1476309296295	1476309296394	NA	73
314930	3389337	All our demographics indicate that is a family audience.	All our demographics indicate that is a family audience.	161035883	1476309296516	1476309296610	NA	69
314930	3389337	All our demographics indicate that is a family audience.	All our demographics indicate that is a family audience.	161035884	1476309296649	1476309296729	NA	78
314930	3389337	All our demographics indicate that is a family audience.	All our demographics indicate that is a family audience.	161035885	1476309296799	1476309296903	NA	67
314930	3389337	All our demographics indicate that is a family audience.	All our demographics indicate that is a family audience.	161035905	1476309296979	1476309297094	NA	69
314930	3389337	All our demographics indicate that is a family audience.	All our demographics indicate that is a family audience.	161035908	1476309297091	1476309297186	NA	190
314930	3389348	We shall try to find a common agenda.	We shall try to find a common agenda.	161036082	1476309295772	1476309300046	NA	65
314930	3389348	We shall try to find a common agenda.	We shall try to find a common agenda.	161036027	1476309299024	1476309299201	SHIFT	16
314930	3389348	We shall try to find a common agenda.	We shall try to find a common agenda.	161036428	1476309299134	1476309306659	NA	87
314930	3389348	We shall try to find a common agenda.	We shall try to find a common agenda.	161036034	1476309299300	1476309299389	NA	69
314930	3389348	We shall try to find a common agenda.	We shall try to find a common agenda.	161036039	1476309299518	1476309299612	NA	32
314930	3389348	We shall try to find a common agenda.	We shall try to find a common agenda.	161036042	1476309299693	1476309299801	NA	83
314930	3389348	We shall try to find a common agenda.	We shall try to find a common agenda.	161036046	1476309299827	1476309299912	NA	72
314930	3389348	We shall try to find a common agenda.	We shall try to find a common agenda.	161036199	1476309299938	1476309302402	NA	65
314930	3389348	We shall try to find a common agenda.	We shall try to find a common agenda.	161036086	1476309300027	1476309300121	NA	76
314930	3389348	We shall try to find a common agenda.	We shall try to find a common agenda.	161036090	1476309300153	1476309300252	NA	76
314930	3389348	We shall try to find a common agenda.	We shall try to find a common agenda.	161036094	1476309300229	1476309300374	NA	32
314930	3389348	We shall try to find a common agenda.	We shall try to find a common agenda.	161036098	1476309300399	1476309300605	NA	84
314930	3389348	We shall try to find a common agenda.	We shall try to find a common agenda.	161036122	1476309300865	1476309300992		8
314930	3389348	We shall try to find a common agenda.	We shall try to find a common agenda.	161036125	1476309300903	1476309301030	NA	82
314930	3389348	We shall try to find a common agenda.	We shall try to find a common agenda.	161036128	1476309301070	1476309301178	NA	89
314930	3389348	We shall try to find a common agenda.	We shall try to find a common agenda.	161036133	1476309301187	1476309301309	NA	32
314930	3389348	We shall try to find a common agenda.	We shall try to find a common agenda.	161036136	1476309301408	1476309301498		8
314930	3389348	We shall try to find a common agenda.	We shall try to find a common agenda.	161036144	1476309301532	1476309301617		8
314930	3389348	We shall try to find a common agenda.	We shall try to find a common agenda.	161036147	1476309301633	1476309301717		8
314930	3389348	We shall try to find a common agenda.	We shall try to find a common agenda.	161036150	1476309301721	1476309301810	NA	84
314930	3389348	We shall try to find a common agenda.	We shall try to find a common agenda.	161036155	1476309301864	1476309301967	NA	82
314930	3389348	We shall try to find a common agenda.	We shall try to find a common agenda.	161036194	1476309301934	1476309302033	NA	89
314930	3389348	We shall try to find a common agenda.	We shall try to find a common agenda.	161036196	1476309302098	1476309302262	NA	32
314930	3389348	We shall try to find a common agenda.	We shall try to find a common agenda.	161036361	1476309302285	1476309305377	NA	65
314930	3389348	We shall try to find a common agenda.	We shall try to find a common agenda.	161036203	1476309302718	1476309302803		8
314930	3389348	We shall try to find a common agenda.	We shall try to find a common agenda.	161036206	1476309302755	1476309302905	NA	84
314930	3389348	We shall try to find a common agenda.	We shall try to find a common agenda.	161036209	1476309302980	1476309303097	NA	32
314930	3389348	We shall try to find a common agenda.	We shall try to find a common agenda.	161036245	1476309303421	1476309303501		8
314930	3389348	We shall try to find a common agenda.	We shall try to find a common agenda.	161036248	1476309303536	1476309303643		8
314930	3389348	We shall try to find a common agenda.	We shall try to find a common agenda.	161036254	1476309303665	1476309303763	NA	79
314930	3389348	We shall try to find a common agenda.	We shall try to find a common agenda.	161036260	1476309303739	1476309303898	NA	32
314930	3389348	We shall try to find a common agenda.	We shall try to find a common agenda.	161036304	1476309303851	1476309303963	NA	68
314930	3389348	We shall try to find a common agenda.	We shall try to find a common agenda.	161036307	1476309303953	1476309304043	NA	73
314930	3389348	We shall try to find a common agenda.	We shall try to find a common agenda.	161036311	1476309304136	1476309304225	NA	78
314930	3389348	We shall try to find a common agenda.	We shall try to find a common agenda.	161036313	1476309304379	1476309304454		8
314930	3389348	We shall try to find a common agenda.	We shall try to find a common agenda.	161036314	1476309304495	1476309304575		8
314930	3389348	We shall try to find a common agenda.	We shall try to find a common agenda.	161036315	1476309304606	1476309304681		8
314930	3389348	We shall try to find a common agenda.	We shall try to find a common agenda.	161036343	1476309304671	1476309304784	NA	70
314930	3389348	We shall try to find a common agenda.	We shall try to find a common agenda.	161036346	1476309304805	1476309304895	NA	73
314930	3389348	We shall try to find a common agenda.	We shall try to find a common agenda.	161036350	1476309304943	1476309305029	NA	78
314930	3389348	We shall try to find a common agenda.	We shall try to find a common agenda.	161036354	1476309305027	1476309305144	NA	68
314930	3389348	We shall try to find a common agenda.	We shall try to find a common agenda.	161036358	1476309305125	1476309305215	NA	32
314930	3389348	We shall try to find a common agenda.	We shall try to find a common agenda.	161036464	1476309305283	1476309307068	NA	65
314930	3389348	We shall try to find a common agenda.	We shall try to find a common agenda.	161036391	1476309305339	1476309305437	NA	32
314930	3389348	We shall try to find a common agenda.	We shall try to find a common agenda.	161036393	1476309305535	1476309305676	NA	67
314930	3389348	We shall try to find a common agenda.	We shall try to find a common agenda.	161036396	1476309305651	1476309305695	NA	79
314930	3389348	We shall try to find a common agenda.	We shall try to find a common agenda.	161036399	1476309305918	1476309306002	NA	77
314930	3389348	We shall try to find a common agenda.	We shall try to find a common agenda.	161036402	1476309306041	1476309306121	NA	77
314930	3389348	We shall try to find a common agenda.	We shall try to find a common agenda.	161036405	1476309306212	1476309306292	NA	79
314930	3389348	We shall try to find a common agenda.	We shall try to find a common agenda.	161036419	1476309306347	1476309306413	NA	78
314930	3389348	We shall try to find a common agenda.	We shall try to find a common agenda.	161036423	1476309306460	1476309306569	NA	32
314930	3389348	We shall try to find a common agenda.	We shall try to find a common agenda.	161036433	1476309306866	1476309306970		8
314930	3389348	We shall try to find a common agenda.	We shall try to find a common agenda.	161036473	1476309306956	1476309307730	NA	65
314930	3389348	We shall try to find a common agenda.	We shall try to find a common agenda.	161036465	1476309307080	1476309307175	NA	71
314930	3389348	We shall try to find a common agenda.	We shall try to find a common agenda.	161036467	1476309307188	1476309307282	NA	69
314930	3389348	We shall try to find a common agenda.	We shall try to find a common agenda.	161036469	1476309307330	1476309307424	NA	78
314930	3389348	We shall try to find a common agenda.	We shall try to find a common agenda.	161036471	1476309307455	1476309307536	NA	68
314930	3389348	We shall try to find a common agenda.	We shall try to find a common agenda.	161036479	1476309307733	1476309307828	NA	190
