PARTICIPANT_ID	TEST_SECTION_ID	SENTENCE	USER_INPUT	KEYSTROKE_ID	PRESS_TIME	RELEASE_TIME	LETTER	KEYCODE
32252	346303	We'll tell you who has the edge.	We'll tell you who has the edge.	16451850	1472320687381	1472320687614	SHIFT	16
32252	346303	We'll tell you who has the edge.	We'll tell you who has the edge.	16451851	1472320687495	1472320687661	W	87
32252	346303	We'll tell you who has the edge.	We'll tell you who has the edge.	16451852	1472320687761	1472320687838	e	69
32252	346303	We'll tell you who has the edge.	We'll tell you who has the edge.	16451854	1472320687930	1472320688030	'	222
32252	346303	We'll tell you who has the edge.	We'll tell you who has the edge.	16451856	1472320688193	1472320688251	l	76
32252	346303	We'll tell you who has the edge.	We'll tell you who has the edge.	16451858	1472320688330	1472320688389	l	76
32252	346303	We'll tell you who has the edge.	We'll tell you who has the edge.	16451868	1472320688415	1472320688477	 	32
32252	346303	We'll tell you who has the edge.	We'll tell you who has the edge.	16451869	1472320688530	1472320688617	t	84
32252	346303	We'll tell you who has the edge.	We'll tell you who has the edge.	16451870	1472320688612	1472320688682	e	69
32252	346303	We'll tell you who has the edge.	We'll tell you who has the edge.	16451871	1472320688698	1472320688770	l	76
32252	346303	We'll tell you who has the edge.	We'll tell you who has the edge.	16451872	1472320688830	1472320688891	l	76
32252	346303	We'll tell you who has the edge.	We'll tell you who has the edge.	16451873	1472320688891	1472320688943	 	32
32252	346303	We'll tell you who has the edge.	We'll tell you who has the edge.	16451874	1472320689028	1472320689114	y	89
32252	346303	We'll tell you who has the edge.	We'll tell you who has the edge.	16451875	1472320689114	1472320689248	o	79
32252	346303	We'll tell you who has the edge.	We'll tell you who has the edge.	16451876	1472320689216	1472320689304	u	85
32252	346303	We'll tell you who has the edge.	We'll tell you who has the edge.	16451893	1472320689287	1472320689349	 	32
32252	346303	We'll tell you who has the edge.	We'll tell you who has the edge.	16451895	1472320689427	1472320689514	w	87
32252	346303	We'll tell you who has the edge.	We'll tell you who has the edge.	16451897	1472320689660	1472320689785	h	72
32252	346303	We'll tell you who has the edge.	We'll tell you who has the edge.	16451899	1472320689748	1472320689835	o	79
32252	346303	We'll tell you who has the edge.	We'll tell you who has the edge.	16451902	1472320689851	1472320689905	 	32
32252	346303	We'll tell you who has the edge.	We'll tell you who has the edge.	16451905	1472320690233	1472320690311	h	72
32252	346303	We'll tell you who has the edge.	We'll tell you who has the edge.	16451911	1472320690271	1472320690401	a	65
32252	346303	We'll tell you who has the edge.	We'll tell you who has the edge.	16451912	1472320690322	1472320690436	s	83
32252	346303	We'll tell you who has the edge.	We'll tell you who has the edge.	16451913	1472320690389	1472320690465	 	32
32252	346303	We'll tell you who has the edge.	We'll tell you who has the edge.	16451914	1472320690517	1472320690617	t	84
32252	346303	We'll tell you who has the edge.	We'll tell you who has the edge.	16451915	1472320690583	1472320690702	h	72
32252	346303	We'll tell you who has the edge.	We'll tell you who has the edge.	16451916	1472320690633	1472320690727	e	69
32252	346303	We'll tell you who has the edge.	We'll tell you who has the edge.	16451918	1472320690713	1472320690782	 	32
32252	346303	We'll tell you who has the edge.	We'll tell you who has the edge.	16451921	1472320690867	1472320690938	e	69
32252	346303	We'll tell you who has the edge.	We'll tell you who has the edge.	16451924	1472320691033	1472320691099	d	68
32252	346303	We'll tell you who has the edge.	We'll tell you who has the edge.	16451929	1472320691202	1472320691343	g	71
32252	346303	We'll tell you who has the edge.	We'll tell you who has the edge.	16451964	1472320691318	1472320691386	e	69
32252	346303	We'll tell you who has the edge.	We'll tell you who has the edge.	16451966	1472320691469	1472320691487	ALT	18
32252	346307	I will need to have my memory refreshed.	I will need to have my memory refresed. 	16452029	1472320697654	1472320697937	SHIFT	16
32252	346307	I will need to have my memory refreshed.	I will need to have my memory refresed. 	16452028	1472320697830	1472320697913	I	73
32252	346307	I will need to have my memory refreshed.	I will need to have my memory refresed. 	16452030	1472320697930	1472320697982	 	32
32252	346307	I will need to have my memory refreshed.	I will need to have my memory refresed. 	16452031	1472320698013	1472320698088	w	87
32252	346307	I will need to have my memory refreshed.	I will need to have my memory refresed. 	16452032	1472320698088	1472320698149	i	73
32252	346307	I will need to have my memory refreshed.	I will need to have my memory refresed. 	16452033	1472320698211	1472320698266	l	76
32252	346307	I will need to have my memory refreshed.	I will need to have my memory refresed. 	16452039	1472320698344	1472320698404	l	76
32252	346307	I will need to have my memory refreshed.	I will need to have my memory refresed. 	16452040	1472320698440	1472320698503	 	32
32252	346307	I will need to have my memory refreshed.	I will need to have my memory refresed. 	16452042	1472320698560	1472320698616	n	78
32252	346307	I will need to have my memory refreshed.	I will need to have my memory refresed. 	16452045	1472320698636	1472320698687	e	69
32252	346307	I will need to have my memory refreshed.	I will need to have my memory refresed. 	16452048	1472320698775	1472320698832	e	69
32252	346307	I will need to have my memory refreshed.	I will need to have my memory refresed. 	16452050	1472320698922	1472320698992	d	68
32252	346307	I will need to have my memory refreshed.	I will need to have my memory refresed. 	16452051	1472320698988	1472320699060	 	32
32252	346307	I will need to have my memory refreshed.	I will need to have my memory refresed. 	16452052	1472320699143	1472320699212	t	84
32252	346307	I will need to have my memory refreshed.	I will need to have my memory refresed. 	16452053	1472320699197	1472320699265	o	79
32252	346307	I will need to have my memory refreshed.	I will need to have my memory refresed. 	16452054	1472320699265	1472320699322	 	32
32252	346307	I will need to have my memory refreshed.	I will need to have my memory refresed. 	16452060	1472320699414	1472320699504	h	72
32252	346307	I will need to have my memory refreshed.	I will need to have my memory refresed. 	16452062	1472320699472	1472320699569	a	65
32252	346307	I will need to have my memory refreshed.	I will need to have my memory refresed. 	16452065	1472320699569	1472320699688	v	86
32252	346307	I will need to have my memory refreshed.	I will need to have my memory refresed. 	16452067	1472320699654	1472320699759	e	69
32252	346307	I will need to have my memory refreshed.	I will need to have my memory refresed. 	16452069	1472320699732	1472320699782	 	32
32252	346307	I will need to have my memory refreshed.	I will need to have my memory refresed. 	16452070	1472320699846	1472320699914	m	77
32252	346307	I will need to have my memory refreshed.	I will need to have my memory refresed. 	16452071	1472320700030	1472320700087	y	89
32252	346307	I will need to have my memory refreshed.	I will need to have my memory refresed. 	16452072	1472320700114	1472320700181	 	32
32252	346307	I will need to have my memory refreshed.	I will need to have my memory refresed. 	16452073	1472320700264	1472320700360	m	77
32252	346307	I will need to have my memory refreshed.	I will need to have my memory refresed. 	16452074	1472320700347	1472320700415	e	69
32252	346307	I will need to have my memory refreshed.	I will need to have my memory refresed. 	16452075	1472320700462	1472320700586	m	77
32252	346307	I will need to have my memory refreshed.	I will need to have my memory refresed. 	16452076	1472320700531	1472320700630	o	79
32252	346307	I will need to have my memory refreshed.	I will need to have my memory refresed. 	16452077	1472320700646	1472320700715	r	82
32252	346307	I will need to have my memory refreshed.	I will need to have my memory refresed. 	16452078	1472320700830	1472320700930	y	89
32252	346307	I will need to have my memory refreshed.	I will need to have my memory refresed. 	16452079	1472320700946	1472320701015	 	32
32252	346307	I will need to have my memory refreshed.	I will need to have my memory refresed. 	16452087	1472320701230	1472320701318	r	82
32252	346307	I will need to have my memory refreshed.	I will need to have my memory refresed. 	16452089	1472320701287	1472320701353	e	69
32252	346307	I will need to have my memory refreshed.	I will need to have my memory refresed. 	16452091	1472320701446	1472320701531	f	70
32252	346307	I will need to have my memory refreshed.	I will need to have my memory refresed. 	16452094	1472320701624	1472320701713	r	82
32252	346307	I will need to have my memory refreshed.	I will need to have my memory refresed. 	16452102	1472320701688	1472320701800	e	69
32252	346307	I will need to have my memory refreshed.	I will need to have my memory refresed. 	16452103	1472320701800	1472320701902	s	83
32252	346307	I will need to have my memory refreshed.	I will need to have my memory refresed. 	16452104	1472320701917	1472320701973	e	69
32252	346307	I will need to have my memory refreshed.	I will need to have my memory refresed. 	16452105	1472320702136	1472320702218	d	68
32252	346307	I will need to have my memory refreshed.	I will need to have my memory refresed. 	16452108	1472320702336	1472320702405	 	32
32252	346311	Boy, I couldn't write too much on this thing!	BOy, I couldn't write too much on this thing!	16452220	1472320707818	1472320708037	SHIFT	16
32252	346311	Boy, I couldn't write too much on this thing!	BOy, I couldn't write too much on this thing!	16452223	1472320707933	1472320708037	B	66
32252	346311	Boy, I couldn't write too much on this thing!	BOy, I couldn't write too much on this thing!	16452226	1472320707983	1472320708109	O	79
32252	346311	Boy, I couldn't write too much on this thing!	BOy, I couldn't write too much on this thing!	16452228	1472320708084	1472320708154	y	89
32252	346311	Boy, I couldn't write too much on this thing!	BOy, I couldn't write too much on this thing!	16452230	1472320708279	1472320708348	,	188
32252	346311	Boy, I couldn't write too much on this thing!	BOy, I couldn't write too much on this thing!	16452232	1472320708348	1472320708404	 	32
32252	346311	Boy, I couldn't write too much on this thing!	BOy, I couldn't write too much on this thing!	16452239	1472320708535	1472320708721	SHIFT	16
32252	346311	Boy, I couldn't write too much on this thing!	BOy, I couldn't write too much on this thing!	16452238	1472320708625	1472320708707	I	73
32252	346311	Boy, I couldn't write too much on this thing!	BOy, I couldn't write too much on this thing!	16452240	1472320708698	1472320708756	 	32
32252	346311	Boy, I couldn't write too much on this thing!	BOy, I couldn't write too much on this thing!	16452241	1472320708965	1472320709051	c	67
32252	346311	Boy, I couldn't write too much on this thing!	BOy, I couldn't write too much on this thing!	16452242	1472320709001	1472320709081	o	79
32252	346311	Boy, I couldn't write too much on this thing!	BOy, I couldn't write too much on this thing!	16452257	1472320709076	1472320709163	u	85
32252	346311	Boy, I couldn't write too much on this thing!	BOy, I couldn't write too much on this thing!	16452259	1472320709181	1472320709286	l	76
32252	346311	Boy, I couldn't write too much on this thing!	BOy, I couldn't write too much on this thing!	16452261	1472320709263	1472320709347	d	68
32252	346311	Boy, I couldn't write too much on this thing!	BOy, I couldn't write too much on this thing!	16452263	1472320709565	1472320709653	n	78
32252	346311	Boy, I couldn't write too much on this thing!	BOy, I couldn't write too much on this thing!	16452265	1472320709974	1472320710068	'	222
32252	346311	Boy, I couldn't write too much on this thing!	BOy, I couldn't write too much on this thing!	16452266	1472320710210	1472320710281	t	84
32252	346311	Boy, I couldn't write too much on this thing!	BOy, I couldn't write too much on this thing!	16452284	1472320710292	1472320710354	 	32
32252	346311	Boy, I couldn't write too much on this thing!	BOy, I couldn't write too much on this thing!	16452286	1472320710440	1472320710479	r	82
32252	346311	Boy, I couldn't write too much on this thing!	BOy, I couldn't write too much on this thing!	16452288	1472320710790	1472320710865	BKSP	8
32252	346311	Boy, I couldn't write too much on this thing!	BOy, I couldn't write too much on this thing!	16452290	1472320710853	1472320710940	w	87
32252	346311	Boy, I couldn't write too much on this thing!	BOy, I couldn't write too much on this thing!	16452292	1472320710935	1472320711003	r	82
32252	346311	Boy, I couldn't write too much on this thing!	BOy, I couldn't write too much on this thing!	16452294	1472320711019	1472320711105	i	73
32252	346311	Boy, I couldn't write too much on this thing!	BOy, I couldn't write too much on this thing!	16452296	1472320711117	1472320711236	t	84
32252	346311	Boy, I couldn't write too much on this thing!	BOy, I couldn't write too much on this thing!	16452298	1472320711206	1472320711306	e	69
32252	346311	Boy, I couldn't write too much on this thing!	BOy, I couldn't write too much on this thing!	16452300	1472320711251	1472320711321	 	32
32252	346311	Boy, I couldn't write too much on this thing!	BOy, I couldn't write too much on this thing!	16452301	1472320711406	1472320711492	t	84
32252	346311	Boy, I couldn't write too much on this thing!	BOy, I couldn't write too much on this thing!	16452303	1472320711453	1472320711515	o	79
32252	346311	Boy, I couldn't write too much on this thing!	BOy, I couldn't write too much on this thing!	16452305	1472320711590	1472320711674	o	79
32252	346311	Boy, I couldn't write too much on this thing!	BOy, I couldn't write too much on this thing!	16452307	1472320711674	1472320711728	 	32
32252	346311	Boy, I couldn't write too much on this thing!	BOy, I couldn't write too much on this thing!	16452309	1472320711758	1472320711835	m	77
32252	346311	Boy, I couldn't write too much on this thing!	BOy, I couldn't write too much on this thing!	16452311	1472320711953	1472320712018	u	85
32252	346311	Boy, I couldn't write too much on this thing!	BOy, I couldn't write too much on this thing!	16452313	1472320712075	1472320712174	c	67
32252	346311	Boy, I couldn't write too much on this thing!	BOy, I couldn't write too much on this thing!	16452318	1472320712133	1472320712216	h	72
32252	346311	Boy, I couldn't write too much on this thing!	BOy, I couldn't write too much on this thing!	16452319	1472320712216	1472320712287	 	32
32252	346311	Boy, I couldn't write too much on this thing!	BOy, I couldn't write too much on this thing!	16452321	1472320712422	1472320712554	o	79
32252	346311	Boy, I couldn't write too much on this thing!	BOy, I couldn't write too much on this thing!	16452323	1472320712535	1472320712604	n	78
32252	346311	Boy, I couldn't write too much on this thing!	BOy, I couldn't write too much on this thing!	16452325	1472320712588	1472320712653	 	32
32252	346311	Boy, I couldn't write too much on this thing!	BOy, I couldn't write too much on this thing!	16452328	1472320712707	1472320712803	t	84
32252	346311	Boy, I couldn't write too much on this thing!	BOy, I couldn't write too much on this thing!	16452334	1472320712741	1472320712876	h	72
32252	346311	Boy, I couldn't write too much on this thing!	BOy, I couldn't write too much on this thing!	16452335	1472320712834	1472320712971	i	73
32252	346311	Boy, I couldn't write too much on this thing!	BOy, I couldn't write too much on this thing!	16452336	1472320712903	1472320713015	s	83
32252	346311	Boy, I couldn't write too much on this thing!	BOy, I couldn't write too much on this thing!	16452337	1472320712976	1472320713053	 	32
32252	346311	Boy, I couldn't write too much on this thing!	BOy, I couldn't write too much on this thing!	16452338	1472320713172	1472320713238	t	84
32252	346311	Boy, I couldn't write too much on this thing!	BOy, I couldn't write too much on this thing!	16452346	1472320713221	1472320713316	h	72
32252	346311	Boy, I couldn't write too much on this thing!	BOy, I couldn't write too much on this thing!	16452348	1472320713282	1472320713461	i	73
32252	346311	Boy, I couldn't write too much on this thing!	BOy, I couldn't write too much on this thing!	16452350	1472320713397	1472320713486	n	78
32252	346311	Boy, I couldn't write too much on this thing!	BOy, I couldn't write too much on this thing!	16452352	1472320713441	1472320713503	g	71
32252	346311	Boy, I couldn't write too much on this thing!	BOy, I couldn't write too much on this thing!	16452356	1472320713624	1472320713809	SHIFT	16
32252	346311	Boy, I couldn't write too much on this thing!	BOy, I couldn't write too much on this thing!	16452354	1472320713704	1472320713778	!	49
32252	346315	Best of luck and stay in touch.	Best of luck and stay in touch. 	16452368	1472320716289	1472320716552	SHIFT	16
32252	346315	Best of luck and stay in touch.	Best of luck and stay in touch. 	16452370	1472320716471	1472320716552	B	66
32252	346315	Best of luck and stay in touch.	Best of luck and stay in touch. 	16452372	1472320716633	1472320716765	e	69
32252	346315	Best of luck and stay in touch.	Best of luck and stay in touch. 	16452374	1472320716736	1472320716788	s	83
32252	346315	Best of luck and stay in touch.	Best of luck and stay in touch. 	16452377	1472320716804	1472320716875	t	84
32252	346315	Best of luck and stay in touch.	Best of luck and stay in touch. 	16452390	1472320716849	1472320716945	 	32
32252	346315	Best of luck and stay in touch.	Best of luck and stay in touch. 	16452391	1472320716971	1472320717066	o	79
32252	346315	Best of luck and stay in touch.	Best of luck and stay in touch. 	16452392	1472320717066	1472320717150	f	70
32252	346315	Best of luck and stay in touch.	Best of luck and stay in touch. 	16452393	1472320717115	1472320717171	 	32
32252	346315	Best of luck and stay in touch.	Best of luck and stay in touch. 	16452394	1472320717205	1472320717271	l	76
32252	346315	Best of luck and stay in touch.	Best of luck and stay in touch. 	16452395	1472320717334	1472320717398	u	85
32252	346315	Best of luck and stay in touch.	Best of luck and stay in touch. 	16452396	1472320717467	1472320717536	c	67
32252	346315	Best of luck and stay in touch.	Best of luck and stay in touch. 	16452397	1472320717571	1472320717702	k	75
32252	346315	Best of luck and stay in touch.	Best of luck and stay in touch. 	16452398	1472320717702	1472320717787	 	32
32252	346315	Best of luck and stay in touch.	Best of luck and stay in touch. 	16452399	1472320717887	1472320717992	a	65
32252	346315	Best of luck and stay in touch.	Best of luck and stay in touch. 	16452406	1472320717954	1472320718042	n	78
32252	346315	Best of luck and stay in touch.	Best of luck and stay in touch. 	16452408	1472320718019	1472320718148	d	68
32252	346315	Best of luck and stay in touch.	Best of luck and stay in touch. 	16452410	1472320718119	1472320718189	 	32
32252	346315	Best of luck and stay in touch.	Best of luck and stay in touch. 	16452412	1472320718248	1472320718345	s	83
32252	346315	Best of luck and stay in touch.	Best of luck and stay in touch. 	16452413	1472320718364	1472320718447	t	84
32252	346315	Best of luck and stay in touch.	Best of luck and stay in touch. 	16452414	1472320718447	1472320718534	a	65
32252	346315	Best of luck and stay in touch.	Best of luck and stay in touch. 	16452416	1472320718498	1472320718609	y	89
32252	346315	Best of luck and stay in touch.	Best of luck and stay in touch. 	16452418	1472320718588	1472320718653	 	32
32252	346315	Best of luck and stay in touch.	Best of luck and stay in touch. 	16452420	1472320718703	1472320718794	i	73
32252	346315	Best of luck and stay in touch.	Best of luck and stay in touch. 	16452422	1472320718772	1472320718872	n	78
32252	346315	Best of luck and stay in touch.	Best of luck and stay in touch. 	16452424	1472320718819	1472320718919	 	32
32252	346315	Best of luck and stay in touch.	Best of luck and stay in touch. 	16452425	1472320719070	1472320719153	t	84
32252	346315	Best of luck and stay in touch.	Best of luck and stay in touch. 	16452426	1472320719188	1472320719330	o	79
32252	346315	Best of luck and stay in touch.	Best of luck and stay in touch. 	16452428	1472320719288	1472320719388	u	85
32252	346315	Best of luck and stay in touch.	Best of luck and stay in touch. 	16452432	1472320719435	1472320719561	c	67
32252	346315	Best of luck and stay in touch.	Best of luck and stay in touch. 	16452434	1472320719611	1472320719697	h	72
32252	346315	Best of luck and stay in touch.	Best of luck and stay in touch. 	16452438	1472320719762	1472320719832	.	190
32252	346315	Best of luck and stay in touch.	Best of luck and stay in touch. 	16452448	1472320719847	1472320719914	 	32
32252	346315	Best of luck and stay in touch.	Best of luck and stay in touch. 	16452449	1472320719914	1472320719984	SHIFT	16
32252	346318	Perhaps there was a glitch.	Perhaps there was a glitch. 	16452516	1472320722462	1472320723336	SHIFT	16
32252	346318	Perhaps there was a glitch.	Perhaps there was a glitch. 	16452514	1472320723225	1472320723297	P	80
32252	346318	Perhaps there was a glitch.	Perhaps there was a glitch. 	16452518	1472320723452	1472320723552	e	69
32252	346318	Perhaps there was a glitch.	Perhaps there was a glitch. 	16452520	1472320724012	1472320724069	r	82
32252	346318	Perhaps there was a glitch.	Perhaps there was a glitch. 	16452522	1472320724306	1472320724413	h	72
32252	346318	Perhaps there was a glitch.	Perhaps there was a glitch. 	16452547	1472320724370	1472320724468	a	65
32252	346318	Perhaps there was a glitch.	Perhaps there was a glitch. 	16452549	1472320724468	1472320724559	p	80
32252	346318	Perhaps there was a glitch.	Perhaps there was a glitch. 	16452551	1472320724844	1472320724930	s	83
32252	346318	Perhaps there was a glitch.	Perhaps there was a glitch. 	16452552	1472320724946	1472320725003	 	32
32252	346318	Perhaps there was a glitch.	Perhaps there was a glitch. 	16452553	1472320725261	1472320725361	t	84
32252	346318	Perhaps there was a glitch.	Perhaps there was a glitch. 	16452554	1472320725392	1472320725506	h	72
32252	346318	Perhaps there was a glitch.	Perhaps there was a glitch. 	16452560	1472320725479	1472320725555	e	69
32252	346318	Perhaps there was a glitch.	Perhaps there was a glitch. 	16452561	1472320725531	1472320725676	r	82
32252	346318	Perhaps there was a glitch.	Perhaps there was a glitch. 	16452562	1472320725645	1472320725736	e	69
32252	346318	Perhaps there was a glitch.	Perhaps there was a glitch. 	16452563	1472320725696	1472320725764	 	32
32252	346318	Perhaps there was a glitch.	Perhaps there was a glitch. 	16452564	1472320725829	1472320725976	w	87
32252	346318	Perhaps there was a glitch.	Perhaps there was a glitch. 	16452576	1472320725945	1472320726102	a	65
32252	346318	Perhaps there was a glitch.	Perhaps there was a glitch. 	16452577	1472320726029	1472320726130	s	83
32252	346318	Perhaps there was a glitch.	Perhaps there was a glitch. 	16452578	1472320726145	1472320726203	 	32
32252	346318	Perhaps there was a glitch.	Perhaps there was a glitch. 	16452579	1472320726292	1472320726372	a	65
32252	346318	Perhaps there was a glitch.	Perhaps there was a glitch. 	16452580	1472320726348	1472320726423	 	32
32252	346318	Perhaps there was a glitch.	Perhaps there was a glitch. 	16452581	1472320726528	1472320726613	g	71
32252	346318	Perhaps there was a glitch.	Perhaps there was a glitch. 	16452582	1472320726645	1472320726698	l	76
32252	346318	Perhaps there was a glitch.	Perhaps there was a glitch. 	16452583	1472320726761	1472320726829	i	73
32252	346318	Perhaps there was a glitch.	Perhaps there was a glitch. 	16452584	1472320726845	1472320726914	t	84
32252	346318	Perhaps there was a glitch.	Perhaps there was a glitch. 	16452585	1472320727007	1472320727099	c	67
32252	346318	Perhaps there was a glitch.	Perhaps there was a glitch. 	16452596	1472320727070	1472320727153	h	72
32252	346318	Perhaps there was a glitch.	Perhaps there was a glitch. 	16452597	1472320727184	1472320727268	.	190
32252	346318	Perhaps there was a glitch.	Perhaps there was a glitch. 	16452598	1472320727299	1472320727340	 	32
32252	346318	Perhaps there was a glitch.	Perhaps there was a glitch. 	16452599	1472320727350	1472320727429	SHIFT	16
32252	346320	I'm in a meeting until noon.	I'm in a meeting until noon.	16452648	1472320729653	1472320730239	SHIFT	16
32252	346320	I'm in a meeting until noon.	I'm in a meeting until noon.	16452647	1472320730108	1472320730208	I	73
32252	346320	I'm in a meeting until noon.	I'm in a meeting until noon.	16452650	1472320730292	1472320730392	'	222
32252	346320	I'm in a meeting until noon.	I'm in a meeting until noon.	16452651	1472320730471	1472320730589	m	77
32252	346320	I'm in a meeting until noon.	I'm in a meeting until noon.	16452652	1472320730582	1472320730636	 	32
32252	346320	I'm in a meeting until noon.	I'm in a meeting until noon.	16452653	1472320730708	1472320730793	i	73
32252	346320	I'm in a meeting until noon.	I'm in a meeting until noon.	16452654	1472320730789	1472320730837	n	78
32252	346320	I'm in a meeting until noon.	I'm in a meeting until noon.	16452655	1472320730868	1472320730923	 	32
32252	346320	I'm in a meeting until noon.	I'm in a meeting until noon.	16452656	1472320730963	1472320731079	a	65
32252	346320	I'm in a meeting until noon.	I'm in a meeting until noon.	16452657	1472320731051	1472320731115	 	32
32252	346320	I'm in a meeting until noon.	I'm in a meeting until noon.	16452659	1472320731209	1472320731308	m	77
32252	346320	I'm in a meeting until noon.	I'm in a meeting until noon.	16452661	1472320731324	1472320731389	e	69
32252	346320	I'm in a meeting until noon.	I'm in a meeting until noon.	16452666	1472320731466	1472320731535	e	69
32252	346320	I'm in a meeting until noon.	I'm in a meeting until noon.	16452669	1472320731566	1472320731665	t	84
32252	346320	I'm in a meeting until noon.	I'm in a meeting until noon.	16452673	1472320731647	1472320731736	i	73
32252	346320	I'm in a meeting until noon.	I'm in a meeting until noon.	16452676	1472320731690	1472320731801	n	78
32252	346320	I'm in a meeting until noon.	I'm in a meeting until noon.	16452681	1472320731786	1472320731870	 	71
32252	346320	I'm in a meeting until noon.	I'm in a meeting until noon.	16452682	1472320732286	1472320732397	u	85
32252	346320	I'm in a meeting until noon.	I'm in a meeting until noon.	16452683	1472320732534	1472320732650	n	78
32252	346320	I'm in a meeting until noon.	I'm in a meeting until noon.	16452684	1472320732666	1472320732735	t	84
32252	346320	I'm in a meeting until noon.	I'm in a meeting until noon.	16452685	1472320732766	1472320732863	i	73
32252	346320	I'm in a meeting until noon.	I'm in a meeting until noon.	16452686	1472320732836	1472320732950	l	76
32252	346320	I'm in a meeting until noon.	I'm in a meeting until noon.	16452687	1472320732965	1472320733020	 	32
32252	346320	I'm in a meeting until noon.	I'm in a meeting until noon.	16452688	1472320733118	1472320733229	n	78
32252	346320	I'm in a meeting until noon.	I'm in a meeting until noon.	16452689	1472320733204	1472320733270	o	79
32252	346320	I'm in a meeting until noon.	I'm in a meeting until noon.	16452690	1472320733350	1472320733435	o	79
32252	346320	I'm in a meeting until noon.	I'm in a meeting until noon.	16452691	1472320733435	1472320733534	n	78
32252	346320	I'm in a meeting until noon.	I'm in a meeting until noon.	16452692	1472320733548	1472320733676	.	190
32252	346322	She has the game tomorrow.	She has the game tomorrow.	16452727	1472320735575	1472320735811	SHIFT	16
32252	346322	She has the game tomorrow.	She has the game tomorrow.	16452728	1472320735671	1472320735821	S	83
32252	346322	She has the game tomorrow.	She has the game tomorrow.	16452729	1472320735926	1472320736014	h	72
32252	346322	She has the game tomorrow.	She has the game tomorrow.	16452730	1472320735966	1472320736062	e	69
32252	346322	She has the game tomorrow.	She has the game tomorrow.	16452731	1472320736029	1472320736102	 	32
32252	346322	She has the game tomorrow.	She has the game tomorrow.	16452732	1472320736161	1472320736247	h	72
32252	346322	She has the game tomorrow.	She has the game tomorrow.	16452733	1472320736196	1472320736319	a	65
32252	346322	She has the game tomorrow.	She has the game tomorrow.	16452734	1472320736264	1472320736376	s	83
32252	346322	She has the game tomorrow.	She has the game tomorrow.	16452735	1472320736345	1472320736418	 	32
32252	346322	She has the game tomorrow.	She has the game tomorrow.	16452736	1472320736461	1472320736572	t	84
32252	346322	She has the game tomorrow.	She has the game tomorrow.	16452751	1472320736538	1472320736648	h	72
32252	346322	She has the game tomorrow.	She has the game tomorrow.	16452754	1472320736567	1472320736678	e	69
32252	346322	She has the game tomorrow.	She has the game tomorrow.	16452755	1472320736643	1472320736712	 	32
32252	346322	She has the game tomorrow.	She has the game tomorrow.	16452757	1472320736777	1472320736872	g	71
32252	346322	She has the game tomorrow.	She has the game tomorrow.	16452758	1472320736845	1472320736958	a	65
32252	346322	She has the game tomorrow.	She has the game tomorrow.	16452759	1472320736944	1472320737062	m	77
32252	346322	She has the game tomorrow.	She has the game tomorrow.	16452760	1472320736988	1472320737098	e	69
32252	346322	She has the game tomorrow.	She has the game tomorrow.	16452761	1472320737113	1472320737180	 	32
32252	346322	She has the game tomorrow.	She has the game tomorrow.	16452762	1472320737211	1472320737302	t	84
32252	346322	She has the game tomorrow.	She has the game tomorrow.	16452763	1472320737318	1472320737385	o	79
32252	346322	She has the game tomorrow.	She has the game tomorrow.	16452764	1472320737446	1472320737604	m	77
32252	346322	She has the game tomorrow.	She has the game tomorrow.	16452780	1472320737578	1472320737634	o	79
32252	346322	She has the game tomorrow.	She has the game tomorrow.	16452781	1472320737831	1472320737928	r	82
32252	346322	She has the game tomorrow.	She has the game tomorrow.	16452782	1472320738046	1472320738102	r	82
32252	346322	She has the game tomorrow.	She has the game tomorrow.	16452783	1472320738547	1472320738612	o	79
32252	346322	She has the game tomorrow.	She has the game tomorrow.	16452784	1472320738628	1472320738702	w	87
32252	346322	She has the game tomorrow.	She has the game tomorrow.	16452785	1472320738802	1472320738886	.	190
32252	346326	Whether it will stand up on race day, nobody knows.	Whether it will stand up on race day, nobody knows.	16452799	1472320740597	1472320740978	SHIFT	16
32252	346326	Whether it will stand up on race day, nobody knows.	Whether it will stand up on race day, nobody knows.	16452801	1472320740856	1472320740978	W	87
32252	346326	Whether it will stand up on race day, nobody knows.	Whether it will stand up on race day, nobody knows.	16452803	1472320741260	1472320741338	h	72
32252	346326	Whether it will stand up on race day, nobody knows.	Whether it will stand up on race day, nobody knows.	16452805	1472320741319	1472320741385	e	69
32252	346326	Whether it will stand up on race day, nobody knows.	Whether it will stand up on race day, nobody knows.	16452807	1472320741476	1472320741554	t	84
32252	346326	Whether it will stand up on race day, nobody knows.	Whether it will stand up on race day, nobody knows.	16452810	1472320741524	1472320741654	h	72
32252	346326	Whether it will stand up on race day, nobody knows.	Whether it will stand up on race day, nobody knows.	16452811	1472320741629	1472320741725	e	69
32252	346326	Whether it will stand up on race day, nobody knows.	Whether it will stand up on race day, nobody knows.	16452812	1472320741686	1472320741769	r	82
32252	346326	Whether it will stand up on race day, nobody knows.	Whether it will stand up on race day, nobody knows.	16452813	1472320741736	1472320741813	 	32
32252	346326	Whether it will stand up on race day, nobody knows.	Whether it will stand up on race day, nobody knows.	16452814	1472320741861	1472320741945	i	73
32252	346326	Whether it will stand up on race day, nobody knows.	Whether it will stand up on race day, nobody knows.	16452815	1472320741929	1472320741981	t	84
32252	346326	Whether it will stand up on race day, nobody knows.	Whether it will stand up on race day, nobody knows.	16452816	1472320741996	1472320742045	 	32
32252	346326	Whether it will stand up on race day, nobody knows.	Whether it will stand up on race day, nobody knows.	16452817	1472320742087	1472320742182	w	87
32252	346326	Whether it will stand up on race day, nobody knows.	Whether it will stand up on race day, nobody knows.	16452818	1472320742163	1472320742230	i	73
32252	346326	Whether it will stand up on race day, nobody knows.	Whether it will stand up on race day, nobody knows.	16452819	1472320742308	1472320742364	l	76
32252	346326	Whether it will stand up on race day, nobody knows.	Whether it will stand up on race day, nobody knows.	16452820	1472320742446	1472320742497	l	76
32252	346326	Whether it will stand up on race day, nobody knows.	Whether it will stand up on race day, nobody knows.	16452821	1472320742510	1472320742636	 	32
32252	346326	Whether it will stand up on race day, nobody knows.	Whether it will stand up on race day, nobody knows.	16452822	1472320742602	1472320742746	s	83
32252	346326	Whether it will stand up on race day, nobody knows.	Whether it will stand up on race day, nobody knows.	16452824	1472320742746	1472320742872	t	84
32252	346326	Whether it will stand up on race day, nobody knows.	Whether it will stand up on race day, nobody knows.	16452826	1472320742846	1472320742962	a	65
32252	346326	Whether it will stand up on race day, nobody knows.	Whether it will stand up on race day, nobody knows.	16452828	1472320742993	1472320743124	n	78
32252	346326	Whether it will stand up on race day, nobody knows.	Whether it will stand up on race day, nobody knows.	16452835	1472320743125	1472320743153	t	84
32252	346326	Whether it will stand up on race day, nobody knows.	Whether it will stand up on race day, nobody knows.	16452836	1472320743700	1472320743780	BKSP	8
32252	346326	Whether it will stand up on race day, nobody knows.	Whether it will stand up on race day, nobody knows.	16452837	1472320743765	1472320743845	d	68
32252	346326	Whether it will stand up on race day, nobody knows.	Whether it will stand up on race day, nobody knows.	16452838	1472320743845	1472320743905	 	32
32252	346326	Whether it will stand up on race day, nobody knows.	Whether it will stand up on race day, nobody knows.	16452839	1472320743985	1472320744075	u	85
32252	346326	Whether it will stand up on race day, nobody knows.	Whether it will stand up on race day, nobody knows.	16452857	1472320744066	1472320744131	p	80
32252	346326	Whether it will stand up on race day, nobody knows.	Whether it will stand up on race day, nobody knows.	16452859	1472320744146	1472320744196	 	32
32252	346326	Whether it will stand up on race day, nobody knows.	Whether it will stand up on race day, nobody knows.	16452861	1472320744271	1472320744371	o	79
32252	346326	Whether it will stand up on race day, nobody knows.	Whether it will stand up on race day, nobody knows.	16452863	1472320744381	1472320744466	n	78
32252	346326	Whether it will stand up on race day, nobody knows.	Whether it will stand up on race day, nobody knows.	16452865	1472320744437	1472320744501	 	32
32252	346326	Whether it will stand up on race day, nobody knows.	Whether it will stand up on race day, nobody knows.	16452867	1472320744613	1472320744732	r	82
32252	346326	Whether it will stand up on race day, nobody knows.	Whether it will stand up on race day, nobody knows.	16452868	1472320744717	1472320744833	a	65
32252	346326	Whether it will stand up on race day, nobody knows.	Whether it will stand up on race day, nobody knows.	16452869	1472320744867	1472320744963	c	67
32252	346326	Whether it will stand up on race day, nobody knows.	Whether it will stand up on race day, nobody knows.	16452870	1472320744951	1472320745017	e	69
32252	346326	Whether it will stand up on race day, nobody knows.	Whether it will stand up on race day, nobody knows.	16452871	1472320745004	1472320745080	 	32
32252	346326	Whether it will stand up on race day, nobody knows.	Whether it will stand up on race day, nobody knows.	16452872	1472320745142	1472320745234	d	68
32252	346326	Whether it will stand up on race day, nobody knows.	Whether it will stand up on race day, nobody knows.	16452877	1472320745213	1472320745314	a	65
32252	346326	Whether it will stand up on race day, nobody knows.	Whether it will stand up on race day, nobody knows.	16452879	1472320745295	1472320745369	y	89
32252	346326	Whether it will stand up on race day, nobody knows.	Whether it will stand up on race day, nobody knows.	16452880	1472320745504	1472320745573	,	188
32252	346326	Whether it will stand up on race day, nobody knows.	Whether it will stand up on race day, nobody knows.	16452881	1472320745569	1472320745635	 	32
32252	346326	Whether it will stand up on race day, nobody knows.	Whether it will stand up on race day, nobody knows.	16452882	1472320745751	1472320745860	n	78
32252	346326	Whether it will stand up on race day, nobody knows.	Whether it will stand up on race day, nobody knows.	16452893	1472320745827	1472320745911	o	79
32252	346326	Whether it will stand up on race day, nobody knows.	Whether it will stand up on race day, nobody knows.	16452894	1472320746043	1472320746125	b	66
32252	346326	Whether it will stand up on race day, nobody knows.	Whether it will stand up on race day, nobody knows.	16452895	1472320746112	1472320746186	o	79
32252	346326	Whether it will stand up on race day, nobody knows.	Whether it will stand up on race day, nobody knows.	16452896	1472320746235	1472320746311	d	68
32252	346326	Whether it will stand up on race day, nobody knows.	Whether it will stand up on race day, nobody knows.	16452897	1472320746312	1472320746395	y	89
32252	346326	Whether it will stand up on race day, nobody knows.	Whether it will stand up on race day, nobody knows.	16452898	1472320746395	1472320746468	 	32
32252	346326	Whether it will stand up on race day, nobody knows.	Whether it will stand up on race day, nobody knows.	16452904	1472320746559	1472320746686	k	75
32252	346326	Whether it will stand up on race day, nobody knows.	Whether it will stand up on race day, nobody knows.	16452905	1472320746645	1472320746746	n	78
32252	346326	Whether it will stand up on race day, nobody knows.	Whether it will stand up on race day, nobody knows.	16452906	1472320746728	1472320746821	o	79
32252	346326	Whether it will stand up on race day, nobody knows.	Whether it will stand up on race day, nobody knows.	16452907	1472320746812	1472320746871	w	87
32252	346326	Whether it will stand up on race day, nobody knows.	Whether it will stand up on race day, nobody knows.	16452908	1472320746975	1472320747052	s	83
32252	346326	Whether it will stand up on race day, nobody knows.	Whether it will stand up on race day, nobody knows.	16452909	1472320747036	1472320747112	.	190
32252	346327	You'll receive the brand new Palm OS v4.	You'll recieve the brand new Palm OS v5.	16452955	1472320750266	1472320750440	SHIFT	16
32252	346327	You'll receive the brand new Palm OS v4.	You'll recieve the brand new Palm OS v5.	16452957	1472320750340	1472320750459	Y	89
32252	346327	You'll receive the brand new Palm OS v4.	You'll recieve the brand new Palm OS v5.	16452959	1472320750585	1472320750715	o	79
32252	346327	You'll receive the brand new Palm OS v4.	You'll recieve the brand new Palm OS v5.	16452961	1472320750683	1472320750752	u	85
32252	346327	You'll receive the brand new Palm OS v4.	You'll recieve the brand new Palm OS v5.	16452963	1472320750867	1472320750920	l	76
32252	346327	You'll receive the brand new Palm OS v4.	You'll recieve the brand new Palm OS v5.	16452964	1472320751319	1472320751420	BKSP	8
32252	346327	You'll receive the brand new Palm OS v4.	You'll recieve the brand new Palm OS v5.	16452965	1472320751582	1472320751636	'	222
32252	346327	You'll receive the brand new Palm OS v4.	You'll recieve the brand new Palm OS v5.	16452977	1472320752005	1472320752068	l	76
32252	346327	You'll receive the brand new Palm OS v4.	You'll recieve the brand new Palm OS v5.	16452979	1472320752136	1472320752213	l	76
32252	346327	You'll receive the brand new Palm OS v4.	You'll recieve the brand new Palm OS v5.	16452981	1472320752228	1472320752298	 	32
32252	346327	You'll receive the brand new Palm OS v4.	You'll recieve the brand new Palm OS v5.	16452983	1472320752505	1472320752609	r	82
32252	346327	You'll receive the brand new Palm OS v4.	You'll recieve the brand new Palm OS v5.	16452989	1472320752577	1472320752666	e	69
32252	346327	You'll receive the brand new Palm OS v4.	You'll recieve the brand new Palm OS v5.	16452991	1472320752752	1472320752831	c	67
32252	346327	You'll receive the brand new Palm OS v4.	You'll recieve the brand new Palm OS v5.	16452992	1472320752847	1472320752927	i	73
32252	346327	You'll receive the brand new Palm OS v4.	You'll recieve the brand new Palm OS v5.	16452993	1472320752974	1472320753050	e	69
32252	346327	You'll receive the brand new Palm OS v4.	You'll recieve the brand new Palm OS v5.	16452994	1472320753122	1472320753206	v	86
32252	346327	You'll receive the brand new Palm OS v4.	You'll recieve the brand new Palm OS v5.	16452995	1472320753231	1472320753307	e	69
32252	346327	You'll receive the brand new Palm OS v4.	You'll recieve the brand new Palm OS v5.	16452996	1472320753302	1472320753357	 	32
32252	346327	You'll receive the brand new Palm OS v4.	You'll recieve the brand new Palm OS v5.	16452998	1472320753437	1472320753516	t	84
32252	346327	You'll receive the brand new Palm OS v4.	You'll recieve the brand new Palm OS v5.	16453000	1472320753506	1472320753603	h	72
32252	346327	You'll receive the brand new Palm OS v4.	You'll recieve the brand new Palm OS v5.	16453002	1472320753531	1472320753621	e	69
32252	346327	You'll receive the brand new Palm OS v4.	You'll recieve the brand new Palm OS v5.	16453004	1472320753637	1472320753706	 	32
32252	346327	You'll receive the brand new Palm OS v4.	You'll recieve the brand new Palm OS v5.	16453006	1472320753869	1472320753945	b	66
32252	346327	You'll receive the brand new Palm OS v4.	You'll recieve the brand new Palm OS v5.	16453012	1472320754062	1472320754134	r	82
32252	346327	You'll receive the brand new Palm OS v4.	You'll recieve the brand new Palm OS v5.	16453013	1472320754134	1472320754222	a	65
32252	346327	You'll receive the brand new Palm OS v4.	You'll recieve the brand new Palm OS v5.	16453014	1472320754222	1472320754323	n	78
32252	346327	You'll receive the brand new Palm OS v4.	You'll recieve the brand new Palm OS v5.	16453015	1472320754303	1472320754408	d	68
32252	346327	You'll receive the brand new Palm OS v4.	You'll recieve the brand new Palm OS v5.	16453018	1472320754367	1472320754435	 	32
32252	346327	You'll receive the brand new Palm OS v4.	You'll recieve the brand new Palm OS v5.	16453020	1472320754522	1472320754640	n	78
32252	346327	You'll receive the brand new Palm OS v4.	You'll recieve the brand new Palm OS v5.	16453022	1472320754586	1472320754700	e	69
32252	346327	You'll receive the brand new Palm OS v4.	You'll recieve the brand new Palm OS v5.	16453024	1472320754646	1472320754743	w	87
32252	346327	You'll receive the brand new Palm OS v4.	You'll recieve the brand new Palm OS v5.	16453026	1472320754759	1472320754874	 	32
32252	346327	You'll receive the brand new Palm OS v4.	You'll recieve the brand new Palm OS v5.	16453050	1472320754895	1472320755100	a	65
32252	346327	You'll receive the brand new Palm OS v4.	You'll recieve the brand new Palm OS v5.	16453057	1472320754935	1472320755807	SHIFT	16
32252	346327	You'll receive the brand new Palm OS v4.	You'll recieve the brand new Palm OS v5.	16453027	1472320754978	1472320755050	P	80
32252	346327	You'll receive the brand new Palm OS v4.	You'll recieve the brand new Palm OS v5.	16453051	1472320755407	1472320755456	BKSP	8
32252	346327	You'll receive the brand new Palm OS v4.	You'll recieve the brand new Palm OS v5.	16453053	1472320755523	1472320755608	BKSP	8
32252	346327	You'll receive the brand new Palm OS v4.	You'll recieve the brand new Palm OS v5.	16453055	1472320755724	1472320755807	P	80
32252	346327	You'll receive the brand new Palm OS v4.	You'll recieve the brand new Palm OS v5.	16453059	1472320755939	1472320756024	a	65
32252	346327	You'll receive the brand new Palm OS v4.	You'll recieve the brand new Palm OS v5.	16453061	1472320756068	1472320756176	l	76
32252	346327	You'll receive the brand new Palm OS v4.	You'll recieve the brand new Palm OS v5.	16453062	1472320756255	1472320756359	m	77
32252	346327	You'll receive the brand new Palm OS v4.	You'll recieve the brand new Palm OS v5.	16453063	1472320756414	1472320756479	 	32
32252	346327	You'll receive the brand new Palm OS v4.	You'll recieve the brand new Palm OS v5.	16453087	1472320756540	1472320757160	SHIFT	16
32252	346327	You'll receive the brand new Palm OS v4.	You'll recieve the brand new Palm OS v5.	16453081	1472320756640	1472320756771	O	79
32252	346327	You'll receive the brand new Palm OS v4.	You'll recieve the brand new Palm OS v5.	16453083	1472320756815	1472320756926	S	83
32252	346327	You'll receive the brand new Palm OS v4.	You'll recieve the brand new Palm OS v5.	16453085	1472320757029	1472320757095	 	32
32252	346327	You'll receive the brand new Palm OS v4.	You'll recieve the brand new Palm OS v5.	16453090	1472320757626	1472320757695	v	86
32252	346327	You'll receive the brand new Palm OS v4.	You'll recieve the brand new Palm OS v5.	16453092	1472320757808	1472320757901	5	53
32252	346327	You'll receive the brand new Palm OS v4.	You'll recieve the brand new Palm OS v5.	16453095	1472320757977	1472320758052	.	190
32252	346332	Our forces are ready to come immediately.	Our forces are ready to come immediately.	16453135	1472320760172	1472320760542	SHIFT	16
32252	346332	Our forces are ready to come immediately.	Our forces are ready to come immediately.	16453133	1472320760427	1472320760527	O	79
32252	346332	Our forces are ready to come immediately.	Our forces are ready to come immediately.	16453139	1472320760611	1472320760729	u	85
32252	346332	Our forces are ready to come immediately.	Our forces are ready to come immediately.	16453142	1472320760678	1472320760751	r	82
32252	346332	Our forces are ready to come immediately.	Our forces are ready to come immediately.	16453144	1472320760782	1472320760835	 	32
32252	346332	Our forces are ready to come immediately.	Our forces are ready to come immediately.	16453145	1472320760911	1472320760984	f	70
32252	346332	Our forces are ready to come immediately.	Our forces are ready to come immediately.	16453146	1472320761011	1472320761105	o	79
32252	346332	Our forces are ready to come immediately.	Our forces are ready to come immediately.	16453147	1472320761106	1472320761200	r	82
32252	346332	Our forces are ready to come immediately.	Our forces are ready to come immediately.	16453149	1472320761374	1472320761521	c	67
32252	346332	Our forces are ready to come immediately.	Our forces are ready to come immediately.	16453151	1472320761481	1472320761637	e	69
32252	346332	Our forces are ready to come immediately.	Our forces are ready to come immediately.	16453154	1472320761602	1472320761706	s	83
32252	346332	Our forces are ready to come immediately.	Our forces are ready to come immediately.	16453155	1472320761666	1472320761750	 	32
32252	346332	Our forces are ready to come immediately.	Our forces are ready to come immediately.	16453156	1472320761811	1472320761937	a	65
32252	346332	Our forces are ready to come immediately.	Our forces are ready to come immediately.	16453157	1472320761912	1472320762012	r	82
32252	346332	Our forces are ready to come immediately.	Our forces are ready to come immediately.	16453158	1472320761969	1472320762066	e	69
32252	346332	Our forces are ready to come immediately.	Our forces are ready to come immediately.	16453159	1472320762066	1472320762145	 	32
32252	346332	Our forces are ready to come immediately.	Our forces are ready to come immediately.	16453169	1472320762284	1472320762408	r	82
32252	346332	Our forces are ready to come immediately.	Our forces are ready to come immediately.	16453171	1472320762351	1472320762459	e	69
32252	346332	Our forces are ready to come immediately.	Our forces are ready to come immediately.	16453173	1472320762443	1472320762568	a	65
32252	346332	Our forces are ready to come immediately.	Our forces are ready to come immediately.	16453175	1472320762544	1472320762643	d	68
32252	346332	Our forces are ready to come immediately.	Our forces are ready to come immediately.	16453177	1472320762712	1472320762824	y	89
32252	346332	Our forces are ready to come immediately.	Our forces are ready to come immediately.	16453178	1472320762805	1472320762866	 	32
32252	346332	Our forces are ready to come immediately.	Our forces are ready to come immediately.	16453179	1472320762912	1472320763005	t	84
32252	346332	Our forces are ready to come immediately.	Our forces are ready to come immediately.	16453180	1472320762983	1472320763070	o	79
32252	346332	Our forces are ready to come immediately.	Our forces are ready to come immediately.	16453181	1472320763070	1472320763132	 	32
32252	346332	Our forces are ready to come immediately.	Our forces are ready to come immediately.	16453182	1472320763163	1472320763232	c	67
32252	346332	Our forces are ready to come immediately.	Our forces are ready to come immediately.	16453183	1472320763248	1472320763340	o	79
32252	346332	Our forces are ready to come immediately.	Our forces are ready to come immediately.	16453195	1472320763302	1472320763445	m	77
32252	346332	Our forces are ready to come immediately.	Our forces are ready to come immediately.	16453193	1472320763360	1472320763436	e	69
32252	346332	Our forces are ready to come immediately.	Our forces are ready to come immediately.	16453197	1472320763430	1472320763510	 	32
32252	346332	Our forces are ready to come immediately.	Our forces are ready to come immediately.	16453199	1472320763679	1472320763812	i	73
32252	346332	Our forces are ready to come immediately.	Our forces are ready to come immediately.	16453201	1472320763726	1472320763832	m	77
32252	346332	Our forces are ready to come immediately.	Our forces are ready to come immediately.	16453203	1472320763911	1472320763984	m	77
32252	346332	Our forces are ready to come immediately.	Our forces are ready to come immediately.	16453211	1472320764080	1472320764176	e	69
32252	346332	Our forces are ready to come immediately.	Our forces are ready to come immediately.	16453212	1472320764511	1472320764600	d	68
32252	346332	Our forces are ready to come immediately.	Our forces are ready to come immediately.	16453213	1472320764636	1472320764733	i	73
32252	346332	Our forces are ready to come immediately.	Our forces are ready to come immediately.	16453214	1472320764780	1472320764907	a	65
32252	346332	Our forces are ready to come immediately.	Our forces are ready to come immediately.	16453215	1472320764950	1472320765054	t	84
32252	346332	Our forces are ready to come immediately.	Our forces are ready to come immediately.	16453234	1472320765034	1472320765100	e	69
32252	346332	Our forces are ready to come immediately.	Our forces are ready to come immediately.	16453236	1472320765181	1472320765261	l	76
32252	346332	Our forces are ready to come immediately.	Our forces are ready to come immediately.	16453238	1472320765307	1472320765367	y	89
32252	346332	Our forces are ready to come immediately.	Our forces are ready to come immediately.	16453240	1472320765481	1472320765551	.	190
32252	346332	Our forces are ready to come immediately.	Our forces are ready to come immediately.	16453242	1472320765665	1472320765717	DELETE	46
32252	346335	The aviation college had already trained pilots.	The aviation college had already trained pilots.	16453273	1472320768144	1472320768582	SHIFT	16
32252	346335	The aviation college had already trained pilots.	The aviation college had already trained pilots.	16453274	1472320768482	1472320768588	T	84
32252	346335	The aviation college had already trained pilots.	The aviation college had already trained pilots.	16453275	1472320768689	1472320768813	h	72
32252	346335	The aviation college had already trained pilots.	The aviation college had already trained pilots.	16453276	1472320768752	1472320768848	e	69
32252	346335	The aviation college had already trained pilots.	The aviation college had already trained pilots.	16453277	1472320768802	1472320768888	 	32
32252	346335	The aviation college had already trained pilots.	The aviation college had already trained pilots.	16453278	1472320768967	1472320769089	a	65
32252	346335	The aviation college had already trained pilots.	The aviation college had already trained pilots.	16453290	1472320769134	1472320769235	v	86
32252	346335	The aviation college had already trained pilots.	The aviation college had already trained pilots.	16453292	1472320769251	1472320769332	i	73
32252	346335	The aviation college had already trained pilots.	The aviation college had already trained pilots.	16453294	1472320769364	1472320769476	a	65
32252	346335	The aviation college had already trained pilots.	The aviation college had already trained pilots.	16453296	1472320769560	1472320769650	t	84
32252	346335	The aviation college had already trained pilots.	The aviation college had already trained pilots.	16453297	1472320769685	1472320769897	i	73
32252	346335	The aviation college had already trained pilots.	The aviation college had already trained pilots.	16453307	1472320769764	1472320769898	o	79
32252	346335	The aviation college had already trained pilots.	The aviation college had already trained pilots.	16453308	1472320769849	1472320769956	n	78
32252	346335	The aviation college had already trained pilots.	The aviation college had already trained pilots.	16453309	1472320769916	1472320770015	 	32
32252	346335	The aviation college had already trained pilots.	The aviation college had already trained pilots.	16453310	1472320770121	1472320770205	c	67
32252	346335	The aviation college had already trained pilots.	The aviation college had already trained pilots.	16453311	1472320770205	1472320770267	o	79
32252	346335	The aviation college had already trained pilots.	The aviation college had already trained pilots.	16453312	1472320770352	1472320770407	l	76
32252	346335	The aviation college had already trained pilots.	The aviation college had already trained pilots.	16453313	1472320770490	1472320770552	l	76
32252	346335	The aviation college had already trained pilots.	The aviation college had already trained pilots.	16453321	1472320770522	1472320770590	e	69
32252	346335	The aviation college had already trained pilots.	The aviation college had already trained pilots.	16453323	1472320770637	1472320770722	g	71
32252	346335	The aviation college had already trained pilots.	The aviation college had already trained pilots.	16453326	1472320770722	1472320770788	e	69
32252	346335	The aviation college had already trained pilots.	The aviation college had already trained pilots.	16453328	1472320770769	1472320770833	 	32
32252	346335	The aviation college had already trained pilots.	The aviation college had already trained pilots.	16453330	1472320770968	1472320771089	h	72
32252	346335	The aviation college had already trained pilots.	The aviation college had already trained pilots.	16453339	1472320771034	1472320771135	a	65
32252	346335	The aviation college had already trained pilots.	The aviation college had already trained pilots.	16453341	1472320771099	1472320771210	d	68
32252	346335	The aviation college had already trained pilots.	The aviation college had already trained pilots.	16453343	1472320771191	1472320771267	 	32
32252	346335	The aviation college had already trained pilots.	The aviation college had already trained pilots.	16453344	1472320771353	1472320771428	a	65
32252	346335	The aviation college had already trained pilots.	The aviation college had already trained pilots.	16453345	1472320771474	1472320771571	l	76
32252	346335	The aviation college had already trained pilots.	The aviation college had already trained pilots.	16453346	1472320771651	1472320771751	r	82
32252	346335	The aviation college had already trained pilots.	The aviation college had already trained pilots.	16453356	1472320771716	1472320771787	e	69
32252	346335	The aviation college had already trained pilots.	The aviation college had already trained pilots.	16453357	1472320771802	1472320771887	a	65
32252	346335	The aviation college had already trained pilots.	The aviation college had already trained pilots.	16453358	1472320771887	1472320771971	d	68
32252	346335	The aviation college had already trained pilots.	The aviation college had already trained pilots.	16453359	1472320772002	1472320772117	y	89
32252	346335	The aviation college had already trained pilots.	The aviation college had already trained pilots.	16453360	1472320772117	1472320772206	 	32
32252	346335	The aviation college had already trained pilots.	The aviation college had already trained pilots.	16453363	1472320772287	1472320772335	t	84
32252	346335	The aviation college had already trained pilots.	The aviation college had already trained pilots.	16453387	1472320772548	1472320772679	r	82
32252	346335	The aviation college had already trained pilots.	The aviation college had already trained pilots.	16453388	1472320772733	1472320772833	a	65
32252	346335	The aviation college had already trained pilots.	The aviation college had already trained pilots.	16453389	1472320772880	1472320773008	i	73
32252	346335	The aviation college had already trained pilots.	The aviation college had already trained pilots.	16453391	1472320772965	1472320773102	n	78
32252	346335	The aviation college had already trained pilots.	The aviation college had already trained pilots.	16453393	1472320773180	1472320773250	e	69
32252	346335	The aviation college had already trained pilots.	The aviation college had already trained pilots.	16453408	1472320773349	1472320773454	d	68
32252	346335	The aviation college had already trained pilots.	The aviation college had already trained pilots.	16453410	1472320773402	1472320773502	 	32
32252	346335	The aviation college had already trained pilots.	The aviation college had already trained pilots.	16453412	1472320773634	1472320773675	t	84
32252	346335	The aviation college had already trained pilots.	The aviation college had already trained pilots.	16453414	1472320773718	1472320773803	p	80
32252	346335	The aviation college had already trained pilots.	The aviation college had already trained pilots.	16453417	1472320774026	1472320774206	BKSP	8
32252	346335	The aviation college had already trained pilots.	The aviation college had already trained pilots.	16453421	1472320774554	1472320774600	BKSP	8
32252	346335	The aviation college had already trained pilots.	The aviation college had already trained pilots.	16453424	1472320774969	1472320775018	o	79
32252	346335	The aviation college had already trained pilots.	The aviation college had already trained pilots.	16453436	1472320775014	1472320775136	p	80
32252	346335	The aviation college had already trained pilots.	The aviation college had already trained pilots.	16453437	1472320775390	1472320775425	BKSP	8
32252	346335	The aviation college had already trained pilots.	The aviation college had already trained pilots.	16453438	1472320775490	1472320775574	BKSP	8
32252	346335	The aviation college had already trained pilots.	The aviation college had already trained pilots.	16453439	1472320775690	1472320775790	p	80
32252	346335	The aviation college had already trained pilots.	The aviation college had already trained pilots.	16453440	1472320775906	1472320776065	i	73
32252	346335	The aviation college had already trained pilots.	The aviation college had already trained pilots.	16453442	1472320776190	1472320776245	l	76
32252	346335	The aviation college had already trained pilots.	The aviation college had already trained pilots.	16453444	1472320776337	1472320776396	o	79
32252	346335	The aviation college had already trained pilots.	The aviation college had already trained pilots.	16453446	1472320776475	1472320776575	t	84
32252	346335	The aviation college had already trained pilots.	The aviation college had already trained pilots.	16453449	1472320776575	1472320776678	s	83
32252	346335	The aviation college had already trained pilots.	The aviation college had already trained pilots.	16453450	1472320776645	1472320776722	.	190
32252	346335	The aviation college had already trained pilots.	The aviation college had already trained pilots.	16453451	1472320776791	1472320776854	SHIFT	16
32252	346339	Crestone won't have final measurement until next week.	Crestone won't have final measurement until next week. 	16453475	1472320778749	1472320779009	SHIFT	16
32252	346339	Crestone won't have final measurement until next week.	Crestone won't have final measurement until next week. 	16453476	1472320778909	1472320779025	C	67
32252	346339	Crestone won't have final measurement until next week.	Crestone won't have final measurement until next week. 	16453477	1472320779190	1472320779293	r	82
32252	346339	Crestone won't have final measurement until next week.	Crestone won't have final measurement until next week. 	16453478	1472320779261	1472320779349	e	69
32252	346339	Crestone won't have final measurement until next week.	Crestone won't have final measurement until next week. 	16453479	1472320779457	1472320779558	s	83
32252	346339	Crestone won't have final measurement until next week.	Crestone won't have final measurement until next week. 	16453480	1472320779590	1472320779661	t	84
32252	346339	Crestone won't have final measurement until next week.	Crestone won't have final measurement until next week. 	16453481	1472320779710	1472320779829	o	79
32252	346339	Crestone won't have final measurement until next week.	Crestone won't have final measurement until next week. 	16453482	1472320779793	1472320779916	n	78
32252	346339	Crestone won't have final measurement until next week.	Crestone won't have final measurement until next week. 	16453483	1472320779861	1472320779947	e	69
32252	346339	Crestone won't have final measurement until next week.	Crestone won't have final measurement until next week. 	16453484	1472320779996	1472320780061	 	32
32252	346339	Crestone won't have final measurement until next week.	Crestone won't have final measurement until next week. 	16453485	1472320780141	1472320780250	w	87
32252	346339	Crestone won't have final measurement until next week.	Crestone won't have final measurement until next week. 	16453499	1472320780254	1472320780351	o	79
32252	346339	Crestone won't have final measurement until next week.	Crestone won't have final measurement until next week. 	16453501	1472320780311	1472320780421	n	78
32252	346339	Crestone won't have final measurement until next week.	Crestone won't have final measurement until next week. 	16453503	1472320780406	1472320780476	t	84
32252	346339	Crestone won't have final measurement until next week.	Crestone won't have final measurement until next week. 	16453505	1472320780511	1472320780627	'	222
32252	346339	Crestone won't have final measurement until next week.	Crestone won't have final measurement until next week. 	16453506	1472320780833	1472320780882	BKSP	8
32252	346339	Crestone won't have final measurement until next week.	Crestone won't have final measurement until next week. 	16453507	1472320780951	1472320781017	BKSP	8
32252	346339	Crestone won't have final measurement until next week.	Crestone won't have final measurement until next week. 	16453508	1472320781349	1472320781432	'	222
32252	346339	Crestone won't have final measurement until next week.	Crestone won't have final measurement until next week. 	16453513	1472320781468	1472320781552	t	84
32252	346339	Crestone won't have final measurement until next week.	Crestone won't have final measurement until next week. 	16453516	1472320781568	1472320781649	 	32
32252	346339	Crestone won't have final measurement until next week.	Crestone won't have final measurement until next week. 	16453519	1472320781884	1472320781968	h	72
32252	346339	Crestone won't have final measurement until next week.	Crestone won't have final measurement until next week. 	16453522	1472320781919	1472320782015	a	65
32252	346339	Crestone won't have final measurement until next week.	Crestone won't have final measurement until next week. 	16453529	1472320781999	1472320782105	v	86
32252	346339	Crestone won't have final measurement until next week.	Crestone won't have final measurement until next week. 	16453530	1472320782084	1472320782170	e	69
32252	346339	Crestone won't have final measurement until next week.	Crestone won't have final measurement until next week. 	16453531	1472320782130	1472320782200	 	32
32252	346339	Crestone won't have final measurement until next week.	Crestone won't have final measurement until next week. 	16453532	1472320782400	1472320782496	f	70
32252	346339	Crestone won't have final measurement until next week.	Crestone won't have final measurement until next week. 	16453533	1472320782476	1472320782606	i	73
32252	346339	Crestone won't have final measurement until next week.	Crestone won't have final measurement until next week. 	16453534	1472320782554	1472320782661	n	78
32252	346339	Crestone won't have final measurement until next week.	Crestone won't have final measurement until next week. 	16453535	1472320782647	1472320782716	a	65
32252	346339	Crestone won't have final measurement until next week.	Crestone won't have final measurement until next week. 	16453537	1472320782732	1472320782811	l	76
32252	346339	Crestone won't have final measurement until next week.	Crestone won't have final measurement until next week. 	16453539	1472320782848	1472320782897	 	32
32252	346339	Crestone won't have final measurement until next week.	Crestone won't have final measurement until next week. 	16453541	1472320782953	1472320783057	m	77
32252	346339	Crestone won't have final measurement until next week.	Crestone won't have final measurement until next week. 	16453555	1472320783048	1472320783170	e	69
32252	346339	Crestone won't have final measurement until next week.	Crestone won't have final measurement until next week. 	16453556	1472320783403	1472320783498	a	65
32252	346339	Crestone won't have final measurement until next week.	Crestone won't have final measurement until next week. 	16453557	1472320783749	1472320783834	s	83
32252	346339	Crestone won't have final measurement until next week.	Crestone won't have final measurement until next week. 	16453558	1472320783869	1472320783975	u	85
32252	346339	Crestone won't have final measurement until next week.	Crestone won't have final measurement until next week. 	16453559	1472320783948	1472320784045	r	82
32252	346339	Crestone won't have final measurement until next week.	Crestone won't have final measurement until next week. 	16453564	1472320784016	1472320784101	e	69
32252	346339	Crestone won't have final measurement until next week.	Crestone won't have final measurement until next week. 	16453566	1472320784116	1472320784216	m	77
32252	346339	Crestone won't have final measurement until next week.	Crestone won't have final measurement until next week. 	16453567	1472320784232	1472320784301	e	69
32252	346339	Crestone won't have final measurement until next week.	Crestone won't have final measurement until next week. 	16453568	1472320784317	1472320784415	n	78
32252	346339	Crestone won't have final measurement until next week.	Crestone won't have final measurement until next week. 	16453569	1472320784385	1472320784450	t	84
32252	346339	Crestone won't have final measurement until next week.	Crestone won't have final measurement until next week. 	16453570	1472320784450	1472320784517	 	32
32252	346339	Crestone won't have final measurement until next week.	Crestone won't have final measurement until next week. 	16453572	1472320784615	1472320784667	u	85
32252	346339	Crestone won't have final measurement until next week.	Crestone won't have final measurement until next week. 	16453574	1472320784766	1472320784832	n	78
32252	346339	Crestone won't have final measurement until next week.	Crestone won't have final measurement until next week. 	16453576	1472320784832	1472320784899	t	84
32252	346339	Crestone won't have final measurement until next week.	Crestone won't have final measurement until next week. 	16453578	1472320784932	1472320785027	i	73
32252	346339	Crestone won't have final measurement until next week.	Crestone won't have final measurement until next week. 	16453583	1472320785007	1472320785116	l	76
32252	346339	Crestone won't have final measurement until next week.	Crestone won't have final measurement until next week. 	16453585	1472320785151	1472320785222	 	32
32252	346339	Crestone won't have final measurement until next week.	Crestone won't have final measurement until next week. 	16453587	1472320785260	1472320785368	n	78
32252	346339	Crestone won't have final measurement until next week.	Crestone won't have final measurement until next week. 	16453589	1472320785348	1472320785416	e	69
32252	346339	Crestone won't have final measurement until next week.	Crestone won't have final measurement until next week. 	16453591	1472320785609	1472320785708	x	88
32252	346339	Crestone won't have final measurement until next week.	Crestone won't have final measurement until next week. 	16453592	1472320785795	1472320785859	t	84
32252	346339	Crestone won't have final measurement until next week.	Crestone won't have final measurement until next week. 	16453598	1472320785904	1472320785954	 	32
32252	346339	Crestone won't have final measurement until next week.	Crestone won't have final measurement until next week. 	16453599	1472320786048	1472320786148	w	87
32252	346339	Crestone won't have final measurement until next week.	Crestone won't have final measurement until next week. 	16453602	1472320786216	1472320786283	e	69
32252	346339	Crestone won't have final measurement until next week.	Crestone won't have final measurement until next week. 	16453605	1472320786379	1472320786449	e	69
32252	346339	Crestone won't have final measurement until next week.	Crestone won't have final measurement until next week. 	16453608	1472320786449	1472320786517	k	75
32252	346339	Crestone won't have final measurement until next week.	Crestone won't have final measurement until next week. 	16453611	1472320786533	1472320786648	.	190
32252	346343	The best-of-seven series moves to Indianapolis, Indiana.	The best-of-seven series moves to Indianpolis, Indiana.	16453690	1472320786680	1472320789826	 	32
32252	346343	The best-of-seven series moves to Indianapolis, Indiana.	The best-of-seven series moves to Indianpolis, Indiana.	16453680	1472320789383	1472320789583	SHIFT	16
32252	346343	The best-of-seven series moves to Indianapolis, Indiana.	The best-of-seven series moves to Indianpolis, Indiana.	16453683	1472320789510	1472320789610	T	84
32252	346343	The best-of-seven series moves to Indianapolis, Indiana.	The best-of-seven series moves to Indianpolis, Indiana.	16453686	1472320789610	1472320789743	h	72
32252	346343	The best-of-seven series moves to Indianapolis, Indiana.	The best-of-seven series moves to Indianpolis, Indiana.	16453688	1472320789699	1472320789778	e	69
32252	346343	The best-of-seven series moves to Indianapolis, Indiana.	The best-of-seven series moves to Indianpolis, Indiana.	16453691	1472320789910	1472320789983	b	66
32252	346343	The best-of-seven series moves to Indianapolis, Indiana.	The best-of-seven series moves to Indianpolis, Indiana.	16453692	1472320790073	1472320790194	e	69
32252	346343	The best-of-seven series moves to Indianapolis, Indiana.	The best-of-seven series moves to Indianpolis, Indiana.	16453714	1472320790160	1472320790279	s	83
32252	346343	The best-of-seven series moves to Indianapolis, Indiana.	The best-of-seven series moves to Indianpolis, Indiana.	16453715	1472320790249	1472320790294	t	84
32252	346343	The best-of-seven series moves to Indianapolis, Indiana.	The best-of-seven series moves to Indianpolis, Indiana.	16453716	1472320790526	1472320790626	=	187
32252	346343	The best-of-seven series moves to Indianapolis, Indiana.	The best-of-seven series moves to Indianpolis, Indiana.	16453717	1472320791127	1472320791185	BKSP	8
32252	346343	The best-of-seven series moves to Indianapolis, Indiana.	The best-of-seven series moves to Indianpolis, Indiana.	16453718	1472320791408	1472320791452	-	189
32252	346343	The best-of-seven series moves to Indianapolis, Indiana.	The best-of-seven series moves to Indianpolis, Indiana.	16453719	1472320792044	1472320792113	o	79
32252	346343	The best-of-seven series moves to Indianapolis, Indiana.	The best-of-seven series moves to Indianpolis, Indiana.	16453720	1472320792113	1472320792204	f	70
32252	346343	The best-of-seven series moves to Indianapolis, Indiana.	The best-of-seven series moves to Indianpolis, Indiana.	16453748	1472320792212	1472320792239	 	32
32252	346343	The best-of-seven series moves to Indianapolis, Indiana.	The best-of-seven series moves to Indianpolis, Indiana.	16453749	1472320792673	1472320792773	BKSP	8
32252	346343	The best-of-seven series moves to Indianapolis, Indiana.	The best-of-seven series moves to Indianpolis, Indiana.	16453750	1472320792946	1472320792987	0	80
32252	346343	The best-of-seven series moves to Indianapolis, Indiana.	The best-of-seven series moves to Indianpolis, Indiana.	16453751	1472320793321	1472320793368	BKSP	8
32252	346343	The best-of-seven series moves to Indianapolis, Indiana.	The best-of-seven series moves to Indianpolis, Indiana.	16453752	1472320793452	1472320793532	BKSP	8
32252	346343	The best-of-seven series moves to Indianapolis, Indiana.	The best-of-seven series moves to Indianpolis, Indiana.	16453753	1472320793721	1472320793821	-	189
32252	346343	The best-of-seven series moves to Indianapolis, Indiana.	The best-of-seven series moves to Indianpolis, Indiana.	16453754	1472320794229	1472320794304	s	83
32252	346343	The best-of-seven series moves to Indianapolis, Indiana.	The best-of-seven series moves to Indianpolis, Indiana.	16453756	1472320794363	1472320794432	e	69
32252	346343	The best-of-seven series moves to Indianapolis, Indiana.	The best-of-seven series moves to Indianpolis, Indiana.	16453758	1472320794536	1472320794621	v	86
32252	346343	The best-of-seven series moves to Indianapolis, Indiana.	The best-of-seven series moves to Indianpolis, Indiana.	16453760	1472320794621	1472320794705	e	69
32252	346343	The best-of-seven series moves to Indianapolis, Indiana.	The best-of-seven series moves to Indianpolis, Indiana.	16453762	1472320794721	1472320794830	n	78
32252	346343	The best-of-seven series moves to Indianapolis, Indiana.	The best-of-seven series moves to Indianpolis, Indiana.	16453765	1472320794805	1472320794896	 	32
32252	346343	The best-of-seven series moves to Indianapolis, Indiana.	The best-of-seven series moves to Indianpolis, Indiana.	16453766	1472320794952	1472320795052	s	83
32252	346343	The best-of-seven series moves to Indianapolis, Indiana.	The best-of-seven series moves to Indianpolis, Indiana.	16453767	1472320795052	1472320795181	e	69
32252	346343	The best-of-seven series moves to Indianapolis, Indiana.	The best-of-seven series moves to Indianpolis, Indiana.	16453768	1472320795158	1472320795251	r	82
32252	346343	The best-of-seven series moves to Indianapolis, Indiana.	The best-of-seven series moves to Indianpolis, Indiana.	16453770	1472320795306	1472320795407	i	73
32252	346343	The best-of-seven series moves to Indianapolis, Indiana.	The best-of-seven series moves to Indianpolis, Indiana.	16453786	1472320795377	1472320795513	e	69
32252	346343	The best-of-seven series moves to Indianapolis, Indiana.	The best-of-seven series moves to Indianpolis, Indiana.	16453788	1472320795480	1472320795577	s	83
32252	346343	The best-of-seven series moves to Indianapolis, Indiana.	The best-of-seven series moves to Indianpolis, Indiana.	16453790	1472320795533	1472320795606	 	32
32252	346343	The best-of-seven series moves to Indianapolis, Indiana.	The best-of-seven series moves to Indianpolis, Indiana.	16453792	1472320795754	1472320795873	m	77
32252	346343	The best-of-seven series moves to Indianapolis, Indiana.	The best-of-seven series moves to Indianpolis, Indiana.	16453795	1472320795842	1472320795938	o	79
32252	346343	The best-of-seven series moves to Indianapolis, Indiana.	The best-of-seven series moves to Indianpolis, Indiana.	16453797	1472320795985	1472320796075	v	86
32252	346343	The best-of-seven series moves to Indianapolis, Indiana.	The best-of-seven series moves to Indianpolis, Indiana.	16453808	1472320796075	1472320796260	e	69
32252	346343	The best-of-seven series moves to Indianapolis, Indiana.	The best-of-seven series moves to Indianpolis, Indiana.	16453805	1472320796175	1472320796242	s	83
32252	346343	The best-of-seven series moves to Indianapolis, Indiana.	The best-of-seven series moves to Indianpolis, Indiana.	16453811	1472320796242	1472320796307	 	32
32252	346343	The best-of-seven series moves to Indianapolis, Indiana.	The best-of-seven series moves to Indianpolis, Indiana.	16453814	1472320796385	1472320796489	t	84
32252	346343	The best-of-seven series moves to Indianapolis, Indiana.	The best-of-seven series moves to Indianpolis, Indiana.	16453826	1472320796467	1472320796579	o	79
32252	346343	The best-of-seven series moves to Indianapolis, Indiana.	The best-of-seven series moves to Indianpolis, Indiana.	16453828	1472320796558	1472320796632	 	32
32252	346343	The best-of-seven series moves to Indianapolis, Indiana.	The best-of-seven series moves to Indianpolis, Indiana.	16453830	1472320796738	1472320796938	SHIFT	16
32252	346343	The best-of-seven series moves to Indianapolis, Indiana.	The best-of-seven series moves to Indianpolis, Indiana.	16453832	1472320796838	1472320796938	I	73
32252	346343	The best-of-seven series moves to Indianapolis, Indiana.	The best-of-seven series moves to Indianpolis, Indiana.	16453834	1472320796985	1472320797106	n	78
32252	346343	The best-of-seven series moves to Indianapolis, Indiana.	The best-of-seven series moves to Indianpolis, Indiana.	16453835	1472320797123	1472320797209	d	68
32252	346343	The best-of-seven series moves to Indianapolis, Indiana.	The best-of-seven series moves to Indianpolis, Indiana.	16453836	1472320797246	1472320797326	i	73
32252	346343	The best-of-seven series moves to Indianapolis, Indiana.	The best-of-seven series moves to Indianpolis, Indiana.	16453850	1472320797368	1472320797464	a	65
32252	346343	The best-of-seven series moves to Indianapolis, Indiana.	The best-of-seven series moves to Indianpolis, Indiana.	16453852	1472320797480	1472320797580	n	78
32252	346343	The best-of-seven series moves to Indianapolis, Indiana.	The best-of-seven series moves to Indianpolis, Indiana.	16453854	1472320797836	1472320797919	p	80
32252	346343	The best-of-seven series moves to Indianapolis, Indiana.	The best-of-seven series moves to Indianpolis, Indiana.	16453856	1472320798000	1472320798119	o	79
32252	346343	The best-of-seven series moves to Indianapolis, Indiana.	The best-of-seven series moves to Indianpolis, Indiana.	16453859	1472320798230	1472320798299	l	76
32252	346343	The best-of-seven series moves to Indianapolis, Indiana.	The best-of-seven series moves to Indianpolis, Indiana.	16453882	1472320798540	1472320798610	i	73
32252	346343	The best-of-seven series moves to Indianapolis, Indiana.	The best-of-seven series moves to Indianpolis, Indiana.	16453883	1472320798610	1472320798698	s	83
32252	346343	The best-of-seven series moves to Indianapolis, Indiana.	The best-of-seven series moves to Indianpolis, Indiana.	16453884	1472320798836	1472320798915	,	188
32252	346343	The best-of-seven series moves to Indianapolis, Indiana.	The best-of-seven series moves to Indianpolis, Indiana.	16453885	1472320798941	1472320798994	 	32
32252	346343	The best-of-seven series moves to Indianapolis, Indiana.	The best-of-seven series moves to Indianpolis, Indiana.	16453897	1472320799219	1472320799442	SHIFT	16
32252	346343	The best-of-seven series moves to Indianapolis, Indiana.	The best-of-seven series moves to Indianpolis, Indiana.	16453886	1472320799319	1472320799393	I	73
32252	346343	The best-of-seven series moves to Indianapolis, Indiana.	The best-of-seven series moves to Indianpolis, Indiana.	16453898	1472320799520	1472320799624	n	78
32252	346343	The best-of-seven series moves to Indianapolis, Indiana.	The best-of-seven series moves to Indianpolis, Indiana.	16453900	1472320799704	1472320799858	d	68
32252	346343	The best-of-seven series moves to Indianapolis, Indiana.	The best-of-seven series moves to Indianpolis, Indiana.	16453902	1472320799873	1472320799974	i	73
32252	346343	The best-of-seven series moves to Indianapolis, Indiana.	The best-of-seven series moves to Indianpolis, Indiana.	16453904	1472320799989	1472320800112	a	65
32252	346343	The best-of-seven series moves to Indianapolis, Indiana.	The best-of-seven series moves to Indianpolis, Indiana.	16453906	1472320800112	1472320800258	n	78
32252	346343	The best-of-seven series moves to Indianapolis, Indiana.	The best-of-seven series moves to Indianpolis, Indiana.	16453918	1472320800608	1472320800698	a	65
32252	346343	The best-of-seven series moves to Indianapolis, Indiana.	The best-of-seven series moves to Indianpolis, Indiana.	16453922	1472320800734	1472320800816	.	190
32252	346349	We're here to qualify in the second or third row.	We're here to qualify in the second or third row. 	16453977	1472320802880	1472320803151	SHIFT	16
32252	346349	We're here to qualify in the second or third row.	We're here to qualify in the second or third row. 	16453978	1472320803000	1472320803186	W	87
32252	346349	We're here to qualify in the second or third row.	We're here to qualify in the second or third row. 	16453981	1472320803240	1472320803347	e	69
32252	346349	We're here to qualify in the second or third row.	We're here to qualify in the second or third row. 	16453986	1472320803543	1472320803631	'	222
32252	346349	We're here to qualify in the second or third row.	We're here to qualify in the second or third row. 	16453989	1472320803875	1472320803993	r	82
32252	346349	We're here to qualify in the second or third row.	We're here to qualify in the second or third row. 	16454000	1472320803964	1472320804047	e	69
32252	346349	We're here to qualify in the second or third row.	We're here to qualify in the second or third row. 	16454002	1472320804063	1472320804116	 	32
32252	346349	We're here to qualify in the second or third row.	We're here to qualify in the second or third row. 	16454004	1472320804259	1472320804363	h	72
32252	346349	We're here to qualify in the second or third row.	We're here to qualify in the second or third row. 	16454006	1472320804347	1472320804530	e	69
32252	346349	We're here to qualify in the second or third row.	We're here to qualify in the second or third row. 	16454007	1472320804513	1472320804664	r	82
32252	346349	We're here to qualify in the second or third row.	We're here to qualify in the second or third row. 	16454010	1472320804644	1472320804759	e	69
32252	346349	We're here to qualify in the second or third row.	We're here to qualify in the second or third row. 	16454012	1472320804731	1472320804797	 	32
32252	346349	We're here to qualify in the second or third row.	We're here to qualify in the second or third row. 	16454013	1472320804875	1472320804950	t	84
32252	346349	We're here to qualify in the second or third row.	We're here to qualify in the second or third row. 	16454015	1472320804924	1472320805006	o	79
32252	346349	We're here to qualify in the second or third row.	We're here to qualify in the second or third row. 	16454016	1472320804996	1472320805050	 	32
32252	346349	We're here to qualify in the second or third row.	We're here to qualify in the second or third row. 	16454018	1472320805160	1472320805262	q	81
32252	346349	We're here to qualify in the second or third row.	We're here to qualify in the second or third row. 	16454029	1472320805268	1472320805343	u	85
32252	346349	We're here to qualify in the second or third row.	We're here to qualify in the second or third row. 	16454030	1472320805413	1472320805487	a	65
32252	346349	We're here to qualify in the second or third row.	We're here to qualify in the second or third row. 	16454031	1472320805745	1472320805816	l	76
32252	346349	We're here to qualify in the second or third row.	We're here to qualify in the second or third row. 	16454032	1472320805898	1472320805967	i	73
32252	346349	We're here to qualify in the second or third row.	We're here to qualify in the second or third row. 	16454033	1472320806145	1472320806215	f	70
32252	346349	We're here to qualify in the second or third row.	We're here to qualify in the second or third row. 	16454049	1472320806399	1472320806482	y	89
32252	346349	We're here to qualify in the second or third row.	We're here to qualify in the second or third row. 	16454050	1472320806498	1472320806551	 	32
32252	346349	We're here to qualify in the second or third row.	We're here to qualify in the second or third row. 	16454051	1472320806661	1472320806779	i	73
32252	346349	We're here to qualify in the second or third row.	We're here to qualify in the second or third row. 	16454052	1472320806747	1472320806816	n	78
32252	346349	We're here to qualify in the second or third row.	We're here to qualify in the second or third row. 	16454053	1472320806832	1472320806883	 	32
32252	346349	We're here to qualify in the second or third row.	We're here to qualify in the second or third row. 	16454054	1472320806899	1472320807010	t	84
32252	346349	We're here to qualify in the second or third row.	We're here to qualify in the second or third row. 	16454056	1472320806960	1472320807096	h	72
32252	346349	We're here to qualify in the second or third row.	We're here to qualify in the second or third row. 	16454059	1472320806994	1472320807105	e	69
32252	346349	We're here to qualify in the second or third row.	We're here to qualify in the second or third row. 	16454064	1472320807075	1472320807142	 	32
32252	346349	We're here to qualify in the second or third row.	We're here to qualify in the second or third row. 	16454067	1472320807199	1472320807316	s	83
32252	346349	We're here to qualify in the second or third row.	We're here to qualify in the second or third row. 	16454075	1472320807392	1472320807425	e	51
32252	346349	We're here to qualify in the second or third row.	We're here to qualify in the second or third row. 	16454076	1472320807804	1472320807865	BKSP	8
32252	346349	We're here to qualify in the second or third row.	We're here to qualify in the second or third row. 	16454077	1472320807943	1472320808026	BKSP	8
32252	346349	We're here to qualify in the second or third row.	We're here to qualify in the second or third row. 	16454078	1472320808057	1472320808132	e	69
32252	346349	We're here to qualify in the second or third row.	We're here to qualify in the second or third row. 	16454079	1472320808213	1472320808303	c	67
32252	346349	We're here to qualify in the second or third row.	We're here to qualify in the second or third row. 	16454080	1472320808293	1472320808393	o	79
32252	346349	We're here to qualify in the second or third row.	We're here to qualify in the second or third row. 	16454081	1472320808366	1472320808465	n	78
32252	346349	We're here to qualify in the second or third row.	We're here to qualify in the second or third row. 	16454083	1472320808449	1472320808516	d	68
32252	346349	We're here to qualify in the second or third row.	We're here to qualify in the second or third row. 	16454085	1472320808531	1472320808593	 	32
32252	346349	We're here to qualify in the second or third row.	We're here to qualify in the second or third row. 	16454087	1472320808697	1472320808779	o	79
32252	346349	We're here to qualify in the second or third row.	We're here to qualify in the second or third row. 	16454109	1472320808766	1472320808839	r	82
32252	346349	We're here to qualify in the second or third row.	We're here to qualify in the second or third row. 	16454111	1472320808829	1472320808883	 	32
32252	346349	We're here to qualify in the second or third row.	We're here to qualify in the second or third row. 	16454113	1472320808998	1472320809064	t	84
32252	346349	We're here to qualify in the second or third row.	We're here to qualify in the second or third row. 	16454116	1472320809049	1472320809152	h	72
32252	346349	We're here to qualify in the second or third row.	We're here to qualify in the second or third row. 	16454119	1472320809554	1472320809640	i	73
32252	346349	We're here to qualify in the second or third row.	We're here to qualify in the second or third row. 	16454122	1472320809640	1472320809716	r	82
32252	346349	We're here to qualify in the second or third row.	We're here to qualify in the second or third row. 	16454127	1472320809802	1472320809876	d	68
32252	346349	We're here to qualify in the second or third row.	We're here to qualify in the second or third row. 	16454128	1472320809941	1472320810009	 	32
32252	346349	We're here to qualify in the second or third row.	We're here to qualify in the second or third row. 	16454129	1472320810090	1472320810213	r	82
32252	346349	We're here to qualify in the second or third row.	We're here to qualify in the second or third row. 	16454130	1472320810322	1472320810429	o	79
32252	346349	We're here to qualify in the second or third row.	We're here to qualify in the second or third row. 	16454132	1472320810393	1472320810459	w	87
32252	346349	We're here to qualify in the second or third row.	We're here to qualify in the second or third row. 	16454135	1472320810544	1472320810638	.	190
32252	346349	We're here to qualify in the second or third row.	We're here to qualify in the second or third row. 	16454136	1472320810651	1472320810711	 	32
32252	346355	Then we lit our candles and just stood there silently, holding them.	Then we lit our candles and just stood there silently, holding them. 	16454186	1472320812239	1472320812713	SHIFT	16
32252	346355	Then we lit our candles and just stood there silently, holding them.	Then we lit our candles and just stood there silently, holding them. 	16454183	1472320812609	1472320812713	T	84
32252	346355	Then we lit our candles and just stood there silently, holding them.	Then we lit our candles and just stood there silently, holding them. 	16454190	1472320813078	1472320813154	h	72
32252	346355	Then we lit our candles and just stood there silently, holding them.	Then we lit our candles and just stood there silently, holding them. 	16454193	1472320813133	1472320813214	e	69
32252	346355	Then we lit our candles and just stood there silently, holding them.	Then we lit our candles and just stood there silently, holding them. 	16454196	1472320813262	1472320813400	n	78
32252	346355	Then we lit our candles and just stood there silently, holding them.	Then we lit our candles and just stood there silently, holding them. 	16454205	1472320813362	1472320813427	 	32
32252	346355	Then we lit our candles and just stood there silently, holding them.	Then we lit our candles and just stood there silently, holding them. 	16454206	1472320813524	1472320813670	w	87
32252	346355	Then we lit our candles and just stood there silently, holding them.	Then we lit our candles and just stood there silently, holding them. 	16454209	1472320813701	1472320813801	e	69
32252	346355	Then we lit our candles and just stood there silently, holding them.	Then we lit our candles and just stood there silently, holding them. 	16454211	1472320813801	1472320813885	 	32
32252	346355	Then we lit our candles and just stood there silently, holding them.	Then we lit our candles and just stood there silently, holding them. 	16454213	1472320813972	1472320814022	l	76
32252	346355	Then we lit our candles and just stood there silently, holding them.	Then we lit our candles and just stood there silently, holding them. 	16454215	1472320814096	1472320814172	i	73
32252	346355	Then we lit our candles and just stood there silently, holding them.	Then we lit our candles and just stood there silently, holding them. 	16454216	1472320814149	1472320814210	t	84
32252	346355	Then we lit our candles and just stood there silently, holding them.	Then we lit our candles and just stood there silently, holding them. 	16454217	1472320814226	1472320814282	 	32
32252	346355	Then we lit our candles and just stood there silently, holding them.	Then we lit our candles and just stood there silently, holding them. 	16454218	1472320814351	1472320814473	o	79
32252	346355	Then we lit our candles and just stood there silently, holding them.	Then we lit our candles and just stood there silently, holding them. 	16454219	1472320814462	1472320814578	u	85
32252	346355	Then we lit our candles and just stood there silently, holding them.	Then we lit our candles and just stood there silently, holding them. 	16454220	1472320814563	1472320814631	r	82
32252	346355	Then we lit our candles and just stood there silently, holding them.	Then we lit our candles and just stood there silently, holding them. 	16454221	1472320814683	1472320814733	 	32
32252	346355	Then we lit our candles and just stood there silently, holding them.	Then we lit our candles and just stood there silently, holding them. 	16454226	1472320814848	1472320814946	c	67
32252	346355	Then we lit our candles and just stood there silently, holding them.	Then we lit our candles and just stood there silently, holding them. 	16454228	1472320815004	1472320815104	a	65
32252	346355	Then we lit our candles and just stood there silently, holding them.	Then we lit our candles and just stood there silently, holding them. 	16454230	1472320815119	1472320815214	n	78
32252	346355	Then we lit our candles and just stood there silently, holding them.	Then we lit our candles and just stood there silently, holding them. 	16454232	1472320815261	1472320815347	d	68
32252	346355	Then we lit our candles and just stood there silently, holding them.	Then we lit our candles and just stood there silently, holding them. 	16454234	1472320815384	1472320815464	l	76
32252	346355	Then we lit our candles and just stood there silently, holding them.	Then we lit our candles and just stood there silently, holding them. 	16454245	1472320815481	1472320815591	e	69
32252	346355	Then we lit our candles and just stood there silently, holding them.	Then we lit our candles and just stood there silently, holding them. 	16454246	1472320815564	1472320815650	s	83
32252	346355	Then we lit our candles and just stood there silently, holding them.	Then we lit our candles and just stood there silently, holding them. 	16454247	1472320815616	1472320815690	 	32
32252	346355	Then we lit our candles and just stood there silently, holding them.	Then we lit our candles and just stood there silently, holding them. 	16454248	1472320815794	1472320815943	a	65
32252	346355	Then we lit our candles and just stood there silently, holding them.	Then we lit our candles and just stood there silently, holding them. 	16454253	1472320815892	1472320815992	n	78
32252	346355	Then we lit our candles and just stood there silently, holding them.	Then we lit our candles and just stood there silently, holding them. 	16454255	1472320815952	1472320816087	d	68
32252	346355	Then we lit our candles and just stood there silently, holding them.	Then we lit our candles and just stood there silently, holding them. 	16454256	1472320816046	1472320816126	 	32
32252	346355	Then we lit our candles and just stood there silently, holding them.	Then we lit our candles and just stood there silently, holding them. 	16454257	1472320816172	1472320816242	j	74
32252	346355	Then we lit our candles and just stood there silently, holding them.	Then we lit our candles and just stood there silently, holding them. 	16454258	1472320816343	1472320816422	u	85
32252	346355	Then we lit our candles and just stood there silently, holding them.	Then we lit our candles and just stood there silently, holding them. 	16454259	1472320816392	1472320816518	s	83
32252	346355	Then we lit our candles and just stood there silently, holding them.	Then we lit our candles and just stood there silently, holding them. 	16454261	1472320816497	1472320816588	t	84
32252	346355	Then we lit our candles and just stood there silently, holding them.	Then we lit our candles and just stood there silently, holding them. 	16454264	1472320816549	1472320816679	 	32
32252	346355	Then we lit our candles and just stood there silently, holding them.	Then we lit our candles and just stood there silently, holding them. 	16454269	1472320816797	1472320816893	t	84
32252	346355	Then we lit our candles and just stood there silently, holding them.	Then we lit our candles and just stood there silently, holding them. 	16454272	1472320816889	1472320816943	o	79
32252	346355	Then we lit our candles and just stood there silently, holding them.	Then we lit our candles and just stood there silently, holding them. 	16454275	1472320817028	1472320817112	o	79
32252	346355	Then we lit our candles and just stood there silently, holding them.	Then we lit our candles and just stood there silently, holding them. 	16454317	1472320817375	1472320817424	BKSP	8
32252	346355	Then we lit our candles and just stood there silently, holding them.	Then we lit our candles and just stood there silently, holding them. 	16454319	1472320817505	1472320817550	BKSP	8
32252	346355	Then we lit our candles and just stood there silently, holding them.	Then we lit our candles and just stood there silently, holding them. 	16454321	1472320817622	1472320817682	BKSP	8
32252	346355	Then we lit our candles and just stood there silently, holding them.	Then we lit our candles and just stood there silently, holding them. 	16454323	1472320817736	1472320817805	BKSP	8
32252	346355	Then we lit our candles and just stood there silently, holding them.	Then we lit our candles and just stood there silently, holding them. 	16454325	1472320817780	1472320817921	s	83
32252	346355	Then we lit our candles and just stood there silently, holding them.	Then we lit our candles and just stood there silently, holding them. 	16454327	1472320818195	1472320818281	BKSP	8
32252	346355	Then we lit our candles and just stood there silently, holding them.	Then we lit our candles and just stood there silently, holding them. 	16454329	1472320818307	1472320818357	 	32
32252	346355	Then we lit our candles and just stood there silently, holding them.	Then we lit our candles and just stood there silently, holding them. 	16454331	1472320818392	1472320818480	s	83
32252	346355	Then we lit our candles and just stood there silently, holding them.	Then we lit our candles and just stood there silently, holding them. 	16454333	1472320818495	1472320818596	t	84
32252	346355	Then we lit our candles and just stood there silently, holding them.	Then we lit our candles and just stood there silently, holding them. 	16454337	1472320818617	1472320818666	o	79
32252	346355	Then we lit our candles and just stood there silently, holding them.	Then we lit our candles and just stood there silently, holding them. 	16454340	1472320818753	1472320818818	o	79
32252	346355	Then we lit our candles and just stood there silently, holding them.	Then we lit our candles and just stood there silently, holding them. 	16454343	1472320818981	1472320819074	d	68
32252	346355	Then we lit our candles and just stood there silently, holding them.	Then we lit our candles and just stood there silently, holding them. 	16454348	1472320819074	1472320819129	 	32
32252	346355	Then we lit our candles and just stood there silently, holding them.	Then we lit our candles and just stood there silently, holding them. 	16454350	1472320819178	1472320819284	t	84
32252	346355	Then we lit our candles and just stood there silently, holding them.	Then we lit our candles and just stood there silently, holding them. 	16454354	1472320819274	1472320819384	h	72
32252	346355	Then we lit our candles and just stood there silently, holding them.	Then we lit our candles and just stood there silently, holding them. 	16454356	1472320819347	1472320819435	e	69
32252	346355	Then we lit our candles and just stood there silently, holding them.	Then we lit our candles and just stood there silently, holding them. 	16454359	1472320819418	1472320819540	r	82
32252	346355	Then we lit our candles and just stood there silently, holding them.	Then we lit our candles and just stood there silently, holding them. 	16454363	1472320819515	1472320819595	e	69
32252	346355	Then we lit our candles and just stood there silently, holding them.	Then we lit our candles and just stood there silently, holding them. 	16454367	1472320819564	1472320819634	 	32
32252	346355	Then we lit our candles and just stood there silently, holding them.	Then we lit our candles and just stood there silently, holding them. 	16454369	1472320819812	1472320819920	s	83
32252	346355	Then we lit our candles and just stood there silently, holding them.	Then we lit our candles and just stood there silently, holding them. 	16454390	1472320820038	1472320820098	l	76
32252	346355	Then we lit our candles and just stood there silently, holding them.	Then we lit our candles and just stood there silently, holding them. 	16454394	1472320820301	1472320820349	BKSP	8
32252	346355	Then we lit our candles and just stood there silently, holding them.	Then we lit our candles and just stood there silently, holding them. 	16454397	1472320820454	1472320820539	i	73
32252	346355	Then we lit our candles and just stood there silently, holding them.	Then we lit our candles and just stood there silently, holding them. 	16454399	1472320820586	1472320820647	l	76
32252	346355	Then we lit our candles and just stood there silently, holding them.	Then we lit our candles and just stood there silently, holding them. 	16454402	1472320820694	1472320820765	e	69
32252	346355	Then we lit our candles and just stood there silently, holding them.	Then we lit our candles and just stood there silently, holding them. 	16454403	1472320820780	1472320820893	n	78
32252	346355	Then we lit our candles and just stood there silently, holding them.	Then we lit our candles and just stood there silently, holding them. 	16454404	1472320820874	1472320820947	t	84
32252	346355	Then we lit our candles and just stood there silently, holding them.	Then we lit our candles and just stood there silently, holding them. 	16454405	1472320821057	1472320821142	l	76
32252	346355	Then we lit our candles and just stood there silently, holding them.	Then we lit our candles and just stood there silently, holding them. 	16454406	1472320821204	1472320821260	y	89
32252	346355	Then we lit our candles and just stood there silently, holding them.	Then we lit our candles and just stood there silently, holding them. 	16454407	1472320821389	1472320821439	m	77
32252	346355	Then we lit our candles and just stood there silently, holding them.	Then we lit our candles and just stood there silently, holding them. 	16454408	1472320821419	1472320821498	,	188
32252	346355	Then we lit our candles and just stood there silently, holding them.	Then we lit our candles and just stood there silently, holding them. 	16454409	1472320821514	1472320821569	 	32
32252	346355	Then we lit our candles and just stood there silently, holding them.	Then we lit our candles and just stood there silently, holding them. 	16454436	1472320821846	1472320821890	BKSP	8
32252	346355	Then we lit our candles and just stood there silently, holding them.	Then we lit our candles and just stood there silently, holding them. 	16454437	1472320821967	1472320822030	BKSP	8
32252	346355	Then we lit our candles and just stood there silently, holding them.	Then we lit our candles and just stood there silently, holding them. 	16454438	1472320822099	1472320822180	BKSP	8
32252	346355	Then we lit our candles and just stood there silently, holding them.	Then we lit our candles and just stood there silently, holding them. 	16454439	1472320822346	1472320822447	,	188
32252	346355	Then we lit our candles and just stood there silently, holding them.	Then we lit our candles and just stood there silently, holding them. 	16454440	1472320822447	1472320822517	 	32
32252	346355	Then we lit our candles and just stood there silently, holding them.	Then we lit our candles and just stood there silently, holding them. 	16454442	1472320822682	1472320822832	h	72
32252	346355	Then we lit our candles and just stood there silently, holding them.	Then we lit our candles and just stood there silently, holding them. 	16454444	1472320822811	1472320822897	o	79
32252	346355	Then we lit our candles and just stood there silently, holding them.	Then we lit our candles and just stood there silently, holding them. 	16454446	1472320822980	1472320823023	l	76
32252	346355	Then we lit our candles and just stood there silently, holding them.	Then we lit our candles and just stood there silently, holding them. 	16454447	1472320823035	1472320823099	d	68
32252	346355	Then we lit our candles and just stood there silently, holding them.	Then we lit our candles and just stood there silently, holding them. 	16454450	1472320823133	1472320823198	i	73
32252	346355	Then we lit our candles and just stood there silently, holding them.	Then we lit our candles and just stood there silently, holding them. 	16454453	1472320823213	1472320823303	n	78
32252	346355	Then we lit our candles and just stood there silently, holding them.	Then we lit our candles and just stood there silently, holding them. 	16454457	1472320823253	1472320823340	g	71
32252	346355	Then we lit our candles and just stood there silently, holding them.	Then we lit our candles and just stood there silently, holding them. 	16454471	1472320823310	1472320823392	 	32
32252	346355	Then we lit our candles and just stood there silently, holding them.	Then we lit our candles and just stood there silently, holding them. 	16454474	1472320823450	1472320823543	t	84
32252	346355	Then we lit our candles and just stood there silently, holding them.	Then we lit our candles and just stood there silently, holding them. 	16454477	1472320823494	1472320823559	h	72
32252	346355	Then we lit our candles and just stood there silently, holding them.	Then we lit our candles and just stood there silently, holding them. 	16454480	1472320823559	1472320823643	e	69
32252	346355	Then we lit our candles and just stood there silently, holding them.	Then we lit our candles and just stood there silently, holding them. 	16454482	1472320823658	1472320823742	m	77
32252	346355	Then we lit our candles and just stood there silently, holding them.	Then we lit our candles and just stood there silently, holding them. 	16454484	1472320823765	1472320823842	.	190
32252	346355	Then we lit our candles and just stood there silently, holding them.	Then we lit our candles and just stood there silently, holding them. 	16454479	1472320823885	1472320823916	 	32
