PARTICIPANT_ID	TEST_SECTION_ID	SENTENCE	USER_INPUT	KEYSTROKE_ID	PRESS_TIME	RELEASE_TIME	LETTER	KEYCODE
323131	3480991	It's too involved out here on Saturday with everybody qualifying.	It's to involved out here on Saturday with everybody qualifying.	165375427	1476404873135	1476404873505	SHIFT	16
323131	3480991	It's too involved out here on Saturday with everybody qualifying.	It's to involved out here on Saturday with everybody qualifying.	165375429	1476404873422	1476404873589	I	73
323131	3480991	It's too involved out here on Saturday with everybody qualifying.	It's to involved out here on Saturday with everybody qualifying.	165375431	1476404873996	1476404874121	t	84
323131	3480991	It's too involved out here on Saturday with everybody qualifying.	It's to involved out here on Saturday with everybody qualifying.	165375434	1476404876022	1476404876299	'	222
323131	3480991	It's too involved out here on Saturday with everybody qualifying.	It's to involved out here on Saturday with everybody qualifying.	165375436	1476404876300	1476404876384	s	83
323131	3480991	It's too involved out here on Saturday with everybody qualifying.	It's to involved out here on Saturday with everybody qualifying.	165375438	1476404876526	1476404876757	 	32
323131	3480991	It's too involved out here on Saturday with everybody qualifying.	It's to involved out here on Saturday with everybody qualifying.	165375486	1476404877497	1476404877619	t	84
323131	3480991	It's too involved out here on Saturday with everybody qualifying.	It's to involved out here on Saturday with everybody qualifying.	165375489	1476404877703	1476404877801	o	79
323131	3480991	It's too involved out here on Saturday with everybody qualifying.	It's to involved out here on Saturday with everybody qualifying.	165375497	1476404877882	1476404878000	 	32
323131	3480991	It's too involved out here on Saturday with everybody qualifying.	It's to involved out here on Saturday with everybody qualifying.	165375493	1476404877929	1476404877984	o	79
323131	3480991	It's too involved out here on Saturday with everybody qualifying.	It's to involved out here on Saturday with everybody qualifying.	165375500	1476404878430	1476404878529	i	73
323131	3480991	It's too involved out here on Saturday with everybody qualifying.	It's to involved out here on Saturday with everybody qualifying.	165375542	1476404878661	1476404878808	n	78
323131	3480991	It's too involved out here on Saturday with everybody qualifying.	It's to involved out here on Saturday with everybody qualifying.	165375545	1476404879343	1476404879469	v	86
323131	3480991	It's too involved out here on Saturday with everybody qualifying.	It's to involved out here on Saturday with everybody qualifying.	165375549	1476404879584	1476404879688	o	79
323131	3480991	It's too involved out here on Saturday with everybody qualifying.	It's to involved out here on Saturday with everybody qualifying.	165375553	1476404879803	1476404879921	l	76
323131	3480991	It's too involved out here on Saturday with everybody qualifying.	It's to involved out here on Saturday with everybody qualifying.	165375558	1476404880148	1476404880262	v	86
323131	3480991	It's too involved out here on Saturday with everybody qualifying.	It's to involved out here on Saturday with everybody qualifying.	165375679	1476404880530	1476404880647	e	69
323131	3480991	It's too involved out here on Saturday with everybody qualifying.	It's to involved out here on Saturday with everybody qualifying.	165375681	1476404880778	1476404880915	d	68
323131	3480991	It's too involved out here on Saturday with everybody qualifying.	It's to involved out here on Saturday with everybody qualifying.	165375682	1476404880931	1476404881087	 	32
323131	3480991	It's too involved out here on Saturday with everybody qualifying.	It's to involved out here on Saturday with everybody qualifying.	165375683	1476404882158	1476404882311	BKSP	8
323131	3480991	It's too involved out here on Saturday with everybody qualifying.	It's to involved out here on Saturday with everybody qualifying.	165375684	1476404883209	1476404883954	BKSP	8
323131	3480991	It's too involved out here on Saturday with everybody qualifying.	It's to involved out here on Saturday with everybody qualifying.	165375685	1476404884752	1476404884860	i	73
323131	3480991	It's too involved out here on Saturday with everybody qualifying.	It's to involved out here on Saturday with everybody qualifying.	165375686	1476404884979	1476404885141	n	78
323131	3480991	It's too involved out here on Saturday with everybody qualifying.	It's to involved out here on Saturday with everybody qualifying.	165375741	1476404885395	1476404885511	v	86
323131	3480991	It's too involved out here on Saturday with everybody qualifying.	It's to involved out here on Saturday with everybody qualifying.	165375742	1476404885827	1476404885926	o	79
323131	3480991	It's too involved out here on Saturday with everybody qualifying.	It's to involved out here on Saturday with everybody qualifying.	165375743	1476404886042	1476404886164	l	76
323131	3480991	It's too involved out here on Saturday with everybody qualifying.	It's to involved out here on Saturday with everybody qualifying.	165375744	1476404886411	1476404886514	v	86
323131	3480991	It's too involved out here on Saturday with everybody qualifying.	It's to involved out here on Saturday with everybody qualifying.	165375745	1476404886861	1476404887001	e	69
323131	3480991	It's too involved out here on Saturday with everybody qualifying.	It's to involved out here on Saturday with everybody qualifying.	165375779	1476404887132	1476404887283	d	68
323131	3480991	It's too involved out here on Saturday with everybody qualifying.	It's to involved out here on Saturday with everybody qualifying.	165375780	1476404887648	1476404887820	 	32
323131	3480991	It's too involved out here on Saturday with everybody qualifying.	It's to involved out here on Saturday with everybody qualifying.	165375781	1476404888362	1476404888532	o	79
323131	3480991	It's too involved out here on Saturday with everybody qualifying.	It's to involved out here on Saturday with everybody qualifying.	165375782	1476404888882	1476404889036	u	85
323131	3480991	It's too involved out here on Saturday with everybody qualifying.	It's to involved out here on Saturday with everybody qualifying.	165375818	1476404889014	1476404889132	t	84
323131	3480991	It's too involved out here on Saturday with everybody qualifying.	It's to involved out here on Saturday with everybody qualifying.	165375821	1476404889239	1476404889397	 	32
323131	3480991	It's too involved out here on Saturday with everybody qualifying.	It's to involved out here on Saturday with everybody qualifying.	165375825	1476404889758	1476404889901	h	72
323131	3480991	It's too involved out here on Saturday with everybody qualifying.	It's to involved out here on Saturday with everybody qualifying.	165375830	1476404890008	1476404890190	e	69
323131	3480991	It's too involved out here on Saturday with everybody qualifying.	It's to involved out here on Saturday with everybody qualifying.	165375835	1476404890169	1476404890384	r	82
323131	3480991	It's too involved out here on Saturday with everybody qualifying.	It's to involved out here on Saturday with everybody qualifying.	165375943	1476404890357	1476404890490	e	69
323131	3480991	It's too involved out here on Saturday with everybody qualifying.	It's to involved out here on Saturday with everybody qualifying.	165375947	1476404890423	1476404890573	 	32
323131	3480991	It's too involved out here on Saturday with everybody qualifying.	It's to involved out here on Saturday with everybody qualifying.	165375951	1476404891115	1476404891173	o	79
323131	3480991	It's too involved out here on Saturday with everybody qualifying.	It's to involved out here on Saturday with everybody qualifying.	165375955	1476404891368	1476404891503	n	78
323131	3480991	It's too involved out here on Saturday with everybody qualifying.	It's to involved out here on Saturday with everybody qualifying.	165375958	1476404891618	1476404891720	 	32
323131	3480991	It's too involved out here on Saturday with everybody qualifying.	It's to involved out here on Saturday with everybody qualifying.	165375960	1476404892667	1476404892921	SHIFT	16
323131	3480991	It's too involved out here on Saturday with everybody qualifying.	It's to involved out here on Saturday with everybody qualifying.	165376037	1476404892858	1476404893063	S	83
323131	3480991	It's too involved out here on Saturday with everybody qualifying.	It's to involved out here on Saturday with everybody qualifying.	165376040	1476404893031	1476404893207	a	65
323131	3480991	It's too involved out here on Saturday with everybody qualifying.	It's to involved out here on Saturday with everybody qualifying.	165376046	1476404893798	1476404893941	t	84
323131	3480991	It's too involved out here on Saturday with everybody qualifying.	It's to involved out here on Saturday with everybody qualifying.	165376051	1476404894104	1476404894241	u	85
323131	3480991	It's too involved out here on Saturday with everybody qualifying.	It's to involved out here on Saturday with everybody qualifying.	165376056	1476404894332	1476404894439	r	82
323131	3480991	It's too involved out here on Saturday with everybody qualifying.	It's to involved out here on Saturday with everybody qualifying.	165376060	1476404894753	1476404894880	d	68
323131	3480991	It's too involved out here on Saturday with everybody qualifying.	It's to involved out here on Saturday with everybody qualifying.	165376121	1476404894979	1476404895126	a	65
323131	3480991	It's too involved out here on Saturday with everybody qualifying.	It's to involved out here on Saturday with everybody qualifying.	165376125	1476404895488	1476404895623	y	89
323131	3480991	It's too involved out here on Saturday with everybody qualifying.	It's to involved out here on Saturday with everybody qualifying.	165376131	1476404895724	1476404895929	 	32
323131	3480991	It's too involved out here on Saturday with everybody qualifying.	It's to involved out here on Saturday with everybody qualifying.	165376134	1476404896398	1476404896520	w	87
323131	3480991	It's too involved out here on Saturday with everybody qualifying.	It's to involved out here on Saturday with everybody qualifying.	165376139	1476404896604	1476404896752	i	73
323131	3480991	It's too involved out here on Saturday with everybody qualifying.	It's to involved out here on Saturday with everybody qualifying.	165376197	1476404896909	1476404897011	t	84
323131	3480991	It's too involved out here on Saturday with everybody qualifying.	It's to involved out here on Saturday with everybody qualifying.	165376200	1476404897158	1476404897288	h	72
323131	3480991	It's too involved out here on Saturday with everybody qualifying.	It's to involved out here on Saturday with everybody qualifying.	165376203	1476404897295	1476404897497	 	32
323131	3480991	It's too involved out here on Saturday with everybody qualifying.	It's to involved out here on Saturday with everybody qualifying.	165376206	1476404898121	1476404898221	e	69
323131	3480991	It's too involved out here on Saturday with everybody qualifying.	It's to involved out here on Saturday with everybody qualifying.	165376209	1476404898615	1476404898768	v	86
323131	3480991	It's too involved out here on Saturday with everybody qualifying.	It's to involved out here on Saturday with everybody qualifying.	165376254	1476404899000	1476404899193	e	69
323131	3480991	It's too involved out here on Saturday with everybody qualifying.	It's to involved out here on Saturday with everybody qualifying.	165376255	1476404899156	1476404899255	r	82
323131	3480991	It's too involved out here on Saturday with everybody qualifying.	It's to involved out here on Saturday with everybody qualifying.	165376256	1476404899468	1476404899528	y	89
323131	3480991	It's too involved out here on Saturday with everybody qualifying.	It's to involved out here on Saturday with everybody qualifying.	165376258	1476404899973	1476404900078	b	66
323131	3480991	It's too involved out here on Saturday with everybody qualifying.	It's to involved out here on Saturday with everybody qualifying.	165376263	1476404900225	1476404900360	o	79
323131	3480991	It's too involved out here on Saturday with everybody qualifying.	It's to involved out here on Saturday with everybody qualifying.	165376405	1476404900863	1476404900996	d	68
323131	3480991	It's too involved out here on Saturday with everybody qualifying.	It's to involved out here on Saturday with everybody qualifying.	165376407	1476404901306	1476404901438	y	89
323131	3480991	It's too involved out here on Saturday with everybody qualifying.	It's to involved out here on Saturday with everybody qualifying.	165376409	1476404901754	1476404901907	 	32
323131	3480991	It's too involved out here on Saturday with everybody qualifying.	It's to involved out here on Saturday with everybody qualifying.	165376411	1476404903009	1476404903112	a	65
323131	3480991	It's too involved out here on Saturday with everybody qualifying.	It's to involved out here on Saturday with everybody qualifying.	165376414	1476404903649	1476404903814	BKSP	8
323131	3480991	It's too involved out here on Saturday with everybody qualifying.	It's to involved out here on Saturday with everybody qualifying.	165376419	1476404904000	1476404904116	q	81
323131	3480991	It's too involved out here on Saturday with everybody qualifying.	It's to involved out here on Saturday with everybody qualifying.	165376496	1476404904231	1476404904385	a	65
323131	3480991	It's too involved out here on Saturday with everybody qualifying.	It's to involved out here on Saturday with everybody qualifying.	165376500	1476404905061	1476404905191	BKSP	8
323131	3480991	It's too involved out here on Saturday with everybody qualifying.	It's to involved out here on Saturday with everybody qualifying.	165376505	1476404905534	1476404905641	u	85
323131	3480991	It's too involved out here on Saturday with everybody qualifying.	It's to involved out here on Saturday with everybody qualifying.	165376508	1476404905726	1476404905835	a	65
323131	3480991	It's too involved out here on Saturday with everybody qualifying.	It's to involved out here on Saturday with everybody qualifying.	165376513	1476404906245	1476404906429	l	76
323131	3480991	It's too involved out here on Saturday with everybody qualifying.	It's to involved out here on Saturday with everybody qualifying.	165376517	1476404906627	1476404906796	i	73
323131	3480991	It's too involved out here on Saturday with everybody qualifying.	It's to involved out here on Saturday with everybody qualifying.	165376578	1476404907891	1476404907994	f	70
323131	3480991	It's too involved out here on Saturday with everybody qualifying.	It's to involved out here on Saturday with everybody qualifying.	165376581	1476404908375	1476404908457	y	89
323131	3480991	It's too involved out here on Saturday with everybody qualifying.	It's to involved out here on Saturday with everybody qualifying.	165376585	1476404908734	1476404908855	i	73
323131	3480991	It's too involved out here on Saturday with everybody qualifying.	It's to involved out here on Saturday with everybody qualifying.	165376588	1476404909034	1476404909187	n	78
323131	3480991	It's too involved out here on Saturday with everybody qualifying.	It's to involved out here on Saturday with everybody qualifying.	165376593	1476404909523	1476404909613	g	71
323131	3480991	It's too involved out here on Saturday with everybody qualifying.	It's to involved out here on Saturday with everybody qualifying.	165376623	1476404909816	1476404909933	.	190
323131	3481017	Do you need it today?	Do you need it today?	165376735	1476404912368	1476404912771	SHIFT	16
323131	3481017	Do you need it today?	Do you need it today?	165376738	1476404912685	1476404912787	D	68
323131	3481017	Do you need it today?	Do you need it today?	165376741	1476404913017	1476404913185	o	79
323131	3481017	Do you need it today?	Do you need it today?	165376744	1476404913248	1476404913443	 	32
323131	3481017	Do you need it today?	Do you need it today?	165376746	1476404913868	1476404914000	y	89
323131	3481017	Do you need it today?	Do you need it today?	165376749	1476404914100	1476404914341	o	79
323131	3481017	Do you need it today?	Do you need it today?	165377677	1476404914300	1476404914456	u	85
323131	3481017	Do you need it today?	Do you need it today?	165377681	1476404914625	1476404914726	ALT	18
323131	3481017	Do you need it today?	Do you need it today?	165377683	1476404940406	1476404940511	 	32
323131	3481017	Do you need it today?	Do you need it today?	165377689	1476404940660	1476404940792	n	78
323131	3481017	Do you need it today?	Do you need it today?	165377696	1476404940887	1476404940986	e	69
323131	3481017	Do you need it today?	Do you need it today?	165377701	1476404941113	1476404941185	e	69
323131	3481017	Do you need it today?	Do you need it today?	165377704	1476404941303	1476404941404	d	68
323131	3481017	Do you need it today?	Do you need it today?	165377749	1476404941430	1476404941588	 	32
323131	3481017	Do you need it today?	Do you need it today?	165377750	1476404942120	1476404942251	i	73
323131	3481017	Do you need it today?	Do you need it today?	165377752	1476404942320	1476404942425	t	84
323131	3481017	Do you need it today?	Do you need it today?	165377754	1476404942456	1476404942625	 	32
323131	3481017	Do you need it today?	Do you need it today?	165377757	1476404942710	1476404942825	t	84
323131	3481017	Do you need it today?	Do you need it today?	165377869	1476404943026	1476404943174	o	79
323131	3481017	Do you need it today?	Do you need it today?	165377872	1476404943400	1476404943517	d	68
323131	3481017	Do you need it today?	Do you need it today?	165377874	1476404943617	1476404943748	a	65
323131	3481017	Do you need it today?	Do you need it today?	165377877	1476404943976	1476404944074	y	89
323131	3481017	Do you need it today?	Do you need it today?	165377881	1476404945360	1476404945491	?	191
323131	3481044	New switches can also be added to the Paging System.	New switches can also be added to the Paging System.	165378003	1476404947944	1476404948099	N	78
323131	3481044	New switches can also be added to the Paging System.	New switches can also be added to the Paging System.	165378011	1476404948465	1476404948519	e	69
323131	3481044	New switches can also be added to the Paging System.	New switches can also be added to the Paging System.	165378016	1476404949004	1476404949136	w	87
323131	3481044	New switches can also be added to the Paging System.	New switches can also be added to the Paging System.	165378022	1476404949103	1476404949156	e	69
323131	3481044	New switches can also be added to the Paging System.	New switches can also be added to the Paging System.	165378025	1476404949279	1476404949459	 	32
323131	3481044	New switches can also be added to the Paging System.	New switches can also be added to the Paging System.	165378776	1476404950301	1476404950419	BKSP	8
323131	3481044	New switches can also be added to the Paging System.	New switches can also be added to the Paging System.	165378777	1476404950497	1476404950600	BKSP	8
323131	3481044	New switches can also be added to the Paging System.	New switches can also be added to the Paging System.	165378781	1476404950857	1476404951062	ALT	18
323131	3481044	New switches can also be added to the Paging System.	New switches can also be added to the Paging System.	165378784	1476404956480	1476404956555	ALT	18
323131	3481044	New switches can also be added to the Paging System.	New switches can also be added to the Paging System.	165378788	1476404961433	1476404961543	 	32
323131	3481044	New switches can also be added to the Paging System.	New switches can also be added to the Paging System.	165378790	1476404962404	1476404963076	SHIFT	16
323131	3481044	New switches can also be added to the Paging System.	New switches can also be added to the Paging System.	165378792	1476404962980	1476404963153	S	83
323131	3481044	New switches can also be added to the Paging System.	New switches can also be added to the Paging System.	165378794	1476404963737	1476404963883	BKSP	8
323131	3481044	New switches can also be added to the Paging System.	New switches can also be added to the Paging System.	165378795	1476404963974	1476404964115	s	83
323131	3481044	New switches can also be added to the Paging System.	New switches can also be added to the Paging System.	165378796	1476404964656	1476404964757	w	87
323131	3481044	New switches can also be added to the Paging System.	New switches can also be added to the Paging System.	165378797	1476404965145	1476404965308	i	73
323131	3481044	New switches can also be added to the Paging System.	New switches can also be added to the Paging System.	165378830	1476404965460	1476404965559	t	84
323131	3481044	New switches can also be added to the Paging System.	New switches can also be added to the Paging System.	165378831	1476404965828	1476404965954	c	67
323131	3481044	New switches can also be added to the Paging System.	New switches can also be added to the Paging System.	165378833	1476404966176	1476404966307	h	72
323131	3481044	New switches can also be added to the Paging System.	New switches can also be added to the Paging System.	165378835	1476404966449	1476404966581	e	69
323131	3481044	New switches can also be added to the Paging System.	New switches can also be added to the Paging System.	165378837	1476404966701	1476404966844	s	83
323131	3481044	New switches can also be added to the Paging System.	New switches can also be added to the Paging System.	165378906	1476404966813	1476404966976	 	32
323131	3481044	New switches can also be added to the Paging System.	New switches can also be added to the Paging System.	165378908	1476404967388	1476404967505	c	67
323131	3481044	New switches can also be added to the Paging System.	New switches can also be added to the Paging System.	165378913	1476404967651	1476404967802	a	65
323131	3481044	New switches can also be added to the Paging System.	New switches can also be added to the Paging System.	165378919	1476404967782	1476404967897	n	78
323131	3481044	New switches can also be added to the Paging System.	New switches can also be added to the Paging System.	165378923	1476404968342	1476404968453	 	32
323131	3481044	New switches can also be added to the Paging System.	New switches can also be added to the Paging System.	165378926	1476404968536	1476404968689	a	65
323131	3481044	New switches can also be added to the Paging System.	New switches can also be added to the Paging System.	165379000	1476404969117	1476404969294	l	76
323131	3481044	New switches can also be added to the Paging System.	New switches can also be added to the Paging System.	165379004	1476404969341	1476404969478	s	83
323131	3481044	New switches can also be added to the Paging System.	New switches can also be added to the Paging System.	165379011	1476404969571	1476404969725	o	79
323131	3481044	New switches can also be added to the Paging System.	New switches can also be added to the Paging System.	165379016	1476404969772	1476404969920	 	32
323131	3481044	New switches can also be added to the Paging System.	New switches can also be added to the Paging System.	165379021	1476404970599	1476404970733	b	66
323131	3481044	New switches can also be added to the Paging System.	New switches can also be added to the Paging System.	165379096	1476404970825	1476404970969	e	69
323131	3481044	New switches can also be added to the Paging System.	New switches can also be added to the Paging System.	165379100	1476404970949	1476404971137	 	32
323131	3481044	New switches can also be added to the Paging System.	New switches can also be added to the Paging System.	165379106	1476404972070	1476404972183	a	65
323131	3481044	New switches can also be added to the Paging System.	New switches can also be added to the Paging System.	165379110	1476404972330	1476404972433	d	68
323131	3481044	New switches can also be added to the Paging System.	New switches can also be added to the Paging System.	165379113	1476404972517	1476404972617	d	68
323131	3481044	New switches can also be added to the Paging System.	New switches can also be added to the Paging System.	165379189	1476404972732	1476404972853	e	69
323131	3481044	New switches can also be added to the Paging System.	New switches can also be added to the Paging System.	165379193	1476404972946	1476404973080	d	68
323131	3481044	New switches can also be added to the Paging System.	New switches can also be added to the Paging System.	165379198	1476404973083	1476404973268	 	32
323131	3481044	New switches can also be added to the Paging System.	New switches can also be added to the Paging System.	165379202	1476404973702	1476404973815	t	84
323131	3481044	New switches can also be added to the Paging System.	New switches can also be added to the Paging System.	165379205	1476404974114	1476404974287	o	79
323131	3481044	New switches can also be added to the Paging System.	New switches can also be added to the Paging System.	165379272	1476404974315	1476404974474	 	32
323131	3481044	New switches can also be added to the Paging System.	New switches can also be added to the Paging System.	165379276	1476404974799	1476404974915	t	84
323131	3481044	New switches can also be added to the Paging System.	New switches can also be added to the Paging System.	165379279	1476404975031	1476404975141	h	72
323131	3481044	New switches can also be added to the Paging System.	New switches can also be added to the Paging System.	165379281	1476404975548	1476404975664	e	69
323131	3481044	New switches can also be added to the Paging System.	New switches can also be added to the Paging System.	165379283	1476404975733	1476404975881	 	32
323131	3481044	New switches can also be added to the Paging System.	New switches can also be added to the Paging System.	165379434	1476404976406	1476404976840	SHIFT	16
323131	3481044	New switches can also be added to the Paging System.	New switches can also be added to the Paging System.	165379432	1476404976559	1476404976706	P	80
323131	3481044	New switches can also be added to the Paging System.	New switches can also be added to the Paging System.	165379435	1476404976806	1476404977053	A	65
323131	3481044	New switches can also be added to the Paging System.	New switches can also be added to the Paging System.	165379436	1476404978031	1476404978202	BKSP	8
323131	3481044	New switches can also be added to the Paging System.	New switches can also be added to the Paging System.	165379437	1476404978288	1476404978435	a	65
323131	3481044	New switches can also be added to the Paging System.	New switches can also be added to the Paging System.	165379439	1476404979175	1476404979277	g	71
323131	3481044	New switches can also be added to the Paging System.	New switches can also be added to the Paging System.	165379441	1476404979339	1476404979471	i	73
323131	3481044	New switches can also be added to the Paging System.	New switches can also be added to the Paging System.	165379540	1476404979655	1476404979786	n	78
323131	3481044	New switches can also be added to the Paging System.	New switches can also be added to the Paging System.	165379545	1476404979970	1476404980077	g	71
323131	3481044	New switches can also be added to the Paging System.	New switches can also be added to the Paging System.	165379549	1476404980160	1476404980328	 	32
323131	3481044	New switches can also be added to the Paging System.	New switches can also be added to the Paging System.	165379554	1476404981026	1476404981295	SHIFT	16
323131	3481044	New switches can also be added to the Paging System.	New switches can also be added to the Paging System.	165379558	1476404981246	1476404981357	S	83
323131	3481044	New switches can also be added to the Paging System.	New switches can also be added to the Paging System.	165379563	1476404981695	1476404981784	y	89
323131	3481044	New switches can also be added to the Paging System.	New switches can also be added to the Paging System.	165379627	1476404982173	1476404982264	s	83
323131	3481044	New switches can also be added to the Paging System.	New switches can also be added to the Paging System.	165379629	1476404982443	1476404982558	t	84
323131	3481044	New switches can also be added to the Paging System.	New switches can also be added to the Paging System.	165379632	1476404982698	1476404982829	e	69
323131	3481044	New switches can also be added to the Paging System.	New switches can also be added to the Paging System.	165379634	1476404982876	1476404982982	m	77
323131	3481044	New switches can also be added to the Paging System.	New switches can also be added to the Paging System.	165379635	1476404983160	1476404983261	,	188
323131	3481044	New switches can also be added to the Paging System.	New switches can also be added to the Paging System.	165379715	1476404983747	1476404983878	BKSP	8
323131	3481044	New switches can also be added to the Paging System.	New switches can also be added to the Paging System.	165379719	1476404984455	1476404984593	.	190
323131	3481081	I would love to take Dawn and Sara riding.	I would love to take Dawn and Sara riding.	165379915	1476404986986	1476404987307	SHIFT	16
323131	3481081	I would love to take Dawn and Sara riding.	I would love to take Dawn and Sara riding.	165379920	1476404987216	1476404987370	I	73
323131	3481081	I would love to take Dawn and Sara riding.	I would love to take Dawn and Sara riding.	165379923	1476404987554	1476404987732	 	32
323131	3481081	I would love to take Dawn and Sara riding.	I would love to take Dawn and Sara riding.	165379927	1476404987895	1476404988063	w	87
323131	3481081	I would love to take Dawn and Sara riding.	I would love to take Dawn and Sara riding.	165379930	1476404988325	1476404988472	o	79
323131	3481081	I would love to take Dawn and Sara riding.	I would love to take Dawn and Sara riding.	165379931	1476404988665	1476404988811	u	85
323131	3481081	I would love to take Dawn and Sara riding.	I would love to take Dawn and Sara riding.	165380010	1476404989895	1476404990045	l	76
323131	3481081	I would love to take Dawn and Sara riding.	I would love to take Dawn and Sara riding.	165380012	1476404990026	1476404990150	d	68
323131	3481081	I would love to take Dawn and Sara riding.	I would love to take Dawn and Sara riding.	165380015	1476404990685	1476404990754	 	32
323131	3481081	I would love to take Dawn and Sara riding.	I would love to take Dawn and Sara riding.	165380019	1476404991286	1476404991406	l	76
323131	3481081	I would love to take Dawn and Sara riding.	I would love to take Dawn and Sara riding.	165380022	1476404991477	1476404991599	o	79
323131	3481081	I would love to take Dawn and Sara riding.	I would love to take Dawn and Sara riding.	165380055	1476404991856	1476404992004	v	86
323131	3481081	I would love to take Dawn and Sara riding.	I would love to take Dawn and Sara riding.	165380056	1476404992171	1476404992337	e	69
323131	3481081	I would love to take Dawn and Sara riding.	I would love to take Dawn and Sara riding.	165380057	1476404992261	1476404992429	 	32
323131	3481081	I would love to take Dawn and Sara riding.	I would love to take Dawn and Sara riding.	165380058	1476404992908	1476404993031	t	84
323131	3481081	I would love to take Dawn and Sara riding.	I would love to take Dawn and Sara riding.	165380060	1476404993104	1476404993270	o	79
323131	3481081	I would love to take Dawn and Sara riding.	I would love to take Dawn and Sara riding.	165380136	1476404993235	1476404993399	 	32
323131	3481081	I would love to take Dawn and Sara riding.	I would love to take Dawn and Sara riding.	165380140	1476404993637	1476404993747	t	84
323131	3481081	I would love to take Dawn and Sara riding.	I would love to take Dawn and Sara riding.	165380143	1476404993945	1476404994120	a	65
323131	3481081	I would love to take Dawn and Sara riding.	I would love to take Dawn and Sara riding.	165380147	1476404994152	1476404994320	k	75
323131	3481081	I would love to take Dawn and Sara riding.	I would love to take Dawn and Sara riding.	165380151	1476404994371	1476404994514	e	69
323131	3481081	I would love to take Dawn and Sara riding.	I would love to take Dawn and Sara riding.	165380154	1476404994771	1476404994948	 	32
323131	3481081	I would love to take Dawn and Sara riding.	I would love to take Dawn and Sara riding.	165380224	1476404995879	1476404996277	SHIFT	16
323131	3481081	I would love to take Dawn and Sara riding.	I would love to take Dawn and Sara riding.	165380225	1476404996202	1476404996324	D	68
323131	3481081	I would love to take Dawn and Sara riding.	I would love to take Dawn and Sara riding.	165380227	1476404996440	1476404996611	a	65
323131	3481081	I would love to take Dawn and Sara riding.	I would love to take Dawn and Sara riding.	165380230	1476404996842	1476404996961	w	87
323131	3481081	I would love to take Dawn and Sara riding.	I would love to take Dawn and Sara riding.	165380234	1476404997330	1476404997419	n	78
323131	3481081	I would love to take Dawn and Sara riding.	I would love to take Dawn and Sara riding.	165380239	1476404997535	1476404997692	 	32
323131	3481081	I would love to take Dawn and Sara riding.	I would love to take Dawn and Sara riding.	165380345	1476404998445	1476404998588	a	65
323131	3481081	I would love to take Dawn and Sara riding.	I would love to take Dawn and Sara riding.	165380347	1476404998708	1476404998877	n	78
323131	3481081	I would love to take Dawn and Sara riding.	I would love to take Dawn and Sara riding.	165380349	1476404999192	1476404999279	d	68
323131	3481081	I would love to take Dawn and Sara riding.	I would love to take Dawn and Sara riding.	165380351	1476404999279	1476404999441	 	32
323131	3481081	I would love to take Dawn and Sara riding.	I would love to take Dawn and Sara riding.	165380352	1476404999736	1476404999880	s	83
323131	3481081	I would love to take Dawn and Sara riding.	I would love to take Dawn and Sara riding.	165380440	1476404999954	1476405000064	a	65
323131	3481081	I would love to take Dawn and Sara riding.	I would love to take Dawn and Sara riding.	165380443	1476405000566	1476405000683	BKSP	8
323131	3481081	I would love to take Dawn and Sara riding.	I would love to take Dawn and Sara riding.	165380445	1476405000793	1476405000940	BKSP	8
323131	3481081	I would love to take Dawn and Sara riding.	I would love to take Dawn and Sara riding.	165380448	1476405000940	1476405001561	SHIFT	16
323131	3481081	I would love to take Dawn and Sara riding.	I would love to take Dawn and Sara riding.	165380450	1476405001494	1476405001626	S	83
323131	3481081	I would love to take Dawn and Sara riding.	I would love to take Dawn and Sara riding.	165380452	1476405001673	1476405001894	a	65
323131	3481081	I would love to take Dawn and Sara riding.	I would love to take Dawn and Sara riding.	165380454	1476405001957	1476405002129	e	69
323131	3481081	I would love to take Dawn and Sara riding.	I would love to take Dawn and Sara riding.	165380456	1476405002261	1476405002380	a	65
323131	3481081	I would love to take Dawn and Sara riding.	I would love to take Dawn and Sara riding.	165380489	1476405002636	1476405002767	BKSP	8
323131	3481081	I would love to take Dawn and Sara riding.	I would love to take Dawn and Sara riding.	165380491	1476405002900	1476405003020	BKSP	8
323131	3481081	I would love to take Dawn and Sara riding.	I would love to take Dawn and Sara riding.	165380493	1476405003152	1476405003241	r	82
323131	3481081	I would love to take Dawn and Sara riding.	I would love to take Dawn and Sara riding.	165380495	1476405003385	1476405003562	a	65
323131	3481081	I would love to take Dawn and Sara riding.	I would love to take Dawn and Sara riding.	165380497	1476405003593	1476405003785	 	32
323131	3481081	I would love to take Dawn and Sara riding.	I would love to take Dawn and Sara riding.	165380499	1476405004208	1476405004344	r	82
323131	3481081	I would love to take Dawn and Sara riding.	I would love to take Dawn and Sara riding.	165380501	1476405004424	1476405004586	i	73
323131	3481081	I would love to take Dawn and Sara riding.	I would love to take Dawn and Sara riding.	165380601	1476405004675	1476405004828	d	68
323131	3481081	I would love to take Dawn and Sara riding.	I would love to take Dawn and Sara riding.	165380603	1476405005184	1476405005320	i	73
323131	3481081	I would love to take Dawn and Sara riding.	I would love to take Dawn and Sara riding.	165380605	1476405005516	1476405005672	n	78
323131	3481081	I would love to take Dawn and Sara riding.	I would love to take Dawn and Sara riding.	165380607	1476405005868	1476405006002	e	69
323131	3481081	I would love to take Dawn and Sara riding.	I would love to take Dawn and Sara riding.	165380609	1476405006778	1476405006929	BKSP	8
323131	3481081	I would love to take Dawn and Sara riding.	I would love to take Dawn and Sara riding.	165380611	1476405007405	1476405007530	g	71
323131	3481081	I would love to take Dawn and Sara riding.	I would love to take Dawn and Sara riding.	165380631	1476405007850	1476405007997	.	190
323131	3481102	Let me know if you can't open it.	Let me know if you can't open it.	165380808	1476405010475	1476405010760	SHIFT	16
323131	3481102	Let me know if you can't open it.	Let me know if you can't open it.	165380810	1476405010602	1476405010791	L	76
323131	3481102	Let me know if you can't open it.	Let me know if you can't open it.	165380811	1476405011187	1476405011300	e	69
323131	3481102	Let me know if you can't open it.	Let me know if you can't open it.	165380812	1476405011479	1476405011579	t	84
323131	3481102	Let me know if you can't open it.	Let me know if you can't open it.	165380813	1476405011626	1476405011829	 	32
323131	3481102	Let me know if you can't open it.	Let me know if you can't open it.	165380814	1476405012371	1476405012504	m	77
323131	3481102	Let me know if you can't open it.	Let me know if you can't open it.	165380845	1476405012574	1476405012690	e	69
323131	3481102	Let me know if you can't open it.	Let me know if you can't open it.	165380847	1476405012706	1476405012879	 	32
323131	3481102	Let me know if you can't open it.	Let me know if you can't open it.	165380850	1476405013437	1476405013575	k	75
323131	3481102	Let me know if you can't open it.	Let me know if you can't open it.	165380854	1476405013798	1476405013914	n	78
323131	3481102	Let me know if you can't open it.	Let me know if you can't open it.	165380857	1476405014046	1476405014262	o	79
323131	3481102	Let me know if you can't open it.	Let me know if you can't open it.	165380921	1476405014588	1476405014689	w	87
323131	3481102	Let me know if you can't open it.	Let me know if you can't open it.	165380923	1476405015289	1476405015442	 	32
323131	3481102	Let me know if you can't open it.	Let me know if you can't open it.	165380924	1476405015520	1476405015674	i	73
323131	3481102	Let me know if you can't open it.	Let me know if you can't open it.	165380925	1476405015880	1476405016040	f	70
323131	3481102	Let me know if you can't open it.	Let me know if you can't open it.	165381009	1476405016031	1476405016197	 	32
323131	3481102	Let me know if you can't open it.	Let me know if you can't open it.	165381012	1476405017318	1476405017463	y	89
323131	3481102	Let me know if you can't open it.	Let me know if you can't open it.	165381014	1476405017371	1476405017618	o	79
323131	3481102	Let me know if you can't open it.	Let me know if you can't open it.	165381016	1476405017706	1476405017838	u	85
323131	3481102	Let me know if you can't open it.	Let me know if you can't open it.	165381018	1476405018485	1476405018633	 	32
323131	3481102	Let me know if you can't open it.	Let me know if you can't open it.	165381019	1476405019108	1476405019224	c	67
323131	3481102	Let me know if you can't open it.	Let me know if you can't open it.	165381088	1476405019356	1476405019493	a	65
323131	3481102	Let me know if you can't open it.	Let me know if you can't open it.	165381089	1476405019643	1476405019737	n	78
323131	3481102	Let me know if you can't open it.	Let me know if you can't open it.	165381090	1476405021022	1476405021157	'	222
323131	3481102	Let me know if you can't open it.	Let me know if you can't open it.	165381091	1476405021502	1476405021631	t	84
323131	3481102	Let me know if you can't open it.	Let me know if you can't open it.	165381092	1476405021647	1476405021813	 	32
323131	3481102	Let me know if you can't open it.	Let me know if you can't open it.	165381155	1476405023047	1476405023182	o	79
323131	3481102	Let me know if you can't open it.	Let me know if you can't open it.	165381156	1476405024774	1476405024906	p	80
323131	3481102	Let me know if you can't open it.	Let me know if you can't open it.	165381157	1476405025060	1476405025292	e	69
323131	3481102	Let me know if you can't open it.	Let me know if you can't open it.	165381159	1476405025738	1476405025821	n	78
323131	3481102	Let me know if you can't open it.	Let me know if you can't open it.	165381161	1476405025907	1476405026036	 	32
323131	3481102	Let me know if you can't open it.	Let me know if you can't open it.	165381176	1476405026642	1476405026769	i	73
323131	3481102	Let me know if you can't open it.	Let me know if you can't open it.	165381177	1476405026858	1476405026980	t	84
323131	3481102	Let me know if you can't open it.	Let me know if you can't open it.	165381178	1476405027294	1476405027403	.	190
323131	3481114	Add a Star Trek convention and sports memorabilia show to the mix.	Add a Star Trek convention and sports meemorabillia show to the mix.	165381401	1476405030188	1476405030696	SHIFT	16
323131	3481114	Add a Star Trek convention and sports memorabilia show to the mix.	Add a Star Trek convention and sports meemorabillia show to the mix.	165381404	1476405030701	1476405030864	a	65
323131	3481114	Add a Star Trek convention and sports memorabilia show to the mix.	Add a Star Trek convention and sports meemorabillia show to the mix.	165381409	1476405031531	1476405031737	BKSP	8
323131	3481114	Add a Star Trek convention and sports memorabilia show to the mix.	Add a Star Trek convention and sports meemorabillia show to the mix.	165381413	1476405031910	1476405032184	SHIFT	16
323131	3481114	Add a Star Trek convention and sports memorabilia show to the mix.	Add a Star Trek convention and sports meemorabillia show to the mix.	165381417	1476405032119	1476405032280	A	65
323131	3481114	Add a Star Trek convention and sports memorabilia show to the mix.	Add a Star Trek convention and sports meemorabillia show to the mix.	165381425	1476405033150	1476405033262	d	68
323131	3481114	Add a Star Trek convention and sports memorabilia show to the mix.	Add a Star Trek convention and sports meemorabillia show to the mix.	165381429	1476405033364	1476405033433	d	68
323131	3481114	Add a Star Trek convention and sports memorabilia show to the mix.	Add a Star Trek convention and sports meemorabillia show to the mix.	165381432	1476405033433	1476405033611	 	32
323131	3481114	Add a Star Trek convention and sports memorabilia show to the mix.	Add a Star Trek convention and sports meemorabillia show to the mix.	165381520	1476405033638	1476405033781	a	65
323131	3481114	Add a Star Trek convention and sports memorabilia show to the mix.	Add a Star Trek convention and sports meemorabillia show to the mix.	165381523	1476405033849	1476405033996	 	32
323131	3481114	Add a Star Trek convention and sports memorabilia show to the mix.	Add a Star Trek convention and sports meemorabillia show to the mix.	165381528	1476405035457	1476405035605	s	83
323131	3481114	Add a Star Trek convention and sports memorabilia show to the mix.	Add a Star Trek convention and sports meemorabillia show to the mix.	165381534	1476405036389	1476405036551	BKSP	8
323131	3481114	Add a Star Trek convention and sports memorabilia show to the mix.	Add a Star Trek convention and sports meemorabillia show to the mix.	165381538	1476405036590	1476405036832	SHIFT	16
323131	3481114	Add a Star Trek convention and sports memorabilia show to the mix.	Add a Star Trek convention and sports meemorabillia show to the mix.	165381542	1476405036674	1476405036939	S	83
323131	3481114	Add a Star Trek convention and sports memorabilia show to the mix.	Add a Star Trek convention and sports meemorabillia show to the mix.	165381545	1476405037724	1476405037856	t	84
323131	3481114	Add a Star Trek convention and sports memorabilia show to the mix.	Add a Star Trek convention and sports meemorabillia show to the mix.	165381624	1476405038045	1476405038203	a	65
323131	3481114	Add a Star Trek convention and sports memorabilia show to the mix.	Add a Star Trek convention and sports meemorabillia show to the mix.	165381625	1476405038340	1476405038512	r	82
323131	3481114	Add a Star Trek convention and sports memorabilia show to the mix.	Add a Star Trek convention and sports meemorabillia show to the mix.	165381627	1476405038436	1476405038666	 	32
323131	3481114	Add a Star Trek convention and sports memorabilia show to the mix.	Add a Star Trek convention and sports meemorabillia show to the mix.	165381631	1476405039110	1476405039686	SHIFT	16
323131	3481114	Add a Star Trek convention and sports memorabilia show to the mix.	Add a Star Trek convention and sports meemorabillia show to the mix.	165381634	1476405039607	1476405039734	T	84
323131	3481114	Add a Star Trek convention and sports memorabilia show to the mix.	Add a Star Trek convention and sports meemorabillia show to the mix.	165381637	1476405040051	1476405040234	r	82
323131	3481114	Add a Star Trek convention and sports memorabilia show to the mix.	Add a Star Trek convention and sports meemorabillia show to the mix.	165381723	1476405040205	1476405040370	e	69
323131	3481114	Add a Star Trek convention and sports memorabilia show to the mix.	Add a Star Trek convention and sports meemorabillia show to the mix.	165381724	1476405040939	1476405041102	k	75
323131	3481114	Add a Star Trek convention and sports memorabilia show to the mix.	Add a Star Trek convention and sports meemorabillia show to the mix.	165381725	1476405041180	1476405041350	 	32
323131	3481114	Add a Star Trek convention and sports memorabilia show to the mix.	Add a Star Trek convention and sports meemorabillia show to the mix.	165381726	1476405041810	1476405041919	c	67
323131	3481114	Add a Star Trek convention and sports memorabilia show to the mix.	Add a Star Trek convention and sports meemorabillia show to the mix.	165381727	1476405042125	1476405042251	o	79
323131	3481114	Add a Star Trek convention and sports memorabilia show to the mix.	Add a Star Trek convention and sports meemorabillia show to the mix.	165381728	1476405042467	1476405042583	n	78
323131	3481114	Add a Star Trek convention and sports memorabilia show to the mix.	Add a Star Trek convention and sports meemorabillia show to the mix.	165381750	1476405042818	1476405042936	v	86
323131	3481114	Add a Star Trek convention and sports memorabilia show to the mix.	Add a Star Trek convention and sports meemorabillia show to the mix.	165381752	1476405043198	1476405043327	e	69
323131	3481114	Add a Star Trek convention and sports memorabilia show to the mix.	Add a Star Trek convention and sports meemorabillia show to the mix.	165381756	1476405043399	1476405043552	n	78
323131	3481114	Add a Star Trek convention and sports memorabilia show to the mix.	Add a Star Trek convention and sports meemorabillia show to the mix.	165381760	1476405043837	1476405043937	t	84
323131	3481114	Add a Star Trek convention and sports memorabilia show to the mix.	Add a Star Trek convention and sports meemorabillia show to the mix.	165381764	1476405044131	1476405044253	i	73
323131	3481114	Add a Star Trek convention and sports memorabilia show to the mix.	Add a Star Trek convention and sports meemorabillia show to the mix.	165381794	1476405044385	1476405044500	o	79
323131	3481114	Add a Star Trek convention and sports memorabilia show to the mix.	Add a Star Trek convention and sports meemorabillia show to the mix.	165381796	1476405044680	1476405044819	n	78
323131	3481114	Add a Star Trek convention and sports memorabilia show to the mix.	Add a Star Trek convention and sports meemorabillia show to the mix.	165381799	1476405045095	1476405045247	 	32
323131	3481114	Add a Star Trek convention and sports memorabilia show to the mix.	Add a Star Trek convention and sports meemorabillia show to the mix.	165381802	1476405045658	1476405045779	a	65
323131	3481114	Add a Star Trek convention and sports memorabilia show to the mix.	Add a Star Trek convention and sports meemorabillia show to the mix.	165381805	1476405045921	1476405046091	n	78
323131	3481114	Add a Star Trek convention and sports memorabilia show to the mix.	Add a Star Trek convention and sports meemorabillia show to the mix.	165381825	1476405046222	1476405046365	d	68
323131	3481114	Add a Star Trek convention and sports memorabilia show to the mix.	Add a Star Trek convention and sports meemorabillia show to the mix.	165381827	1476405046337	1476405046511	 	32
323131	3481114	Add a Star Trek convention and sports memorabilia show to the mix.	Add a Star Trek convention and sports meemorabillia show to the mix.	165381828	1476405047213	1476405047313	s	83
323131	3481114	Add a Star Trek convention and sports memorabilia show to the mix.	Add a Star Trek convention and sports meemorabillia show to the mix.	165381829	1476405047560	1476405047684	p	80
323131	3481114	Add a Star Trek convention and sports memorabilia show to the mix.	Add a Star Trek convention and sports meemorabillia show to the mix.	165381830	1476405047800	1476405047917	o	79
323131	3481114	Add a Star Trek convention and sports memorabilia show to the mix.	Add a Star Trek convention and sports meemorabillia show to the mix.	165381889	1476405048199	1476405048317	r	82
323131	3481114	Add a Star Trek convention and sports memorabilia show to the mix.	Add a Star Trek convention and sports meemorabillia show to the mix.	165381892	1476405048452	1476405048538	t	84
323131	3481114	Add a Star Trek convention and sports memorabilia show to the mix.	Add a Star Trek convention and sports meemorabillia show to the mix.	165381894	1476405049045	1476405049192	s	83
323131	3481114	Add a Star Trek convention and sports memorabilia show to the mix.	Add a Star Trek convention and sports meemorabillia show to the mix.	165381895	1476405049278	1476405049447	 	32
323131	3481114	Add a Star Trek convention and sports memorabilia show to the mix.	Add a Star Trek convention and sports meemorabillia show to the mix.	165381896	1476405050155	1476405050351	m	77
323131	3481114	Add a Star Trek convention and sports memorabilia show to the mix.	Add a Star Trek convention and sports meemorabillia show to the mix.	165381974	1476405050418	1476405050534	e	69
323131	3481114	Add a Star Trek convention and sports memorabilia show to the mix.	Add a Star Trek convention and sports meemorabillia show to the mix.	165381976	1476405050666	1476405050768	e	69
323131	3481114	Add a Star Trek convention and sports memorabilia show to the mix.	Add a Star Trek convention and sports meemorabillia show to the mix.	165381981	1476405050709	1476405050842	m	77
323131	3481114	Add a Star Trek convention and sports memorabilia show to the mix.	Add a Star Trek convention and sports meemorabillia show to the mix.	165381988	1476405051981	1476405052134	o	79
323131	3481114	Add a Star Trek convention and sports memorabilia show to the mix.	Add a Star Trek convention and sports meemorabillia show to the mix.	165381992	1476405052931	1476405053031	r	82
323131	3481114	Add a Star Trek convention and sports memorabilia show to the mix.	Add a Star Trek convention and sports meemorabillia show to the mix.	165382038	1476405053286	1476405053423	a	65
323131	3481114	Add a Star Trek convention and sports memorabilia show to the mix.	Add a Star Trek convention and sports meemorabillia show to the mix.	165382042	1476405053723	1476405053823	b	66
323131	3481114	Add a Star Trek convention and sports memorabilia show to the mix.	Add a Star Trek convention and sports meemorabillia show to the mix.	165382045	1476405054049	1476405054165	i	73
323131	3481114	Add a Star Trek convention and sports memorabilia show to the mix.	Add a Star Trek convention and sports meemorabillia show to the mix.	165382049	1476405054305	1476405054412	l	76
323131	3481114	Add a Star Trek convention and sports memorabilia show to the mix.	Add a Star Trek convention and sports meemorabillia show to the mix.	165382051	1476405054490	1476405054608	l	76
323131	3481114	Add a Star Trek convention and sports memorabilia show to the mix.	Add a Star Trek convention and sports meemorabillia show to the mix.	165382162	1476405054661	1476405054805	a	65
323131	3481114	Add a Star Trek convention and sports memorabilia show to the mix.	Add a Star Trek convention and sports meemorabillia show to the mix.	165382165	1476405055412	1476405055597	BKSP	8
323131	3481114	Add a Star Trek convention and sports memorabilia show to the mix.	Add a Star Trek convention and sports meemorabillia show to the mix.	165382167	1476405056121	1476405056222	i	73
323131	3481114	Add a Star Trek convention and sports memorabilia show to the mix.	Add a Star Trek convention and sports meemorabillia show to the mix.	165382171	1476405056315	1476405056437	a	65
323131	3481114	Add a Star Trek convention and sports memorabilia show to the mix.	Add a Star Trek convention and sports meemorabillia show to the mix.	165382174	1476405056453	1476405056629	 	32
323131	3481114	Add a Star Trek convention and sports memorabilia show to the mix.	Add a Star Trek convention and sports meemorabillia show to the mix.	165382177	1476405057317	1476405057470	s	83
323131	3481114	Add a Star Trek convention and sports memorabilia show to the mix.	Add a Star Trek convention and sports meemorabillia show to the mix.	165382246	1476405057703	1476405057794	h	72
323131	3481114	Add a Star Trek convention and sports memorabilia show to the mix.	Add a Star Trek convention and sports meemorabillia show to the mix.	165382250	1476405058051	1476405058214	o	79
323131	3481114	Add a Star Trek convention and sports memorabilia show to the mix.	Add a Star Trek convention and sports meemorabillia show to the mix.	165382253	1476405058644	1476405058813	w	87
323131	3481114	Add a Star Trek convention and sports memorabilia show to the mix.	Add a Star Trek convention and sports meemorabillia show to the mix.	165382255	1476405058813	1476405058985	 	32
323131	3481114	Add a Star Trek convention and sports memorabilia show to the mix.	Add a Star Trek convention and sports meemorabillia show to the mix.	165382256	1476405060336	1476405060437	t	84
323131	3481114	Add a Star Trek convention and sports memorabilia show to the mix.	Add a Star Trek convention and sports meemorabillia show to the mix.	165382315	1476405060636	1476405060768	i	73
323131	3481114	Add a Star Trek convention and sports memorabilia show to the mix.	Add a Star Trek convention and sports meemorabillia show to the mix.	165382316	1476405060657	1476405060783	 	32
323131	3481114	Add a Star Trek convention and sports memorabilia show to the mix.	Add a Star Trek convention and sports meemorabillia show to the mix.	165382317	1476405061180	1476405061371	BKSP	8
323131	3481114	Add a Star Trek convention and sports memorabilia show to the mix.	Add a Star Trek convention and sports meemorabillia show to the mix.	165382318	1476405061650	1476405061798	BKSP	8
323131	3481114	Add a Star Trek convention and sports memorabilia show to the mix.	Add a Star Trek convention and sports meemorabillia show to the mix.	165382319	1476405061989	1476405062125	o	79
323131	3481114	Add a Star Trek convention and sports memorabilia show to the mix.	Add a Star Trek convention and sports meemorabillia show to the mix.	165382320	1476405062054	1476405062198	 	32
323131	3481114	Add a Star Trek convention and sports memorabilia show to the mix.	Add a Star Trek convention and sports meemorabillia show to the mix.	165382321	1476405062675	1476405062800	t	84
323131	3481114	Add a Star Trek convention and sports memorabilia show to the mix.	Add a Star Trek convention and sports meemorabillia show to the mix.	165382355	1476405062900	1476405063016	h	72
323131	3481114	Add a Star Trek convention and sports memorabilia show to the mix.	Add a Star Trek convention and sports meemorabillia show to the mix.	165382357	1476405063279	1476405063437	e	69
323131	3481114	Add a Star Trek convention and sports memorabilia show to the mix.	Add a Star Trek convention and sports meemorabillia show to the mix.	165382360	1476405063401	1476405063536	 	32
323131	3481114	Add a Star Trek convention and sports memorabilia show to the mix.	Add a Star Trek convention and sports meemorabillia show to the mix.	165382361	1476405063652	1476405063786	m	77
323131	3481114	Add a Star Trek convention and sports memorabilia show to the mix.	Add a Star Trek convention and sports meemorabillia show to the mix.	165382364	1476405064090	1476405064223	i	73
323131	3481114	Add a Star Trek convention and sports memorabilia show to the mix.	Add a Star Trek convention and sports meemorabillia show to the mix.	165382404	1476405064853	1476405064994	x	88
323131	3481114	Add a Star Trek convention and sports memorabilia show to the mix.	Add a Star Trek convention and sports meemorabillia show to the mix.	165382405	1476405065176	1476405065293	.	190
323131	3481137	Ruth, here is an estimated November purchase.	Ruth, here is an estimated November purchase.	165382606	1476405067703	1476405067772	SHIFT	16
323131	3481137	Ruth, here is an estimated November purchase.	Ruth, here is an estimated November purchase.	165382614	1476405067882	1476405068576	SHIFT	16
323131	3481137	Ruth, here is an estimated November purchase.	Ruth, here is an estimated November purchase.	165382610	1476405068415	1476405068537	R	82
323131	3481137	Ruth, here is an estimated November purchase.	Ruth, here is an estimated November purchase.	165382617	1476405069695	1476405069846	u	85
323131	3481137	Ruth, here is an estimated November purchase.	Ruth, here is an estimated November purchase.	165382620	1476405069881	1476405069998	t	84
323131	3481137	Ruth, here is an estimated November purchase.	Ruth, here is an estimated November purchase.	165382623	1476405070114	1476405070232	h	72
323131	3481137	Ruth, here is an estimated November purchase.	Ruth, here is an estimated November purchase.	165382625	1476405071135	1476405071234	,	188
323131	3481137	Ruth, here is an estimated November purchase.	Ruth, here is an estimated November purchase.	165382658	1476405071726	1476405071862	 	32
323131	3481137	Ruth, here is an estimated November purchase.	Ruth, here is an estimated November purchase.	165382659	1476405071930	1476405072047	h	72
323131	3481137	Ruth, here is an estimated November purchase.	Ruth, here is an estimated November purchase.	165382660	1476405072190	1476405072389	e	69
323131	3481137	Ruth, here is an estimated November purchase.	Ruth, here is an estimated November purchase.	165382662	1476405072363	1476405072519	r	82
323131	3481137	Ruth, here is an estimated November purchase.	Ruth, here is an estimated November purchase.	165382664	1476405072544	1476405072671	e	69
323131	3481137	Ruth, here is an estimated November purchase.	Ruth, here is an estimated November purchase.	165382714	1476405072650	1476405072805	 	32
323131	3481137	Ruth, here is an estimated November purchase.	Ruth, here is an estimated November purchase.	165382716	1476405073510	1476405073613	i	73
323131	3481137	Ruth, here is an estimated November purchase.	Ruth, here is an estimated November purchase.	165382720	1476405073738	1476405073861	s	83
323131	3481137	Ruth, here is an estimated November purchase.	Ruth, here is an estimated November purchase.	165382724	1476405073913	1476405074061	 	32
323131	3481137	Ruth, here is an estimated November purchase.	Ruth, here is an estimated November purchase.	165382728	1476405074077	1476405074194	a	65
323131	3481137	Ruth, here is an estimated November purchase.	Ruth, here is an estimated November purchase.	165382731	1476405074361	1476405074478	n	78
323131	3481137	Ruth, here is an estimated November purchase.	Ruth, here is an estimated November purchase.	165382827	1476405074596	1476405074746	 	32
323131	3481137	Ruth, here is an estimated November purchase.	Ruth, here is an estimated November purchase.	165382829	1476405075559	1476405075670	e	69
323131	3481137	Ruth, here is an estimated November purchase.	Ruth, here is an estimated November purchase.	165382831	1476405076479	1476405076593	s	83
323131	3481137	Ruth, here is an estimated November purchase.	Ruth, here is an estimated November purchase.	165382833	1476405076787	1476405076894	t	84
323131	3481137	Ruth, here is an estimated November purchase.	Ruth, here is an estimated November purchase.	165382835	1476405077075	1476405077190	i	73
323131	3481137	Ruth, here is an estimated November purchase.	Ruth, here is an estimated November purchase.	165382870	1476405077394	1476405077548	m	77
323131	3481137	Ruth, here is an estimated November purchase.	Ruth, here is an estimated November purchase.	165382871	1476405077568	1476405077701	a	65
323131	3481137	Ruth, here is an estimated November purchase.	Ruth, here is an estimated November purchase.	165382873	1476405078157	1476405078274	t	84
323131	3481137	Ruth, here is an estimated November purchase.	Ruth, here is an estimated November purchase.	165382875	1476405078376	1476405078496	e	69
323131	3481137	Ruth, here is an estimated November purchase.	Ruth, here is an estimated November purchase.	165382877	1476405078599	1476405078731	d	68
323131	3481137	Ruth, here is an estimated November purchase.	Ruth, here is an estimated November purchase.	165382943	1476405078762	1476405078936	 	32
323131	3481137	Ruth, here is an estimated November purchase.	Ruth, here is an estimated November purchase.	165382944	1476405079504	1476405079801	SHIFT	16
323131	3481137	Ruth, here is an estimated November purchase.	Ruth, here is an estimated November purchase.	165382945	1476405079665	1476405079807	N	78
323131	3481137	Ruth, here is an estimated November purchase.	Ruth, here is an estimated November purchase.	165382947	1476405080793	1476405080921	o	79
323131	3481137	Ruth, here is an estimated November purchase.	Ruth, here is an estimated November purchase.	165382949	1476405081078	1476405081194	v	86
323131	3481137	Ruth, here is an estimated November purchase.	Ruth, here is an estimated November purchase.	165382951	1476405081541	1476405081639	e	69
323131	3481137	Ruth, here is an estimated November purchase.	Ruth, here is an estimated November purchase.	165382991	1476405081726	1476405081960	m	77
323131	3481137	Ruth, here is an estimated November purchase.	Ruth, here is an estimated November purchase.	165382993	1476405082495	1476405082626	b	66
323131	3481137	Ruth, here is an estimated November purchase.	Ruth, here is an estimated November purchase.	165382995	1476405082758	1476405082969	e	69
323131	3481137	Ruth, here is an estimated November purchase.	Ruth, here is an estimated November purchase.	165382997	1476405082943	1476405083078	r	82
323131	3481137	Ruth, here is an estimated November purchase.	Ruth, here is an estimated November purchase.	165383041	1476405083058	1476405083228	 	32
323131	3481137	Ruth, here is an estimated November purchase.	Ruth, here is an estimated November purchase.	165383043	1476405083717	1476405083848	p	80
323131	3481137	Ruth, here is an estimated November purchase.	Ruth, here is an estimated November purchase.	165383046	1476405084206	1476405084348	u	85
323131	3481137	Ruth, here is an estimated November purchase.	Ruth, here is an estimated November purchase.	165383049	1476405084580	1476405084681	r	82
323131	3481137	Ruth, here is an estimated November purchase.	Ruth, here is an estimated November purchase.	165383051	1476405084911	1476405085055	c	67
323131	3481137	Ruth, here is an estimated November purchase.	Ruth, here is an estimated November purchase.	165383052	1476405085195	1476405085352	h	72
323131	3481137	Ruth, here is an estimated November purchase.	Ruth, here is an estimated November purchase.	165383092	1476405085310	1476405085434	a	65
323131	3481137	Ruth, here is an estimated November purchase.	Ruth, here is an estimated November purchase.	165383094	1476405085730	1476405085834	s	83
323131	3481137	Ruth, here is an estimated November purchase.	Ruth, here is an estimated November purchase.	165383096	1476405085947	1476405086037	e	69
323131	3481137	Ruth, here is an estimated November purchase.	Ruth, here is an estimated November purchase.	165383097	1476405086572	1476405086667	.	190
323131	3481152	Are you getting all the information you need?	Are you getting all the information you need?	165383301	1476405090399	1476405090707	SHIFT	16
323131	3481152	Are you getting all the information you need?	Are you getting all the information you need?	165383303	1476405090618	1476405090770	A	65
323131	3481152	Are you getting all the information you need?	Are you getting all the information you need?	165383305	1476405090992	1476405091145	r	82
323131	3481152	Are you getting all the information you need?	Are you getting all the information you need?	165383307	1476405091796	1476405091950	e	69
323131	3481152	Are you getting all the information you need?	Are you getting all the information you need?	165383310	1476405091927	1476405092116	 	32
323131	3481152	Are you getting all the information you need?	Are you getting all the information you need?	165383312	1476405092744	1476405092865	y	89
323131	3481152	Are you getting all the information you need?	Are you getting all the information you need?	165383379	1476405092845	1476405093029	o	79
323131	3481152	Are you getting all the information you need?	Are you getting all the information you need?	165383380	1476405093154	1476405093282	u	85
323131	3481152	Are you getting all the information you need?	Are you getting all the information you need?	165383382	1476405093382	1476405093585	 	32
323131	3481152	Are you getting all the information you need?	Are you getting all the information you need?	165383384	1476405094509	1476405094614	g	71
323131	3481152	Are you getting all the information you need?	Are you getting all the information you need?	165383389	1476405094879	1476405094978	e	69
323131	3481152	Are you getting all the information you need?	Are you getting all the information you need?	165383394	1476405095151	1476405095227	t	84
323131	3481152	Are you getting all the information you need?	Are you getting all the information you need?	165383424	1476405095316	1476405095395	t	84
323131	3481152	Are you getting all the information you need?	Are you getting all the information you need?	165383426	1476405095426	1476405095569	i	73
323131	3481152	Are you getting all the information you need?	Are you getting all the information you need?	165383431	1476405095716	1476405095870	n	78
323131	3481152	Are you getting all the information you need?	Are you getting all the information you need?	165383435	1476405096049	1476405096154	g	71
323131	3481152	Are you getting all the information you need?	Are you getting all the information you need?	165383439	1476405096216	1476405096370	 	32
323131	3481152	Are you getting all the information you need?	Are you getting all the information you need?	165383469	1476405096761	1476405096870	a	65
323131	3481152	Are you getting all the information you need?	Are you getting all the information you need?	165383470	1476405096968	1476405097070	l	76
323131	3481152	Are you getting all the information you need?	Are you getting all the information you need?	165383471	1476405097170	1476405097275	l	76
323131	3481152	Are you getting all the information you need?	Are you getting all the information you need?	165383473	1476405097229	1476405097404	 	32
323131	3481152	Are you getting all the information you need?	Are you getting all the information you need?	165383476	1476405097493	1476405097618	t	84
323131	3481152	Are you getting all the information you need?	Are you getting all the information you need?	165383530	1476405097740	1476405097834	h	72
323131	3481152	Are you getting all the information you need?	Are you getting all the information you need?	165383533	1476405098002	1476405098165	e	69
323131	3481152	Are you getting all the information you need?	Are you getting all the information you need?	165383537	1476405098202	1476405098375	 	32
323131	3481152	Are you getting all the information you need?	Are you getting all the information you need?	165383541	1476405098865	1476405099046	i	73
323131	3481152	Are you getting all the information you need?	Are you getting all the information you need?	165383542	1476405099378	1476405099460	n	78
323131	3481152	Are you getting all the information you need?	Are you getting all the information you need?	165383607	1476405100077	1476405100186	f	70
323131	3481152	Are you getting all the information you need?	Are you getting all the information you need?	165383609	1476405100418	1476405100598	o	79
323131	3481152	Are you getting all the information you need?	Are you getting all the information you need?	165383611	1476405100750	1476405100843	r	82
323131	3481152	Are you getting all the information you need?	Are you getting all the information you need?	165383616	1476405100949	1476405101153	m	77
323131	3481152	Are you getting all the information you need?	Are you getting all the information you need?	165383652	1476405101125	1476405101265	a	65
323131	3481152	Are you getting all the information you need?	Are you getting all the information you need?	165383654	1476405101444	1476405101584	t	84
323131	3481152	Are you getting all the information you need?	Are you getting all the information you need?	165383657	1476405101561	1476405101692	i	73
323131	3481152	Are you getting all the information you need?	Are you getting all the information you need?	165383660	1476405101775	1476405101954	o	79
323131	3481152	Are you getting all the information you need?	Are you getting all the information you need?	165383663	1476405102034	1476405102138	n	78
323131	3481152	Are you getting all the information you need?	Are you getting all the information you need?	165383666	1476405102230	1476405102416	 	32
323131	3481152	Are you getting all the information you need?	Are you getting all the information you need?	165383769	1476405103140	1476405103262	y	89
323131	3481152	Are you getting all the information you need?	Are you getting all the information you need?	165383770	1476405103253	1476405103396	o	79
323131	3481152	Are you getting all the information you need?	Are you getting all the information you need?	165383771	1476405103621	1476405103667	u	85
323131	3481152	Are you getting all the information you need?	Are you getting all the information you need?	165383772	1476405104802	1476405104939	 	32
323131	3481152	Are you getting all the information you need?	Are you getting all the information you need?	165383774	1476405105198	1476405105332	n	78
323131	3481152	Are you getting all the information you need?	Are you getting all the information you need?	165383814	1476405105429	1476405105503	e	69
323131	3481152	Are you getting all the information you need?	Are you getting all the information you need?	165383816	1476405105608	1476405105687	e	69
323131	3481152	Are you getting all the information you need?	Are you getting all the information you need?	165383819	1476405105823	1476405105927	d	68
323131	3481152	Are you getting all the information you need?	Are you getting all the information you need?	165383821	1476405106246	1476405106792	SHIFT	16
323131	3481152	Are you getting all the information you need?	Are you getting all the information you need?	165383824	1476405106654	1476405106823	?	191
323131	3481166	I got the impression that this is a message for internal use.	I got the impression that this is a message for internal use.	165384056	1476405110118	1476405110398	SHIFT	16
323131	3481166	I got the impression that this is a message for internal use.	I got the impression that this is a message for internal use.	165384054	1476405110261	1476405110382	I	73
323131	3481166	I got the impression that this is a message for internal use.	I got the impression that this is a message for internal use.	165384060	1476405111018	1476405111165	 	32
323131	3481166	I got the impression that this is a message for internal use.	I got the impression that this is a message for internal use.	165384064	1476405111828	1476405111945	g	71
323131	3481166	I got the impression that this is a message for internal use.	I got the impression that this is a message for internal use.	165384068	1476405112046	1476405112262	o	79
323131	3481166	I got the impression that this is a message for internal use.	I got the impression that this is a message for internal use.	165384165	1476405112229	1476405112392	t	84
323131	3481166	I got the impression that this is a message for internal use.	I got the impression that this is a message for internal use.	165384166	1476405112461	1476405112646	 	32
323131	3481166	I got the impression that this is a message for internal use.	I got the impression that this is a message for internal use.	165384167	1476405113509	1476405113629	t	84
323131	3481166	I got the impression that this is a message for internal use.	I got the impression that this is a message for internal use.	165384168	1476405113733	1476405113849	h	72
323131	3481166	I got the impression that this is a message for internal use.	I got the impression that this is a message for internal use.	165384169	1476405114225	1476405114347	e	69
323131	3481166	I got the impression that this is a message for internal use.	I got the impression that this is a message for internal use.	165384254	1476405114280	1476405114463	 	32
323131	3481166	I got the impression that this is a message for internal use.	I got the impression that this is a message for internal use.	165384258	1476405115537	1476405115627	i	73
323131	3481166	I got the impression that this is a message for internal use.	I got the impression that this is a message for internal use.	165384261	1476405115772	1476405115922	m	77
323131	3481166	I got the impression that this is a message for internal use.	I got the impression that this is a message for internal use.	165384263	1476405116196	1476405116350	p	80
323131	3481166	I got the impression that this is a message for internal use.	I got the impression that this is a message for internal use.	165384267	1476405116518	1476405116656	r	82
323131	3481166	I got the impression that this is a message for internal use.	I got the impression that this is a message for internal use.	165384269	1476405116757	1476405116857	e	69
323131	3481166	I got the impression that this is a message for internal use.	I got the impression that this is a message for internal use.	165384284	1476405117157	1476405117234	s	83
323131	3481166	I got the impression that this is a message for internal use.	I got the impression that this is a message for internal use.	165384287	1476405117342	1476405117408	s	83
323131	3481166	I got the impression that this is a message for internal use.	I got the impression that this is a message for internal use.	165384291	1476405117700	1476405117822	i	73
323131	3481166	I got the impression that this is a message for internal use.	I got the impression that this is a message for internal use.	165384297	1476405117929	1476405118080	o	79
323131	3481166	I got the impression that this is a message for internal use.	I got the impression that this is a message for internal use.	165384301	1476405118227	1476405118377	n	78
323131	3481166	I got the impression that this is a message for internal use.	I got the impression that this is a message for internal use.	165384359	1476405118856	1476405119050	 	32
323131	3481166	I got the impression that this is a message for internal use.	I got the impression that this is a message for internal use.	165384361	1476405119312	1476405119513	t	84
323131	3481166	I got the impression that this is a message for internal use.	I got the impression that this is a message for internal use.	165384363	1476405119437	1476405119613	h	72
323131	3481166	I got the impression that this is a message for internal use.	I got the impression that this is a message for internal use.	165384368	1476405119770	1476405119924	a	65
323131	3481166	I got the impression that this is a message for internal use.	I got the impression that this is a message for internal use.	165384371	1476405120060	1476405120187	t	84
323131	3481166	I got the impression that this is a message for internal use.	I got the impression that this is a message for internal use.	165384424	1476405120286	1476405120481	 	32
323131	3481166	I got the impression that this is a message for internal use.	I got the impression that this is a message for internal use.	165384425	1476405120946	1476405121061	t	84
323131	3481166	I got the impression that this is a message for internal use.	I got the impression that this is a message for internal use.	165384426	1476405121196	1476405121290	h	72
323131	3481166	I got the impression that this is a message for internal use.	I got the impression that this is a message for internal use.	165384427	1476405121309	1476405121496	i	73
323131	3481166	I got the impression that this is a message for internal use.	I got the impression that this is a message for internal use.	165384428	1476405121704	1476405121848	s	83
323131	3481166	I got the impression that this is a message for internal use.	I got the impression that this is a message for internal use.	165384496	1476405121855	1476405122035	 	32
323131	3481166	I got the impression that this is a message for internal use.	I got the impression that this is a message for internal use.	165384498	1476405123004	1476405123158	i	73
323131	3481166	I got the impression that this is a message for internal use.	I got the impression that this is a message for internal use.	165384501	1476405123237	1476405123334	s	83
323131	3481166	I got the impression that this is a message for internal use.	I got the impression that this is a message for internal use.	165384502	1476405123399	1476405123531	 	32
323131	3481166	I got the impression that this is a message for internal use.	I got the impression that this is a message for internal use.	165384503	1476405123899	1476405124056	a	65
323131	3481166	I got the impression that this is a message for internal use.	I got the impression that this is a message for internal use.	165384570	1476405124038	1476405124185	 	32
323131	3481166	I got the impression that this is a message for internal use.	I got the impression that this is a message for internal use.	165384572	1476405124686	1476405124855	m	77
323131	3481166	I got the impression that this is a message for internal use.	I got the impression that this is a message for internal use.	165384575	1476405124954	1476405125074	e	69
323131	3481166	I got the impression that this is a message for internal use.	I got the impression that this is a message for internal use.	165384579	1476405125245	1476405125346	s	83
323131	3481166	I got the impression that this is a message for internal use.	I got the impression that this is a message for internal use.	165384584	1476405125426	1476405125536	s	83
323131	3481166	I got the impression that this is a message for internal use.	I got the impression that this is a message for internal use.	165384587	1476405125607	1476405125756	a	65
323131	3481166	I got the impression that this is a message for internal use.	I got the impression that this is a message for internal use.	165384657	1476405126184	1476405126279	g	71
323131	3481166	I got the impression that this is a message for internal use.	I got the impression that this is a message for internal use.	165384658	1476405126379	1476405126541	e	69
323131	3481166	I got the impression that this is a message for internal use.	I got the impression that this is a message for internal use.	165384661	1476405126578	1476405126773	 	32
323131	3481166	I got the impression that this is a message for internal use.	I got the impression that this is a message for internal use.	165384664	1476405127311	1476405127426	f	70
323131	3481166	I got the impression that this is a message for internal use.	I got the impression that this is a message for internal use.	165384667	1476405127510	1476405127674	o	79
323131	3481166	I got the impression that this is a message for internal use.	I got the impression that this is a message for internal use.	165384703	1476405127846	1476405127965	r	82
323131	3481166	I got the impression that this is a message for internal use.	I got the impression that this is a message for internal use.	165384706	1476405127999	1476405128179	 	32
323131	3481166	I got the impression that this is a message for internal use.	I got the impression that this is a message for internal use.	165384710	1476405128747	1476405128847	i	73
323131	3481166	I got the impression that this is a message for internal use.	I got the impression that this is a message for internal use.	165384712	1476405128994	1476405129146	n	78
323131	3481166	I got the impression that this is a message for internal use.	I got the impression that this is a message for internal use.	165384714	1476405129248	1476405129366	t	84
323131	3481166	I got the impression that this is a message for internal use.	I got the impression that this is a message for internal use.	165384756	1476405129482	1476405129673	e	69
323131	3481166	I got the impression that this is a message for internal use.	I got the impression that this is a message for internal use.	165384758	1476405129665	1476405129791	r	82
323131	3481166	I got the impression that this is a message for internal use.	I got the impression that this is a message for internal use.	165384762	1476405129890	1476405130069	n	78
323131	3481166	I got the impression that this is a message for internal use.	I got the impression that this is a message for internal use.	165384764	1476405130019	1476405130172	a	65
323131	3481166	I got the impression that this is a message for internal use.	I got the impression that this is a message for internal use.	165384766	1476405130372	1476405130552	l	76
323131	3481166	I got the impression that this is a message for internal use.	I got the impression that this is a message for internal use.	165384833	1476405130572	1476405130704	 	32
323131	3481166	I got the impression that this is a message for internal use.	I got the impression that this is a message for internal use.	165384835	1476405131495	1476405131621	u	85
323131	3481166	I got the impression that this is a message for internal use.	I got the impression that this is a message for internal use.	165384837	1476405131668	1476405131790	s	83
323131	3481166	I got the impression that this is a message for internal use.	I got the impression that this is a message for internal use.	165384839	1476405131917	1476405132029	e	69
323131	3481166	I got the impression that this is a message for internal use.	I got the impression that this is a message for internal use.	165384843	1476405132308	1476405132410	.	190
323131	3481166	I got the impression that this is a message for internal use.	I got the impression that this is a message for internal use.	165384879	1476405132580	1476405132734	SHIFT	16
323131	3481186	We don't recommend you use him in a Fantasy league this week.	We don't recommend you use him in a Fantasy league this week.	165385025	1476405136612	1476405136975	SHIFT	16
323131	3481186	We don't recommend you use him in a Fantasy league this week.	We don't recommend you use him in a Fantasy league this week.	165385026	1476405136887	1476405137049	W	87
323131	3481186	We don't recommend you use him in a Fantasy league this week.	We don't recommend you use him in a Fantasy league this week.	165385027	1476405137133	1476405137249	e	69
323131	3481186	We don't recommend you use him in a Fantasy league this week.	We don't recommend you use him in a Fantasy league this week.	165385028	1476405137412	1476405137565	 	32
323131	3481186	We don't recommend you use him in a Fantasy league this week.	We don't recommend you use him in a Fantasy league this week.	165385029	1476405137596	1476405137733	d	68
323131	3481186	We don't recommend you use him in a Fantasy league this week.	We don't recommend you use him in a Fantasy league this week.	165385031	1476405138065	1476405138181	o	79
323131	3481186	We don't recommend you use him in a Fantasy league this week.	We don't recommend you use him in a Fantasy league this week.	165385105	1476405139088	1476405139188	n	78
323131	3481186	We don't recommend you use him in a Fantasy league this week.	We don't recommend you use him in a Fantasy league this week.	165385106	1476405140169	1476405140254	'	222
323131	3481186	We don't recommend you use him in a Fantasy league this week.	We don't recommend you use him in a Fantasy league this week.	165385107	1476405140551	1476405140688	t	84
323131	3481186	We don't recommend you use him in a Fantasy league this week.	We don't recommend you use him in a Fantasy league this week.	165385109	1476405140694	1476405140876	 	32
323131	3481186	We don't recommend you use him in a Fantasy league this week.	We don't recommend you use him in a Fantasy league this week.	165385111	1476405141720	1476405141892	r	82
323131	3481186	We don't recommend you use him in a Fantasy league this week.	We don't recommend you use him in a Fantasy league this week.	165385150	1476405141951	1476405142052	e	69
323131	3481186	We don't recommend you use him in a Fantasy league this week.	We don't recommend you use him in a Fantasy league this week.	165385152	1476405142672	1476405142753	c	67
323131	3481186	We don't recommend you use him in a Fantasy league this week.	We don't recommend you use him in a Fantasy league this week.	165385154	1476405142905	1476405143037	o	79
323131	3481186	We don't recommend you use him in a Fantasy league this week.	We don't recommend you use him in a Fantasy league this week.	165385157	1476405143236	1476405143352	m	77
323131	3481186	We don't recommend you use him in a Fantasy league this week.	We don't recommend you use him in a Fantasy league this week.	165385160	1476405143436	1476405143536	m	77
323131	3481186	We don't recommend you use him in a Fantasy league this week.	We don't recommend you use him in a Fantasy league this week.	165385212	1476405143592	1476405143721	e	69
323131	3481186	We don't recommend you use him in a Fantasy league this week.	We don't recommend you use him in a Fantasy league this week.	165385214	1476405143721	1476405143906	n	78
323131	3481186	We don't recommend you use him in a Fantasy league this week.	We don't recommend you use him in a Fantasy league this week.	165385215	1476405145034	1476405145149	d	68
323131	3481186	We don't recommend you use him in a Fantasy league this week.	We don't recommend you use him in a Fantasy league this week.	165385216	1476405145183	1476405145336	 	32
323131	3481186	We don't recommend you use him in a Fantasy league this week.	We don't recommend you use him in a Fantasy league this week.	165385217	1476405145993	1476405146112	y	89
323131	3481186	We don't recommend you use him in a Fantasy league this week.	We don't recommend you use him in a Fantasy league this week.	165385242	1476405146148	1476405146332	o	79
323131	3481186	We don't recommend you use him in a Fantasy league this week.	We don't recommend you use him in a Fantasy league this week.	165385243	1476405146372	1476405146482	u	85
323131	3481186	We don't recommend you use him in a Fantasy league this week.	We don't recommend you use him in a Fantasy league this week.	165385244	1476405146597	1476405146759	 	32
323131	3481186	We don't recommend you use him in a Fantasy league this week.	We don't recommend you use him in a Fantasy league this week.	165385245	1476405146969	1476405147065	u	85
323131	3481186	We don't recommend you use him in a Fantasy league this week.	We don't recommend you use him in a Fantasy league this week.	165385246	1476405147485	1476405147628	s	83
323131	3481186	We don't recommend you use him in a Fantasy league this week.	We don't recommend you use him in a Fantasy league this week.	165385273	1476405147728	1476405147845	e	69
323131	3481186	We don't recommend you use him in a Fantasy league this week.	We don't recommend you use him in a Fantasy league this week.	165385274	1476405147876	1476405148057	 	32
323131	3481186	We don't recommend you use him in a Fantasy league this week.	We don't recommend you use him in a Fantasy league this week.	165385275	1476405148780	1476405148896	h	72
323131	3481186	We don't recommend you use him in a Fantasy league this week.	We don't recommend you use him in a Fantasy league this week.	165385276	1476405149010	1476405149153	i	73
323131	3481186	We don't recommend you use him in a Fantasy league this week.	We don't recommend you use him in a Fantasy league this week.	165385277	1476405149226	1476405149321	m	77
323131	3481186	We don't recommend you use him in a Fantasy league this week.	We don't recommend you use him in a Fantasy league this week.	165385314	1476405149440	1476405149604	 	32
323131	3481186	We don't recommend you use him in a Fantasy league this week.	We don't recommend you use him in a Fantasy league this week.	165385315	1476405150063	1476405150205	i	73
323131	3481186	We don't recommend you use him in a Fantasy league this week.	We don't recommend you use him in a Fantasy league this week.	165385316	1476405150267	1476405150386	n	78
323131	3481186	We don't recommend you use him in a Fantasy league this week.	We don't recommend you use him in a Fantasy league this week.	165385317	1476405150454	1476405150625	 	32
323131	3481186	We don't recommend you use him in a Fantasy league this week.	We don't recommend you use him in a Fantasy league this week.	165385318	1476405150698	1476405150850	a	65
323131	3481186	We don't recommend you use him in a Fantasy league this week.	We don't recommend you use him in a Fantasy league this week.	165385410	1476405150903	1476405151034	 	32
323131	3481186	We don't recommend you use him in a Fantasy league this week.	We don't recommend you use him in a Fantasy league this week.	165385412	1476405151819	1476405152594	SHIFT	16
323131	3481186	We don't recommend you use him in a Fantasy league this week.	We don't recommend you use him in a Fantasy league this week.	165385414	1476405152491	1476405152594	F	70
323131	3481186	We don't recommend you use him in a Fantasy league this week.	We don't recommend you use him in a Fantasy league this week.	165385418	1476405152777	1476405152862	a	65
323131	3481186	We don't recommend you use him in a Fantasy league this week.	We don't recommend you use him in a Fantasy league this week.	165385420	1476405152924	1476405153097	n	78
323131	3481186	We don't recommend you use him in a Fantasy league this week.	We don't recommend you use him in a Fantasy league this week.	165385421	1476405154076	1476405154170	t	84
323131	3481186	We don't recommend you use him in a Fantasy league this week.	We don't recommend you use him in a Fantasy league this week.	165385491	1476405154370	1476405154492	a	65
323131	3481186	We don't recommend you use him in a Fantasy league this week.	We don't recommend you use him in a Fantasy league this week.	165385492	1476405154705	1476405154805	s	83
323131	3481186	We don't recommend you use him in a Fantasy league this week.	We don't recommend you use him in a Fantasy league this week.	165385493	1476405155163	1476405155263	y	89
323131	3481186	We don't recommend you use him in a Fantasy league this week.	We don't recommend you use him in a Fantasy league this week.	165385494	1476405155304	1476405155510	 	32
323131	3481186	We don't recommend you use him in a Fantasy league this week.	We don't recommend you use him in a Fantasy league this week.	165385495	1476405156296	1476405156459	l	76
323131	3481186	We don't recommend you use him in a Fantasy league this week.	We don't recommend you use him in a Fantasy league this week.	165385535	1476405156596	1476405156696	e	69
323131	3481186	We don't recommend you use him in a Fantasy league this week.	We don't recommend you use him in a Fantasy league this week.	165385538	1476405156827	1476405156924	a	65
323131	3481186	We don't recommend you use him in a Fantasy league this week.	We don't recommend you use him in a Fantasy league this week.	165385541	1476405157267	1476405157340	g	71
323131	3481186	We don't recommend you use him in a Fantasy league this week.	We don't recommend you use him in a Fantasy league this week.	165385542	1476405157657	1476405157826	u	85
323131	3481186	We don't recommend you use him in a Fantasy league this week.	We don't recommend you use him in a Fantasy league this week.	165385543	1476405157912	1476405158029	e	69
323131	3481186	We don't recommend you use him in a Fantasy league this week.	We don't recommend you use him in a Fantasy league this week.	165385590	1476405158704	1476405158853	 	32
323131	3481186	We don't recommend you use him in a Fantasy league this week.	We don't recommend you use him in a Fantasy league this week.	165385591	1476405159173	1476405159279	t	84
323131	3481186	We don't recommend you use him in a Fantasy league this week.	We don't recommend you use him in a Fantasy league this week.	165385592	1476405159379	1476405159472	h	72
323131	3481186	We don't recommend you use him in a Fantasy league this week.	We don't recommend you use him in a Fantasy league this week.	165385593	1476405159562	1476405159755	i	73
323131	3481186	We don't recommend you use him in a Fantasy league this week.	We don't recommend you use him in a Fantasy league this week.	165385594	1476405159895	1476405160013	s	83
323131	3481186	We don't recommend you use him in a Fantasy league this week.	We don't recommend you use him in a Fantasy league this week.	165385663	1476405160000	1476405160189	 	32
323131	3481186	We don't recommend you use him in a Fantasy league this week.	We don't recommend you use him in a Fantasy league this week.	165385667	1476405160259	1476405160361	w	87
323131	3481186	We don't recommend you use him in a Fantasy league this week.	We don't recommend you use him in a Fantasy league this week.	165385669	1476405160467	1476405160564	e	69
323131	3481186	We don't recommend you use him in a Fantasy league this week.	We don't recommend you use him in a Fantasy league this week.	165385672	1476405160643	1476405160706	e	69
323131	3481186	We don't recommend you use him in a Fantasy league this week.	We don't recommend you use him in a Fantasy league this week.	165385675	1476405160812	1476405160943	l	76
323131	3481186	We don't recommend you use him in a Fantasy league this week.	We don't recommend you use him in a Fantasy league this week.	165385677	1476405161315	1476405161496	BKSP	8
323131	3481186	We don't recommend you use him in a Fantasy league this week.	We don't recommend you use him in a Fantasy league this week.	165385678	1476405163012	1476405163129	k	75
323131	3481186	We don't recommend you use him in a Fantasy league this week.	We don't recommend you use him in a Fantasy league this week.	165385691	1476405163429	1476405163529	.	190
323131	3481203	The Mercedes engine takes advantage of extra boost.	The Mercedes engine takes advantage of extra boost.	165385855	1476405166003	1476405166645	SHIFT	16
323131	3481203	The Mercedes engine takes advantage of extra boost.	The Mercedes engine takes advantage of extra boost.	165385853	1476405166517	1476405166630	T	84
323131	3481203	The Mercedes engine takes advantage of extra boost.	The Mercedes engine takes advantage of extra boost.	165385857	1476405167636	1476405167757	h	72
323131	3481203	The Mercedes engine takes advantage of extra boost.	The Mercedes engine takes advantage of extra boost.	165385860	1476405167852	1476405168031	e	69
323131	3481203	The Mercedes engine takes advantage of extra boost.	The Mercedes engine takes advantage of extra boost.	165385863	1476405167956	1476405168104	 	32
323131	3481203	The Mercedes engine takes advantage of extra boost.	The Mercedes engine takes advantage of extra boost.	165385866	1476405168532	1476405168999	SHIFT	16
323131	3481203	The Mercedes engine takes advantage of extra boost.	The Mercedes engine takes advantage of extra boost.	165385976	1476405168845	1476405169014	M	77
323131	3481203	The Mercedes engine takes advantage of extra boost.	The Mercedes engine takes advantage of extra boost.	165385977	1476405169285	1476405169441	e	69
323131	3481203	The Mercedes engine takes advantage of extra boost.	The Mercedes engine takes advantage of extra boost.	165385978	1476405169525	1476405169649	r	82
323131	3481203	The Mercedes engine takes advantage of extra boost.	The Mercedes engine takes advantage of extra boost.	165385979	1476405170360	1476405170460	c	67
323131	3481203	The Mercedes engine takes advantage of extra boost.	The Mercedes engine takes advantage of extra boost.	165385980	1476405170563	1476405170678	e	69
323131	3481203	The Mercedes engine takes advantage of extra boost.	The Mercedes engine takes advantage of extra boost.	165385981	1476405171669	1476405171796	d	68
323131	3481203	The Mercedes engine takes advantage of extra boost.	The Mercedes engine takes advantage of extra boost.	165386047	1476405171899	1476405171999	e	69
323131	3481203	The Mercedes engine takes advantage of extra boost.	The Mercedes engine takes advantage of extra boost.	165386049	1476405172115	1476405172230	s	83
323131	3481203	The Mercedes engine takes advantage of extra boost.	The Mercedes engine takes advantage of extra boost.	165386051	1476405172246	1476405172435	 	32
323131	3481203	The Mercedes engine takes advantage of extra boost.	The Mercedes engine takes advantage of extra boost.	165386053	1476405172877	1476405172960	e	69
323131	3481203	The Mercedes engine takes advantage of extra boost.	The Mercedes engine takes advantage of extra boost.	165386055	1476405173165	1476405173292	n	78
323131	3481203	The Mercedes engine takes advantage of extra boost.	The Mercedes engine takes advantage of extra boost.	165386114	1476405173944	1476405174061	g	71
323131	3481203	The Mercedes engine takes advantage of extra boost.	The Mercedes engine takes advantage of extra boost.	165386115	1476405174217	1476405174343	i	73
323131	3481203	The Mercedes engine takes advantage of extra boost.	The Mercedes engine takes advantage of extra boost.	165386116	1476405174492	1476405174677	n	78
323131	3481203	The Mercedes engine takes advantage of extra boost.	The Mercedes engine takes advantage of extra boost.	165386117	1476405174830	1476405174987	e	69
323131	3481203	The Mercedes engine takes advantage of extra boost.	The Mercedes engine takes advantage of extra boost.	165386197	1476405174952	1476405175112	 	32
323131	3481203	The Mercedes engine takes advantage of extra boost.	The Mercedes engine takes advantage of extra boost.	165386202	1476405175558	1476405175657	t	84
323131	3481203	The Mercedes engine takes advantage of extra boost.	The Mercedes engine takes advantage of extra boost.	165386206	1476405175848	1476405175972	a	65
323131	3481203	The Mercedes engine takes advantage of extra boost.	The Mercedes engine takes advantage of extra boost.	165386209	1476405176181	1476405176368	k	75
323131	3481203	The Mercedes engine takes advantage of extra boost.	The Mercedes engine takes advantage of extra boost.	165386212	1476405176403	1476405176519	e	69
323131	3481203	The Mercedes engine takes advantage of extra boost.	The Mercedes engine takes advantage of extra boost.	165386216	1476405176719	1476405176891	s	83
323131	3481203	The Mercedes engine takes advantage of extra boost.	The Mercedes engine takes advantage of extra boost.	165386276	1476405176946	1476405177132	 	32
323131	3481203	The Mercedes engine takes advantage of extra boost.	The Mercedes engine takes advantage of extra boost.	165386279	1476405177426	1476405177555	a	65
323131	3481203	The Mercedes engine takes advantage of extra boost.	The Mercedes engine takes advantage of extra boost.	165386281	1476405177587	1476405177734	s	83
323131	3481203	The Mercedes engine takes advantage of extra boost.	The Mercedes engine takes advantage of extra boost.	165386283	1476405178175	1476405178341	BKSP	8
323131	3481203	The Mercedes engine takes advantage of extra boost.	The Mercedes engine takes advantage of extra boost.	165386285	1476405178457	1476405178579	d	68
323131	3481203	The Mercedes engine takes advantage of extra boost.	The Mercedes engine takes advantage of extra boost.	165386291	1476405178988	1476405179071	v	86
323131	3481203	The Mercedes engine takes advantage of extra boost.	The Mercedes engine takes advantage of extra boost.	165386333	1476405179304	1476405179448	a	65
323131	3481203	The Mercedes engine takes advantage of extra boost.	The Mercedes engine takes advantage of extra boost.	165386337	1476405179438	1476405179627	n	78
323131	3481203	The Mercedes engine takes advantage of extra boost.	The Mercedes engine takes advantage of extra boost.	165386340	1476405179861	1476405179952	t	84
323131	3481203	The Mercedes engine takes advantage of extra boost.	The Mercedes engine takes advantage of extra boost.	165386344	1476405180116	1476405180243	a	65
323131	3481203	The Mercedes engine takes advantage of extra boost.	The Mercedes engine takes advantage of extra boost.	165386347	1476405180631	1476405180775	g	71
323131	3481203	The Mercedes engine takes advantage of extra boost.	The Mercedes engine takes advantage of extra boost.	165386388	1476405180855	1476405180992	e	69
323131	3481203	The Mercedes engine takes advantage of extra boost.	The Mercedes engine takes advantage of extra boost.	165386393	1476405181077	1476405181273	 	32
323131	3481203	The Mercedes engine takes advantage of extra boost.	The Mercedes engine takes advantage of extra boost.	165386401	1476405181823	1476405181977	o	79
323131	3481203	The Mercedes engine takes advantage of extra boost.	The Mercedes engine takes advantage of extra boost.	165386406	1476405182333	1476405182477	f	70
323131	3481203	The Mercedes engine takes advantage of extra boost.	The Mercedes engine takes advantage of extra boost.	165386500	1476405182420	1476405182614	 	32
323131	3481203	The Mercedes engine takes advantage of extra boost.	The Mercedes engine takes advantage of extra boost.	165386502	1476405183223	1476405183326	e	69
323131	3481203	The Mercedes engine takes advantage of extra boost.	The Mercedes engine takes advantage of extra boost.	165386504	1476405183977	1476405184176	x	88
323131	3481203	The Mercedes engine takes advantage of extra boost.	The Mercedes engine takes advantage of extra boost.	165386507	1476405184293	1476405184416	t	84
323131	3481203	The Mercedes engine takes advantage of extra boost.	The Mercedes engine takes advantage of extra boost.	165386509	1476405184539	1476405184634	r	82
323131	3481203	The Mercedes engine takes advantage of extra boost.	The Mercedes engine takes advantage of extra boost.	165386511	1476405184793	1476405184944	a	65
323131	3481203	The Mercedes engine takes advantage of extra boost.	The Mercedes engine takes advantage of extra boost.	165386554	1476405185010	1476405185209	 	32
323131	3481203	The Mercedes engine takes advantage of extra boost.	The Mercedes engine takes advantage of extra boost.	165386555	1476405185779	1476405185895	b	66
323131	3481203	The Mercedes engine takes advantage of extra boost.	The Mercedes engine takes advantage of extra boost.	165386556	1476405186026	1476405186131	o	79
323131	3481203	The Mercedes engine takes advantage of extra boost.	The Mercedes engine takes advantage of extra boost.	165386557	1476405186216	1476405186331	o	79
323131	3481203	The Mercedes engine takes advantage of extra boost.	The Mercedes engine takes advantage of extra boost.	165386558	1476405186474	1476405186581	s	83
323131	3481203	The Mercedes engine takes advantage of extra boost.	The Mercedes engine takes advantage of extra boost.	165386566	1476405186766	1476405186832	t	84
323131	3481203	The Mercedes engine takes advantage of extra boost.	The Mercedes engine takes advantage of extra boost.	165386567	1476405187006	1476405187106	.	190
323131	3481223	A parliamentary committee will collect the public's comments.	A parliamentary committee will collect the public's comments.	165386689	1476405189830	1476405190312	SHIFT	16
323131	3481223	A parliamentary committee will collect the public's comments.	A parliamentary committee will collect the public's comments.	165386692	1476405190161	1476405190330	A	65
323131	3481223	A parliamentary committee will collect the public's comments.	A parliamentary committee will collect the public's comments.	165386696	1476405190672	1476405190818	 	32
323131	3481223	A parliamentary committee will collect the public's comments.	A parliamentary committee will collect the public's comments.	165386702	1476405191350	1476405191489	p	80
323131	3481223	A parliamentary committee will collect the public's comments.	A parliamentary committee will collect the public's comments.	165386707	1476405191621	1476405191741	a	65
323131	3481223	A parliamentary committee will collect the public's comments.	A parliamentary committee will collect the public's comments.	165386713	1476405192030	1476405192155	r	82
323131	3481223	A parliamentary committee will collect the public's comments.	A parliamentary committee will collect the public's comments.	165386802	1476405192308	1476405192447	l	76
323131	3481223	A parliamentary committee will collect the public's comments.	A parliamentary committee will collect the public's comments.	165386805	1476405192604	1476405192766	i	73
323131	3481223	A parliamentary committee will collect the public's comments.	A parliamentary committee will collect the public's comments.	165386809	1476405193658	1476405193789	a	65
323131	3481223	A parliamentary committee will collect the public's comments.	A parliamentary committee will collect the public's comments.	165386813	1476405193915	1476405194068	m	77
323131	3481223	A parliamentary committee will collect the public's comments.	A parliamentary committee will collect the public's comments.	165386816	1476405194318	1476405194470	e	69
323131	3481223	A parliamentary committee will collect the public's comments.	A parliamentary committee will collect the public's comments.	165386873	1476405194455	1476405194639	n	78
323131	3481223	A parliamentary committee will collect the public's comments.	A parliamentary committee will collect the public's comments.	165386875	1476405194865	1476405194983	t	84
323131	3481223	A parliamentary committee will collect the public's comments.	A parliamentary committee will collect the public's comments.	165386877	1476405195197	1476405195350	a	65
323131	3481223	A parliamentary committee will collect the public's comments.	A parliamentary committee will collect the public's comments.	165386879	1476405195503	1476405195643	r	82
323131	3481223	A parliamentary committee will collect the public's comments.	A parliamentary committee will collect the public's comments.	165386881	1476405195780	1476405195889	y	89
323131	3481223	A parliamentary committee will collect the public's comments.	A parliamentary committee will collect the public's comments.	165386883	1476405195950	1476405196124	 	32
323131	3481223	A parliamentary committee will collect the public's comments.	A parliamentary committee will collect the public's comments.	165386926	1476405196637	1476405196755	c	67
323131	3481223	A parliamentary committee will collect the public's comments.	A parliamentary committee will collect the public's comments.	165386928	1476405196940	1476405197041	o	79
323131	3481223	A parliamentary committee will collect the public's comments.	A parliamentary committee will collect the public's comments.	165386930	1476405197187	1476405197319	m	77
323131	3481223	A parliamentary committee will collect the public's comments.	A parliamentary committee will collect the public's comments.	165386932	1476405197403	1476405197490	m	77
323131	3481223	A parliamentary committee will collect the public's comments.	A parliamentary committee will collect the public's comments.	165386935	1476405197629	1476405197783	i	73
323131	3481223	A parliamentary committee will collect the public's comments.	A parliamentary committee will collect the public's comments.	165386974	1476405197930	1476405198057	t	84
323131	3481223	A parliamentary committee will collect the public's comments.	A parliamentary committee will collect the public's comments.	165386975	1476405198509	1476405198601	t	84
323131	3481223	A parliamentary committee will collect the public's comments.	A parliamentary committee will collect the public's comments.	165386976	1476405198779	1476405198912	e	69
323131	3481223	A parliamentary committee will collect the public's comments.	A parliamentary committee will collect the public's comments.	165386979	1476405198995	1476405199074	e	69
323131	3481223	A parliamentary committee will collect the public's comments.	A parliamentary committee will collect the public's comments.	165386983	1476405199219	1476405199366	 	32
323131	3481223	A parliamentary committee will collect the public's comments.	A parliamentary committee will collect the public's comments.	165387046	1476405199768	1476405199883	w	87
323131	3481223	A parliamentary committee will collect the public's comments.	A parliamentary committee will collect the public's comments.	165387048	1476405199976	1476405200114	p	80
323131	3481223	A parliamentary committee will collect the public's comments.	A parliamentary committee will collect the public's comments.	165387050	1476405200785	1476405200933	BKSP	8
323131	3481223	A parliamentary committee will collect the public's comments.	A parliamentary committee will collect the public's comments.	165387052	1476405201204	1476405201293	i	73
323131	3481223	A parliamentary committee will collect the public's comments.	A parliamentary committee will collect the public's comments.	165387054	1476405201425	1476405201519	l	76
323131	3481223	A parliamentary committee will collect the public's comments.	A parliamentary committee will collect the public's comments.	165387057	1476405201596	1476405201710	l	76
323131	3481223	A parliamentary committee will collect the public's comments.	A parliamentary committee will collect the public's comments.	165387103	1476405201696	1476405201859	 	32
323131	3481223	A parliamentary committee will collect the public's comments.	A parliamentary committee will collect the public's comments.	165387105	1476405202328	1476405202459	c	67
323131	3481223	A parliamentary committee will collect the public's comments.	A parliamentary committee will collect the public's comments.	165387109	1476405202575	1476405202698	o	79
323131	3481223	A parliamentary committee will collect the public's comments.	A parliamentary committee will collect the public's comments.	165387111	1476405202916	1476405203025	l	76
323131	3481223	A parliamentary committee will collect the public's comments.	A parliamentary committee will collect the public's comments.	165387113	1476405203098	1476405203199	l	76
323131	3481223	A parliamentary committee will collect the public's comments.	A parliamentary committee will collect the public's comments.	165387118	1476405203385	1476405203517	e	69
323131	3481223	A parliamentary committee will collect the public's comments.	A parliamentary committee will collect the public's comments.	165387161	1476405203907	1476405204045	c	67
323131	3481223	A parliamentary committee will collect the public's comments.	A parliamentary committee will collect the public's comments.	165387162	1476405204181	1476405204328	t	84
323131	3481223	A parliamentary committee will collect the public's comments.	A parliamentary committee will collect the public's comments.	165387164	1476405204387	1476405204556	 	32
323131	3481223	A parliamentary committee will collect the public's comments.	A parliamentary committee will collect the public's comments.	165387166	1476405205193	1476405205294	t	84
323131	3481223	A parliamentary committee will collect the public's comments.	A parliamentary committee will collect the public's comments.	165387168	1476405205393	1476405205508	h	72
323131	3481223	A parliamentary committee will collect the public's comments.	A parliamentary committee will collect the public's comments.	165387231	1476405205655	1476405205807	e	69
323131	3481223	A parliamentary committee will collect the public's comments.	A parliamentary committee will collect the public's comments.	165387233	1476405205784	1476405205947	 	32
323131	3481223	A parliamentary committee will collect the public's comments.	A parliamentary committee will collect the public's comments.	165387235	1476405206494	1476405206628	p	80
323131	3481223	A parliamentary committee will collect the public's comments.	A parliamentary committee will collect the public's comments.	165387236	1476405207384	1476405207480	u	85
323131	3481223	A parliamentary committee will collect the public's comments.	A parliamentary committee will collect the public's comments.	165387237	1476405207872	1476405207979	b	66
323131	3481223	A parliamentary committee will collect the public's comments.	A parliamentary committee will collect the public's comments.	165387335	1476405208175	1476405208294	l	76
323131	3481223	A parliamentary committee will collect the public's comments.	A parliamentary committee will collect the public's comments.	165387337	1476405208473	1476405208604	i	73
323131	3481223	A parliamentary committee will collect the public's comments.	A parliamentary committee will collect the public's comments.	165387340	1476405209459	1476405209561	c	67
323131	3481223	A parliamentary committee will collect the public's comments.	A parliamentary committee will collect the public's comments.	165387343	1476405209885	1476405210047	'	222
323131	3481223	A parliamentary committee will collect the public's comments.	A parliamentary committee will collect the public's comments.	165387348	1476405210461	1476405210576	s	83
323131	3481223	A parliamentary committee will collect the public's comments.	A parliamentary committee will collect the public's comments.	165387413	1476405210612	1476405210821	 	32
323131	3481223	A parliamentary committee will collect the public's comments.	A parliamentary committee will collect the public's comments.	165387416	1476405211895	1476405211976	c	67
323131	3481223	A parliamentary committee will collect the public's comments.	A parliamentary committee will collect the public's comments.	165387419	1476405212143	1476405212260	o	79
323131	3481223	A parliamentary committee will collect the public's comments.	A parliamentary committee will collect the public's comments.	165387423	1476405212481	1476405212570	m	77
323131	3481223	A parliamentary committee will collect the public's comments.	A parliamentary committee will collect the public's comments.	165387429	1476405212658	1476405212775	m	77
323131	3481223	A parliamentary committee will collect the public's comments.	A parliamentary committee will collect the public's comments.	165387507	1476405212825	1476405212940	e	69
323131	3481223	A parliamentary committee will collect the public's comments.	A parliamentary committee will collect the public's comments.	165387512	1476405213031	1476405213163	n	78
323131	3481223	A parliamentary committee will collect the public's comments.	A parliamentary committee will collect the public's comments.	165387516	1476405213263	1476405213363	t	84
323131	3481223	A parliamentary committee will collect the public's comments.	A parliamentary committee will collect the public's comments.	165387521	1476405214111	1476405214195	s	83
323131	3481223	A parliamentary committee will collect the public's comments.	A parliamentary committee will collect the public's comments.	165387525	1476405214445	1476405214563	.	190
323131	3481242	Do not send small, unsuspecting children to check on my progress.	Do not send small, unsuspecting children to check on my progress.	165387652	1476405216914	1476405217306	SHIFT	16
323131	3481242	Do not send small, unsuspecting children to check on my progress.	Do not send small, unsuspecting children to check on my progress.	165387655	1476405217226	1476405217326	D	68
323131	3481242	Do not send small, unsuspecting children to check on my progress.	Do not send small, unsuspecting children to check on my progress.	165387658	1476405217754	1476405217895	o	79
323131	3481242	Do not send small, unsuspecting children to check on my progress.	Do not send small, unsuspecting children to check on my progress.	165387659	1476405217957	1476405218108	 	32
323131	3481242	Do not send small, unsuspecting children to check on my progress.	Do not send small, unsuspecting children to check on my progress.	165387660	1476405218310	1476405218460	n	78
323131	3481242	Do not send small, unsuspecting children to check on my progress.	Do not send small, unsuspecting children to check on my progress.	165387661	1476405218647	1476405218823	o	79
323131	3481242	Do not send small, unsuspecting children to check on my progress.	Do not send small, unsuspecting children to check on my progress.	165387681	1476405218892	1476405219043	t	84
323131	3481242	Do not send small, unsuspecting children to check on my progress.	Do not send small, unsuspecting children to check on my progress.	165387684	1476405219113	1476405219260	 	32
323131	3481242	Do not send small, unsuspecting children to check on my progress.	Do not send small, unsuspecting children to check on my progress.	165387687	1476405219810	1476405219921	s	83
323131	3481242	Do not send small, unsuspecting children to check on my progress.	Do not send small, unsuspecting children to check on my progress.	165387691	1476405220010	1476405220122	e	69
323131	3481242	Do not send small, unsuspecting children to check on my progress.	Do not send small, unsuspecting children to check on my progress.	165387695	1476405220184	1476405220353	n	78
323131	3481242	Do not send small, unsuspecting children to check on my progress.	Do not send small, unsuspecting children to check on my progress.	165387767	1476405220578	1476405220717	d	68
323131	3481242	Do not send small, unsuspecting children to check on my progress.	Do not send small, unsuspecting children to check on my progress.	165387768	1476405220735	1476405220896	 	32
323131	3481242	Do not send small, unsuspecting children to check on my progress.	Do not send small, unsuspecting children to check on my progress.	165387770	1476405221496	1476405221616	s	83
323131	3481242	Do not send small, unsuspecting children to check on my progress.	Do not send small, unsuspecting children to check on my progress.	165387772	1476405221685	1476405221871	m	77
323131	3481242	Do not send small, unsuspecting children to check on my progress.	Do not send small, unsuspecting children to check on my progress.	165387895	1476405221817	1476405221949	a	65
323131	3481242	Do not send small, unsuspecting children to check on my progress.	Do not send small, unsuspecting children to check on my progress.	165387899	1476405222196	1476405222296	l	76
323131	3481242	Do not send small, unsuspecting children to check on my progress.	Do not send small, unsuspecting children to check on my progress.	165387904	1476405222381	1476405222481	l	76
323131	3481242	Do not send small, unsuspecting children to check on my progress.	Do not send small, unsuspecting children to check on my progress.	165387909	1476405223452	1476405223550	,	188
323131	3481242	Do not send small, unsuspecting children to check on my progress.	Do not send small, unsuspecting children to check on my progress.	165387913	1476405223687	1476405223834	 	32
323131	3481242	Do not send small, unsuspecting children to check on my progress.	Do not send small, unsuspecting children to check on my progress.	165387917	1476405224507	1476405224680	u	85
323131	3481242	Do not send small, unsuspecting children to check on my progress.	Do not send small, unsuspecting children to check on my progress.	165388071	1476405225799	1476405225915	n	78
323131	3481242	Do not send small, unsuspecting children to check on my progress.	Do not send small, unsuspecting children to check on my progress.	165388072	1476405226080	1476405226211	s	83
323131	3481242	Do not send small, unsuspecting children to check on my progress.	Do not send small, unsuspecting children to check on my progress.	165388076	1476405226502	1476405226676	u	85
323131	3481242	Do not send small, unsuspecting children to check on my progress.	Do not send small, unsuspecting children to check on my progress.	165388081	1476405226683	1476405226780	s	83
323131	3481242	Do not send small, unsuspecting children to check on my progress.	Do not send small, unsuspecting children to check on my progress.	165388086	1476405227300	1476405227447	p	80
323131	3481242	Do not send small, unsuspecting children to check on my progress.	Do not send small, unsuspecting children to check on my progress.	165388204	1476405227773	1476405227889	e	69
323131	3481242	Do not send small, unsuspecting children to check on my progress.	Do not send small, unsuspecting children to check on my progress.	165388209	1476405229063	1476405229151	c	67
323131	3481242	Do not send small, unsuspecting children to check on my progress.	Do not send small, unsuspecting children to check on my progress.	165388213	1476405229380	1476405229485	t	84
323131	3481242	Do not send small, unsuspecting children to check on my progress.	Do not send small, unsuspecting children to check on my progress.	165388215	1476405229516	1476405229674	i	73
323131	3481242	Do not send small, unsuspecting children to check on my progress.	Do not send small, unsuspecting children to check on my progress.	165388218	1476405229861	1476405229997	n	78
323131	3481242	Do not send small, unsuspecting children to check on my progress.	Do not send small, unsuspecting children to check on my progress.	165388305	1476405230197	1476405230297	g	71
323131	3481242	Do not send small, unsuspecting children to check on my progress.	Do not send small, unsuspecting children to check on my progress.	165388313	1476405230359	1476405230528	 	32
323131	3481242	Do not send small, unsuspecting children to check on my progress.	Do not send small, unsuspecting children to check on my progress.	165388319	1476405231293	1476405231477	c	67
323131	3481242	Do not send small, unsuspecting children to check on my progress.	Do not send small, unsuspecting children to check on my progress.	165388325	1476405231646	1476405231791	h	72
323131	3481242	Do not send small, unsuspecting children to check on my progress.	Do not send small, unsuspecting children to check on my progress.	165388329	1476405231863	1476405231993	i	73
323131	3481242	Do not send small, unsuspecting children to check on my progress.	Do not send small, unsuspecting children to check on my progress.	165388422	1476405232115	1476405232270	l	76
323131	3481242	Do not send small, unsuspecting children to check on my progress.	Do not send small, unsuspecting children to check on my progress.	165388427	1476405232665	1476405232743	d	68
323131	3481242	Do not send small, unsuspecting children to check on my progress.	Do not send small, unsuspecting children to check on my progress.	165388431	1476405233074	1476405233176	r	82
323131	3481242	Do not send small, unsuspecting children to check on my progress.	Do not send small, unsuspecting children to check on my progress.	165388433	1476405233291	1476405233392	e	69
323131	3481242	Do not send small, unsuspecting children to check on my progress.	Do not send small, unsuspecting children to check on my progress.	165388437	1476405233715	1476405233830	n	78
323131	3481242	Do not send small, unsuspecting children to check on my progress.	Do not send small, unsuspecting children to check on my progress.	165388502	1476405233959	1476405234089	 	32
323131	3481242	Do not send small, unsuspecting children to check on my progress.	Do not send small, unsuspecting children to check on my progress.	165388504	1476405234559	1476405234704	t	84
323131	3481242	Do not send small, unsuspecting children to check on my progress.	Do not send small, unsuspecting children to check on my progress.	165388507	1476405234756	1476405234935	o	79
323131	3481242	Do not send small, unsuspecting children to check on my progress.	Do not send small, unsuspecting children to check on my progress.	165388509	1476405234917	1476405235039	 	32
323131	3481242	Do not send small, unsuspecting children to check on my progress.	Do not send small, unsuspecting children to check on my progress.	165388511	1476405235489	1476405235589	c	67
323131	3481242	Do not send small, unsuspecting children to check on my progress.	Do not send small, unsuspecting children to check on my progress.	165388601	1476405235869	1476405236039	h	72
323131	3481242	Do not send small, unsuspecting children to check on my progress.	Do not send small, unsuspecting children to check on my progress.	165388603	1476405236147	1476405236255	e	69
323131	3481242	Do not send small, unsuspecting children to check on my progress.	Do not send small, unsuspecting children to check on my progress.	165388606	1476405236613	1476405236716	c	67
323131	3481242	Do not send small, unsuspecting children to check on my progress.	Do not send small, unsuspecting children to check on my progress.	165388608	1476405237018	1476405237181	k	75
323131	3481242	Do not send small, unsuspecting children to check on my progress.	Do not send small, unsuspecting children to check on my progress.	165388611	1476405237235	1476405237382	 	32
323131	3481242	Do not send small, unsuspecting children to check on my progress.	Do not send small, unsuspecting children to check on my progress.	165388691	1476405237840	1476405237992	o	79
323131	3481242	Do not send small, unsuspecting children to check on my progress.	Do not send small, unsuspecting children to check on my progress.	165388694	1476405238161	1476405238262	n	78
323131	3481242	Do not send small, unsuspecting children to check on my progress.	Do not send small, unsuspecting children to check on my progress.	165388695	1476405238385	1476405238472	 	32
323131	3481242	Do not send small, unsuspecting children to check on my progress.	Do not send small, unsuspecting children to check on my progress.	165388697	1476405238519	1476405238664	m	77
323131	3481242	Do not send small, unsuspecting children to check on my progress.	Do not send small, unsuspecting children to check on my progress.	165388698	1476405239023	1476405239130	y	89
323131	3481242	Do not send small, unsuspecting children to check on my progress.	Do not send small, unsuspecting children to check on my progress.	165388751	1476405239106	1476405239257	 	32
323131	3481242	Do not send small, unsuspecting children to check on my progress.	Do not send small, unsuspecting children to check on my progress.	165388756	1476405239559	1476405239696	p	80
323131	3481242	Do not send small, unsuspecting children to check on my progress.	Do not send small, unsuspecting children to check on my progress.	165388760	1476405239918	1476405240017	r	82
323131	3481242	Do not send small, unsuspecting children to check on my progress.	Do not send small, unsuspecting children to check on my progress.	165388762	1476405240175	1476405240343	o	79
323131	3481242	Do not send small, unsuspecting children to check on my progress.	Do not send small, unsuspecting children to check on my progress.	165388766	1476405240702	1476405240790	g	71
323131	3481242	Do not send small, unsuspecting children to check on my progress.	Do not send small, unsuspecting children to check on my progress.	165388768	1476405240940	1476405241045	r	82
323131	3481242	Do not send small, unsuspecting children to check on my progress.	Do not send small, unsuspecting children to check on my progress.	165388802	1476405241161	1476405241252	e	69
323131	3481242	Do not send small, unsuspecting children to check on my progress.	Do not send small, unsuspecting children to check on my progress.	165388804	1476405241403	1476405241486	s	83
323131	3481242	Do not send small, unsuspecting children to check on my progress.	Do not send small, unsuspecting children to check on my progress.	165388806	1476405241561	1476405241661	s	83
323131	3481242	Do not send small, unsuspecting children to check on my progress.	Do not send small, unsuspecting children to check on my progress.	165388808	1476405241769	1476405241893	.	190
323131	3481269	It is not surprising.	It is not surprising.	165389048	1476405245140	1476405245362	SHIFT	16
323131	3481269	It is not surprising.	It is not surprising.	165389053	1476405245246	1476405245394	I	73
323131	3481269	It is not surprising.	It is not surprising.	165389060	1476405245578	1476405245680	t	84
323131	3481269	It is not surprising.	It is not surprising.	165389066	1476405246613	1476405246798	 	32
323131	3481269	It is not surprising.	It is not surprising.	165389071	1476405246866	1476405247029	i	73
323131	3481269	It is not surprising.	It is not surprising.	165389075	1476405247029	1476405247180	s	83
323131	3481269	It is not surprising.	It is not surprising.	165389141	1476405247173	1476405247273	 	32
323131	3481269	It is not surprising.	It is not surprising.	165389142	1476405247551	1476405247655	n	78
323131	3481269	It is not surprising.	It is not surprising.	165389145	1476405247693	1476405247856	o	79
323131	3481269	It is not surprising.	It is not surprising.	165389148	1476405247942	1476405248076	t	84
323131	3481269	It is not surprising.	It is not surprising.	165389151	1476405248126	1476405248275	 	32
323131	3481269	It is not surprising.	It is not surprising.	165389154	1476405248863	1476405248977	s	83
323131	3481269	It is not surprising.	It is not surprising.	165389197	1476405249298	1476405249401	u	85
323131	3481269	It is not surprising.	It is not surprising.	165389200	1476405249502	1476405249617	r	82
323131	3481269	It is not surprising.	It is not surprising.	165389205	1476405249904	1476405250041	p	80
323131	3481269	It is not surprising.	It is not surprising.	165389207	1476405250160	1476405250276	r	82
323131	3481269	It is not surprising.	It is not surprising.	165389210	1476405250474	1476405250601	i	73
323131	3481269	It is not surprising.	It is not surprising.	165389252	1476405250892	1476405251009	s	83
323131	3481269	It is not surprising.	It is not surprising.	165389254	1476405251045	1476405251177	i	73
323131	3481269	It is not surprising.	It is not surprising.	165389256	1476405251358	1476405251474	n	78
323131	3481269	It is not surprising.	It is not surprising.	165389258	1476405251593	1476405251702	g	71
323131	3481269	It is not surprising.	It is not surprising.	165389260	1476405251940	1476405252056	.	190
323131	3481280	The meeting came days after the entry into Chernomyrdin's team.	The meeting came days after the entry into Chernomyrdin's team.	165389450	1476405254385	1476405255052	SHIFT	16
323131	3481280	The meeting came days after the entry into Chernomyrdin's team.	The meeting came days after the entry into Chernomyrdin's team.	165389448	1476405254888	1476405255033	T	84
323131	3481280	The meeting came days after the entry into Chernomyrdin's team.	The meeting came days after the entry into Chernomyrdin's team.	165389452	1476405255754	1476405255886	h	72
323131	3481280	The meeting came days after the entry into Chernomyrdin's team.	The meeting came days after the entry into Chernomyrdin's team.	165389454	1476405255946	1476405256080	e	69
323131	3481280	The meeting came days after the entry into Chernomyrdin's team.	The meeting came days after the entry into Chernomyrdin's team.	165389455	1476405256046	1476405256193	 	32
323131	3481280	The meeting came days after the entry into Chernomyrdin's team.	The meeting came days after the entry into Chernomyrdin's team.	165389457	1476405256703	1476405256846	m	77
323131	3481280	The meeting came days after the entry into Chernomyrdin's team.	The meeting came days after the entry into Chernomyrdin's team.	165389485	1476405256943	1476405257022	e	69
323131	3481280	The meeting came days after the entry into Chernomyrdin's team.	The meeting came days after the entry into Chernomyrdin's team.	165389488	1476405257128	1476405257205	e	69
323131	3481280	The meeting came days after the entry into Chernomyrdin's team.	The meeting came days after the entry into Chernomyrdin's team.	165389492	1476405257365	1476405257453	t	84
323131	3481280	The meeting came days after the entry into Chernomyrdin's team.	The meeting came days after the entry into Chernomyrdin's team.	165389494	1476405257531	1476405257660	i	73
323131	3481280	The meeting came days after the entry into Chernomyrdin's team.	The meeting came days after the entry into Chernomyrdin's team.	165389498	1476405257810	1476405257889	n	78
323131	3481280	The meeting came days after the entry into Chernomyrdin's team.	The meeting came days after the entry into Chernomyrdin's team.	165389571	1476405258329	1476405258421	g	71
323131	3481280	The meeting came days after the entry into Chernomyrdin's team.	The meeting came days after the entry into Chernomyrdin's team.	165389574	1476405258562	1476405258714	 	32
323131	3481280	The meeting came days after the entry into Chernomyrdin's team.	The meeting came days after the entry into Chernomyrdin's team.	165389577	1476405259253	1476405259368	c	67
323131	3481280	The meeting came days after the entry into Chernomyrdin's team.	The meeting came days after the entry into Chernomyrdin's team.	165389580	1476405259535	1476405259655	a	65
323131	3481280	The meeting came days after the entry into Chernomyrdin's team.	The meeting came days after the entry into Chernomyrdin's team.	165389642	1476405259603	1476405259804	m	77
323131	3481280	The meeting came days after the entry into Chernomyrdin's team.	The meeting came days after the entry into Chernomyrdin's team.	165389643	1476405259851	1476405259946	e	69
323131	3481280	The meeting came days after the entry into Chernomyrdin's team.	The meeting came days after the entry into Chernomyrdin's team.	165389644	1476405259980	1476405260124	 	32
323131	3481280	The meeting came days after the entry into Chernomyrdin's team.	The meeting came days after the entry into Chernomyrdin's team.	165389646	1476405260620	1476405260738	d	68
323131	3481280	The meeting came days after the entry into Chernomyrdin's team.	The meeting came days after the entry into Chernomyrdin's team.	165389648	1476405260855	1476405260984	a	65
323131	3481280	The meeting came days after the entry into Chernomyrdin's team.	The meeting came days after the entry into Chernomyrdin's team.	165389650	1476405261459	1476405261519	y	89
323131	3481280	The meeting came days after the entry into Chernomyrdin's team.	The meeting came days after the entry into Chernomyrdin's team.	165389727	1476405262374	1476405262459	s	83
323131	3481280	The meeting came days after the entry into Chernomyrdin's team.	The meeting came days after the entry into Chernomyrdin's team.	165389729	1476405262490	1476405262664	 	32
323131	3481280	The meeting came days after the entry into Chernomyrdin's team.	The meeting came days after the entry into Chernomyrdin's team.	165389731	1476405262695	1476405262797	a	65
323131	3481280	The meeting came days after the entry into Chernomyrdin's team.	The meeting came days after the entry into Chernomyrdin's team.	165389734	1476405263449	1476405263581	f	70
323131	3481280	The meeting came days after the entry into Chernomyrdin's team.	The meeting came days after the entry into Chernomyrdin's team.	165389737	1476405263799	1476405263883	t	84
323131	3481280	The meeting came days after the entry into Chernomyrdin's team.	The meeting came days after the entry into Chernomyrdin's team.	165389769	1476405263993	1476405264155	e	69
323131	3481280	The meeting came days after the entry into Chernomyrdin's team.	The meeting came days after the entry into Chernomyrdin's team.	165389770	1476405264119	1476405264271	r	82
323131	3481280	The meeting came days after the entry into Chernomyrdin's team.	The meeting came days after the entry into Chernomyrdin's team.	165389772	1476405264666	1476405264812	 	32
323131	3481280	The meeting came days after the entry into Chernomyrdin's team.	The meeting came days after the entry into Chernomyrdin's team.	165389774	1476405265232	1476405265346	t	84
323131	3481280	The meeting came days after the entry into Chernomyrdin's team.	The meeting came days after the entry into Chernomyrdin's team.	165389777	1476405265456	1476405265549	h	72
323131	3481280	The meeting came days after the entry into Chernomyrdin's team.	The meeting came days after the entry into Chernomyrdin's team.	165389810	1476405265697	1476405265822	e	69
323131	3481280	The meeting came days after the entry into Chernomyrdin's team.	The meeting came days after the entry into Chernomyrdin's team.	165389812	1476405265797	1476405266000	 	32
323131	3481280	The meeting came days after the entry into Chernomyrdin's team.	The meeting came days after the entry into Chernomyrdin's team.	165389814	1476405266615	1476405266715	e	69
323131	3481280	The meeting came days after the entry into Chernomyrdin's team.	The meeting came days after the entry into Chernomyrdin's team.	165389817	1476405266862	1476405267016	n	78
323131	3481280	The meeting came days after the entry into Chernomyrdin's team.	The meeting came days after the entry into Chernomyrdin's team.	165389820	1476405267099	1476405267211	t	84
323131	3481280	The meeting came days after the entry into Chernomyrdin's team.	The meeting came days after the entry into Chernomyrdin's team.	165389857	1476405267417	1476405267536	r	82
323131	3481280	The meeting came days after the entry into Chernomyrdin's team.	The meeting came days after the entry into Chernomyrdin's team.	165389859	1476405268037	1476405268126	y	89
323131	3481280	The meeting came days after the entry into Chernomyrdin's team.	The meeting came days after the entry into Chernomyrdin's team.	165389861	1476405268205	1476405268361	 	32
323131	3481280	The meeting came days after the entry into Chernomyrdin's team.	The meeting came days after the entry into Chernomyrdin's team.	165389863	1476405268842	1476405268974	i	73
323131	3481280	The meeting came days after the entry into Chernomyrdin's team.	The meeting came days after the entry into Chernomyrdin's team.	165389865	1476405269221	1476405269326	n	78
323131	3481280	The meeting came days after the entry into Chernomyrdin's team.	The meeting came days after the entry into Chernomyrdin's team.	165389967	1476405269492	1476405269609	t	84
323131	3481280	The meeting came days after the entry into Chernomyrdin's team.	The meeting came days after the entry into Chernomyrdin's team.	165389968	1476405269825	1476405269994	o	79
323131	3481280	The meeting came days after the entry into Chernomyrdin's team.	The meeting came days after the entry into Chernomyrdin's team.	165389969	1476405270003	1476405270124	 	32
323131	3481280	The meeting came days after the entry into Chernomyrdin's team.	The meeting came days after the entry into Chernomyrdin's team.	165389970	1476405271099	1476405271738	SHIFT	16
323131	3481280	The meeting came days after the entry into Chernomyrdin's team.	The meeting came days after the entry into Chernomyrdin's team.	165389971	1476405271615	1476405271769	C	67
323131	3481280	The meeting came days after the entry into Chernomyrdin's team.	The meeting came days after the entry into Chernomyrdin's team.	165389972	1476405272626	1476405272724	h	72
323131	3481280	The meeting came days after the entry into Chernomyrdin's team.	The meeting came days after the entry into Chernomyrdin's team.	165390068	1476405273206	1476405273322	e	69
323131	3481280	The meeting came days after the entry into Chernomyrdin's team.	The meeting came days after the entry into Chernomyrdin's team.	165390071	1476405273825	1476405273939	r	82
323131	3481280	The meeting came days after the entry into Chernomyrdin's team.	The meeting came days after the entry into Chernomyrdin's team.	165390074	1476405275207	1476405275306	n	78
323131	3481280	The meeting came days after the entry into Chernomyrdin's team.	The meeting came days after the entry into Chernomyrdin's team.	165390077	1476405275699	1476405275834	o	79
323131	3481280	The meeting came days after the entry into Chernomyrdin's team.	The meeting came days after the entry into Chernomyrdin's team.	165390079	1476405276048	1476405276201	m	77
323131	3481280	The meeting came days after the entry into Chernomyrdin's team.	The meeting came days after the entry into Chernomyrdin's team.	165390230	1476405276641	1476405276773	y	89
323131	3481280	The meeting came days after the entry into Chernomyrdin's team.	The meeting came days after the entry into Chernomyrdin's team.	165390234	1476405277969	1476405278074	r	82
323131	3481280	The meeting came days after the entry into Chernomyrdin's team.	The meeting came days after the entry into Chernomyrdin's team.	165390241	1476405279276	1476405279406	d	68
323131	3481280	The meeting came days after the entry into Chernomyrdin's team.	The meeting came days after the entry into Chernomyrdin's team.	165390245	1476405279526	1476405279676	i	73
323131	3481280	The meeting came days after the entry into Chernomyrdin's team.	The meeting came days after the entry into Chernomyrdin's team.	165390248	1476405279845	1476405279953	n	78
323131	3481280	The meeting came days after the entry into Chernomyrdin's team.	The meeting came days after the entry into Chernomyrdin's team.	165390309	1476405280554	1476405280684	'	222
323131	3481280	The meeting came days after the entry into Chernomyrdin's team.	The meeting came days after the entry into Chernomyrdin's team.	165390314	1476405281255	1476405281386	s	83
323131	3481280	The meeting came days after the entry into Chernomyrdin's team.	The meeting came days after the entry into Chernomyrdin's team.	165390320	1476405281486	1476405281651	 	32
323131	3481280	The meeting came days after the entry into Chernomyrdin's team.	The meeting came days after the entry into Chernomyrdin's team.	165390325	1476405282187	1476405282296	t	84
323131	3481280	The meeting came days after the entry into Chernomyrdin's team.	The meeting came days after the entry into Chernomyrdin's team.	165390329	1476405282443	1476405282579	e	69
323131	3481280	The meeting came days after the entry into Chernomyrdin's team.	The meeting came days after the entry into Chernomyrdin's team.	165390367	1476405282798	1476405283045	a	65
323131	3481280	The meeting came days after the entry into Chernomyrdin's team.	The meeting came days after the entry into Chernomyrdin's team.	165390372	1476405282884	1476405283045	m	77
323131	3481280	The meeting came days after the entry into Chernomyrdin's team.	The meeting came days after the entry into Chernomyrdin's team.	165390376	1476405283896	1476405283983	.	190
