PARTICIPANT_ID	TEST_SECTION_ID	SENTENCE	USER_INPUT	KEYSTROKE_ID	PRESS_TIME	RELEASE_TIME	LETTER	KEYCODE
323431	3484148	It carries a lot more excitement for the driver.	It carries a lot more excitement for the driver.	165526657	1476408638188	1476408638871	CAPS_LOCK	20
323431	3484148	It carries a lot more excitement for the driver.	It carries a lot more excitement for the driver.	165526655	1476408638711	1476408638814	I	73
323431	3484148	It carries a lot more excitement for the driver.	It carries a lot more excitement for the driver.	165526659	1476408639182	1476408639326	t	84
323431	3484148	It carries a lot more excitement for the driver.	It carries a lot more excitement for the driver.	165526662	1476408639494	1476408639654	 	32
323431	3484148	It carries a lot more excitement for the driver.	It carries a lot more excitement for the driver.	165526666	1476408639830	1476408639974	c	67
323431	3484148	It carries a lot more excitement for the driver.	It carries a lot more excitement for the driver.	165526670	1476408640086	1476408640246	a	65
323431	3484148	It carries a lot more excitement for the driver.	It carries a lot more excitement for the driver.	165526719	1476408640382	1476408640502	r	82
323431	3484148	It carries a lot more excitement for the driver.	It carries a lot more excitement for the driver.	165526720	1476408640607	1476408640726	r	82
323431	3484148	It carries a lot more excitement for the driver.	It carries a lot more excitement for the driver.	165526721	1476408640926	1476408641046	i	73
323431	3484148	It carries a lot more excitement for the driver.	It carries a lot more excitement for the driver.	165526723	1476408641134	1476408641310	e	69
323431	3484148	It carries a lot more excitement for the driver.	It carries a lot more excitement for the driver.	165526725	1476408641454	1476408641582	s	83
323431	3484148	It carries a lot more excitement for the driver.	It carries a lot more excitement for the driver.	165526756	1476408641606	1476408641774	 	32
323431	3484148	It carries a lot more excitement for the driver.	It carries a lot more excitement for the driver.	165526757	1476408641838	1476408641966	a	65
323431	3484148	It carries a lot more excitement for the driver.	It carries a lot more excitement for the driver.	165526758	1476408642014	1476408642174	 	32
323431	3484148	It carries a lot more excitement for the driver.	It carries a lot more excitement for the driver.	165526759	1476408642254	1476408642398	l	76
323431	3484148	It carries a lot more excitement for the driver.	It carries a lot more excitement for the driver.	165526762	1476408642518	1476408642630	o	79
323431	3484148	It carries a lot more excitement for the driver.	It carries a lot more excitement for the driver.	165526819	1476408642622	1476408642750	t	84
323431	3484148	It carries a lot more excitement for the driver.	It carries a lot more excitement for the driver.	165526820	1476408642830	1476408642966	 	32
323431	3484148	It carries a lot more excitement for the driver.	It carries a lot more excitement for the driver.	165526821	1476408643038	1476408643150	m	77
323431	3484148	It carries a lot more excitement for the driver.	It carries a lot more excitement for the driver.	165526822	1476408643279	1476408643390	o	79
323431	3484148	It carries a lot more excitement for the driver.	It carries a lot more excitement for the driver.	165526823	1476408643462	1476408643614	r	82
323431	3484148	It carries a lot more excitement for the driver.	It carries a lot more excitement for the driver.	165526824	1476408643686	1476408643830	e	69
323431	3484148	It carries a lot more excitement for the driver.	It carries a lot more excitement for the driver.	165526866	1476408643974	1476408644118	 	32
323431	3484148	It carries a lot more excitement for the driver.	It carries a lot more excitement for the driver.	165526867	1476408644430	1476408644542	e	69
323431	3484148	It carries a lot more excitement for the driver.	It carries a lot more excitement for the driver.	165526868	1476408644766	1476408644926	x	88
323431	3484148	It carries a lot more excitement for the driver.	It carries a lot more excitement for the driver.	165526869	1476408645038	1476408645198	c	67
323431	3484148	It carries a lot more excitement for the driver.	It carries a lot more excitement for the driver.	165526871	1476408645222	1476408645318	i	73
323431	3484148	It carries a lot more excitement for the driver.	It carries a lot more excitement for the driver.	165526915	1476408645494	1476408645614	t	84
323431	3484148	It carries a lot more excitement for the driver.	It carries a lot more excitement for the driver.	165526918	1476408645974	1476408646094	e	69
323431	3484148	It carries a lot more excitement for the driver.	It carries a lot more excitement for the driver.	165526922	1476408646206	1476408646326	m	77
323431	3484148	It carries a lot more excitement for the driver.	It carries a lot more excitement for the driver.	165526925	1476408646406	1476408646518	e	69
323431	3484148	It carries a lot more excitement for the driver.	It carries a lot more excitement for the driver.	165526928	1476408646614	1476408646710	n	78
323431	3484148	It carries a lot more excitement for the driver.	It carries a lot more excitement for the driver.	165526951	1476408646838	1476408646958	t	84
323431	3484148	It carries a lot more excitement for the driver.	It carries a lot more excitement for the driver.	165526952	1476408647038	1476408647182	 	32
323431	3484148	It carries a lot more excitement for the driver.	It carries a lot more excitement for the driver.	165526953	1476408647270	1476408647406	f	70
323431	3484148	It carries a lot more excitement for the driver.	It carries a lot more excitement for the driver.	165526954	1476408647398	1476408647526	o	79
323431	3484148	It carries a lot more excitement for the driver.	It carries a lot more excitement for the driver.	165526956	1476408647590	1476408647686	r	82
323431	3484148	It carries a lot more excitement for the driver.	It carries a lot more excitement for the driver.	165526993	1476408647742	1476408647942	 	32
323431	3484148	It carries a lot more excitement for the driver.	It carries a lot more excitement for the driver.	165526994	1476408648046	1476408648166	t	84
323431	3484148	It carries a lot more excitement for the driver.	It carries a lot more excitement for the driver.	165526996	1476408648238	1476408648334	h	72
323431	3484148	It carries a lot more excitement for the driver.	It carries a lot more excitement for the driver.	165526999	1476408648830	1476408648966	e	69
323431	3484148	It carries a lot more excitement for the driver.	It carries a lot more excitement for the driver.	165527000	1476408649022	1476408649157	 	32
323431	3484148	It carries a lot more excitement for the driver.	It carries a lot more excitement for the driver.	165527249	1476408649542	1476408649694	f	70
323431	3484148	It carries a lot more excitement for the driver.	It carries a lot more excitement for the driver.	165527251	1476408650438	1476408650542	r	82
323431	3484148	It carries a lot more excitement for the driver.	It carries a lot more excitement for the driver.	165527253	1476408650670	1476408650782	i	73
323431	3484148	It carries a lot more excitement for the driver.	It carries a lot more excitement for the driver.	165527255	1476408652430	1476408652533	BKSP	8
323431	3484148	It carries a lot more excitement for the driver.	It carries a lot more excitement for the driver.	165527258	1476408652646	1476408652725	BKSP	8
323431	3484148	It carries a lot more excitement for the driver.	It carries a lot more excitement for the driver.	165527262	1476408652846	1476408652949	BKSP	8
323431	3484148	It carries a lot more excitement for the driver.	It carries a lot more excitement for the driver.	165527265	1476408654982	1476408655157	d	68
323431	3484148	It carries a lot more excitement for the driver.	It carries a lot more excitement for the driver.	165527268	1476408655278	1476408655389	r	82
323431	3484148	It carries a lot more excitement for the driver.	It carries a lot more excitement for the driver.	165527306	1476408655582	1476408655701	i	73
323431	3484148	It carries a lot more excitement for the driver.	It carries a lot more excitement for the driver.	165527310	1476408655894	1476408656077	v	86
323431	3484148	It carries a lot more excitement for the driver.	It carries a lot more excitement for the driver.	165527313	1476408656246	1476408656445	e	69
323431	3484148	It carries a lot more excitement for the driver.	It carries a lot more excitement for the driver.	165527316	1476408656422	1476408656525	r	82
323431	3484148	It carries a lot more excitement for the driver.	It carries a lot more excitement for the driver.	165527320	1476408657086	1476408657237	.	190
323431	3484164	Lisa now has everything.	Lisa now has everything.	165527480	1476408659106	1476408659726	CAPS_LOCK	20
323431	3484164	Lisa now has everything.	Lisa now has everything.	165527484	1476408659590	1476408659749	L	76
323431	3484164	Lisa now has everything.	Lisa now has everything.	165527487	1476408660038	1476408660157	i	73
323431	3484164	Lisa now has everything.	Lisa now has everything.	165527490	1476408660246	1476408660509	s	83
323431	3484164	Lisa now has everything.	Lisa now has everything.	165527491	1476408660638	1476408660741	a	65
323431	3484164	Lisa now has everything.	Lisa now has everything.	165527492	1476408660846	1476408661013	 	32
323431	3484164	Lisa now has everything.	Lisa now has everything.	165527519	1476408661086	1476408661205	n	78
323431	3484164	Lisa now has everything.	Lisa now has everything.	165527521	1476408661302	1476408661421	o	79
323431	3484164	Lisa now has everything.	Lisa now has everything.	165527523	1476408661470	1476408661605	w	87
323431	3484164	Lisa now has everything.	Lisa now has everything.	165527524	1476408661686	1476408661829	 	32
323431	3484164	Lisa now has everything.	Lisa now has everything.	165527525	1476408662094	1476408662213	h	72
323431	3484164	Lisa now has everything.	Lisa now has everything.	165527587	1476408662342	1476408662469	a	65
323431	3484164	Lisa now has everything.	Lisa now has everything.	165527589	1476408662590	1476408662725	s	83
323431	3484164	Lisa now has everything.	Lisa now has everything.	165527594	1476408662782	1476408662925	 	32
323431	3484164	Lisa now has everything.	Lisa now has everything.	165527597	1476408663182	1476408663349	e	69
323431	3484164	Lisa now has everything.	Lisa now has everything.	165527601	1476408663558	1476408663741	v	86
323431	3484164	Lisa now has everything.	Lisa now has everything.	165527635	1476408663854	1476408664038	e	69
323431	3484164	Lisa now has everything.	Lisa now has everything.	165527636	1476408664014	1476408664173	r	82
323431	3484164	Lisa now has everything.	Lisa now has everything.	165527638	1476408664262	1476408664373	y	89
323431	3484164	Lisa now has everything.	Lisa now has everything.	165527640	1476408664670	1476408664805	t	84
323431	3484164	Lisa now has everything.	Lisa now has everything.	165527643	1476408664902	1476408665005	h	72
323431	3484164	Lisa now has everything.	Lisa now has everything.	165527731	1476408665174	1476408665277	i	73
323431	3484164	Lisa now has everything.	Lisa now has everything.	165527733	1476408665422	1476408665533	n	78
323431	3484164	Lisa now has everything.	Lisa now has everything.	165527737	1476408665662	1476408665789	g	71
323431	3484164	Lisa now has everything.	Lisa now has everything.	165527742	1476408666174	1476408666317	.	190
323431	3484173	I will need to get you set up in their system prior to Tuesday.	I will need to get you set up in their system prior to Tuesday.	165527852	1476408667929	1476408669286	CAPS_LOCK	20
323431	3484173	I will need to get you set up in their system prior to Tuesday.	I will need to get you set up in their system prior to Tuesday.	165527849	1476408669117	1476408669205	I	73
323431	3484173	I will need to get you set up in their system prior to Tuesday.	I will need to get you set up in their system prior to Tuesday.	165527858	1476408669469	1476408669653	 	32
323431	3484173	I will need to get you set up in their system prior to Tuesday.	I will need to get you set up in their system prior to Tuesday.	165527862	1476408669733	1476408669885	w	87
323431	3484173	I will need to get you set up in their system prior to Tuesday.	I will need to get you set up in their system prior to Tuesday.	165527866	1476408669957	1476408670077	i	73
323431	3484173	I will need to get you set up in their system prior to Tuesday.	I will need to get you set up in their system prior to Tuesday.	165527870	1476408670277	1476408670365	l	76
323431	3484173	I will need to get you set up in their system prior to Tuesday.	I will need to get you set up in their system prior to Tuesday.	165527900	1476408670477	1476408670573	l	76
323431	3484173	I will need to get you set up in their system prior to Tuesday.	I will need to get you set up in their system prior to Tuesday.	165527903	1476408670653	1476408670781	 	32
323431	3484173	I will need to get you set up in their system prior to Tuesday.	I will need to get you set up in their system prior to Tuesday.	165527910	1476408670837	1476408670957	n	78
323431	3484173	I will need to get you set up in their system prior to Tuesday.	I will need to get you set up in their system prior to Tuesday.	165527920	1476408671173	1476408671293	e	69
323431	3484173	I will need to get you set up in their system prior to Tuesday.	I will need to get you set up in their system prior to Tuesday.	165527923	1476408671421	1476408671541	e	69
323431	3484173	I will need to get you set up in their system prior to Tuesday.	I will need to get you set up in their system prior to Tuesday.	165527958	1476408671701	1476408671813	d	68
323431	3484173	I will need to get you set up in their system prior to Tuesday.	I will need to get you set up in their system prior to Tuesday.	165527960	1476408671877	1476408672021	 	32
323431	3484173	I will need to get you set up in their system prior to Tuesday.	I will need to get you set up in their system prior to Tuesday.	165527963	1476408672061	1476408672189	t	84
323431	3484173	I will need to get you set up in their system prior to Tuesday.	I will need to get you set up in their system prior to Tuesday.	165527966	1476408672237	1476408672349	o	79
323431	3484173	I will need to get you set up in their system prior to Tuesday.	I will need to get you set up in their system prior to Tuesday.	165527969	1476408672453	1476408672598	 	32
323431	3484173	I will need to get you set up in their system prior to Tuesday.	I will need to get you set up in their system prior to Tuesday.	165528011	1476408672678	1476408672813	g	71
323431	3484173	I will need to get you set up in their system prior to Tuesday.	I will need to get you set up in their system prior to Tuesday.	165528015	1476408672981	1476408673173	e	69
323431	3484173	I will need to get you set up in their system prior to Tuesday.	I will need to get you set up in their system prior to Tuesday.	165528023	1476408673293	1476408673421	t	84
323431	3484173	I will need to get you set up in their system prior to Tuesday.	I will need to get you set up in their system prior to Tuesday.	165528027	1476408673541	1476408673677	 	32
323431	3484173	I will need to get you set up in their system prior to Tuesday.	I will need to get you set up in their system prior to Tuesday.	165528030	1476408673789	1476408673885	y	89
323431	3484173	I will need to get you set up in their system prior to Tuesday.	I will need to get you set up in their system prior to Tuesday.	165528088	1476408674005	1476408674149	o	79
323431	3484173	I will need to get you set up in their system prior to Tuesday.	I will need to get you set up in their system prior to Tuesday.	165528093	1476408674245	1476408674317	u	85
323431	3484173	I will need to get you set up in their system prior to Tuesday.	I will need to get you set up in their system prior to Tuesday.	165528097	1476408674485	1476408674629	 	32
323431	3484173	I will need to get you set up in their system prior to Tuesday.	I will need to get you set up in their system prior to Tuesday.	165528101	1476408674677	1476408674853	s	83
323431	3484173	I will need to get you set up in their system prior to Tuesday.	I will need to get you set up in their system prior to Tuesday.	165528104	1476408675453	1476408675605	e	69
323431	3484173	I will need to get you set up in their system prior to Tuesday.	I will need to get you set up in their system prior to Tuesday.	165528140	1476408675701	1476408675821	t	84
323431	3484173	I will need to get you set up in their system prior to Tuesday.	I will need to get you set up in their system prior to Tuesday.	165528144	1476408675925	1476408676053	 	32
323431	3484173	I will need to get you set up in their system prior to Tuesday.	I will need to get you set up in their system prior to Tuesday.	165528148	1476408676173	1476408676261	u	85
323431	3484173	I will need to get you set up in their system prior to Tuesday.	I will need to get you set up in their system prior to Tuesday.	165528151	1476408676413	1476408676517	p	80
323431	3484173	I will need to get you set up in their system prior to Tuesday.	I will need to get you set up in their system prior to Tuesday.	165528154	1476408676677	1476408676821	 	32
323431	3484173	I will need to get you set up in their system prior to Tuesday.	I will need to get you set up in their system prior to Tuesday.	165528266	1476408677501	1476408677597	i	73
323431	3484173	I will need to get you set up in their system prior to Tuesday.	I will need to get you set up in their system prior to Tuesday.	165528269	1476408677749	1476408677845	n	78
323431	3484173	I will need to get you set up in their system prior to Tuesday.	I will need to get you set up in their system prior to Tuesday.	165528272	1476408677989	1476408678133	 	32
323431	3484173	I will need to get you set up in their system prior to Tuesday.	I will need to get you set up in their system prior to Tuesday.	165528274	1476408678949	1476408679077	t	84
323431	3484173	I will need to get you set up in their system prior to Tuesday.	I will need to get you set up in their system prior to Tuesday.	165528276	1476408679197	1476408679301	h	72
323431	3484173	I will need to get you set up in their system prior to Tuesday.	I will need to get you set up in their system prior to Tuesday.	165528373	1476408679525	1476408679742	e	69
323431	3484173	I will need to get you set up in their system prior to Tuesday.	I will need to get you set up in their system prior to Tuesday.	165528376	1476408680605	1476408680709	i	73
323431	3484173	I will need to get you set up in their system prior to Tuesday.	I will need to get you set up in their system prior to Tuesday.	165528379	1476408680877	1476408681005	r	82
323431	3484173	I will need to get you set up in their system prior to Tuesday.	I will need to get you set up in their system prior to Tuesday.	165528385	1476408681077	1476408681221	 	32
323431	3484173	I will need to get you set up in their system prior to Tuesday.	I will need to get you set up in their system prior to Tuesday.	165528388	1476408681573	1476408681685	s	83
323431	3484173	I will need to get you set up in their system prior to Tuesday.	I will need to get you set up in their system prior to Tuesday.	165528418	1476408681765	1476408681837	y	89
323431	3484173	I will need to get you set up in their system prior to Tuesday.	I will need to get you set up in their system prior to Tuesday.	165528421	1476408682013	1476408682221	s	83
323431	3484173	I will need to get you set up in their system prior to Tuesday.	I will need to get you set up in their system prior to Tuesday.	165528424	1476408682509	1476408682645	t	84
323431	3484173	I will need to get you set up in their system prior to Tuesday.	I will need to get you set up in their system prior to Tuesday.	165528427	1476408682805	1476408682933	e	69
323431	3484173	I will need to get you set up in their system prior to Tuesday.	I will need to get you set up in their system prior to Tuesday.	165528431	1476408683021	1476408683133	m	77
323431	3484173	I will need to get you set up in their system prior to Tuesday.	I will need to get you set up in their system prior to Tuesday.	165528468	1476408683270	1476408683397	 	32
323431	3484173	I will need to get you set up in their system prior to Tuesday.	I will need to get you set up in their system prior to Tuesday.	165528470	1476408683557	1476408683685	p	80
323431	3484173	I will need to get you set up in their system prior to Tuesday.	I will need to get you set up in their system prior to Tuesday.	165528471	1476408683789	1476408683901	r	82
323431	3484173	I will need to get you set up in their system prior to Tuesday.	I will need to get you set up in their system prior to Tuesday.	165528472	1476408684173	1476408684301	i	73
323431	3484173	I will need to get you set up in their system prior to Tuesday.	I will need to get you set up in their system prior to Tuesday.	165528473	1476408684533	1476408684669	o	79
323431	3484173	I will need to get you set up in their system prior to Tuesday.	I will need to get you set up in their system prior to Tuesday.	165528519	1476408684966	1476408685093	r	82
323431	3484173	I will need to get you set up in their system prior to Tuesday.	I will need to get you set up in their system prior to Tuesday.	165528521	1476408685197	1476408685349	 	32
323431	3484173	I will need to get you set up in their system prior to Tuesday.	I will need to get you set up in their system prior to Tuesday.	165528523	1476408685405	1476408685539	t	84
323431	3484173	I will need to get you set up in their system prior to Tuesday.	I will need to get you set up in their system prior to Tuesday.	165528525	1476408685602	1476408685701	o	79
323431	3484173	I will need to get you set up in their system prior to Tuesday.	I will need to get you set up in their system prior to Tuesday.	165528527	1476408685845	1476408685973	 	32
323431	3484173	I will need to get you set up in their system prior to Tuesday.	I will need to get you set up in their system prior to Tuesday.	165528595	1476408686338	1476408686790	CAPS_LOCK	20
323431	3484173	I will need to get you set up in their system prior to Tuesday.	I will need to get you set up in their system prior to Tuesday.	165528593	1476408686549	1476408686701	T	84
323431	3484173	I will need to get you set up in their system prior to Tuesday.	I will need to get you set up in their system prior to Tuesday.	165528596	1476408687109	1476408687212	u	85
323431	3484173	I will need to get you set up in their system prior to Tuesday.	I will need to get you set up in their system prior to Tuesday.	165528597	1476408687453	1476408687573	e	69
323431	3484173	I will need to get you set up in their system prior to Tuesday.	I will need to get you set up in their system prior to Tuesday.	165528598	1476408687717	1476408687853	s	83
323431	3484173	I will need to get you set up in their system prior to Tuesday.	I will need to get you set up in their system prior to Tuesday.	165528601	1476408687941	1476408688076	d	68
323431	3484173	I will need to get you set up in their system prior to Tuesday.	I will need to get you set up in their system prior to Tuesday.	165528657	1476408688221	1476408688325	a	65
323431	3484173	I will need to get you set up in their system prior to Tuesday.	I will need to get you set up in their system prior to Tuesday.	165528659	1476408688437	1476408688556	y	89
323431	3484173	I will need to get you set up in their system prior to Tuesday.	I will need to get you set up in their system prior to Tuesday.	165528663	1476408688781	1476408688940	.	190
323431	3484191	Contact Lisa Mellencamp on any issues regarding pending litigation.	Contact Lisa Mellencamp on any issues regarding pending litigation.	165528778	1476408691178	1476408692357	CAPS_LOCK	20
323431	3484191	Contact Lisa Mellencamp on any issues regarding pending litigation.	Contact Lisa Mellencamp on any issues regarding pending litigation.	165528774	1476408692087	1476408692236	C	67
323431	3484191	Contact Lisa Mellencamp on any issues regarding pending litigation.	Contact Lisa Mellencamp on any issues regarding pending litigation.	165528783	1476408692557	1476408692684	o	79
323431	3484191	Contact Lisa Mellencamp on any issues regarding pending litigation.	Contact Lisa Mellencamp on any issues regarding pending litigation.	165528789	1476408692821	1476408692924	n	78
323431	3484191	Contact Lisa Mellencamp on any issues regarding pending litigation.	Contact Lisa Mellencamp on any issues regarding pending litigation.	165528791	1476408692989	1476408693116	t	84
323431	3484191	Contact Lisa Mellencamp on any issues regarding pending litigation.	Contact Lisa Mellencamp on any issues regarding pending litigation.	165528794	1476408693245	1476408693356	a	65
323431	3484191	Contact Lisa Mellencamp on any issues regarding pending litigation.	Contact Lisa Mellencamp on any issues regarding pending litigation.	165528890	1476408693685	1476408693708	c	67
323431	3484191	Contact Lisa Mellencamp on any issues regarding pending litigation.	Contact Lisa Mellencamp on any issues regarding pending litigation.	165528894	1476408693949	1476408694052	t	84
323431	3484191	Contact Lisa Mellencamp on any issues regarding pending litigation.	Contact Lisa Mellencamp on any issues regarding pending litigation.	165528895	1476408694173	1476408694324	 	32
323431	3484191	Contact Lisa Mellencamp on any issues regarding pending litigation.	Contact Lisa Mellencamp on any issues regarding pending litigation.	165528897	1476408694633	1476408694997	CAPS_LOCK	20
323431	3484191	Contact Lisa Mellencamp on any issues regarding pending litigation.	Contact Lisa Mellencamp on any issues regarding pending litigation.	165528898	1476408694861	1476408695004	L	76
323431	3484191	Contact Lisa Mellencamp on any issues regarding pending litigation.	Contact Lisa Mellencamp on any issues regarding pending litigation.	165528900	1476408695261	1476408695388	i	73
323431	3484191	Contact Lisa Mellencamp on any issues regarding pending litigation.	Contact Lisa Mellencamp on any issues regarding pending litigation.	165528980	1476408695525	1476408695580	d	68
323431	3484191	Contact Lisa Mellencamp on any issues regarding pending litigation.	Contact Lisa Mellencamp on any issues regarding pending litigation.	165528983	1476408696021	1476408696172	BKSP	8
323431	3484191	Contact Lisa Mellencamp on any issues regarding pending litigation.	Contact Lisa Mellencamp on any issues regarding pending litigation.	165528986	1476408696285	1476408696444	s	83
323431	3484191	Contact Lisa Mellencamp on any issues regarding pending litigation.	Contact Lisa Mellencamp on any issues regarding pending litigation.	165528989	1476408696581	1476408696700	a	65
323431	3484191	Contact Lisa Mellencamp on any issues regarding pending litigation.	Contact Lisa Mellencamp on any issues regarding pending litigation.	165528991	1476408696838	1476408696988	 	32
323431	3484191	Contact Lisa Mellencamp on any issues regarding pending litigation.	Contact Lisa Mellencamp on any issues regarding pending litigation.	165529051	1476408697354	1476408697773	CAPS_LOCK	20
323431	3484191	Contact Lisa Mellencamp on any issues regarding pending litigation.	Contact Lisa Mellencamp on any issues regarding pending litigation.	165528994	1476408697637	1476408697764	M	77
323431	3484191	Contact Lisa Mellencamp on any issues regarding pending litigation.	Contact Lisa Mellencamp on any issues regarding pending litigation.	165529052	1476408698109	1476408698252	e	69
323431	3484191	Contact Lisa Mellencamp on any issues regarding pending litigation.	Contact Lisa Mellencamp on any issues regarding pending litigation.	165529053	1476408698429	1476408698532	l	76
323431	3484191	Contact Lisa Mellencamp on any issues regarding pending litigation.	Contact Lisa Mellencamp on any issues regarding pending litigation.	165529055	1476408698629	1476408698781	l	76
323431	3484191	Contact Lisa Mellencamp on any issues regarding pending litigation.	Contact Lisa Mellencamp on any issues regarding pending litigation.	165529060	1476408699229	1476408699341	e	69
323431	3484191	Contact Lisa Mellencamp on any issues regarding pending litigation.	Contact Lisa Mellencamp on any issues regarding pending litigation.	165529064	1476408699533	1476408699660	n	78
323431	3484191	Contact Lisa Mellencamp on any issues regarding pending litigation.	Contact Lisa Mellencamp on any issues regarding pending litigation.	165529132	1476408700245	1476408700372	c	67
323431	3484191	Contact Lisa Mellencamp on any issues regarding pending litigation.	Contact Lisa Mellencamp on any issues regarding pending litigation.	165529134	1476408700525	1476408700636	a	65
323431	3484191	Contact Lisa Mellencamp on any issues regarding pending litigation.	Contact Lisa Mellencamp on any issues regarding pending litigation.	165529136	1476408700725	1476408700868	m	77
323431	3484191	Contact Lisa Mellencamp on any issues regarding pending litigation.	Contact Lisa Mellencamp on any issues regarding pending litigation.	165529138	1476408701085	1476408701196	p	80
323431	3484191	Contact Lisa Mellencamp on any issues regarding pending litigation.	Contact Lisa Mellencamp on any issues regarding pending litigation.	165529140	1476408701365	1476408701500	 	32
323431	3484191	Contact Lisa Mellencamp on any issues regarding pending litigation.	Contact Lisa Mellencamp on any issues regarding pending litigation.	165529237	1476408701613	1476408701724	o	79
323431	3484191	Contact Lisa Mellencamp on any issues regarding pending litigation.	Contact Lisa Mellencamp on any issues regarding pending litigation.	165529241	1476408701869	1476408701956	n	78
323431	3484191	Contact Lisa Mellencamp on any issues regarding pending litigation.	Contact Lisa Mellencamp on any issues regarding pending litigation.	165529245	1476408702101	1476408702220	 	32
323431	3484191	Contact Lisa Mellencamp on any issues regarding pending litigation.	Contact Lisa Mellencamp on any issues regarding pending litigation.	165529248	1476408704108	1476408704228	a	65
323431	3484191	Contact Lisa Mellencamp on any issues regarding pending litigation.	Contact Lisa Mellencamp on any issues regarding pending litigation.	165529252	1476408704325	1476408704460	n	78
323431	3484191	Contact Lisa Mellencamp on any issues regarding pending litigation.	Contact Lisa Mellencamp on any issues regarding pending litigation.	165529304	1476408704629	1476408704732	y	89
323431	3484191	Contact Lisa Mellencamp on any issues regarding pending litigation.	Contact Lisa Mellencamp on any issues regarding pending litigation.	165529308	1476408704909	1476408705060	 	32
323431	3484191	Contact Lisa Mellencamp on any issues regarding pending litigation.	Contact Lisa Mellencamp on any issues regarding pending litigation.	165529312	1476408705309	1476408705404	i	73
323431	3484191	Contact Lisa Mellencamp on any issues regarding pending litigation.	Contact Lisa Mellencamp on any issues regarding pending litigation.	165529313	1476408705524	1476408705660	s	83
323431	3484191	Contact Lisa Mellencamp on any issues regarding pending litigation.	Contact Lisa Mellencamp on any issues regarding pending litigation.	165529314	1476408705797	1476408705932	s	83
323431	3484191	Contact Lisa Mellencamp on any issues regarding pending litigation.	Contact Lisa Mellencamp on any issues regarding pending litigation.	165529462	1476408706004	1476408706092	u	85
323431	3484191	Contact Lisa Mellencamp on any issues regarding pending litigation.	Contact Lisa Mellencamp on any issues regarding pending litigation.	165529463	1476408707956	1476408708100	e	69
323431	3484191	Contact Lisa Mellencamp on any issues regarding pending litigation.	Contact Lisa Mellencamp on any issues regarding pending litigation.	165529465	1476408708228	1476408708348	s	83
323431	3484191	Contact Lisa Mellencamp on any issues regarding pending litigation.	Contact Lisa Mellencamp on any issues regarding pending litigation.	165529467	1476408708412	1476408708572	 	32
323431	3484191	Contact Lisa Mellencamp on any issues regarding pending litigation.	Contact Lisa Mellencamp on any issues regarding pending litigation.	165529470	1476408708732	1476408708876	r	82
323431	3484191	Contact Lisa Mellencamp on any issues regarding pending litigation.	Contact Lisa Mellencamp on any issues regarding pending litigation.	165529526	1476408708980	1476408709124	e	69
323431	3484191	Contact Lisa Mellencamp on any issues regarding pending litigation.	Contact Lisa Mellencamp on any issues regarding pending litigation.	165529533	1476408709348	1476408709468	g	71
323431	3484191	Contact Lisa Mellencamp on any issues regarding pending litigation.	Contact Lisa Mellencamp on any issues regarding pending litigation.	165529538	1476408709596	1476408709732	a	65
323431	3484191	Contact Lisa Mellencamp on any issues regarding pending litigation.	Contact Lisa Mellencamp on any issues regarding pending litigation.	165529542	1476408709812	1476408709948	r	82
323431	3484191	Contact Lisa Mellencamp on any issues regarding pending litigation.	Contact Lisa Mellencamp on any issues regarding pending litigation.	165529548	1476408710140	1476408710228	d	68
323431	3484191	Contact Lisa Mellencamp on any issues regarding pending litigation.	Contact Lisa Mellencamp on any issues regarding pending litigation.	165529579	1476408710357	1476408710452	i	73
323431	3484191	Contact Lisa Mellencamp on any issues regarding pending litigation.	Contact Lisa Mellencamp on any issues regarding pending litigation.	165529582	1476408710572	1476408710660	n	78
323431	3484191	Contact Lisa Mellencamp on any issues regarding pending litigation.	Contact Lisa Mellencamp on any issues regarding pending litigation.	165529585	1476408710724	1476408710868	g	71
323431	3484191	Contact Lisa Mellencamp on any issues regarding pending litigation.	Contact Lisa Mellencamp on any issues regarding pending litigation.	165529588	1476408710932	1476408711092	 	32
323431	3484191	Contact Lisa Mellencamp on any issues regarding pending litigation.	Contact Lisa Mellencamp on any issues regarding pending litigation.	165529593	1476408711204	1476408711324	p	80
323431	3484191	Contact Lisa Mellencamp on any issues regarding pending litigation.	Contact Lisa Mellencamp on any issues regarding pending litigation.	165529670	1476408711468	1476408711581	e	69
323431	3484191	Contact Lisa Mellencamp on any issues regarding pending litigation.	Contact Lisa Mellencamp on any issues regarding pending litigation.	165529673	1476408711636	1476408711732	n	78
323431	3484191	Contact Lisa Mellencamp on any issues regarding pending litigation.	Contact Lisa Mellencamp on any issues regarding pending litigation.	165529679	1476408712548	1476408712668	d	68
323431	3484191	Contact Lisa Mellencamp on any issues regarding pending litigation.	Contact Lisa Mellencamp on any issues regarding pending litigation.	165529683	1476408712740	1476408712844	i	73
323431	3484191	Contact Lisa Mellencamp on any issues regarding pending litigation.	Contact Lisa Mellencamp on any issues regarding pending litigation.	165529690	1476408712988	1476408713084	n	78
323431	3484191	Contact Lisa Mellencamp on any issues regarding pending litigation.	Contact Lisa Mellencamp on any issues regarding pending litigation.	165529740	1476408713164	1476408713292	g	71
323431	3484191	Contact Lisa Mellencamp on any issues regarding pending litigation.	Contact Lisa Mellencamp on any issues regarding pending litigation.	165529741	1476408713364	1476408713501	 	32
323431	3484191	Contact Lisa Mellencamp on any issues regarding pending litigation.	Contact Lisa Mellencamp on any issues regarding pending litigation.	165529742	1476408713644	1476408713780	l	76
323431	3484191	Contact Lisa Mellencamp on any issues regarding pending litigation.	Contact Lisa Mellencamp on any issues regarding pending litigation.	165529744	1476408713990	1476408714084	i	73
323431	3484191	Contact Lisa Mellencamp on any issues regarding pending litigation.	Contact Lisa Mellencamp on any issues regarding pending litigation.	165529746	1476408714156	1476408714276	t	84
323431	3484191	Contact Lisa Mellencamp on any issues regarding pending litigation.	Contact Lisa Mellencamp on any issues regarding pending litigation.	165529791	1476408714397	1476408714476	i	73
323431	3484191	Contact Lisa Mellencamp on any issues regarding pending litigation.	Contact Lisa Mellencamp on any issues regarding pending litigation.	165529793	1476408714764	1476408714908	g	71
323431	3484191	Contact Lisa Mellencamp on any issues regarding pending litigation.	Contact Lisa Mellencamp on any issues regarding pending litigation.	165529795	1476408715037	1476408715164	a	65
323431	3484191	Contact Lisa Mellencamp on any issues regarding pending litigation.	Contact Lisa Mellencamp on any issues regarding pending litigation.	165529796	1476408715268	1476408715380	t	84
323431	3484191	Contact Lisa Mellencamp on any issues regarding pending litigation.	Contact Lisa Mellencamp on any issues regarding pending litigation.	165529798	1476408715404	1476408715508	i	73
323431	3484191	Contact Lisa Mellencamp on any issues regarding pending litigation.	Contact Lisa Mellencamp on any issues regarding pending litigation.	165529869	1476408715604	1476408715716	o	79
323431	3484191	Contact Lisa Mellencamp on any issues regarding pending litigation.	Contact Lisa Mellencamp on any issues regarding pending litigation.	165529870	1476408715836	1476408715964	n	78
323431	3484191	Contact Lisa Mellencamp on any issues regarding pending litigation.	Contact Lisa Mellencamp on any issues regarding pending litigation.	165529872	1476408716628	1476408716756	.	190
323431	3484217	He's a questionable Fantasy player to begin with.	He's a questionable Fantasy player to begin with. 	165530087	1476408719184	1476408719532	CAPS_LOCK	20
323431	3484217	He's a questionable Fantasy player to begin with.	He's a questionable Fantasy player to begin with. 	165530086	1476408719396	1476408719492	H	72
323431	3484217	He's a questionable Fantasy player to begin with.	He's a questionable Fantasy player to begin with. 	165530090	1476408719836	1476408719988	e	69
323431	3484217	He's a questionable Fantasy player to begin with.	He's a questionable Fantasy player to begin with. 	165530092	1476408720468	1476408720596	'	222
323431	3484217	He's a questionable Fantasy player to begin with.	He's a questionable Fantasy player to begin with. 	165530094	1476408721316	1476408721460	s	83
323431	3484217	He's a questionable Fantasy player to begin with.	He's a questionable Fantasy player to begin with. 	165530096	1476408721532	1476408721692	 	32
323431	3484217	He's a questionable Fantasy player to begin with.	He's a questionable Fantasy player to begin with. 	165530163	1476408721780	1476408721924	a	65
323431	3484217	He's a questionable Fantasy player to begin with.	He's a questionable Fantasy player to begin with. 	165530167	1476408722004	1476408722156	 	32
323431	3484217	He's a questionable Fantasy player to begin with.	He's a questionable Fantasy player to begin with. 	165530171	1476408722524	1476408722740	q	81
323431	3484217	He's a questionable Fantasy player to begin with.	He's a questionable Fantasy player to begin with. 	165530176	1476408722884	1476408722980	u	85
323431	3484217	He's a questionable Fantasy player to begin with.	He's a questionable Fantasy player to begin with. 	165530183	1476408723172	1476408723332	e	69
323431	3484217	He's a questionable Fantasy player to begin with.	He's a questionable Fantasy player to begin with. 	165530237	1476408723484	1476408723636	s	83
323431	3484217	He's a questionable Fantasy player to begin with.	He's a questionable Fantasy player to begin with. 	165530239	1476408723772	1476408723900	t	84
323431	3484217	He's a questionable Fantasy player to begin with.	He's a questionable Fantasy player to begin with. 	165530240	1476408723964	1476408724060	i	73
323431	3484217	He's a questionable Fantasy player to begin with.	He's a questionable Fantasy player to begin with. 	165530242	1476408724164	1476408724276	o	79
323431	3484217	He's a questionable Fantasy player to begin with.	He's a questionable Fantasy player to begin with. 	165530247	1476408724420	1476408724532	n	78
323431	3484217	He's a questionable Fantasy player to begin with.	He's a questionable Fantasy player to begin with. 	165530350	1476408724604	1476408724724	a	65
323431	3484217	He's a questionable Fantasy player to begin with.	He's a questionable Fantasy player to begin with. 	165530355	1476408724996	1476408725132	b	66
323431	3484217	He's a questionable Fantasy player to begin with.	He's a questionable Fantasy player to begin with. 	165530358	1476408725220	1476408725340	l	76
323431	3484217	He's a questionable Fantasy player to begin with.	He's a questionable Fantasy player to begin with. 	165530361	1476408725428	1476408725548	e	69
323431	3484217	He's a questionable Fantasy player to begin with.	He's a questionable Fantasy player to begin with. 	165530365	1476408725940	1476408726091	 	32
323431	3484217	He's a questionable Fantasy player to begin with.	He's a questionable Fantasy player to begin with. 	165530513	1476408726560	1476408727189	CAPS_LOCK	20
323431	3484217	He's a questionable Fantasy player to begin with.	He's a questionable Fantasy player to begin with. 	165530509	1476408726909	1476408727076	F	70
323431	3484217	He's a questionable Fantasy player to begin with.	He's a questionable Fantasy player to begin with. 	165530516	1476408727524	1476408727716	a	65
323431	3484217	He's a questionable Fantasy player to begin with.	He's a questionable Fantasy player to begin with. 	165530519	1476408727788	1476408727923	n	78
323431	3484217	He's a questionable Fantasy player to begin with.	He's a questionable Fantasy player to begin with. 	165530521	1476408728132	1476408728267	t	84
323431	3484217	He's a questionable Fantasy player to begin with.	He's a questionable Fantasy player to begin with. 	165530523	1476408728412	1476408728547	a	65
323431	3484217	He's a questionable Fantasy player to begin with.	He's a questionable Fantasy player to begin with. 	165530576	1476408728684	1476408728828	s	83
323431	3484217	He's a questionable Fantasy player to begin with.	He's a questionable Fantasy player to begin with. 	165530580	1476408728876	1476408728988	y	89
323431	3484217	He's a questionable Fantasy player to begin with.	He's a questionable Fantasy player to begin with. 	165530583	1476408729156	1476408729308	 	32
323431	3484217	He's a questionable Fantasy player to begin with.	He's a questionable Fantasy player to begin with. 	165530589	1476408729476	1476408729595	p	80
323431	3484217	He's a questionable Fantasy player to begin with.	He's a questionable Fantasy player to begin with. 	165530594	1476408729756	1476408729867	l	76
323431	3484217	He's a questionable Fantasy player to begin with.	He's a questionable Fantasy player to begin with. 	165530691	1476408729940	1476408730075	a	65
323431	3484217	He's a questionable Fantasy player to begin with.	He's a questionable Fantasy player to begin with. 	165530693	1476408730220	1476408730323	y	89
323431	3484217	He's a questionable Fantasy player to begin with.	He's a questionable Fantasy player to begin with. 	165530695	1476408731348	1476408731555	e	69
323431	3484217	He's a questionable Fantasy player to begin with.	He's a questionable Fantasy player to begin with. 	165530699	1476408731532	1476408731643	r	82
323431	3484217	He's a questionable Fantasy player to begin with.	He's a questionable Fantasy player to begin with. 	165530702	1476408731780	1476408731939	 	32
323431	3484217	He's a questionable Fantasy player to begin with.	He's a questionable Fantasy player to begin with. 	165530763	1476408732044	1476408732179	t	84
323431	3484217	He's a questionable Fantasy player to begin with.	He's a questionable Fantasy player to begin with. 	165530767	1476408732220	1476408732315	o	79
323431	3484217	He's a questionable Fantasy player to begin with.	He's a questionable Fantasy player to begin with. 	165530771	1476408732436	1476408732571	 	32
323431	3484217	He's a questionable Fantasy player to begin with.	He's a questionable Fantasy player to begin with. 	165530773	1476408732668	1476408732835	b	66
323431	3484217	He's a questionable Fantasy player to begin with.	He's a questionable Fantasy player to begin with. 	165530774	1476408733132	1476408733259	e	69
323431	3484217	He's a questionable Fantasy player to begin with.	He's a questionable Fantasy player to begin with. 	165530845	1476408733660	1476408733763	g	71
323431	3484217	He's a questionable Fantasy player to begin with.	He's a questionable Fantasy player to begin with. 	165530850	1476408733828	1476408733915	i	73
323431	3484217	He's a questionable Fantasy player to begin with.	He's a questionable Fantasy player to begin with. 	165530856	1476408734044	1476408734147	n	78
323431	3484217	He's a questionable Fantasy player to begin with.	He's a questionable Fantasy player to begin with. 	165530862	1476408734428	1476408734587	 	32
323431	3484217	He's a questionable Fantasy player to begin with.	He's a questionable Fantasy player to begin with. 	165530866	1476408734820	1476408734947	w	87
323431	3484217	He's a questionable Fantasy player to begin with.	He's a questionable Fantasy player to begin with. 	165531003	1476408735076	1476408735179	i	73
323431	3484217	He's a questionable Fantasy player to begin with.	He's a questionable Fantasy player to begin with. 	165531008	1476408735476	1476408735555	h	72
323431	3484217	He's a questionable Fantasy player to begin with.	He's a questionable Fantasy player to begin with. 	165531012	1476408736204	1476408736299	BKSP	8
323431	3484217	He's a questionable Fantasy player to begin with.	He's a questionable Fantasy player to begin with. 	165531016	1476408736836	1476408736933	t	84
323431	3484217	He's a questionable Fantasy player to begin with.	He's a questionable Fantasy player to begin with. 	165531019	1476408736932	1476408737019	h	72
323431	3484217	He's a questionable Fantasy player to begin with.	He's a questionable Fantasy player to begin with. 	165531020	1476408737388	1476408737531	.	190
323431	3484217	He's a questionable Fantasy player to begin with.	He's a questionable Fantasy player to begin with. 	165531061	1476408737748	1476408737891	 	32
323431	3484240	I think this move will not overcome the problem.	I think this move will not overcome the problem.	165531258	1476408739776	1476408740524	CAPS_LOCK	20
323431	3484240	I think this move will not overcome the problem.	I think this move will not overcome the problem.	165531252	1476408740348	1476408740435	I	73
323431	3484240	I think this move will not overcome the problem.	I think this move will not overcome the problem.	165531261	1476408740684	1476408740843	 	32
323431	3484240	I think this move will not overcome the problem.	I think this move will not overcome the problem.	165531264	1476408741940	1476408742043	t	84
323431	3484240	I think this move will not overcome the problem.	I think this move will not overcome the problem.	165531268	1476408742236	1476408742340	h	72
323431	3484240	I think this move will not overcome the problem.	I think this move will not overcome the problem.	165531273	1476408742460	1476408742555	i	73
323431	3484240	I think this move will not overcome the problem.	I think this move will not overcome the problem.	165531352	1476408742684	1476408742787	n	78
323431	3484240	I think this move will not overcome the problem.	I think this move will not overcome the problem.	165531358	1476408743148	1476408743267	k	75
323431	3484240	I think this move will not overcome the problem.	I think this move will not overcome the problem.	165531363	1476408743412	1476408743555	 	32
323431	3484240	I think this move will not overcome the problem.	I think this move will not overcome the problem.	165531370	1476408743772	1476408743883	t	84
323431	3484240	I think this move will not overcome the problem.	I think this move will not overcome the problem.	165531375	1476408743931	1476408744019	h	72
323431	3484240	I think this move will not overcome the problem.	I think this move will not overcome the problem.	165531408	1476408744132	1476408744235	i	73
323431	3484240	I think this move will not overcome the problem.	I think this move will not overcome the problem.	165531412	1476408744308	1476408744419	s	83
323431	3484240	I think this move will not overcome the problem.	I think this move will not overcome the problem.	165531416	1476408744460	1476408744571	 	32
323431	3484240	I think this move will not overcome the problem.	I think this move will not overcome the problem.	165531420	1476408744659	1476408744763	m	77
323431	3484240	I think this move will not overcome the problem.	I think this move will not overcome the problem.	165531422	1476408744924	1476408745027	o	79
323431	3484240	I think this move will not overcome the problem.	I think this move will not overcome the problem.	165531513	1476408745195	1476408745363	v	86
323431	3484240	I think this move will not overcome the problem.	I think this move will not overcome the problem.	165531516	1476408745507	1476408745691	e	69
323431	3484240	I think this move will not overcome the problem.	I think this move will not overcome the problem.	165531519	1476408745755	1476408745899	 	32
323431	3484240	I think this move will not overcome the problem.	I think this move will not overcome the problem.	165531521	1476408746084	1476408746203	w	87
323431	3484240	I think this move will not overcome the problem.	I think this move will not overcome the problem.	165531524	1476408746412	1476408746507	i	73
323431	3484240	I think this move will not overcome the problem.	I think this move will not overcome the problem.	165531679	1476408746667	1476408746763	l	76
323431	3484240	I think this move will not overcome the problem.	I think this move will not overcome the problem.	165531682	1476408746964	1476408747155	 	32
323431	3484240	I think this move will not overcome the problem.	I think this move will not overcome the problem.	165531686	1476408747875	1476408747987	BKSP	8
323431	3484240	I think this move will not overcome the problem.	I think this move will not overcome the problem.	165531689	1476408748859	1476408748971	l	76
323431	3484240	I think this move will not overcome the problem.	I think this move will not overcome the problem.	165531693	1476408749091	1476408749203	 	32
323431	3484240	I think this move will not overcome the problem.	I think this move will not overcome the problem.	165531696	1476408749283	1476408749371	n	78
323431	3484240	I think this move will not overcome the problem.	I think this move will not overcome the problem.	165531767	1476408749508	1476408749603	o	79
323431	3484240	I think this move will not overcome the problem.	I think this move will not overcome the problem.	165531770	1476408749691	1476408749827	t	84
323431	3484240	I think this move will not overcome the problem.	I think this move will not overcome the problem.	165531774	1476408749916	1476408750059	 	32
323431	3484240	I think this move will not overcome the problem.	I think this move will not overcome the problem.	165531779	1476408750331	1476408750451	o	79
323431	3484240	I think this move will not overcome the problem.	I think this move will not overcome the problem.	165531785	1476408750531	1476408750715	v	86
323431	3484240	I think this move will not overcome the problem.	I think this move will not overcome the problem.	165531842	1476408750827	1476408751019	e	69
323431	3484240	I think this move will not overcome the problem.	I think this move will not overcome the problem.	165531844	1476408750987	1476408751107	r	82
323431	3484240	I think this move will not overcome the problem.	I think this move will not overcome the problem.	165531847	1476408751395	1476408751507	c	67
323431	3484240	I think this move will not overcome the problem.	I think this move will not overcome the problem.	165531849	1476408751659	1476408751755	o	79
323431	3484240	I think this move will not overcome the problem.	I think this move will not overcome the problem.	165531851	1476408751891	1476408751987	m	77
323431	3484240	I think this move will not overcome the problem.	I think this move will not overcome the problem.	165531916	1476408752027	1476408752171	e	69
323431	3484240	I think this move will not overcome the problem.	I think this move will not overcome the problem.	165531922	1476408752219	1476408752363	 	32
323431	3484240	I think this move will not overcome the problem.	I think this move will not overcome the problem.	165531926	1476408752387	1476408752507	t	84
323431	3484240	I think this move will not overcome the problem.	I think this move will not overcome the problem.	165531929	1476408752587	1476408752683	h	72
323431	3484240	I think this move will not overcome the problem.	I think this move will not overcome the problem.	165531931	1476408752875	1476408753027	e	69
323431	3484240	I think this move will not overcome the problem.	I think this move will not overcome the problem.	165531998	1476408753131	1476408753275	 	32
323431	3484240	I think this move will not overcome the problem.	I think this move will not overcome the problem.	165532000	1476408753451	1476408753579	p	80
323431	3484240	I think this move will not overcome the problem.	I think this move will not overcome the problem.	165532004	1476408753739	1476408753851	r	82
323431	3484240	I think this move will not overcome the problem.	I think this move will not overcome the problem.	165532010	1476408753963	1476408754075	o	79
323431	3484240	I think this move will not overcome the problem.	I think this move will not overcome the problem.	165532015	1476408754379	1476408754515	b	66
323431	3484240	I think this move will not overcome the problem.	I think this move will not overcome the problem.	165532098	1476408754603	1476408754739	l	76
323431	3484240	I think this move will not overcome the problem.	I think this move will not overcome the problem.	165532102	1476408754779	1476408754915	e	69
323431	3484240	I think this move will not overcome the problem.	I think this move will not overcome the problem.	165532104	1476408754987	1476408755107	m	77
323431	3484240	I think this move will not overcome the problem.	I think this move will not overcome the problem.	165532108	1476408755371	1476408755523	.	190
323431	3484260	I liked your flag.	I liked your flag.	165532302	1476408758272	1476408758595	CAPS_LOCK	20
323431	3484260	I liked your flag.	I liked your flag.	165532296	1476408758427	1476408758515	I	73
323431	3484260	I liked your flag.	I liked your flag.	165532309	1476408759027	1476408759203	 	32
323431	3484260	I liked your flag.	I liked your flag.	165532313	1476408759411	1476408759579	l	76
323431	3484260	I liked your flag.	I liked your flag.	165532317	1476408759683	1476408759787	i	73
323431	3484260	I liked your flag.	I liked your flag.	165532324	1476408760107	1476408760235	k	75
323431	3484260	I liked your flag.	I liked your flag.	165532362	1476408760315	1476408760467	e	69
323431	3484260	I liked your flag.	I liked your flag.	165532364	1476408760675	1476408760787	d	68
323431	3484260	I liked your flag.	I liked your flag.	165532366	1476408760891	1476408761035	 	32
323431	3484260	I liked your flag.	I liked your flag.	165532367	1476408761187	1476408761283	y	89
323431	3484260	I liked your flag.	I liked your flag.	165532369	1476408761411	1476408761547	o	79
323431	3484260	I liked your flag.	I liked your flag.	165532422	1476408761659	1476408761723	u	85
323431	3484260	I liked your flag.	I liked your flag.	165532424	1476408761891	1476408762011	r	82
323431	3484260	I liked your flag.	I liked your flag.	165532427	1476408762051	1476408762227	 	32
323431	3484260	I liked your flag.	I liked your flag.	165532432	1476408762443	1476408762578	f	70
323431	3484260	I liked your flag.	I liked your flag.	165532437	1476408762691	1476408762811	l	76
323431	3484260	I liked your flag.	I liked your flag.	165532503	1476408762883	1476408763010	a	65
323431	3484260	I liked your flag.	I liked your flag.	165532507	1476408763331	1476408763450	g	71
323431	3484260	I liked your flag.	I liked your flag.	165532513	1476408763675	1476408763826	.	190
323431	3484269	You can bring it to work and we could meet for lunch one day.	You can bring it to work and we could meet for lunch one day.	165532689	1476408765143	1476408766147	CAPS_LOCK	20
323431	3484269	You can bring it to work and we could meet for lunch one day.	You can bring it to work and we could meet for lunch one day.	165532685	1476408765971	1476408766058	Y	89
323431	3484269	You can bring it to work and we could meet for lunch one day.	You can bring it to work and we could meet for lunch one day.	165532695	1476408766331	1476408766450	o	79
323431	3484269	You can bring it to work and we could meet for lunch one day.	You can bring it to work and we could meet for lunch one day.	165532698	1476408766563	1476408766650	u	85
323431	3484269	You can bring it to work and we could meet for lunch one day.	You can bring it to work and we could meet for lunch one day.	165532701	1476408766803	1476408766914	 	32
323431	3484269	You can bring it to work and we could meet for lunch one day.	You can bring it to work and we could meet for lunch one day.	165532706	1476408766979	1476408767162	c	67
323431	3484269	You can bring it to work and we could meet for lunch one day.	You can bring it to work and we could meet for lunch one day.	165532825	1476408767339	1476408767459	n	78
323431	3484269	You can bring it to work and we could meet for lunch one day.	You can bring it to work and we could meet for lunch one day.	165532827	1476408768163	1476408768258	BKSP	8
323431	3484269	You can bring it to work and we could meet for lunch one day.	You can bring it to work and we could meet for lunch one day.	165532832	1476408768419	1476408768538	a	65
323431	3484269	You can bring it to work and we could meet for lunch one day.	You can bring it to work and we could meet for lunch one day.	165532841	1476408768619	1476408768746	n	78
323431	3484269	You can bring it to work and we could meet for lunch one day.	You can bring it to work and we could meet for lunch one day.	165532845	1476408768907	1476408769034	 	32
323431	3484269	You can bring it to work and we could meet for lunch one day.	You can bring it to work and we could meet for lunch one day.	165532850	1476408769299	1476408769410	b	66
323431	3484269	You can bring it to work and we could meet for lunch one day.	You can bring it to work and we could meet for lunch one day.	165532922	1476408770243	1476408770362	r	82
323431	3484269	You can bring it to work and we could meet for lunch one day.	You can bring it to work and we could meet for lunch one day.	165532926	1476408770403	1476408770490	i	73
323431	3484269	You can bring it to work and we could meet for lunch one day.	You can bring it to work and we could meet for lunch one day.	165532929	1476408770611	1476408770706	n	78
323431	3484269	You can bring it to work and we could meet for lunch one day.	You can bring it to work and we could meet for lunch one day.	165532932	1476408770763	1476408770882	g	71
323431	3484269	You can bring it to work and we could meet for lunch one day.	You can bring it to work and we could meet for lunch one day.	165532935	1476408770939	1476408771082	 	32
323431	3484269	You can bring it to work and we could meet for lunch one day.	You can bring it to work and we could meet for lunch one day.	165533000	1476408771195	1476408771298	i	73
323431	3484269	You can bring it to work and we could meet for lunch one day.	You can bring it to work and we could meet for lunch one day.	165533004	1476408771387	1476408771530	t	84
323431	3484269	You can bring it to work and we could meet for lunch one day.	You can bring it to work and we could meet for lunch one day.	165533007	1476408771667	1476408771826	 	32
323431	3484269	You can bring it to work and we could meet for lunch one day.	You can bring it to work and we could meet for lunch one day.	165533012	1476408772019	1476408772170	t	84
323431	3484269	You can bring it to work and we could meet for lunch one day.	You can bring it to work and we could meet for lunch one day.	165533021	1476408772267	1476408772378	o	79
323431	3484269	You can bring it to work and we could meet for lunch one day.	You can bring it to work and we could meet for lunch one day.	165533082	1476408772515	1476408772634	 	32
323431	3484269	You can bring it to work and we could meet for lunch one day.	You can bring it to work and we could meet for lunch one day.	165533084	1476408772675	1476408772810	w	87
323431	3484269	You can bring it to work and we could meet for lunch one day.	You can bring it to work and we could meet for lunch one day.	165533088	1476408772915	1476408773018	o	79
323431	3484269	You can bring it to work and we could meet for lunch one day.	You can bring it to work and we could meet for lunch one day.	165533089	1476408773115	1476408773218	r	82
323431	3484269	You can bring it to work and we could meet for lunch one day.	You can bring it to work and we could meet for lunch one day.	165533092	1476408773612	1476408773714	k	75
323431	3484269	You can bring it to work and we could meet for lunch one day.	You can bring it to work and we could meet for lunch one day.	165533165	1476408773835	1476408773962	 	32
323431	3484269	You can bring it to work and we could meet for lunch one day.	You can bring it to work and we could meet for lunch one day.	165533168	1476408774019	1476408774130	a	65
323431	3484269	You can bring it to work and we could meet for lunch one day.	You can bring it to work and we could meet for lunch one day.	165533172	1476408774179	1476408774274	n	78
323431	3484269	You can bring it to work and we could meet for lunch one day.	You can bring it to work and we could meet for lunch one day.	165533177	1476408774347	1476408774458	d	68
323431	3484269	You can bring it to work and we could meet for lunch one day.	You can bring it to work and we could meet for lunch one day.	165533185	1476408774579	1476408774746	 	32
323431	3484269	You can bring it to work and we could meet for lunch one day.	You can bring it to work and we could meet for lunch one day.	165533232	1476408774899	1476408775042	w	87
323431	3484269	You can bring it to work and we could meet for lunch one day.	You can bring it to work and we could meet for lunch one day.	165533235	1476408775195	1476408775322	e	69
323431	3484269	You can bring it to work and we could meet for lunch one day.	You can bring it to work and we could meet for lunch one day.	165533239	1476408775403	1476408775546	 	32
323431	3484269	You can bring it to work and we could meet for lunch one day.	You can bring it to work and we could meet for lunch one day.	165533244	1476408775643	1476408775762	c	67
323431	3484269	You can bring it to work and we could meet for lunch one day.	You can bring it to work and we could meet for lunch one day.	165533247	1476408775819	1476408775930	o	79
323431	3484269	You can bring it to work and we could meet for lunch one day.	You can bring it to work and we could meet for lunch one day.	165533315	1476408776067	1476408776162	u	85
323431	3484269	You can bring it to work and we could meet for lunch one day.	You can bring it to work and we could meet for lunch one day.	165533321	1476408776707	1476408776810	l	76
323431	3484269	You can bring it to work and we could meet for lunch one day.	You can bring it to work and we could meet for lunch one day.	165533327	1476408776979	1476408777122	d	68
323431	3484269	You can bring it to work and we could meet for lunch one day.	You can bring it to work and we could meet for lunch one day.	165533332	1476408777203	1476408777330	 	32
323431	3484269	You can bring it to work and we could meet for lunch one day.	You can bring it to work and we could meet for lunch one day.	165533338	1476408777411	1476408777522	m	77
323431	3484269	You can bring it to work and we could meet for lunch one day.	You can bring it to work and we could meet for lunch one day.	165533395	1476408777587	1476408777714	e	69
323431	3484269	You can bring it to work and we could meet for lunch one day.	You can bring it to work and we could meet for lunch one day.	165533398	1476408777827	1476408777938	e	69
323431	3484269	You can bring it to work and we could meet for lunch one day.	You can bring it to work and we could meet for lunch one day.	165533402	1476408778067	1476408778186	t	84
323431	3484269	You can bring it to work and we could meet for lunch one day.	You can bring it to work and we could meet for lunch one day.	165533404	1476408778275	1476408778410	 	32
323431	3484269	You can bring it to work and we could meet for lunch one day.	You can bring it to work and we could meet for lunch one day.	165533406	1476408778539	1476408778706	f	70
323431	3484269	You can bring it to work and we could meet for lunch one day.	You can bring it to work and we could meet for lunch one day.	165533472	1476408778747	1476408778858	o	79
323431	3484269	You can bring it to work and we could meet for lunch one day.	You can bring it to work and we could meet for lunch one day.	165533476	1476408778899	1476408778994	r	82
323431	3484269	You can bring it to work and we could meet for lunch one day.	You can bring it to work and we could meet for lunch one day.	165533482	1476408779083	1476408779218	 	32
323431	3484269	You can bring it to work and we could meet for lunch one day.	You can bring it to work and we could meet for lunch one day.	165533486	1476408779539	1476408779666	l	76
323431	3484269	You can bring it to work and we could meet for lunch one day.	You can bring it to work and we could meet for lunch one day.	165533492	1476408780251	1476408780306	u	85
323431	3484269	You can bring it to work and we could meet for lunch one day.	You can bring it to work and we could meet for lunch one day.	165533555	1476408780499	1476408780602	n	78
323431	3484269	You can bring it to work and we could meet for lunch one day.	You can bring it to work and we could meet for lunch one day.	165533557	1476408780715	1476408780842	c	67
323431	3484269	You can bring it to work and we could meet for lunch one day.	You can bring it to work and we could meet for lunch one day.	165533559	1476408781067	1476408781194	h	72
323431	3484269	You can bring it to work and we could meet for lunch one day.	You can bring it to work and we could meet for lunch one day.	165533561	1476408781595	1476408781754	 	32
323431	3484269	You can bring it to work and we could meet for lunch one day.	You can bring it to work and we could meet for lunch one day.	165533564	1476408781811	1476408781922	o	79
323431	3484269	You can bring it to work and we could meet for lunch one day.	You can bring it to work and we could meet for lunch one day.	165533632	1476408782059	1476408782162	n	78
323431	3484269	You can bring it to work and we could meet for lunch one day.	You can bring it to work and we could meet for lunch one day.	165533638	1476408782242	1476408782370	e	69
323431	3484269	You can bring it to work and we could meet for lunch one day.	You can bring it to work and we could meet for lunch one day.	165533643	1476408782442	1476408782570	 	32
323431	3484269	You can bring it to work and we could meet for lunch one day.	You can bring it to work and we could meet for lunch one day.	165533646	1476408782610	1476408782746	d	68
323431	3484269	You can bring it to work and we could meet for lunch one day.	You can bring it to work and we could meet for lunch one day.	165533649	1476408782883	1476408782986	a	65
323431	3484269	You can bring it to work and we could meet for lunch one day.	You can bring it to work and we could meet for lunch one day.	165533733	1476408783075	1476408783194	y	89
323431	3484269	You can bring it to work and we could meet for lunch one day.	You can bring it to work and we could meet for lunch one day.	165533736	1476408783466	1476408783586	.	190
323431	3484294	It will all be public someday.	It will all be public someday.	165533892	1476408786438	1476408786747	CAPS_LOCK	20
323431	3484294	It will all be public someday.	It will all be public someday.	165533890	1476408786611	1476408786698	I	73
323431	3484294	It will all be public someday.	It will all be public someday.	165533894	1476408787066	1476408787186	t	84
323431	3484294	It will all be public someday.	It will all be public someday.	165533895	1476408787330	1476408787482	 	32
323431	3484294	It will all be public someday.	It will all be public someday.	165533896	1476408787642	1476408787746	w	87
323431	3484294	It will all be public someday.	It will all be public someday.	165533897	1476408787842	1476408787938	i	73
323431	3484294	It will all be public someday.	It will all be public someday.	165534012	1476408788090	1476408788194	l	76
323431	3484294	It will all be public someday.	It will all be public someday.	165534014	1476408788314	1476408788394	l	76
323431	3484294	It will all be public someday.	It will all be public someday.	165534017	1476408788418	1476408788530	 	32
323431	3484294	It will all be public someday.	It will all be public someday.	165534020	1476408788642	1476408788690	 	32
323431	3484294	It will all be public someday.	It will all be public someday.	165534022	1476408789698	1476408789818	BKSP	8
323431	3484294	It will all be public someday.	It will all be public someday.	165534025	1476408790338	1476408790466	a	65
323431	3484294	It will all be public someday.	It will all be public someday.	165534074	1476408790506	1476408790602	l	76
323431	3484294	It will all be public someday.	It will all be public someday.	165534076	1476408790714	1476408790826	l	76
323431	3484294	It will all be public someday.	It will all be public someday.	165534078	1476408790922	1476408791066	 	32
323431	3484294	It will all be public someday.	It will all be public someday.	165534080	1476408791154	1476408791322	b	66
323431	3484294	It will all be public someday.	It will all be public someday.	165534085	1476408791458	1476408791594	e	69
323431	3484294	It will all be public someday.	It will all be public someday.	165534160	1476408791618	1476408791754	 	32
323431	3484294	It will all be public someday.	It will all be public someday.	165534169	1476408791874	1476408791994	p	80
323431	3484294	It will all be public someday.	It will all be public someday.	165534175	1476408792562	1476408792650	u	85
323431	3484294	It will all be public someday.	It will all be public someday.	165534183	1476408792850	1476408793002	b	66
323431	3484294	It will all be public someday.	It will all be public someday.	165534188	1476408793050	1476408793162	l	76
323431	3484294	It will all be public someday.	It will all be public someday.	165534219	1476408793314	1476408793394	i	73
323431	3484294	It will all be public someday.	It will all be public someday.	165534223	1476408793466	1476408793618	c	67
323431	3484294	It will all be public someday.	It will all be public someday.	165534228	1476408793738	1476408793874	 	32
323431	3484294	It will all be public someday.	It will all be public someday.	165534236	1476408793939	1476408794082	s	83
323431	3484294	It will all be public someday.	It will all be public someday.	165534290	1476408794074	1476408794186	o	79
323431	3484294	It will all be public someday.	It will all be public someday.	165534294	1476408794330	1476408794434	m	77
323431	3484294	It will all be public someday.	It will all be public someday.	165534297	1476408794466	1476408794634	e	69
323431	3484294	It will all be public someday.	It will all be public someday.	165534303	1476408794810	1476408794930	d	68
323431	3484294	It will all be public someday.	It will all be public someday.	165534306	1476408795114	1476408795242	a	65
323431	3484294	It will all be public someday.	It will all be public someday.	165534311	1476408795362	1476408795466	y	89
323431	3484294	It will all be public someday.	It will all be public someday.	165534381	1476408795690	1476408795834	.	190
323431	3484311	Let me know if I can help.	Let me know if I can help.	165534592	1476408797943	1476408798691	CAPS_LOCK	20
323431	3484311	Let me know if I can help.	Let me know if I can help.	165534587	1476408798554	1476408798682	L	76
323431	3484311	Let me know if I can help.	Let me know if I can help.	165534597	1476408799154	1476408799354	e	69
323431	3484311	Let me know if I can help.	Let me know if I can help.	165534603	1476408799458	1476408799602	t	84
323431	3484311	Let me know if I can help.	Let me know if I can help.	165534607	1476408799722	1476408799882	 	32
323431	3484311	Let me know if I can help.	Let me know if I can help.	165534611	1476408799970	1476408800114	m	77
323431	3484311	Let me know if I can help.	Let me know if I can help.	165534692	1476408800170	1476408800306	e	69
323431	3484311	Let me know if I can help.	Let me know if I can help.	165534699	1476408800426	1476408800586	 	32
323431	3484311	Let me know if I can help.	Let me know if I can help.	165534706	1476408800754	1476408800898	k	75
323431	3484311	Let me know if I can help.	Let me know if I can help.	165534713	1476408801530	1476408801618	n	78
323431	3484311	Let me know if I can help.	Let me know if I can help.	165534719	1476408801730	1476408801850	o	79
323431	3484311	Let me know if I can help.	Let me know if I can help.	165534779	1476408801978	1476408802114	w	87
323431	3484311	Let me know if I can help.	Let me know if I can help.	165534780	1476408802234	1476408802378	 	32
323431	3484311	Let me know if I can help.	Let me know if I can help.	165534781	1476408802475	1476408802586	i	73
323431	3484311	Let me know if I can help.	Let me know if I can help.	165534782	1476408802674	1476408802794	f	70
323431	3484311	Let me know if I can help.	Let me know if I can help.	165534786	1476408802810	1476408802978	 	32
323431	3484311	Let me know if I can help.	Let me know if I can help.	165534944	1476408803426	1476408804113	SHIFT	16
323431	3484311	Let me know if I can help.	Let me know if I can help.	165534938	1476408804010	1476408804107	I	73
323431	3484311	Let me know if I can help.	Let me know if I can help.	165534947	1476408804330	1476408804473	 	32
323431	3484311	Let me know if I can help.	Let me know if I can help.	165534949	1476408804634	1476408804785	c	67
323431	3484311	Let me know if I can help.	Let me know if I can help.	165534953	1476408804890	1476408804993	a	65
323431	3484311	Let me know if I can help.	Let me know if I can help.	165534956	1476408805026	1476408805161	n	78
323431	3484311	Let me know if I can help.	Let me know if I can help.	165535023	1476408805266	1476408805433	 	32
323431	3484311	Let me know if I can help.	Let me know if I can help.	165535025	1476408805586	1476408805689	h	72
323431	3484311	Let me know if I can help.	Let me know if I can help.	165535030	1476408805810	1476408805953	e	69
323431	3484311	Let me know if I can help.	Let me know if I can help.	165535037	1476408806074	1476408806217	l	76
323431	3484311	Let me know if I can help.	Let me know if I can help.	165535043	1476408806466	1476408806609	p	80
323431	3484311	Let me know if I can help.	Let me know if I can help.	165535111	1476408807178	1476408807305	.	190
323431	3484325	I don't know that I will be back Monday.	I don't know that I will be back Monday.	165535366	1476408809303	1476408810082	CAPS_LOCK	20
323431	3484325	I don't know that I will be back Monday.	I don't know that I will be back Monday.	165535361	1476408809834	1476408809913	I	73
323431	3484325	I don't know that I will be back Monday.	I don't know that I will be back Monday.	165535372	1476408810362	1476408810553	 	32
323431	3484325	I don't know that I will be back Monday.	I don't know that I will be back Monday.	165535376	1476408811362	1476408811473	d	68
323431	3484325	I don't know that I will be back Monday.	I don't know that I will be back Monday.	165535380	1476408811490	1476408811633	o	79
323431	3484325	I don't know that I will be back Monday.	I don't know that I will be back Monday.	165535383	1476408811762	1476408811889	n	78
323431	3484325	I don't know that I will be back Monday.	I don't know that I will be back Monday.	165535493	1476408812162	1476408812337	'	222
323431	3484325	I don't know that I will be back Monday.	I don't know that I will be back Monday.	165535496	1476408812634	1476408812745	t	84
323431	3484325	I don't know that I will be back Monday.	I don't know that I will be back Monday.	165535503	1476408812858	1476408813001	 	32
323431	3484325	I don't know that I will be back Monday.	I don't know that I will be back Monday.	165535507	1476408813194	1476408813337	k	75
323431	3484325	I don't know that I will be back Monday.	I don't know that I will be back Monday.	165535513	1476408813610	1476408813745	n	78
323431	3484325	I don't know that I will be back Monday.	I don't know that I will be back Monday.	165535583	1476408814290	1476408814401	o	79
323431	3484325	I don't know that I will be back Monday.	I don't know that I will be back Monday.	165535586	1476408814498	1476408814625	w	87
323431	3484325	I don't know that I will be back Monday.	I don't know that I will be back Monday.	165535589	1476408814666	1476408814833	 	32
323431	3484325	I don't know that I will be back Monday.	I don't know that I will be back Monday.	165535593	1476408814970	1476408815105	t	84
323431	3484325	I don't know that I will be back Monday.	I don't know that I will be back Monday.	165535594	1476408815146	1476408815249	h	72
323431	3484325	I don't know that I will be back Monday.	I don't know that I will be back Monday.	165535710	1476408815322	1476408815465	a	65
323431	3484325	I don't know that I will be back Monday.	I don't know that I will be back Monday.	165535713	1476408815570	1476408815681	t	84
323431	3484325	I don't know that I will be back Monday.	I don't know that I will be back Monday.	165535716	1476408815722	1476408815873	 	32
323431	3484325	I don't know that I will be back Monday.	I don't know that I will be back Monday.	165535725	1476408816238	1476408817060	CAPS_LOCK	20
323431	3484325	I don't know that I will be back Monday.	I don't know that I will be back Monday.	165535720	1476408816514	1476408816586	I	73
323431	3484325	I don't know that I will be back Monday.	I don't know that I will be back Monday.	165535730	1476408817522	1476408817713	 	32
323431	3484325	I don't know that I will be back Monday.	I don't know that I will be back Monday.	165535800	1476408817818	1476408817945	w	87
323431	3484325	I don't know that I will be back Monday.	I don't know that I will be back Monday.	165535804	1476408818466	1476408818577	i	73
323431	3484325	I don't know that I will be back Monday.	I don't know that I will be back Monday.	165535810	1476408818770	1476408818865	l	76
323431	3484325	I don't know that I will be back Monday.	I don't know that I will be back Monday.	165535819	1476408819002	1476408819121	l	76
323431	3484325	I don't know that I will be back Monday.	I don't know that I will be back Monday.	165535829	1476408819258	1476408819409	 	32
323431	3484325	I don't know that I will be back Monday.	I don't know that I will be back Monday.	165535914	1476408819450	1476408819593	b	66
323431	3484325	I don't know that I will be back Monday.	I don't know that I will be back Monday.	165535918	1476408819762	1476408819889	e	69
323431	3484325	I don't know that I will be back Monday.	I don't know that I will be back Monday.	165535925	1476408819946	1476408820081	 	32
323431	3484325	I don't know that I will be back Monday.	I don't know that I will be back Monday.	165535930	1476408820506	1476408820633	b	66
323431	3484325	I don't know that I will be back Monday.	I don't know that I will be back Monday.	165535933	1476408820802	1476408820953	a	65
323431	3484325	I don't know that I will be back Monday.	I don't know that I will be back Monday.	165536035	1476408821106	1476408821249	c	67
323431	3484325	I don't know that I will be back Monday.	I don't know that I will be back Monday.	165536039	1476408821386	1476408821521	k	75
323431	3484325	I don't know that I will be back Monday.	I don't know that I will be back Monday.	165536041	1476408821641	1476408821785	 	32
323431	3484325	I don't know that I will be back Monday.	I don't know that I will be back Monday.	165536055	1476408822078	1476408822538	CAPS_LOCK	20
323431	3484325	I don't know that I will be back Monday.	I don't know that I will be back Monday.	165536049	1476408822385	1476408822521	M	77
323431	3484325	I don't know that I will be back Monday.	I don't know that I will be back Monday.	165536060	1476408822713	1476408822825	o	79
323431	3484325	I don't know that I will be back Monday.	I don't know that I will be back Monday.	165536149	1476408822937	1476408823041	n	78
323431	3484325	I don't know that I will be back Monday.	I don't know that I will be back Monday.	165536154	1476408823129	1476408823281	d	68
323431	3484325	I don't know that I will be back Monday.	I don't know that I will be back Monday.	165536157	1476408823482	1476408823625	a	65
323431	3484325	I don't know that I will be back Monday.	I don't know that I will be back Monday.	165536159	1476408823705	1476408823809	y	89
323431	3484325	I don't know that I will be back Monday.	I don't know that I will be back Monday.	165536161	1476408824041	1476408824193	.	190
323431	3484345	See you in Enron House when I get back.	See you in Enron House when I get back.	165536354	1476408825446	1476408826458	CAPS_LOCK	20
323431	3484345	See you in Enron House when I get back.	See you in Enron House when I get back.	165536347	1476408826185	1476408826329	S	83
323431	3484345	See you in Enron House when I get back.	See you in Enron House when I get back.	165536362	1476408826769	1476408826897	e	69
323431	3484345	See you in Enron House when I get back.	See you in Enron House when I get back.	165536369	1476408827026	1476408827137	e	69
323431	3484345	See you in Enron House when I get back.	See you in Enron House when I get back.	165536373	1476408827353	1476408827521	 	32
323431	3484345	See you in Enron House when I get back.	See you in Enron House when I get back.	165536377	1476408827601	1476408827697	y	89
323431	3484345	See you in Enron House when I get back.	See you in Enron House when I get back.	165536441	1476408827817	1476408827969	o	79
323431	3484345	See you in Enron House when I get back.	See you in Enron House when I get back.	165536443	1476408828089	1476408828145	u	85
323431	3484345	See you in Enron House when I get back.	See you in Enron House when I get back.	165536445	1476408828329	1476408828481	 	32
323431	3484345	See you in Enron House when I get back.	See you in Enron House when I get back.	165536450	1476408828625	1476408828737	i	73
323431	3484345	See you in Enron House when I get back.	See you in Enron House when I get back.	165536453	1476408828897	1476408828993	n	78
323431	3484345	See you in Enron House when I get back.	See you in Enron House when I get back.	165536590	1476408829129	1476408829241	 	32
323431	3484345	See you in Enron House when I get back.	See you in Enron House when I get back.	165536600	1476408829565	1476408830114	CAPS_LOCK	20
323431	3484345	See you in Enron House when I get back.	See you in Enron House when I get back.	165536596	1476408829817	1476408829961	E	69
323431	3484345	See you in Enron House when I get back.	See you in Enron House when I get back.	165536603	1476408830490	1476408830601	n	78
323431	3484345	See you in Enron House when I get back.	See you in Enron House when I get back.	165536606	1476408831009	1476408831129	r	82
323431	3484345	See you in Enron House when I get back.	See you in Enron House when I get back.	165536608	1476408831177	1476408831281	o	79
323431	3484345	See you in Enron House when I get back.	See you in Enron House when I get back.	165536682	1476408831433	1476408831529	n	78
323431	3484345	See you in Enron House when I get back.	See you in Enron House when I get back.	165536686	1476408831673	1476408831817	 	32
323431	3484345	See you in Enron House when I get back.	See you in Enron House when I get back.	165536691	1476408831989	1476408832370	CAPS_LOCK	20
323431	3484345	See you in Enron House when I get back.	See you in Enron House when I get back.	165536690	1476408832209	1476408832297	H	72
323431	3484345	See you in Enron House when I get back.	See you in Enron House when I get back.	165536694	1476408832705	1476408832833	o	79
323431	3484345	See you in Enron House when I get back.	See you in Enron House when I get back.	165536698	1476408832993	1476408833073	u	85
323431	3484345	See you in Enron House when I get back.	See you in Enron House when I get back.	165536783	1476408833217	1476408833409	s	83
323431	3484345	See you in Enron House when I get back.	See you in Enron House when I get back.	165536788	1476408833473	1476408833593	e	69
323431	3484345	See you in Enron House when I get back.	See you in Enron House when I get back.	165536795	1476408833665	1476408833793	 	32
323431	3484345	See you in Enron House when I get back.	See you in Enron House when I get back.	165536802	1476408834137	1476408834273	w	87
323431	3484345	See you in Enron House when I get back.	See you in Enron House when I get back.	165536808	1476408834377	1476408834465	h	72
323431	3484345	See you in Enron House when I get back.	See you in Enron House when I get back.	165536969	1476408834682	1476408834801	e	69
323431	3484345	See you in Enron House when I get back.	See you in Enron House when I get back.	165536973	1476408834881	1476408834993	n	78
323431	3484345	See you in Enron House when I get back.	See you in Enron House when I get back.	165536978	1476408835169	1476408835297	 	32
323431	3484345	See you in Enron House when I get back.	See you in Enron House when I get back.	165536981	1476408836593	1476408836673	I	73
323431	3484345	See you in Enron House when I get back.	See you in Enron House when I get back.	165536989	1476408836977	1476408837121	 	32
323431	3484345	See you in Enron House when I get back.	See you in Enron House when I get back.	165537073	1476408837689	1476408837793	g	71
323431	3484345	See you in Enron House when I get back.	See you in Enron House when I get back.	165537077	1476408837929	1476408838137	e	69
323431	3484345	See you in Enron House when I get back.	See you in Enron House when I get back.	165537081	1476408838153	1476408838273	t	84
323431	3484345	See you in Enron House when I get back.	See you in Enron House when I get back.	165537084	1476408838393	1476408838545	 	32
323431	3484345	See you in Enron House when I get back.	See you in Enron House when I get back.	165537091	1476408838793	1476408838921	b	66
323431	3484345	See you in Enron House when I get back.	See you in Enron House when I get back.	165537212	1476408839057	1476408839217	a	65
323431	3484345	See you in Enron House when I get back.	See you in Enron House when I get back.	165537218	1476408839409	1476408839521	c	67
323431	3484345	See you in Enron House when I get back.	See you in Enron House when I get back.	165537225	1476408839705	1476408839817	k	75
323431	3484345	See you in Enron House when I get back.	See you in Enron House when I get back.	165537233	1476408840009	1476408840169	.	190
323431	3484365	I'll presume it is dead until I hear otherwise.	I'll presume it is dead until i hear otherwise.	165537542	1476408843229	1476408843585	CAPS_LOCK	20
323431	3484365	I'll presume it is dead until I hear otherwise.	I'll presume it is dead until i hear otherwise.	165537537	1476408843393	1476408843496	I	73
323431	3484365	I'll presume it is dead until I hear otherwise.	I'll presume it is dead until i hear otherwise.	165537546	1476408843945	1476408844105	'	222
323431	3484365	I'll presume it is dead until I hear otherwise.	I'll presume it is dead until i hear otherwise.	165537549	1476408844561	1476408844649	l	76
323431	3484365	I'll presume it is dead until I hear otherwise.	I'll presume it is dead until i hear otherwise.	165537555	1476408844777	1476408844880	l	76
323431	3484365	I'll presume it is dead until I hear otherwise.	I'll presume it is dead until i hear otherwise.	165537559	1476408845017	1476408845176	 	32
323431	3484365	I'll presume it is dead until I hear otherwise.	I'll presume it is dead until i hear otherwise.	165537698	1476408845345	1476408845456	p	80
323431	3484365	I'll presume it is dead until I hear otherwise.	I'll presume it is dead until i hear otherwise.	165537701	1476408846033	1476408846168	r	82
323431	3484365	I'll presume it is dead until I hear otherwise.	I'll presume it is dead until i hear otherwise.	165537704	1476408846281	1476408846408	e	69
323431	3484365	I'll presume it is dead until I hear otherwise.	I'll presume it is dead until i hear otherwise.	165537707	1476408847017	1476408847194	s	83
323431	3484365	I'll presume it is dead until I hear otherwise.	I'll presume it is dead until i hear otherwise.	165537709	1476408847353	1476408847464	u	85
323431	3484365	I'll presume it is dead until I hear otherwise.	I'll presume it is dead until i hear otherwise.	165537804	1476408847665	1476408847768	m	77
323431	3484365	I'll presume it is dead until I hear otherwise.	I'll presume it is dead until i hear otherwise.	165537812	1476408847841	1476408847960	e	69
323431	3484365	I'll presume it is dead until I hear otherwise.	I'll presume it is dead until i hear otherwise.	165537819	1476408848017	1476408848160	 	32
323431	3484365	I'll presume it is dead until I hear otherwise.	I'll presume it is dead until i hear otherwise.	165537823	1476408848385	1476408848472	i	73
323431	3484365	I'll presume it is dead until I hear otherwise.	I'll presume it is dead until i hear otherwise.	165537827	1476408848601	1476408848704	t	84
323431	3484365	I'll presume it is dead until I hear otherwise.	I'll presume it is dead until i hear otherwise.	165537890	1476408848778	1476408848920	 	32
323431	3484365	I'll presume it is dead until I hear otherwise.	I'll presume it is dead until i hear otherwise.	165537892	1476408849041	1476408849136	i	73
323431	3484365	I'll presume it is dead until I hear otherwise.	I'll presume it is dead until i hear otherwise.	165537896	1476408849193	1476408849328	s	83
323431	3484365	I'll presume it is dead until I hear otherwise.	I'll presume it is dead until i hear otherwise.	165537899	1476408849377	1476408849512	 	32
323431	3484365	I'll presume it is dead until I hear otherwise.	I'll presume it is dead until i hear otherwise.	165537901	1476408849569	1476408849712	d	68
323431	3484365	I'll presume it is dead until I hear otherwise.	I'll presume it is dead until i hear otherwise.	165537982	1476408849825	1476408849976	e	69
323431	3484365	I'll presume it is dead until I hear otherwise.	I'll presume it is dead until i hear otherwise.	165537988	1476408850113	1476408850240	a	65
323431	3484365	I'll presume it is dead until I hear otherwise.	I'll presume it is dead until i hear otherwise.	165537991	1476408850377	1476408850520	d	68
323431	3484365	I'll presume it is dead until I hear otherwise.	I'll presume it is dead until i hear otherwise.	165537998	1476408850585	1476408850736	 	32
323431	3484365	I'll presume it is dead until I hear otherwise.	I'll presume it is dead until i hear otherwise.	165538004	1476408850905	1476408851008	u	85
323431	3484365	I'll presume it is dead until I hear otherwise.	I'll presume it is dead until i hear otherwise.	165538086	1476408851177	1476408851272	n	78
323431	3484365	I'll presume it is dead until I hear otherwise.	I'll presume it is dead until i hear otherwise.	165538092	1476408851353	1476408851472	t	84
323431	3484365	I'll presume it is dead until I hear otherwise.	I'll presume it is dead until i hear otherwise.	165538099	1476408851529	1476408851624	i	73
323431	3484365	I'll presume it is dead until I hear otherwise.	I'll presume it is dead until i hear otherwise.	165538103	1476408851801	1476408851928	l	76
323431	3484365	I'll presume it is dead until I hear otherwise.	I'll presume it is dead until i hear otherwise.	165538108	1476408852089	1476408852208	 	32
323431	3484365	I'll presume it is dead until I hear otherwise.	I'll presume it is dead until i hear otherwise.	165538241	1476408852416	1476408852712	SHIFT	16
323431	3484365	I'll presume it is dead until I hear otherwise.	I'll presume it is dead until i hear otherwise.	165538247	1476408852721	1476408852792	i	73
323431	3484365	I'll presume it is dead until I hear otherwise.	I'll presume it is dead until i hear otherwise.	165538250	1476408852961	1476408853080	 	32
323431	3484365	I'll presume it is dead until I hear otherwise.	I'll presume it is dead until i hear otherwise.	165538256	1476408853257	1476408853336	h	72
323431	3484365	I'll presume it is dead until I hear otherwise.	I'll presume it is dead until i hear otherwise.	165538260	1476408853497	1476408853640	e	69
323431	3484365	I'll presume it is dead until I hear otherwise.	I'll presume it is dead until i hear otherwise.	165538263	1476408853913	1476408854056	a	65
323431	3484365	I'll presume it is dead until I hear otherwise.	I'll presume it is dead until i hear otherwise.	165538345	1476408854169	1476408854288	r	82
323431	3484365	I'll presume it is dead until I hear otherwise.	I'll presume it is dead until i hear otherwise.	165538350	1476408854385	1476408854528	 	32
323431	3484365	I'll presume it is dead until I hear otherwise.	I'll presume it is dead until i hear otherwise.	165538355	1476408854801	1476408854904	o	79
323431	3484365	I'll presume it is dead until I hear otherwise.	I'll presume it is dead until i hear otherwise.	165538361	1476408854937	1476408855064	t	84
323431	3484365	I'll presume it is dead until I hear otherwise.	I'll presume it is dead until i hear otherwise.	165538366	1476408855185	1476408855272	h	72
323431	3484365	I'll presume it is dead until I hear otherwise.	I'll presume it is dead until i hear otherwise.	165538476	1476408855809	1476408856032	e	69
323431	3484365	I'll presume it is dead until I hear otherwise.	I'll presume it is dead until i hear otherwise.	165538478	1476408856040	1476408856120	r	82
323431	3484365	I'll presume it is dead until I hear otherwise.	I'll presume it is dead until i hear otherwise.	165538482	1476408856393	1476408856504	w	87
323431	3484365	I'll presume it is dead until I hear otherwise.	I'll presume it is dead until i hear otherwise.	165538487	1476408856657	1476408856744	i	73
323431	3484365	I'll presume it is dead until I hear otherwise.	I'll presume it is dead until i hear otherwise.	165538493	1476408857049	1476408857216	s	83
323431	3484365	I'll presume it is dead until I hear otherwise.	I'll presume it is dead until i hear otherwise.	165538578	1476408857337	1476408857496	e	69
323431	3484365	I'll presume it is dead until I hear otherwise.	I'll presume it is dead until i hear otherwise.	165538584	1476408857761	1476408857929	.	190
323431	3484397	Much better than carrying a laptop.	Much better than carrying a laptop.	165538775	1476408859749	1476408860793	CAPS_LOCK	20
323431	3484397	Much better than carrying a laptop.	Much better than carrying a laptop.	165538771	1476408860641	1476408860752	M	77
323431	3484397	Much better than carrying a laptop.	Much better than carrying a laptop.	165538780	1476408861000	1476408861088	u	85
323431	3484397	Much better than carrying a laptop.	Much better than carrying a laptop.	165538786	1476408861200	1476408861384	c	67
323431	3484397	Much better than carrying a laptop.	Much better than carrying a laptop.	165538789	1476408861473	1476408861584	h	72
323431	3484397	Much better than carrying a laptop.	Much better than carrying a laptop.	165538792	1476408861888	1476408862032	 	32
323431	3484397	Much better than carrying a laptop.	Much better than carrying a laptop.	165538886	1476408862152	1476408862280	b	66
323431	3484397	Much better than carrying a laptop.	Much better than carrying a laptop.	165538890	1476408862416	1476408862592	e	69
323431	3484397	Much better than carrying a laptop.	Much better than carrying a laptop.	165538892	1476408862752	1476408862864	t	84
323431	3484397	Much better than carrying a laptop.	Much better than carrying a laptop.	165538894	1476408862976	1476408863072	t	84
323431	3484397	Much better than carrying a laptop.	Much better than carrying a laptop.	165538895	1476408863233	1476408863432	e	69
323431	3484397	Much better than carrying a laptop.	Much better than carrying a laptop.	165539045	1476408863417	1476408863520	r	82
323431	3484397	Much better than carrying a laptop.	Much better than carrying a laptop.	165539050	1476408863632	1476408863776	 	32
323431	3484397	Much better than carrying a laptop.	Much better than carrying a laptop.	165539053	1476408864480	1476408864568	t	84
323431	3484397	Much better than carrying a laptop.	Much better than carrying a laptop.	165539057	1476408864664	1476408864776	h	72
323431	3484397	Much better than carrying a laptop.	Much better than carrying a laptop.	165539060	1476408864880	1476408865008	a	65
323431	3484397	Much better than carrying a laptop.	Much better than carrying a laptop.	165539063	1476408865096	1476408865208	n	78
323431	3484397	Much better than carrying a laptop.	Much better than carrying a laptop.	165539132	1476408865369	1476408865496	 	32
323431	3484397	Much better than carrying a laptop.	Much better than carrying a laptop.	165539139	1476408865672	1476408865808	c	67
323431	3484397	Much better than carrying a laptop.	Much better than carrying a laptop.	165539145	1476408865984	1476408866104	a	65
323431	3484397	Much better than carrying a laptop.	Much better than carrying a laptop.	165539150	1476408866552	1476408866624	r	82
323431	3484397	Much better than carrying a laptop.	Much better than carrying a laptop.	165539154	1476408866760	1476408866824	r	82
323431	3484397	Much better than carrying a laptop.	Much better than carrying a laptop.	165539225	1476408867128	1476408867240	y	89
323431	3484397	Much better than carrying a laptop.	Much better than carrying a laptop.	165539233	1476408867440	1476408867560	i	73
323431	3484397	Much better than carrying a laptop.	Much better than carrying a laptop.	165539239	1476408867728	1476408867832	n	78
323431	3484397	Much better than carrying a laptop.	Much better than carrying a laptop.	165539244	1476408867968	1476408868096	g	71
323431	3484397	Much better than carrying a laptop.	Much better than carrying a laptop.	165539248	1476408868176	1476408868320	 	32
323431	3484397	Much better than carrying a laptop.	Much better than carrying a laptop.	165539307	1476408868448	1476408868560	a	65
323431	3484397	Much better than carrying a laptop.	Much better than carrying a laptop.	165539311	1476408868648	1476408868792	 	32
323431	3484397	Much better than carrying a laptop.	Much better than carrying a laptop.	165539315	1476408869056	1476408869184	l	76
323431	3484397	Much better than carrying a laptop.	Much better than carrying a laptop.	165539320	1476408869280	1476408869392	a	65
323431	3484397	Much better than carrying a laptop.	Much better than carrying a laptop.	165539326	1476408869552	1476408869680	p	80
323431	3484397	Much better than carrying a laptop.	Much better than carrying a laptop.	165539491	1476408870280	1476408870392	t	84
323431	3484397	Much better than carrying a laptop.	Much better than carrying a laptop.	165539495	1476408870584	1476408870696	o	79
323431	3484397	Much better than carrying a laptop.	Much better than carrying a laptop.	165539497	1476408870848	1476408870960	p	80
323431	3484397	Much better than carrying a laptop.	Much better than carrying a laptop.	165539500	1476408871232	1476408871392	.	190
323431	3484413	Please stay on top of the security issue.	Please stay on top of the security issue.	165539670	1476408873236	1476408874001	CAPS_LOCK	20
323431	3484413	Please stay on top of the security issue.	Please stay on top of the security issue.	165539667	1476408873840	1476408873944	P	80
323431	3484413	Please stay on top of the security issue.	Please stay on top of the security issue.	165539674	1476408874184	1476408874312	l	76
323431	3484413	Please stay on top of the security issue.	Please stay on top of the security issue.	165539681	1476408874384	1476408874560	e	69
323431	3484413	Please stay on top of the security issue.	Please stay on top of the security issue.	165539688	1476408874696	1476408874816	a	65
323431	3484413	Please stay on top of the security issue.	Please stay on top of the security issue.	165539694	1476408874944	1476408875152	s	83
323431	3484413	Please stay on top of the security issue.	Please stay on top of the security issue.	165539778	1476408875144	1476408875280	e	69
323431	3484413	Please stay on top of the security issue.	Please stay on top of the security issue.	165539781	1476408875304	1476408875456	 	32
323431	3484413	Please stay on top of the security issue.	Please stay on top of the security issue.	165539787	1476408875544	1476408875736	s	83
323431	3484413	Please stay on top of the security issue.	Please stay on top of the security issue.	165539794	1476408875856	1476408875960	t	84
323431	3484413	Please stay on top of the security issue.	Please stay on top of the security issue.	165539800	1476408876800	1476408876944	a	65
323431	3484413	Please stay on top of the security issue.	Please stay on top of the security issue.	165539805	1476408877024	1476408877128	y	89
323431	3484413	Please stay on top of the security issue.	Please stay on top of the security issue.	165539875	1476408877312	1476408877432	 	32
323431	3484413	Please stay on top of the security issue.	Please stay on top of the security issue.	165539878	1476408877496	1476408877608	o	79
323431	3484413	Please stay on top of the security issue.	Please stay on top of the security issue.	165539882	1476408877752	1476408877864	n	78
323431	3484413	Please stay on top of the security issue.	Please stay on top of the security issue.	165539890	1476408877984	1476408878136	 	32
323431	3484413	Please stay on top of the security issue.	Please stay on top of the security issue.	165539897	1476408878264	1476408878424	t	84
323431	3484413	Please stay on top of the security issue.	Please stay on top of the security issue.	165539965	1476408878496	1476408878640	o	79
323431	3484413	Please stay on top of the security issue.	Please stay on top of the security issue.	165539969	1476408878816	1476408878920	p	80
323431	3484413	Please stay on top of the security issue.	Please stay on top of the security issue.	165539972	1476408879088	1476408879232	 	32
323431	3484413	Please stay on top of the security issue.	Please stay on top of the security issue.	165539975	1476408879328	1476408879440	o	79
323431	3484413	Please stay on top of the security issue.	Please stay on top of the security issue.	165539977	1476408879520	1476408879632	f	70
323431	3484413	Please stay on top of the security issue.	Please stay on top of the security issue.	165540019	1476408879664	1476408879808	 	32
323431	3484413	Please stay on top of the security issue.	Please stay on top of the security issue.	165540022	1476408879928	1476408880056	t	84
323431	3484413	Please stay on top of the security issue.	Please stay on top of the security issue.	165540029	1476408880136	1476408880232	h	72
323431	3484413	Please stay on top of the security issue.	Please stay on top of the security issue.	165540036	1476408880328	1476408880440	e	69
323431	3484413	Please stay on top of the security issue.	Please stay on top of the security issue.	165540043	1476408880488	1476408880632	 	32
323431	3484413	Please stay on top of the security issue.	Please stay on top of the security issue.	165540157	1476408880752	1476408880920	s	83
323431	3484413	Please stay on top of the security issue.	Please stay on top of the security issue.	165540158	1476408881016	1476408881128	e	69
323431	3484413	Please stay on top of the security issue.	Please stay on top of the security issue.	165540161	1476408881536	1476408881679	c	67
323431	3484413	Please stay on top of the security issue.	Please stay on top of the security issue.	165540164	1476408882176	1476408882264	u	85
323431	3484413	Please stay on top of the security issue.	Please stay on top of the security issue.	165540168	1476408882432	1476408882552	r	82
323431	3484413	Please stay on top of the security issue.	Please stay on top of the security issue.	165540237	1476408882616	1476408882711	i	73
323431	3484413	Please stay on top of the security issue.	Please stay on top of the security issue.	165540243	1476408882848	1476408882935	t	84
323431	3484413	Please stay on top of the security issue.	Please stay on top of the security issue.	165540247	1476408883072	1476408883176	y	89
323431	3484413	Please stay on top of the security issue.	Please stay on top of the security issue.	165540253	1476408883368	1476408883535	 	32
323431	3484413	Please stay on top of the security issue.	Please stay on top of the security issue.	165540257	1476408883712	1476408883808	i	73
323431	3484413	Please stay on top of the security issue.	Please stay on top of the security issue.	165540282	1476408883936	1476408884047	s	83
323431	3484413	Please stay on top of the security issue.	Please stay on top of the security issue.	165540285	1476408884208	1476408884295	s	83
323431	3484413	Please stay on top of the security issue.	Please stay on top of the security issue.	165540289	1476408884448	1476408884535	u	85
323431	3484413	Please stay on top of the security issue.	Please stay on top of the security issue.	165540296	1476408884648	1476408884751	e	69
323431	3484413	Please stay on top of the security issue.	Please stay on top of the security issue.	165540302	1476408884920	1476408885071	.	190
