PARTICIPANT_ID	TEST_SECTION_ID	SENTENCE	USER_INPUT	KEYSTROKE_ID	PRESS_TIME	RELEASE_TIME	LETTER	KEYCODE
323787	3488228	Even if it were approved, Clinton could veto the measure.	Even if it were approved, Clinton could veto the measure.	165719765	1476412826805	1476412827192	SHIFT	16
323787	3488228	Even if it were approved, Clinton could veto the measure.	Even if it were approved, Clinton could veto the measure.	165719773	1476412827077	1476412827192	E	69
323787	3488228	Even if it were approved, Clinton could veto the measure.	Even if it were approved, Clinton could veto the measure.	165719777	1476412827405	1476412827513	v	86
323787	3488228	Even if it were approved, Clinton could veto the measure.	Even if it were approved, Clinton could veto the measure.	165719782	1476412827650	1476412827761	e	69
323787	3488228	Even if it were approved, Clinton could veto the measure.	Even if it were approved, Clinton could veto the measure.	165719786	1476412827774	1476412827913	n	78
323787	3488228	Even if it were approved, Clinton could veto the measure.	Even if it were approved, Clinton could veto the measure.	165719808	1476412827906	1476412828002	 	32
323787	3488228	Even if it were approved, Clinton could veto the measure.	Even if it were approved, Clinton could veto the measure.	165719810	1476412828073	1476412828193	i	73
323787	3488228	Even if it were approved, Clinton could veto the measure.	Even if it were approved, Clinton could veto the measure.	165719812	1476412828262	1476412828350	f	70
323787	3488228	Even if it were approved, Clinton could veto the measure.	Even if it were approved, Clinton could veto the measure.	165719814	1476412828377	1476412828469	 	32
323787	3488228	Even if it were approved, Clinton could veto the measure.	Even if it were approved, Clinton could veto the measure.	165719817	1476412828546	1476412828645	i	73
323787	3488228	Even if it were approved, Clinton could veto the measure.	Even if it were approved, Clinton could veto the measure.	165719819	1476412828654	1476412828742	t	84
323787	3488228	Even if it were approved, Clinton could veto the measure.	Even if it were approved, Clinton could veto the measure.	165719869	1476412828791	1476412828887	 	32
323787	3488228	Even if it were approved, Clinton could veto the measure.	Even if it were approved, Clinton could veto the measure.	165719872	1476412828954	1476412829105	w	87
323787	3488228	Even if it were approved, Clinton could veto the measure.	Even if it were approved, Clinton could veto the measure.	165719875	1476412829078	1476412829234	e	69
323787	3488228	Even if it were approved, Clinton could veto the measure.	Even if it were approved, Clinton could veto the measure.	165719876	1476412829260	1476412829384	w	87
323787	3488228	Even if it were approved, Clinton could veto the measure.	Even if it were approved, Clinton could veto the measure.	165719877	1476412829626	1476412829686	 	32
323787	3488228	Even if it were approved, Clinton could veto the measure.	Even if it were approved, Clinton could veto the measure.	165719893	1476412829838	1476412829922	BKSP	8
323787	3488228	Even if it were approved, Clinton could veto the measure.	Even if it were approved, Clinton could veto the measure.	165719894	1476412829986	1476412830061	BKSP	8
323787	3488228	Even if it were approved, Clinton could veto the measure.	Even if it were approved, Clinton could veto the measure.	165719896	1476412830070	1476412830195	r	82
323787	3488228	Even if it were approved, Clinton could veto the measure.	Even if it were approved, Clinton could veto the measure.	165719898	1476412830126	1476412830253	e	69
323787	3488228	Even if it were approved, Clinton could veto the measure.	Even if it were approved, Clinton could veto the measure.	165719900	1476412830174	1476412830274	 	32
323787	3488228	Even if it were approved, Clinton could veto the measure.	Even if it were approved, Clinton could veto the measure.	165719904	1476412830398	1476412830534	a	65
323787	3488228	Even if it were approved, Clinton could veto the measure.	Even if it were approved, Clinton could veto the measure.	165719909	1476412830621	1476412830701	p	80
323787	3488228	Even if it were approved, Clinton could veto the measure.	Even if it were approved, Clinton could veto the measure.	165719922	1476412830753	1476412830845	p	80
323787	3488228	Even if it were approved, Clinton could veto the measure.	Even if it were approved, Clinton could veto the measure.	165719924	1476412830948	1476412831039	r	82
323787	3488228	Even if it were approved, Clinton could veto the measure.	Even if it were approved, Clinton could veto the measure.	165719925	1476412831036	1476412831144	o	79
323787	3488228	Even if it were approved, Clinton could veto the measure.	Even if it were approved, Clinton could veto the measure.	165719927	1476412831243	1476412831350	v	86
323787	3488228	Even if it were approved, Clinton could veto the measure.	Even if it were approved, Clinton could veto the measure.	165719960	1476412831339	1476412831451	e	69
323787	3488228	Even if it were approved, Clinton could veto the measure.	Even if it were approved, Clinton could veto the measure.	165719962	1476412831552	1476412831640	d	68
323787	3488228	Even if it were approved, Clinton could veto the measure.	Even if it were approved, Clinton could veto the measure.	165719963	1476412832230	1476412832306	,	188
323787	3488228	Even if it were approved, Clinton could veto the measure.	Even if it were approved, Clinton could veto the measure.	165719964	1476412832379	1476412832467	 	32
323787	3488228	Even if it were approved, Clinton could veto the measure.	Even if it were approved, Clinton could veto the measure.	165719965	1476412832483	1476412832767	SHIFT	16
323787	3488228	Even if it were approved, Clinton could veto the measure.	Even if it were approved, Clinton could veto the measure.	165719966	1476412832692	1476412832813	C	67
323787	3488228	Even if it were approved, Clinton could veto the measure.	Even if it were approved, Clinton could veto the measure.	165719986	1476412832800	1476412832880	l	76
323787	3488228	Even if it were approved, Clinton could veto the measure.	Even if it were approved, Clinton could veto the measure.	165719988	1476412832964	1476412833099	i	73
323787	3488228	Even if it were approved, Clinton could veto the measure.	Even if it were approved, Clinton could veto the measure.	165719992	1476412833068	1476412833187	n	78
323787	3488228	Even if it were approved, Clinton could veto the measure.	Even if it were approved, Clinton could veto the measure.	165719994	1476412833192	1476412833291	t	84
323787	3488228	Even if it were approved, Clinton could veto the measure.	Even if it were approved, Clinton could veto the measure.	165719997	1476412833300	1476412833411	o	79
323787	3488228	Even if it were approved, Clinton could veto the measure.	Even if it were approved, Clinton could veto the measure.	165720001	1476412833510	1476412833662	n	78
323787	3488228	Even if it were approved, Clinton could veto the measure.	Even if it were approved, Clinton could veto the measure.	165720028	1476412833654	1476412833757	 	32
323787	3488228	Even if it were approved, Clinton could veto the measure.	Even if it were approved, Clinton could veto the measure.	165720032	1476412833876	1476412834007	c	67
323787	3488228	Even if it were approved, Clinton could veto the measure.	Even if it were approved, Clinton could veto the measure.	165720036	1476412833956	1476412834095	o	79
323787	3488228	Even if it were approved, Clinton could veto the measure.	Even if it were approved, Clinton could veto the measure.	165720038	1476412834052	1476412834148	u	85
323787	3488228	Even if it were approved, Clinton could veto the measure.	Even if it were approved, Clinton could veto the measure.	165720040	1476412834218	1476412834329	l	76
323787	3488228	Even if it were approved, Clinton could veto the measure.	Even if it were approved, Clinton could veto the measure.	165720042	1476412834362	1476412834454	d	68
323787	3488228	Even if it were approved, Clinton could veto the measure.	Even if it were approved, Clinton could veto the measure.	165720083	1476412834477	1476412834561	 	32
323787	3488228	Even if it were approved, Clinton could veto the measure.	Even if it were approved, Clinton could veto the measure.	165720084	1476412835017	1476412835121	w	87
323787	3488228	Even if it were approved, Clinton could veto the measure.	Even if it were approved, Clinton could veto the measure.	165720086	1476412835276	1476412835380	BKSP	8
323787	3488228	Even if it were approved, Clinton could veto the measure.	Even if it were approved, Clinton could veto the measure.	165720090	1476412835440	1476412835544	v	86
323787	3488228	Even if it were approved, Clinton could veto the measure.	Even if it were approved, Clinton could veto the measure.	165720143	1476412835658	1476412835829	e	69
323787	3488228	Even if it were approved, Clinton could veto the measure.	Even if it were approved, Clinton could veto the measure.	165720093	1476412835722	1476412835821	r	82
323787	3488228	Even if it were approved, Clinton could veto the measure.	Even if it were approved, Clinton could veto the measure.	165720144	1476412836000	1476412836068	BKSP	8
323787	3488228	Even if it were approved, Clinton could veto the measure.	Even if it were approved, Clinton could veto the measure.	165720145	1476412836100	1476412836184	t	84
323787	3488228	Even if it were approved, Clinton could veto the measure.	Even if it were approved, Clinton could veto the measure.	165720146	1476412836241	1476412836309	o	79
323787	3488228	Even if it were approved, Clinton could veto the measure.	Even if it were approved, Clinton could veto the measure.	165720148	1476412836454	1476412836558	 	32
323787	3488228	Even if it were approved, Clinton could veto the measure.	Even if it were approved, Clinton could veto the measure.	165720151	1476412836672	1476412836751	t	84
323787	3488228	Even if it were approved, Clinton could veto the measure.	Even if it were approved, Clinton could veto the measure.	165720154	1476412836766	1476412836868	h	72
323787	3488228	Even if it were approved, Clinton could veto the measure.	Even if it were approved, Clinton could veto the measure.	165720191	1476412836867	1476412836962	e	69
323787	3488228	Even if it were approved, Clinton could veto the measure.	Even if it were approved, Clinton could veto the measure.	165720195	1476412836930	1476412837022	 	32
323787	3488228	Even if it were approved, Clinton could veto the measure.	Even if it were approved, Clinton could veto the measure.	165720197	1476412837216	1476412837328	m	77
323787	3488228	Even if it were approved, Clinton could veto the measure.	Even if it were approved, Clinton could veto the measure.	165720200	1476412837382	1476412837462	e	69
323787	3488228	Even if it were approved, Clinton could veto the measure.	Even if it were approved, Clinton could veto the measure.	165720203	1476412837555	1476412837679	a	65
323787	3488228	Even if it were approved, Clinton could veto the measure.	Even if it were approved, Clinton could veto the measure.	165720283	1476412837651	1476412837747	s	83
323787	3488228	Even if it were approved, Clinton could veto the measure.	Even if it were approved, Clinton could veto the measure.	165720285	1476412837751	1476412837831	u	85
323787	3488228	Even if it were approved, Clinton could veto the measure.	Even if it were approved, Clinton could veto the measure.	165720289	1476412837946	1476412838058	r	82
323787	3488228	Even if it were approved, Clinton could veto the measure.	Even if it were approved, Clinton could veto the measure.	165720292	1476412837994	1476412838130	e	69
323787	3488228	Even if it were approved, Clinton could veto the measure.	Even if it were approved, Clinton could veto the measure.	165720296	1476412838795	1476412838859	BKSP	8
323787	3488228	Even if it were approved, Clinton could veto the measure.	Even if it were approved, Clinton could veto the measure.	165720299	1476412838927	1476412838987	BKSP	8
323787	3488228	Even if it were approved, Clinton could veto the measure.	Even if it were approved, Clinton could veto the measure.	165720302	1476412839058	1476412839114	BKSP	8
323787	3488228	Even if it were approved, Clinton could veto the measure.	Even if it were approved, Clinton could veto the measure.	165720305	1476412839180	1476412839236	BKSP	8
323787	3488228	Even if it were approved, Clinton could veto the measure.	Even if it were approved, Clinton could veto the measure.	165720308	1476412839474	1476412839614	s	83
323787	3488228	Even if it were approved, Clinton could veto the measure.	Even if it were approved, Clinton could veto the measure.	165720311	1476412839778	1476412839854	u	85
323787	3488228	Even if it were approved, Clinton could veto the measure.	Even if it were approved, Clinton could veto the measure.	165720384	1476412839881	1476412839977	r	82
323787	3488228	Even if it were approved, Clinton could veto the measure.	Even if it were approved, Clinton could veto the measure.	165720387	1476412839917	1476412840045	e	69
323787	3488228	Even if it were approved, Clinton could veto the measure.	Even if it were approved, Clinton could veto the measure.	165720391	1476412840774	1476412840829	.	190
323787	3488244	A bit behind on my emails.	A bit behind on my emails.	165720476	1476412844200	1476412844476	SHIFT	16
323787	3488244	A bit behind on my emails.	A bit behind on my emails.	165720478	1476412844388	1476412844520	A	65
323787	3488244	A bit behind on my emails.	A bit behind on my emails.	165720480	1476412844532	1476412844620	 	32
323787	3488244	A bit behind on my emails.	A bit behind on my emails.	165720482	1476412844680	1476412844779	b	66
323787	3488244	A bit behind on my emails.	A bit behind on my emails.	165720484	1476412844817	1476412844949	i	73
323787	3488244	A bit behind on my emails.	A bit behind on my emails.	165720511	1476412844937	1476412845041	t	84
323787	3488244	A bit behind on my emails.	A bit behind on my emails.	165720513	1476412845045	1476412845145	 	32
323787	3488244	A bit behind on my emails.	A bit behind on my emails.	165720515	1476412845481	1476412845577	b	66
323787	3488244	A bit behind on my emails.	A bit behind on my emails.	165720517	1476412845712	1476412845780	e	69
323787	3488244	A bit behind on my emails.	A bit behind on my emails.	165720518	1476412845810	1476412845902	h	72
323787	3488244	A bit behind on my emails.	A bit behind on my emails.	165720519	1476412845959	1476412846131	i	73
323787	3488244	A bit behind on my emails.	A bit behind on my emails.	165720565	1476412846087	1476412846243	n	78
323787	3488244	A bit behind on my emails.	A bit behind on my emails.	165720567	1476412846530	1476412846642	d	68
323787	3488244	A bit behind on my emails.	A bit behind on my emails.	165720572	1476412846654	1476412846754	 	32
323787	3488244	A bit behind on my emails.	A bit behind on my emails.	165720579	1476412846855	1476412846963	o	79
323787	3488244	A bit behind on my emails.	A bit behind on my emails.	165720584	1476412847005	1476412847093	n	78
323787	3488244	A bit behind on my emails.	A bit behind on my emails.	165720589	1476412847293	1476412847397	 	32
323787	3488244	A bit behind on my emails.	A bit behind on my emails.	165720622	1476412847442	1476412847574	m	77
323787	3488244	A bit behind on my emails.	A bit behind on my emails.	165720623	1476412847723	1476412847851	y	89
323787	3488244	A bit behind on my emails.	A bit behind on my emails.	165720624	1476412847868	1476412847968	 	32
323787	3488244	A bit behind on my emails.	A bit behind on my emails.	165720625	1476412848025	1476412848125	e	69
323787	3488244	A bit behind on my emails.	A bit behind on my emails.	165720626	1476412848129	1476412848241	m	77
323787	3488244	A bit behind on my emails.	A bit behind on my emails.	165720648	1476412848280	1476412848388	a	65
323787	3488244	A bit behind on my emails.	A bit behind on my emails.	165720652	1476412848348	1476412848428	i	73
323787	3488244	A bit behind on my emails.	A bit behind on my emails.	165720655	1476412848541	1476412848617	l	76
323787	3488244	A bit behind on my emails.	A bit behind on my emails.	165720657	1476412848650	1476412848762	s	83
323787	3488244	A bit behind on my emails.	A bit behind on my emails.	165720660	1476412848827	1476412848907	.	190
323787	3488251	However, he's not worth starting on your Fantasy team.	However, he's not worth starting on your Fantasy team.	165720720	1476412850358	1476412850622	SHIFT	16
323787	3488251	However, he's not worth starting on your Fantasy team.	However, he's not worth starting on your Fantasy team.	165720718	1476412850498	1476412850570	H	72
323787	3488251	However, he's not worth starting on your Fantasy team.	However, he's not worth starting on your Fantasy team.	165720722	1476412850666	1476412850758	o	79
323787	3488251	However, he's not worth starting on your Fantasy team.	However, he's not worth starting on your Fantasy team.	165720723	1476412850837	1476412850949	w	87
323787	3488251	However, he's not worth starting on your Fantasy team.	However, he's not worth starting on your Fantasy team.	165720724	1476412851086	1476412851182	e	69
323787	3488251	However, he's not worth starting on your Fantasy team.	However, he's not worth starting on your Fantasy team.	165720725	1476412851350	1476412851450	v	86
323787	3488251	However, he's not worth starting on your Fantasy team.	However, he's not worth starting on your Fantasy team.	165720765	1476412851573	1476412851693	e	69
323787	3488251	However, he's not worth starting on your Fantasy team.	However, he's not worth starting on your Fantasy team.	165720766	1476412851633	1476412851737	r	82
323787	3488251	However, he's not worth starting on your Fantasy team.	However, he's not worth starting on your Fantasy team.	165720767	1476412851831	1476412851927	,	188
323787	3488251	However, he's not worth starting on your Fantasy team.	However, he's not worth starting on your Fantasy team.	165720768	1476412851997	1476412852096	 	32
323787	3488251	However, he's not worth starting on your Fantasy team.	However, he's not worth starting on your Fantasy team.	165720769	1476412852592	1476412852696	h	72
323787	3488251	However, he's not worth starting on your Fantasy team.	However, he's not worth starting on your Fantasy team.	165720806	1476412852750	1476412852850	e	69
323787	3488251	However, he's not worth starting on your Fantasy team.	However, he's not worth starting on your Fantasy team.	165720811	1476412853369	1476412853421	'	222
323787	3488251	However, he's not worth starting on your Fantasy team.	However, he's not worth starting on your Fantasy team.	165720813	1476412853494	1476412853602	s	83
323787	3488251	However, he's not worth starting on your Fantasy team.	However, he's not worth starting on your Fantasy team.	165720816	1476412853630	1476412853726	 	32
323787	3488251	However, he's not worth starting on your Fantasy team.	However, he's not worth starting on your Fantasy team.	165720819	1476412853769	1476412853845	n	78
323787	3488251	However, he's not worth starting on your Fantasy team.	However, he's not worth starting on your Fantasy team.	165720856	1476412853899	1476412854003	o	79
323787	3488251	However, he's not worth starting on your Fantasy team.	However, he's not worth starting on your Fantasy team.	165720859	1476412854011	1476412854079	t	84
323787	3488251	However, he's not worth starting on your Fantasy team.	However, he's not worth starting on your Fantasy team.	165720864	1476412854079	1476412854163	 	32
323787	3488251	However, he's not worth starting on your Fantasy team.	However, he's not worth starting on your Fantasy team.	165720868	1476412854396	1476412854496	w	87
323787	3488251	However, he's not worth starting on your Fantasy team.	However, he's not worth starting on your Fantasy team.	165720873	1476412854548	1476412854648	o	79
323787	3488251	However, he's not worth starting on your Fantasy team.	However, he's not worth starting on your Fantasy team.	165720902	1476412854690	1476412854782	r	82
323787	3488251	However, he's not worth starting on your Fantasy team.	However, he's not worth starting on your Fantasy team.	165720906	1476412854918	1476412854998	t	84
323787	3488251	However, he's not worth starting on your Fantasy team.	However, he's not worth starting on your Fantasy team.	165720910	1476412855002	1476412855133	h	72
323787	3488251	However, he's not worth starting on your Fantasy team.	However, he's not worth starting on your Fantasy team.	165720915	1476412855114	1476412855214	 	32
323787	3488251	However, he's not worth starting on your Fantasy team.	However, he's not worth starting on your Fantasy team.	165720918	1476412855432	1476412855544	s	83
323787	3488251	However, he's not worth starting on your Fantasy team.	However, he's not worth starting on your Fantasy team.	165720955	1476412855672	1476412855756	t	84
323787	3488251	However, he's not worth starting on your Fantasy team.	However, he's not worth starting on your Fantasy team.	165720957	1476412855816	1476412855956	a	65
323787	3488251	However, he's not worth starting on your Fantasy team.	However, he's not worth starting on your Fantasy team.	165720959	1476412856002	1476412856102	r	82
323787	3488251	However, he's not worth starting on your Fantasy team.	However, he's not worth starting on your Fantasy team.	165720961	1476412856205	1476412856281	t	84
323787	3488251	However, he's not worth starting on your Fantasy team.	However, he's not worth starting on your Fantasy team.	165720963	1476412856353	1476412856516	i	73
323787	3488251	However, he's not worth starting on your Fantasy team.	However, he's not worth starting on your Fantasy team.	165720978	1476412856465	1476412856597	n	78
323787	3488251	However, he's not worth starting on your Fantasy team.	However, he's not worth starting on your Fantasy team.	165720982	1476412856553	1476412856653	g	71
323787	3488251	However, he's not worth starting on your Fantasy team.	However, he's not worth starting on your Fantasy team.	165720985	1476412856689	1476412856824	 	32
323787	3488251	However, he's not worth starting on your Fantasy team.	However, he's not worth starting on your Fantasy team.	165720990	1476412856829	1476412856965	o	79
323787	3488251	However, he's not worth starting on your Fantasy team.	However, he's not worth starting on your Fantasy team.	165720995	1476412856961	1476412857052	n	78
323787	3488251	However, he's not worth starting on your Fantasy team.	However, he's not worth starting on your Fantasy team.	165721054	1476412857029	1476412857173	 	32
323787	3488251	However, he's not worth starting on your Fantasy team.	However, he's not worth starting on your Fantasy team.	165721059	1476412857318	1476412857410	y	89
323787	3488251	However, he's not worth starting on your Fantasy team.	However, he's not worth starting on your Fantasy team.	165721064	1476412857450	1476412857606	o	79
323787	3488251	However, he's not worth starting on your Fantasy team.	However, he's not worth starting on your Fantasy team.	165721068	1476412857554	1476412857710	u	85
323787	3488251	However, he's not worth starting on your Fantasy team.	However, he's not worth starting on your Fantasy team.	165721071	1476412857875	1476412857959	r	82
323787	3488251	However, he's not worth starting on your Fantasy team.	However, he's not worth starting on your Fantasy team.	165721072	1476412858455	1476412858559	 	32
323787	3488251	However, he's not worth starting on your Fantasy team.	However, he's not worth starting on your Fantasy team.	165721094	1476412858635	1476412859038	SHIFT	16
323787	3488251	However, he's not worth starting on your Fantasy team.	However, he's not worth starting on your Fantasy team.	165721095	1476412858947	1476412859075	F	70
323787	3488251	However, he's not worth starting on your Fantasy team.	However, he's not worth starting on your Fantasy team.	165721096	1476412859164	1476412859273	a	65
323787	3488251	However, he's not worth starting on your Fantasy team.	However, he's not worth starting on your Fantasy team.	165721097	1476412859471	1476412859579	n	78
323787	3488251	However, he's not worth starting on your Fantasy team.	However, he's not worth starting on your Fantasy team.	165721098	1476412859727	1476412859823	t	84
323787	3488251	However, he's not worth starting on your Fantasy team.	However, he's not worth starting on your Fantasy team.	165721099	1476412859960	1476412860091	a	65
323787	3488251	However, he's not worth starting on your Fantasy team.	However, he's not worth starting on your Fantasy team.	165721142	1476412860032	1476412860168	s	83
323787	3488251	However, he's not worth starting on your Fantasy team.	However, he's not worth starting on your Fantasy team.	165721145	1476412860485	1476412860625	y	89
323787	3488251	However, he's not worth starting on your Fantasy team.	However, he's not worth starting on your Fantasy team.	165721148	1476412860621	1476412860733	 	32
323787	3488251	However, he's not worth starting on your Fantasy team.	However, he's not worth starting on your Fantasy team.	165721152	1476412860903	1476412861116	SHIFT	16
323787	3488251	However, he's not worth starting on your Fantasy team.	However, he's not worth starting on your Fantasy team.	165721155	1476412861321	1476412861401	t	84
323787	3488251	However, he's not worth starting on your Fantasy team.	However, he's not worth starting on your Fantasy team.	165721157	1476412861451	1476412861523	e	69
323787	3488251	However, he's not worth starting on your Fantasy team.	However, he's not worth starting on your Fantasy team.	165721161	1476412861633	1476412861765	a	65
323787	3488251	However, he's not worth starting on your Fantasy team.	However, he's not worth starting on your Fantasy team.	165721175	1476412861796	1476412861848	m	77
323787	3488251	However, he's not worth starting on your Fantasy team.	However, he's not worth starting on your Fantasy team.	165721176	1476412862094	1476412862172	.	190
323787	3488263	His abilities will be limited if he does play Sunday.	His abilities will be limited if he does play Sunday.	165721272	1476412863878	1476412864147	SHIFT	16
323787	3488263	His abilities will be limited if he does play Sunday.	His abilities will be limited if he does play Sunday.	165721271	1476412864027	1476412864126	H	72
323787	3488263	His abilities will be limited if he does play Sunday.	His abilities will be limited if he does play Sunday.	165721273	1476412864282	1476412864382	s	83
323787	3488263	His abilities will be limited if he does play Sunday.	His abilities will be limited if he does play Sunday.	165721274	1476412864401	1476412864465	i	73
323787	3488263	His abilities will be limited if he does play Sunday.	His abilities will be limited if he does play Sunday.	165721275	1476412864710	1476412864762	BKSP	8
323787	3488263	His abilities will be limited if he does play Sunday.	His abilities will be limited if he does play Sunday.	165721278	1476412864822	1476412864886	BKSP	8
323787	3488263	His abilities will be limited if he does play Sunday.	His abilities will be limited if he does play Sunday.	165721281	1476412865002	1476412865081	i	73
323787	3488263	His abilities will be limited if he does play Sunday.	His abilities will be limited if he does play Sunday.	165721314	1476412865058	1476412865189	s	83
323787	3488263	His abilities will be limited if he does play Sunday.	His abilities will be limited if he does play Sunday.	165721317	1476412865146	1476412865262	 	32
323787	3488263	His abilities will be limited if he does play Sunday.	His abilities will be limited if he does play Sunday.	165721321	1476412865326	1476412865434	a	65
323787	3488263	His abilities will be limited if he does play Sunday.	His abilities will be limited if he does play Sunday.	165721325	1476412865470	1476412865538	b	66
323787	3488263	His abilities will be limited if he does play Sunday.	His abilities will be limited if he does play Sunday.	165721329	1476412865632	1476412865716	i	73
323787	3488263	His abilities will be limited if he does play Sunday.	His abilities will be limited if he does play Sunday.	165721333	1476412865837	1476412865921	l	76
323787	3488263	His abilities will be limited if he does play Sunday.	His abilities will be limited if he does play Sunday.	165721341	1476412865994	1476412866078	i	73
323787	3488263	His abilities will be limited if he does play Sunday.	His abilities will be limited if he does play Sunday.	165721345	1476412866102	1476412866202	t	84
323787	3488263	His abilities will be limited if he does play Sunday.	His abilities will be limited if he does play Sunday.	165721348	1476412866234	1476412866306	i	73
323787	3488263	His abilities will be limited if he does play Sunday.	His abilities will be limited if he does play Sunday.	165721354	1476412866345	1476412866441	e	69
323787	3488263	His abilities will be limited if he does play Sunday.	His abilities will be limited if he does play Sunday.	165721358	1476412866535	1476412866646	s	83
323787	3488263	His abilities will be limited if he does play Sunday.	His abilities will be limited if he does play Sunday.	165721386	1476412866639	1476412866715	 	32
323787	3488263	His abilities will be limited if he does play Sunday.	His abilities will be limited if he does play Sunday.	165721388	1476412866914	1476412867054	w	87
323787	3488263	His abilities will be limited if he does play Sunday.	His abilities will be limited if he does play Sunday.	165721389	1476412867090	1476412867162	i	73
323787	3488263	His abilities will be limited if he does play Sunday.	His abilities will be limited if he does play Sunday.	165721390	1476412867286	1476412867338	l	76
323787	3488263	His abilities will be limited if he does play Sunday.	His abilities will be limited if he does play Sunday.	165721391	1476412867395	1476412867503	l	76
323787	3488263	His abilities will be limited if he does play Sunday.	His abilities will be limited if he does play Sunday.	165721392	1476412867525	1476412867625	 	32
323787	3488263	His abilities will be limited if he does play Sunday.	His abilities will be limited if he does play Sunday.	165721407	1476412867683	1476412867782	b	66
323787	3488263	His abilities will be limited if he does play Sunday.	His abilities will be limited if he does play Sunday.	165721410	1476412867775	1476412867890	e	69
323787	3488263	His abilities will be limited if he does play Sunday.	His abilities will be limited if he does play Sunday.	165721413	1476412867859	1476412867979	 	32
323787	3488263	His abilities will be limited if he does play Sunday.	His abilities will be limited if he does play Sunday.	165721417	1476412868062	1476412868165	l	76
323787	3488263	His abilities will be limited if he does play Sunday.	His abilities will be limited if he does play Sunday.	165721421	1476412868257	1476412868392	i	73
323787	3488263	His abilities will be limited if he does play Sunday.	His abilities will be limited if he does play Sunday.	165721449	1476412868396	1476412868538	m	77
323787	3488263	His abilities will be limited if he does play Sunday.	His abilities will be limited if he does play Sunday.	165721450	1476412868564	1476412868679	i	73
323787	3488263	His abilities will be limited if he does play Sunday.	His abilities will be limited if he does play Sunday.	165721451	1476412868656	1476412868768	t	84
323787	3488263	His abilities will be limited if he does play Sunday.	His abilities will be limited if he does play Sunday.	165721452	1476412868823	1476412868919	e	69
323787	3488263	His abilities will be limited if he does play Sunday.	His abilities will be limited if he does play Sunday.	165721453	1476412868998	1476412869117	d	68
323787	3488263	His abilities will be limited if he does play Sunday.	His abilities will be limited if he does play Sunday.	165721485	1476412869126	1476412869226	 	32
323787	3488263	His abilities will be limited if he does play Sunday.	His abilities will be limited if he does play Sunday.	165721486	1476412869290	1476412869414	i	73
323787	3488263	His abilities will be limited if he does play Sunday.	His abilities will be limited if he does play Sunday.	165721487	1476412869497	1476412869601	f	70
323787	3488263	His abilities will be limited if he does play Sunday.	His abilities will be limited if he does play Sunday.	165721490	1476412869633	1476412869713	 	32
323787	3488263	His abilities will be limited if he does play Sunday.	His abilities will be limited if he does play Sunday.	165721493	1476412869806	1476412869914	h	72
323787	3488263	His abilities will be limited if he does play Sunday.	His abilities will be limited if he does play Sunday.	165721511	1476412869933	1476412870033	e	69
323787	3488263	His abilities will be limited if he does play Sunday.	His abilities will be limited if he does play Sunday.	165721513	1476412870065	1476412870145	 	32
323787	3488263	His abilities will be limited if he does play Sunday.	His abilities will be limited if he does play Sunday.	165721517	1476412870328	1476412870419	s	83
323787	3488263	His abilities will be limited if he does play Sunday.	His abilities will be limited if he does play Sunday.	165721520	1476412870412	1476412870524	o	79
323787	3488263	His abilities will be limited if he does play Sunday.	His abilities will be limited if he does play Sunday.	165721523	1476412870862	1476412870933	BKSP	8
323787	3488263	His abilities will be limited if he does play Sunday.	His abilities will be limited if he does play Sunday.	165721527	1476412870985	1476412871058	BKSP	8
323787	3488263	His abilities will be limited if he does play Sunday.	His abilities will be limited if he does play Sunday.	165721532	1476412871136	1476412871227	d	68
323787	3488263	His abilities will be limited if he does play Sunday.	His abilities will be limited if he does play Sunday.	165721569	1476412871231	1476412871296	o	79
323787	3488263	His abilities will be limited if he does play Sunday.	His abilities will be limited if he does play Sunday.	165721572	1476412871328	1476412871408	e	69
323787	3488263	His abilities will be limited if he does play Sunday.	His abilities will be limited if he does play Sunday.	165721574	1476412871533	1476412871636	s	83
323787	3488263	His abilities will be limited if he does play Sunday.	His abilities will be limited if he does play Sunday.	165721577	1476412871645	1476412871705	 	32
323787	3488263	His abilities will be limited if he does play Sunday.	His abilities will be limited if he does play Sunday.	165721580	1476412872079	1476412872130	p	80
323787	3488263	His abilities will be limited if he does play Sunday.	His abilities will be limited if he does play Sunday.	165721616	1476412872284	1476412872379	l	76
323787	3488263	His abilities will be limited if he does play Sunday.	His abilities will be limited if he does play Sunday.	165721620	1476412872426	1476412872533	a	65
323787	3488263	His abilities will be limited if he does play Sunday.	His abilities will be limited if he does play Sunday.	165721624	1476412872619	1476412872710	y	89
323787	3488263	His abilities will be limited if he does play Sunday.	His abilities will be limited if he does play Sunday.	165721631	1476412872736	1476412872836	 	32
323787	3488263	His abilities will be limited if he does play Sunday.	His abilities will be limited if he does play Sunday.	165721637	1476412872884	1476412873124	SHIFT	16
323787	3488263	His abilities will be limited if he does play Sunday.	His abilities will be limited if he does play Sunday.	165721647	1476412873088	1476412873208	S	83
323787	3488263	His abilities will be limited if he does play Sunday.	His abilities will be limited if he does play Sunday.	165721649	1476412873181	1476412873304	u	85
323787	3488263	His abilities will be limited if he does play Sunday.	His abilities will be limited if he does play Sunday.	165721652	1476412873293	1476412873440	n	78
323787	3488263	His abilities will be limited if he does play Sunday.	His abilities will be limited if he does play Sunday.	165721657	1476412873453	1476412873564	d	68
323787	3488263	His abilities will be limited if he does play Sunday.	His abilities will be limited if he does play Sunday.	165721660	1476412873493	1476412873636	a	65
323787	3488263	His abilities will be limited if he does play Sunday.	His abilities will be limited if he does play Sunday.	165721684	1476412873605	1476412873684	y	89
323787	3488263	His abilities will be limited if he does play Sunday.	His abilities will be limited if he does play Sunday.	165721687	1476412874449	1476412874568	.	190
323787	3488273	Can you supplement the answer to the visa question?	Can you supplesment the answer to the visa question?	165721784	1476412876007	1476412876431	SHIFT	16
323787	3488273	Can you supplement the answer to the visa question?	Can you supplesment the answer to the visa question?	165721786	1476412876331	1476412876531	C	67
323787	3488273	Can you supplement the answer to the visa question?	Can you supplesment the answer to the visa question?	165721787	1476412876573	1476412876710	a	65
323787	3488273	Can you supplement the answer to the visa question?	Can you supplesment the answer to the visa question?	165721789	1476412876693	1476412876820	n	78
323787	3488273	Can you supplement the answer to the visa question?	Can you supplesment the answer to the visa question?	165721792	1476412876804	1476412876936	 	32
323787	3488273	Can you supplement the answer to the visa question?	Can you supplesment the answer to the visa question?	165721795	1476412877334	1476412877437	y	89
323787	3488273	Can you supplement the answer to the visa question?	Can you supplesment the answer to the visa question?	165721815	1476412877449	1476412877617	o	79
323787	3488273	Can you supplement the answer to the visa question?	Can you supplesment the answer to the visa question?	165721817	1476412877562	1476412877713	u	85
323787	3488273	Can you supplement the answer to the visa question?	Can you supplesment the answer to the visa question?	165721820	1476412877666	1476412877781	 	32
323787	3488273	Can you supplement the answer to the visa question?	Can you supplesment the answer to the visa question?	165721821	1476412877912	1476412878016	s	83
323787	3488273	Can you supplement the answer to the visa question?	Can you supplesment the answer to the visa question?	165721823	1476412878057	1476412878136	u	85
323787	3488273	Can you supplement the answer to the visa question?	Can you supplesment the answer to the visa question?	165721859	1476412878387	1476412878495	p	80
323787	3488273	Can you supplement the answer to the visa question?	Can you supplesment the answer to the visa question?	165721862	1476412878558	1476412878618	p	80
323787	3488273	Can you supplement the answer to the visa question?	Can you supplesment the answer to the visa question?	165721865	1476412878801	1476412878885	l	76
323787	3488273	Can you supplement the answer to the visa question?	Can you supplesment the answer to the visa question?	165721867	1476412879113	1476412879209	e	69
323787	3488273	Can you supplement the answer to the visa question?	Can you supplesment the answer to the visa question?	165721869	1476412879348	1476412879415	s	83
323787	3488273	Can you supplement the answer to the visa question?	Can you supplesment the answer to the visa question?	165721895	1476412879600	1476412879699	m	77
323787	3488273	Can you supplement the answer to the visa question?	Can you supplesment the answer to the visa question?	165721897	1476412879836	1476412879935	e	69
323787	3488273	Can you supplement the answer to the visa question?	Can you supplesment the answer to the visa question?	165721899	1476412879965	1476412880077	n	78
323787	3488273	Can you supplement the answer to the visa question?	Can you supplesment the answer to the visa question?	165721901	1476412880110	1476412880226	t	84
323787	3488273	Can you supplement the answer to the visa question?	Can you supplesment the answer to the visa question?	165721921	1476412880182	1476412880262	 	32
323787	3488273	Can you supplement the answer to the visa question?	Can you supplesment the answer to the visa question?	165721924	1476412880334	1476412880430	t	84
323787	3488273	Can you supplement the answer to the visa question?	Can you supplesment the answer to the visa question?	165721929	1476412880394	1476412880524	h	72
323787	3488273	Can you supplement the answer to the visa question?	Can you supplesment the answer to the visa question?	165721933	1476412880522	1476412880654	e	69
323787	3488273	Can you supplement the answer to the visa question?	Can you supplesment the answer to the visa question?	165721940	1476412880558	1476412880682	 	32
323787	3488273	Can you supplement the answer to the visa question?	Can you supplesment the answer to the visa question?	165721944	1476412881095	1476412881147	w	87
323787	3488273	Can you supplement the answer to the visa question?	Can you supplesment the answer to the visa question?	165721976	1476412881349	1476412881449	BKSP	8
323787	3488273	Can you supplement the answer to the visa question?	Can you supplesment the answer to the visa question?	165721979	1476412881484	1476412881588	a	65
323787	3488273	Can you supplement the answer to the visa question?	Can you supplesment the answer to the visa question?	165721981	1476412881596	1476412881696	n	78
323787	3488273	Can you supplement the answer to the visa question?	Can you supplesment the answer to the visa question?	165721983	1476412881708	1476412881816	s	83
323787	3488273	Can you supplement the answer to the visa question?	Can you supplesment the answer to the visa question?	165721985	1476412881955	1476412882083	w	87
323787	3488273	Can you supplement the answer to the visa question?	Can you supplesment the answer to the visa question?	165721992	1476412881991	1476412882147	e	69
323787	3488273	Can you supplement the answer to the visa question?	Can you supplesment the answer to the visa question?	165721993	1476412882248	1476412882364	r	82
323787	3488273	Can you supplement the answer to the visa question?	Can you supplesment the answer to the visa question?	165721994	1476412882434	1476412882525	 	32
323787	3488273	Can you supplement the answer to the visa question?	Can you supplesment the answer to the visa question?	165721995	1476412882603	1476412882695	t	84
323787	3488273	Can you supplement the answer to the visa question?	Can you supplesment the answer to the visa question?	165721996	1476412882691	1476412882814	o	79
323787	3488273	Can you supplement the answer to the visa question?	Can you supplesment the answer to the visa question?	165722011	1476412882807	1476412882927	 	32
323787	3488273	Can you supplement the answer to the visa question?	Can you supplesment the answer to the visa question?	165722013	1476412882984	1476412883072	t	84
323787	3488273	Can you supplement the answer to the visa question?	Can you supplesment the answer to the visa question?	165722015	1476412883118	1476412883214	h	72
323787	3488273	Can you supplement the answer to the visa question?	Can you supplesment the answer to the visa question?	165722019	1476412883222	1476412883326	e	69
323787	3488273	Can you supplement the answer to the visa question?	Can you supplesment the answer to the visa question?	165722024	1476412883306	1476412883398	 	32
323787	3488273	Can you supplement the answer to the visa question?	Can you supplesment the answer to the visa question?	165722028	1476412883664	1476412883764	c	67
323787	3488273	Can you supplement the answer to the visa question?	Can you supplesment the answer to the visa question?	165722069	1476412883832	1476412883916	i	73
323787	3488273	Can you supplement the answer to the visa question?	Can you supplesment the answer to the visa question?	165722070	1476412884233	1476412884301	BKSP	8
323787	3488273	Can you supplement the answer to the visa question?	Can you supplesment the answer to the visa question?	165722073	1476412884365	1476412884417	BKSP	8
323787	3488273	Can you supplement the answer to the visa question?	Can you supplesment the answer to the visa question?	165722076	1476412884463	1476412884571	v	86
323787	3488273	Can you supplement the answer to the visa question?	Can you supplesment the answer to the visa question?	165722080	1476412884607	1476412884680	i	73
323787	3488273	Can you supplement the answer to the visa question?	Can you supplesment the answer to the visa question?	165722083	1476412884759	1476412884871	s	83
323787	3488273	Can you supplement the answer to the visa question?	Can you supplesment the answer to the visa question?	165722087	1476412885085	1476412885189	a	65
323787	3488273	Can you supplement the answer to the visa question?	Can you supplesment the answer to the visa question?	165722128	1476412885242	1476412885354	 	32
323787	3488273	Can you supplement the answer to the visa question?	Can you supplesment the answer to the visa question?	165722130	1476412885905	1476412885997	q	81
323787	3488273	Can you supplement the answer to the visa question?	Can you supplesment the answer to the visa question?	165722133	1476412886085	1476412886133	u	85
323787	3488273	Can you supplement the answer to the visa question?	Can you supplesment the answer to the visa question?	165722135	1476412886208	1476412886288	e	69
323787	3488273	Can you supplement the answer to the visa question?	Can you supplesment the answer to the visa question?	165722136	1476412886398	1476412886498	s	83
323787	3488273	Can you supplement the answer to the visa question?	Can you supplesment the answer to the visa question?	165722181	1476412886610	1476412886692	t	84
323787	3488273	Can you supplement the answer to the visa question?	Can you supplesment the answer to the visa question?	165722185	1476412886690	1476412886782	i	73
323787	3488273	Can you supplement the answer to the visa question?	Can you supplesment the answer to the visa question?	165722189	1476412886851	1476412886986	o	79
323787	3488273	Can you supplement the answer to the visa question?	Can you supplesment the answer to the visa question?	165722194	1476412886978	1476412887150	n	78
323787	3488273	Can you supplement the answer to the visa question?	Can you supplesment the answer to the visa question?	165722198	1476412887965	1476412888045	?	191
323787	3488284	Sunday tickets have been on sale for weeks.	Sunday tickets have been on sale for weeks.	165722314	1476412890255	1476412890399	S	83
323787	3488284	Sunday tickets have been on sale for weeks.	Sunday tickets have been on sale for weeks.	165722321	1476412890440	1476412890562	u	85
323787	3488284	Sunday tickets have been on sale for weeks.	Sunday tickets have been on sale for weeks.	165722326	1476412890560	1476412890707	n	78
323787	3488284	Sunday tickets have been on sale for weeks.	Sunday tickets have been on sale for weeks.	165722333	1476412890692	1476412890852	d	68
323787	3488284	Sunday tickets have been on sale for weeks.	Sunday tickets have been on sale for weeks.	165722353	1476412890760	1476412890908	a	65
323787	3488284	Sunday tickets have been on sale for weeks.	Sunday tickets have been on sale for weeks.	165722355	1476412890920	1476412891052	y	89
323787	3488284	Sunday tickets have been on sale for weeks.	Sunday tickets have been on sale for weeks.	165722358	1476412891074	1476412891178	 	32
323787	3488284	Sunday tickets have been on sale for weeks.	Sunday tickets have been on sale for weeks.	165722363	1476412891462	1476412891554	t	84
323787	3488284	Sunday tickets have been on sale for weeks.	Sunday tickets have been on sale for weeks.	165722369	1476412891601	1476412891689	i	73
323787	3488284	Sunday tickets have been on sale for weeks.	Sunday tickets have been on sale for weeks.	165722372	1476412891799	1476412891907	c	67
323787	3488284	Sunday tickets have been on sale for weeks.	Sunday tickets have been on sale for weeks.	165722406	1476412891899	1476412891991	k	75
323787	3488284	Sunday tickets have been on sale for weeks.	Sunday tickets have been on sale for weeks.	165722408	1476412892034	1476412892134	e	69
323787	3488284	Sunday tickets have been on sale for weeks.	Sunday tickets have been on sale for weeks.	165722410	1476412892249	1476412892333	t	84
323787	3488284	Sunday tickets have been on sale for weeks.	Sunday tickets have been on sale for weeks.	165722413	1476412892471	1476412892571	s	83
323787	3488284	Sunday tickets have been on sale for weeks.	Sunday tickets have been on sale for weeks.	165722416	1476412892575	1476412892647	 	32
323787	3488284	Sunday tickets have been on sale for weeks.	Sunday tickets have been on sale for weeks.	165722418	1476412892800	1476412892897	h	72
323787	3488284	Sunday tickets have been on sale for weeks.	Sunday tickets have been on sale for weeks.	165722466	1476412892912	1476412893004	a	65
323787	3488284	Sunday tickets have been on sale for weeks.	Sunday tickets have been on sale for weeks.	165722470	1476412893151	1476412893307	v	86
323787	3488284	Sunday tickets have been on sale for weeks.	Sunday tickets have been on sale for weeks.	165722474	1476412893227	1476412893379	e	69
323787	3488284	Sunday tickets have been on sale for weeks.	Sunday tickets have been on sale for weeks.	165722476	1476412893387	1476412893471	 	32
323787	3488284	Sunday tickets have been on sale for weeks.	Sunday tickets have been on sale for weeks.	165722479	1476412893548	1476412893639	b	66
323787	3488284	Sunday tickets have been on sale for weeks.	Sunday tickets have been on sale for weeks.	165722480	1476412893632	1476412893700	e	69
323787	3488284	Sunday tickets have been on sale for weeks.	Sunday tickets have been on sale for weeks.	165722482	1476412893773	1476412893861	e	69
323787	3488284	Sunday tickets have been on sale for weeks.	Sunday tickets have been on sale for weeks.	165722484	1476412893873	1476412893997	n	78
323787	3488284	Sunday tickets have been on sale for weeks.	Sunday tickets have been on sale for weeks.	165722486	1476412893977	1476412894085	 	32
323787	3488284	Sunday tickets have been on sale for weeks.	Sunday tickets have been on sale for weeks.	165722489	1476412894195	1476412894347	o	79
323787	3488284	Sunday tickets have been on sale for weeks.	Sunday tickets have been on sale for weeks.	165722622	1476412894343	1476412894495	n	78
323787	3488284	Sunday tickets have been on sale for weeks.	Sunday tickets have been on sale for weeks.	165722623	1476412894471	1476412894567	 	32
323787	3488284	Sunday tickets have been on sale for weeks.	Sunday tickets have been on sale for weeks.	165722627	1476412894593	1476412894737	s	83
323787	3488284	Sunday tickets have been on sale for weeks.	Sunday tickets have been on sale for weeks.	165722629	1476412894685	1476412894837	a	65
323787	3488284	Sunday tickets have been on sale for weeks.	Sunday tickets have been on sale for weeks.	165722634	1476412894859	1476412894995	l	76
323787	3488284	Sunday tickets have been on sale for weeks.	Sunday tickets have been on sale for weeks.	165722638	1476412895003	1476412895130	e	69
323787	3488284	Sunday tickets have been on sale for weeks.	Sunday tickets have been on sale for weeks.	165722553	1476412895103	1476412895235	 	32
323787	3488284	Sunday tickets have been on sale for weeks.	Sunday tickets have been on sale for weeks.	165722554	1476412895344	1476412895468	f	70
323787	3488284	Sunday tickets have been on sale for weeks.	Sunday tickets have been on sale for weeks.	165722556	1476412895484	1476412895548	o	79
323787	3488284	Sunday tickets have been on sale for weeks.	Sunday tickets have been on sale for weeks.	165722559	1476412895646	1476412895742	 	82
323787	3488284	Sunday tickets have been on sale for weeks.	Sunday tickets have been on sale for weeks.	165722563	1476412896322	1476412896422	w	87
323787	3488284	Sunday tickets have been on sale for weeks.	Sunday tickets have been on sale for weeks.	165722621	1476412896791	1476412896887	e	69
323787	3488284	Sunday tickets have been on sale for weeks.	Sunday tickets have been on sale for weeks.	165722624	1476412896927	1476412897015	e	69
323787	3488284	Sunday tickets have been on sale for weeks.	Sunday tickets have been on sale for weeks.	165722631	1476412897182	1476412897270	j	74
323787	3488284	Sunday tickets have been on sale for weeks.	Sunday tickets have been on sale for weeks.	165722636	1476412897304	1476412897392	s	83
323787	3488284	Sunday tickets have been on sale for weeks.	Sunday tickets have been on sale for weeks.	165722639	1476412897810	1476412897874	BKSP	8
323787	3488284	Sunday tickets have been on sale for weeks.	Sunday tickets have been on sale for weeks.	165722640	1476412897933	1476412897997	BKSP	8
323787	3488284	Sunday tickets have been on sale for weeks.	Sunday tickets have been on sale for weeks.	165722642	1476412898114	1476412898169	k	75
323787	3488284	Sunday tickets have been on sale for weeks.	Sunday tickets have been on sale for weeks.	165722666	1476412898200	1476412898320	s	83
323787	3488284	Sunday tickets have been on sale for weeks.	Sunday tickets have been on sale for weeks.	165722669	1476412898365	1476412898449	.	190
323787	3488284	Sunday tickets have been on sale for weeks.	Sunday tickets have been on sale for weeks.	165722671	1476412898437	1476412898797	SHIFT	16
323787	3488291	When do we review with El Paso?	When do we review with El Paso?	165722821	1476412901111	1476412901539	SHIFT	16
323787	3488291	When do we review with El Paso?	When do we review with El Paso?	165722824	1476412901440	1476412901564	W	87
323787	3488291	When do we review with El Paso?	When do we review with El Paso?	165722831	1476412902255	1476412902347	e	69
323787	3488291	When do we review with El Paso?	When do we review with El Paso?	165722828	1476412902287	1476412902306	h	72
323787	3488291	When do we review with El Paso?	When do we review with El Paso?	165722834	1476412902639	1476412902714	BKSP	8
323787	3488291	When do we review with El Paso?	When do we review with El Paso?	165722839	1476412902734	1476412902818	BKSP	8
323787	3488291	When do we review with El Paso?	When do we review with El Paso?	165722844	1476412903038	1476412903122	h	72
323787	3488291	When do we review with El Paso?	When do we review with El Paso?	165722847	1476412903136	1476412903248	e	69
323787	3488291	When do we review with El Paso?	When do we review with El Paso?	165722816	1476412903367	1476412903482	n	78
323787	3488291	When do we review with El Paso?	When do we review with El Paso?	165722819	1476412903475	1476412903611	 	32
323787	3488291	When do we review with El Paso?	When do we review with El Paso?	165722823	1476412903694	1476412903765	d	68
323787	3488291	When do we review with El Paso?	When do we review with El Paso?	165722827	1476412903738	1476412903849	o	79
323787	3488291	When do we review with El Paso?	When do we review with El Paso?	165722886	1476412903838	1476412903962	 	32
323787	3488291	When do we review with El Paso?	When do we review with El Paso?	165722888	1476412904705	1476412904884	w	87
323787	3488291	When do we review with El Paso?	When do we review with El Paso?	165722890	1476412904849	1476412904984	e	69
323787	3488291	When do we review with El Paso?	When do we review with El Paso?	165722893	1476412904973	1476412905065	 	32
323787	3488291	When do we review with El Paso?	When do we review with El Paso?	165722897	1476412905259	1476412905370	r	82
323787	3488291	When do we review with El Paso?	When do we review with El Paso?	165722917	1476412905319	1476412905459	e	69
323787	3488291	When do we review with El Paso?	When do we review with El Paso?	165722918	1476412905567	1476412905694	v	86
323787	3488291	When do we review with El Paso?	When do we review with El Paso?	165722920	1476412905687	1476412905791	i	73
323787	3488291	When do we review with El Paso?	When do we review with El Paso?	165722922	1476412905830	1476412906037	e	69
323787	3488291	When do we review with El Paso?	When do we review with El Paso?	165722924	1476412905938	1476412906094	w	87
323787	3488291	When do we review with El Paso?	When do we review with El Paso?	165722926	1476412906133	1476412906217	 	32
323787	3488291	When do we review with El Paso?	When do we review with El Paso?	165722965	1476412906433	1476412906521	e	69
323787	3488291	When do we review with El Paso?	When do we review with El Paso?	165722966	1476412906750	1476412906838	BKSP	8
323787	3488291	When do we review with El Paso?	When do we review with El Paso?	165722967	1476412906888	1476412907017	w	87
323787	3488291	When do we review with El Paso?	When do we review with El Paso?	165722968	1476412907004	1476412907108	i	73
323787	3488291	When do we review with El Paso?	When do we review with El Paso?	165722969	1476412907157	1476412907263	t	84
323787	3488291	When do we review with El Paso?	When do we review with El Paso?	165723005	1476412907262	1476412907378	h	72
323787	3488291	When do we review with El Paso?	When do we review with El Paso?	165723007	1476412907374	1476412907482	 	32
323787	3488291	When do we review with El Paso?	When do we review with El Paso?	165723009	1476412907734	1476412908126	SHIFT	16
323787	3488291	When do we review with El Paso?	When do we review with El Paso?	165723013	1476412908027	1476412908171	E	69
323787	3488291	When do we review with El Paso?	When do we review with El Paso?	165723015	1476412908339	1476412908499	l	76
323787	3488291	When do we review with El Paso?	When do we review with El Paso?	165723020	1476412908640	1476412908736	 	32
323787	3488291	When do we review with El Paso?	When do we review with El Paso?	165723061	1476412908766	1476412909007	SHIFT	16
323787	3488291	When do we review with El Paso?	When do we review with El Paso?	165723025	1476412908879	1476412908974	P	80
323787	3488291	When do we review with El Paso?	When do we review with El Paso?	165723063	1476412909199	1476412909322	a	65
323787	3488291	When do we review with El Paso?	When do we review with El Paso?	165723065	1476412909255	1476412909403	s	83
323787	3488291	When do we review with El Paso?	When do we review with El Paso?	165723067	1476412909626	1476412909705	p	80
323787	3488291	When do we review with El Paso?	When do we review with El Paso?	165723068	1476412909983	1476412910080	BKSP	8
323787	3488291	When do we review with El Paso?	When do we review with El Paso?	165723069	1476412910225	1476412910281	o	79
323787	3488291	When do we review with El Paso?	When do we review with El Paso?	165723066	1476412910343	1476412910647	SHIFT	16
323787	3488291	When do we review with El Paso?	When do we review with El Paso?	165723070	1476412910508	1476412910595	?	191
323787	3488299	My comments are in fuschia.	My comments are in fushia.	165723172	1476412912258	1476412912498	SHIFT	16
323787	3488299	My comments are in fuschia.	My comments are in fushia.	165723168	1476412912367	1476412912490	M	77
323787	3488299	My comments are in fuschia.	My comments are in fushia.	165723176	1476412912709	1476412912815	y	89
323787	3488299	My comments are in fuschia.	My comments are in fushia.	165723180	1476412912816	1476412912956	 	32
323787	3488299	My comments are in fuschia.	My comments are in fushia.	165723183	1476412913019	1476412913142	c	67
323787	3488299	My comments are in fuschia.	My comments are in fushia.	165723200	1476412913083	1476412913234	o	79
323787	3488299	My comments are in fuschia.	My comments are in fushia.	165723202	1476412913227	1476412913311	m	77
323787	3488299	My comments are in fuschia.	My comments are in fushia.	165723205	1476412913405	1476412913469	m	77
323787	3488299	My comments are in fuschia.	My comments are in fushia.	165723208	1476412913571	1476412913656	e	69
323787	3488299	My comments are in fuschia.	My comments are in fushia.	165723211	1476412913688	1476412913820	n	78
323787	3488299	My comments are in fuschia.	My comments are in fushia.	165723235	1476412913813	1476412913921	t	84
323787	3488299	My comments are in fuschia.	My comments are in fushia.	165723237	1476412913941	1476412914028	 	32
323787	3488299	My comments are in fuschia.	My comments are in fushia.	165723239	1476412914093	1476412914224	s	83
323787	3488299	My comments are in fuschia.	My comments are in fushia.	165723243	1476412914334	1476412914390	BKSP	8
323787	3488299	My comments are in fuschia.	My comments are in fushia.	165723245	1476412914457	1476412914529	BKSP	8
323787	3488299	My comments are in fuschia.	My comments are in fushia.	165723247	1476412914569	1476412914692	s	83
323787	3488299	My comments are in fuschia.	My comments are in fushia.	165723249	1476412914629	1476412914729	 	32
323787	3488299	My comments are in fuschia.	My comments are in fushia.	165723254	1476412914771	1476412914910	a	65
323787	3488299	My comments are in fuschia.	My comments are in fushia.	165723284	1476412914995	1476412915131	r	82
323787	3488299	My comments are in fuschia.	My comments are in fushia.	165723286	1476412915068	1476412915211	e	69
323787	3488299	My comments are in fuschia.	My comments are in fushia.	165723287	1476412915115	1476412915227	 	32
323787	3488299	My comments are in fuschia.	My comments are in fushia.	165723288	1476412915605	1476412915669	BKSP	8
323787	3488299	My comments are in fuschia.	My comments are in fushia.	165723289	1476412915940	1476412916045	 	32
323787	3488299	My comments are in fuschia.	My comments are in fushia.	165723290	1476412916082	1476412916193	i	73
323787	3488299	My comments are in fuschia.	My comments are in fushia.	165723373	1476412916161	1476412916277	n	78
323787	3488299	My comments are in fuschia.	My comments are in fushia.	165723375	1476412916222	1476412916321	 	32
323787	3488299	My comments are in fuschia.	My comments are in fushia.	165723378	1476412916634	1476412916734	SHIFT	16
323787	3488299	My comments are in fuschia.	My comments are in fushia.	165723381	1476412916937	1476412917040	f	70
323787	3488299	My comments are in fuschia.	My comments are in fushia.	165723384	1476412917078	1476412917169	u	85
323787	3488299	My comments are in fuschia.	My comments are in fushia.	165723385	1476412917255	1476412917366	s	83
323787	3488299	My comments are in fuschia.	My comments are in fushia.	165723386	1476412917459	1476412917558	h	72
323787	3488299	My comments are in fuschia.	My comments are in fushia.	165723425	1476412917656	1476412917784	i	73
323787	3488299	My comments are in fuschia.	My comments are in fushia.	165723430	1476412918179	1476412918282	c	67
323787	3488299	My comments are in fuschia.	My comments are in fushia.	165723436	1476412918414	1476412918478	BKSP	8
323787	3488299	My comments are in fuschia.	My comments are in fushia.	165723441	1476412918486	1476412918594	a	65
323787	3488299	My comments are in fuschia.	My comments are in fushia.	165723446	1476412919041	1476412919072	.	190
323787	3488307	The move was a further twist in the long-running dispute.	The movewas a further twist in the long-running dispute	165723541	1476412922338	1476412922742	SHIFT	16
323787	3488307	The move was a further twist in the long-running dispute.	The movewas a further twist in the long-running dispute	165723540	1476412922578	1476412922670	T	84
323787	3488307	The move was a further twist in the long-running dispute.	The movewas a further twist in the long-running dispute	165723542	1476412922808	1476412922905	h	72
323787	3488307	The move was a further twist in the long-running dispute.	The movewas a further twist in the long-running dispute	165723543	1476412922904	1476412923003	e	69
323787	3488307	The move was a further twist in the long-running dispute.	The movewas a further twist in the long-running dispute	165723544	1476412922987	1476412923075	 	32
323787	3488307	The move was a further twist in the long-running dispute.	The movewas a further twist in the long-running dispute	165723546	1476412923153	1476412923269	m	77
323787	3488307	The move was a further twist in the long-running dispute.	The movewas a further twist in the long-running dispute	165723579	1476412923314	1476412923410	o	79
323787	3488307	The move was a further twist in the long-running dispute.	The movewas a further twist in the long-running dispute	165723581	1476412923453	1476412923589	v	86
323787	3488307	The move was a further twist in the long-running dispute.	The movewas a further twist in the long-running dispute	165723583	1476412923541	1476412923681	e	69
323787	3488307	The move was a further twist in the long-running dispute.	The movewas a further twist in the long-running dispute	165723584	1476412923872	1476412923968	w	87
323787	3488307	The move was a further twist in the long-running dispute.	The movewas a further twist in the long-running dispute	165723586	1476412924108	1476412924276	a	65
323787	3488307	The move was a further twist in the long-running dispute.	The movewas a further twist in the long-running dispute	165723620	1476412924188	1476412924333	s	83
323787	3488307	The move was a further twist in the long-running dispute.	The movewas a further twist in the long-running dispute	165723624	1476412924320	1476412924420	 	32
323787	3488307	The move was a further twist in the long-running dispute.	The movewas a further twist in the long-running dispute	165723627	1476412924933	1476412925017	a	65
323787	3488307	The move was a further twist in the long-running dispute.	The movewas a further twist in the long-running dispute	165723630	1476412925014	1476412925113	 	32
323787	3488307	The move was a further twist in the long-running dispute.	The movewas a further twist in the long-running dispute	165723633	1476412925282	1476412925382	f	70
323787	3488307	The move was a further twist in the long-running dispute.	The movewas a further twist in the long-running dispute	165723635	1476412925466	1476412925542	u	85
323787	3488307	The move was a further twist in the long-running dispute.	The movewas a further twist in the long-running dispute	165723651	1476412925640	1476412925672	r	82
323787	3488307	The move was a further twist in the long-running dispute.	The movewas a further twist in the long-running dispute	165723653	1476412925932	1476412926028	t	84
323787	3488307	The move was a further twist in the long-running dispute.	The movewas a further twist in the long-running dispute	165723654	1476412926060	1476412926166	h	72
323787	3488307	The move was a further twist in the long-running dispute.	The movewas a further twist in the long-running dispute	165723655	1476412926132	1476412926256	e	69
323787	3488307	The move was a further twist in the long-running dispute.	The movewas a further twist in the long-running dispute	165723676	1476412926192	1476412926308	r	82
323787	3488307	The move was a further twist in the long-running dispute.	The movewas a further twist in the long-running dispute	165723677	1476412926292	1476412926372	 	32
323787	3488307	The move was a further twist in the long-running dispute.	The movewas a further twist in the long-running dispute	165723679	1476412926580	1476412926640	w	87
323787	3488307	The move was a further twist in the long-running dispute.	The movewas a further twist in the long-running dispute	165723681	1476412926843	1476412926928	BKSP	8
323787	3488307	The move was a further twist in the long-running dispute.	The movewas a further twist in the long-running dispute	165723683	1476412926951	1476412927039	t	84
323787	3488307	The move was a further twist in the long-running dispute.	The movewas a further twist in the long-running dispute	165723685	1476412927127	1476412927243	w	87
323787	3488307	The move was a further twist in the long-running dispute.	The movewas a further twist in the long-running dispute	165723718	1476412927239	1476412927327	i	73
323787	3488307	The move was a further twist in the long-running dispute.	The movewas a further twist in the long-running dispute	165723720	1476412927368	1476412927476	s	83
323787	3488307	The move was a further twist in the long-running dispute.	The movewas a further twist in the long-running dispute	165723722	1476412927592	1476412927676	t	84
323787	3488307	The move was a further twist in the long-running dispute.	The movewas a further twist in the long-running dispute	165723725	1476412927697	1476412927793	 	32
323787	3488307	The move was a further twist in the long-running dispute.	The movewas a further twist in the long-running dispute	165723726	1476412927975	1476412928071	i	73
323787	3488307	The move was a further twist in the long-running dispute.	The movewas a further twist in the long-running dispute	165723728	1476412928079	1476412928251	n	78
323787	3488307	The move was a further twist in the long-running dispute.	The movewas a further twist in the long-running dispute	165723749	1476412928215	1476412928315	 	32
323787	3488307	The move was a further twist in the long-running dispute.	The movewas a further twist in the long-running dispute	165723751	1476412928366	1476412928470	t	84
323787	3488307	The move was a further twist in the long-running dispute.	The movewas a further twist in the long-running dispute	165723753	1476412928474	1476412928586	h	72
323787	3488307	The move was a further twist in the long-running dispute.	The movewas a further twist in the long-running dispute	165723756	1476412928546	1476412928655	e	69
323787	3488307	The move was a further twist in the long-running dispute.	The movewas a further twist in the long-running dispute	165723758	1476412928587	1476412928694	 	32
323787	3488307	The move was a further twist in the long-running dispute.	The movewas a further twist in the long-running dispute	165723760	1476412928818	1476412928938	l	76
323787	3488307	The move was a further twist in the long-running dispute.	The movewas a further twist in the long-running dispute	165723796	1476412929010	1476412929106	o	79
323787	3488307	The move was a further twist in the long-running dispute.	The movewas a further twist in the long-running dispute	165723799	1476412929144	1476412929256	n	78
323787	3488307	The move was a further twist in the long-running dispute.	The movewas a further twist in the long-running dispute	165723804	1476412929390	1476412929490	g	71
323787	3488307	The move was a further twist in the long-running dispute.	The movewas a further twist in the long-running dispute	165723808	1476412930008	1476412930088	-	189
323787	3488307	The move was a further twist in the long-running dispute.	The movewas a further twist in the long-running dispute	165723810	1476412930285	1476412930345	s	83
323787	3488307	The move was a further twist in the long-running dispute.	The movewas a further twist in the long-running dispute	165723811	1476412930400	1476412930453	u	85
323787	3488307	The move was a further twist in the long-running dispute.	The movewas a further twist in the long-running dispute	165723813	1476412930585	1476412930625	n	78
323787	3488307	The move was a further twist in the long-running dispute.	The movewas a further twist in the long-running dispute	165723815	1476412930690	1476412930766	n	78
323787	3488307	The move was a further twist in the long-running dispute.	The movewas a further twist in the long-running dispute	165723817	1476412930852	1476412930959	i	73
323787	3488307	The move was a further twist in the long-running dispute.	The movewas a further twist in the long-running dispute	165723873	1476412930936	1476412931104	n	78
323787	3488307	The move was a further twist in the long-running dispute.	The movewas a further twist in the long-running dispute	165723874	1476412931088	1476412931192	 	32
323787	3488307	The move was a further twist in the long-running dispute.	The movewas a further twist in the long-running dispute	165723875	1476412931605	1476412931661	BKSP	8
323787	3488307	The move was a further twist in the long-running dispute.	The movewas a further twist in the long-running dispute	165723876	1476412931945	1476412931973	BKSP	8
323787	3488307	The move was a further twist in the long-running dispute.	The movewas a further twist in the long-running dispute	165723877	1476412932051	1476412932111	BKSP	8
323787	3488307	The move was a further twist in the long-running dispute.	The movewas a further twist in the long-running dispute	165723878	1476412932173	1476412932241	BKSP	8
323787	3488307	The move was a further twist in the long-running dispute.	The movewas a further twist in the long-running dispute	165723879	1476412932308	1476412932372	BKSP	8
323787	3488307	The move was a further twist in the long-running dispute.	The movewas a further twist in the long-running dispute	165723880	1476412932443	1476412932495	BKSP	8
323787	3488307	The move was a further twist in the long-running dispute.	The movewas a further twist in the long-running dispute	165723882	1476412932583	1476412932687	BKSP	8
323787	3488307	The move was a further twist in the long-running dispute.	The movewas a further twist in the long-running dispute	165723886	1476412932968	1476412933043	r	82
323787	3488307	The move was a further twist in the long-running dispute.	The movewas a further twist in the long-running dispute	165723888	1476412933094	1476412933170	u	85
323787	3488307	The move was a further twist in the long-running dispute.	The movewas a further twist in the long-running dispute	165723892	1476412933262	1476412933310	n	78
323787	3488307	The move was a further twist in the long-running dispute.	The movewas a further twist in the long-running dispute	165723894	1476412933401	1476412933449	n	78
323787	3488307	The move was a further twist in the long-running dispute.	The movewas a further twist in the long-running dispute	165723910	1476412933600	1476412933716	i	73
323787	3488307	The move was a further twist in the long-running dispute.	The movewas a further twist in the long-running dispute	165723912	1476412933696	1476412933836	n	78
323787	3488307	The move was a further twist in the long-running dispute.	The movewas a further twist in the long-running dispute	165723919	1476412933796	1476412933895	g	71
323787	3488307	The move was a further twist in the long-running dispute.	The movewas a further twist in the long-running dispute	165723925	1476412933888	1476412933968	 	32
323787	3488307	The move was a further twist in the long-running dispute.	The movewas a further twist in the long-running dispute	165723929	1476412934741	1476412934829	d	68
323787	3488307	The move was a further twist in the long-running dispute.	The movewas a further twist in the long-running dispute	165723978	1476412934857	1476412934921	i	73
323787	3488307	The move was a further twist in the long-running dispute.	The movewas a further twist in the long-running dispute	165723980	1476412934961	1476412935073	s	83
323787	3488307	The move was a further twist in the long-running dispute.	The movewas a further twist in the long-running dispute	165723982	1476412935205	1476412935230	b	66
323787	3488307	The move was a further twist in the long-running dispute.	The movewas a further twist in the long-running dispute	165723983	1476412935401	1476412935497	p	80
323787	3488307	The move was a further twist in the long-running dispute.	The movewas a further twist in the long-running dispute	165723984	1476412935934	1476412936106	p	80
323787	3488307	The move was a further twist in the long-running dispute.	The movewas a further twist in the long-running dispute	165724028	1476412936158	1476412936250	u	85
323787	3488307	The move was a further twist in the long-running dispute.	The movewas a further twist in the long-running dispute	165724029	1476412936264	1476412936352	t	84
323787	3488307	The move was a further twist in the long-running dispute.	The movewas a further twist in the long-running dispute	165724030	1476412936576	1476412936648	BKSP	8
323787	3488307	The move was a further twist in the long-running dispute.	The movewas a further twist in the long-running dispute	165724031	1476412936706	1476412936770	BKSP	8
323787	3488307	The move was a further twist in the long-running dispute.	The movewas a further twist in the long-running dispute	165724032	1476412936831	1476412936899	BKSP	8
323787	3488307	The move was a further twist in the long-running dispute.	The movewas a further twist in the long-running dispute	165724033	1476412936971	1476412937023	BKSP	8
323787	3488307	The move was a further twist in the long-running dispute.	The movewas a further twist in the long-running dispute	165724034	1476412937096	1476412937184	BKSP	8
323787	3488307	The move was a further twist in the long-running dispute.	The movewas a further twist in the long-running dispute	165724035	1476412937781	1476412937901	p	80
323787	3488307	The move was a further twist in the long-running dispute.	The movewas a further twist in the long-running dispute	165724037	1476412937961	1476412938063	u	85
323787	3488307	The move was a further twist in the long-running dispute.	The movewas a further twist in the long-running dispute	165724039	1476412938061	1476412938157	t	84
323787	3488307	The move was a further twist in the long-running dispute.	The movewas a further twist in the long-running dispute	165724040	1476412938133	1476412938289	e	69
323787	3488317	This is the crew.	This is the crew	165724097	1476412940072	1476412940544	SHIFT	16
323787	3488317	This is the crew.	This is the crew	165724096	1476412940384	1476412940476	T	84
323787	3488317	This is the crew.	This is the crew	165724098	1476412940624	1476412940712	h	72
323787	3488317	This is the crew.	This is the crew	165724100	1476412940751	1476412940878	i	73
323787	3488317	This is the crew.	This is the crew	165724103	1476412940835	1476412940951	s	83
323787	3488317	This is the crew.	This is the crew	165724126	1476412940907	1476412941003	 	32
323787	3488317	This is the crew.	This is the crew	165724130	1476412941038	1476412941148	i	73
323787	3488317	This is the crew.	This is the crew	165724135	1476412941122	1476412941233	s	83
323787	3488317	This is the crew.	This is the crew	165724141	1476412941210	1476412941330	 	32
323787	3488317	This is the crew.	This is the crew	165724144	1476412941467	1476412941491	t	84
323787	3488317	This is the crew.	This is the crew	165724148	1476412941506	1476412941610	h	72
323787	3488317	This is the crew.	This is the crew	165724177	1476412941589	1476412941725	e	69
323787	3488317	This is the crew.	This is the crew	165724179	1476412941722	1476412941810	 	32
323787	3488317	This is the crew.	This is the crew	165724180	1476412942089	1476412942209	c	67
323787	3488317	This is the crew.	This is the crew	165724181	1476412942486	1476412942634	r	82
323787	3488317	This is the crew.	This is the crew	165724182	1476412942574	1476412942682	e	69
323787	3488317	This is the crew.	This is the crew	165724183	1476412942783	1476412942901	w	87
323787	3488322	Have you done any deals yet?	Have you done any deals yet?	165724252	1476412944641	1476412945049	SHIFT	16
323787	3488322	Have you done any deals yet?	Have you done any deals yet?	165724249	1476412944945	1476412945024	H	72
323787	3488322	Have you done any deals yet?	Have you done any deals yet?	165724255	1476412945151	1476412945243	a	65
323787	3488322	Have you done any deals yet?	Have you done any deals yet?	165724258	1476412945357	1476412945429	v	86
323787	3488322	Have you done any deals yet?	Have you done any deals yet?	165724261	1476412945381	1476412945536	e	69
323787	3488322	Have you done any deals yet?	Have you done any deals yet?	165724279	1476412945465	1476412945577	 	32
323787	3488322	Have you done any deals yet?	Have you done any deals yet?	165724282	1476412945664	1476412945764	y	89
323787	3488322	Have you done any deals yet?	Have you done any deals yet?	165724287	1476412945814	1476412945985	o	79
323787	3488322	Have you done any deals yet?	Have you done any deals yet?	165724292	1476412945926	1476412946078	u	85
323787	3488322	Have you done any deals yet?	Have you done any deals yet?	165724295	1476412946006	1476412946094	 	32
323787	3488322	Have you done any deals yet?	Have you done any deals yet?	165724298	1476412946294	1476412946409	d	68
323787	3488322	Have you done any deals yet?	Have you done any deals yet?	165724303	1476412946406	1476412946539	o	79
323787	3488322	Have you done any deals yet?	Have you done any deals yet?	165724306	1476412946538	1476412946693	n	78
323787	3488322	Have you done any deals yet?	Have you done any deals yet?	165724308	1476412946678	1476412946765	e	69
323787	3488322	Have you done any deals yet?	Have you done any deals yet?	165724310	1476412946774	1476412946854	 	32
323787	3488322	Have you done any deals yet?	Have you done any deals yet?	165724311	1476412946900	1476412947007	a	65
323787	3488322	Have you done any deals yet?	Have you done any deals yet?	165724340	1476412947000	1476412947108	n	78
323787	3488322	Have you done any deals yet?	Have you done any deals yet?	165724345	1476412947179	1476412947299	y	89
323787	3488322	Have you done any deals yet?	Have you done any deals yet?	165724349	1476412947321	1476412947441	 	32
323787	3488322	Have you done any deals yet?	Have you done any deals yet?	165724352	1476412947663	1476412947775	d	68
323787	3488322	Have you done any deals yet?	Have you done any deals yet?	165724357	1476412947835	1476412947943	e	69
323787	3488322	Have you done any deals yet?	Have you done any deals yet?	165724362	1476412948009	1476412948139	a	65
323787	3488322	Have you done any deals yet?	Have you done any deals yet?	165724376	1476412948117	1476412948217	l	76
323787	3488322	Have you done any deals yet?	Have you done any deals yet?	165724378	1476412948252	1476412948372	s	83
323787	3488322	Have you done any deals yet?	Have you done any deals yet?	165724380	1476412948387	1476412948483	 	32
323787	3488322	Have you done any deals yet?	Have you done any deals yet?	165724381	1476412948592	1476412948680	y	89
323787	3488322	Have you done any deals yet?	Have you done any deals yet?	165724382	1476412948706	1476412948814	e	69
323787	3488322	Have you done any deals yet?	Have you done any deals yet?	165724384	1476412948918	1476412949006	t	84
323787	3488322	Have you done any deals yet?	Have you done any deals yet?	165724390	1476412949155	1476412949372	SHIFT	16
323787	3488322	Have you done any deals yet?	Have you done any deals yet?	165724388	1476412949284	1476412949367	?	191
323787	3488325	I wasn't as prepared as I will be this year.	I wasn't as prepared as I will be this year.	165724468	1476412951240	1476412951696	SHIFT	16
323787	3488325	I wasn't as prepared as I will be this year.	I wasn't as prepared as I will be this year.	165724470	1476412951585	1476412951696	I	73
323787	3488325	I wasn't as prepared as I will be this year.	I wasn't as prepared as I will be this year.	165724472	1476412951685	1476412951805	 	32
323787	3488325	I wasn't as prepared as I will be this year.	I wasn't as prepared as I will be this year.	165724474	1476412951870	1476412951958	w	87
323787	3488325	I wasn't as prepared as I will be this year.	I wasn't as prepared as I will be this year.	165724476	1476412952041	1476412952168	a	65
323787	3488325	I wasn't as prepared as I will be this year.	I wasn't as prepared as I will be this year.	165724528	1476412952101	1476412952244	s	83
323787	3488325	I wasn't as prepared as I will be this year.	I wasn't as prepared as I will be this year.	165724529	1476412952264	1476412952372	n	78
323787	3488325	I wasn't as prepared as I will be this year.	I wasn't as prepared as I will be this year.	165724530	1476412953446	1476412953527	'	222
323787	3488325	I wasn't as prepared as I will be this year.	I wasn't as prepared as I will be this year.	165724531	1476412953536	1476412953616	t	84
323787	3488325	I wasn't as prepared as I will be this year.	I wasn't as prepared as I will be this year.	165724532	1476412953769	1476412953866	 	32
323787	3488325	I wasn't as prepared as I will be this year.	I wasn't as prepared as I will be this year.	165724533	1476412954000	1476412954091	t	84
323787	3488325	I wasn't as prepared as I will be this year.	I wasn't as prepared as I will be this year.	165724551	1476412954099	1476412954180	h	72
323787	3488325	I wasn't as prepared as I will be this year.	I wasn't as prepared as I will be this year.	165724554	1476412954373	1476412954437	BKSP	8
323787	3488325	I wasn't as prepared as I will be this year.	I wasn't as prepared as I will be this year.	165724557	1476412954501	1476412954581	BKSP	8
323787	3488325	I wasn't as prepared as I will be this year.	I wasn't as prepared as I will be this year.	165724559	1476412954630	1476412954753	a	65
323787	3488325	I wasn't as prepared as I will be this year.	I wasn't as prepared as I will be this year.	165724562	1476412954690	1476412954825	s	83
323787	3488325	I wasn't as prepared as I will be this year.	I wasn't as prepared as I will be this year.	165724565	1476412954762	1476412954862	 	32
323787	3488325	I wasn't as prepared as I will be this year.	I wasn't as prepared as I will be this year.	165724567	1476412954916	1476412955032	p	80
323787	3488325	I wasn't as prepared as I will be this year.	I wasn't as prepared as I will be this year.	165724574	1476412955070	1476412955169	r	82
323787	3488325	I wasn't as prepared as I will be this year.	I wasn't as prepared as I will be this year.	165724575	1476412955118	1476412955246	e	69
323787	3488325	I wasn't as prepared as I will be this year.	I wasn't as prepared as I will be this year.	165724576	1476412955324	1476412955383	p	80
323787	3488325	I wasn't as prepared as I will be this year.	I wasn't as prepared as I will be this year.	165724577	1476412955494	1476412955613	a	65
323787	3488325	I wasn't as prepared as I will be this year.	I wasn't as prepared as I will be this year.	165724579	1476412955896	1476412955963	r	82
323787	3488325	I wasn't as prepared as I will be this year.	I wasn't as prepared as I will be this year.	165724612	1476412956269	1476412956373	e	69
323787	3488325	I wasn't as prepared as I will be this year.	I wasn't as prepared as I will be this year.	165724615	1476412956562	1476412956677	d	68
323787	3488325	I wasn't as prepared as I will be this year.	I wasn't as prepared as I will be this year.	165724616	1476412956793	1476412956872	 	32
323787	3488325	I wasn't as prepared as I will be this year.	I wasn't as prepared as I will be this year.	165724617	1476412956923	1476412957062	a	65
323787	3488325	I wasn't as prepared as I will be this year.	I wasn't as prepared as I will be this year.	165724635	1476412956991	1476412957118	s	83
323787	3488325	I wasn't as prepared as I will be this year.	I wasn't as prepared as I will be this year.	165724636	1476412957074	1476412957158	 	32
323787	3488325	I wasn't as prepared as I will be this year.	I wasn't as prepared as I will be this year.	165724637	1476412957230	1476412957346	i	73
323787	3488325	I wasn't as prepared as I will be this year.	I wasn't as prepared as I will be this year.	165724638	1476412957326	1476412957385	 	32
323787	3488325	I wasn't as prepared as I will be this year.	I wasn't as prepared as I will be this year.	165724640	1476412957525	1476412957605	BKSP	8
323787	3488325	I wasn't as prepared as I will be this year.	I wasn't as prepared as I will be this year.	165724642	1476412957662	1476412957734	BKSP	8
323787	3488325	I wasn't as prepared as I will be this year.	I wasn't as prepared as I will be this year.	165724653	1476412957830	1476412958010	SHIFT	16
323787	3488325	I wasn't as prepared as I will be this year.	I wasn't as prepared as I will be this year.	165724644	1476412957867	1476412957966	I	73
323787	3488325	I wasn't as prepared as I will be this year.	I wasn't as prepared as I will be this year.	165724654	1476412957943	1476412958054	 	32
323787	3488325	I wasn't as prepared as I will be this year.	I wasn't as prepared as I will be this year.	165724655	1476412958157	1476412958261	w	87
323787	3488325	I wasn't as prepared as I will be this year.	I wasn't as prepared as I will be this year.	165724656	1476412958343	1476412958418	i	73
323787	3488325	I wasn't as prepared as I will be this year.	I wasn't as prepared as I will be this year.	165724657	1476412958531	1476412958599	l	76
323787	3488325	I wasn't as prepared as I will be this year.	I wasn't as prepared as I will be this year.	165724658	1476412958657	1476412958745	l	76
323787	3488325	I wasn't as prepared as I will be this year.	I wasn't as prepared as I will be this year.	165724659	1476412958783	1476412958875	 	32
323787	3488325	I wasn't as prepared as I will be this year.	I wasn't as prepared as I will be this year.	165724674	1476412958912	1476412959020	b	66
323787	3488325	I wasn't as prepared as I will be this year.	I wasn't as prepared as I will be this year.	165724679	1476412959016	1476412959140	e	69
323787	3488325	I wasn't as prepared as I will be this year.	I wasn't as prepared as I will be this year.	165724683	1476412959137	1476412959233	 	32
323787	3488325	I wasn't as prepared as I will be this year.	I wasn't as prepared as I will be this year.	165724685	1476412959362	1476412959453	t	84
323787	3488325	I wasn't as prepared as I will be this year.	I wasn't as prepared as I will be this year.	165724703	1476412959434	1476412959533	h	72
323787	3488325	I wasn't as prepared as I will be this year.	I wasn't as prepared as I will be this year.	165724706	1476412959563	1476412959702	i	73
323787	3488325	I wasn't as prepared as I will be this year.	I wasn't as prepared as I will be this year.	165724708	1476412959667	1476412959798	s	83
323787	3488325	I wasn't as prepared as I will be this year.	I wasn't as prepared as I will be this year.	165724709	1476412959758	1476412959858	 	32
323787	3488325	I wasn't as prepared as I will be this year.	I wasn't as prepared as I will be this year.	165724710	1476412959985	1476412960065	y	89
323787	3488325	I wasn't as prepared as I will be this year.	I wasn't as prepared as I will be this year.	165724711	1476412960273	1476412960377	e	69
323787	3488325	I wasn't as prepared as I will be this year.	I wasn't as prepared as I will be this year.	165724767	1476412960446	1476412960638	a	65
323787	3488325	I wasn't as prepared as I will be this year.	I wasn't as prepared as I will be this year.	165724768	1476412960912	1476412961003	r	82
323787	3488325	I wasn't as prepared as I will be this year.	I wasn't as prepared as I will be this year.	165724769	1476412962238	1476412962294	.	190
323787	3488334	In a couple of weeks.	In a couple of weeks.	165724858	1476412963846	1476412964082	SHIFT	16
323787	3488334	In a couple of weeks.	In a couple of weeks.	165724860	1476412963966	1476412964094	I	73
323787	3488334	In a couple of weeks.	In a couple of weeks.	165724863	1476412964058	1476412964242	N	78
323787	3488334	In a couple of weeks.	In a couple of weeks.	165724866	1476412964230	1476412964323	 	32
323787	3488334	In a couple of weeks.	In a couple of weeks.	165724870	1476412964703	1476412964774	BKSP	8
323787	3488334	In a couple of weeks.	In a couple of weeks.	165724876	1476412964833	1476412964897	BKSP	8
323787	3488334	In a couple of weeks.	In a couple of weeks.	165724880	1476412965012	1476412965120	n	78
323787	3488334	In a couple of weeks.	In a couple of weeks.	165724897	1476412965092	1476412965188	 	32
323787	3488334	In a couple of weeks.	In a couple of weeks.	165724900	1476412965255	1476412965377	a	65
323787	3488334	In a couple of weeks.	In a couple of weeks.	165724903	1476412965370	1476412965466	 	32
323787	3488334	In a couple of weeks.	In a couple of weeks.	165724906	1476412965605	1476412965713	c	67
323787	3488334	In a couple of weeks.	In a couple of weeks.	165724908	1476412965645	1476412965789	o	79
323787	3488334	In a couple of weeks.	In a couple of weeks.	165724910	1476412965935	1476412966039	p	80
323787	3488334	In a couple of weeks.	In a couple of weeks.	165724929	1476412966385	1476412966477	BKSP	8
323787	3488334	In a couple of weeks.	In a couple of weeks.	165724931	1476412966700	1476412966780	u	85
323787	3488334	In a couple of weeks.	In a couple of weeks.	165724933	1476412966885	1476412966957	p	80
323787	3488334	In a couple of weeks.	In a couple of weeks.	165724935	1476412967071	1476412967127	l	76
323787	3488334	In a couple of weeks.	In a couple of weeks.	165724938	1476412967175	1476412967271	e	69
323787	3488334	In a couple of weeks.	In a couple of weeks.	165724961	1476412967268	1476412967352	 	32
323787	3488334	In a couple of weeks.	In a couple of weeks.	165724963	1476412967416	1476412967524	o	79
323787	3488334	In a couple of weeks.	In a couple of weeks.	165724965	1476412967548	1476412967648	f	70
323787	3488334	In a couple of weeks.	In a couple of weeks.	165724967	1476412967604	1476412967676	 	32
323787	3488334	In a couple of weeks.	In a couple of weeks.	165724970	1476412967833	1476412967973	w	87
323787	3488334	In a couple of weeks.	In a couple of weeks.	165725009	1476412967921	1476412968069	e	69
323787	3488334	In a couple of weeks.	In a couple of weeks.	165725011	1476412968480	1476412968584	e	69
323787	3488334	In a couple of weeks.	In a couple of weeks.	165725013	1476412968599	1476412968695	k	75
323787	3488334	In a couple of weeks.	In a couple of weeks.	165725015	1476412968868	1476412968948	s	83
323787	3488336	Mike Anderson will retain the starting job for now.	Mike Anderson will retain the starting job for now	165725081	1476412971631	1476412971947	SHIFT	16
323787	3488336	Mike Anderson will retain the starting job for now.	Mike Anderson will retain the starting job for now	165725079	1476412971819	1476412971927	M	77
323787	3488336	Mike Anderson will retain the starting job for now.	Mike Anderson will retain the starting job for now	165725083	1476412972024	1476412972140	i	73
323787	3488336	Mike Anderson will retain the starting job for now.	Mike Anderson will retain the starting job for now	165725084	1476412972239	1476412972339	k	75
323787	3488336	Mike Anderson will retain the starting job for now.	Mike Anderson will retain the starting job for now	165725086	1476412972357	1476412972437	e	69
323787	3488336	Mike Anderson will retain the starting job for now.	Mike Anderson will retain the starting job for now	165725088	1476412972646	1476412972770	 	32
323787	3488336	Mike Anderson will retain the starting job for now.	Mike Anderson will retain the starting job for now	165725119	1476412972875	1476412973151	SHIFT	16
323787	3488336	Mike Anderson will retain the starting job for now.	Mike Anderson will retain the starting job for now	165725120	1476412973051	1476412973178	A	65
323787	3488336	Mike Anderson will retain the starting job for now.	Mike Anderson will retain the starting job for now	165725121	1476412973299	1476412973379	n	78
323787	3488336	Mike Anderson will retain the starting job for now.	Mike Anderson will retain the starting job for now	165725122	1476412973480	1476412973592	d	68
323787	3488336	Mike Anderson will retain the starting job for now.	Mike Anderson will retain the starting job for now	165725123	1476412973716	1476412973844	e	69
323787	3488336	Mike Anderson will retain the starting job for now.	Mike Anderson will retain the starting job for now	165725150	1476412973772	1476412973888	r	82
323787	3488336	Mike Anderson will retain the starting job for now.	Mike Anderson will retain the starting job for now	165725152	1476412973967	1476412974091	s	83
323787	3488336	Mike Anderson will retain the starting job for now.	Mike Anderson will retain the starting job for now	165725154	1476412974031	1476412974111	o	79
323787	3488336	Mike Anderson will retain the starting job for now.	Mike Anderson will retain the starting job for now	165725156	1476412974169	1476412974313	n	78
323787	3488336	Mike Anderson will retain the starting job for now.	Mike Anderson will retain the starting job for now	165725159	1476412974277	1476412974381	 	32
323787	3488336	Mike Anderson will retain the starting job for now.	Mike Anderson will retain the starting job for now	165725162	1476412974613	1476412974729	w	87
323787	3488336	Mike Anderson will retain the starting job for now.	Mike Anderson will retain the starting job for now	165725166	1476412974714	1476412974769	i	73
323787	3488336	Mike Anderson will retain the starting job for now.	Mike Anderson will retain the starting job for now	165725168	1476412974893	1476412974956	l	76
323787	3488336	Mike Anderson will retain the starting job for now.	Mike Anderson will retain the starting job for now	165725171	1476412975007	1476412975083	l	76
323787	3488336	Mike Anderson will retain the starting job for now.	Mike Anderson will retain the starting job for now	165725173	1476412975124	1476412975216	 	32
323787	3488336	Mike Anderson will retain the starting job for now.	Mike Anderson will retain the starting job for now	165725175	1476412975422	1476412975514	r	82
323787	3488336	Mike Anderson will retain the starting job for now.	Mike Anderson will retain the starting job for now	165725177	1476412975552	1476412975676	e	69
323787	3488336	Mike Anderson will retain the starting job for now.	Mike Anderson will retain the starting job for now	165725199	1476412975768	1476412975852	t	84
323787	3488336	Mike Anderson will retain the starting job for now.	Mike Anderson will retain the starting job for now	165725201	1476412975940	1476412976064	a	65
323787	3488336	Mike Anderson will retain the starting job for now.	Mike Anderson will retain the starting job for now	165725206	1476412976024	1476412976152	i	73
323787	3488336	Mike Anderson will retain the starting job for now.	Mike Anderson will retain the starting job for now	165725211	1476412976199	1476412976371	n	78
323787	3488336	Mike Anderson will retain the starting job for now.	Mike Anderson will retain the starting job for now	165725220	1476412976360	1476412976448	 	32
323787	3488336	Mike Anderson will retain the starting job for now.	Mike Anderson will retain the starting job for now	165725221	1476412976586	1476412976678	t	84
323787	3488336	Mike Anderson will retain the starting job for now.	Mike Anderson will retain the starting job for now	165725222	1476412976682	1476412976788	h	72
323787	3488336	Mike Anderson will retain the starting job for now.	Mike Anderson will retain the starting job for now	165725223	1476412976762	1476412976874	e	69
323787	3488336	Mike Anderson will retain the starting job for now.	Mike Anderson will retain the starting job for now	165725224	1476412976830	1476412976918	 	32
323787	3488336	Mike Anderson will retain the starting job for now.	Mike Anderson will retain the starting job for now	165725225	1476412976989	1476412977113	s	83
323787	3488336	Mike Anderson will retain the starting job for now.	Mike Anderson will retain the starting job for now	165725242	1476412977201	1476412977289	t	84
323787	3488336	Mike Anderson will retain the starting job for now.	Mike Anderson will retain the starting job for now	165725244	1476412977394	1476412977526	a	65
323787	3488336	Mike Anderson will retain the starting job for now.	Mike Anderson will retain the starting job for now	165725246	1476412977498	1476412977598	r	82
323787	3488336	Mike Anderson will retain the starting job for now.	Mike Anderson will retain the starting job for now	165725249	1476412977691	1476412977779	t	84
323787	3488336	Mike Anderson will retain the starting job for now.	Mike Anderson will retain the starting job for now	165725252	1476412977816	1476412977980	i	73
323787	3488336	Mike Anderson will retain the starting job for now.	Mike Anderson will retain the starting job for now	165725276	1476412977936	1476412978144	n	78
323787	3488336	Mike Anderson will retain the starting job for now.	Mike Anderson will retain the starting job for now	165725273	1476412977988	1476412978108	g	71
323787	3488336	Mike Anderson will retain the starting job for now.	Mike Anderson will retain the starting job for now	165725279	1476412978152	1476412978252	 	32
323787	3488336	Mike Anderson will retain the starting job for now.	Mike Anderson will retain the starting job for now	165725282	1476412978943	1476412978991	j	74
323787	3488336	Mike Anderson will retain the starting job for now.	Mike Anderson will retain the starting job for now	165725285	1476412979038	1476412979177	o	79
323787	3488336	Mike Anderson will retain the starting job for now.	Mike Anderson will retain the starting job for now	165725286	1476412979244	1476412979376	b	66
323787	3488336	Mike Anderson will retain the starting job for now.	Mike Anderson will retain the starting job for now	165725291	1476412979388	1476412979480	 	32
323787	3488336	Mike Anderson will retain the starting job for now.	Mike Anderson will retain the starting job for now	165725293	1476412979755	1476412979847	f	70
323787	3488336	Mike Anderson will retain the starting job for now.	Mike Anderson will retain the starting job for now	165725294	1476412979831	1476412979950	o	79
323787	3488336	Mike Anderson will retain the starting job for now.	Mike Anderson will retain the starting job for now	165725295	1476412979951	1476412980027	 	32
323787	3488336	Mike Anderson will retain the starting job for now.	Mike Anderson will retain the starting job for now	165725323	1476412979971	1476412980087	r	82
323787	3488336	Mike Anderson will retain the starting job for now.	Mike Anderson will retain the starting job for now	165725324	1476412980357	1476412980401	BKSP	8
323787	3488336	Mike Anderson will retain the starting job for now.	Mike Anderson will retain the starting job for now	165725325	1476412980483	1476412980551	BKSP	8
323787	3488336	Mike Anderson will retain the starting job for now.	Mike Anderson will retain the starting job for now	165725326	1476412980853	1476412980952	r	82
323787	3488336	Mike Anderson will retain the starting job for now.	Mike Anderson will retain the starting job for now	165725327	1476412980945	1476412981033	 	32
323787	3488336	Mike Anderson will retain the starting job for now.	Mike Anderson will retain the starting job for now	165725328	1476412981112	1476412981200	n	78
323787	3488336	Mike Anderson will retain the starting job for now.	Mike Anderson will retain the starting job for now	165725330	1476412981411	1476412981519	e	69
323787	3488336	Mike Anderson will retain the starting job for now.	Mike Anderson will retain the starting job for now	165725335	1476412981547	1476412981639	o	79
323787	3488336	Mike Anderson will retain the starting job for now.	Mike Anderson will retain the starting job for now	165725366	1476412981811	1476412981871	BKSP	8
323787	3488336	Mike Anderson will retain the starting job for now.	Mike Anderson will retain the starting job for now	165725368	1476412981936	1476412982008	BKSP	8
323787	3488336	Mike Anderson will retain the starting job for now.	Mike Anderson will retain the starting job for now	165725371	1476412982094	1476412982200	o	79
323787	3488336	Mike Anderson will retain the starting job for now.	Mike Anderson will retain the starting job for now	165725374	1476412982176	1476412982293	w	87
323787	3488343	Michael was great this AM.	Michael was great this AM	165725430	1476412984242	1476412984678	SHIFT	16
323787	3488343	Michael was great this AM.	Michael was great this AM	165725429	1476412984542	1476412984657	M	77
323787	3488343	Michael was great this AM.	Michael was great this AM	165725431	1476412984746	1476412984845	i	73
323787	3488343	Michael was great this AM.	Michael was great this AM	165725432	1476412984964	1476412985072	c	67
323787	3488343	Michael was great this AM.	Michael was great this AM	165725433	1476412985144	1476412985240	h	72
323787	3488343	Michael was great this AM.	Michael was great this AM	165725434	1476412985303	1476412985411	a	65
323787	3488343	Michael was great this AM.	Michael was great this AM	165725453	1476412985500	1476412985576	l	76
323787	3488343	Michael was great this AM.	Michael was great this AM	165725456	1476412985787	1476412985863	BKSP	8
323787	3488343	Michael was great this AM.	Michael was great this AM	165725458	1476412985902	1476412985997	e	69
323787	3488343	Michael was great this AM.	Michael was great this AM	165725461	1476412985998	1476412986097	l	76
323787	3488343	Michael was great this AM.	Michael was great this AM	165725462	1476412986106	1476412986222	 	32
323787	3488343	Michael was great this AM.	Michael was great this AM	165725464	1476412986485	1476412986557	w	87
323787	3488343	Michael was great this AM.	Michael was great this AM	165725513	1476412986719	1476412986826	s	65
323787	3488343	Michael was great this AM.	Michael was great this AM	165725517	1476412986887	1476412986963	 	32
323787	3488343	Michael was great this AM.	Michael was great this AM	165725519	1476412987590	1476412987670	g	71
323787	3488343	Michael was great this AM.	Michael was great this AM	165725521	1476412987859	1476412987967	r	82
323787	3488343	Michael was great this AM.	Michael was great this AM	165725537	1476412988028	1476412988132	e	69
323787	3488343	Michael was great this AM.	Michael was great this AM	165725539	1476412988248	1476412988379	a	65
323787	3488343	Michael was great this AM.	Michael was great this AM	165725541	1476412988384	1476412988491	t	84
323787	3488343	Michael was great this AM.	Michael was great this AM	165725542	1476412988500	1476412988608	 	32
323787	3488343	Michael was great this AM.	Michael was great this AM	165725543	1476412988652	1476412988740	t	84
323787	3488343	Michael was great this AM.	Michael was great this AM	165725564	1476412988736	1476412988816	h	72
323787	3488343	Michael was great this AM.	Michael was great this AM	165725567	1476412988847	1476412988982	i	73
323787	3488343	Michael was great this AM.	Michael was great this AM	165725571	1476412988923	1476412989037	s	83
323787	3488343	Michael was great this AM.	Michael was great this AM	165725575	1476412989007	1476412989103	 	32
323787	3488343	Michael was great this AM.	Michael was great this AM	165725579	1476412989238	1476412989538	SHIFT	16
323787	3488343	Michael was great this AM.	Michael was great this AM	165725583	1476412989459	1476412989575	A	65
323787	3488343	Michael was great this AM.	Michael was great this AM	165725587	1476412989657	1476412989741	k	75
323787	3488343	Michael was great this AM.	Michael was great this AM	165725611	1476412990168	1476412990261	BKSP	8
323787	3488343	Michael was great this AM.	Michael was great this AM	165725615	1476412990323	1476412990504	SHIFT	16
323787	3488343	Michael was great this AM.	Michael was great this AM	165725613	1476412990424	1476412990487	M	77
