PARTICIPANT_ID	TEST_SECTION_ID	SENTENCE	USER_INPUT	KEYSTROKE_ID	PRESS_TIME	RELEASE_TIME	LETTER	KEYCODE
324329	3494277	I am too, and we are working very hard to turn it around.	I am too, and we are working very hard to turn it around.	166010466	1476420356275	1476420356561	SHIFT	16
324329	3494277	I am too, and we are working very hard to turn it around.	I am too, and we are working very hard to turn it around.	166010468	1476420356506	1476420356561	I	73
324329	3494277	I am too, and we are working very hard to turn it around.	I am too, and we are working very hard to turn it around.	166010470	1476420356666	1476420356769	a	65
324329	3494277	I am too, and we are working very hard to turn it around.	I am too, and we are working very hard to turn it around.	166010472	1476420356852	1476420356956	 	32
324329	3494277	I am too, and we are working very hard to turn it around.	I am too, and we are working very hard to turn it around.	166010475	1476420357245	1476420357307	BKSP	8
324329	3494277	I am too, and we are working very hard to turn it around.	I am too, and we are working very hard to turn it around.	166010478	1476420357410	1476420357472	BKSP	8
324329	3494277	I am too, and we are working very hard to turn it around.	I am too, and we are working very hard to turn it around.	166010481	1476420357524	1476420357574	BKSP	8
324329	3494277	I am too, and we are working very hard to turn it around.	I am too, and we are working very hard to turn it around.	166010483	1476420357665	1476420357772	 	32
324329	3494277	I am too, and we are working very hard to turn it around.	I am too, and we are working very hard to turn it around.	166010485	1476420358362	1476420358423	BKSP	8
324329	3494277	I am too, and we are working very hard to turn it around.	I am too, and we are working very hard to turn it around.	166010486	1476420358521	1476420358566	BKSP	8
324329	3494277	I am too, and we are working very hard to turn it around.	I am too, and we are working very hard to turn it around.	166010487	1476420358692	1476420358910	SHIFT	16
324329	3494277	I am too, and we are working very hard to turn it around.	I am too, and we are working very hard to turn it around.	166010514	1476420358885	1476420358951	I	73
324329	3494277	I am too, and we are working very hard to turn it around.	I am too, and we are working very hard to turn it around.	166010517	1476420359116	1476420359187	 	32
324329	3494277	I am too, and we are working very hard to turn it around.	I am too, and we are working very hard to turn it around.	166010519	1476420359220	1476420359333	a	65
324329	3494277	I am too, and we are working very hard to turn it around.	I am too, and we are working very hard to turn it around.	166010521	1476420359352	1476420359416	m	77
324329	3494277	I am too, and we are working very hard to turn it around.	I am too, and we are working very hard to turn it around.	166010522	1476420359569	1476420359634	 	32
324329	3494277	I am too, and we are working very hard to turn it around.	I am too, and we are working very hard to turn it around.	166010524	1476420359985	1476420360067	t	84
324329	3494277	I am too, and we are working very hard to turn it around.	I am too, and we are working very hard to turn it around.	166010597	1476420360119	1476420360189	o	79
324329	3494277	I am too, and we are working very hard to turn it around.	I am too, and we are working very hard to turn it around.	166010599	1476420360291	1476420360350	o	79
324329	3494277	I am too, and we are working very hard to turn it around.	I am too, and we are working very hard to turn it around.	166010601	1476420361077	1476420361132	,	188
324329	3494277	I am too, and we are working very hard to turn it around.	I am too, and we are working very hard to turn it around.	166010604	1476420361294	1476420361405	 	32
324329	3494277	I am too, and we are working very hard to turn it around.	I am too, and we are working very hard to turn it around.	166010608	1476420362317	1476420362414	a	65
324329	3494277	I am too, and we are working very hard to turn it around.	I am too, and we are working very hard to turn it around.	166010634	1476420362445	1476420362518	n	78
324329	3494277	I am too, and we are working very hard to turn it around.	I am too, and we are working very hard to turn it around.	166010637	1476420362619	1476420362712	d	68
324329	3494277	I am too, and we are working very hard to turn it around.	I am too, and we are working very hard to turn it around.	166010640	1476420362797	1476420362869	 	32
324329	3494277	I am too, and we are working very hard to turn it around.	I am too, and we are working very hard to turn it around.	166010643	1476420363041	1476420363179	w	87
324329	3494277	I am too, and we are working very hard to turn it around.	I am too, and we are working very hard to turn it around.	166010646	1476420363234	1476420363323	e	69
324329	3494277	I am too, and we are working very hard to turn it around.	I am too, and we are working very hard to turn it around.	166010674	1476420363500	1476420363572	 	32
324329	3494277	I am too, and we are working very hard to turn it around.	I am too, and we are working very hard to turn it around.	166010677	1476420363663	1476420363797	a	65
324329	3494277	I am too, and we are working very hard to turn it around.	I am too, and we are working very hard to turn it around.	166010682	1476420363850	1476420363961	r	82
324329	3494277	I am too, and we are working very hard to turn it around.	I am too, and we are working very hard to turn it around.	166010685	1476420364035	1476420364128	e	69
324329	3494277	I am too, and we are working very hard to turn it around.	I am too, and we are working very hard to turn it around.	166010688	1476420364190	1476420364262	 	32
324329	3494277	I am too, and we are working very hard to turn it around.	I am too, and we are working very hard to turn it around.	166010716	1476420364351	1476420364481	w	87
324329	3494277	I am too, and we are working very hard to turn it around.	I am too, and we are working very hard to turn it around.	166010718	1476420364513	1476420364562	o	79
324329	3494277	I am too, and we are working very hard to turn it around.	I am too, and we are working very hard to turn it around.	166010719	1476420364973	1476420365055	r	82
324329	3494277	I am too, and we are working very hard to turn it around.	I am too, and we are working very hard to turn it around.	166010720	1476420365205	1476420365308	k	75
324329	3494277	I am too, and we are working very hard to turn it around.	I am too, and we are working very hard to turn it around.	166010721	1476420365452	1476420365512	i	73
324329	3494277	I am too, and we are working very hard to turn it around.	I am too, and we are working very hard to turn it around.	166010744	1476420365597	1476420365680	n	78
324329	3494277	I am too, and we are working very hard to turn it around.	I am too, and we are working very hard to turn it around.	166010746	1476420365750	1476420365828	g	71
324329	3494277	I am too, and we are working very hard to turn it around.	I am too, and we are working very hard to turn it around.	166010747	1476420365843	1476420365925	 	32
324329	3494277	I am too, and we are working very hard to turn it around.	I am too, and we are working very hard to turn it around.	166010748	1476420366019	1476420366143	v	86
324329	3494277	I am too, and we are working very hard to turn it around.	I am too, and we are working very hard to turn it around.	166010749	1476420366226	1476420366341	e	69
324329	3494277	I am too, and we are working very hard to turn it around.	I am too, and we are working very hard to turn it around.	166010763	1476420366380	1476420366482	r	82
324329	3494277	I am too, and we are working very hard to turn it around.	I am too, and we are working very hard to turn it around.	166010764	1476420366524	1476420366620	y	89
324329	3494277	I am too, and we are working very hard to turn it around.	I am too, and we are working very hard to turn it around.	166010765	1476420366765	1476420366846	 	32
324329	3494277	I am too, and we are working very hard to turn it around.	I am too, and we are working very hard to turn it around.	166010766	1476420366976	1476420367042	h	72
324329	3494277	I am too, and we are working very hard to turn it around.	I am too, and we are working very hard to turn it around.	166010767	1476420367085	1476420367210	a	65
324329	3494277	I am too, and we are working very hard to turn it around.	I am too, and we are working very hard to turn it around.	166010776	1476420367247	1476420367371	r	82
324329	3494277	I am too, and we are working very hard to turn it around.	I am too, and we are working very hard to turn it around.	166010778	1476420367466	1476420367551	d	68
324329	3494277	I am too, and we are working very hard to turn it around.	I am too, and we are working very hard to turn it around.	166010782	1476420367661	1476420367725	 	32
324329	3494277	I am too, and we are working very hard to turn it around.	I am too, and we are working very hard to turn it around.	166010786	1476420367782	1476420367869	t	84
324329	3494277	I am too, and we are working very hard to turn it around.	I am too, and we are working very hard to turn it around.	166010789	1476420367909	1476420367974	o	79
324329	3494277	I am too, and we are working very hard to turn it around.	I am too, and we are working very hard to turn it around.	166010814	1476420368092	1476420368182	 	32
324329	3494277	I am too, and we are working very hard to turn it around.	I am too, and we are working very hard to turn it around.	166010816	1476420368196	1476420368327	t	84
324329	3494277	I am too, and we are working very hard to turn it around.	I am too, and we are working very hard to turn it around.	166010818	1476420368446	1476420368543	r	82
324329	3494277	I am too, and we are working very hard to turn it around.	I am too, and we are working very hard to turn it around.	166010820	1476420368963	1476420369019	BKSP	8
324329	3494277	I am too, and we are working very hard to turn it around.	I am too, and we are working very hard to turn it around.	166010822	1476420369318	1476420369370	u	85
324329	3494277	I am too, and we are working very hard to turn it around.	I am too, and we are working very hard to turn it around.	166010823	1476420369428	1476420369507	r	82
324329	3494277	I am too, and we are working very hard to turn it around.	I am too, and we are working very hard to turn it around.	166010850	1476420369656	1476420369732	n	78
324329	3494277	I am too, and we are working very hard to turn it around.	I am too, and we are working very hard to turn it around.	166010852	1476420369875	1476420369957	 	32
324329	3494277	I am too, and we are working very hard to turn it around.	I am too, and we are working very hard to turn it around.	166010854	1476420370276	1476420370329	i	73
324329	3494277	I am too, and we are working very hard to turn it around.	I am too, and we are working very hard to turn it around.	166010855	1476420370421	1476420370504	t	84
324329	3494277	I am too, and we are working very hard to turn it around.	I am too, and we are working very hard to turn it around.	166010856	1476420370566	1476420370650	 	32
324329	3494277	I am too, and we are working very hard to turn it around.	I am too, and we are working very hard to turn it around.	166010893	1476420370669	1476420370786	a	65
324329	3494277	I am too, and we are working very hard to turn it around.	I am too, and we are working very hard to turn it around.	166010894	1476420370827	1476420370931	r	82
324329	3494277	I am too, and we are working very hard to turn it around.	I am too, and we are working very hard to turn it around.	166010895	1476420371141	1476420371208	r	82
324329	3494277	I am too, and we are working very hard to turn it around.	I am too, and we are working very hard to turn it around.	166010896	1476420371582	1476420371653	BKSP	8
324329	3494277	I am too, and we are working very hard to turn it around.	I am too, and we are working very hard to turn it around.	166010897	1476420371945	1476420372016	o	79
324329	3494277	I am too, and we are working very hard to turn it around.	I am too, and we are working very hard to turn it around.	166010898	1476420372106	1476420372159	u	85
324329	3494277	I am too, and we are working very hard to turn it around.	I am too, and we are working very hard to turn it around.	166010923	1476420372292	1476420372348	n	78
324329	3494277	I am too, and we are working very hard to turn it around.	I am too, and we are working very hard to turn it around.	166010924	1476420372406	1476420372492	d	68
324329	3494277	I am too, and we are working very hard to turn it around.	I am too, and we are working very hard to turn it around.	166010925	1476420373038	1476420373098	.	190
324329	3494291	Brady only has five catches this season.	Brady only has five catches this season.	166011021	1476420375269	1476420375643	SHIFT	16
324329	3494291	Brady only has five catches this season.	Brady only has five catches this season.	166011024	1476420375600	1476420375677	B	66
324329	3494291	Brady only has five catches this season.	Brady only has five catches this season.	166011027	1476420375819	1476420375924	r	82
324329	3494291	Brady only has five catches this season.	Brady only has five catches this season.	166011030	1476420376001	1476420376110	a	65
324329	3494291	Brady only has five catches this season.	Brady only has five catches this season.	166011032	1476420376193	1476420376296	d	68
324329	3494291	Brady only has five catches this season.	Brady only has five catches this season.	166011035	1476420376419	1476420376472	y	89
324329	3494291	Brady only has five catches this season.	Brady only has five catches this season.	166011082	1476420376677	1476420376749	 	32
324329	3494291	Brady only has five catches this season.	Brady only has five catches this season.	166011085	1476420377049	1476420377142	o	79
324329	3494291	Brady only has five catches this season.	Brady only has five catches this season.	166011086	1476420377266	1476420377338	n	78
324329	3494291	Brady only has five catches this season.	Brady only has five catches this season.	166011087	1476420377473	1476420377537	l	76
324329	3494291	Brady only has five catches this season.	Brady only has five catches this season.	166011088	1476420377926	1476420378000	y	89
324329	3494291	Brady only has five catches this season.	Brady only has five catches this season.	166011115	1476420378168	1476420378240	 	32
324329	3494291	Brady only has five catches this season.	Brady only has five catches this season.	166011117	1476420378383	1476420378445	h	72
324329	3494291	Brady only has five catches this season.	Brady only has five catches this season.	166011118	1476420378519	1476420378602	a	65
324329	3494291	Brady only has five catches this season.	Brady only has five catches this season.	166011119	1476420378691	1476420378804	s	83
324329	3494291	Brady only has five catches this season.	Brady only has five catches this season.	166011120	1476420378846	1476420378913	 	32
324329	3494291	Brady only has five catches this season.	Brady only has five catches this season.	166011156	1476420378964	1476420379071	f	70
324329	3494291	Brady only has five catches this season.	Brady only has five catches this season.	166011158	1476420379140	1476420379212	i	73
324329	3494291	Brady only has five catches this season.	Brady only has five catches this season.	166011159	1476420379373	1476420379479	v	86
324329	3494291	Brady only has five catches this season.	Brady only has five catches this season.	166011161	1476420379626	1476420379724	e	69
324329	3494291	Brady only has five catches this season.	Brady only has five catches this season.	166011162	1476420379820	1476420379895	 	32
324329	3494291	Brady only has five catches this season.	Brady only has five catches this season.	166011195	1476420380118	1476420380215	c	67
324329	3494291	Brady only has five catches this season.	Brady only has five catches this season.	166011200	1476420380325	1476420380419	a	65
324329	3494291	Brady only has five catches this season.	Brady only has five catches this season.	166011202	1476420380535	1476420380618	t	84
324329	3494291	Brady only has five catches this season.	Brady only has five catches this season.	166011205	1476420380794	1476420380898	c	67
324329	3494291	Brady only has five catches this season.	Brady only has five catches this season.	166011207	1476420380935	1476420380993	h	72
324329	3494291	Brady only has five catches this season.	Brady only has five catches this season.	166011235	1476420381095	1476420381195	e	69
324329	3494291	Brady only has five catches this season.	Brady only has five catches this season.	166011240	1476420381280	1476420381371	s	83
324329	3494291	Brady only has five catches this season.	Brady only has five catches this season.	166011247	1476420381439	1476420381516	 	32
324329	3494291	Brady only has five catches this season.	Brady only has five catches this season.	166011251	1476420381569	1476420381642	t	84
324329	3494291	Brady only has five catches this season.	Brady only has five catches this season.	166011253	1476420381669	1476420381745	h	72
324329	3494291	Brady only has five catches this season.	Brady only has five catches this season.	166011263	1476420381814	1476420381908	i	73
324329	3494291	Brady only has five catches this season.	Brady only has five catches this season.	166011266	1476420381931	1476420382024	s	83
324329	3494291	Brady only has five catches this season.	Brady only has five catches this season.	166011270	1476420382095	1476420382158	 	32
324329	3494291	Brady only has five catches this season.	Brady only has five catches this season.	166011273	1476420382245	1476420382374	s	83
324329	3494291	Brady only has five catches this season.	Brady only has five catches this season.	166011275	1476420382455	1476420382562	e	69
324329	3494291	Brady only has five catches this season.	Brady only has five catches this season.	166011328	1476420382662	1476420382762	a	65
324329	3494291	Brady only has five catches this season.	Brady only has five catches this season.	166011332	1476420382917	1476420383036	s	83
324329	3494291	Brady only has five catches this season.	Brady only has five catches this season.	166011336	1476420383149	1476420383217	o	79
324329	3494291	Brady only has five catches this season.	Brady only has five catches this season.	166011339	1476420383346	1476420383410	n	78
324329	3494291	Brady only has five catches this season.	Brady only has five catches this season.	166011344	1476420384061	1476420384113	.	190
324329	3494298	Juppe said such a force was in the process of being sent to Haiti.	Juppe said such a force was in th process of bing sent to Haiti.	166011494	1476420386303	1476420386553	SHIFT	16
324329	3494298	Juppe said such a force was in the process of being sent to Haiti.	Juppe said such a force was in th process of bing sent to Haiti.	166011495	1476420386528	1476420386602	J	74
324329	3494298	Juppe said such a force was in the process of being sent to Haiti.	Juppe said such a force was in th process of bing sent to Haiti.	166011496	1476420386714	1476420386760	u	85
324329	3494298	Juppe said such a force was in the process of being sent to Haiti.	Juppe said such a force was in th process of bing sent to Haiti.	166011497	1476420387367	1476420387421	p	80
324329	3494298	Juppe said such a force was in the process of being sent to Haiti.	Juppe said such a force was in th process of bing sent to Haiti.	166011498	1476420387497	1476420387566	p	80
324329	3494298	Juppe said such a force was in the process of being sent to Haiti.	Juppe said such a force was in th process of bing sent to Haiti.	166011499	1476420387646	1476420387752	e	69
324329	3494298	Juppe said such a force was in the process of being sent to Haiti.	Juppe said such a force was in th process of bing sent to Haiti.	166011532	1476420387948	1476420388010	 	32
324329	3494298	Juppe said such a force was in the process of being sent to Haiti.	Juppe said such a force was in th process of bing sent to Haiti.	166011533	1476420388629	1476420388851	SHIFT	16
324329	3494298	Juppe said such a force was in the process of being sent to Haiti.	Juppe said such a force was in th process of bing sent to Haiti.	166011535	1476420388968	1476420389044	s	83
324329	3494298	Juppe said such a force was in the process of being sent to Haiti.	Juppe said such a force was in th process of bing sent to Haiti.	166011539	1476420389125	1476420389230	a	65
324329	3494298	Juppe said such a force was in the process of being sent to Haiti.	Juppe said such a force was in th process of bing sent to Haiti.	166011544	1476420389299	1476420389383	i	73
324329	3494298	Juppe said such a force was in the process of being sent to Haiti.	Juppe said such a force was in th process of bing sent to Haiti.	166011548	1476420389640	1476420389716	d	68
324329	3494298	Juppe said such a force was in the process of being sent to Haiti.	Juppe said such a force was in th process of bing sent to Haiti.	166011577	1476420389838	1476420389919	 	32
324329	3494298	Juppe said such a force was in the process of being sent to Haiti.	Juppe said such a force was in th process of bing sent to Haiti.	166011580	1476420390181	1476420390262	s	83
324329	3494298	Juppe said such a force was in the process of being sent to Haiti.	Juppe said such a force was in th process of bing sent to Haiti.	166011583	1476420390396	1476420390460	u	85
324329	3494298	Juppe said such a force was in the process of being sent to Haiti.	Juppe said such a force was in th process of bing sent to Haiti.	166011588	1476420390788	1476420390884	c	67
324329	3494298	Juppe said such a force was in the process of being sent to Haiti.	Juppe said such a force was in th process of bing sent to Haiti.	166011592	1476420390974	1476420391030	h	72
324329	3494298	Juppe said such a force was in the process of being sent to Haiti.	Juppe said such a force was in th process of bing sent to Haiti.	166011615	1476420391203	1476420391267	 	32
324329	3494298	Juppe said such a force was in the process of being sent to Haiti.	Juppe said such a force was in th process of bing sent to Haiti.	166011616	1476420391316	1476420391422	a	65
324329	3494298	Juppe said such a force was in the process of being sent to Haiti.	Juppe said such a force was in th process of bing sent to Haiti.	166011618	1476420391469	1476420391536	 	32
324329	3494298	Juppe said such a force was in the process of being sent to Haiti.	Juppe said such a force was in th process of bing sent to Haiti.	166011620	1476420391577	1476420391680	f	70
324329	3494298	Juppe said such a force was in the process of being sent to Haiti.	Juppe said such a force was in th process of bing sent to Haiti.	166011623	1476420391742	1476420391794	o	79
324329	3494298	Juppe said such a force was in the process of being sent to Haiti.	Juppe said such a force was in th process of bing sent to Haiti.	166011675	1476420391908	1476420392011	r	82
324329	3494298	Juppe said such a force was in the process of being sent to Haiti.	Juppe said such a force was in th process of bing sent to Haiti.	166011677	1476420392290	1476420392381	c	67
324329	3494298	Juppe said such a force was in the process of being sent to Haiti.	Juppe said such a force was in th process of bing sent to Haiti.	166011680	1476420392526	1476420392611	e	69
324329	3494298	Juppe said such a force was in the process of being sent to Haiti.	Juppe said such a force was in th process of bing sent to Haiti.	166011684	1476420392690	1476420392764	 	32
324329	3494298	Juppe said such a force was in the process of being sent to Haiti.	Juppe said such a force was in th process of bing sent to Haiti.	166011689	1476420392825	1476420392921	w	87
324329	3494298	Juppe said such a force was in the process of being sent to Haiti.	Juppe said such a force was in th process of bing sent to Haiti.	166011718	1476420393025	1476420393159	a	65
324329	3494298	Juppe said such a force was in the process of being sent to Haiti.	Juppe said such a force was in th process of bing sent to Haiti.	166011721	1476420393198	1476420393314	s	83
324329	3494298	Juppe said such a force was in the process of being sent to Haiti.	Juppe said such a force was in th process of bing sent to Haiti.	166011724	1476420393355	1476420393418	 	32
324329	3494298	Juppe said such a force was in the process of being sent to Haiti.	Juppe said such a force was in th process of bing sent to Haiti.	166011728	1476420393521	1476420393583	i	73
324329	3494298	Juppe said such a force was in the process of being sent to Haiti.	Juppe said such a force was in th process of bing sent to Haiti.	166011732	1476420393651	1476420393707	n	78
324329	3494298	Juppe said such a force was in the process of being sent to Haiti.	Juppe said such a force was in th process of bing sent to Haiti.	166011773	1476420393817	1476420393893	 	32
324329	3494298	Juppe said such a force was in the process of being sent to Haiti.	Juppe said such a force was in th process of bing sent to Haiti.	166011776	1476420393972	1476420394059	t	84
324329	3494298	Juppe said such a force was in the process of being sent to Haiti.	Juppe said such a force was in th process of bing sent to Haiti.	166011778	1476420394083	1476420394149	h	72
324329	3494298	Juppe said such a force was in the process of being sent to Haiti.	Juppe said such a force was in th process of bing sent to Haiti.	166011780	1476420394307	1476420394369	 	32
324329	3494298	Juppe said such a force was in the process of being sent to Haiti.	Juppe said such a force was in th process of bing sent to Haiti.	166011783	1476420394493	1476420394565	p	80
324329	3494298	Juppe said such a force was in the process of being sent to Haiti.	Juppe said such a force was in th process of bing sent to Haiti.	166011823	1476420394596	1476420394678	r	82
324329	3494298	Juppe said such a force was in the process of being sent to Haiti.	Juppe said such a force was in th process of bing sent to Haiti.	166011829	1476420394803	1476420394844	i	79
324329	3494298	Juppe said such a force was in the process of being sent to Haiti.	Juppe said such a force was in th process of bing sent to Haiti.	166011834	1476420395248	1476420395330	BKSP	8
324329	3494298	Juppe said such a force was in the process of being sent to Haiti.	Juppe said such a force was in th process of bing sent to Haiti.	166011840	1476420395493	1476420395588	c	67
324329	3494298	Juppe said such a force was in the process of being sent to Haiti.	Juppe said such a force was in th process of bing sent to Haiti.	166011847	1476420395741	1476420395837	e	69
324329	3494298	Juppe said such a force was in the process of being sent to Haiti.	Juppe said such a force was in th process of bing sent to Haiti.	166011864	1476420395948	1476420396012	s	83
324329	3494298	Juppe said such a force was in the process of being sent to Haiti.	Juppe said such a force was in th process of bing sent to Haiti.	166011866	1476420396105	1476420396176	s	83
324329	3494298	Juppe said such a force was in the process of being sent to Haiti.	Juppe said such a force was in th process of bing sent to Haiti.	166011868	1476420396237	1476420396333	 	32
324329	3494298	Juppe said such a force was in the process of being sent to Haiti.	Juppe said such a force was in th process of bing sent to Haiti.	166011870	1476420396424	1476420396488	o	79
324329	3494298	Juppe said such a force was in the process of being sent to Haiti.	Juppe said such a force was in th process of bing sent to Haiti.	166011872	1476420396536	1476420396611	f	70
324329	3494298	Juppe said such a force was in the process of being sent to Haiti.	Juppe said such a force was in th process of bing sent to Haiti.	166011905	1476420396682	1476420396757	 	32
324329	3494298	Juppe said such a force was in the process of being sent to Haiti.	Juppe said such a force was in th process of bing sent to Haiti.	166011907	1476420396906	1476420396984	b	66
324329	3494298	Juppe said such a force was in the process of being sent to Haiti.	Juppe said such a force was in th process of bing sent to Haiti.	166011909	1476420397160	1476420397241	i	73
324329	3494298	Juppe said such a force was in the process of being sent to Haiti.	Juppe said such a force was in th process of bing sent to Haiti.	166011911	1476420397311	1476420397387	n	78
324329	3494298	Juppe said such a force was in the process of being sent to Haiti.	Juppe said such a force was in th process of bing sent to Haiti.	166011912	1476420397436	1476420397541	g	71
324329	3494298	Juppe said such a force was in the process of being sent to Haiti.	Juppe said such a force was in th process of bing sent to Haiti.	166011938	1476420397574	1476420397647	 	32
324329	3494298	Juppe said such a force was in the process of being sent to Haiti.	Juppe said such a force was in th process of bing sent to Haiti.	166011939	1476420397729	1476420397831	s	83
324329	3494298	Juppe said such a force was in the process of being sent to Haiti.	Juppe said such a force was in th process of bing sent to Haiti.	166011941	1476420397953	1476420398035	e	69
324329	3494298	Juppe said such a force was in the process of being sent to Haiti.	Juppe said such a force was in th process of bing sent to Haiti.	166011945	1476420398130	1476420398192	n	78
324329	3494298	Juppe said such a force was in the process of being sent to Haiti.	Juppe said such a force was in th process of bing sent to Haiti.	166011949	1476420398919	1476420399002	t	84
324329	3494298	Juppe said such a force was in the process of being sent to Haiti.	Juppe said such a force was in th process of bing sent to Haiti.	166012002	1476420399205	1476420399281	 	32
324329	3494298	Juppe said such a force was in the process of being sent to Haiti.	Juppe said such a force was in th process of bing sent to Haiti.	166012004	1476420399381	1476420399471	t	84
324329	3494298	Juppe said such a force was in the process of being sent to Haiti.	Juppe said such a force was in th process of bing sent to Haiti.	166012006	1476420399519	1476420399571	o	79
324329	3494298	Juppe said such a force was in the process of being sent to Haiti.	Juppe said such a force was in th process of bing sent to Haiti.	166012007	1476420399722	1476420399796	 	32
324329	3494298	Juppe said such a force was in the process of being sent to Haiti.	Juppe said such a force was in th process of bing sent to Haiti.	166012008	1476420400067	1476420400427	SHIFT	16
324329	3494298	Juppe said such a force was in the process of being sent to Haiti.	Juppe said such a force was in th process of bing sent to Haiti.	166012098	1476420400419	1476420400481	H	72
324329	3494298	Juppe said such a force was in the process of being sent to Haiti.	Juppe said such a force was in th process of bing sent to Haiti.	166012100	1476420400553	1476420400677	a	65
324329	3494298	Juppe said such a force was in the process of being sent to Haiti.	Juppe said such a force was in th process of bing sent to Haiti.	166012103	1476420401172	1476420401255	i	73
324329	3494298	Juppe said such a force was in the process of being sent to Haiti.	Juppe said such a force was in th process of bing sent to Haiti.	166012107	1476420401286	1476420401379	t	84
324329	3494298	Juppe said such a force was in the process of being sent to Haiti.	Juppe said such a force was in th process of bing sent to Haiti.	166012111	1476420401491	1476420401557	i	73
324329	3494298	Juppe said such a force was in the process of being sent to Haiti.	Juppe said such a force was in th process of bing sent to Haiti.	166012115	1476420402240	1476420402302	.	190
324329	3494312	Let me know how I can help.	Let me know how I can help.	166012224	1476420404295	1476420404504	SHIFT	16
324329	3494312	Let me know how I can help.	Let me know how I can help.	166012226	1476420404668	1476420404930	SHIFT	16
324329	3494312	Let me know how I can help.	Let me know how I can help.	166012225	1476420404833	1476420404920	L	76
324329	3494312	Let me know how I can help.	Let me know how I can help.	166012227	1476420404992	1476420405105	e	69
324329	3494312	Let me know how I can help.	Let me know how I can help.	166012228	1476420405205	1476420405290	t	84
324329	3494312	Let me know how I can help.	Let me know how I can help.	166012229	1476420405368	1476420405417	 	32
324329	3494312	Let me know how I can help.	Let me know how I can help.	166012231	1476420405517	1476420405579	m	77
324329	3494312	Let me know how I can help.	Let me know how I can help.	166012241	1476420405655	1476420405747	e	69
324329	3494312	Let me know how I can help.	Let me know how I can help.	166012242	1476420405764	1476420405828	 	32
324329	3494312	Let me know how I can help.	Let me know how I can help.	166012243	1476420405913	1476420406034	k	75
324329	3494312	Let me know how I can help.	Let me know how I can help.	166012244	1476420405985	1476420406057	n	78
324329	3494312	Let me know how I can help.	Let me know how I can help.	166012245	1476420406141	1476420406221	o	79
324329	3494312	Let me know how I can help.	Let me know how I can help.	166012247	1476420406275	1476420406366	w	87
324329	3494312	Let me know how I can help.	Let me know how I can help.	166012250	1476420406388	1476420406459	 	32
324329	3494312	Let me know how I can help.	Let me know how I can help.	166012253	1476420406564	1476420406617	h	72
324329	3494312	Let me know how I can help.	Let me know how I can help.	166012257	1476420406748	1476420406832	o	79
324329	3494312	Let me know how I can help.	Let me know how I can help.	166012261	1476420406917	1476420407020	w	87
324329	3494312	Let me know how I can help.	Let me know how I can help.	166012274	1476420407072	1476420407134	 	32
324329	3494312	Let me know how I can help.	Let me know how I can help.	166012277	1476420407223	1476420407403	SHIFT	16
324329	3494312	Let me know how I can help.	Let me know how I can help.	166012280	1476420407358	1476420407411	I	73
324329	3494312	Let me know how I can help.	Let me know how I can help.	166012285	1476420407600	1476420407662	 	32
324329	3494312	Let me know how I can help.	Let me know how I can help.	166012287	1476420407682	1476420407784	c	67
324329	3494312	Let me know how I can help.	Let me know how I can help.	166012289	1476420407840	1476420407941	a	65
324329	3494312	Let me know how I can help.	Let me know how I can help.	166012300	1476420407958	1476420408022	n	78
324329	3494312	Let me know how I can help.	Let me know how I can help.	166012302	1476420408144	1476420408199	 	32
324329	3494312	Let me know how I can help.	Let me know how I can help.	166012304	1476420408323	1476420408384	h	72
324329	3494312	Let me know how I can help.	Let me know how I can help.	166012306	1476420408459	1476420408551	e	69
324329	3494312	Let me know how I can help.	Let me know how I can help.	166012307	1476420408599	1476420408671	l	76
324329	3494312	Let me know how I can help.	Let me know how I can help.	166012325	1476420408775	1476420408838	p	80
324329	3494312	Let me know how I can help.	Let me know how I can help.	166012327	1476420409480	1476420409534	.	190
324329	3494318	But he added the list given was still incomplete.	But he added the list given was still incomplete.	166012412	1476420411631	1476420411942	SHIFT	16
324329	3494318	But he added the list given was still incomplete.	But he added the list given was still incomplete.	166012415	1476420411839	1476420411945	B	66
324329	3494318	But he added the list given was still incomplete.	But he added the list given was still incomplete.	166012421	1476420412210	1476420412265	u	85
324329	3494318	But he added the list given was still incomplete.	But he added the list given was still incomplete.	166012424	1476420412328	1476420412418	t	84
324329	3494318	But he added the list given was still incomplete.	But he added the list given was still incomplete.	166012428	1476420412491	1476420412553	 	32
324329	3494318	But he added the list given was still incomplete.	But he added the list given was still incomplete.	166012432	1476420412820	1476420412869	h	72
324329	3494318	But he added the list given was still incomplete.	But he added the list given was still incomplete.	166012447	1476420413031	1476420413135	e	69
324329	3494318	But he added the list given was still incomplete.	But he added the list given was still incomplete.	166012452	1476420413372	1476420413425	 	32
324329	3494318	But he added the list given was still incomplete.	But he added the list given was still incomplete.	166012455	1476420413534	1476420413660	a	65
324329	3494318	But he added the list given was still incomplete.	But he added the list given was still incomplete.	166012458	1476420413753	1476420413827	d	68
324329	3494318	But he added the list given was still incomplete.	But he added the list given was still incomplete.	166012464	1476420413918	1476420413991	d	68
324329	3494318	But he added the list given was still incomplete.	But he added the list given was still incomplete.	166012484	1476420414094	1476420414183	e	69
324329	3494318	But he added the list given was still incomplete.	But he added the list given was still incomplete.	166012485	1476420414279	1476420414384	d	68
324329	3494318	But he added the list given was still incomplete.	But he added the list given was still incomplete.	166012487	1476420414458	1476420414531	 	32
324329	3494318	But he added the list given was still incomplete.	But he added the list given was still incomplete.	166012490	1476420414683	1476420414767	t	84
324329	3494318	But he added the list given was still incomplete.	But he added the list given was still incomplete.	166012492	1476420414825	1476420414883	h	72
324329	3494318	But he added the list given was still incomplete.	But he added the list given was still incomplete.	166012509	1476420414922	1476420415005	e	69
324329	3494318	But he added the list given was still incomplete.	But he added the list given was still incomplete.	166012511	1476420415073	1476420415141	 	32
324329	3494318	But he added the list given was still incomplete.	But he added the list given was still incomplete.	166012513	1476420415284	1476420415359	l	76
324329	3494318	But he added the list given was still incomplete.	But he added the list given was still incomplete.	166012515	1476420415490	1476420415546	i	73
324329	3494318	But he added the list given was still incomplete.	But he added the list given was still incomplete.	166012519	1476420415680	1476420415791	s	83
324329	3494318	But he added the list given was still incomplete.	But he added the list given was still incomplete.	166012543	1476420415897	1476420415970	t	84
324329	3494318	But he added the list given was still incomplete.	But he added the list given was still incomplete.	166012545	1476420416042	1476420416114	 	32
324329	3494318	But he added the list given was still incomplete.	But he added the list given was still incomplete.	166012546	1476420416266	1476420416331	g	71
324329	3494318	But he added the list given was still incomplete.	But he added the list given was still incomplete.	166012548	1476420416415	1476420416466	i	73
324329	3494318	But he added the list given was still incomplete.	But he added the list given was still incomplete.	166012552	1476420416607	1476420416704	v	86
324329	3494318	But he added the list given was still incomplete.	But he added the list given was still incomplete.	166012593	1476420416821	1476420416894	e	69
324329	3494318	But he added the list given was still incomplete.	But he added the list given was still incomplete.	166012596	1476420416961	1476420417024	n	78
324329	3494318	But he added the list given was still incomplete.	But he added the list given was still incomplete.	166012599	1476420417164	1476420417211	 	32
324329	3494318	But he added the list given was still incomplete.	But he added the list given was still incomplete.	166012603	1476420417311	1476420417426	w	87
324329	3494318	But he added the list given was still incomplete.	But he added the list given was still incomplete.	166012607	1476420417518	1476420417623	a	65
324329	3494318	But he added the list given was still incomplete.	But he added the list given was still incomplete.	166012619	1476420417718	1476420417811	s	83
324329	3494318	But he added the list given was still incomplete.	But he added the list given was still incomplete.	166012621	1476420417866	1476420417933	 	32
324329	3494318	But he added the list given was still incomplete.	But he added the list given was still incomplete.	166012624	1476420417977	1476420418080	s	83
324329	3494318	But he added the list given was still incomplete.	But he added the list given was still incomplete.	166012626	1476420418170	1476420418244	t	84
324329	3494318	But he added the list given was still incomplete.	But he added the list given was still incomplete.	166012627	1476420418314	1476420418378	i	73
324329	3494318	But he added the list given was still incomplete.	But he added the list given was still incomplete.	166012650	1476420418580	1476420418629	l	76
324329	3494318	But he added the list given was still incomplete.	But he added the list given was still incomplete.	166012652	1476420418699	1476420418753	l	76
324329	3494318	But he added the list given was still incomplete.	But he added the list given was still incomplete.	166012654	1476420418883	1476420418947	 	32
324329	3494318	But he added the list given was still incomplete.	But he added the list given was still incomplete.	166012656	1476420419032	1476420419102	i	73
324329	3494318	But he added the list given was still incomplete.	But he added the list given was still incomplete.	166012658	1476420419173	1476420419249	n	78
324329	3494318	But he added the list given was still incomplete.	But he added the list given was still incomplete.	166012681	1476420419328	1476420419435	c	67
324329	3494318	But he added the list given was still incomplete.	But he added the list given was still incomplete.	166012683	1476420419504	1476420419581	o	79
324329	3494318	But he added the list given was still incomplete.	But he added the list given was still incomplete.	166012686	1476420419684	1476420419760	m	77
324329	3494318	But he added the list given was still incomplete.	But he added the list given was still incomplete.	166012688	1476420419887	1476420419943	p	80
324329	3494318	But he added the list given was still incomplete.	But he added the list given was still incomplete.	166012690	1476420420074	1476420420138	l	76
324329	3494318	But he added the list given was still incomplete.	But he added the list given was still incomplete.	166012712	1476420420285	1476420420388	e	69
324329	3494318	But he added the list given was still incomplete.	But he added the list given was still incomplete.	166012713	1476420420508	1476420420585	t	84
324329	3494318	But he added the list given was still incomplete.	But he added the list given was still incomplete.	166012714	1476420420675	1476420420753	e	69
324329	3494318	But he added the list given was still incomplete.	But he added the list given was still incomplete.	166012715	1476420420861	1476420420947	.	190
324329	3494327	We will have some good detail by January 7.	We will have some good detail by January 7.	166012776	1476420422996	1476420423202	SHIFT	16
324329	3494327	We will have some good detail by January 7.	We will have some good detail by January 7.	166012778	1476420423140	1476420423252	W	87
324329	3494327	We will have some good detail by January 7.	We will have some good detail by January 7.	166012783	1476420423331	1476420423434	e	69
324329	3494327	We will have some good detail by January 7.	We will have some good detail by January 7.	166012787	1476420423521	1476420423604	 	32
324329	3494327	We will have some good detail by January 7.	We will have some good detail by January 7.	166012790	1476420423737	1476420423840	w	87
324329	3494327	We will have some good detail by January 7.	We will have some good detail by January 7.	166012793	1476420423914	1476420423995	i	73
324329	3494327	We will have some good detail by January 7.	We will have some good detail by January 7.	166012810	1476420424171	1476420424220	l	76
324329	3494327	We will have some good detail by January 7.	We will have some good detail by January 7.	166012814	1476420424309	1476420424371	l	76
324329	3494327	We will have some good detail by January 7.	We will have some good detail by January 7.	166012820	1476420424547	1476420424618	 	32
324329	3494327	We will have some good detail by January 7.	We will have some good detail by January 7.	166012826	1476420424737	1476420424794	h	72
324329	3494327	We will have some good detail by January 7.	We will have some good detail by January 7.	166012829	1476420424823	1476420424920	a	65
324329	3494327	We will have some good detail by January 7.	We will have some good detail by January 7.	166012837	1476420424907	1476420425032	v	86
324329	3494327	We will have some good detail by January 7.	We will have some good detail by January 7.	166012839	1476420425115	1476420425199	e	69
324329	3494327	We will have some good detail by January 7.	We will have some good detail by January 7.	166012841	1476420425241	1476420425292	 	32
324329	3494327	We will have some good detail by January 7.	We will have some good detail by January 7.	166012844	1476420425330	1476420425437	s	83
324329	3494327	We will have some good detail by January 7.	We will have some good detail by January 7.	166012848	1476420425445	1476420425507	o	79
324329	3494327	We will have some good detail by January 7.	We will have some good detail by January 7.	166012852	1476420425599	1476420425664	m	77
324329	3494327	We will have some good detail by January 7.	We will have some good detail by January 7.	166012858	1476420425689	1476420425755	e	69
324329	3494327	We will have some good detail by January 7.	We will have some good detail by January 7.	166012859	1476420425834	1476420425900	 	32
324329	3494327	We will have some good detail by January 7.	We will have some good detail by January 7.	166012860	1476420425971	1476420426056	g	71
324329	3494327	We will have some good detail by January 7.	We will have some good detail by January 7.	166012861	1476420426118	1476420426187	o	79
324329	3494327	We will have some good detail by January 7.	We will have some good detail by January 7.	166012863	1476420426265	1476420426325	o	79
324329	3494327	We will have some good detail by January 7.	We will have some good detail by January 7.	166012887	1476420426402	1476420426490	d	68
324329	3494327	We will have some good detail by January 7.	We will have some good detail by January 7.	166012888	1476420426573	1476420426645	 	32
324329	3494327	We will have some good detail by January 7.	We will have some good detail by January 7.	166012889	1476420427003	1476420427090	d	68
324329	3494327	We will have some good detail by January 7.	We will have some good detail by January 7.	166012890	1476420427233	1476420427338	e	69
324329	3494327	We will have some good detail by January 7.	We will have some good detail by January 7.	166012891	1476420427440	1476420427506	t	84
324329	3494327	We will have some good detail by January 7.	We will have some good detail by January 7.	166012910	1476420427641	1476420427737	a	65
324329	3494327	We will have some good detail by January 7.	We will have some good detail by January 7.	166012912	1476420427783	1476420427856	i	73
324329	3494327	We will have some good detail by January 7.	We will have some good detail by January 7.	166012914	1476420428034	1476420428106	l	76
324329	3494327	We will have some good detail by January 7.	We will have some good detail by January 7.	166012915	1476420428281	1476420428352	 	32
324329	3494327	We will have some good detail by January 7.	We will have some good detail by January 7.	166012916	1476420428474	1476420428538	b	66
324329	3494327	We will have some good detail by January 7.	We will have some good detail by January 7.	166012973	1476420428979	1476420429046	y	89
324329	3494327	We will have some good detail by January 7.	We will have some good detail by January 7.	166012976	1476420429482	1476420429554	 	32
324329	3494327	We will have some good detail by January 7.	We will have some good detail by January 7.	166012979	1476420429726	1476420430065	SHIFT	16
324329	3494327	We will have some good detail by January 7.	We will have some good detail by January 7.	166012983	1476420430038	1476420430102	J	74
324329	3494327	We will have some good detail by January 7.	We will have some good detail by January 7.	166012988	1476420430237	1476420430351	a	65
324329	3494327	We will have some good detail by January 7.	We will have some good detail by January 7.	166012991	1476420430392	1476420430475	n	78
324329	3494327	We will have some good detail by January 7.	We will have some good detail by January 7.	166013043	1476420430610	1476420430668	u	85
324329	3494327	We will have some good detail by January 7.	We will have some good detail by January 7.	166013046	1476420430729	1476420430840	a	65
324329	3494327	We will have some good detail by January 7.	We will have some good detail by January 7.	166013051	1476420430907	1476420431002	r	82
324329	3494327	We will have some good detail by January 7.	We will have some good detail by January 7.	166013055	1476420431185	1476420431241	y	89
324329	3494327	We will have some good detail by January 7.	We will have some good detail by January 7.	166013059	1476420431838	1476420431921	 	32
324329	3494327	We will have some good detail by January 7.	We will have some good detail by January 7.	166013115	1476420432871	1476420432904	7	55
324329	3494327	We will have some good detail by January 7.	We will have some good detail by January 7.	166013118	1476420433492	1476420433548	.	190
324329	3494336	If not can I call you?	If not can I call you?	166013215	1476420435627	1476420435968	SHIFT	16
324329	3494336	If not can I call you?	If not can I call you?	166013216	1476420435925	1476420435989	I	73
324329	3494336	If not can I call you?	If not can I call you?	166013218	1476420436058	1476420436143	f	70
324329	3494336	If not can I call you?	If not can I call you?	166013219	1476420436183	1476420436258	 	32
324329	3494336	If not can I call you?	If not can I call you?	166013220	1476420436367	1476420436423	n	78
324329	3494336	If not can I call you?	If not can I call you?	166013221	1476420436535	1476420436609	o	79
324329	3494336	If not can I call you?	If not can I call you?	166013249	1476420436639	1476420436722	t	84
324329	3494336	If not can I call you?	If not can I call you?	166013251	1476420436803	1476420436877	 	32
324329	3494336	If not can I call you?	If not can I call you?	166013256	1476420437115	1476420437200	c	67
324329	3494336	If not can I call you?	If not can I call you?	166013259	1476420437299	1476420437400	a	65
324329	3494336	If not can I call you?	If not can I call you?	166013261	1476420437417	1476420437490	n	78
324329	3494336	If not can I call you?	If not can I call you?	166013282	1476420437603	1476420437676	 	32
324329	3494336	If not can I call you?	If not can I call you?	166013285	1476420437779	1476420437996	SHIFT	16
324329	3494336	If not can I call you?	If not can I call you?	166013283	1476420437910	1476420437972	I	73
324329	3494336	If not can I call you?	If not can I call you?	166013287	1476420438183	1476420438253	 	32
324329	3494336	If not can I call you?	If not can I call you?	166013288	1476420438303	1476420438408	c	67
324329	3494336	If not can I call you?	If not can I call you?	166013290	1476420438462	1476420438553	a	65
324329	3494336	If not can I call you?	If not can I call you?	166013317	1476420438561	1476420438626	l	76
324329	3494336	If not can I call you?	If not can I call you?	166013321	1476420438710	1476420438773	l	76
324329	3494336	If not can I call you?	If not can I call you?	166013325	1476420438928	1476420439009	 	32
324329	3494336	If not can I call you?	If not can I call you?	166013328	1476420439218	1476420439290	y	89
324329	3494336	If not can I call you?	If not can I call you?	166013331	1476420439373	1476420439559	o	79
324329	3494336	If not can I call you?	If not can I call you?	166013348	1476420439487	1476420439567	u	85
324329	3494336	If not can I call you?	If not can I call you?	166013350	1476420439938	1476420440155	SHIFT	16
324329	3494336	If not can I call you?	If not can I call you?	166013351	1476420440087	1476420440180	?	191
324329	3494340	Let me know if you see any problems with this.	Let me know if you see any problems with this.	166013466	1476420442183	1476420442497	SHIFT	16
324329	3494340	Let me know if you see any problems with this.	Let me know if you see any problems with this.	166013468	1476420442622	1476420442920	SHIFT	16
324329	3494340	Let me know if you see any problems with this.	Let me know if you see any problems with this.	166013469	1476420442846	1476420442928	L	76
324329	3494340	Let me know if you see any problems with this.	Let me know if you see any problems with this.	166013471	1476420442963	1476420443059	e	69
324329	3494340	Let me know if you see any problems with this.	Let me know if you see any problems with this.	166013472	1476420443170	1476420443235	t	84
324329	3494340	Let me know if you see any problems with this.	Let me know if you see any problems with this.	166013474	1476420443290	1476420443356	 	32
324329	3494340	Let me know if you see any problems with this.	Let me know if you see any problems with this.	166013478	1476420443456	1476420443522	m	77
324329	3494340	Let me know if you see any problems with this.	Let me know if you see any problems with this.	166013497	1476420443561	1476420443646	e	69
324329	3494340	Let me know if you see any problems with this.	Let me know if you see any problems with this.	166013498	1476420443694	1476420443768	 	32
324329	3494340	Let me know if you see any problems with this.	Let me know if you see any problems with this.	166013499	1476420443870	1476420443991	k	75
324329	3494340	Let me know if you see any problems with this.	Let me know if you see any problems with this.	166013657	1476420443950	1476420447256	n	78
324329	3494340	Let me know if you see any problems with this.	Let me know if you see any problems with this.	166013500	1476420444122	1476420444194	o	79
324329	3494340	Let me know if you see any problems with this.	Let me know if you see any problems with this.	166013506	1476420444267	1476420444358	w	87
324329	3494340	Let me know if you see any problems with this.	Let me know if you see any problems with this.	166013508	1476420444470	1476420444566	 	32
324329	3494340	Let me know if you see any problems with this.	Let me know if you see any problems with this.	166013511	1476420444656	1476420444710	i	73
324329	3494340	Let me know if you see any problems with this.	Let me know if you see any problems with this.	166013514	1476420444760	1476420444839	f	70
324329	3494340	Let me know if you see any problems with this.	Let me know if you see any problems with this.	166013517	1476420444909	1476420444989	 	32
324329	3494340	Let me know if you see any problems with this.	Let me know if you see any problems with this.	166013549	1476420445124	1476420445188	y	89
324329	3494340	Let me know if you see any problems with this.	Let me know if you see any problems with this.	166013551	1476420445300	1476420445457	o	79
324329	3494340	Let me know if you see any problems with this.	Let me know if you see any problems with this.	166013553	1476420445384	1476420445464	u	85
324329	3494340	Let me know if you see any problems with this.	Let me know if you see any problems with this.	166013555	1476420445623	1476420445703	 	32
324329	3494340	Let me know if you see any problems with this.	Let me know if you see any problems with this.	166013558	1476420445753	1476420445869	a	65
324329	3494340	Let me know if you see any problems with this.	Let me know if you see any problems with this.	166013581	1476420446264	1476420446329	BKSP	8
324329	3494340	Let me know if you see any problems with this.	Let me know if you see any problems with this.	166013584	1476420446388	1476420446491	s	83
324329	3494340	Let me know if you see any problems with this.	Let me know if you see any problems with this.	166013587	1476420446604	1476420446686	e	69
324329	3494340	Let me know if you see any problems with this.	Let me know if you see any problems with this.	166013590	1476420446771	1476420446841	e	69
324329	3494340	Let me know if you see any problems with this.	Let me know if you see any problems with this.	166013592	1476420446945	1476420447033	 	32
324329	3494340	Let me know if you see any problems with this.	Let me know if you see any problems with this.	166013656	1476420447026	1476420447123	a	65
324329	3494340	Let me know if you see any problems with this.	Let me know if you see any problems with this.	166013658	1476420447361	1476420447429	y	89
324329	3494340	Let me know if you see any problems with this.	Let me know if you see any problems with this.	166013659	1476420447558	1476420447630	 	32
324329	3494340	Let me know if you see any problems with this.	Let me know if you see any problems with this.	166013660	1476420448052	1476420448120	BKSP	8
324329	3494340	Let me know if you see any problems with this.	Let me know if you see any problems with this.	166013661	1476420448219	1476420448271	BKSP	8
324329	3494340	Let me know if you see any problems with this.	Let me know if you see any problems with this.	166013662	1476420448361	1476420448414	BKSP	8
324329	3494340	Let me know if you see any problems with this.	Let me know if you see any problems with this.	166013663	1476420448799	1476420448910	a	65
324329	3494340	Let me know if you see any problems with this.	Let me know if you see any problems with this.	166013665	1476420448983	1476420449058	n	78
324329	3494340	Let me know if you see any problems with this.	Let me know if you see any problems with this.	166013668	1476420449182	1476420449236	y	89
324329	3494340	Let me know if you see any problems with this.	Let me know if you see any problems with this.	166013697	1476420449405	1476420449459	 	32
324329	3494340	Let me know if you see any problems with this.	Let me know if you see any problems with this.	166013700	1476420449845	1476420449907	p	80
324329	3494340	Let me know if you see any problems with this.	Let me know if you see any problems with this.	166013702	1476420449958	1476420450039	r	82
324329	3494340	Let me know if you see any problems with this.	Let me know if you see any problems with this.	166013705	1476420450234	1476420450285	o	79
324329	3494340	Let me know if you see any problems with this.	Let me know if you see any problems with this.	166013709	1476420450432	1476420450497	b	66
324329	3494340	Let me know if you see any problems with this.	Let me know if you see any problems with this.	166013733	1476420450610	1476420450672	l	76
324329	3494340	Let me know if you see any problems with this.	Let me know if you see any problems with this.	166013735	1476420450752	1476420450838	e	69
324329	3494340	Let me know if you see any problems with this.	Let me know if you see any problems with this.	166013738	1476420450938	1476420450994	m	77
324329	3494340	Let me know if you see any problems with this.	Let me know if you see any problems with this.	166013741	1476420451063	1476420451157	s	83
324329	3494340	Let me know if you see any problems with this.	Let me know if you see any problems with this.	166013744	1476420451290	1476420451353	 	32
324329	3494340	Let me know if you see any problems with this.	Let me know if you see any problems with this.	166013783	1476420451507	1476420451591	w	87
324329	3494340	Let me know if you see any problems with this.	Let me know if you see any problems with this.	166013785	1476420451663	1476420451736	i	73
324329	3494340	Let me know if you see any problems with this.	Let me know if you see any problems with this.	166013787	1476420451873	1476420451934	t	84
324329	3494340	Let me know if you see any problems with this.	Let me know if you see any problems with this.	166013789	1476420452003	1476420452057	h	72
324329	3494340	Let me know if you see any problems with this.	Let me know if you see any problems with this.	166013791	1476420452204	1476420452266	 	32
324329	3494340	Let me know if you see any problems with this.	Let me know if you see any problems with this.	166013821	1476420452312	1476420452368	t	84
324329	3494340	Let me know if you see any problems with this.	Let me know if you see any problems with this.	166013824	1476420452404	1476420452458	h	72
324329	3494340	Let me know if you see any problems with this.	Let me know if you see any problems with this.	166013827	1476420452522	1476420452608	i	73
324329	3494340	Let me know if you see any problems with this.	Let me know if you see any problems with this.	166013830	1476420452618	1476420452700	s	83
324329	3494340	Let me know if you see any problems with this.	Let me know if you see any problems with this.	166013833	1476420453269	1476420453332	.	190
324329	3494351	I will be out on Friday, but any other day is fine.	I will be out on Friday, but any other day is fine.	166013902	1476420455201	1476420455471	SHIFT	16
324329	3494351	I will be out on Friday, but any other day is fine.	I will be out on Friday, but any other day is fine.	166013899	1476420455399	1476420455463	I	73
324329	3494351	I will be out on Friday, but any other day is fine.	I will be out on Friday, but any other day is fine.	166013905	1476420455660	1476420455726	 	32
324329	3494351	I will be out on Friday, but any other day is fine.	I will be out on Friday, but any other day is fine.	166013908	1476420455749	1476420455856	w	87
324329	3494351	I will be out on Friday, but any other day is fine.	I will be out on Friday, but any other day is fine.	166013911	1476420455877	1476420455940	i	73
324329	3494351	I will be out on Friday, but any other day is fine.	I will be out on Friday, but any other day is fine.	166013916	1476420456155	1476420456219	l	76
324329	3494351	I will be out on Friday, but any other day is fine.	I will be out on Friday, but any other day is fine.	166013926	1476420456319	1476420456374	l	76
324329	3494351	I will be out on Friday, but any other day is fine.	I will be out on Friday, but any other day is fine.	166013927	1476420456568	1476420456633	 	32
324329	3494351	I will be out on Friday, but any other day is fine.	I will be out on Friday, but any other day is fine.	166013928	1476420456765	1476420456827	b	66
324329	3494351	I will be out on Friday, but any other day is fine.	I will be out on Friday, but any other day is fine.	166013930	1476420456892	1476420456991	e	69
324329	3494351	I will be out on Friday, but any other day is fine.	I will be out on Friday, but any other day is fine.	166013932	1476420457043	1476420457109	 	32
324329	3494351	I will be out on Friday, but any other day is fine.	I will be out on Friday, but any other day is fine.	166013948	1476420457221	1476420457344	o	79
324329	3494351	I will be out on Friday, but any other day is fine.	I will be out on Friday, but any other day is fine.	166013950	1476420457365	1476420457430	u	85
324329	3494351	I will be out on Friday, but any other day is fine.	I will be out on Friday, but any other day is fine.	166013951	1476420457545	1476420457603	r	82
324329	3494351	I will be out on Friday, but any other day is fine.	I will be out on Friday, but any other day is fine.	166013952	1476420457750	1476420457812	 	32
324329	3494351	I will be out on Friday, but any other day is fine.	I will be out on Friday, but any other day is fine.	166013953	1476420458214	1476420458268	BKSP	8
324329	3494351	I will be out on Friday, but any other day is fine.	I will be out on Friday, but any other day is fine.	166013954	1476420458349	1476420458421	BKSP	8
324329	3494351	I will be out on Friday, but any other day is fine.	I will be out on Friday, but any other day is fine.	166013956	1476420458564	1476420458651	t	84
324329	3494351	I will be out on Friday, but any other day is fine.	I will be out on Friday, but any other day is fine.	166013986	1476420458754	1476420458816	 	32
324329	3494351	I will be out on Friday, but any other day is fine.	I will be out on Friday, but any other day is fine.	166013987	1476420458937	1476420459021	o	79
324329	3494351	I will be out on Friday, but any other day is fine.	I will be out on Friday, but any other day is fine.	166013988	1476420459135	1476420459189	n	78
324329	3494351	I will be out on Friday, but any other day is fine.	I will be out on Friday, but any other day is fine.	166013989	1476420459309	1476420459383	 	32
324329	3494351	I will be out on Friday, but any other day is fine.	I will be out on Friday, but any other day is fine.	166014011	1476420459540	1476420459803	SHIFT	16
324329	3494351	I will be out on Friday, but any other day is fine.	I will be out on Friday, but any other day is fine.	166013990	1476420459713	1476420459790	F	70
324329	3494351	I will be out on Friday, but any other day is fine.	I will be out on Friday, but any other day is fine.	166014014	1476420459922	1476420460015	r	82
324329	3494351	I will be out on Friday, but any other day is fine.	I will be out on Friday, but any other day is fine.	166014017	1476420460201	1476420460245	i	73
324329	3494351	I will be out on Friday, but any other day is fine.	I will be out on Friday, but any other day is fine.	166014019	1476420460315	1476420460408	d	68
324329	3494351	I will be out on Friday, but any other day is fine.	I will be out on Friday, but any other day is fine.	166014023	1476420460482	1476420460586	a	65
324329	3494351	I will be out on Friday, but any other day is fine.	I will be out on Friday, but any other day is fine.	166014027	1476420460634	1476420460698	y	89
324329	3494351	I will be out on Friday, but any other day is fine.	I will be out on Friday, but any other day is fine.	166014063	1476420461286	1476420461342	,	188
324329	3494351	I will be out on Friday, but any other day is fine.	I will be out on Friday, but any other day is fine.	166014064	1476420461463	1476420461528	 	32
324329	3494351	I will be out on Friday, but any other day is fine.	I will be out on Friday, but any other day is fine.	166014065	1476420461721	1476420461787	b	66
324329	3494351	I will be out on Friday, but any other day is fine.	I will be out on Friday, but any other day is fine.	166014066	1476420461869	1476420461930	u	85
324329	3494351	I will be out on Friday, but any other day is fine.	I will be out on Friday, but any other day is fine.	166014067	1476420462046	1476420462116	t	84
324329	3494351	I will be out on Friday, but any other day is fine.	I will be out on Friday, but any other day is fine.	166014101	1476420462374	1476420462437	 	32
324329	3494351	I will be out on Friday, but any other day is fine.	I will be out on Friday, but any other day is fine.	166014102	1476420462652	1476420462780	a	65
324329	3494351	I will be out on Friday, but any other day is fine.	I will be out on Friday, but any other day is fine.	166014103	1476420462786	1476420462871	n	78
324329	3494351	I will be out on Friday, but any other day is fine.	I will be out on Friday, but any other day is fine.	166014104	1476420462987	1476420463047	y	89
324329	3494351	I will be out on Friday, but any other day is fine.	I will be out on Friday, but any other day is fine.	166014105	1476420463179	1476420463256	 	32
324329	3494351	I will be out on Friday, but any other day is fine.	I will be out on Friday, but any other day is fine.	166014120	1476420463376	1476420463432	o	79
324329	3494351	I will be out on Friday, but any other day is fine.	I will be out on Friday, but any other day is fine.	166014122	1476420463528	1476420463628	t	84
324329	3494351	I will be out on Friday, but any other day is fine.	I will be out on Friday, but any other day is fine.	166014126	1476420463676	1476420463730	h	72
324329	3494351	I will be out on Friday, but any other day is fine.	I will be out on Friday, but any other day is fine.	166014128	1476420463763	1476420463890	e	69
324329	3494351	I will be out on Friday, but any other day is fine.	I will be out on Friday, but any other day is fine.	166014130	1476420463897	1476420463981	r	82
324329	3494351	I will be out on Friday, but any other day is fine.	I will be out on Friday, but any other day is fine.	166014159	1476420464007	1476420464071	 	32
324329	3494351	I will be out on Friday, but any other day is fine.	I will be out on Friday, but any other day is fine.	166014161	1476420464143	1476420464249	d	68
324329	3494351	I will be out on Friday, but any other day is fine.	I will be out on Friday, but any other day is fine.	166014163	1476420464311	1476420464408	a	65
324329	3494351	I will be out on Friday, but any other day is fine.	I will be out on Friday, but any other day is fine.	166014164	1476420464600	1476420464671	 	32
324329	3494351	I will be out on Friday, but any other day is fine.	I will be out on Friday, but any other day is fine.	166014194	1476420464775	1476420464838	i	73
324329	3494351	I will be out on Friday, but any other day is fine.	I will be out on Friday, but any other day is fine.	166014196	1476420464887	1476420464971	s	83
324329	3494351	I will be out on Friday, but any other day is fine.	I will be out on Friday, but any other day is fine.	166014197	1476420465025	1476420465105	 	32
324329	3494351	I will be out on Friday, but any other day is fine.	I will be out on Friday, but any other day is fine.	166014200	1476420465197	1476420465287	f	70
324329	3494351	I will be out on Friday, but any other day is fine.	I will be out on Friday, but any other day is fine.	166014201	1476420465359	1476420465416	i	73
324329	3494351	I will be out on Friday, but any other day is fine.	I will be out on Friday, but any other day is fine.	166014229	1476420465538	1476420465604	n	78
324329	3494351	I will be out on Friday, but any other day is fine.	I will be out on Friday, but any other day is fine.	166014231	1476420465788	1476420465873	e	69
324329	3494351	I will be out on Friday, but any other day is fine.	I will be out on Friday, but any other day is fine.	166014233	1476420466078	1476420466150	.	190
324329	3494358	Hope all is well.	Hope all is well.	166014313	1476420468839	1476420469528	SHIFT	16
324329	3494358	Hope all is well.	Hope all is well.	166014316	1476420469449	1476420469542	H	72
324329	3494358	Hope all is well.	Hope all is well.	166014319	1476420469716	1476420469780	o	79
324329	3494358	Hope all is well.	Hope all is well.	166014322	1476420469896	1476420469956	p	80
324329	3494358	Hope all is well.	Hope all is well.	166014326	1476420470014	1476420470086	e	69
324329	3494358	Hope all is well.	Hope all is well.	166014327	1476420470175	1476420470238	 	32
324329	3494358	Hope all is well.	Hope all is well.	166014336	1476420470297	1476420470407	a	65
324329	3494358	Hope all is well.	Hope all is well.	166014339	1476420470465	1476420470527	l	76
324329	3494358	Hope all is well.	Hope all is well.	166014341	1476420470617	1476420470672	l	76
324329	3494358	Hope all is well.	Hope all is well.	166014343	1476420470796	1476420470866	 	32
324329	3494358	Hope all is well.	Hope all is well.	166014344	1476420470969	1476420471022	i	73
324329	3494358	Hope all is well.	Hope all is well.	166014365	1476420471079	1476420471169	s	83
324329	3494358	Hope all is well.	Hope all is well.	166014367	1476420471189	1476420471261	 	32
324329	3494358	Hope all is well.	Hope all is well.	166014369	1476420471376	1476420471486	w	87
324329	3494358	Hope all is well.	Hope all is well.	166014370	1476420471567	1476420471663	e	69
324329	3494358	Hope all is well.	Hope all is well.	166014371	1476420471769	1476420471828	l	76
324329	3494358	Hope all is well.	Hope all is well.	166014405	1476420471954	1476420472004	l	76
324329	3494358	Hope all is well.	Hope all is well.	166014407	1476420472635	1476420472692	.	190
324329	3494364	This is the neatest toy I have had.	This is the netest ty I have had.	166014520	1476420474529	1476420474841	SHIFT	16
324329	3494364	This is the neatest toy I have had.	This is the netest ty I have had.	166014522	1476420474789	1476420474872	T	84
324329	3494364	This is the neatest toy I have had.	This is the netest ty I have had.	166014524	1476420474992	1476420475046	h	72
324329	3494364	This is the neatest toy I have had.	This is the netest ty I have had.	166014528	1476420475172	1476420475242	i	73
324329	3494364	This is the neatest toy I have had.	This is the netest ty I have had.	166014532	1476420475292	1476420475392	s	83
324329	3494364	This is the neatest toy I have had.	This is the netest ty I have had.	166014536	1476420475448	1476420475503	 	32
324329	3494364	This is the neatest toy I have had.	This is the netest ty I have had.	166014543	1476420475600	1476420475667	i	73
324329	3494364	This is the neatest toy I have had.	This is the netest ty I have had.	166014544	1476420475698	1476420475801	s	83
324329	3494364	This is the neatest toy I have had.	This is the netest ty I have had.	166014545	1476420475834	1476420475905	 	32
324329	3494364	This is the neatest toy I have had.	This is the netest ty I have had.	166014607	1476420475969	1476420477769	t	84
324329	3494364	This is the neatest toy I have had.	This is the netest ty I have had.	166014546	1476420476041	1476420476101	h	72
324329	3494364	This is the neatest toy I have had.	This is the netest ty I have had.	166014574	1476420476217	1476420476310	e	69
324329	3494364	This is the neatest toy I have had.	This is the netest ty I have had.	166014576	1476420476403	1476420476487	 	32
324329	3494364	This is the neatest toy I have had.	This is the netest ty I have had.	166014577	1476420477084	1476420477149	n	78
324329	3494364	This is the neatest toy I have had.	This is the netest ty I have had.	166014578	1476420477190	1476420477293	e	69
324329	3494364	This is the neatest toy I have had.	This is the netest ty I have had.	166014579	1476420477384	1476420477489	a	65
324329	3494364	This is the neatest toy I have had.	This is the netest ty I have had.	166014609	1476420477904	1476420478003	e	69
324329	3494364	This is the neatest toy I have had.	This is the netest ty I have had.	166014611	1476420478104	1476420478203	s	83
324329	3494364	This is the neatest toy I have had.	This is the netest ty I have had.	166014613	1476420478314	1476420478369	t	84
324329	3494364	This is the neatest toy I have had.	This is the netest ty I have had.	166014615	1476420478448	1476420478524	 	32
324329	3494364	This is the neatest toy I have had.	This is the netest ty I have had.	166014616	1476420479124	1476420479195	t	84
324329	3494364	This is the neatest toy I have had.	This is the netest ty I have had.	166014664	1476420479474	1476420479539	o	79
324329	3494364	This is the neatest toy I have had.	This is the netest ty I have had.	166014666	1476420479816	1476420479877	 	32
324329	3494364	This is the neatest toy I have had.	This is the netest ty I have had.	166014667	1476420479953	1476420479993	s	83
324329	3494364	This is the neatest toy I have had.	This is the netest ty I have had.	166014668	1476420480346	1476420480406	BKSP	8
324329	3494364	This is the neatest toy I have had.	This is the netest ty I have had.	166014670	1476420480590	1476420480851	SHIFT	16
324329	3494364	This is the neatest toy I have had.	This is the netest ty I have had.	166014673	1476420480798	1476420480874	I	73
324329	3494364	This is the neatest toy I have had.	This is the netest ty I have had.	166014676	1476420481070	1476420481140	 	32
324329	3494364	This is the neatest toy I have had.	This is the netest ty I have had.	166014741	1476420481263	1476420481316	h	72
324329	3494364	This is the neatest toy I have had.	This is the netest ty I have had.	166014746	1476420481632	1476420481743	a	65
324329	3494364	This is the neatest toy I have had.	This is the netest ty I have had.	166014750	1476420482105	1476420482228	v	86
324329	3494364	This is the neatest toy I have had.	This is the netest ty I have had.	166014753	1476420482514	1476420482587	e	69
324329	3494364	This is the neatest toy I have had.	This is the netest ty I have had.	166014761	1476420482816	1476420482881	 	32
324329	3494364	This is the neatest toy I have had.	This is the netest ty I have had.	166014823	1476420483107	1476420483158	h	72
324329	3494364	This is the neatest toy I have had.	This is the netest ty I have had.	166014825	1476420483584	1476420483695	a	65
324329	3494364	This is the neatest toy I have had.	This is the netest ty I have had.	166014830	1476420483822	1476420483918	d	68
324329	3494364	This is the neatest toy I have had.	This is the netest ty I have had.	166014833	1476420484411	1476420484467	.	190
324329	3494375	I think that will help.	I think that will help.	166014914	1476420486498	1476420486915	SHIFT	16
324329	3494375	I think that will help.	I think that will help.	166014917	1476420486885	1476420486936	I	73
324329	3494375	I think that will help.	I think that will help.	166014920	1476420487115	1476420487193	 	32
324329	3494375	I think that will help.	I think that will help.	166014922	1476420487236	1476420487302	t	84
324329	3494375	I think that will help.	I think that will help.	166014924	1476420487325	1476420487389	h	72
324329	3494375	I think that will help.	I think that will help.	166014926	1476420487460	1476420487555	i	73
324329	3494375	I think that will help.	I think that will help.	166014945	1476420487598	1476420487689	n	78
324329	3494375	I think that will help.	I think that will help.	166014947	1476420487761	1476420487846	k	75
324329	3494375	I think that will help.	I think that will help.	166014949	1476420487917	1476420488009	 	32
324329	3494375	I think that will help.	I think that will help.	166014951	1476420488105	1476420488177	t	84
324329	3494375	I think that will help.	I think that will help.	166014953	1476420488225	1476420488280	h	72
324329	3494375	I think that will help.	I think that will help.	166014971	1476420488331	1476420488467	a	65
324329	3494375	I think that will help.	I think that will help.	166014972	1476420488475	1476420488568	t	84
324329	3494375	I think that will help.	I think that will help.	166014973	1476420488649	1476420488723	 	32
324329	3494375	I think that will help.	I think that will help.	166014974	1476420488792	1476420488888	w	87
324329	3494375	I think that will help.	I think that will help.	166014976	1476420488911	1476420488982	i	73
324329	3494375	I think that will help.	I think that will help.	166015016	1476420489147	1476420489191	l	76
324329	3494375	I think that will help.	I think that will help.	166015018	1476420489270	1476420489334	l	76
324329	3494375	I think that will help.	I think that will help.	166015020	1476420489487	1476420489543	 	32
324329	3494375	I think that will help.	I think that will help.	166015022	1476420489882	1476420489925	h	72
324329	3494375	I think that will help.	I think that will help.	166015025	1476420490006	1476420490098	e	69
324329	3494375	I think that will help.	I think that will help.	166015070	1476420490278	1476420490348	l	76
324329	3494375	I think that will help.	I think that will help.	166015072	1476420490443	1476420490503	p	80
324329	3494375	I think that will help.	I think that will help.	166015074	1476420490695	1476420490753	.	190
324329	3494379	New York's Supreme Court upheld a lower court decision.	New York's Supreme Court upheld a lower court decision.	166015178	1476420493057	1476420493451	SHIFT	16
324329	3494379	New York's Supreme Court upheld a lower court decision.	New York's Supreme Court upheld a lower court decision.	166015180	1476420493441	1476420493503	N	78
324329	3494379	New York's Supreme Court upheld a lower court decision.	New York's Supreme Court upheld a lower court decision.	166015184	1476420493565	1476420493661	e	69
324329	3494379	New York's Supreme Court upheld a lower court decision.	New York's Supreme Court upheld a lower court decision.	166015187	1476420494302	1476420494406	w	87
324329	3494379	New York's Supreme Court upheld a lower court decision.	New York's Supreme Court upheld a lower court decision.	166015190	1476420494641	1476420494703	 	32
324329	3494379	New York's Supreme Court upheld a lower court decision.	New York's Supreme Court upheld a lower court decision.	166015241	1476420494881	1476420495133	SHIFT	16
324329	3494379	New York's Supreme Court upheld a lower court decision.	New York's Supreme Court upheld a lower court decision.	166015192	1476420495054	1476420495127	Y	89
324329	3494379	New York's Supreme Court upheld a lower court decision.	New York's Supreme Court upheld a lower court decision.	166015243	1476420495223	1476420495298	o	79
324329	3494379	New York's Supreme Court upheld a lower court decision.	New York's Supreme Court upheld a lower court decision.	166015244	1476420495456	1476420495533	r	82
324329	3494379	New York's Supreme Court upheld a lower court decision.	New York's Supreme Court upheld a lower court decision.	166015245	1476420496275	1476420496338	k	75
324329	3494379	New York's Supreme Court upheld a lower court decision.	New York's Supreme Court upheld a lower court decision.	166015248	1476420496938	1476420497000	'	222
324329	3494379	New York's Supreme Court upheld a lower court decision.	New York's Supreme Court upheld a lower court decision.	166015251	1476420497064	1476420497176	s	83
324329	3494379	New York's Supreme Court upheld a lower court decision.	New York's Supreme Court upheld a lower court decision.	166015292	1476420497365	1476420497418	 	32
324329	3494379	New York's Supreme Court upheld a lower court decision.	New York's Supreme Court upheld a lower court decision.	166015294	1476420497553	1476420497802	SHIFT	16
324329	3494379	New York's Supreme Court upheld a lower court decision.	New York's Supreme Court upheld a lower court decision.	166015296	1476420497726	1476420497840	S	83
324329	3494379	New York's Supreme Court upheld a lower court decision.	New York's Supreme Court upheld a lower court decision.	166015298	1476420498126	1476420498181	u	85
324329	3494379	New York's Supreme Court upheld a lower court decision.	New York's Supreme Court upheld a lower court decision.	166015300	1476420498355	1476420498409	p	80
324329	3494379	New York's Supreme Court upheld a lower court decision.	New York's Supreme Court upheld a lower court decision.	166015303	1476420498529	1476420498616	r	82
324329	3494379	New York's Supreme Court upheld a lower court decision.	New York's Supreme Court upheld a lower court decision.	166015328	1476420498709	1476420498806	e	69
324329	3494379	New York's Supreme Court upheld a lower court decision.	New York's Supreme Court upheld a lower court decision.	166015330	1476420498922	1476420498997	m	77
324329	3494379	New York's Supreme Court upheld a lower court decision.	New York's Supreme Court upheld a lower court decision.	166015334	1476420499150	1476420499236	e	69
324329	3494379	New York's Supreme Court upheld a lower court decision.	New York's Supreme Court upheld a lower court decision.	166015336	1476420499330	1476420499410	 	32
324329	3494379	New York's Supreme Court upheld a lower court decision.	New York's Supreme Court upheld a lower court decision.	166015338	1476420499565	1476420499778	SHIFT	16
324329	3494379	New York's Supreme Court upheld a lower court decision.	New York's Supreme Court upheld a lower court decision.	166015380	1476420499698	1476420499793	C	67
324329	3494379	New York's Supreme Court upheld a lower court decision.	New York's Supreme Court upheld a lower court decision.	166015382	1476420499920	1476420500000	o	79
324329	3494379	New York's Supreme Court upheld a lower court decision.	New York's Supreme Court upheld a lower court decision.	166015384	1476420500126	1476420500185	u	85
324329	3494379	New York's Supreme Court upheld a lower court decision.	New York's Supreme Court upheld a lower court decision.	166015388	1476420500309	1476420500403	r	82
324329	3494379	New York's Supreme Court upheld a lower court decision.	New York's Supreme Court upheld a lower court decision.	166015392	1476420501274	1476420501365	t	84
324329	3494379	New York's Supreme Court upheld a lower court decision.	New York's Supreme Court upheld a lower court decision.	166015396	1476420501541	1476420501624	 	32
324329	3494379	New York's Supreme Court upheld a lower court decision.	New York's Supreme Court upheld a lower court decision.	166015421	1476420502098	1476420502151	u	85
324329	3494379	New York's Supreme Court upheld a lower court decision.	New York's Supreme Court upheld a lower court decision.	166015422	1476420502508	1476420502566	p	80
324329	3494379	New York's Supreme Court upheld a lower court decision.	New York's Supreme Court upheld a lower court decision.	166015423	1476420502811	1476420502866	h	72
324329	3494379	New York's Supreme Court upheld a lower court decision.	New York's Supreme Court upheld a lower court decision.	166015424	1476420502926	1476420503030	e	69
324329	3494379	New York's Supreme Court upheld a lower court decision.	New York's Supreme Court upheld a lower court decision.	166015425	1476420503090	1476420503170	l	76
324329	3494379	New York's Supreme Court upheld a lower court decision.	New York's Supreme Court upheld a lower court decision.	166015453	1476420503299	1476420503395	d	68
324329	3494379	New York's Supreme Court upheld a lower court decision.	New York's Supreme Court upheld a lower court decision.	166015455	1476420503506	1476420503571	 	32
324329	3494379	New York's Supreme Court upheld a lower court decision.	New York's Supreme Court upheld a lower court decision.	166015456	1476420503713	1476420503829	a	65
324329	3494379	New York's Supreme Court upheld a lower court decision.	New York's Supreme Court upheld a lower court decision.	166015459	1476420503887	1476420503964	 	32
324329	3494379	New York's Supreme Court upheld a lower court decision.	New York's Supreme Court upheld a lower court decision.	166015461	1476420504074	1476420504149	l	76
324329	3494379	New York's Supreme Court upheld a lower court decision.	New York's Supreme Court upheld a lower court decision.	166015499	1476420504240	1476420504298	o	79
324329	3494379	New York's Supreme Court upheld a lower court decision.	New York's Supreme Court upheld a lower court decision.	166015501	1476420504385	1476420504532	w	87
324329	3494379	New York's Supreme Court upheld a lower court decision.	New York's Supreme Court upheld a lower court decision.	166015502	1476420504580	1476420504701	e	69
324329	3494379	New York's Supreme Court upheld a lower court decision.	New York's Supreme Court upheld a lower court decision.	166015505	1476420504766	1476420504879	r	82
324329	3494379	New York's Supreme Court upheld a lower court decision.	New York's Supreme Court upheld a lower court decision.	166015508	1476420504963	1476420505019	 	32
324329	3494379	New York's Supreme Court upheld a lower court decision.	New York's Supreme Court upheld a lower court decision.	166015529	1476420505149	1476420505247	c	67
324329	3494379	New York's Supreme Court upheld a lower court decision.	New York's Supreme Court upheld a lower court decision.	166015531	1476420505278	1476420505380	o	79
324329	3494379	New York's Supreme Court upheld a lower court decision.	New York's Supreme Court upheld a lower court decision.	166015533	1476420505449	1476420505505	u	85
324329	3494379	New York's Supreme Court upheld a lower court decision.	New York's Supreme Court upheld a lower court decision.	166015535	1476420505627	1476420505740	r	82
324329	3494379	New York's Supreme Court upheld a lower court decision.	New York's Supreme Court upheld a lower court decision.	166015536	1476420505894	1476420505950	t	84
324329	3494379	New York's Supreme Court upheld a lower court decision.	New York's Supreme Court upheld a lower court decision.	166015560	1476420506105	1476420506168	 	32
324329	3494379	New York's Supreme Court upheld a lower court decision.	New York's Supreme Court upheld a lower court decision.	166015562	1476420506240	1476420506332	d	68
324329	3494379	New York's Supreme Court upheld a lower court decision.	New York's Supreme Court upheld a lower court decision.	166015564	1476420506436	1476420506530	e	69
324329	3494379	New York's Supreme Court upheld a lower court decision.	New York's Supreme Court upheld a lower court decision.	166015565	1476420506970	1476420507053	c	67
324329	3494379	New York's Supreme Court upheld a lower court decision.	New York's Supreme Court upheld a lower court decision.	166015566	1476420507312	1476420507357	i	73
324329	3494379	New York's Supreme Court upheld a lower court decision.	New York's Supreme Court upheld a lower court decision.	166015589	1476420507448	1476420507532	s	83
324329	3494379	New York's Supreme Court upheld a lower court decision.	New York's Supreme Court upheld a lower court decision.	166015591	1476420507792	1476420507841	i	73
324329	3494379	New York's Supreme Court upheld a lower court decision.	New York's Supreme Court upheld a lower court decision.	166015592	1476420507944	1476420508009	o	79
324329	3494379	New York's Supreme Court upheld a lower court decision.	New York's Supreme Court upheld a lower court decision.	166015593	1476420508133	1476420508195	n	78
324329	3494379	New York's Supreme Court upheld a lower court decision.	New York's Supreme Court upheld a lower court decision.	166015594	1476420508389	1476420508443	.	190
324329	3494392	Did we plan that?	Did we plan that?	166015671	1476420510510	1476420510777	SHIFT	16
324329	3494392	Did we plan that?	Did we plan that?	166015674	1476420510698	1476420510791	D	68
324329	3494392	Did we plan that?	Did we plan that?	166015676	1476420510912	1476420510976	i	73
324329	3494392	Did we plan that?	Did we plan that?	166015678	1476420511098	1476420511183	d	68
324329	3494392	Did we plan that?	Did we plan that?	166015681	1476420511330	1476420511391	 	32
324329	3494392	Did we plan that?	Did we plan that?	166015684	1476420511491	1476420511602	w	87
324329	3494392	Did we plan that?	Did we plan that?	166015706	1476420511659	1476420511754	e	69
324329	3494392	Did we plan that?	Did we plan that?	166015709	1476420511804	1476420511878	 	32
324329	3494392	Did we plan that?	Did we plan that?	166015717	1476420512023	1476420512095	p	80
324329	3494392	Did we plan that?	Did we plan that?	166015721	1476420512292	1476420512364	l	76
324329	3494392	Did we plan that?	Did we plan that?	166015725	1476420512426	1476420512528	a	65
324329	3494392	Did we plan that?	Did we plan that?	166015758	1476420512580	1476420512654	n	78
324329	3494392	Did we plan that?	Did we plan that?	166015761	1476420512778	1476420512861	 	32
324329	3494392	Did we plan that?	Did we plan that?	166015765	1476420512934	1476420513006	t	84
324329	3494392	Did we plan that?	Did we plan that?	166015768	1476420513045	1476420513099	h	72
324329	3494392	Did we plan that?	Did we plan that?	166015771	1476420513213	1476420513345	a	65
324329	3494392	Did we plan that?	Did we plan that?	166015795	1476420513399	1476420513489	t	84
324329	3494392	Did we plan that?	Did we plan that?	166015799	1476420513674	1476420513997	SHIFT	16
324329	3494392	Did we plan that?	Did we plan that?	166015803	1476420513934	1476420514036	?	191
324329	3494394	Can you help with this one?	Can you help with this one?	166015913	1476420516068	1476420516297	SHIFT	16
324329	3494394	Can you help with this one?	Can you help with this one?	166015916	1476420516253	1476420516366	C	67
324329	3494394	Can you help with this one?	Can you help with this one?	166015919	1476420516441	1476420516555	a	65
324329	3494394	Can you help with this one?	Can you help with this one?	166015922	1476420516563	1476420516646	n	78
324329	3494394	Can you help with this one?	Can you help with this one?	166015926	1476420516789	1476420516854	 	32
324329	3494394	Can you help with this one?	Can you help with this one?	166015930	1476420516996	1476420517029	SHIFT	16
324329	3494394	Can you help with this one?	Can you help with this one?	166015932	1476420517476	1476420517535	y	89
324329	3494394	Can you help with this one?	Can you help with this one?	166015954	1476420517637	1476420517804	o	79
324329	3494394	Can you help with this one?	Can you help with this one?	166015957	1476420517724	1476420517817	u	85
324329	3494394	Can you help with this one?	Can you help with this one?	166015961	1476420518051	1476420518131	 	32
324329	3494394	Can you help with this one?	Can you help with this one?	166015965	1476420518242	1476420518293	h	72
324329	3494394	Can you help with this one?	Can you help with this one?	166015967	1476420518393	1476420518479	e	69
324329	3494394	Can you help with this one?	Can you help with this one?	166015985	1476420518500	1476420518572	l	76
324329	3494394	Can you help with this one?	Can you help with this one?	166015987	1476420518669	1476420518736	p	80
324329	3494394	Can you help with this one?	Can you help with this one?	166015989	1476420518920	1476420518986	 	32
324329	3494394	Can you help with this one?	Can you help with this one?	166015991	1476420518984	1476420519100	w	87
324329	3494394	Can you help with this one?	Can you help with this one?	166015993	1476420519186	1476420519263	i	73
324329	3494394	Can you help with this one?	Can you help with this one?	166016011	1476420519396	1476420519471	t	84
324329	3494394	Can you help with this one?	Can you help with this one?	166016012	1476420519531	1476420519582	h	72
324329	3494394	Can you help with this one?	Can you help with this one?	166016014	1476420519725	1476420519791	 	32
324329	3494394	Can you help with this one?	Can you help with this one?	166016017	1476420519810	1476420519866	t	84
324329	3494394	Can you help with this one?	Can you help with this one?	166016020	1476420519915	1476420519988	h	72
324329	3494394	Can you help with this one?	Can you help with this one?	166016055	1476420520048	1476420520122	i	73
324329	3494394	Can you help with this one?	Can you help with this one?	166016058	1476420520155	1476420520249	s	83
324329	3494394	Can you help with this one?	Can you help with this one?	166016060	1476420520303	1476420520372	 	32
324329	3494394	Can you help with this one?	Can you help with this one?	166016061	1476420520474	1476420520546	o	79
324329	3494394	Can you help with this one?	Can you help with this one?	166016062	1476420520648	1476420520725	n	78
324329	3494394	Can you help with this one?	Can you help with this one?	166016088	1476420520756	1476420520857	e	69
324329	3494394	Can you help with this one?	Can you help with this one?	166016089	1476420521066	1476420521364	SHIFT	16
324329	3494394	Can you help with this one?	Can you help with this one?	166016090	1476420521271	1476420521380	?	191
