PARTICIPANT_ID	TEST_SECTION_ID	SENTENCE	USER_INPUT	KEYSTROKE_ID	PRESS_TIME	RELEASE_TIME	LETTER	KEYCODE
328014	3532008	I will not make the meeting at 1 PM.	I will not make the meeting at 1 PM.	167791687	1476465696099	1476465696414	SHIFT	16
328014	3532008	I will not make the meeting at 1 PM.	I will not make the meeting at 1 PM.	167791681	1476465696258	1476465696404	I	73
328014	3532008	I will not make the meeting at 1 PM.	I will not make the meeting at 1 PM.	167791693	1476465696399	1476465696555	 	32
328014	3532008	I will not make the meeting at 1 PM.	I will not make the meeting at 1 PM.	167791705	1476465696534	1476465696721	w	87
328014	3532008	I will not make the meeting at 1 PM.	I will not make the meeting at 1 PM.	167791699	1476465696622	1476465696705	i	73
328014	3532008	I will not make the meeting at 1 PM.	I will not make the meeting at 1 PM.	167791712	1476465696747	1476465696841	l	76
328014	3532008	I will not make the meeting at 1 PM.	I will not make the meeting at 1 PM.	167791738	1476465696865	1476465696948	l	76
328014	3532008	I will not make the meeting at 1 PM.	I will not make the meeting at 1 PM.	167791741	1476465697015	1476465697175	 	32
328014	3532008	I will not make the meeting at 1 PM.	I will not make the meeting at 1 PM.	167791745	1476465697226	1476465697334	n	78
328014	3532008	I will not make the meeting at 1 PM.	I will not make the meeting at 1 PM.	167791753	1476465697298	1476465697419	o	79
328014	3532008	I will not make the meeting at 1 PM.	I will not make the meeting at 1 PM.	167791771	1476465697387	1476465697554	t	84
328014	3532008	I will not make the meeting at 1 PM.	I will not make the meeting at 1 PM.	167791776	1476465697480	1476465697626	 	32
328014	3532008	I will not make the meeting at 1 PM.	I will not make the meeting at 1 PM.	167791780	1476465697605	1476465697725	m	77
328014	3532008	I will not make the meeting at 1 PM.	I will not make the meeting at 1 PM.	167791786	1476465697714	1476465697893	a	65
328014	3532008	I will not make the meeting at 1 PM.	I will not make the meeting at 1 PM.	167791793	1476465697845	1476465697943	k	75
328014	3532008	I will not make the meeting at 1 PM.	I will not make the meeting at 1 PM.	167791814	1476465697933	1476465698063	e	69
328014	3532008	I will not make the meeting at 1 PM.	I will not make the meeting at 1 PM.	167791823	1476465698026	1476465698152	 	32
328014	3532008	I will not make the meeting at 1 PM.	I will not make the meeting at 1 PM.	167791833	1476465698116	1476465698256	t	84
328014	3532008	I will not make the meeting at 1 PM.	I will not make the meeting at 1 PM.	167791842	1476465698200	1476465698288	h	72
328014	3532008	I will not make the meeting at 1 PM.	I will not make the meeting at 1 PM.	167791851	1476465698298	1476465698458	e	69
328014	3532008	I will not make the meeting at 1 PM.	I will not make the meeting at 1 PM.	167791885	1476465698368	1476465698546	 	32
328014	3532008	I will not make the meeting at 1 PM.	I will not make the meeting at 1 PM.	167791887	1476465698493	1476465698575	m	77
328014	3532008	I will not make the meeting at 1 PM.	I will not make the meeting at 1 PM.	167791888	1476465698605	1476465698699	e	69
328014	3532008	I will not make the meeting at 1 PM.	I will not make the meeting at 1 PM.	167791890	1476465698765	1476465698891	e	69
328014	3532008	I will not make the meeting at 1 PM.	I will not make the meeting at 1 PM.	167791893	1476465698932	1476465699078	t	84
328014	3532008	I will not make the meeting at 1 PM.	I will not make the meeting at 1 PM.	167791938	1476465699030	1476465699134	i	73
328014	3532008	I will not make the meeting at 1 PM.	I will not make the meeting at 1 PM.	167791943	1476465699145	1476465699244	n	78
328014	3532008	I will not make the meeting at 1 PM.	I will not make the meeting at 1 PM.	167791947	1476465699238	1476465699381	g	71
328014	3532008	I will not make the meeting at 1 PM.	I will not make the meeting at 1 PM.	167791951	1476465699291	1476465699475	 	32
328014	3532008	I will not make the meeting at 1 PM.	I will not make the meeting at 1 PM.	167791957	1476465699408	1476465699603	a	65
328014	3532008	I will not make the meeting at 1 PM.	I will not make the meeting at 1 PM.	167792016	1476465699560	1476465699718	t	84
328014	3532008	I will not make the meeting at 1 PM.	I will not make the meeting at 1 PM.	167792023	1476465699635	1476465699843	 	32
328014	3532008	I will not make the meeting at 1 PM.	I will not make the meeting at 1 PM.	167792033	1476465699790	1476465699953	1	49
328014	3532008	I will not make the meeting at 1 PM.	I will not make the meeting at 1 PM.	167792042	1476465699905	1476465700052	 	32
328014	3532008	I will not make the meeting at 1 PM.	I will not make the meeting at 1 PM.	167792086	1476465700142	1476465700790	SHIFT	16
328014	3532008	I will not make the meeting at 1 PM.	I will not make the meeting at 1 PM.	167792052	1476465700293	1476465700413	P	80
328014	3532008	I will not make the meeting at 1 PM.	I will not make the meeting at 1 PM.	167792061	1476465700522	1476465700634	M	77
328014	3532008	I will not make the meeting at 1 PM.	I will not make the meeting at 1 PM.	167792089	1476465701026	1476465701124	.	190
328014	3532019	On my way back.	On my way back.	167792323	1476465703395	1476465703658	SHIFT	16
328014	3532019	On my way back.	On my way back.	167792328	1476465703532	1476465703663	O	79
328014	3532019	On my way back.	On my way back.	167792334	1476465703699	1476465703785	 	78
328014	3532019	On my way back.	On my way back.	167792339	1476465704305	1476465704441	m	77
328014	3532019	On my way back.	On my way back.	167792402	1476465704430	1476465704576	y	89
328014	3532019	On my way back.	On my way back.	167792409	1476465704529	1476465704670	 	32
328014	3532019	On my way back.	On my way back.	167792415	1476465704664	1476465704785	w	87
328014	3532019	On my way back.	On my way back.	167792419	1476465704801	1476465704979	a	65
328014	3532019	On my way back.	On my way back.	167792423	1476465704910	1476465705067	y	89
328014	3532019	On my way back.	On my way back.	167792544	1476465705000	1476465705152	 	32
328014	3532019	On my way back.	On my way back.	167792553	1476465705222	1476465705383	b	66
328014	3532019	On my way back.	On my way back.	167792562	1476465705353	1476465705535	a	65
328014	3532019	On my way back.	On my way back.	167792573	1476465705583	1476465705720	c	67
328014	3532019	On my way back.	On my way back.	167792584	1476465705730	1476465705838	k	75
328014	3532019	On my way back.	On my way back.	167792595	1476465706099	1476465706245	SHIFT	16
328014	3532029	About 20 were Americans, but there were also Dutch and Swiss.	About 20 were Americans, but there were also Dutch and Swiss.	167792819	1476465708678	1476465708862	SHIFT	16
328014	3532029	About 20 were Americans, but there were also Dutch and Swiss.	About 20 were Americans, but there were also Dutch and Swiss.	167792830	1476465708763	1476465708883	A	65
328014	3532029	About 20 were Americans, but there were also Dutch and Swiss.	About 20 were Americans, but there were also Dutch and Swiss.	167792837	1476465708982	1476465709086	b	66
328014	3532029	About 20 were Americans, but there were also Dutch and Swiss.	About 20 were Americans, but there were also Dutch and Swiss.	167792842	1476465709080	1476465709230	o	79
328014	3532029	About 20 were Americans, but there were also Dutch and Swiss.	About 20 were Americans, but there were also Dutch and Swiss.	167792847	1476465709179	1476465709294	u	85
328014	3532029	About 20 were Americans, but there were also Dutch and Swiss.	About 20 were Americans, but there were also Dutch and Swiss.	167792931	1476465709251	1476465709418	t	84
328014	3532029	About 20 were Americans, but there were also Dutch and Swiss.	About 20 were Americans, but there were also Dutch and Swiss.	167792941	1476465709354	1476465709532	 	32
328014	3532029	About 20 were Americans, but there were also Dutch and Swiss.	About 20 were Americans, but there were also Dutch and Swiss.	167792950	1476465709568	1476465709683	3	50
328014	3532029	About 20 were Americans, but there were also Dutch and Swiss.	About 20 were Americans, but there were also Dutch and Swiss.	167792961	1476465710021	1476465710130	BKSP	8
328014	3532029	About 20 were Americans, but there were also Dutch and Swiss.	About 20 were Americans, but there were also Dutch and Swiss.	167792972	1476465710240	1476465710344	0	48
328014	3532029	About 20 were Americans, but there were also Dutch and Swiss.	About 20 were Americans, but there were also Dutch and Swiss.	167792983	1476465710349	1476465710524	 	32
328014	3532029	About 20 were Americans, but there were also Dutch and Swiss.	About 20 were Americans, but there were also Dutch and Swiss.	167793002	1476465710482	1476465710623	w	87
328014	3532029	About 20 were Americans, but there were also Dutch and Swiss.	About 20 were Americans, but there were also Dutch and Swiss.	167793007	1476465710698	1476465710845	e	69
328014	3532029	About 20 were Americans, but there were also Dutch and Swiss.	About 20 were Americans, but there were also Dutch and Swiss.	167793015	1476465710802	1476465710943	r	82
328014	3532029	About 20 were Americans, but there were also Dutch and Swiss.	About 20 were Americans, but there were also Dutch and Swiss.	167793027	1476465710933	1476465711090	e	69
328014	3532029	About 20 were Americans, but there were also Dutch and Swiss.	About 20 were Americans, but there were also Dutch and Swiss.	167793031	1476465711010	1476465711173	 	32
328014	3532029	About 20 were Americans, but there were also Dutch and Swiss.	About 20 were Americans, but there were also Dutch and Swiss.	167793076	1476465711114	1476465711255	a	65
328014	3532029	About 20 were Americans, but there were also Dutch and Swiss.	About 20 were Americans, but there were also Dutch and Swiss.	167793082	1476465711455	1476465711508	BKSP	8
328014	3532029	About 20 were Americans, but there were also Dutch and Swiss.	About 20 were Americans, but there were also Dutch and Swiss.	167793098	1476465711497	1476465711702	SHIFT	16
328014	3532029	About 20 were Americans, but there were also Dutch and Swiss.	About 20 were Americans, but there were also Dutch and Swiss.	167793089	1476465711583	1476465711692	A	65
328014	3532029	About 20 were Americans, but there were also Dutch and Swiss.	About 20 were Americans, but there were also Dutch and Swiss.	167793106	1476465711762	1476465711859	m	77
328014	3532029	About 20 were Americans, but there were also Dutch and Swiss.	About 20 were Americans, but there were also Dutch and Swiss.	167793114	1476465711852	1476465712033	e	69
328014	3532029	About 20 were Americans, but there were also Dutch and Swiss.	About 20 were Americans, but there were also Dutch and Swiss.	167793120	1476465711953	1476465712093	r	82
328014	3532029	About 20 were Americans, but there were also Dutch and Swiss.	About 20 were Americans, but there were also Dutch and Swiss.	167793179	1476465712081	1476465712183	i	73
328014	3532029	About 20 were Americans, but there were also Dutch and Swiss.	About 20 were Americans, but there were also Dutch and Swiss.	167793185	1476465712227	1476465712376	c	67
328014	3532029	About 20 were Americans, but there were also Dutch and Swiss.	About 20 were Americans, but there were also Dutch and Swiss.	167793193	1476465712339	1476465712474	a	65
328014	3532029	About 20 were Americans, but there were also Dutch and Swiss.	About 20 were Americans, but there were also Dutch and Swiss.	167793204	1476465712443	1476465712573	n	78
328014	3532029	About 20 were Americans, but there were also Dutch and Swiss.	About 20 were Americans, but there were also Dutch and Swiss.	167793214	1476465712608	1476465712773	s	83
328014	3532029	About 20 were Americans, but there were also Dutch and Swiss.	About 20 were Americans, but there were also Dutch and Swiss.	167793221	1476465713035	1476465713144	,	188
328014	3532029	About 20 were Americans, but there were also Dutch and Swiss.	About 20 were Americans, but there were also Dutch and Swiss.	167793265	1476465713123	1476465713237	 	32
328014	3532029	About 20 were Americans, but there were also Dutch and Swiss.	About 20 were Americans, but there were also Dutch and Swiss.	167793268	1476465713266	1476465713371	b	66
328014	3532029	About 20 were Americans, but there were also Dutch and Swiss.	About 20 were Americans, but there were also Dutch and Swiss.	167793272	1476465713339	1476465713464	u	85
328014	3532029	About 20 were Americans, but there were also Dutch and Swiss.	About 20 were Americans, but there were also Dutch and Swiss.	167793275	1476465713475	1476465713650	t	84
328014	3532029	About 20 were Americans, but there were also Dutch and Swiss.	About 20 were Americans, but there were also Dutch and Swiss.	167793276	1476465713557	1476465713714	 	32
328014	3532029	About 20 were Americans, but there were also Dutch and Swiss.	About 20 were Americans, but there were also Dutch and Swiss.	167793278	1476465713791	1476465713905	t	84
328014	3532029	About 20 were Americans, but there were also Dutch and Swiss.	About 20 were Americans, but there were also Dutch and Swiss.	167793328	1476465713879	1476465713981	h	72
328014	3532029	About 20 were Americans, but there were also Dutch and Swiss.	About 20 were Americans, but there were also Dutch and Swiss.	167793333	1476465713976	1476465714139	e	69
328014	3532029	About 20 were Americans, but there were also Dutch and Swiss.	About 20 were Americans, but there were also Dutch and Swiss.	167793340	1476465714091	1476465714220	r	82
328014	3532029	About 20 were Americans, but there were also Dutch and Swiss.	About 20 were Americans, but there were also Dutch and Swiss.	167793347	1476465714249	1476465714441	e	69
328014	3532029	About 20 were Americans, but there were also Dutch and Swiss.	About 20 were Americans, but there were also Dutch and Swiss.	167793353	1476465714338	1476465714524	 	32
328014	3532029	About 20 were Americans, but there were also Dutch and Swiss.	About 20 were Americans, but there were also Dutch and Swiss.	167793359	1476465714557	1476465714705	w	87
328014	3532029	About 20 were Americans, but there were also Dutch and Swiss.	About 20 were Americans, but there were also Dutch and Swiss.	167793381	1476465714710	1476465714883	e	69
328014	3532029	About 20 were Americans, but there were also Dutch and Swiss.	About 20 were Americans, but there were also Dutch and Swiss.	167793387	1476465714809	1476465714982	r	82
328014	3532029	About 20 were Americans, but there were also Dutch and Swiss.	About 20 were Americans, but there were also Dutch and Swiss.	167793393	1476465714977	1476465715177	e	69
328014	3532029	About 20 were Americans, but there were also Dutch and Swiss.	About 20 were Americans, but there were also Dutch and Swiss.	167793397	1476465715067	1476465715238	 	32
328014	3532029	About 20 were Americans, but there were also Dutch and Swiss.	About 20 were Americans, but there were also Dutch and Swiss.	167793453	1476465715185	1476465715354	a	65
328014	3532029	About 20 were Americans, but there were also Dutch and Swiss.	About 20 were Americans, but there were also Dutch and Swiss.	167793456	1476465715343	1476465715447	l	76
328014	3532029	About 20 were Americans, but there were also Dutch and Swiss.	About 20 were Americans, but there were also Dutch and Swiss.	167793458	1476465715477	1476465715653	s	83
328014	3532029	About 20 were Americans, but there were also Dutch and Swiss.	About 20 were Americans, but there were also Dutch and Swiss.	167793462	1476465715592	1476465715741	o	79
328014	3532029	About 20 were Americans, but there were also Dutch and Swiss.	About 20 were Americans, but there were also Dutch and Swiss.	167793468	1476465715701	1476465715871	 	32
328014	3532029	About 20 were Americans, but there were also Dutch and Swiss.	About 20 were Americans, but there were also Dutch and Swiss.	167793471	1476465716077	1476465716252	SHIFT	16
328014	3532029	About 20 were Americans, but there were also Dutch and Swiss.	About 20 were Americans, but there were also Dutch and Swiss.	167793490	1476465716162	1476465716300	D	68
328014	3532029	About 20 were Americans, but there were also Dutch and Swiss.	About 20 were Americans, but there were also Dutch and Swiss.	167793492	1476465716273	1476465716380	u	85
328014	3532029	About 20 were Americans, but there were also Dutch and Swiss.	About 20 were Americans, but there were also Dutch and Swiss.	167793494	1476465716386	1476465716501	t	84
328014	3532029	About 20 were Americans, but there were also Dutch and Swiss.	About 20 were Americans, but there were also Dutch and Swiss.	167793497	1476465716625	1476465716786	c	67
328014	3532029	About 20 were Americans, but there were also Dutch and Swiss.	About 20 were Americans, but there were also Dutch and Swiss.	167793500	1476465716739	1476465716836	h	72
328014	3532029	About 20 were Americans, but there were also Dutch and Swiss.	About 20 were Americans, but there were also Dutch and Swiss.	167793508	1476465716847	1476465716985	 	32
328014	3532029	About 20 were Americans, but there were also Dutch and Swiss.	About 20 were Americans, but there were also Dutch and Swiss.	167793579	1476465716955	1476465717095	a	65
328014	3532029	About 20 were Americans, but there were also Dutch and Swiss.	About 20 were Americans, but there were also Dutch and Swiss.	167793581	1476465717068	1476465717167	n	78
328014	3532029	About 20 were Americans, but there were also Dutch and Swiss.	About 20 were Americans, but there were also Dutch and Swiss.	167793583	1476465717199	1476465717332	s	83
328014	3532029	About 20 were Americans, but there were also Dutch and Swiss.	About 20 were Americans, but there were also Dutch and Swiss.	167793585	1476465717656	1476465717724	BKSP	8
328014	3532029	About 20 were Americans, but there were also Dutch and Swiss.	About 20 were Americans, but there were also Dutch and Swiss.	167793590	1476465717741	1476465717894	d	68
328014	3532029	About 20 were Americans, but there were also Dutch and Swiss.	About 20 were Americans, but there were also Dutch and Swiss.	167793593	1476465717827	1476465717973	 	32
328014	3532029	About 20 were Americans, but there were also Dutch and Swiss.	About 20 were Americans, but there were also Dutch and Swiss.	167793600	1476465718110	1476465718324	SHIFT	16
328014	3532029	About 20 were Americans, but there were also Dutch and Swiss.	About 20 were Americans, but there were also Dutch and Swiss.	167793667	1476465718271	1476465718376	S	83
328014	3532029	About 20 were Americans, but there were also Dutch and Swiss.	About 20 were Americans, but there were also Dutch and Swiss.	167793673	1476465718448	1476465718579	w	87
328014	3532029	About 20 were Americans, but there were also Dutch and Swiss.	About 20 were Americans, but there were also Dutch and Swiss.	167793679	1476465718518	1476465718632	i	73
328014	3532029	About 20 were Americans, but there were also Dutch and Swiss.	About 20 were Americans, but there were also Dutch and Swiss.	167793685	1476465718669	1476465718758	s	83
328014	3532029	About 20 were Americans, but there were also Dutch and Swiss.	About 20 were Americans, but there were also Dutch and Swiss.	167793693	1476465718825	1476465718988	s	83
328014	3532049	Now I know about them.	Now I know about them.	167793918	1476465721329	1476465721581	SHIFT	16
328014	3532049	Now I know about them.	Now I know about them.	167793920	1476465721481	1476465721586	N	78
328014	3532049	Now I know about them.	Now I know about them.	167793922	1476465721657	1476465721771	o	79
328014	3532049	Now I know about them.	Now I know about them.	167793924	1476465721742	1476465721901	w	87
328014	3532049	Now I know about them.	Now I know about them.	167793929	1476465721814	1476465721990	 	32
328014	3532049	Now I know about them.	Now I know about them.	167793946	1476465722006	1476465722230	SHIFT	16
328014	3532049	Now I know about them.	Now I know about them.	167793931	1476465722100	1476465722209	I	73
328014	3532049	Now I know about them.	Now I know about them.	167793951	1476465722198	1476465722350	 	32
328014	3532049	Now I know about them.	Now I know about them.	167793957	1476465722334	1476465722456	k	75
328014	3532049	Now I know about them.	Now I know about them.	167793961	1476465722482	1476465722599	n	78
328014	3532049	Now I know about them.	Now I know about them.	167793965	1476465722545	1476465722683	o	79
328014	3532049	Now I know about them.	Now I know about them.	167793967	1476465722614	1476465722755	w	87
328014	3532049	Now I know about them.	Now I know about them.	167793974	1476465722689	1476465722824	 	32
328014	3532049	Now I know about them.	Now I know about them.	167793976	1476465722873	1476465723015	a	65
328014	3532049	Now I know about them.	Now I know about them.	167793979	1476465722969	1476465723103	b	66
328014	3532049	Now I know about them.	Now I know about them.	167793984	1476465723046	1476465723177	o	79
328014	3532049	Now I know about them.	Now I know about them.	167793991	1476465723118	1476465723228	u	85
328014	3532049	Now I know about them.	Now I know about them.	167794022	1476465723217	1476465723374	t	84
328014	3532049	Now I know about them.	Now I know about them.	167794024	1476465723318	1476465723465	 	32
328014	3532049	Now I know about them.	Now I know about them.	167794028	1476465723437	1476465723590	t	84
328014	3532049	Now I know about them.	Now I know about them.	167794031	1476465723546	1476465723658	h	72
328014	3532049	Now I know about them.	Now I know about them.	167794036	1476465723670	1476465723859	e	69
328014	3532049	Now I know about them.	Now I know about them.	167794056	1476465723793	1476465723883	m	77
328014	3532061	However, he is expected to play in this week's game.	However, he is expected to play in this week's game.	167794234	1476465725757	1476465725954	SHIFT	16
328014	3532061	However, he is expected to play in this week's game.	However, he is expected to play in this week's game.	167794238	1476465725908	1476465725996	H	72
328014	3532061	However, he is expected to play in this week's game.	However, he is expected to play in this week's game.	167794242	1476465726069	1476465726173	o	79
328014	3532061	However, he is expected to play in this week's game.	However, he is expected to play in this week's game.	167794249	1476465726163	1476465726359	w	87
328014	3532061	However, he is expected to play in this week's game.	However, he is expected to play in this week's game.	167794254	1476465726293	1476465726423	e	69
328014	3532061	However, he is expected to play in this week's game.	However, he is expected to play in this week's game.	167794262	1476465726544	1476465726664	v	86
328014	3532061	However, he is expected to play in this week's game.	However, he is expected to play in this week's game.	167794300	1476465726734	1476465726921	e	69
328014	3532061	However, he is expected to play in this week's game.	However, he is expected to play in this week's game.	167794303	1476465726803	1476465726985	r	82
328014	3532061	However, he is expected to play in this week's game.	However, he is expected to play in this week's game.	167794305	1476465726964	1476465727089	,	188
328014	3532061	However, he is expected to play in this week's game.	However, he is expected to play in this week's game.	167794307	1476465726990	1476465727168	 	32
328014	3532061	However, he is expected to play in this week's game.	However, he is expected to play in this week's game.	167794308	1476465727242	1476465727343	h	72
328014	3532061	However, he is expected to play in this week's game.	However, he is expected to play in this week's game.	167794346	1476465727316	1476465727448	e	69
328014	3532061	However, he is expected to play in this week's game.	However, he is expected to play in this week's game.	167794349	1476465727379	1476465727531	 	32
328014	3532061	However, he is expected to play in this week's game.	However, he is expected to play in this week's game.	167794352	1476465727525	1476465727629	i	73
328014	3532061	However, he is expected to play in this week's game.	However, he is expected to play in this week's game.	167794356	1476465727613	1476465727776	s	83
328014	3532061	However, he is expected to play in this week's game.	However, he is expected to play in this week's game.	167794359	1476465727707	1476465727874	 	32
328014	3532061	However, he is expected to play in this week's game.	However, he is expected to play in this week's game.	167794421	1476465727821	1476465727936	e	69
328014	3532061	However, he is expected to play in this week's game.	However, he is expected to play in this week's game.	167794425	1476465728038	1476465728179	x	88
328014	3532061	However, he is expected to play in this week's game.	However, he is expected to play in this week's game.	167794430	1476465728226	1476465728333	p	80
328014	3532061	However, he is expected to play in this week's game.	However, he is expected to play in this week's game.	167794434	1476465728306	1476465728436	e	69
328014	3532061	However, he is expected to play in this week's game.	However, he is expected to play in this week's game.	167794436	1476465728511	1476465728631	c	67
328014	3532061	However, he is expected to play in this week's game.	However, he is expected to play in this week's game.	167794438	1476465728717	1476465728834	t	84
328014	3532061	However, he is expected to play in this week's game.	However, he is expected to play in this week's game.	167794463	1476465728839	1476465728939	e	69
328014	3532061	However, he is expected to play in this week's game.	However, he is expected to play in this week's game.	167794465	1476465729014	1476465729150	d	68
328014	3532061	However, he is expected to play in this week's game.	However, he is expected to play in this week's game.	167794474	1476465729110	1476465729254	 	32
328014	3532061	However, he is expected to play in this week's game.	However, he is expected to play in this week's game.	167794481	1476465729219	1476465729411	t	84
328014	3532061	However, he is expected to play in this week's game.	However, he is expected to play in this week's game.	167794508	1476465729363	1476465729477	o	79
328014	3532061	However, he is expected to play in this week's game.	However, he is expected to play in this week's game.	167794511	1476465729400	1476465729551	 	32
328014	3532061	However, he is expected to play in this week's game.	However, he is expected to play in this week's game.	167794515	1476465729578	1476465729688	p	80
328014	3532061	However, he is expected to play in this week's game.	However, he is expected to play in this week's game.	167794518	1476465729745	1476465729880	l	76
328014	3532061	However, he is expected to play in this week's game.	However, he is expected to play in this week's game.	167794522	1476465729886	1476465730100	a	65
328014	3532061	However, he is expected to play in this week's game.	However, he is expected to play in this week's game.	167794579	1476465729979	1476465730156	y	89
328014	3532061	However, he is expected to play in this week's game.	However, he is expected to play in this week's game.	167794584	1476465730068	1476465730277	 	32
328014	3532061	However, he is expected to play in this week's game.	However, he is expected to play in this week's game.	167794587	1476465730320	1476465730410	i	73
328014	3532061	However, he is expected to play in this week's game.	However, he is expected to play in this week's game.	167794591	1476465730455	1476465730564	n	78
328014	3532061	However, he is expected to play in this week's game.	However, he is expected to play in this week's game.	167794593	1476465730559	1476465730683	 	32
328014	3532061	However, he is expected to play in this week's game.	However, he is expected to play in this week's game.	167794596	1476465730666	1476465730817	t	84
328014	3532061	However, he is expected to play in this week's game.	However, he is expected to play in this week's game.	167794620	1476465730753	1476465730845	h	72
328014	3532061	However, he is expected to play in this week's game.	However, he is expected to play in this week's game.	167794627	1476465730806	1476465730983	i	73
328014	3532061	However, he is expected to play in this week's game.	However, he is expected to play in this week's game.	167794632	1476465730939	1476465731110	s	83
328014	3532061	However, he is expected to play in this week's game.	However, he is expected to play in this week's game.	167794639	1476465731016	1476465731200	 	32
328014	3532061	However, he is expected to play in this week's game.	However, he is expected to play in this week's game.	167794647	1476465731194	1476465731334	w	87
328014	3532061	However, he is expected to play in this week's game.	However, he is expected to play in this week's game.	167794655	1476465731367	1476465731464	e	69
328014	3532061	However, he is expected to play in this week's game.	However, he is expected to play in this week's game.	167794662	1476465731522	1476465731682	e	69
328014	3532061	However, he is expected to play in this week's game.	However, he is expected to play in this week's game.	167794722	1476465731665	1476465731789	k	75
328014	3532061	However, he is expected to play in this week's game.	However, he is expected to play in this week's game.	167794727	1476465731864	1476465732010	'	222
328014	3532061	However, he is expected to play in this week's game.	However, he is expected to play in this week's game.	167794733	1476465732058	1476465732236	s	83
328014	3532061	However, he is expected to play in this week's game.	However, he is expected to play in this week's game.	167794740	1476465732148	1476465732329	 	32
328014	3532061	However, he is expected to play in this week's game.	However, he is expected to play in this week's game.	167794745	1476465732421	1476465732546	g	71
328014	3532061	However, he is expected to play in this week's game.	However, he is expected to play in this week's game.	167794749	1476465732551	1476465732719	a	65
328014	3532061	However, he is expected to play in this week's game.	However, he is expected to play in this week's game.	167794776	1476465732677	1476465732784	m	77
328014	3532061	However, he is expected to play in this week's game.	However, he is expected to play in this week's game.	167794781	1476465732794	1476465733082	e	69
328014	3532061	However, he is expected to play in this week's game.	However, he is expected to play in this week's game.	167794791	1476465733045	1476465733156	.	190
328014	3532072	Scott is out most of this week on vacation and I'm out next week.	Scoot is out most of this week on vacation and I'm out next week.	167795022	1476465735527	1476465735750	SHIFT	16
328014	3532072	Scott is out most of this week on vacation and I'm out next week.	Scoot is out most of this week on vacation and I'm out next week.	167795024	1476465735678	1476465735838	S	83
328014	3532072	Scott is out most of this week on vacation and I'm out next week.	Scoot is out most of this week on vacation and I'm out next week.	167795026	1476465735811	1476465735958	c	67
328014	3532072	Scott is out most of this week on vacation and I'm out next week.	Scoot is out most of this week on vacation and I'm out next week.	167795029	1476465735989	1476465736064	o	79
328014	3532072	Scott is out most of this week on vacation and I'm out next week.	Scoot is out most of this week on vacation and I'm out next week.	167795032	1476465736122	1476465736237	o	79
328014	3532072	Scott is out most of this week on vacation and I'm out next week.	Scoot is out most of this week on vacation and I'm out next week.	167795085	1476465736232	1476465736402	t	84
328014	3532072	Scott is out most of this week on vacation and I'm out next week.	Scoot is out most of this week on vacation and I'm out next week.	167795089	1476465736314	1476465736484	 	32
328014	3532072	Scott is out most of this week on vacation and I'm out next week.	Scoot is out most of this week on vacation and I'm out next week.	167795094	1476465736580	1476465736660	i	73
328014	3532072	Scott is out most of this week on vacation and I'm out next week.	Scoot is out most of this week on vacation and I'm out next week.	167795100	1476465736686	1476465736826	s	83
328014	3532072	Scott is out most of this week on vacation and I'm out next week.	Scoot is out most of this week on vacation and I'm out next week.	167795105	1476465736821	1476465736972	 	32
328014	3532072	Scott is out most of this week on vacation and I'm out next week.	Scoot is out most of this week on vacation and I'm out next week.	167795111	1476465737003	1476465737139	o	79
328014	3532072	Scott is out most of this week on vacation and I'm out next week.	Scoot is out most of this week on vacation and I'm out next week.	167795148	1476465737097	1476465737236	u	85
328014	3532072	Scott is out most of this week on vacation and I'm out next week.	Scoot is out most of this week on vacation and I'm out next week.	167795155	1476465737199	1476465737365	t	84
328014	3532072	Scott is out most of this week on vacation and I'm out next week.	Scoot is out most of this week on vacation and I'm out next week.	167795160	1476465737269	1476465737423	 	32
328014	3532072	Scott is out most of this week on vacation and I'm out next week.	Scoot is out most of this week on vacation and I'm out next week.	167795166	1476465737452	1476465737554	m	77
328014	3532072	Scott is out most of this week on vacation and I'm out next week.	Scoot is out most of this week on vacation and I'm out next week.	167795168	1476465737585	1476465737721	o	79
328014	3532072	Scott is out most of this week on vacation and I'm out next week.	Scoot is out most of this week on vacation and I'm out next week.	167795198	1476465737670	1476465737878	s	83
328014	3532072	Scott is out most of this week on vacation and I'm out next week.	Scoot is out most of this week on vacation and I'm out next week.	167795201	1476465737786	1476465737961	t	84
328014	3532072	Scott is out most of this week on vacation and I'm out next week.	Scoot is out most of this week on vacation and I'm out next week.	167795203	1476465737852	1476465738056	 	32
328014	3532072	Scott is out most of this week on vacation and I'm out next week.	Scoot is out most of this week on vacation and I'm out next week.	167795206	1476465738050	1476465738159	o	79
328014	3532072	Scott is out most of this week on vacation and I'm out next week.	Scoot is out most of this week on vacation and I'm out next week.	167795208	1476465738149	1476465738314	f	70
328014	3532072	Scott is out most of this week on vacation and I'm out next week.	Scoot is out most of this week on vacation and I'm out next week.	167795223	1476465738250	1476465738391	 	32
328014	3532072	Scott is out most of this week on vacation and I'm out next week.	Scoot is out most of this week on vacation and I'm out next week.	167795226	1476465738401	1476465738537	t	84
328014	3532072	Scott is out most of this week on vacation and I'm out next week.	Scoot is out most of this week on vacation and I'm out next week.	167795229	1476465738463	1476465738553	h	72
328014	3532072	Scott is out most of this week on vacation and I'm out next week.	Scoot is out most of this week on vacation and I'm out next week.	167795233	1476465738505	1476465738673	i	73
328014	3532072	Scott is out most of this week on vacation and I'm out next week.	Scoot is out most of this week on vacation and I'm out next week.	167795237	1476465738646	1476465738778	s	83
328014	3532072	Scott is out most of this week on vacation and I'm out next week.	Scoot is out most of this week on vacation and I'm out next week.	167795260	1476465738714	1476465738901	 	32
328014	3532072	Scott is out most of this week on vacation and I'm out next week.	Scoot is out most of this week on vacation and I'm out next week.	167795265	1476465738850	1476465738986	w	87
328014	3532072	Scott is out most of this week on vacation and I'm out next week.	Scoot is out most of this week on vacation and I'm out next week.	167795270	1476465739019	1476465739082	e	69
328014	3532072	Scott is out most of this week on vacation and I'm out next week.	Scoot is out most of this week on vacation and I'm out next week.	167795274	1476465739146	1476465739304	e	69
328014	3532072	Scott is out most of this week on vacation and I'm out next week.	Scoot is out most of this week on vacation and I'm out next week.	167795279	1476465739255	1476465739356	k	75
328014	3532072	Scott is out most of this week on vacation and I'm out next week.	Scoot is out most of this week on vacation and I'm out next week.	167795307	1476465739350	1476465739504	 	32
328014	3532072	Scott is out most of this week on vacation and I'm out next week.	Scoot is out most of this week on vacation and I'm out next week.	167795310	1476465739483	1476465739612	o	79
328014	3532072	Scott is out most of this week on vacation and I'm out next week.	Scoot is out most of this week on vacation and I'm out next week.	167795313	1476465739580	1476465739694	n	78
328014	3532072	Scott is out most of this week on vacation and I'm out next week.	Scoot is out most of this week on vacation and I'm out next week.	167795315	1476465739660	1476465739775	 	32
328014	3532072	Scott is out most of this week on vacation and I'm out next week.	Scoot is out most of this week on vacation and I'm out next week.	167795319	1476465739863	1476465739973	v	86
328014	3532072	Scott is out most of this week on vacation and I'm out next week.	Scoot is out most of this week on vacation and I'm out next week.	167795375	1476465739957	1476465740077	a	65
328014	3532072	Scott is out most of this week on vacation and I'm out next week.	Scoot is out most of this week on vacation and I'm out next week.	167795379	1476465740130	1476465740239	c	67
328014	3532072	Scott is out most of this week on vacation and I'm out next week.	Scoot is out most of this week on vacation and I'm out next week.	167795382	1476465740414	1476465740553	a	65
328014	3532072	Scott is out most of this week on vacation and I'm out next week.	Scoot is out most of this week on vacation and I'm out next week.	167795386	1476465740659	1476465740820	t	84
328014	3532072	Scott is out most of this week on vacation and I'm out next week.	Scoot is out most of this week on vacation and I'm out next week.	167795389	1476465740759	1476465740961	i	73
328014	3532072	Scott is out most of this week on vacation and I'm out next week.	Scoot is out most of this week on vacation and I'm out next week.	167795410	1476465740825	1476465740971	o	79
328014	3532072	Scott is out most of this week on vacation and I'm out next week.	Scoot is out most of this week on vacation and I'm out next week.	167795413	1476465740913	1476465741060	n	78
328014	3532072	Scott is out most of this week on vacation and I'm out next week.	Scoot is out most of this week on vacation and I'm out next week.	167795419	1476465741001	1476465741148	 	32
328014	3532072	Scott is out most of this week on vacation and I'm out next week.	Scoot is out most of this week on vacation and I'm out next week.	167795423	1476465741142	1476465741310	a	65
328014	3532072	Scott is out most of this week on vacation and I'm out next week.	Scoot is out most of this week on vacation and I'm out next week.	167795427	1476465741278	1476465741367	n	78
328014	3532072	Scott is out most of this week on vacation and I'm out next week.	Scoot is out most of this week on vacation and I'm out next week.	167795430	1476465741351	1476465741473	d	68
328014	3532072	Scott is out most of this week on vacation and I'm out next week.	Scoot is out most of this week on vacation and I'm out next week.	167795505	1476465741426	1476465741565	 	32
328014	3532072	Scott is out most of this week on vacation and I'm out next week.	Scoot is out most of this week on vacation and I'm out next week.	167795506	1476465741532	1476465741710	SHIFT	16
328014	3532072	Scott is out most of this week on vacation and I'm out next week.	Scoot is out most of this week on vacation and I'm out next week.	167795509	1476465741645	1476465741771	I	73
328014	3532072	Scott is out most of this week on vacation and I'm out next week.	Scoot is out most of this week on vacation and I'm out next week.	167795510	1476465741858	1476465741978	'	222
328014	3532072	Scott is out most of this week on vacation and I'm out next week.	Scoot is out most of this week on vacation and I'm out next week.	167795511	1476465742057	1476465742166	m	77
328014	3532072	Scott is out most of this week on vacation and I'm out next week.	Scoot is out most of this week on vacation and I'm out next week.	167795512	1476465742191	1476465742339	 	32
328014	3532072	Scott is out most of this week on vacation and I'm out next week.	Scoot is out most of this week on vacation and I'm out next week.	167795513	1476465742408	1476465742539	o	79
328014	3532072	Scott is out most of this week on vacation and I'm out next week.	Scoot is out most of this week on vacation and I'm out next week.	167795573	1476465742501	1476465742611	u	85
328014	3532072	Scott is out most of this week on vacation and I'm out next week.	Scoot is out most of this week on vacation and I'm out next week.	167795579	1476465742574	1476465742740	t	84
328014	3532072	Scott is out most of this week on vacation and I'm out next week.	Scoot is out most of this week on vacation and I'm out next week.	167795585	1476465742648	1476465742796	 	32
328014	3532072	Scott is out most of this week on vacation and I'm out next week.	Scoot is out most of this week on vacation and I'm out next week.	167795590	1476465742901	1476465742989	n	78
328014	3532072	Scott is out most of this week on vacation and I'm out next week.	Scoot is out most of this week on vacation and I'm out next week.	167795595	1476465742999	1476465743124	e	69
328014	3532072	Scott is out most of this week on vacation and I'm out next week.	Scoot is out most of this week on vacation and I'm out next week.	167795599	1476465743284	1476465743466	x	88
328014	3532072	Scott is out most of this week on vacation and I'm out next week.	Scoot is out most of this week on vacation and I'm out next week.	167795630	1476465743563	1476465743728	t	84
328014	3532072	Scott is out most of this week on vacation and I'm out next week.	Scoot is out most of this week on vacation and I'm out next week.	167795636	1476465743601	1476465743755	 	32
328014	3532072	Scott is out most of this week on vacation and I'm out next week.	Scoot is out most of this week on vacation and I'm out next week.	167795640	1476465743738	1476465743882	w	87
328014	3532072	Scott is out most of this week on vacation and I'm out next week.	Scoot is out most of this week on vacation and I'm out next week.	167795646	1476465743968	1476465744059	e	69
328014	3532072	Scott is out most of this week on vacation and I'm out next week.	Scoot is out most of this week on vacation and I'm out next week.	167795651	1476465744133	1476465744272	e	69
328014	3532072	Scott is out most of this week on vacation and I'm out next week.	Scoot is out most of this week on vacation and I'm out next week.	167795676	1476465744221	1476465744334	k	75
328014	3532072	Scott is out most of this week on vacation and I'm out next week.	Scoot is out most of this week on vacation and I'm out next week.	167795683	1476465744508	1476465744620	.	190
328014	3532094	I think these will be just fine.	I think these will be just fine.	167795877	1476465746673	1476465746908	SHIFT	16
328014	3532094	I think these will be just fine.	I think these will be just fine.	167795874	1476465746794	1476465746892	I	73
328014	3532094	I think these will be just fine.	I think these will be just fine.	167795882	1476465746897	1476465747025	 	32
328014	3532094	I think these will be just fine.	I think these will be just fine.	167795890	1476465747130	1476465747293	t	84
328014	3532094	I think these will be just fine.	I think these will be just fine.	167795899	1476465747242	1476465747392	h	72
328014	3532094	I think these will be just fine.	I think these will be just fine.	167795946	1476465747324	1476465747440	i	73
328014	3532094	I think these will be just fine.	I think these will be just fine.	167795948	1476465747503	1476465747629	n	78
328014	3532094	I think these will be just fine.	I think these will be just fine.	167795952	1476465747573	1476465747728	k	75
328014	3532094	I think these will be just fine.	I think these will be just fine.	167795955	1476465747757	1476465747915	 	32
328014	3532094	I think these will be just fine.	I think these will be just fine.	167795957	1476465747945	1476465748075	t	84
328014	3532094	I think these will be just fine.	I think these will be just fine.	167796001	1476465748027	1476465748124	h	72
328014	3532094	I think these will be just fine.	I think these will be just fine.	167796002	1476465748112	1476465748232	e	69
328014	3532094	I think these will be just fine.	I think these will be just fine.	167796003	1476465748309	1476465748495	s	83
328014	3532094	I think these will be just fine.	I think these will be just fine.	167796004	1476465748444	1476465748642	e	69
328014	3532094	I think these will be just fine.	I think these will be just fine.	167796006	1476465748548	1476465748720	 	32
328014	3532094	I think these will be just fine.	I think these will be just fine.	167796070	1476465748688	1476465748845	w	87
328014	3532094	I think these will be just fine.	I think these will be just fine.	167796073	1476465748784	1476465748882	i	73
328014	3532094	I think these will be just fine.	I think these will be just fine.	167796077	1476465748928	1476465749003	l	76
328014	3532094	I think these will be just fine.	I think these will be just fine.	167796083	1476465749057	1476465749172	l	76
328014	3532094	I think these will be just fine.	I think these will be just fine.	167796089	1476465749134	1476465749286	 	32
328014	3532094	I think these will be just fine.	I think these will be just fine.	167796099	1476465749416	1476465749597	b	66
328014	3532094	I think these will be just fine.	I think these will be just fine.	167796121	1476465749657	1476465749828	e	69
328014	3532094	I think these will be just fine.	I think these will be just fine.	167796122	1476465749735	1476465749907	 	32
328014	3532094	I think these will be just fine.	I think these will be just fine.	167796125	1476465749918	1476465750003	j	74
328014	3532094	I think these will be just fine.	I think these will be just fine.	167796130	1476465750103	1476465750205	u	85
328014	3532094	I think these will be just fine.	I think these will be just fine.	167796179	1476465750157	1476465750349	s	83
328014	3532094	I think these will be just fine.	I think these will be just fine.	167796183	1476465750256	1476465750467	t	84
328014	3532094	I think these will be just fine.	I think these will be just fine.	167796186	1476465750336	1476465750514	 	32
328014	3532094	I think these will be just fine.	I think these will be just fine.	167796190	1476465750581	1476465750734	f	70
328014	3532094	I think these will be just fine.	I think these will be just fine.	167796194	1476465750671	1476465750800	i	73
328014	3532094	I think these will be just fine.	I think these will be just fine.	167796222	1476465750795	1476465750936	n	78
328014	3532094	I think these will be just fine.	I think these will be just fine.	167796225	1476465750904	1476465751118	e	69
328014	3532094	I think these will be just fine.	I think these will be just fine.	167796230	1476465751123	1476465751232	.	190
328014	3532103	The French diplomat meanwhile reiterated his condemnation.	The French diplomat meanwhile reiterated his condemnation.	167796401	1476465753064	1476465753329	SHIFT	16
328014	3532103	The French diplomat meanwhile reiterated his condemnation.	The French diplomat meanwhile reiterated his condemnation.	167796408	1476465753245	1476465753382	T	84
328014	3532103	The French diplomat meanwhile reiterated his condemnation.	The French diplomat meanwhile reiterated his condemnation.	167796412	1476465753422	1476465753523	h	72
328014	3532103	The French diplomat meanwhile reiterated his condemnation.	The French diplomat meanwhile reiterated his condemnation.	167796419	1476465753531	1476465753693	e	69
328014	3532103	The French diplomat meanwhile reiterated his condemnation.	The French diplomat meanwhile reiterated his condemnation.	167796429	1476465753611	1476465753779	 	32
328014	3532103	The French diplomat meanwhile reiterated his condemnation.	The French diplomat meanwhile reiterated his condemnation.	167796437	1476465753831	1476465754002	SHIFT	16
328014	3532103	The French diplomat meanwhile reiterated his condemnation.	The French diplomat meanwhile reiterated his condemnation.	167796467	1476465753897	1476465754013	F	70
328014	3532103	The French diplomat meanwhile reiterated his condemnation.	The French diplomat meanwhile reiterated his condemnation.	167796470	1476465754100	1476465754238	r	82
328014	3532103	The French diplomat meanwhile reiterated his condemnation.	The French diplomat meanwhile reiterated his condemnation.	167796477	1476465754191	1476465754358	e	69
328014	3532103	The French diplomat meanwhile reiterated his condemnation.	The French diplomat meanwhile reiterated his condemnation.	167796481	1476465754374	1476465754472	n	78
328014	3532103	The French diplomat meanwhile reiterated his condemnation.	The French diplomat meanwhile reiterated his condemnation.	167796487	1476465754513	1476465754658	c	67
328014	3532103	The French diplomat meanwhile reiterated his condemnation.	The French diplomat meanwhile reiterated his condemnation.	167796516	1476465754633	1476465754762	h	72
328014	3532103	The French diplomat meanwhile reiterated his condemnation.	The French diplomat meanwhile reiterated his condemnation.	167796519	1476465754772	1476465754884	 	32
328014	3532103	The French diplomat meanwhile reiterated his condemnation.	The French diplomat meanwhile reiterated his condemnation.	167796522	1476465754940	1476465755096	d	68
328014	3532103	The French diplomat meanwhile reiterated his condemnation.	The French diplomat meanwhile reiterated his condemnation.	167796527	1476465755018	1476465755122	i	73
328014	3532103	The French diplomat meanwhile reiterated his condemnation.	The French diplomat meanwhile reiterated his condemnation.	167796534	1476465755161	1476465755271	p	80
328014	3532103	The French diplomat meanwhile reiterated his condemnation.	The French diplomat meanwhile reiterated his condemnation.	167796538	1476465755339	1476465755427	l	76
328014	3532103	The French diplomat meanwhile reiterated his condemnation.	The French diplomat meanwhile reiterated his condemnation.	167796559	1476465755501	1476465755621	o	79
328014	3532103	The French diplomat meanwhile reiterated his condemnation.	The French diplomat meanwhile reiterated his condemnation.	167796565	1476465755668	1476465755777	m	77
328014	3532103	The French diplomat meanwhile reiterated his condemnation.	The French diplomat meanwhile reiterated his condemnation.	167796571	1476465755803	1476465755964	a	65
328014	3532103	The French diplomat meanwhile reiterated his condemnation.	The French diplomat meanwhile reiterated his condemnation.	167796575	1476465755898	1476465756070	t	84
328014	3532103	The French diplomat meanwhile reiterated his condemnation.	The French diplomat meanwhile reiterated his condemnation.	167796637	1476465755988	1476465756139	 	32
328014	3532103	The French diplomat meanwhile reiterated his condemnation.	The French diplomat meanwhile reiterated his condemnation.	167796641	1476465756234	1476465756366	m	77
328014	3532103	The French diplomat meanwhile reiterated his condemnation.	The French diplomat meanwhile reiterated his condemnation.	167796645	1476465756337	1476465756471	e	69
328014	3532103	The French diplomat meanwhile reiterated his condemnation.	The French diplomat meanwhile reiterated his condemnation.	167796650	1476465756449	1476465756613	a	65
328014	3532103	The French diplomat meanwhile reiterated his condemnation.	The French diplomat meanwhile reiterated his condemnation.	167796653	1476465756563	1476465756688	n	78
328014	3532103	The French diplomat meanwhile reiterated his condemnation.	The French diplomat meanwhile reiterated his condemnation.	167796657	1476465756737	1476465756894	w	87
328014	3532103	The French diplomat meanwhile reiterated his condemnation.	The French diplomat meanwhile reiterated his condemnation.	167796712	1476465756888	1476465757043	h	72
328014	3532103	The French diplomat meanwhile reiterated his condemnation.	The French diplomat meanwhile reiterated his condemnation.	167796717	1476465756969	1476465757144	i	73
328014	3532103	The French diplomat meanwhile reiterated his condemnation.	The French diplomat meanwhile reiterated his condemnation.	167796719	1476465757191	1476465757353	l	76
328014	3532103	The French diplomat meanwhile reiterated his condemnation.	The French diplomat meanwhile reiterated his condemnation.	167796721	1476465757299	1476465757487	e	69
328014	3532103	The French diplomat meanwhile reiterated his condemnation.	The French diplomat meanwhile reiterated his condemnation.	167796724	1476465757391	1476465757564	 	32
328014	3532103	The French diplomat meanwhile reiterated his condemnation.	The French diplomat meanwhile reiterated his condemnation.	167796729	1476465757604	1476465757773	r	82
328014	3532103	The French diplomat meanwhile reiterated his condemnation.	The French diplomat meanwhile reiterated his condemnation.	167796774	1476465757717	1476465757877	e	69
328014	3532103	The French diplomat meanwhile reiterated his condemnation.	The French diplomat meanwhile reiterated his condemnation.	167796776	1476465757950	1476465758071	i	73
328014	3532103	The French diplomat meanwhile reiterated his condemnation.	The French diplomat meanwhile reiterated his condemnation.	167796778	1476465758213	1476465758340	t	84
328014	3532103	The French diplomat meanwhile reiterated his condemnation.	The French diplomat meanwhile reiterated his condemnation.	167796779	1476465758366	1476465758578	e	69
328014	3532103	The French diplomat meanwhile reiterated his condemnation.	The French diplomat meanwhile reiterated his condemnation.	167796781	1476465758473	1476465758627	r	82
328014	3532103	The French diplomat meanwhile reiterated his condemnation.	The French diplomat meanwhile reiterated his condemnation.	167796815	1476465758675	1476465758836	a	65
328014	3532103	The French diplomat meanwhile reiterated his condemnation.	The French diplomat meanwhile reiterated his condemnation.	167796783	1476465758748	1476465758825	q	81
328014	3532103	The French diplomat meanwhile reiterated his condemnation.	The French diplomat meanwhile reiterated his condemnation.	167796820	1476465758785	1476465758934	t	84
328014	3532103	The French diplomat meanwhile reiterated his condemnation.	The French diplomat meanwhile reiterated his condemnation.	167796824	1476465758945	1476465759065	e	69
328014	3532103	The French diplomat meanwhile reiterated his condemnation.	The French diplomat meanwhile reiterated his condemnation.	167796828	1476465759136	1476465759280	d	68
328014	3532103	The French diplomat meanwhile reiterated his condemnation.	The French diplomat meanwhile reiterated his condemnation.	167796831	1476465759224	1476465759382	 	32
328014	3532103	The French diplomat meanwhile reiterated his condemnation.	The French diplomat meanwhile reiterated his condemnation.	167796833	1476465759406	1476465759520	h	72
328014	3532103	The French diplomat meanwhile reiterated his condemnation.	The French diplomat meanwhile reiterated his condemnation.	167797001	1476465759470	1476465759651	i	73
328014	3532103	The French diplomat meanwhile reiterated his condemnation.	The French diplomat meanwhile reiterated his condemnation.	167797003	1476465759558	1476465759776	s	83
328014	3532103	The French diplomat meanwhile reiterated his condemnation.	The French diplomat meanwhile reiterated his condemnation.	167797009	1476465759646	1476465759832	 	32
328014	3532103	The French diplomat meanwhile reiterated his condemnation.	The French diplomat meanwhile reiterated his condemnation.	167797013	1476465759960	1476465760043	BKSP	8
328014	3532103	The French diplomat meanwhile reiterated his condemnation.	The French diplomat meanwhile reiterated his condemnation.	167797019	1476465760105	1476465760161	BKSP	8
328014	3532103	The French diplomat meanwhile reiterated his condemnation.	The French diplomat meanwhile reiterated his condemnation.	167797027	1476465760228	1476465760295	BKSP	8
328014	3532103	The French diplomat meanwhile reiterated his condemnation.	The French diplomat meanwhile reiterated his condemnation.	167797036	1476465760355	1476465760422	BKSP	8
328014	3532103	The French diplomat meanwhile reiterated his condemnation.	The French diplomat meanwhile reiterated his condemnation.	167797048	1476465760492	1476465760556	BKSP	8
328014	3532103	The French diplomat meanwhile reiterated his condemnation.	The French diplomat meanwhile reiterated his condemnation.	167797057	1476465760620	1476465760694	BKSP	8
328014	3532103	The French diplomat meanwhile reiterated his condemnation.	The French diplomat meanwhile reiterated his condemnation.	167797067	1476465760747	1476465760835	BKSP	8
328014	3532103	The French diplomat meanwhile reiterated his condemnation.	The French diplomat meanwhile reiterated his condemnation.	167797076	1476465760892	1476465760969	BKSP	8
328014	3532103	The French diplomat meanwhile reiterated his condemnation.	The French diplomat meanwhile reiterated his condemnation.	167797079	1476465761026	1476465761119	BKSP	8
328014	3532103	The French diplomat meanwhile reiterated his condemnation.	The French diplomat meanwhile reiterated his condemnation.	167797082	1476465761284	1476465761389	a	65
328014	3532103	The French diplomat meanwhile reiterated his condemnation.	The French diplomat meanwhile reiterated his condemnation.	167797087	1476465761564	1476465761628	BKSP	8
328014	3532103	The French diplomat meanwhile reiterated his condemnation.	The French diplomat meanwhile reiterated his condemnation.	167797092	1476465761639	1476465761775	t	84
328014	3532103	The French diplomat meanwhile reiterated his condemnation.	The French diplomat meanwhile reiterated his condemnation.	167797096	1476465761780	1476465761852	e	69
328014	3532103	The French diplomat meanwhile reiterated his condemnation.	The French diplomat meanwhile reiterated his condemnation.	167797091	1476465762105	1476465762275	d	68
328014	3532103	The French diplomat meanwhile reiterated his condemnation.	The French diplomat meanwhile reiterated his condemnation.	167797094	1476465762219	1476465762416	 	32
328014	3532103	The French diplomat meanwhile reiterated his condemnation.	The French diplomat meanwhile reiterated his condemnation.	167797099	1476465762496	1476465762597	h	72
328014	3532103	The French diplomat meanwhile reiterated his condemnation.	The French diplomat meanwhile reiterated his condemnation.	167797103	1476465762544	1476465762729	i	73
328014	3532103	The French diplomat meanwhile reiterated his condemnation.	The French diplomat meanwhile reiterated his condemnation.	167797217	1476465762640	1476465762825	s	83
328014	3532103	The French diplomat meanwhile reiterated his condemnation.	The French diplomat meanwhile reiterated his condemnation.	167797220	1476465762718	1476465762857	 	32
328014	3532103	The French diplomat meanwhile reiterated his condemnation.	The French diplomat meanwhile reiterated his condemnation.	167797226	1476465762907	1476465763062	c	67
328014	3532103	The French diplomat meanwhile reiterated his condemnation.	The French diplomat meanwhile reiterated his condemnation.	167797228	1476465763001	1476465763150	o	79
328014	3532103	The French diplomat meanwhile reiterated his condemnation.	The French diplomat meanwhile reiterated his condemnation.	167797230	1476465763299	1476465763436	n	78
328014	3532103	The French diplomat meanwhile reiterated his condemnation.	The French diplomat meanwhile reiterated his condemnation.	167797232	1476465763661	1476465763743	d	68
328014	3532103	The French diplomat meanwhile reiterated his condemnation.	The French diplomat meanwhile reiterated his condemnation.	167797237	1476465763864	1476465764040	e	69
328014	3532103	The French diplomat meanwhile reiterated his condemnation.	The French diplomat meanwhile reiterated his condemnation.	167797258	1476465764125	1476465764247	m	77
328014	3532103	The French diplomat meanwhile reiterated his condemnation.	The French diplomat meanwhile reiterated his condemnation.	167797262	1476465764309	1476465764403	n	78
328014	3532103	The French diplomat meanwhile reiterated his condemnation.	The French diplomat meanwhile reiterated his condemnation.	167797266	1476465764460	1476465764614	a	65
328014	3532103	The French diplomat meanwhile reiterated his condemnation.	The French diplomat meanwhile reiterated his condemnation.	167797269	1476465764558	1476465764726	t	84
328014	3532103	The French diplomat meanwhile reiterated his condemnation.	The French diplomat meanwhile reiterated his condemnation.	167797303	1476465764646	1476465764843	i	73
328014	3532103	The French diplomat meanwhile reiterated his condemnation.	The French diplomat meanwhile reiterated his condemnation.	167797306	1476465764716	1476465764885	o	79
328014	3532103	The French diplomat meanwhile reiterated his condemnation.	The French diplomat meanwhile reiterated his condemnation.	167797309	1476465764816	1476465764921	n	78
328014	3532103	The French diplomat meanwhile reiterated his condemnation.	The French diplomat meanwhile reiterated his condemnation.	167797312	1476465765155	1476465765275	.	190
328014	3532124	New switches can also be added to the Paging System.	New switches can also be added to the Paging Syster.	167797504	1476465767888	1476465768106	SHIFT	16
328014	3532124	New switches can also be added to the Paging System.	New switches can also be added to the Paging Syster.	167797506	1476465768061	1476465768144	N	78
328014	3532124	New switches can also be added to the Paging System.	New switches can also be added to the Paging Syster.	167797508	1476465768189	1476465768290	e	69
328014	3532124	New switches can also be added to the Paging System.	New switches can also be added to the Paging Syster.	167797511	1476465768299	1476465768445	w	87
328014	3532124	New switches can also be added to the Paging System.	New switches can also be added to the Paging Syster.	167797514	1476465768384	1476465768538	 	32
328014	3532124	New switches can also be added to the Paging System.	New switches can also be added to the Paging Syster.	167797518	1476465768818	1476465768886	s	83
328014	3532124	New switches can also be added to the Paging System.	New switches can also be added to the Paging Syster.	167797590	1476465769098	1476465769229	w	87
328014	3532124	New switches can also be added to the Paging System.	New switches can also be added to the Paging Syster.	167797593	1476465769259	1476465769362	i	73
328014	3532124	New switches can also be added to the Paging System.	New switches can also be added to the Paging Syster.	167797595	1476465769445	1476465769576	t	84
328014	3532124	New switches can also be added to the Paging System.	New switches can also be added to the Paging Syster.	167797597	1476465769817	1476465769949	c	67
328014	3532124	New switches can also be added to the Paging System.	New switches can also be added to the Paging Syster.	167797639	1476465769922	1476465770006	h	72
328014	3532124	New switches can also be added to the Paging System.	New switches can also be added to the Paging Syster.	167797643	1476465770030	1476465770145	e	69
328014	3532124	New switches can also be added to the Paging System.	New switches can also be added to the Paging Syster.	167797649	1476465770190	1476465770395	s	83
328014	3532124	New switches can also be added to the Paging System.	New switches can also be added to the Paging Syster.	167797656	1476465770291	1476465770486	 	32
328014	3532124	New switches can also be added to the Paging System.	New switches can also be added to the Paging Syster.	167797660	1476465770659	1476465770821	c	67
328014	3532124	New switches can also be added to the Paging System.	New switches can also be added to the Paging Syster.	167797678	1476465770773	1476465770920	a	65
328014	3532124	New switches can also be added to the Paging System.	New switches can also be added to the Paging Syster.	167797685	1476465770843	1476465770984	n	78
328014	3532124	New switches can also be added to the Paging System.	New switches can also be added to the Paging Syster.	167797693	1476465770952	1476465771111	 	32
328014	3532124	New switches can also be added to the Paging System.	New switches can also be added to the Paging Syster.	167797701	1476465771074	1476465771208	a	65
328014	3532124	New switches can also be added to the Paging System.	New switches can also be added to the Paging Syster.	167797710	1476465771192	1476465771282	l	76
328014	3532124	New switches can also be added to the Paging System.	New switches can also be added to the Paging Syster.	167797720	1476465771315	1476465771499	s	83
328014	3532124	New switches can also be added to the Paging System.	New switches can also be added to the Paging Syster.	167797743	1476465771403	1476465771525	o	79
328014	3532124	New switches can also be added to the Paging System.	New switches can also be added to the Paging Syster.	167797746	1476465771456	1476465771610	 	32
328014	3532124	New switches can also be added to the Paging System.	New switches can also be added to the Paging Syster.	167797751	1476465771652	1476465771751	b	66
328014	3532124	New switches can also be added to the Paging System.	New switches can also be added to the Paging Syster.	167797756	1476465771822	1476465771967	e	69
328014	3532124	New switches can also be added to the Paging System.	New switches can also be added to the Paging Syster.	167797762	1476465771889	1476465772057	 	32
328014	3532124	New switches can also be added to the Paging System.	New switches can also be added to the Paging Syster.	167797763	1476465772046	1476465772186	a	65
328014	3532124	New switches can also be added to the Paging System.	New switches can also be added to the Paging Syster.	167797767	1476465772201	1476465772316	d	68
328014	3532124	New switches can also be added to the Paging System.	New switches can also be added to the Paging Syster.	167797787	1476465772369	1476465772452	d	68
328014	3532124	New switches can also be added to the Paging System.	New switches can also be added to the Paging Syster.	167797790	1476465772530	1476465772599	e	69
328014	3532124	New switches can also be added to the Paging System.	New switches can also be added to the Paging Syster.	167797793	1476465772682	1476465772809	d	68
328014	3532124	New switches can also be added to the Paging System.	New switches can also be added to the Paging Syster.	167797795	1476465772761	1476465772918	 	32
328014	3532124	New switches can also be added to the Paging System.	New switches can also be added to the Paging Syster.	167797825	1476465772902	1476465773070	t	84
328014	3532124	New switches can also be added to the Paging System.	New switches can also be added to the Paging Syster.	167797826	1476465773006	1476465773123	o	79
328014	3532124	New switches can also be added to the Paging System.	New switches can also be added to the Paging Syster.	167797828	1476465773075	1476465773234	 	32
328014	3532124	New switches can also be added to the Paging System.	New switches can also be added to the Paging Syster.	167797829	1476465773202	1476465773348	t	84
328014	3532124	New switches can also be added to the Paging System.	New switches can also be added to the Paging Syster.	167797830	1476465773294	1476465773393	h	72
328014	3532124	New switches can also be added to the Paging System.	New switches can also be added to the Paging Syster.	167797869	1476465773385	1476465773561	e	69
328014	3532124	New switches can also be added to the Paging System.	New switches can also be added to the Paging Syster.	167797873	1476465773468	1476465773654	 	32
328014	3532124	New switches can also be added to the Paging System.	New switches can also be added to the Paging Syster.	167797880	1476465773729	1476465773939	SHIFT	16
328014	3532124	New switches can also be added to the Paging System.	New switches can also be added to the Paging Syster.	167797884	1476465773860	1476465774013	P	80
328014	3532124	New switches can also be added to the Paging System.	New switches can also be added to the Paging Syster.	167797890	1476465774008	1476465774143	a	65
328014	3532124	New switches can also be added to the Paging System.	New switches can also be added to the Paging Syster.	167797897	1476465774117	1476465774268	g	71
328014	3532124	New switches can also be added to the Paging System.	New switches can also be added to the Paging Syster.	167797975	1476465774247	1476465774352	i	73
328014	3532124	New switches can also be added to the Paging System.	New switches can also be added to the Paging Syster.	167797977	1476465774383	1476465774471	n	78
328014	3532124	New switches can also be added to the Paging System.	New switches can also be added to the Paging Syster.	167797979	1476465774450	1476465774653	g	71
328014	3532124	New switches can also be added to the Paging System.	New switches can also be added to the Paging Syster.	167797981	1476465774570	1476465774736	 	32
328014	3532124	New switches can also be added to the Paging System.	New switches can also be added to the Paging Syster.	167797983	1476465774833	1476465775062	SHIFT	16
328014	3532124	New switches can also be added to the Paging System.	New switches can also be added to the Paging Syster.	167797987	1476465774953	1476465775083	S	83
328014	3532124	New switches can also be added to the Paging System.	New switches can also be added to the Paging Syster.	167797990	1476465775146	1476465775296	t	84
328014	3532124	New switches can also be added to the Paging System.	New switches can also be added to the Paging Syster.	167798060	1476465775614	1476465775688	BKSP	8
328014	3532124	New switches can also be added to the Paging System.	New switches can also be added to the Paging Syster.	167798063	1476465775791	1476465775921	y	89
328014	3532124	New switches can also be added to the Paging System.	New switches can also be added to the Paging Syster.	167798064	1476465775999	1476465776117	s	83
328014	3532124	New switches can also be added to the Paging System.	New switches can also be added to the Paging Syster.	167798065	1476465776208	1476465776356	t	84
328014	3532124	New switches can also be added to the Paging System.	New switches can also be added to the Paging Syster.	167798067	1476465776351	1476465776552	e	69
328014	3532124	New switches can also be added to the Paging System.	New switches can also be added to the Paging Syster.	167798073	1476465776458	1476465776615	r	82
328014	3532124	New switches can also be added to the Paging System.	New switches can also be added to the Paging Syster.	167798075	1476465776701	1476465776803	.	190
328014	3532142	Please let us know asap.	Please let us know asap.	167798282	1476465778626	1476465778829	SHIFT	16
328014	3532142	Please let us know asap.	Please let us know asap.	167798285	1476465778741	1476465778856	P	80
328014	3532142	Please let us know asap.	Please let us know asap.	167798287	1476465778986	1476465779034	e	69
328014	3532142	Please let us know asap.	Please let us know asap.	167798289	1476465779302	1476465779357	BKSP	8
328014	3532142	Please let us know asap.	Please let us know asap.	167798292	1476465779487	1476465779603	l	76
328014	3532142	Please let us know asap.	Please let us know asap.	167798294	1476465779660	1476465779790	e	69
328014	3532142	Please let us know asap.	Please let us know asap.	167798300	1476465779806	1476465779926	a	65
328014	3532142	Please let us know asap.	Please let us know asap.	167798316	1476465780000	1476465780197	s	83
328014	3532142	Please let us know asap.	Please let us know asap.	167798320	1476465780098	1476465780271	e	69
328014	3532142	Please let us know asap.	Please let us know asap.	167798326	1476465780157	1476465780386	 	32
328014	3532142	Please let us know asap.	Please let us know asap.	167798329	1476465780381	1476465780508	l	76
328014	3532142	Please let us know asap.	Please let us know asap.	167798366	1476465780481	1476465780663	e	69
328014	3532142	Please let us know asap.	Please let us know asap.	167798369	1476465780731	1476465780906	t	84
328014	3532142	Please let us know asap.	Please let us know asap.	167798372	1476465780829	1476465781000	 	32
328014	3532142	Please let us know asap.	Please let us know asap.	167798374	1476465781117	1476465781220	u	85
328014	3532142	Please let us know asap.	Please let us know asap.	167798377	1476465781226	1476465781373	s	83
328014	3532142	Please let us know asap.	Please let us know asap.	167798398	1476465781284	1476465781445	 	32
328014	3532142	Please let us know asap.	Please let us know asap.	167798403	1476465781471	1476465781590	k	75
328014	3532142	Please let us know asap.	Please let us know asap.	167798407	1476465781641	1476465781754	n	78
328014	3532142	Please let us know asap.	Please let us know asap.	167798413	1476465781694	1476465781844	o	79
328014	3532142	Please let us know asap.	Please let us know asap.	167798495	1476465781770	1476465781900	w	87
328014	3532142	Please let us know asap.	Please let us know asap.	167798498	1476465781834	1476465781994	 	32
328014	3532142	Please let us know asap.	Please let us know asap.	167798502	1476465782066	1476465782189	a	65
328014	3532142	Please let us know asap.	Please let us know asap.	167798505	1476465782235	1476465782365	s	83
328014	3532142	Please let us know asap.	Please let us know asap.	167798511	1476465782460	1476465782596	a	65
328014	3532142	Please let us know asap.	Please let us know asap.	167798519	1476465782580	1476465782634	p	80
328014	3532142	Please let us know asap.	Please let us know asap.	167798525	1476465783129	1476465783233	.	190
328014	3532148	The results were expected back Tuesday.	The results were expected back Tuesday.	167798661	1476465785017	1476465785208	SHIFT	16
328014	3532148	The results were expected back Tuesday.	The results were expected back Tuesday.	167798663	1476465785094	1476465785252	T	84
328014	3532148	The results were expected back Tuesday.	The results were expected back Tuesday.	167798665	1476465785224	1476465785323	h	72
328014	3532148	The results were expected back Tuesday.	The results were expected back Tuesday.	167798668	1476465785300	1476465785458	e	69
328014	3532148	The results were expected back Tuesday.	The results were expected back Tuesday.	167798671	1476465785381	1476465785571	 	32
328014	3532148	The results were expected back Tuesday.	The results were expected back Tuesday.	167798723	1476465785566	1476465785716	r	82
328014	3532148	The results were expected back Tuesday.	The results were expected back Tuesday.	167798725	1476465785662	1476465785821	e	69
328014	3532148	The results were expected back Tuesday.	The results were expected back Tuesday.	167798728	1476465785945	1476465786106	s	83
328014	3532148	The results were expected back Tuesday.	The results were expected back Tuesday.	167798732	1476465786038	1476465786134	l	76
328014	3532148	The results were expected back Tuesday.	The results were expected back Tuesday.	167798734	1476465786322	1476465786383	BKSP	8
328014	3532148	The results were expected back Tuesday.	The results were expected back Tuesday.	167798738	1476465786521	1476465786601	u	85
328014	3532148	The results were expected back Tuesday.	The results were expected back Tuesday.	167798741	1476465786669	1476465786799	l	76
328014	3532148	The results were expected back Tuesday.	The results were expected back Tuesday.	167798774	1476465786787	1476465786927	t	84
328014	3532148	The results were expected back Tuesday.	The results were expected back Tuesday.	167798778	1476465786990	1476465787111	s	83
328014	3532148	The results were expected back Tuesday.	The results were expected back Tuesday.	167798782	1476465787052	1476465787236	 	32
328014	3532148	The results were expected back Tuesday.	The results were expected back Tuesday.	167798785	1476465787186	1476465787353	w	87
328014	3532148	The results were expected back Tuesday.	The results were expected back Tuesday.	167798787	1476465787323	1476465787489	e	69
328014	3532148	The results were expected back Tuesday.	The results were expected back Tuesday.	167798839	1476465787428	1476465787566	r	82
328014	3532148	The results were expected back Tuesday.	The results were expected back Tuesday.	167798846	1476465787601	1476465787783	e	69
328014	3532148	The results were expected back Tuesday.	The results were expected back Tuesday.	167798852	1476465787690	1476465787873	 	32
328014	3532148	The results were expected back Tuesday.	The results were expected back Tuesday.	167798861	1476465787931	1476465788058	e	69
328014	3532148	The results were expected back Tuesday.	The results were expected back Tuesday.	167798868	1476465788183	1476465788345	x	88
328014	3532148	The results were expected back Tuesday.	The results were expected back Tuesday.	167798876	1476465788360	1476465788507	p	80
328014	3532148	The results were expected back Tuesday.	The results were expected back Tuesday.	167798931	1476465788464	1476465788579	e	69
328014	3532148	The results were expected back Tuesday.	The results were expected back Tuesday.	167798932	1476465788671	1476465788775	c	67
328014	3532148	The results were expected back Tuesday.	The results were expected back Tuesday.	167798937	1476465788863	1476465789007	t	84
328014	3532148	The results were expected back Tuesday.	The results were expected back Tuesday.	167798942	1476465788972	1476465789105	e	69
328014	3532148	The results were expected back Tuesday.	The results were expected back Tuesday.	167798946	1476465789167	1476465789297	d	68
328014	3532148	The results were expected back Tuesday.	The results were expected back Tuesday.	167798957	1476465789244	1476465789399	 	32
328014	3532148	The results were expected back Tuesday.	The results were expected back Tuesday.	167798958	1476465789389	1476465789498	b	66
328014	3532148	The results were expected back Tuesday.	The results were expected back Tuesday.	167798961	1476465789503	1476465789674	a	65
328014	3532148	The results were expected back Tuesday.	The results were expected back Tuesday.	167798964	1476465789612	1476465789777	c	67
328014	3532148	The results were expected back Tuesday.	The results were expected back Tuesday.	167798969	1476465789772	1476465789857	k	75
328014	3532148	The results were expected back Tuesday.	The results were expected back Tuesday.	167799073	1476465789815	1476465790021	e	69
328014	3532148	The results were expected back Tuesday.	The results were expected back Tuesday.	167799077	1476465789999	1476465790152	 	32
328014	3532148	The results were expected back Tuesday.	The results were expected back Tuesday.	167799081	1476465790279	1476465790345	BKSP	8
328014	3532148	The results were expected back Tuesday.	The results were expected back Tuesday.	167799086	1476465790392	1476465790473	BKSP	8
328014	3532148	The results were expected back Tuesday.	The results were expected back Tuesday.	167799092	1476465790598	1476465790729	 	32
328014	3532148	The results were expected back Tuesday.	The results were expected back Tuesday.	167799098	1476465790697	1476465790873	SHIFT	16
328014	3532148	The results were expected back Tuesday.	The results were expected back Tuesday.	167799102	1476465790801	1476465790953	T	84
328014	3532148	The results were expected back Tuesday.	The results were expected back Tuesday.	167799112	1476465790969	1476465791078	u	85
328014	3532148	The results were expected back Tuesday.	The results were expected back Tuesday.	167799132	1476465791057	1476465791260	s	83
328014	3532148	The results were expected back Tuesday.	The results were expected back Tuesday.	167799134	1476465791201	1476465791343	e	69
328014	3532148	The results were expected back Tuesday.	The results were expected back Tuesday.	167799139	1476465791689	1476465791751	BKSP	8
328014	3532148	The results were expected back Tuesday.	The results were expected back Tuesday.	167799144	1476465791795	1476465791861	BKSP	8
328014	3532148	The results were expected back Tuesday.	The results were expected back Tuesday.	167799152	1476465791843	1476465791971	e	69
328014	3532148	The results were expected back Tuesday.	The results were expected back Tuesday.	167799159	1476465792001	1476465792172	s	83
328014	3532148	The results were expected back Tuesday.	The results were expected back Tuesday.	167799167	1476465792220	1476465792343	d	68
328014	3532148	The results were expected back Tuesday.	The results were expected back Tuesday.	167799174	1476465792369	1476465792534	a	65
328014	3532148	The results were expected back Tuesday.	The results were expected back Tuesday.	167799173	1476465792457	1476465792642	y	89
328014	3532148	The results were expected back Tuesday.	The results were expected back Tuesday.	167799179	1476465792746	1476465792864	.	190
328014	3532159	Please set something up.	Please set something up.	167799354	1476465794676	1476465794871	SHIFT	16
328014	3532159	Please set something up.	Please set something up.	167799358	1476465794812	1476465794919	P	80
328014	3532159	Please set something up.	Please set something up.	167799361	1476465795149	1476465795259	l	76
328014	3532159	Please set something up.	Please set something up.	167799366	1476465795450	1476465795610	e	69
328014	3532159	Please set something up.	Please set something up.	167799372	1476465795605	1476465795773	a	65
328014	3532159	Please set something up.	Please set something up.	167799399	1476465795762	1476465795974	s	83
328014	3532159	Please set something up.	Please set something up.	167799403	1476465795860	1476465796073	e	69
328014	3532159	Please set something up.	Please set something up.	167799406	1476465795953	1476465796131	 	32
328014	3532159	Please set something up.	Please set something up.	167799410	1476465796172	1476465796328	s	83
328014	3532159	Please set something up.	Please set something up.	167799416	1476465796311	1476465796404	t	84
328014	3532159	Please set something up.	Please set something up.	167799421	1476465796603	1476465796668	BKSP	8
328014	3532159	Please set something up.	Please set something up.	167799433	1476465796657	1476465796867	e	69
328014	3532159	Please set something up.	Please set something up.	167799434	1476465796743	1476465796890	t	84
328014	3532159	Please set something up.	Please set something up.	167799437	1476465796809	1476465796945	 	32
328014	3532159	Please set something up.	Please set something up.	167799439	1476465796953	1476465797125	s	83
328014	3532159	Please set something up.	Please set something up.	167799441	1476465797020	1476465797153	o	79
328014	3532159	Please set something up.	Please set something up.	167799474	1476465797141	1476465797254	m	77
328014	3532159	Please set something up.	Please set something up.	167799476	1476465797227	1476465797402	e	69
328014	3532159	Please set something up.	Please set something up.	167799480	1476465797352	1476465797523	t	84
328014	3532159	Please set something up.	Please set something up.	167799485	1476465797648	1476465797761	h	72
328014	3532159	Please set something up.	Please set something up.	167799488	1476465797709	1476465797828	i	73
328014	3532159	Please set something up.	Please set something up.	167799491	1476465797856	1476465797964	n	78
328014	3532159	Please set something up.	Please set something up.	167799531	1476465797942	1476465798133	g	71
328014	3532159	Please set something up.	Please set something up.	167799537	1476465798007	1476465798160	 	32
328014	3532159	Please set something up.	Please set something up.	167799542	1476465798239	1476465798358	u	85
328014	3532159	Please set something up.	Please set something up.	167799544	1476465798316	1476465798457	p	80
328014	3532169	I can't seem to find it.	I can't seem to find it.	167799662	1476465801021	1476465801223	SHIFT	16
328014	3532169	I can't seem to find it.	I can't seem to find it.	167799663	1476465801141	1476465801249	I	73
328014	3532169	I can't seem to find it.	I can't seem to find it.	167799665	1476465801244	1476465801381	 	32
328014	3532169	I can't seem to find it.	I can't seem to find it.	167799668	1476465801317	1476465801512	c	67
328014	3532169	I can't seem to find it.	I can't seem to find it.	167799716	1476465801458	1476465801593	a	65
328014	3532169	I can't seem to find it.	I can't seem to find it.	167799721	1476465801501	1476465801644	n	78
328014	3532169	I can't seem to find it.	I can't seem to find it.	167799724	1476465801598	1476465801785	'	222
328014	3532169	I can't seem to find it.	I can't seem to find it.	167799728	1476465801779	1476465801950	t	84
328014	3532169	I can't seem to find it.	I can't seem to find it.	167799733	1476465801944	1476465802095	 	32
328014	3532169	I can't seem to find it.	I can't seem to find it.	167799738	1476465802190	1476465802322	s	83
328014	3532169	I can't seem to find it.	I can't seem to find it.	167799742	1476465802365	1476465802461	e	69
328014	3532169	I can't seem to find it.	I can't seem to find it.	167799753	1476465802519	1476465802697	e	69
328014	3532169	I can't seem to find it.	I can't seem to find it.	167799757	1476465802605	1476465802702	m	77
328014	3532169	I can't seem to find it.	I can't seem to find it.	167799760	1476465802691	1476465802817	 	32
328014	3532169	I can't seem to find it.	I can't seem to find it.	167799763	1476465802768	1476465802918	t	84
328014	3532169	I can't seem to find it.	I can't seem to find it.	167799778	1476465802867	1476465802990	o	79
328014	3532169	I can't seem to find it.	I can't seem to find it.	167799783	1476465802946	1476465803082	 	32
328014	3532169	I can't seem to find it.	I can't seem to find it.	167799789	1476465803048	1476465803201	f	70
328014	3532169	I can't seem to find it.	I can't seem to find it.	167799794	1476465803151	1476465803254	i	73
328014	3532169	I can't seem to find it.	I can't seem to find it.	167799798	1476465803270	1476465803373	n	78
328014	3532169	I can't seem to find it.	I can't seem to find it.	167799829	1476465803367	1476465803525	d	68
328014	3532169	I can't seem to find it.	I can't seem to find it.	167799831	1476465803445	1476465803617	 	32
328014	3532169	I can't seem to find it.	I can't seem to find it.	167799834	1476465803583	1476465803707	i	73
328014	3532169	I can't seem to find it.	I can't seem to find it.	167799837	1476465803758	1476465803931	t	84
328014	3532177	Ben could tell him about Pompano.	Ben could tell him about Pompano.	167800019	1476465806883	1476465807143	SHIFT	16
328014	3532177	Ben could tell him about Pompano.	Ben could tell him about Pompano.	167800016	1476465806947	1476465807132	B	66
328014	3532177	Ben could tell him about Pompano.	Ben could tell him about Pompano.	167800022	1476465807215	1476465807384	e	69
328014	3532177	Ben could tell him about Pompano.	Ben could tell him about Pompano.	167800026	1476465807464	1476465807551	n	78
328014	3532177	Ben could tell him about Pompano.	Ben could tell him about Pompano.	167800029	1476465807562	1476465807813	 	32
328014	3532177	Ben could tell him about Pompano.	Ben could tell him about Pompano.	167800068	1476465807791	1476465807922	o	79
328014	3532177	Ben could tell him about Pompano.	Ben could tell him about Pompano.	167800071	1476465808093	1476465808167	BKSP	8
328014	3532177	Ben could tell him about Pompano.	Ben could tell him about Pompano.	167800073	1476465808234	1476465808376	c	67
328014	3532177	Ben could tell him about Pompano.	Ben could tell him about Pompano.	167800075	1476465808349	1476465808490	o	79
328014	3532177	Ben could tell him about Pompano.	Ben could tell him about Pompano.	167800077	1476465808448	1476465808530	u	85
328014	3532177	Ben could tell him about Pompano.	Ben could tell him about Pompano.	167800079	1476465808598	1476465808730	l	76
328014	3532177	Ben could tell him about Pompano.	Ben could tell him about Pompano.	167800113	1476465808724	1476465808873	d	68
328014	3532177	Ben could tell him about Pompano.	Ben could tell him about Pompano.	167800114	1476465808786	1476465808948	 	32
328014	3532177	Ben could tell him about Pompano.	Ben could tell him about Pompano.	167800115	1476465808970	1476465809086	t	84
328014	3532177	Ben could tell him about Pompano.	Ben could tell him about Pompano.	167800116	1476465809112	1476465809235	e	69
328014	3532177	Ben could tell him about Pompano.	Ben could tell him about Pompano.	167800117	1476465809278	1476465809359	l	76
328014	3532177	Ben could tell him about Pompano.	Ben could tell him about Pompano.	167800118	1476465809411	1476465809547	l	76
328014	3532177	Ben could tell him about Pompano.	Ben could tell him about Pompano.	167800151	1476465809507	1476465809677	 	32
328014	3532177	Ben could tell him about Pompano.	Ben could tell him about Pompano.	167800154	1476465809656	1476465809776	h	72
328014	3532177	Ben could tell him about Pompano.	Ben could tell him about Pompano.	167800157	1476465809744	1476465809858	i	73
328014	3532177	Ben could tell him about Pompano.	Ben could tell him about Pompano.	167800161	1476465809910	1476465810015	m	77
328014	3532177	Ben could tell him about Pompano.	Ben could tell him about Pompano.	167800165	1476465810122	1476465810285	 	32
328014	3532177	Ben could tell him about Pompano.	Ben could tell him about Pompano.	167800201	1476465810274	1476465810420	a	65
328014	3532177	Ben could tell him about Pompano.	Ben could tell him about Pompano.	167800202	1476465810470	1476465810585	o	66
328014	3532177	Ben could tell him about Pompano.	Ben could tell him about Pompano.	167800205	1476465810606	1476465810762	u	85
328014	3532177	Ben could tell him about Pompano.	Ben could tell him about Pompano.	167800208	1476465810797	1476465810989	t	84
328014	3532177	Ben could tell him about Pompano.	Ben could tell him about Pompano.	167800257	1476465810901	1476465811090	 	32
328014	3532177	Ben could tell him about Pompano.	Ben could tell him about Pompano.	167800269	1476465811337	1476465811761	SHIFT	16
328014	3532177	Ben could tell him about Pompano.	Ben could tell him about Pompano.	167800262	1476465811611	1476465811755	P	80
328014	3532177	Ben could tell him about Pompano.	Ben could tell him about Pompano.	167800277	1476465811920	1476465812060	o	79
328014	3532177	Ben could tell him about Pompano.	Ben could tell him about Pompano.	167800287	1476465812122	1476465812247	m	77
328014	3532177	Ben could tell him about Pompano.	Ben could tell him about Pompano.	167800295	1476465812304	1476465812445	p	80
328014	3532177	Ben could tell him about Pompano.	Ben could tell him about Pompano.	167800320	1476465812424	1476465812591	a	65
328014	3532177	Ben could tell him about Pompano.	Ben could tell him about Pompano.	167800325	1476465812559	1476465812684	n	78
328014	3532177	Ben could tell him about Pompano.	Ben could tell him about Pompano.	167800331	1476465812746	1476465812866	o	79
328014	3532187	What number should he call you on?	What number should he call you on?	167800500	1476465815475	1476465815688	SHIFT	16
328014	3532187	What number should he call you on?	What number should he call you on?	167800505	1476465815611	1476465815768	W	87
328014	3532187	What number should he call you on?	What number should he call you on?	167800509	1476465815763	1476465815861	h	72
328014	3532187	What number should he call you on?	What number should he call you on?	167800514	1476465815856	1476465816024	a	65
328014	3532187	What number should he call you on?	What number should he call you on?	167800558	1476465815941	1476465816128	t	84
328014	3532187	What number should he call you on?	What number should he call you on?	167800563	1476465816019	1476465816202	 	32
328014	3532187	What number should he call you on?	What number should he call you on?	167800566	1476465816278	1476465816371	n	78
328014	3532187	What number should he call you on?	What number should he call you on?	167800573	1476465816473	1476465816578	u	85
328014	3532187	What number should he call you on?	What number should he call you on?	167800579	1476465816680	1476465816789	m	77
328014	3532187	What number should he call you on?	What number should he call you on?	167800626	1476465816830	1476465816902	b	86
328014	3532187	What number should he call you on?	What number should he call you on?	167800632	1476465817057	1476465817297	e	69
328014	3532187	What number should he call you on?	What number should he call you on?	167800639	1476465817266	1476465817325	 	32
328014	3532187	What number should he call you on?	What number should he call you on?	167800644	1476465817319	1476465817393	BKSP	8
328014	3532187	What number should he call you on?	What number should he call you on?	167800647	1476465817468	1476465817526	BKSP	8
328014	3532187	What number should he call you on?	What number should he call you on?	167800650	1476465817580	1476465817654	BKSP	8
328014	3532187	What number should he call you on?	What number should he call you on?	167800653	1476465817709	1476465817807	BKSP	8
328014	3532187	What number should he call you on?	What number should he call you on?	167800659	1476465817812	1476465817944	b	66
328014	3532187	What number should he call you on?	What number should he call you on?	167800667	1476465817960	1476465818165	e	69
328014	3532187	What number should he call you on?	What number should he call you on?	167800657	1476465818069	1476465818250	r	82
328014	3532187	What number should he call you on?	What number should he call you on?	167800662	1476465818142	1476465818300	 	32
328014	3532187	What number should he call you on?	What number should he call you on?	167800675	1476465818283	1476465818425	s	83
328014	3532187	What number should he call you on?	What number should he call you on?	167800669	1476465818322	1476465818385	 	32
328014	3532187	What number should he call you on?	What number should he call you on?	167800682	1476465818391	1476465818499	h	72
328014	3532187	What number should he call you on?	What number should he call you on?	167800687	1476465818471	1476465818635	o	79
328014	3532187	What number should he call you on?	What number should he call you on?	167800777	1476465818602	1476465818699	u	85
328014	3532187	What number should he call you on?	What number should he call you on?	167800780	1476465818765	1476465818838	l	76
328014	3532187	What number should he call you on?	What number should he call you on?	167800784	1476465818974	1476465819032	BKSP	8
328014	3532187	What number should he call you on?	What number should he call you on?	167800788	1476465819086	1476465819149	BKSP	8
328014	3532187	What number should he call you on?	What number should he call you on?	167800792	1476465819205	1476465819271	BKSP	8
328014	3532187	What number should he call you on?	What number should he call you on?	167800797	1476465819429	1476465819500	BKSP	8
328014	3532187	What number should he call you on?	What number should he call you on?	167800802	1476465819827	1476465819894	BKSP	8
328014	3532187	What number should he call you on?	What number should he call you on?	167800807	1476465820049	1476465820158	h	72
328014	3532187	What number should he call you on?	What number should he call you on?	167800815	1476465820121	1476465820297	o	79
328014	3532187	What number should he call you on?	What number should he call you on?	167800820	1476465820268	1476465820376	u	85
328014	3532187	What number should he call you on?	What number should he call you on?	167800826	1476465820430	1476465820550	l	76
328014	3532187	What number should he call you on?	What number should he call you on?	167800839	1476465820566	1476465820708	d	68
328014	3532187	What number should he call you on?	What number should he call you on?	167800844	1476465820645	1476465820817	 	32
328014	3532187	What number should he call you on?	What number should he call you on?	167800848	1476465820940	1476465821033	h	72
328014	3532187	What number should he call you on?	What number should he call you on?	167800851	1476465821028	1476465821188	e	69
328014	3532187	What number should he call you on?	What number should he call you on?	167800866	1476465821100	1476465821246	 	32
328014	3532187	What number should he call you on?	What number should he call you on?	167800870	1476465821309	1476465821434	c	67
328014	3532187	What number should he call you on?	What number should he call you on?	167800877	1476465821408	1476465821546	a	65
328014	3532187	What number should he call you on?	What number should he call you on?	167800873	1476465821439	1476465821514	l	76
328014	3532187	What number should he call you on?	What number should he call you on?	167800879	1476465821572	1476465821694	l	76
328014	3532187	What number should he call you on?	What number should he call you on?	167800920	1476465821672	1476465821815	 	32
328014	3532187	What number should he call you on?	What number should he call you on?	167800928	1476465821846	1476465821993	y	79
328014	3532187	What number should he call you on?	What number should he call you on?	167800935	1476465821947	1476465822092	u	85
328014	3532187	What number should he call you on?	What number should he call you on?	167800940	1476465822041	1476465822180	 	32
328014	3532187	What number should he call you on?	What number should he call you on?	167800942	1476465822227	1476465822358	o	79
328014	3532187	What number should he call you on?	What number should he call you on?	167801024	1476465822510	1476465822567	BKSP	8
328014	3532187	What number should he call you on?	What number should he call you on?	167801026	1476465822634	1476465822692	BKSP	8
328014	3532187	What number should he call you on?	What number should he call you on?	167801031	1476465822754	1476465822818	BKSP	8
328014	3532187	What number should he call you on?	What number should he call you on?	167801036	1476465822881	1476465822945	BKSP	8
328014	3532187	What number should he call you on?	What number should he call you on?	167801042	1476465823005	1476465823103	BKSP	8
328014	3532187	What number should he call you on?	What number should he call you on?	167801049	1476465823219	1476465823340	y	89
328014	3532187	What number should he call you on?	What number should he call you on?	167801054	1476465823287	1476465823438	o	79
328014	3532187	What number should he call you on?	What number should he call you on?	167801059	1476465823387	1476465823497	u	85
328014	3532187	What number should he call you on?	What number should he call you on?	167801064	1476465823560	1476465823696	 	32
328014	3532187	What number should he call you on?	What number should he call you on?	167801068	1476465823741	1476465823884	o	79
328014	3532187	What number should he call you on?	What number should he call you on?	167801066	1476465823836	1476465823937	n	78
328014	3532187	What number should he call you on?	What number should he call you on?	167801069	1476465824204	1476465824391	SHIFT	16
