PARTICIPANT_ID	TEST_SECTION_ID	SENTENCE	USER_INPUT	KEYSTROKE_ID	PRESS_TIME	RELEASE_TIME	LETTER	KEYCODE
328282	3534978	I would like to be on the list if possible.	I would like to be on the list if possible.	167931338	1476467867758	1476467868244	SHIFT	16
328282	3534978	I would like to be on the list if possible.	I would like to be on the list if possible.	167931339	1476467868137	1476467868270	I	73
328282	3534978	I would like to be on the list if possible.	I would like to be on the list if possible.	167931340	1476467868322	1476467868478	 	32
328282	3534978	I would like to be on the list if possible.	I would like to be on the list if possible.	167931341	1476467868518	1476467868721	w	87
328282	3534978	I would like to be on the list if possible.	I would like to be on the list if possible.	167931342	1476467868646	1476467868842	o	79
328282	3534978	I would like to be on the list if possible.	I would like to be on the list if possible.	167931343	1476467868852	1476467868998	u	85
328282	3534978	I would like to be on the list if possible.	I would like to be on the list if possible.	167931411	1476467869058	1476467869213	l	76
328282	3534978	I would like to be on the list if possible.	I would like to be on the list if possible.	167931413	1476467869198	1476467869389	d	68
328282	3534978	I would like to be on the list if possible.	I would like to be on the list if possible.	167931415	1476467869273	1476467869458	 	32
328282	3534978	I would like to be on the list if possible.	I would like to be on the list if possible.	167931417	1476467869557	1476467869727	l	76
328282	3534978	I would like to be on the list if possible.	I would like to be on the list if possible.	167931421	1476467869991	1476467870115	i	73
328282	3534978	I would like to be on the list if possible.	I would like to be on the list if possible.	167931516	1476467870190	1476467870322	k	75
328282	3534978	I would like to be on the list if possible.	I would like to be on the list if possible.	167931520	1476467870304	1476467870493	e	69
328282	3534978	I would like to be on the list if possible.	I would like to be on the list if possible.	167931524	1476467870428	1476467870607	 	32
328282	3534978	I would like to be on the list if possible.	I would like to be on the list if possible.	167931527	1476467871546	1476467871698	t	84
328282	3534978	I would like to be on the list if possible.	I would like to be on the list if possible.	167931604	1476467871672	1476467871783	o	79
328282	3534978	I would like to be on the list if possible.	I would like to be on the list if possible.	167931607	1476467871878	1476467872026	 	32
328282	3534978	I would like to be on the list if possible.	I would like to be on the list if possible.	167931612	1476467872143	1476467872323	b	66
328282	3534978	I would like to be on the list if possible.	I would like to be on the list if possible.	167931619	1476467872338	1476467872491	e	69
328282	3534978	I would like to be on the list if possible.	I would like to be on the list if possible.	167931621	1476467872479	1476467872635	 	32
328282	3534978	I would like to be on the list if possible.	I would like to be on the list if possible.	167931624	1476467873106	1476467873233	o	79
328282	3534978	I would like to be on the list if possible.	I would like to be on the list if possible.	167931643	1476467873276	1476467873380	n	78
328282	3534978	I would like to be on the list if possible.	I would like to be on the list if possible.	167931646	1476467873452	1476467873562	 	32
328282	3534978	I would like to be on the list if possible.	I would like to be on the list if possible.	167931648	1476467873635	1476467873814	t	84
328282	3534978	I would like to be on the list if possible.	I would like to be on the list if possible.	167931651	1476467873771	1476467873912	h	72
328282	3534978	I would like to be on the list if possible.	I would like to be on the list if possible.	167931705	1476467873896	1476467874085	e	69
328282	3534978	I would like to be on the list if possible.	I would like to be on the list if possible.	167931706	1476467873971	1476467874174	 	32
328282	3534978	I would like to be on the list if possible.	I would like to be on the list if possible.	167931707	1476467874494	1476467874631	l	76
328282	3534978	I would like to be on the list if possible.	I would like to be on the list if possible.	167931709	1476467874696	1476467874862	i	73
328282	3534978	I would like to be on the list if possible.	I would like to be on the list if possible.	167931713	1476467874931	1476467875169	s	83
328282	3534978	I would like to be on the list if possible.	I would like to be on the list if possible.	167931799	1476467875071	1476467875178	t	84
328282	3534978	I would like to be on the list if possible.	I would like to be on the list if possible.	167931800	1476467875228	1476467875434	 	32
328282	3534978	I would like to be on the list if possible.	I would like to be on the list if possible.	167931802	1476467876514	1476467876659	i	73
328282	3534978	I would like to be on the list if possible.	I would like to be on the list if possible.	167931806	1476467876683	1476467876862	f	70
328282	3534978	I would like to be on the list if possible.	I would like to be on the list if possible.	167931811	1476467876764	1476467876924	 	32
328282	3534978	I would like to be on the list if possible.	I would like to be on the list if possible.	167931815	1476467877476	1476467877638	p	80
328282	3534978	I would like to be on the list if possible.	I would like to be on the list if possible.	167931847	1476467877661	1476467877808	o	79
328282	3534978	I would like to be on the list if possible.	I would like to be on the list if possible.	167931851	1476467877893	1476467878056	s	83
328282	3534978	I would like to be on the list if possible.	I would like to be on the list if possible.	167931853	1476467878095	1476467878255	s	83
328282	3534978	I would like to be on the list if possible.	I would like to be on the list if possible.	167931857	1476467878193	1476467878333	i	73
328282	3534978	I would like to be on the list if possible.	I would like to be on the list if possible.	167931863	1476467878411	1476467878548	b	66
328282	3534978	I would like to be on the list if possible.	I would like to be on the list if possible.	167931901	1476467878677	1476467878873	l	76
328282	3534978	I would like to be on the list if possible.	I would like to be on the list if possible.	167931903	1476467878841	1476467879036	e	69
328282	3534994	I was runner-up three times.	I was runner-up three times.	167932600	1476467879269	1476467890692	.	190
328282	3534994	I was runner-up three times.	I was runner-up three times.	167932067	1476467881334	1476467881777	SHIFT	16
328282	3534994	I was runner-up three times.	I was runner-up three times.	167932064	1476467881630	1476467881744	I	73
328282	3534994	I was runner-up three times.	I was runner-up three times.	167932070	1476467881804	1476467881924	 	32
328282	3534994	I was runner-up three times.	I was runner-up three times.	167932076	1476467881951	1476467882084	w	87
328282	3534994	I was runner-up three times.	I was runner-up three times.	167932081	1476467882173	1476467882402	a	65
328282	3534994	I was runner-up three times.	I was runner-up three times.	167932212	1476467882383	1476467882559	s	32
328282	3534994	I was runner-up three times.	I was runner-up three times.	167932219	1476467883205	1476467883322	BKSP	8
328282	3534994	I was runner-up three times.	I was runner-up three times.	167932225	1476467883364	1476467883480	BKSP	8
328282	3534994	I was runner-up three times.	I was runner-up three times.	167932232	1476467883465	1476467883651	s	83
328282	3534994	I was runner-up three times.	I was runner-up three times.	167932239	1476467883635	1476467883733	 	32
328282	3534994	I was runner-up three times.	I was runner-up three times.	167932244	1476467884244	1476467884443	r	82
328282	3534994	I was runner-up three times.	I was runner-up three times.	167932249	1476467884378	1476467884500	u	85
328282	3534994	I was runner-up three times.	I was runner-up three times.	167932253	1476467884573	1476467884658	n	78
328282	3534994	I was runner-up three times.	I was runner-up three times.	167932358	1476467884736	1476467884811	n	78
328282	3534994	I was runner-up three times.	I was runner-up three times.	167932363	1476467885070	1476467885219	r	82
328282	3534994	I was runner-up three times.	I was runner-up three times.	167932368	1476467885832	1476467885916	BKSP	8
328282	3534994	I was runner-up three times.	I was runner-up three times.	167932371	1476467886191	1476467886416	e	69
328282	3534994	I was runner-up three times.	I was runner-up three times.	167932375	1476467886348	1476467886558	r	82
328282	3534994	I was runner-up three times.	I was runner-up three times.	167932431	1476467886538	1476467886686	-	189
328282	3534994	I was runner-up three times.	I was runner-up three times.	167932436	1476467887018	1476467887155	u	85
328282	3534994	I was runner-up three times.	I was runner-up three times.	167932441	1476467887220	1476467887435	p	80
328282	3534994	I was runner-up three times.	I was runner-up three times.	167932444	1476467887427	1476467887609	 	32
328282	3534994	I was runner-up three times.	I was runner-up three times.	167932447	1476467888031	1476467888174	t	84
328282	3534994	I was runner-up three times.	I was runner-up three times.	167932546	1476467888142	1476467888268	h	72
328282	3534994	I was runner-up three times.	I was runner-up three times.	167932549	1476467888381	1476467888560	r	82
328282	3534994	I was runner-up three times.	I was runner-up three times.	167932553	1476467888566	1476467888724	e	69
328282	3534994	I was runner-up three times.	I was runner-up three times.	167932557	1476467888793	1476467888920	e	69
328282	3534994	I was runner-up three times.	I was runner-up three times.	167932561	1476467888959	1476467889132	 	32
328282	3534994	I was runner-up three times.	I was runner-up three times.	167932563	1476467889707	1476467889850	t	84
328282	3534994	I was runner-up three times.	I was runner-up three times.	167932591	1476467889859	1476467889974	i	73
328282	3534994	I was runner-up three times.	I was runner-up three times.	167932593	1476467890053	1476467890198	m	77
328282	3534994	I was runner-up three times.	I was runner-up three times.	167932595	1476467890173	1476467890300	e	69
328282	3534994	I was runner-up three times.	I was runner-up three times.	167932598	1476467890403	1476467890636	s	83
328282	3535011	There will be some better news later today	There will be some better news later today	167932733	1476467892491	1476467893061	SHIFT	16
328282	3535011	There will be some better news later today	There will be some better news later today	167932731	1476467892915	1476467893006	T	84
328282	3535011	There will be some better news later today	There will be some better news later today	167932734	1476467893104	1476467893216	h	72
328282	3535011	There will be some better news later today	There will be some better news later today	167932736	1476467893234	1476467893384	e	69
328282	3535011	There will be some better news later today	There will be some better news later today	167932738	1476467893466	1476467893658	r	82
328282	3535011	There will be some better news later today	There will be some better news later today	167932791	1476467893636	1476467893857	e	69
328282	3535011	There will be some better news later today	There will be some better news later today	167932796	1476467893803	1476467893955	 	32
328282	3535011	There will be some better news later today	There will be some better news later today	167932801	1476467894285	1476467894470	w	87
328282	3535011	There will be some better news later today	There will be some better news later today	167932809	1476467894448	1476467894558	i	73
328282	3535011	There will be some better news later today	There will be some better news later today	167932814	1476467894705	1476467894770	l	76
328282	3535011	There will be some better news later today	There will be some better news later today	167932818	1476467894848	1476467894972	l	76
328282	3535011	There will be some better news later today	There will be some better news later today	167932890	1476467895181	1476467895327	 	32
328282	3535011	There will be some better news later today	There will be some better news later today	167932894	1476467895606	1476467895739	b	66
328282	3535011	There will be some better news later today	There will be some better news later today	167932900	1476467895727	1476467895873	e	69
328282	3535011	There will be some better news later today	There will be some better news later today	167932904	1476467895837	1476467895968	 	32
328282	3535011	There will be some better news later today	There will be some better news later today	167932911	1476467896092	1476467896285	s	83
328282	3535011	There will be some better news later today	There will be some better news later today	167932952	1476467896200	1476467896321	o	79
328282	3535011	There will be some better news later today	There will be some better news later today	167932955	1476467896386	1476467896527	m	77
328282	3535011	There will be some better news later today	There will be some better news later today	167932961	1476467896530	1476467896670	e	69
328282	3535011	There will be some better news later today	There will be some better news later today	167932968	1476467896650	1476467896818	 	32
328282	3535011	There will be some better news later today	There will be some better news later today	167932973	1476467897116	1476467897256	b	66
328282	3535011	There will be some better news later today	There will be some better news later today	167932978	1476467897308	1476467897445	e	69
328282	3535011	There will be some better news later today	There will be some better news later today	167933001	1476467897563	1476467897658	t	84
328282	3535011	There will be some better news later today	There will be some better news later today	167933003	1476467897723	1476467897821	t	84
328282	3535011	There will be some better news later today	There will be some better news later today	167933007	1476467897883	1476467898057	e	69
328282	3535011	There will be some better news later today	There will be some better news later today	167933011	1476467898034	1476467898226	r	82
328282	3535011	There will be some better news later today	There will be some better news later today	167933082	1476467898211	1476467898400	 	32
328282	3535011	There will be some better news later today	There will be some better news later today	167933091	1476467898842	1476467898983	n	78
328282	3535011	There will be some better news later today	There will be some better news later today	167933097	1476467899143	1476467899424	e	69
328282	3535011	There will be some better news later today	There will be some better news later today	167933103	1476467899400	1476467899575	w	87
328282	3535011	There will be some better news later today	There will be some better news later today	167933108	1476467899553	1476467899725	 	32
328282	3535011	There will be some better news later today	There will be some better news later today	167933198	1476467899654	1476467899774	s	83
328282	3535011	There will be some better news later today	There will be some better news later today	167933202	1476467900025	1476467900108	BKSP	8
328282	3535011	There will be some better news later today	There will be some better news later today	167933204	1476467900167	1476467900274	BKSP	8
328282	3535011	There will be some better news later today	There will be some better news later today	167933207	1476467900287	1476467900450	s	83
328282	3535011	There will be some better news later today	There will be some better news later today	167933209	1476467900395	1476467900552	 	32
328282	3535011	There will be some better news later today	There will be some better news later today	167933211	1476467900951	1476467901144	l	76
328282	3535011	There will be some better news later today	There will be some better news later today	167933214	1476467901063	1476467901270	a	65
328282	3535011	There will be some better news later today	There will be some better news later today	167933218	1476467901323	1476467901475	t	84
328282	3535011	There will be some better news later today	There will be some better news later today	167933280	1476467901437	1476467901639	e	69
328282	3535011	There will be some better news later today	There will be some better news later today	167933285	1476467901613	1476467901803	r	82
328282	3535011	There will be some better news later today	There will be some better news later today	167933290	1476467901734	1476467901872	 	32
328282	3535011	There will be some better news later today	There will be some better news later today	167933293	1476467902292	1476467902468	t	84
328282	3535011	There will be some better news later today	There will be some better news later today	167933294	1476467902491	1476467902661	o	79
328282	3535011	There will be some better news later today	There will be some better news later today	167933296	1476467902791	1476467903001	d	68
328282	3535011	There will be some better news later today	There will be some better news later today	167933466	1476467903004	1476467903178	y	89
328282	3535011	There will be some better news later today	There will be some better news later today	167933469	1476467903056	1476467903239	a	65
328282	3535011	There will be some better news later today	There will be some better news later today	167933474	1476467903726	1476467903794	]	221
328282	3535011	There will be some better news later today	There will be some better news later today	167933479	1476467903748	1476467903823	BKSP	8
328282	3535011	There will be some better news later today	There will be some better news later today	167933484	1476467903891	1476467903990	BKSP	8
328282	3535011	There will be some better news later today	There will be some better news later today	167933493	1476467904429	1476467904510	=	187
328282	3535011	There will be some better news later today	There will be some better news later today	167933497	1476467905080	1476467905207	BKSP	8
328282	3535011	There will be some better news later today	There will be some better news later today	167933501	1476467905404	1476467905502	BKSP	8
328282	3535011	There will be some better news later today	There will be some better news later today	167933506	1476467905822	1476467906017	a	65
328282	3535011	There will be some better news later today	There will be some better news later today	167933548	1476467905926	1476467906027	y	89
328282	3535029	Most recent surveys put them in a dead heat.	Most recent surveys put them in a dead heat.	167933748	1476467908871	1476467909228	SHIFT	16
328282	3535029	Most recent surveys put them in a dead heat.	Most recent surveys put them in a dead heat.	167933750	1476467909134	1476467909251	M	77
328282	3535029	Most recent surveys put them in a dead heat.	Most recent surveys put them in a dead heat.	167933755	1476467909320	1476467909427	o	79
328282	3535029	Most recent surveys put them in a dead heat.	Most recent surveys put them in a dead heat.	167933761	1476467909527	1476467909728	s	83
328282	3535029	Most recent surveys put them in a dead heat.	Most recent surveys put them in a dead heat.	167933769	1476467909696	1476467909817	t	84
328282	3535029	Most recent surveys put them in a dead heat.	Most recent surveys put them in a dead heat.	167933777	1476467909869	1476467910023	 	32
328282	3535029	Most recent surveys put them in a dead heat.	Most recent surveys put them in a dead heat.	167933866	1476467910300	1476467910433	r	82
328282	3535029	Most recent surveys put them in a dead heat.	Most recent surveys put them in a dead heat.	167933869	1476467910501	1476467910615	e	69
328282	3535029	Most recent surveys put them in a dead heat.	Most recent surveys put them in a dead heat.	167933875	1476467910703	1476467910877	c	67
328282	3535029	Most recent surveys put them in a dead heat.	Most recent surveys put them in a dead heat.	167933879	1476467911003	1476467911220	e	69
328282	3535029	Most recent surveys put them in a dead heat.	Most recent surveys put them in a dead heat.	167933986	1476467911199	1476467911302	n	78
328282	3535029	Most recent surveys put them in a dead heat.	Most recent surveys put them in a dead heat.	167933993	1476467911332	1476467911505	t	84
328282	3535029	Most recent surveys put them in a dead heat.	Most recent surveys put them in a dead heat.	167933999	1476467911451	1476467911587	 	32
328282	3535029	Most recent surveys put them in a dead heat.	Most recent surveys put them in a dead heat.	167934006	1476467912155	1476467912366	s	83
328282	3535029	Most recent surveys put them in a dead heat.	Most recent surveys put them in a dead heat.	167934011	1476467912576	1476467912710	u	85
328282	3535029	Most recent surveys put them in a dead heat.	Most recent surveys put them in a dead heat.	167934016	1476467912733	1476467912886	r	82
328282	3535029	Most recent surveys put them in a dead heat.	Most recent surveys put them in a dead heat.	167934068	1476467913305	1476467913438	v	86
328282	3535029	Most recent surveys put them in a dead heat.	Most recent surveys put them in a dead heat.	167934071	1476467913484	1476467913619	e	69
328282	3535029	Most recent surveys put them in a dead heat.	Most recent surveys put them in a dead heat.	167934075	1476467913581	1476467913701	y	89
328282	3535029	Most recent surveys put them in a dead heat.	Most recent surveys put them in a dead heat.	167934080	1476467913744	1476467913956	s	83
328282	3535029	Most recent surveys put them in a dead heat.	Most recent surveys put them in a dead heat.	167934174	1476467913918	1476467914044	 	32
328282	3535029	Most recent surveys put them in a dead heat.	Most recent surveys put them in a dead heat.	167934178	1476467914536	1476467914715	p	80
328282	3535029	Most recent surveys put them in a dead heat.	Most recent surveys put them in a dead heat.	167934184	1476467914818	1476467914946	u	85
328282	3535029	Most recent surveys put them in a dead heat.	Most recent surveys put them in a dead heat.	167934191	1476467915061	1476467915203	t	84
328282	3535029	Most recent surveys put them in a dead heat.	Most recent surveys put them in a dead heat.	167934198	1476467915100	1476467915246	 	32
328282	3535029	Most recent surveys put them in a dead heat.	Most recent surveys put them in a dead heat.	167934208	1476467915403	1476467915587	t	84
328282	3535029	Most recent surveys put them in a dead heat.	Most recent surveys put them in a dead heat.	167934284	1476467915542	1476467915656	h	72
328282	3535029	Most recent surveys put them in a dead heat.	Most recent surveys put them in a dead heat.	167934286	1476467915751	1476467915941	e	69
328282	3535029	Most recent surveys put them in a dead heat.	Most recent surveys put them in a dead heat.	167934289	1476467915856	1476467915996	m	77
328282	3535029	Most recent surveys put them in a dead heat.	Most recent surveys put them in a dead heat.	167934292	1476467916023	1476467916203	 	32
328282	3535029	Most recent surveys put them in a dead heat.	Most recent surveys put them in a dead heat.	167934296	1476467916580	1476467916727	i	73
328282	3535029	Most recent surveys put them in a dead heat.	Most recent surveys put them in a dead heat.	167934299	1476467916760	1476467916864	n	78
328282	3535029	Most recent surveys put them in a dead heat.	Most recent surveys put them in a dead heat.	167934320	1476467916948	1476467917075	 	32
328282	3535029	Most recent surveys put them in a dead heat.	Most recent surveys put them in a dead heat.	167934324	1476467917134	1476467917316	t	84
328282	3535029	Most recent surveys put them in a dead heat.	Most recent surveys put them in a dead heat.	167934328	1476467917228	1476467917364	h	72
328282	3535029	Most recent surveys put them in a dead heat.	Most recent surveys put them in a dead heat.	167934331	1476467917359	1476467917574	e	69
328282	3535029	Most recent surveys put them in a dead heat.	Most recent surveys put them in a dead heat.	167934450	1476467917437	1476467917583	 	32
328282	3535029	Most recent surveys put them in a dead heat.	Most recent surveys put them in a dead heat.	167934455	1476467918078	1476467918263	d	68
328282	3535029	Most recent surveys put them in a dead heat.	Most recent surveys put them in a dead heat.	167934461	1476467918319	1476467918541	a	65
328282	3535029	Most recent surveys put them in a dead heat.	Most recent surveys put them in a dead heat.	167934467	1476467919047	1476467919216	BKSP	8
328282	3535029	Most recent surveys put them in a dead heat.	Most recent surveys put them in a dead heat.	167934469	1476467919229	1476467919387	e	69
328282	3535029	Most recent surveys put them in a dead heat.	Most recent surveys put them in a dead heat.	167934472	1476467919465	1476467919695	a	65
328282	3535029	Most recent surveys put them in a dead heat.	Most recent surveys put them in a dead heat.	167934545	1476467919651	1476467919839	d	68
328282	3535029	Most recent surveys put them in a dead heat.	Most recent surveys put them in a dead heat.	167934548	1476467919804	1476467919964	 	32
328282	3535029	Most recent surveys put them in a dead heat.	Most recent surveys put them in a dead heat.	167934554	1476467920112	1476467920256	h	72
328282	3535029	Most recent surveys put them in a dead heat.	Most recent surveys put them in a dead heat.	167934559	1476467920269	1476467920416	e	69
328282	3535029	Most recent surveys put them in a dead heat.	Most recent surveys put them in a dead heat.	167934566	1476467920483	1476467920589	e	69
328282	3535029	Most recent surveys put them in a dead heat.	Most recent surveys put them in a dead heat.	167934573	1476467920957	1476467921110	BKSP	8
328282	3535029	Most recent surveys put them in a dead heat.	Most recent surveys put them in a dead heat.	167934582	1476467921175	1476467921379	a	65
328282	3535029	Most recent surveys put them in a dead heat.	Most recent surveys put them in a dead heat.	167934896	1476467921331	1476467921462	t	84
328282	3535029	Most recent surveys put them in a dead heat.	Most recent surveys put them in a dead heat.	167934902	1476467923190	1476467924209	BKSP	8
328282	3535029	Most recent surveys put them in a dead heat.	Most recent surveys put them in a dead heat.	167934906	1476467924618	1476467924762	BKSP	8
328282	3535029	Most recent surveys put them in a dead heat.	Most recent surveys put them in a dead heat.	167934909	1476467924902	1476467925111	a	65
328282	3535029	Most recent surveys put them in a dead heat.	Most recent surveys put them in a dead heat.	167934914	1476467925049	1476467925183	 	32
328282	3535029	Most recent surveys put them in a dead heat.	Most recent surveys put them in a dead heat.	167934916	1476467925397	1476467925609	d	68
328282	3535029	Most recent surveys put them in a dead heat.	Most recent surveys put them in a dead heat.	167934922	1476467925567	1476467925713	e	69
328282	3535029	Most recent surveys put them in a dead heat.	Most recent surveys put them in a dead heat.	167934924	1476467925806	1476467926028	a	65
328282	3535029	Most recent surveys put them in a dead heat.	Most recent surveys put them in a dead heat.	167935000	1476467926015	1476467926194	d	68
328282	3535029	Most recent surveys put them in a dead heat.	Most recent surveys put them in a dead heat.	167935002	1476467926168	1476467926328	 	32
328282	3535029	Most recent surveys put them in a dead heat.	Most recent surveys put them in a dead heat.	167935006	1476467926541	1476467926704	h	72
328282	3535029	Most recent surveys put them in a dead heat.	Most recent surveys put them in a dead heat.	167935007	1476467926691	1476467926837	e	69
328282	3535029	Most recent surveys put them in a dead heat.	Most recent surveys put them in a dead heat.	167935008	1476467927034	1476467927249	a	65
328282	3535029	Most recent surveys put them in a dead heat.	Most recent surveys put them in a dead heat.	167935075	1476467927194	1476467927265	t	84
328282	3535066	What do you think?	What do you think?	167935577	1476467928040	1476467933371	.	190
328282	3535066	What do you think?	What do you think?	167935270	1476467929744	1476467930272	SHIFT	16
328282	3535066	What do you think?	What do you think?	167935273	1476467930132	1476467930305	W	87
328282	3535066	What do you think?	What do you think?	167935275	1476467930334	1476467930454	h	72
328282	3535066	What do you think?	What do you think?	167935277	1476467930413	1476467930587	a	65
328282	3535066	What do you think?	What do you think?	167935281	1476467930542	1476467930650	t	84
328282	3535066	What do you think?	What do you think?	167935285	1476467930729	1476467930850	 	32
328282	3535066	What do you think?	What do you think?	167935346	1476467930936	1476467931125	d	68
328282	3535066	What do you think?	What do you think?	167935349	1476467931151	1476467931259	o	79
328282	3535066	What do you think?	What do you think?	167935352	1476467931324	1476467931459	 	32
328282	3535066	What do you think?	What do you think?	167935356	1476467931568	1476467931692	y	89
328282	3535066	What do you think?	What do you think?	167935362	1476467931706	1476467931937	o	79
328282	3535066	What do you think?	What do you think?	167935424	1476467931899	1476467932028	u	85
328282	3535066	What do you think?	What do you think?	167935428	1476467932078	1476467932235	 	32
328282	3535066	What do you think?	What do you think?	167935431	1476467932270	1476467932440	t	84
328282	3535066	What do you think?	What do you think?	167935435	1476467932338	1476467932450	h	72
328282	3535066	What do you think?	What do you think?	167935437	1476467932538	1476467932643	i	73
328282	3535066	What do you think?	What do you think?	167935441	1476467932698	1476467932821	n	78
328282	3535066	What do you think?	What do you think?	167935570	1476467932861	1476467933021	k	75
328282	3535066	What do you think?	What do you think?	167935584	1476467933060	1476467933452	SHIFT	16
328282	3535066	What do you think?	What do you think?	167935590	1476467933933	1476467934020	BKSP	8
328282	3535066	What do you think?	What do you think?	167935597	1476467934170	1476467934490	SHIFT	16
328282	3535066	What do you think?	What do you think?	167935594	1476467934288	1476467934379	?	191
328282	3535078	Did you set up my corporate account for me?	Did you set up my corporate account for me?	167935835	1476467936309	1476467936999	SHIFT	16
328282	3535078	Did you set up my corporate account for me?	Did you set up my corporate account for me?	167935829	1476467936841	1476467936988	D	68
328282	3535078	Did you set up my corporate account for me?	Did you set up my corporate account for me?	167935842	1476467937017	1476467937143	i	73
328282	3535078	Did you set up my corporate account for me?	Did you set up my corporate account for me?	167935849	1476467937138	1476467937346	d	68
328282	3535078	Did you set up my corporate account for me?	Did you set up my corporate account for me?	167935855	1476467937248	1476467937425	 	32
328282	3535078	Did you set up my corporate account for me?	Did you set up my corporate account for me?	167935861	1476467937598	1476467937735	y	89
328282	3535078	Did you set up my corporate account for me?	Did you set up my corporate account for me?	167935982	1476467937673	1476467937898	o	79
328282	3535078	Did you set up my corporate account for me?	Did you set up my corporate account for me?	167935985	1476467937846	1476467938019	u	85
328282	3535078	Did you set up my corporate account for me?	Did you set up my corporate account for me?	167935988	1476467938112	1476467938242	 	32
328282	3535078	Did you set up my corporate account for me?	Did you set up my corporate account for me?	167935993	1476467939377	1476467939582	s	83
328282	3535078	Did you set up my corporate account for me?	Did you set up my corporate account for me?	167936000	1476467939728	1476467939907	e	69
328282	3535078	Did you set up my corporate account for me?	Did you set up my corporate account for me?	167936070	1476467939842	1476467939963	t	84
328282	3535078	Did you set up my corporate account for me?	Did you set up my corporate account for me?	167936074	1476467940003	1476467940175	 	32
328282	3535078	Did you set up my corporate account for me?	Did you set up my corporate account for me?	167936081	1476467940622	1476467940755	u	85
328282	3535078	Did you set up my corporate account for me?	Did you set up my corporate account for me?	167936087	1476467940827	1476467941027	p	80
328282	3535078	Did you set up my corporate account for me?	Did you set up my corporate account for me?	167936094	1476467941043	1476467941203	 	32
328282	3535078	Did you set up my corporate account for me?	Did you set up my corporate account for me?	167936099	1476467941464	1476467941571	m	77
328282	3535078	Did you set up my corporate account for me?	Did you set up my corporate account for me?	167936308	1476467941948	1476467942081	y	89
328282	3535078	Did you set up my corporate account for me?	Did you set up my corporate account for me?	167936311	1476467942186	1476467942323	 	32
328282	3535078	Did you set up my corporate account for me?	Did you set up my corporate account for me?	167936319	1476467943056	1476467943256	c	67
328282	3535078	Did you set up my corporate account for me?	Did you set up my corporate account for me?	167936324	1476467943245	1476467943350	o	79
328282	3535078	Did you set up my corporate account for me?	Did you set up my corporate account for me?	167936331	1476467944023	1476467944176	r	82
328282	3535078	Did you set up my corporate account for me?	Did you set up my corporate account for me?	167936395	1476467944201	1476467944320	p	80
328282	3535078	Did you set up my corporate account for me?	Did you set up my corporate account for me?	167936399	1476467944385	1476467944538	o	79
328282	3535078	Did you set up my corporate account for me?	Did you set up my corporate account for me?	167936402	1476467944558	1476467944701	r	82
328282	3535078	Did you set up my corporate account for me?	Did you set up my corporate account for me?	167936410	1476467944785	1476467945039	a	65
328282	3535078	Did you set up my corporate account for me?	Did you set up my corporate account for me?	167936533	1476467944928	1476467945058	t	84
328282	3535078	Did you set up my corporate account for me?	Did you set up my corporate account for me?	167936536	1476467945042	1476467945235	e	69
328282	3535078	Did you set up my corporate account for me?	Did you set up my corporate account for me?	167936541	1476467945156	1476467945306	 	32
328282	3535078	Did you set up my corporate account for me?	Did you set up my corporate account for me?	167936546	1476467945893	1476467946086	a	65
328282	3535078	Did you set up my corporate account for me?	Did you set up my corporate account for me?	167936550	1476467946141	1476467946265	c	67
328282	3535078	Did you set up my corporate account for me?	Did you set up my corporate account for me?	167936554	1476467946342	1476467946476	c	67
328282	3535078	Did you set up my corporate account for me?	Did you set up my corporate account for me?	167936650	1476467946461	1476467946565	o	79
328282	3535078	Did you set up my corporate account for me?	Did you set up my corporate account for me?	167936656	1476467946685	1476467946818	u	85
328282	3535078	Did you set up my corporate account for me?	Did you set up my corporate account for me?	167936660	1476467946973	1476467947110	n	78
328282	3535078	Did you set up my corporate account for me?	Did you set up my corporate account for me?	167936664	1476467947093	1476467947263	t	84
328282	3535078	Did you set up my corporate account for me?	Did you set up my corporate account for me?	167936669	1476467947237	1476467947429	 	32
328282	3535078	Did you set up my corporate account for me?	Did you set up my corporate account for me?	167936673	1476467947790	1476467947952	f	70
328282	3535078	Did you set up my corporate account for me?	Did you set up my corporate account for me?	167936749	1476467947872	1476467947979	o	79
328282	3535078	Did you set up my corporate account for me?	Did you set up my corporate account for me?	167936751	1476467948001	1476467948151	r	82
328282	3535078	Did you set up my corporate account for me?	Did you set up my corporate account for me?	167936755	1476467948060	1476467948187	 	32
328282	3535078	Did you set up my corporate account for me?	Did you set up my corporate account for me?	167936759	1476467948289	1476467948370	,	188
328282	3535078	Did you set up my corporate account for me?	Did you set up my corporate account for me?	167936761	1476467948345	1476467948501	w	87
328282	3535078	Did you set up my corporate account for me?	Did you set up my corporate account for me?	167936764	1476467948764	1476467948859	BKSP	8
328282	3535078	Did you set up my corporate account for me?	Did you set up my corporate account for me?	167936769	1476467948915	1476467949015	BKSP	8
328282	3535078	Did you set up my corporate account for me?	Did you set up my corporate account for me?	167936774	1476467949414	1476467949512	m	77
328282	3535078	Did you set up my corporate account for me?	Did you set up my corporate account for me?	167936959	1476467949558	1476467949730	e	69
328282	3535078	Did you set up my corporate account for me?	Did you set up my corporate account for me?	167936968	1476467950218	1476467950348	>	190
328282	3535078	Did you set up my corporate account for me?	Did you set up my corporate account for me?	167936976	1476467950761	1476467950880	|	220
328282	3535078	Did you set up my corporate account for me?	Did you set up my corporate account for me?	167936982	1476467951399	1476467951474	BKSP	8
328282	3535078	Did you set up my corporate account for me?	Did you set up my corporate account for me?	167936992	1476467951539	1476467951618	BKSP	8
328282	3535078	Did you set up my corporate account for me?	Did you set up my corporate account for me?	167937008	1476467952065	1476467952133	?	191
328282	3535104	So you're ignoring me.	So you're ignoring me.	167937246	1476467954487	1476467954692	S	83
328282	3535104	So you're ignoring me.	So you're ignoring me.	167937254	1476467954656	1476467954770	o	79
328282	3535104	So you're ignoring me.	So you're ignoring me.	167937259	1476467954816	1476467954940	 	32
328282	3535104	So you're ignoring me.	So you're ignoring me.	167937264	1476467955064	1476467955173	i	73
328282	3535104	So you're ignoring me.	So you're ignoring me.	167937270	1476467955279	1476467955436	f	70
328282	3535104	So you're ignoring me.	So you're ignoring me.	167937446	1476467955368	1476467955544	 	32
328282	3535104	So you're ignoring me.	So you're ignoring me.	167937449	1476467955992	1476467956161	y	89
328282	3535104	So you're ignoring me.	So you're ignoring me.	167937455	1476467956117	1476467956301	o	79
328282	3535104	So you're ignoring me.	So you're ignoring me.	167937457	1476467956308	1476467956494	u	85
328282	3535104	So you're ignoring me.	So you're ignoring me.	167937463	1476467956691	1476467956843	r	82
328282	3535104	So you're ignoring me.	So you're ignoring me.	167937468	1476467957288	1476467957452	BKSP	8
328282	3535104	So you're ignoring me.	So you're ignoring me.	167937474	1476467957665	1476467957844	'	222
328282	3535104	So you're ignoring me.	So you're ignoring me.	167937595	1476467957839	1476467958010	e	69
328282	3535104	So you're ignoring me.	So you're ignoring me.	167937597	1476467958577	1476467958714	BKSP	8
328282	3535104	So you're ignoring me.	So you're ignoring me.	167937605	1476467958776	1476467958991	r	82
328282	3535104	So you're ignoring me.	So you're ignoring me.	167937610	1476467958939	1476467959152	e	69
328282	3535104	So you're ignoring me.	So you're ignoring me.	167937613	1476467959067	1476467959217	 	32
328282	3535104	So you're ignoring me.	So you're ignoring me.	167937618	1476467959717	1476467959876	i	73
328282	3535104	So you're ignoring me.	So you're ignoring me.	167937626	1476467960105	1476467960249	g	71
328282	3535104	So you're ignoring me.	So you're ignoring me.	167937678	1476467960261	1476467960386	n	78
328282	3535104	So you're ignoring me.	So you're ignoring me.	167937685	1476467960664	1476467960816	o	79
328282	3535104	So you're ignoring me.	So you're ignoring me.	167937692	1476467960843	1476467961039	r	82
328282	3535104	So you're ignoring me.	So you're ignoring me.	167937699	1476467960971	1476467961108	i	73
328282	3535104	So you're ignoring me.	So you're ignoring me.	167937708	1476467961189	1476467961307	n	78
328282	3535104	So you're ignoring me.	So you're ignoring me.	167938007	1476467961252	1476467961405	g	71
328282	3535104	So you're ignoring me.	So you're ignoring me.	167938012	1476467961421	1476467961555	 	32
328282	3535104	So you're ignoring me.	So you're ignoring me.	167938014	1476467962347	1476467963735	BKSP	8
328282	3535104	So you're ignoring me.	So you're ignoring me.	167938016	1476467964427	1476467964577	y	89
328282	3535104	So you're ignoring me.	So you're ignoring me.	167938019	1476467964670	1476467964888	o	79
328282	3535104	So you're ignoring me.	So you're ignoring me.	167938025	1476467964837	1476467965003	u	85
328282	3535104	So you're ignoring me.	So you're ignoring me.	167938028	1476467965023	1476467965160	r	82
328282	3535104	So you're ignoring me.	So you're ignoring me.	167938262	1476467965656	1476467965796	'	222
328282	3535104	So you're ignoring me.	So you're ignoring me.	167938267	1476467966634	1476467966797	BKSP	8
328282	3535104	So you're ignoring me.	So you're ignoring me.	167938274	1476467966894	1476467967054	BKSP	8
328282	3535104	So you're ignoring me.	So you're ignoring me.	167938281	1476467967940	1476467968035	'	222
328282	3535104	So you're ignoring me.	So you're ignoring me.	167938290	1476467968227	1476467968399	r	82
328282	3535104	So you're ignoring me.	So you're ignoring me.	167938299	1476467968348	1476467968553	e	69
328282	3535104	So you're ignoring me.	So you're ignoring me.	167938403	1476467968494	1476467968634	 	32
328282	3535104	So you're ignoring me.	So you're ignoring me.	167938411	1476467968918	1476467969088	i	73
328282	3535104	So you're ignoring me.	So you're ignoring me.	167938419	1476467969239	1476467969393	g	71
328282	3535104	So you're ignoring me.	So you're ignoring me.	167938426	1476467969439	1476467969572	n	78
328282	3535104	So you're ignoring me.	So you're ignoring me.	167938434	1476467969628	1476467969746	o	79
328282	3535104	So you're ignoring me.	So you're ignoring me.	167938440	1476467970009	1476467970191	r	82
328282	3535104	So you're ignoring me.	So you're ignoring me.	167938468	1476467970162	1476467970280	i	73
328282	3535104	So you're ignoring me.	So you're ignoring me.	167938472	1476467970341	1476467970442	n	78
328282	3535104	So you're ignoring me.	So you're ignoring me.	167938478	1476467970428	1476467970602	g	71
328282	3535104	So you're ignoring me.	So you're ignoring me.	167938484	1476467970558	1476467970657	 	32
328282	3535104	So you're ignoring me.	So you're ignoring me.	167938489	1476467970779	1476467970925	m	77
328282	3535104	So you're ignoring me.	So you're ignoring me.	167938564	1476467970909	1476467971079	e	69
328282	3535104	So you're ignoring me.	So you're ignoring me.	167938569	1476467972030	1476467972118	.	190
328282	3535136	I think I'm OK.	I think I'm OK.	167938748	1476467973964	1476467974453	SHIFT	16
328282	3535136	I think I'm OK.	I think I'm OK.	167938746	1476467974310	1476467974404	I	73
328282	3535136	I think I'm OK.	I think I'm OK.	167938755	1476467974466	1476467974622	 	32
328282	3535136	I think I'm OK.	I think I'm OK.	167938759	1476467974724	1476467974869	t	84
328282	3535136	I think I'm OK.	I think I'm OK.	167938766	1476467974834	1476467974932	h	72
328282	3535136	I think I'm OK.	I think I'm OK.	167938771	1476467975014	1476467975131	i	73
328282	3535136	I think I'm OK.	I think I'm OK.	167938876	1476467975167	1476467975292	n	78
328282	3535136	I think I'm OK.	I think I'm OK.	167938880	1476467975348	1476467975481	k	75
328282	3535136	I think I'm OK.	I think I'm OK.	167938890	1476467975513	1476467975657	 	32
328282	3535136	I think I'm OK.	I think I'm OK.	167938894	1476467975762	1476467976160	SHIFT	16
328282	3535136	I think I'm OK.	I think I'm OK.	167938898	1476467976398	1476467976472	i	73
328282	3535136	I think I'm OK.	I think I'm OK.	167938905	1476467976807	1476467976920	'	222
328282	3535136	I think I'm OK.	I think I'm OK.	167939108	1476467977000	1476467977120	m	77
328282	3535136	I think I'm OK.	I think I'm OK.	167939111	1476467977207	1476467977318	 	32
328282	3535136	I think I'm OK.	I think I'm OK.	167939114	1476467977736	1476467977820	BKSP	8
328282	3535136	I think I'm OK.	I think I'm OK.	167939120	1476467977892	1476467977967	BKSP	8
328282	3535136	I think I'm OK.	I think I'm OK.	167939126	1476467978020	1476467978115	BKSP	8
328282	3535136	I think I'm OK.	I think I'm OK.	167939132	1476467978167	1476467978288	BKSP	8
328282	3535136	I think I'm OK.	I think I'm OK.	167939146	1476467978585	1476467978960	SHIFT	16
328282	3535136	I think I'm OK.	I think I'm OK.	167939139	1476467978774	1476467978885	I	73
328282	3535136	I think I'm OK.	I think I'm OK.	167939155	1476467979272	1476467979385	'	222
328282	3535136	I think I'm OK.	I think I'm OK.	167939158	1476467979531	1476467979631	m	77
328282	3535136	I think I'm OK.	I think I'm OK.	167939362	1476467979728	1476467979822	 	32
328282	3535136	I think I'm OK.	I think I'm OK.	167939375	1476467980937	1476467981426	SHIFT	16
328282	3535136	I think I'm OK.	I think I'm OK.	167939365	1476467981123	1476467981246	O	79
328282	3535136	I think I'm OK.	I think I'm OK.	167939370	1476467981348	1476467981419	K	75
328282	3535136	I think I'm OK.	I think I'm OK.	167939382	1476467982693	1476467982807	.	190
328282	3535151	Add a Star Trek convention and sports memorabilia show to the mix.	Add a Star Trek convention and sports memorabilia show to the mix.	167939681	1476467984857	1476467985479	SHIFT	16
328282	3535151	Add a Star Trek convention and sports memorabilia show to the mix.	Add a Star Trek convention and sports memorabilia show to the mix.	167939685	1476467985329	1476467985551	A	65
328282	3535151	Add a Star Trek convention and sports memorabilia show to the mix.	Add a Star Trek convention and sports memorabilia show to the mix.	167939687	1476467985541	1476467985694	d	68
328282	3535151	Add a Star Trek convention and sports memorabilia show to the mix.	Add a Star Trek convention and sports memorabilia show to the mix.	167939689	1476467986315	1476467986538	d	68
328282	3535151	Add a Star Trek convention and sports memorabilia show to the mix.	Add a Star Trek convention and sports memorabilia show to the mix.	167939695	1476467986520	1476467986677	 	32
328282	3535151	Add a Star Trek convention and sports memorabilia show to the mix.	Add a Star Trek convention and sports memorabilia show to the mix.	167939701	1476467986768	1476467987003	a	65
328282	3535151	Add a Star Trek convention and sports memorabilia show to the mix.	Add a Star Trek convention and sports memorabilia show to the mix.	167939897	1476467986918	1476467987085	 	32
328282	3535151	Add a Star Trek convention and sports memorabilia show to the mix.	Add a Star Trek convention and sports memorabilia show to the mix.	167939899	1476467987453	1476467987636	s	83
328282	3535151	Add a Star Trek convention and sports memorabilia show to the mix.	Add a Star Trek convention and sports memorabilia show to the mix.	167939901	1476467987665	1476467987822	t	84
328282	3535151	Add a Star Trek convention and sports memorabilia show to the mix.	Add a Star Trek convention and sports memorabilia show to the mix.	167939903	1476467987842	1476467988051	a	65
328282	3535151	Add a Star Trek convention and sports memorabilia show to the mix.	Add a Star Trek convention and sports memorabilia show to the mix.	167939906	1476467988172	1476467988270	BKSP	8
328282	3535151	Add a Star Trek convention and sports memorabilia show to the mix.	Add a Star Trek convention and sports memorabilia show to the mix.	167939911	1476467988372	1476467988436	BKSP	8
328282	3535151	Add a Star Trek convention and sports memorabilia show to the mix.	Add a Star Trek convention and sports memorabilia show to the mix.	167939921	1476467988515	1476467988636	BKSP	8
328282	3535151	Add a Star Trek convention and sports memorabilia show to the mix.	Add a Star Trek convention and sports memorabilia show to the mix.	167939928	1476467988852	1476467989249	SHIFT	16
328282	3535151	Add a Star Trek convention and sports memorabilia show to the mix.	Add a Star Trek convention and sports memorabilia show to the mix.	167939935	1476467989109	1476467989311	S	83
328282	3535151	Add a Star Trek convention and sports memorabilia show to the mix.	Add a Star Trek convention and sports memorabilia show to the mix.	167939939	1476467989337	1476467989451	t	84
328282	3535151	Add a Star Trek convention and sports memorabilia show to the mix.	Add a Star Trek convention and sports memorabilia show to the mix.	167939978	1476467989422	1476467989614	a	65
328282	3535151	Add a Star Trek convention and sports memorabilia show to the mix.	Add a Star Trek convention and sports memorabilia show to the mix.	167939981	1476467989598	1476467989699	r	82
328282	3535151	Add a Star Trek convention and sports memorabilia show to the mix.	Add a Star Trek convention and sports memorabilia show to the mix.	167939985	1476467989795	1476467989906	 	32
328282	3535151	Add a Star Trek convention and sports memorabilia show to the mix.	Add a Star Trek convention and sports memorabilia show to the mix.	167939992	1476467989965	1476467990258	SHIFT	16
328282	3535151	Add a Star Trek convention and sports memorabilia show to the mix.	Add a Star Trek convention and sports memorabilia show to the mix.	167939988	1476467990131	1476467990248	T	84
328282	3535151	Add a Star Trek convention and sports memorabilia show to the mix.	Add a Star Trek convention and sports memorabilia show to the mix.	167939997	1476467990407	1476467990557	r	82
328282	3535151	Add a Star Trek convention and sports memorabilia show to the mix.	Add a Star Trek convention and sports memorabilia show to the mix.	167940003	1476467990623	1476467990821	e	69
328282	3535151	Add a Star Trek convention and sports memorabilia show to the mix.	Add a Star Trek convention and sports memorabilia show to the mix.	167940114	1476467991436	1476467991563	k	75
328282	3535151	Add a Star Trek convention and sports memorabilia show to the mix.	Add a Star Trek convention and sports memorabilia show to the mix.	167940120	1476467991618	1476467991761	 	32
328282	3535151	Add a Star Trek convention and sports memorabilia show to the mix.	Add a Star Trek convention and sports memorabilia show to the mix.	167940123	1476467992009	1476467992207	c	67
328282	3535151	Add a Star Trek convention and sports memorabilia show to the mix.	Add a Star Trek convention and sports memorabilia show to the mix.	167940127	1476467992152	1476467992276	o	79
328282	3535151	Add a Star Trek convention and sports memorabilia show to the mix.	Add a Star Trek convention and sports memorabilia show to the mix.	167940130	1476467992332	1476467992478	n	78
328282	3535151	Add a Star Trek convention and sports memorabilia show to the mix.	Add a Star Trek convention and sports memorabilia show to the mix.	167940267	1476467993318	1476467993465	v	86
328282	3535151	Add a Star Trek convention and sports memorabilia show to the mix.	Add a Star Trek convention and sports memorabilia show to the mix.	167940280	1476467993547	1476467993733	e	69
328282	3535151	Add a Star Trek convention and sports memorabilia show to the mix.	Add a Star Trek convention and sports memorabilia show to the mix.	167940288	1476467993658	1476467993766	n	78
328282	3535151	Add a Star Trek convention and sports memorabilia show to the mix.	Add a Star Trek convention and sports memorabilia show to the mix.	167940296	1476467993884	1476467994063	t	84
328282	3535151	Add a Star Trek convention and sports memorabilia show to the mix.	Add a Star Trek convention and sports memorabilia show to the mix.	167940361	1476467994028	1476467994165	i	73
328282	3535151	Add a Star Trek convention and sports memorabilia show to the mix.	Add a Star Trek convention and sports memorabilia show to the mix.	167940366	1476467994220	1476467994423	o	79
328282	3535151	Add a Star Trek convention and sports memorabilia show to the mix.	Add a Star Trek convention and sports memorabilia show to the mix.	167940372	1476467994409	1476467994552	n	78
328282	3535151	Add a Star Trek convention and sports memorabilia show to the mix.	Add a Star Trek convention and sports memorabilia show to the mix.	167940376	1476467994659	1476467994806	 	32
328282	3535151	Add a Star Trek convention and sports memorabilia show to the mix.	Add a Star Trek convention and sports memorabilia show to the mix.	167940383	1476467995131	1476467995326	a	65
328282	3535151	Add a Star Trek convention and sports memorabilia show to the mix.	Add a Star Trek convention and sports memorabilia show to the mix.	167940501	1476467995304	1476467995438	n	78
328282	3535151	Add a Star Trek convention and sports memorabilia show to the mix.	Add a Star Trek convention and sports memorabilia show to the mix.	167940505	1476467995464	1476467995644	d	68
328282	3535151	Add a Star Trek convention and sports memorabilia show to the mix.	Add a Star Trek convention and sports memorabilia show to the mix.	167940509	1476467995502	1476467995666	 	32
328282	3535151	Add a Star Trek convention and sports memorabilia show to the mix.	Add a Star Trek convention and sports memorabilia show to the mix.	167940514	1476467996532	1476467996770	s	83
328282	3535151	Add a Star Trek convention and sports memorabilia show to the mix.	Add a Star Trek convention and sports memorabilia show to the mix.	167940519	1476467996738	1476467996891	p	80
328282	3535151	Add a Star Trek convention and sports memorabilia show to the mix.	Add a Star Trek convention and sports memorabilia show to the mix.	167940524	1476467996930	1476467997064	o	79
328282	3535151	Add a Star Trek convention and sports memorabilia show to the mix.	Add a Star Trek convention and sports memorabilia show to the mix.	167940630	1476467997309	1476467997452	r	82
328282	3535151	Add a Star Trek convention and sports memorabilia show to the mix.	Add a Star Trek convention and sports memorabilia show to the mix.	167940635	1476467997443	1476467997566	t	84
328282	3535151	Add a Star Trek convention and sports memorabilia show to the mix.	Add a Star Trek convention and sports memorabilia show to the mix.	167940639	1476467997651	1476467997847	s	83
328282	3535151	Add a Star Trek convention and sports memorabilia show to the mix.	Add a Star Trek convention and sports memorabilia show to the mix.	167940647	1476467997792	1476467997912	 	32
328282	3535151	Add a Star Trek convention and sports memorabilia show to the mix.	Add a Star Trek convention and sports memorabilia show to the mix.	167940651	1476467998363	1476467998499	m	77
328282	3535151	Add a Star Trek convention and sports memorabilia show to the mix.	Add a Star Trek convention and sports memorabilia show to the mix.	167940791	1476467998515	1476467998684	e	69
328282	3535151	Add a Star Trek convention and sports memorabilia show to the mix.	Add a Star Trek convention and sports memorabilia show to the mix.	167940793	1476467998884	1476467999040	m	77
328282	3535151	Add a Star Trek convention and sports memorabilia show to the mix.	Add a Star Trek convention and sports memorabilia show to the mix.	167940796	1476467999106	1476467999262	o	79
328282	3535151	Add a Star Trek convention and sports memorabilia show to the mix.	Add a Star Trek convention and sports memorabilia show to the mix.	167940801	1476467999346	1476467999525	r	82
328282	3535151	Add a Star Trek convention and sports memorabilia show to the mix.	Add a Star Trek convention and sports memorabilia show to the mix.	167940805	1476468000218	1476468000475	a	65
328282	3535151	Add a Star Trek convention and sports memorabilia show to the mix.	Add a Star Trek convention and sports memorabilia show to the mix.	167941020	1476468000935	1476468001066	b	66
328282	3535151	Add a Star Trek convention and sports memorabilia show to the mix.	Add a Star Trek convention and sports memorabilia show to the mix.	167941025	1476468001150	1476468001340	e	69
328282	3535151	Add a Star Trek convention and sports memorabilia show to the mix.	Add a Star Trek convention and sports memorabilia show to the mix.	167941029	1476468002823	1476468002931	i	73
328282	3535151	Add a Star Trek convention and sports memorabilia show to the mix.	Add a Star Trek convention and sports memorabilia show to the mix.	167941034	1476468003075	1476468003215	l	76
328282	3535151	Add a Star Trek convention and sports memorabilia show to the mix.	Add a Star Trek convention and sports memorabilia show to the mix.	167941040	1476468003542	1476468003699	i	73
328282	3535151	Add a Star Trek convention and sports memorabilia show to the mix.	Add a Star Trek convention and sports memorabilia show to the mix.	167941412	1476468003692	1476468003920	a	65
328282	3535151	Add a Star Trek convention and sports memorabilia show to the mix.	Add a Star Trek convention and sports memorabilia show to the mix.	167941419	1476468003851	1476468003979	 	32
328282	3535151	Add a Star Trek convention and sports memorabilia show to the mix.	Add a Star Trek convention and sports memorabilia show to the mix.	167941427	1476468004589	1476468005301	BKSP	8
328282	3535151	Add a Star Trek convention and sports memorabilia show to the mix.	Add a Star Trek convention and sports memorabilia show to the mix.	167941434	1476468008594	1476468008680	i	73
328282	3535151	Add a Star Trek convention and sports memorabilia show to the mix.	Add a Star Trek convention and sports memorabilia show to the mix.	167941440	1476468008801	1476468009026	l	76
328282	3535151	Add a Star Trek convention and sports memorabilia show to the mix.	Add a Star Trek convention and sports memorabilia show to the mix.	167941444	1476468008981	1476468009114	i	73
328282	3535151	Add a Star Trek convention and sports memorabilia show to the mix.	Add a Star Trek convention and sports memorabilia show to the mix.	167941538	1476468009101	1476468009317	a	65
328282	3535151	Add a Star Trek convention and sports memorabilia show to the mix.	Add a Star Trek convention and sports memorabilia show to the mix.	167941544	1476468009202	1476468009379	 	32
328282	3535151	Add a Star Trek convention and sports memorabilia show to the mix.	Add a Star Trek convention and sports memorabilia show to the mix.	167941551	1476468010030	1476468010235	s	83
328282	3535151	Add a Star Trek convention and sports memorabilia show to the mix.	Add a Star Trek convention and sports memorabilia show to the mix.	167941554	1476468010170	1476468010277	h	72
328282	3535151	Add a Star Trek convention and sports memorabilia show to the mix.	Add a Star Trek convention and sports memorabilia show to the mix.	167941558	1476468010425	1476468010542	o	79
328282	3535151	Add a Star Trek convention and sports memorabilia show to the mix.	Add a Star Trek convention and sports memorabilia show to the mix.	167941652	1476468010507	1476468010682	w	87
328282	3535151	Add a Star Trek convention and sports memorabilia show to the mix.	Add a Star Trek convention and sports memorabilia show to the mix.	167941656	1476468010617	1476468010803	 	32
328282	3535151	Add a Star Trek convention and sports memorabilia show to the mix.	Add a Star Trek convention and sports memorabilia show to the mix.	167941662	1476468011391	1476468011570	t	84
328282	3535151	Add a Star Trek convention and sports memorabilia show to the mix.	Add a Star Trek convention and sports memorabilia show to the mix.	167941664	1476468011544	1476468011665	o	79
328282	3535151	Add a Star Trek convention and sports memorabilia show to the mix.	Add a Star Trek convention and sports memorabilia show to the mix.	167941666	1476468011733	1476468011879	 	32
328282	3535151	Add a Star Trek convention and sports memorabilia show to the mix.	Add a Star Trek convention and sports memorabilia show to the mix.	167941737	1476468011828	1476468012019	t	84
328282	3535151	Add a Star Trek convention and sports memorabilia show to the mix.	Add a Star Trek convention and sports memorabilia show to the mix.	167941740	1476468011990	1476468012097	h	72
328282	3535151	Add a Star Trek convention and sports memorabilia show to the mix.	Add a Star Trek convention and sports memorabilia show to the mix.	167941743	1476468012062	1476468012284	e	69
328282	3535151	Add a Star Trek convention and sports memorabilia show to the mix.	Add a Star Trek convention and sports memorabilia show to the mix.	167941746	1476468012186	1476468012340	 	32
328282	3535151	Add a Star Trek convention and sports memorabilia show to the mix.	Add a Star Trek convention and sports memorabilia show to the mix.	167941750	1476468013000	1476468013114	m	77
328282	3535151	Add a Star Trek convention and sports memorabilia show to the mix.	Add a Star Trek convention and sports memorabilia show to the mix.	167941753	1476468013236	1476468013364	i	73
328282	3535151	Add a Star Trek convention and sports memorabilia show to the mix.	Add a Star Trek convention and sports memorabilia show to the mix.	167941817	1476468013770	1476468013982	x	88
328282	3535211	It should save the taxpayers a considerable amount of money.	It should save the taxpayers a considerable amount of money.	167943154	1476468014349	1476468033135	.	190
328282	3535211	It should save the taxpayers a considerable amount of money.	It should save the taxpayers a considerable amount of money.	167942053	1476468016164	1476468016620	SHIFT	16
328282	3535211	It should save the taxpayers a considerable amount of money.	It should save the taxpayers a considerable amount of money.	167942058	1476468016510	1476468016649	I	73
328282	3535211	It should save the taxpayers a considerable amount of money.	It should save the taxpayers a considerable amount of money.	167942061	1476468016830	1476468016993	t	84
328282	3535211	It should save the taxpayers a considerable amount of money.	It should save the taxpayers a considerable amount of money.	167942063	1476468016951	1476468017101	 	32
328282	3535211	It should save the taxpayers a considerable amount of money.	It should save the taxpayers a considerable amount of money.	167942066	1476468017523	1476468017755	s	83
328282	3535211	It should save the taxpayers a considerable amount of money.	It should save the taxpayers a considerable amount of money.	167942119	1476468017677	1476468017820	h	72
328282	3535211	It should save the taxpayers a considerable amount of money.	It should save the taxpayers a considerable amount of money.	167942125	1476468017920	1476468018081	o	79
328282	3535211	It should save the taxpayers a considerable amount of money.	It should save the taxpayers a considerable amount of money.	167942133	1476468018094	1476468018264	u	85
328282	3535211	It should save the taxpayers a considerable amount of money.	It should save the taxpayers a considerable amount of money.	167942140	1476468018346	1476468018507	l	76
328282	3535211	It should save the taxpayers a considerable amount of money.	It should save the taxpayers a considerable amount of money.	167942144	1476468018472	1476468018638	d	68
328282	3535211	It should save the taxpayers a considerable amount of money.	It should save the taxpayers a considerable amount of money.	167942180	1476468018570	1476468018723	 	32
328282	3535211	It should save the taxpayers a considerable amount of money.	It should save the taxpayers a considerable amount of money.	167942188	1476468018840	1476468019021	h	72
328282	3535211	It should save the taxpayers a considerable amount of money.	It should save the taxpayers a considerable amount of money.	167942198	1476468018864	1476468019106	a	65
328282	3535211	It should save the taxpayers a considerable amount of money.	It should save the taxpayers a considerable amount of money.	167942208	1476468019113	1476468019242	v	86
328282	3535211	It should save the taxpayers a considerable amount of money.	It should save the taxpayers a considerable amount of money.	167942213	1476468019249	1476468019443	e	69
328282	3535211	It should save the taxpayers a considerable amount of money.	It should save the taxpayers a considerable amount of money.	167942360	1476468019432	1476468019566	 	32
328282	3535211	It should save the taxpayers a considerable amount of money.	It should save the taxpayers a considerable amount of money.	167942365	1476468019920	1476468020017	BKSP	8
328282	3535211	It should save the taxpayers a considerable amount of money.	It should save the taxpayers a considerable amount of money.	167942371	1476468020098	1476468020177	BKSP	8
328282	3535211	It should save the taxpayers a considerable amount of money.	It should save the taxpayers a considerable amount of money.	167942378	1476468020239	1476468020314	BKSP	8
328282	3535211	It should save the taxpayers a considerable amount of money.	It should save the taxpayers a considerable amount of money.	167942385	1476468020383	1476468020478	BKSP	8
328282	3535211	It should save the taxpayers a considerable amount of money.	It should save the taxpayers a considerable amount of money.	167942390	1476468020540	1476468020651	BKSP	8
328282	3535211	It should save the taxpayers a considerable amount of money.	It should save the taxpayers a considerable amount of money.	167942392	1476468021082	1476468021258	s	83
328282	3535211	It should save the taxpayers a considerable amount of money.	It should save the taxpayers a considerable amount of money.	167942393	1476468021320	1476468021489	a	65
328282	3535211	It should save the taxpayers a considerable amount of money.	It should save the taxpayers a considerable amount of money.	167942394	1476468021382	1476468021521	v	86
328282	3535211	It should save the taxpayers a considerable amount of money.	It should save the taxpayers a considerable amount of money.	167942397	1476468021587	1476468021753	e	69
328282	3535211	It should save the taxpayers a considerable amount of money.	It should save the taxpayers a considerable amount of money.	167942465	1476468021652	1476468021766	 	32
328282	3535211	It should save the taxpayers a considerable amount of money.	It should save the taxpayers a considerable amount of money.	167942470	1476468022173	1476468022278	t	84
328282	3535211	It should save the taxpayers a considerable amount of money.	It should save the taxpayers a considerable amount of money.	167942476	1476468022356	1476468022545	h	72
328282	3535211	It should save the taxpayers a considerable amount of money.	It should save the taxpayers a considerable amount of money.	167942483	1476468022480	1476468022637	e	69
328282	3535211	It should save the taxpayers a considerable amount of money.	It should save the taxpayers a considerable amount of money.	167942489	1476468022578	1476468022803	 	32
328282	3535211	It should save the taxpayers a considerable amount of money.	It should save the taxpayers a considerable amount of money.	167942494	1476468023045	1476468023172	t	84
328282	3535211	It should save the taxpayers a considerable amount of money.	It should save the taxpayers a considerable amount of money.	167942561	1476468023231	1476468023489	a	65
328282	3535211	It should save the taxpayers a considerable amount of money.	It should save the taxpayers a considerable amount of money.	167942564	1476468023611	1476468023847	x	88
328282	3535211	It should save the taxpayers a considerable amount of money.	It should save the taxpayers a considerable amount of money.	167942567	1476468023951	1476468024153	p	80
328282	3535211	It should save the taxpayers a considerable amount of money.	It should save the taxpayers a considerable amount of money.	167942569	1476468024128	1476468024345	a	65
328282	3535211	It should save the taxpayers a considerable amount of money.	It should save the taxpayers a considerable amount of money.	167942642	1476468024297	1476468024420	y	89
328282	3535211	It should save the taxpayers a considerable amount of money.	It should save the taxpayers a considerable amount of money.	167942647	1476468024493	1476468024734	e	69
328282	3535211	It should save the taxpayers a considerable amount of money.	It should save the taxpayers a considerable amount of money.	167942652	1476468024692	1476468024841	r	82
328282	3535211	It should save the taxpayers a considerable amount of money.	It should save the taxpayers a considerable amount of money.	167942659	1476468024894	1476468025129	s	83
328282	3535211	It should save the taxpayers a considerable amount of money.	It should save the taxpayers a considerable amount of money.	167942667	1476468025051	1476468025214	 	32
328282	3535211	It should save the taxpayers a considerable amount of money.	It should save the taxpayers a considerable amount of money.	167942673	1476468025266	1476468025521	a	65
328282	3535211	It should save the taxpayers a considerable amount of money.	It should save the taxpayers a considerable amount of money.	167942771	1476468025427	1476468025580	 	32
328282	3535211	It should save the taxpayers a considerable amount of money.	It should save the taxpayers a considerable amount of money.	167942775	1476468026211	1476468026396	c	67
328282	3535211	It should save the taxpayers a considerable amount of money.	It should save the taxpayers a considerable amount of money.	167942778	1476468026381	1476468026491	o	79
328282	3535211	It should save the taxpayers a considerable amount of money.	It should save the taxpayers a considerable amount of money.	167942782	1476468026588	1476468026731	n	78
328282	3535211	It should save the taxpayers a considerable amount of money.	It should save the taxpayers a considerable amount of money.	167942786	1476468026883	1476468027072	s	83
328282	3535211	It should save the taxpayers a considerable amount of money.	It should save the taxpayers a considerable amount of money.	167942790	1476468027093	1476468027201	i	73
328282	3535211	It should save the taxpayers a considerable amount of money.	It should save the taxpayers a considerable amount of money.	167942829	1476468027353	1476468027544	d	68
328282	3535211	It should save the taxpayers a considerable amount of money.	It should save the taxpayers a considerable amount of money.	167942832	1476468027532	1476468027751	e	69
328282	3535211	It should save the taxpayers a considerable amount of money.	It should save the taxpayers a considerable amount of money.	167942839	1476468027756	1476468027920	r	82
328282	3535211	It should save the taxpayers a considerable amount of money.	It should save the taxpayers a considerable amount of money.	167942847	1476468028008	1476468028244	a	65
328282	3535211	It should save the taxpayers a considerable amount of money.	It should save the taxpayers a considerable amount of money.	167942912	1476468028141	1476468028274	b	66
328282	3535211	It should save the taxpayers a considerable amount of money.	It should save the taxpayers a considerable amount of money.	167942917	1476468028320	1476468028513	l	76
328282	3535211	It should save the taxpayers a considerable amount of money.	It should save the taxpayers a considerable amount of money.	167942924	1476468028444	1476468028646	e	69
328282	3535211	It should save the taxpayers a considerable amount of money.	It should save the taxpayers a considerable amount of money.	167942930	1476468028562	1476468028719	 	32
328282	3535211	It should save the taxpayers a considerable amount of money.	It should save the taxpayers a considerable amount of money.	167942935	1476468028824	1476468029144	a	65
328282	3535211	It should save the taxpayers a considerable amount of money.	It should save the taxpayers a considerable amount of money.	167942939	1476468029353	1476468029540	m	77
328282	3535211	It should save the taxpayers a considerable amount of money.	It should save the taxpayers a considerable amount of money.	167942966	1476468029755	1476468029902	o	79
328282	3535211	It should save the taxpayers a considerable amount of money.	It should save the taxpayers a considerable amount of money.	167942969	1476468029998	1476468030128	u	85
328282	3535211	It should save the taxpayers a considerable amount of money.	It should save the taxpayers a considerable amount of money.	167942972	1476468030231	1476468030393	n	78
328282	3535211	It should save the taxpayers a considerable amount of money.	It should save the taxpayers a considerable amount of money.	167942975	1476468030375	1476468030532	t	84
328282	3535211	It should save the taxpayers a considerable amount of money.	It should save the taxpayers a considerable amount of money.	167943065	1476468030515	1476468030603	 	32
328282	3535211	It should save the taxpayers a considerable amount of money.	It should save the taxpayers a considerable amount of money.	167943068	1476468030835	1476468030967	o	79
328282	3535211	It should save the taxpayers a considerable amount of money.	It should save the taxpayers a considerable amount of money.	167943082	1476468030946	1476468031154	f	70
328282	3535211	It should save the taxpayers a considerable amount of money.	It should save the taxpayers a considerable amount of money.	167943091	1476468031040	1476468031203	 	32
328282	3535211	It should save the taxpayers a considerable amount of money.	It should save the taxpayers a considerable amount of money.	167943099	1476468031646	1476468031743	m	77
328282	3535211	It should save the taxpayers a considerable amount of money.	It should save the taxpayers a considerable amount of money.	167943105	1476468031863	1476468031988	o	79
328282	3535211	It should save the taxpayers a considerable amount of money.	It should save the taxpayers a considerable amount of money.	167943144	1476468032066	1476468032184	n	78
328282	3535211	It should save the taxpayers a considerable amount of money.	It should save the taxpayers a considerable amount of money.	167943146	1476468032252	1476468032454	e	69
328282	3535211	It should save the taxpayers a considerable amount of money.	It should save the taxpayers a considerable amount of money.	167943150	1476468032344	1476468032519	y	89
328282	3535238	I am working with Mary Joyce on that right now.	I am working with Mary Joyce on that right now.	167943280	1476468035045	1476468035426	SHIFT	16
328282	3535238	I am working with Mary Joyce on that right now.	I am working with Mary Joyce on that right now.	167943275	1476468035303	1476468035403	I	73
328282	3535238	I am working with Mary Joyce on that right now.	I am working with Mary Joyce on that right now.	167943285	1476468035458	1476468035589	 	32
328282	3535238	I am working with Mary Joyce on that right now.	I am working with Mary Joyce on that right now.	167943292	1476468035612	1476468035840	a	65
328282	3535238	I am working with Mary Joyce on that right now.	I am working with Mary Joyce on that right now.	167943289	1476468035681	1476468035791	m	77
328282	3535238	I am working with Mary Joyce on that right now.	I am working with Mary Joyce on that right now.	167943382	1476468035828	1476468035978	 	32
328282	3535238	I am working with Mary Joyce on that right now.	I am working with Mary Joyce on that right now.	167943385	1476468036427	1476468036593	q	87
328282	3535238	I am working with Mary Joyce on that right now.	I am working with Mary Joyce on that right now.	167943387	1476468037092	1476468037202	o	79
328282	3535238	I am working with Mary Joyce on that right now.	I am working with Mary Joyce on that right now.	167943389	1476468037351	1476468037503	r	82
328282	3535238	I am working with Mary Joyce on that right now.	I am working with Mary Joyce on that right now.	167943471	1476468037468	1476468037590	k	75
328282	3535238	I am working with Mary Joyce on that right now.	I am working with Mary Joyce on that right now.	167943477	1476468037691	1476468037818	i	73
328282	3535238	I am working with Mary Joyce on that right now.	I am working with Mary Joyce on that right now.	167943485	1476468037870	1476468037977	n	78
328282	3535238	I am working with Mary Joyce on that right now.	I am working with Mary Joyce on that right now.	167943492	1476468038006	1476468038149	g	71
328282	3535238	I am working with Mary Joyce on that right now.	I am working with Mary Joyce on that right now.	167943500	1476468038130	1476468038277	 	32
328282	3535238	I am working with Mary Joyce on that right now.	I am working with Mary Joyce on that right now.	167943508	1476468038808	1476468038977	w	87
328282	3535238	I am working with Mary Joyce on that right now.	I am working with Mary Joyce on that right now.	167943535	1476468038948	1476468039068	i	73
328282	3535238	I am working with Mary Joyce on that right now.	I am working with Mary Joyce on that right now.	167943537	1476468039172	1476468039354	t	84
328282	3535238	I am working with Mary Joyce on that right now.	I am working with Mary Joyce on that right now.	167943539	1476468039246	1476468039355	h	72
328282	3535238	I am working with Mary Joyce on that right now.	I am working with Mary Joyce on that right now.	167943541	1476468039401	1476468039557	 	32
328282	3535238	I am working with Mary Joyce on that right now.	I am working with Mary Joyce on that right now.	167943545	1476468039661	1476468040029	SHIFT	16
328282	3535238	I am working with Mary Joyce on that right now.	I am working with Mary Joyce on that right now.	167943543	1476468039877	1476468039978	M	77
328282	3535238	I am working with Mary Joyce on that right now.	I am working with Mary Joyce on that right now.	167943678	1476468039997	1476468040193	A	65
328282	3535238	I am working with Mary Joyce on that right now.	I am working with Mary Joyce on that right now.	167943680	1476468040324	1476468040499	r	82
328282	3535238	I am working with Mary Joyce on that right now.	I am working with Mary Joyce on that right now.	167943682	1476468040398	1476468040509	y	89
328282	3535238	I am working with Mary Joyce on that right now.	I am working with Mary Joyce on that right now.	167943685	1476468040545	1476468040705	 	32
328282	3535238	I am working with Mary Joyce on that right now.	I am working with Mary Joyce on that right now.	167943689	1476468041090	1476468041171	BKSP	8
328282	3535238	I am working with Mary Joyce on that right now.	I am working with Mary Joyce on that right now.	167943693	1476468041240	1476468041324	BKSP	8
328282	3535238	I am working with Mary Joyce on that right now.	I am working with Mary Joyce on that right now.	167943698	1476468041373	1476468041471	BKSP	8
328282	3535238	I am working with Mary Joyce on that right now.	I am working with Mary Joyce on that right now.	167943704	1476468041537	1476468041618	BKSP	8
328282	3535238	I am working with Mary Joyce on that right now.	I am working with Mary Joyce on that right now.	167943709	1476468041804	1476468041982	a	65
328282	3535238	I am working with Mary Joyce on that right now.	I am working with Mary Joyce on that right now.	167943713	1476468042175	1476468042335	r	82
328282	3535238	I am working with Mary Joyce on that right now.	I am working with Mary Joyce on that right now.	167943823	1476468042330	1476468042454	y	89
328282	3535238	I am working with Mary Joyce on that right now.	I am working with Mary Joyce on that right now.	167943827	1476468042513	1476468042637	 	32
328282	3535238	I am working with Mary Joyce on that right now.	I am working with Mary Joyce on that right now.	167943833	1476468042786	1476468043445	SHIFT	16
328282	3535238	I am working with Mary Joyce on that right now.	I am working with Mary Joyce on that right now.	167943832	1476468043308	1476468043409	J	74
328282	3535238	I am working with Mary Joyce on that right now.	I am working with Mary Joyce on that right now.	167943839	1476468043809	1476468043991	o	79
328282	3535238	I am working with Mary Joyce on that right now.	I am working with Mary Joyce on that right now.	167943845	1476468044129	1476468044269	y	89
328282	3535238	I am working with Mary Joyce on that right now.	I am working with Mary Joyce on that right now.	167943849	1476468044591	1476468044809	c	67
328282	3535238	I am working with Mary Joyce on that right now.	I am working with Mary Joyce on that right now.	167944285	1476468044748	1476468044943	e	69
328282	3535238	I am working with Mary Joyce on that right now.	I am working with Mary Joyce on that right now.	167944286	1476468044989	1476468045142	 	32
328282	3535238	I am working with Mary Joyce on that right now.	I am working with Mary Joyce on that right now.	167944290	1476468046166	1476468046309	BKSP	8
328282	3535238	I am working with Mary Joyce on that right now.	I am working with Mary Joyce on that right now.	167944294	1476468046456	1476468046553	BKSP	8
328282	3535238	I am working with Mary Joyce on that right now.	I am working with Mary Joyce on that right now.	167944300	1476468046654	1476468046719	BKSP	8
328282	3535238	I am working with Mary Joyce on that right now.	I am working with Mary Joyce on that right now.	167944308	1476468046778	1476468046902	BKSP	8
328282	3535238	I am working with Mary Joyce on that right now.	I am working with Mary Joyce on that right now.	167944315	1476468049672	1476468051086	BKSP	8
328282	3535238	I am working with Mary Joyce on that right now.	I am working with Mary Joyce on that right now.	167944321	1476468051417	1476468051524	BKSP	8
328282	3535238	I am working with Mary Joyce on that right now.	I am working with Mary Joyce on that right now.	167944325	1476468051912	1476468052055	o	79
328282	3535238	I am working with Mary Joyce on that right now.	I am working with Mary Joyce on that right now.	167944329	1476468052219	1476468052407	r	82
328282	3535238	I am working with Mary Joyce on that right now.	I am working with Mary Joyce on that right now.	167944333	1476468052398	1476468052515	k	75
328282	3535238	I am working with Mary Joyce on that right now.	I am working with Mary Joyce on that right now.	167944336	1476468052587	1476468052705	i	73
328282	3535238	I am working with Mary Joyce on that right now.	I am working with Mary Joyce on that right now.	167944347	1476468052776	1476468052850	n	78
328282	3535238	I am working with Mary Joyce on that right now.	I am working with Mary Joyce on that right now.	167944350	1476468052831	1476468052972	g	71
328282	3535238	I am working with Mary Joyce on that right now.	I am working with Mary Joyce on that right now.	167944352	1476468052988	1476468053118	 	32
328282	3535238	I am working with Mary Joyce on that right now.	I am working with Mary Joyce on that right now.	167944355	1476468053321	1476468053504	w	87
328282	3535238	I am working with Mary Joyce on that right now.	I am working with Mary Joyce on that right now.	167944360	1476468053510	1476468053640	i	73
328282	3535238	I am working with Mary Joyce on that right now.	I am working with Mary Joyce on that right now.	167944411	1476468053660	1476468053849	t	84
328282	3535238	I am working with Mary Joyce on that right now.	I am working with Mary Joyce on that right now.	167944412	1476468053800	1476468053921	h	72
328282	3535238	I am working with Mary Joyce on that right now.	I am working with Mary Joyce on that right now.	167944413	1476468054051	1476468054211	 	32
328282	3535238	I am working with Mary Joyce on that right now.	I am working with Mary Joyce on that right now.	167944415	1476468054324	1476468054641	SHIFT	16
328282	3535238	I am working with Mary Joyce on that right now.	I am working with Mary Joyce on that right now.	167944414	1476468054520	1476468054625	M	77
328282	3535238	I am working with Mary Joyce on that right now.	I am working with Mary Joyce on that right now.	167944416	1476468054677	1476468054876	a	65
328282	3535238	I am working with Mary Joyce on that right now.	I am working with Mary Joyce on that right now.	167944503	1476468055276	1476468055407	r	82
328282	3535238	I am working with Mary Joyce on that right now.	I am working with Mary Joyce on that right now.	167944506	1476468055325	1476468055417	y	89
328282	3535238	I am working with Mary Joyce on that right now.	I am working with Mary Joyce on that right now.	167944509	1476468055492	1476468055666	 	32
328282	3535238	I am working with Mary Joyce on that right now.	I am working with Mary Joyce on that right now.	167944593	1476468055970	1476468057075	SHIFT	16
328282	3535238	I am working with Mary Joyce on that right now.	I am working with Mary Joyce on that right now.	167944512	1476468056152	1476468056234	H	72
328282	3535238	I am working with Mary Joyce on that right now.	I am working with Mary Joyce on that right now.	167944518	1476468056583	1476468056703	BKSP	8
328282	3535238	I am working with Mary Joyce on that right now.	I am working with Mary Joyce on that right now.	167944525	1476468056945	1476468057035	J	74
328282	3535238	I am working with Mary Joyce on that right now.	I am working with Mary Joyce on that right now.	167944598	1476468057285	1476468057432	o	79
328282	3535238	I am working with Mary Joyce on that right now.	I am working with Mary Joyce on that right now.	167944606	1476468057832	1476468057972	y	89
328282	3535238	I am working with Mary Joyce on that right now.	I am working with Mary Joyce on that right now.	167944611	1476468058059	1476468058248	c	67
328282	3535238	I am working with Mary Joyce on that right now.	I am working with Mary Joyce on that right now.	167944619	1476468058190	1476468058395	e	69
328282	3535238	I am working with Mary Joyce on that right now.	I am working with Mary Joyce on that right now.	167944669	1476468058349	1476468058479	 	32
328282	3535238	I am working with Mary Joyce on that right now.	I am working with Mary Joyce on that right now.	167944670	1476468058824	1476468058961	o	79
328282	3535238	I am working with Mary Joyce on that right now.	I am working with Mary Joyce on that right now.	167944671	1476468059020	1476468059101	n	78
328282	3535238	I am working with Mary Joyce on that right now.	I am working with Mary Joyce on that right now.	167944672	1476468059179	1476468059323	 	32
328282	3535238	I am working with Mary Joyce on that right now.	I am working with Mary Joyce on that right now.	167944674	1476468059352	1476468059501	t	84
328282	3535238	I am working with Mary Joyce on that right now.	I am working with Mary Joyce on that right now.	167944776	1476468059463	1476468059623	h	72
328282	3535238	I am working with Mary Joyce on that right now.	I am working with Mary Joyce on that right now.	167944780	1476468059567	1476468059740	e	69
328282	3535238	I am working with Mary Joyce on that right now.	I am working with Mary Joyce on that right now.	167944782	1476468060358	1476468060471	BKSP	8
328282	3535238	I am working with Mary Joyce on that right now.	I am working with Mary Joyce on that right now.	167944785	1476468060608	1476468060868	a	65
328282	3535238	I am working with Mary Joyce on that right now.	I am working with Mary Joyce on that right now.	167944788	1476468060747	1476468060868	t	84
328282	3535238	I am working with Mary Joyce on that right now.	I am working with Mary Joyce on that right now.	167944791	1476468060927	1476468061067	 	32
328282	3535238	I am working with Mary Joyce on that right now.	I am working with Mary Joyce on that right now.	167944797	1476468061381	1476468061495	w	87
328282	3535238	I am working with Mary Joyce on that right now.	I am working with Mary Joyce on that right now.	167944864	1476468061902	1476468062045	BKSP	8
328282	3535238	I am working with Mary Joyce on that right now.	I am working with Mary Joyce on that right now.	167944866	1476468062206	1476468062369	r	82
328282	3535238	I am working with Mary Joyce on that right now.	I am working with Mary Joyce on that right now.	167944868	1476468062370	1476468062476	i	73
328282	3535238	I am working with Mary Joyce on that right now.	I am working with Mary Joyce on that right now.	167944871	1476468062586	1476468062749	g	71
328282	3535238	I am working with Mary Joyce on that right now.	I am working with Mary Joyce on that right now.	167944874	1476468062674	1476468062784	h	72
328282	3535238	I am working with Mary Joyce on that right now.	I am working with Mary Joyce on that right now.	167944933	1476468062762	1476468062925	t	84
328282	3535238	I am working with Mary Joyce on that right now.	I am working with Mary Joyce on that right now.	167944936	1476468062870	1476468062986	 	32
328282	3535238	I am working with Mary Joyce on that right now.	I am working with Mary Joyce on that right now.	167944941	1476468063118	1476468063238	n	78
328282	3535238	I am working with Mary Joyce on that right now.	I am working with Mary Joyce on that right now.	167944945	1476468063327	1476468063457	o	79
328282	3535238	I am working with Mary Joyce on that right now.	I am working with Mary Joyce on that right now.	167944950	1476468063382	1476468063552	w	87
328282	3535238	I am working with Mary Joyce on that right now.	I am working with Mary Joyce on that right now.	167944953	1476468063820	1476468063953	.	190
328282	3535269	I can review afterwards and get back to you tonight.	I can review afterwards and get back to you tonight.	167945083	1476468065593	1476468066294	SHIFT	16
328282	3535269	I can review afterwards and get back to you tonight.	I can review afterwards and get back to you tonight.	167945081	1476468066148	1476468066265	I	73
328282	3535269	I can review afterwards and get back to you tonight.	I can review afterwards and get back to you tonight.	167945085	1476468066340	1476468066461	 	32
328282	3535269	I can review afterwards and get back to you tonight.	I can review afterwards and get back to you tonight.	167945089	1476468066830	1476468067015	c	67
328282	3535269	I can review afterwards and get back to you tonight.	I can review afterwards and get back to you tonight.	167945138	1476468066954	1476468067197	a	65
328282	3535269	I can review afterwards and get back to you tonight.	I can review afterwards and get back to you tonight.	167945092	1476468067061	1476468067172	n	78
328282	3535269	I can review afterwards and get back to you tonight.	I can review afterwards and get back to you tonight.	167945142	1476468067237	1476468067383	 	32
328282	3535269	I can review afterwards and get back to you tonight.	I can review afterwards and get back to you tonight.	167945145	1476468067551	1476468067738	r	82
328282	3535269	I can review afterwards and get back to you tonight.	I can review afterwards and get back to you tonight.	167945149	1476468067719	1476468067886	e	69
328282	3535269	I can review afterwards and get back to you tonight.	I can review afterwards and get back to you tonight.	167945154	1476468068075	1476468068251	v	86
328282	3535269	I can review afterwards and get back to you tonight.	I can review afterwards and get back to you tonight.	167945156	1476468068310	1476468068444	i	73
328282	3535269	I can review afterwards and get back to you tonight.	I can review afterwards and get back to you tonight.	167945222	1476468068457	1476468068623	e	69
328282	3535269	I can review afterwards and get back to you tonight.	I can review afterwards and get back to you tonight.	167945225	1476468068872	1476468069089	w	87
328282	3535269	I can review afterwards and get back to you tonight.	I can review afterwards and get back to you tonight.	167945228	1476468069025	1476468069184	 	32
328282	3535269	I can review afterwards and get back to you tonight.	I can review afterwards and get back to you tonight.	167945231	1476468069806	1476468069986	a	65
328282	3535269	I can review afterwards and get back to you tonight.	I can review afterwards and get back to you tonight.	167945235	1476468070032	1476468070191	f	70
328282	3535269	I can review afterwards and get back to you tonight.	I can review afterwards and get back to you tonight.	167945277	1476468070279	1476468070382	t	84
328282	3535269	I can review afterwards and get back to you tonight.	I can review afterwards and get back to you tonight.	167945280	1476468070435	1476468070621	e	69
328282	3535269	I can review afterwards and get back to you tonight.	I can review afterwards and get back to you tonight.	167945284	1476468070605	1476468070735	r	82
328282	3535269	I can review afterwards and get back to you tonight.	I can review afterwards and get back to you tonight.	167945289	1476468070935	1476468071127	w	87
328282	3535269	I can review afterwards and get back to you tonight.	I can review afterwards and get back to you tonight.	167945298	1476468071172	1476468071417	a	65
328282	3535269	I can review afterwards and get back to you tonight.	I can review afterwards and get back to you tonight.	167945375	1476468071763	1476468071891	r	82
328282	3535269	I can review afterwards and get back to you tonight.	I can review afterwards and get back to you tonight.	167945378	1476468071989	1476468072213	d	68
328282	3535269	I can review afterwards and get back to you tonight.	I can review afterwards and get back to you tonight.	167945383	1476468072163	1476468072392	s	83
328282	3535269	I can review afterwards and get back to you tonight.	I can review afterwards and get back to you tonight.	167945386	1476468072314	1476468072474	 	32
328282	3535269	I can review afterwards and get back to you tonight.	I can review afterwards and get back to you tonight.	167945388	1476468072599	1476468072843	a	65
328282	3535269	I can review afterwards and get back to you tonight.	I can review afterwards and get back to you tonight.	167945402	1476468072798	1476468072926	n	78
328282	3535269	I can review afterwards and get back to you tonight.	I can review afterwards and get back to you tonight.	167945405	1476468072915	1476468073100	d	68
328282	3535269	I can review afterwards and get back to you tonight.	I can review afterwards and get back to you tonight.	167945408	1476468073029	1476468073140	 	32
328282	3535269	I can review afterwards and get back to you tonight.	I can review afterwards and get back to you tonight.	167945412	1476468073248	1476468073362	g	71
328282	3535269	I can review afterwards and get back to you tonight.	I can review afterwards and get back to you tonight.	167945415	1476468073381	1476468073554	e	69
328282	3535269	I can review afterwards and get back to you tonight.	I can review afterwards and get back to you tonight.	167945475	1476468073480	1476468073594	t	84
328282	3535269	I can review afterwards and get back to you tonight.	I can review afterwards and get back to you tonight.	167945477	1476468073717	1476468073834	 	32
328282	3535269	I can review afterwards and get back to you tonight.	I can review afterwards and get back to you tonight.	167945483	1476468074050	1476468074151	b	66
328282	3535269	I can review afterwards and get back to you tonight.	I can review afterwards and get back to you tonight.	167945488	1476468074366	1476468074542	a	65
328282	3535269	I can review afterwards and get back to you tonight.	I can review afterwards and get back to you tonight.	167945493	1476468074663	1476468074807	c	67
328282	3535269	I can review afterwards and get back to you tonight.	I can review afterwards and get back to you tonight.	167945500	1476468074898	1476468075029	k	75
328282	3535269	I can review afterwards and get back to you tonight.	I can review afterwards and get back to you tonight.	167945552	1476468075256	1476468075425	 	32
328282	3535269	I can review afterwards and get back to you tonight.	I can review afterwards and get back to you tonight.	167945554	1476468075794	1476468075972	t	84
328282	3535269	I can review afterwards and get back to you tonight.	I can review afterwards and get back to you tonight.	167945557	1476468075956	1476468076051	o	79
328282	3535269	I can review afterwards and get back to you tonight.	I can review afterwards and get back to you tonight.	167945559	1476468076129	1476468076280	 	32
328282	3535269	I can review afterwards and get back to you tonight.	I can review afterwards and get back to you tonight.	167945623	1476468076272	1476468076458	y	89
328282	3535269	I can review afterwards and get back to you tonight.	I can review afterwards and get back to you tonight.	167945625	1476468076374	1476468076546	o	79
328282	3535269	I can review afterwards and get back to you tonight.	I can review afterwards and get back to you tonight.	167945630	1476468076598	1476468076759	u	85
328282	3535269	I can review afterwards and get back to you tonight.	I can review afterwards and get back to you tonight.	167945633	1476468076888	1476468077045	 	32
328282	3535269	I can review afterwards and get back to you tonight.	I can review afterwards and get back to you tonight.	167945635	1476468077375	1476468077512	t	84
328282	3535269	I can review afterwards and get back to you tonight.	I can review afterwards and get back to you tonight.	167945636	1476468077646	1476468077767	o	79
328282	3535269	I can review afterwards and get back to you tonight.	I can review afterwards and get back to you tonight.	167945665	1476468078010	1476468078170	n	78
328282	3535269	I can review afterwards and get back to you tonight.	I can review afterwards and get back to you tonight.	167945667	1476468078225	1476468078369	i	73
328282	3535269	I can review afterwards and get back to you tonight.	I can review afterwards and get back to you tonight.	167945670	1476468078447	1476468078636	g	71
328282	3535269	I can review afterwards and get back to you tonight.	I can review afterwards and get back to you tonight.	167945675	1476468078571	1476468078682	h	72
328282	3535269	I can review afterwards and get back to you tonight.	I can review afterwards and get back to you tonight.	167945707	1476468078665	1476468078842	t	84
328282	3535269	I can review afterwards and get back to you tonight.	I can review afterwards and get back to you tonight.	167945713	1476468079065	1476468079196	.	190
328282	3535285	Washington was not moving toward a unilateral lifting of the embargo.	Washington was not moving towrd a uniliateral lifting of the embargo.	167945877	1476468081066	1476468081582	SHIFT	16
328282	3535285	Washington was not moving toward a unilateral lifting of the embargo.	Washington was not moving towrd a uniliateral lifting of the embargo.	167945880	1476468081462	1476468081602	W	87
328282	3535285	Washington was not moving toward a unilateral lifting of the embargo.	Washington was not moving towrd a uniliateral lifting of the embargo.	167945883	1476468081692	1476468081891	a	65
328282	3535285	Washington was not moving toward a unilateral lifting of the embargo.	Washington was not moving towrd a uniliateral lifting of the embargo.	167945887	1476468081893	1476468082116	s	83
328282	3535285	Washington was not moving toward a unilateral lifting of the embargo.	Washington was not moving towrd a uniliateral lifting of the embargo.	167945889	1476468082104	1476468082224	h	72
328282	3535285	Washington was not moving toward a unilateral lifting of the embargo.	Washington was not moving towrd a uniliateral lifting of the embargo.	167945892	1476468082321	1476468082460	i	73
328282	3535285	Washington was not moving toward a unilateral lifting of the embargo.	Washington was not moving towrd a uniliateral lifting of the embargo.	167945932	1476468082532	1476468082679	n	78
328282	3535285	Washington was not moving toward a unilateral lifting of the embargo.	Washington was not moving towrd a uniliateral lifting of the embargo.	167945936	1476468082666	1476468082852	g	71
328282	3535285	Washington was not moving toward a unilateral lifting of the embargo.	Washington was not moving towrd a uniliateral lifting of the embargo.	167945941	1476468082954	1476468083124	t	84
328282	3535285	Washington was not moving toward a unilateral lifting of the embargo.	Washington was not moving towrd a uniliateral lifting of the embargo.	167945947	1476468083110	1476468083254	o	79
328282	3535285	Washington was not moving toward a unilateral lifting of the embargo.	Washington was not moving towrd a uniliateral lifting of the embargo.	167945949	1476468083299	1476468083417	n	78
328282	3535285	Washington was not moving toward a unilateral lifting of the embargo.	Washington was not moving towrd a uniliateral lifting of the embargo.	167945994	1476468083548	1476468083681	 	32
328282	3535285	Washington was not moving toward a unilateral lifting of the embargo.	Washington was not moving towrd a uniliateral lifting of the embargo.	167945997	1476468084115	1476468084288	w	87
328282	3535285	Washington was not moving toward a unilateral lifting of the embargo.	Washington was not moving towrd a uniliateral lifting of the embargo.	167946001	1476468084304	1476468084588	a	65
328282	3535285	Washington was not moving toward a unilateral lifting of the embargo.	Washington was not moving towrd a uniliateral lifting of the embargo.	167946006	1476468084497	1476468084748	s	83
328282	3535285	Washington was not moving toward a unilateral lifting of the embargo.	Washington was not moving towrd a uniliateral lifting of the embargo.	167946032	1476468084689	1476468084819	 	32
328282	3535285	Washington was not moving toward a unilateral lifting of the embargo.	Washington was not moving towrd a uniliateral lifting of the embargo.	167946035	1476468084898	1476468085012	n	78
328282	3535285	Washington was not moving toward a unilateral lifting of the embargo.	Washington was not moving towrd a uniliateral lifting of the embargo.	167946040	1476468085106	1476468085233	o	79
328282	3535285	Washington was not moving toward a unilateral lifting of the embargo.	Washington was not moving towrd a uniliateral lifting of the embargo.	167946043	1476468085298	1476468085449	t	84
328282	3535285	Washington was not moving toward a unilateral lifting of the embargo.	Washington was not moving towrd a uniliateral lifting of the embargo.	167946047	1476468085357	1476468085527	 	32
328282	3535285	Washington was not moving toward a unilateral lifting of the embargo.	Washington was not moving towrd a uniliateral lifting of the embargo.	167946051	1476468085856	1476468085983	m	77
328282	3535285	Washington was not moving toward a unilateral lifting of the embargo.	Washington was not moving towrd a uniliateral lifting of the embargo.	167946097	1476468086072	1476468086209	o	79
328282	3535285	Washington was not moving toward a unilateral lifting of the embargo.	Washington was not moving towrd a uniliateral lifting of the embargo.	167946101	1476468086274	1476468086480	v	86
328282	3535285	Washington was not moving toward a unilateral lifting of the embargo.	Washington was not moving towrd a uniliateral lifting of the embargo.	167946105	1476468086892	1476468087006	i	73
328282	3535285	Washington was not moving toward a unilateral lifting of the embargo.	Washington was not moving towrd a uniliateral lifting of the embargo.	167946107	1476468087071	1476468087189	n	78
328282	3535285	Washington was not moving toward a unilateral lifting of the embargo.	Washington was not moving towrd a uniliateral lifting of the embargo.	167946209	1476468087183	1476468087349	g	71
328282	3535285	Washington was not moving toward a unilateral lifting of the embargo.	Washington was not moving towrd a uniliateral lifting of the embargo.	167946215	1476468087287	1476468087417	 	32
328282	3535285	Washington was not moving toward a unilateral lifting of the embargo.	Washington was not moving towrd a uniliateral lifting of the embargo.	167946219	1476468088016	1476468088163	t	84
328282	3535285	Washington was not moving toward a unilateral lifting of the embargo.	Washington was not moving towrd a uniliateral lifting of the embargo.	167946224	1476468088784	1476468088898	o	79
328282	3535285	Washington was not moving toward a unilateral lifting of the embargo.	Washington was not moving towrd a uniliateral lifting of the embargo.	167946227	1476468088994	1476468089148	w	87
328282	3535285	Washington was not moving toward a unilateral lifting of the embargo.	Washington was not moving towrd a uniliateral lifting of the embargo.	167946231	1476468089308	1476468089439	r	82
328282	3535285	Washington was not moving toward a unilateral lifting of the embargo.	Washington was not moving towrd a uniliateral lifting of the embargo.	167946285	1476468089522	1476468089692	d	68
328282	3535285	Washington was not moving toward a unilateral lifting of the embargo.	Washington was not moving towrd a uniliateral lifting of the embargo.	167946290	1476468089643	1476468089810	 	32
328282	3535285	Washington was not moving toward a unilateral lifting of the embargo.	Washington was not moving towrd a uniliateral lifting of the embargo.	167946294	1476468090024	1476468090255	a	65
328282	3535285	Washington was not moving toward a unilateral lifting of the embargo.	Washington was not moving towrd a uniliateral lifting of the embargo.	167946298	1476468090158	1476468090337	 	32
328282	3535285	Washington was not moving toward a unilateral lifting of the embargo.	Washington was not moving towrd a uniliateral lifting of the embargo.	167946304	1476468090858	1476468091005	i	73
328282	3535285	Washington was not moving toward a unilateral lifting of the embargo.	Washington was not moving towrd a uniliateral lifting of the embargo.	167946454	1476468091034	1476468091182	n	78
328282	3535285	Washington was not moving toward a unilateral lifting of the embargo.	Washington was not moving towrd a uniliateral lifting of the embargo.	167946456	1476468091926	1476468092038	BKSP	8
328282	3535285	Washington was not moving toward a unilateral lifting of the embargo.	Washington was not moving towrd a uniliateral lifting of the embargo.	167946459	1476468092094	1476468092218	BKSP	8
328282	3535285	Washington was not moving toward a unilateral lifting of the embargo.	Washington was not moving towrd a uniliateral lifting of the embargo.	167946461	1476468092405	1476468092529	u	85
328282	3535285	Washington was not moving toward a unilateral lifting of the embargo.	Washington was not moving towrd a uniliateral lifting of the embargo.	167946464	1476468092562	1476468092721	n	78
328282	3535285	Washington was not moving toward a unilateral lifting of the embargo.	Washington was not moving towrd a uniliateral lifting of the embargo.	167946467	1476468092738	1476468092888	i	73
328282	3535285	Washington was not moving toward a unilateral lifting of the embargo.	Washington was not moving towrd a uniliateral lifting of the embargo.	167946473	1476468093890	1476468094020	l	76
328282	3535285	Washington was not moving toward a unilateral lifting of the embargo.	Washington was not moving towrd a uniliateral lifting of the embargo.	167946528	1476468094117	1476468094261	i	73
328282	3535285	Washington was not moving toward a unilateral lifting of the embargo.	Washington was not moving towrd a uniliateral lifting of the embargo.	167946534	1476468094291	1476468094486	a	65
328282	3535285	Washington was not moving toward a unilateral lifting of the embargo.	Washington was not moving towrd a uniliateral lifting of the embargo.	167946538	1476468094777	1476468094910	t	84
328282	3535285	Washington was not moving toward a unilateral lifting of the embargo.	Washington was not moving towrd a uniliateral lifting of the embargo.	167946546	1476468095038	1476468095240	e	69
328282	3535285	Washington was not moving toward a unilateral lifting of the embargo.	Washington was not moving towrd a uniliateral lifting of the embargo.	167946611	1476468095195	1476468095346	r	82
328282	3535285	Washington was not moving toward a unilateral lifting of the embargo.	Washington was not moving towrd a uniliateral lifting of the embargo.	167946619	1476468095401	1476468095707	a	65
328282	3535285	Washington was not moving toward a unilateral lifting of the embargo.	Washington was not moving towrd a uniliateral lifting of the embargo.	167946614	1476468095525	1476468095684	l	76
328282	3535285	Washington was not moving toward a unilateral lifting of the embargo.	Washington was not moving towrd a uniliateral lifting of the embargo.	167946623	1476468095675	1476468095845	 	32
328282	3535285	Washington was not moving toward a unilateral lifting of the embargo.	Washington was not moving towrd a uniliateral lifting of the embargo.	167946630	1476468096548	1476468096669	l	76
328282	3535285	Washington was not moving toward a unilateral lifting of the embargo.	Washington was not moving towrd a uniliateral lifting of the embargo.	167946633	1476468096781	1476468096931	i	73
328282	3535285	Washington was not moving toward a unilateral lifting of the embargo.	Washington was not moving towrd a uniliateral lifting of the embargo.	167946676	1476468096971	1476468097078	f	70
328282	3535285	Washington was not moving toward a unilateral lifting of the embargo.	Washington was not moving towrd a uniliateral lifting of the embargo.	167946680	1476468097640	1476468097770	t	84
328282	3535285	Washington was not moving toward a unilateral lifting of the embargo.	Washington was not moving towrd a uniliateral lifting of the embargo.	167946687	1476468097790	1476468097901	i	73
328282	3535285	Washington was not moving toward a unilateral lifting of the embargo.	Washington was not moving towrd a uniliateral lifting of the embargo.	167946693	1476468097967	1476468098077	n	78
328282	3535285	Washington was not moving toward a unilateral lifting of the embargo.	Washington was not moving towrd a uniliateral lifting of the embargo.	167946787	1476468098051	1476468098205	g	71
328282	3535285	Washington was not moving toward a unilateral lifting of the embargo.	Washington was not moving towrd a uniliateral lifting of the embargo.	167946791	1476468098214	1476468098377	 	32
328282	3535285	Washington was not moving toward a unilateral lifting of the embargo.	Washington was not moving towrd a uniliateral lifting of the embargo.	167946796	1476468099280	1476468099411	o	79
328282	3535285	Washington was not moving toward a unilateral lifting of the embargo.	Washington was not moving towrd a uniliateral lifting of the embargo.	167946800	1476468099514	1476468099713	f	70
328282	3535285	Washington was not moving toward a unilateral lifting of the embargo.	Washington was not moving towrd a uniliateral lifting of the embargo.	167946805	1476468099647	1476468099811	 	32
328282	3535285	Washington was not moving toward a unilateral lifting of the embargo.	Washington was not moving towrd a uniliateral lifting of the embargo.	167946809	1476468099915	1476468100058	t	84
328282	3535285	Washington was not moving toward a unilateral lifting of the embargo.	Washington was not moving towrd a uniliateral lifting of the embargo.	167946899	1476468099996	1476468100125	h	72
328282	3535285	Washington was not moving toward a unilateral lifting of the embargo.	Washington was not moving towrd a uniliateral lifting of the embargo.	167946904	1476468100112	1476468100253	r	82
328282	3535285	Washington was not moving toward a unilateral lifting of the embargo.	Washington was not moving towrd a uniliateral lifting of the embargo.	167946908	1476468100162	1476468100362	 	32
328282	3535285	Washington was not moving toward a unilateral lifting of the embargo.	Washington was not moving towrd a uniliateral lifting of the embargo.	167946912	1476468100609	1476468100687	BKSP	8
328282	3535285	Washington was not moving toward a unilateral lifting of the embargo.	Washington was not moving towrd a uniliateral lifting of the embargo.	167946914	1476468100746	1476468100849	BKSP	8
328282	3535285	Washington was not moving toward a unilateral lifting of the embargo.	Washington was not moving towrd a uniliateral lifting of the embargo.	167946916	1476468100824	1476468101033	e	69
328282	3535285	Washington was not moving toward a unilateral lifting of the embargo.	Washington was not moving towrd a uniliateral lifting of the embargo.	167946918	1476468100981	1476468101122	 	32
328282	3535285	Washington was not moving toward a unilateral lifting of the embargo.	Washington was not moving towrd a uniliateral lifting of the embargo.	167946920	1476468101784	1476468101959	e	69
328282	3535285	Washington was not moving toward a unilateral lifting of the embargo.	Washington was not moving towrd a uniliateral lifting of the embargo.	167946963	1476468101966	1476468102087	m	77
328282	3535285	Washington was not moving toward a unilateral lifting of the embargo.	Washington was not moving towrd a uniliateral lifting of the embargo.	167946968	1476468102304	1476468102449	b	66
328282	3535285	Washington was not moving toward a unilateral lifting of the embargo.	Washington was not moving towrd a uniliateral lifting of the embargo.	167946971	1476468102428	1476468102659	a	65
328282	3535285	Washington was not moving toward a unilateral lifting of the embargo.	Washington was not moving towrd a uniliateral lifting of the embargo.	167946974	1476468102705	1476468102828	r	82
328282	3535285	Washington was not moving toward a unilateral lifting of the embargo.	Washington was not moving towrd a uniliateral lifting of the embargo.	167946976	1476468102961	1476468103157	g	71
328282	3535285	Washington was not moving toward a unilateral lifting of the embargo.	Washington was not moving towrd a uniliateral lifting of the embargo.	167946990	1476468103241	1476468103392	o	79
328282	3535314	His current status is day to day.	His current status is day to day.	167947494	1476468103935	1476468114902	.	190
328282	3535314	His current status is day to day.	His current status is day to day.	167947132	1476468106107	1476468106700	SHIFT	16
328282	3535314	His current status is day to day.	His current status is day to day.	167947125	1476468106550	1476468106700	H	72
328282	3535314	His current status is day to day.	His current status is day to day.	167947136	1476468106745	1476468106902	i	73
328282	3535314	His current status is day to day.	His current status is day to day.	167947139	1476468106794	1476468107017	s	83
328282	3535314	His current status is day to day.	His current status is day to day.	167947141	1476468106942	1476468107113	 	32
328282	3535314	His current status is day to day.	His current status is day to day.	167947142	1476468107510	1476468107699	c	67
328282	3535314	His current status is day to day.	His current status is day to day.	167947170	1476468107701	1476468107842	u	85
328282	3535314	His current status is day to day.	His current status is day to day.	167947173	1476468108017	1476468108181	r	82
328282	3535314	His current status is day to day.	His current status is day to day.	167947175	1476468108252	1476468108445	r	82
328282	3535314	His current status is day to day.	His current status is day to day.	167947178	1476468108472	1476468108683	e	69
328282	3535314	His current status is day to day.	His current status is day to day.	167947233	1476468108658	1476468108811	n	78
328282	3535314	His current status is day to day.	His current status is day to day.	167947236	1476468108725	1476468108908	t	84
328282	3535314	His current status is day to day.	His current status is day to day.	167947242	1476468108869	1476468109101	 	32
328282	3535314	His current status is day to day.	His current status is day to day.	167947247	1476468109526	1476468109724	s	83
328282	3535314	His current status is day to day.	His current status is day to day.	167947252	1476468109774	1476468109906	t	84
328282	3535314	His current status is day to day.	His current status is day to day.	167947352	1476468109898	1476468110122	a	65
328282	3535314	His current status is day to day.	His current status is day to day.	167947359	1476468110277	1476468110401	t	84
328282	3535314	His current status is day to day.	His current status is day to day.	167947365	1476468110541	1476468110747	u	85
328282	3535314	His current status is day to day.	His current status is day to day.	167947368	1476468111086	1476468111294	s	83
328282	3535314	His current status is day to day.	His current status is day to day.	167947371	1476468111295	1476468111439	 	32
328282	3535314	His current status is day to day.	His current status is day to day.	167947374	1476468111873	1476468112012	i	73
328282	3535314	His current status is day to day.	His current status is day to day.	167947389	1476468112026	1476468112208	s	83
328282	3535314	His current status is day to day.	His current status is day to day.	167947391	1476468112094	1476468112250	 	32
328282	3535314	His current status is day to day.	His current status is day to day.	167947395	1476468112333	1476468112529	d	68
328282	3535314	His current status is day to day.	His current status is day to day.	167947400	1476468112549	1476468112787	a	65
328282	3535314	His current status is day to day.	His current status is day to day.	167947451	1476468112673	1476468112823	y	89
328282	3535314	His current status is day to day.	His current status is day to day.	167947455	1476468112879	1476468113025	 	32
328282	3535314	His current status is day to day.	His current status is day to day.	167947458	1476468113100	1476468113254	t	84
328282	3535314	His current status is day to day.	His current status is day to day.	167947462	1476468113215	1476468113362	o	79
328282	3535314	His current status is day to day.	His current status is day to day.	167947465	1476468113472	1476468113632	 	32
328282	3535314	His current status is day to day.	His current status is day to day.	167947468	1476468113781	1476468114015	d	68
328282	3535314	His current status is day to day.	His current status is day to day.	167947492	1476468113993	1476468114202	y	65
328282	3535327	I wanted to go drinking with you.	I wanted to go drinking with you.	167947646	1476468116630	1476468117054	SHIFT	16
328282	3535327	I wanted to go drinking with you.	I wanted to go drinking with you.	167947639	1476468116894	1476468117021	I	73
328282	3535327	I wanted to go drinking with you.	I wanted to go drinking with you.	167947653	1476468117083	1476468117216	 	32
328282	3535327	I wanted to go drinking with you.	I wanted to go drinking with you.	167947659	1476468117246	1476468117353	w	87
328282	3535327	I wanted to go drinking with you.	I wanted to go drinking with you.	167947664	1476468117446	1476468117584	a	65
328282	3535327	I wanted to go drinking with you.	I wanted to go drinking with you.	167947699	1476468117522	1476468117652	n	78
328282	3535327	I wanted to go drinking with you.	I wanted to go drinking with you.	167947703	1476468117785	1476468117910	t	84
328282	3535327	I wanted to go drinking with you.	I wanted to go drinking with you.	167947705	1476468117906	1476468118124	e	69
328282	3535327	I wanted to go drinking with you.	I wanted to go drinking with you.	167947707	1476468118059	1476468118251	d	68
328282	3535327	I wanted to go drinking with you.	I wanted to go drinking with you.	167947711	1476468118180	1476468118309	 	32
328282	3535327	I wanted to go drinking with you.	I wanted to go drinking with you.	167947716	1476468118400	1476468118576	t	84
328282	3535327	I wanted to go drinking with you.	I wanted to go drinking with you.	167947786	1476468118508	1476468118658	o	79
328282	3535327	I wanted to go drinking with you.	I wanted to go drinking with you.	167947789	1476468118720	1476468118887	 	32
328282	3535327	I wanted to go drinking with you.	I wanted to go drinking with you.	167947795	1476468118959	1476468119138	g	71
328282	3535327	I wanted to go drinking with you.	I wanted to go drinking with you.	167947799	1476468119372	1476468119509	o	79
328282	3535327	I wanted to go drinking with you.	I wanted to go drinking with you.	167947801	1476468119584	1476468119737	 	32
328282	3535327	I wanted to go drinking with you.	I wanted to go drinking with you.	167947806	1476468119773	1476468119926	d	68
328282	3535327	I wanted to go drinking with you.	I wanted to go drinking with you.	167947855	1476468120054	1476468120230	r	82
328282	3535327	I wanted to go drinking with you.	I wanted to go drinking with you.	167947862	1476468120214	1476468120341	i	73
328282	3535327	I wanted to go drinking with you.	I wanted to go drinking with you.	167947866	1476468120386	1476468120504	n	78
328282	3535327	I wanted to go drinking with you.	I wanted to go drinking with you.	167947871	1476468120573	1476468120710	k	75
328282	3535327	I wanted to go drinking with you.	I wanted to go drinking with you.	167947876	1476468120823	1476468120957	i	73
328282	3535327	I wanted to go drinking with you.	I wanted to go drinking with you.	167947928	1476468121018	1476468121120	n	78
328282	3535327	I wanted to go drinking with you.	I wanted to go drinking with you.	167947931	1476468121206	1476468121346	g	71
328282	3535327	I wanted to go drinking with you.	I wanted to go drinking with you.	167947935	1476468121248	1476468121411	 	32
328282	3535327	I wanted to go drinking with you.	I wanted to go drinking with you.	167947941	1476468121676	1476468121865	w	87
328282	3535327	I wanted to go drinking with you.	I wanted to go drinking with you.	167948022	1476468121856	1476468122009	i	73
328282	3535327	I wanted to go drinking with you.	I wanted to go drinking with you.	167948025	1476468122069	1476468122217	t	84
328282	3535327	I wanted to go drinking with you.	I wanted to go drinking with you.	167948030	1476468122182	1476468122309	h	72
328282	3535327	I wanted to go drinking with you.	I wanted to go drinking with you.	167948034	1476468122594	1476468122740	y	89
328282	3535327	I wanted to go drinking with you.	I wanted to go drinking with you.	167948041	1476468122789	1476468123020	o	79
328282	3535327	I wanted to go drinking with you.	I wanted to go drinking with you.	167948208	1476468122985	1476468123174	u	85
328282	3535327	I wanted to go drinking with you.	I wanted to go drinking with you.	167948210	1476468123360	1476468123467	BKSP	8
328282	3535327	I wanted to go drinking with you.	I wanted to go drinking with you.	167948213	1476468123514	1476468123621	BKSP	8
328282	3535327	I wanted to go drinking with you.	I wanted to go drinking with you.	167948216	1476468123677	1476468123790	BKSP	8
328282	3535327	I wanted to go drinking with you.	I wanted to go drinking with you.	167948222	1476468124078	1476468124222	 	32
328282	3535327	I wanted to go drinking with you.	I wanted to go drinking with you.	167948227	1476468124271	1476468124431	y	89
328282	3535327	I wanted to go drinking with you.	I wanted to go drinking with you.	167948231	1476468124412	1476468124638	o	79
328282	3535327	I wanted to go drinking with you.	I wanted to go drinking with you.	167948233	1476468124617	1476468124823	u	85
