PARTICIPANT_ID	TEST_SECTION_ID	SENTENCE	USER_INPUT	KEYSTROKE_ID	PRESS_TIME	RELEASE_TIME	LETTER	KEYCODE
330187	3557029	The best-of-seven series moves to Indianapolis, Indiana.	The best-of-seven series moves to Indianapolis, Indiana.	168971778	1476490128437	1476490128763	SHIFT	16
330187	3557029	The best-of-seven series moves to Indianapolis, Indiana.	The best-of-seven series moves to Indianapolis, Indiana.	168971776	1476490128645	1476490128731	NA	84
330187	3557029	The best-of-seven series moves to Indianapolis, Indiana.	The best-of-seven series moves to Indianapolis, Indiana.	168971779	1476490128788	1476490128851	NA	72
330187	3557029	The best-of-seven series moves to Indianapolis, Indiana.	The best-of-seven series moves to Indianapolis, Indiana.	168971780	1476490128873	1476490129015	NA	69
330187	3557029	The best-of-seven series moves to Indianapolis, Indiana.	The best-of-seven series moves to Indianapolis, Indiana.	168971781	1476490129022	1476490129106	NA	32
330187	3557029	The best-of-seven series moves to Indianapolis, Indiana.	The best-of-seven series moves to Indianapolis, Indiana.	168971782	1476490129342	1476490129414	NA	66
330187	3557029	The best-of-seven series moves to Indianapolis, Indiana.	The best-of-seven series moves to Indianapolis, Indiana.	168971811	1476490129472	1476490129571	NA	69
330187	3557029	The best-of-seven series moves to Indianapolis, Indiana.	The best-of-seven series moves to Indianapolis, Indiana.	168971813	1476490129534	1476490129652	NA	83
330187	3557029	The best-of-seven series moves to Indianapolis, Indiana.	The best-of-seven series moves to Indianapolis, Indiana.	168971815	1476490129706	1476490129802	NA	84
330187	3557029	The best-of-seven series moves to Indianapolis, Indiana.	The best-of-seven series moves to Indianapolis, Indiana.	168971817	1476490129778	1476490129904	NA	32
330187	3557029	The best-of-seven series moves to Indianapolis, Indiana.	The best-of-seven series moves to Indianapolis, Indiana.	168971819	1476490130327	1476490130381	NA	79
330187	3557029	The best-of-seven series moves to Indianapolis, Indiana.	The best-of-seven series moves to Indianapolis, Indiana.	168971839	1476490130573	1476490130663		8
330187	3557029	The best-of-seven series moves to Indianapolis, Indiana.	The best-of-seven series moves to Indianapolis, Indiana.	168971843	1476490130692	1476490130787		8
330187	3557029	The best-of-seven series moves to Indianapolis, Indiana.	The best-of-seven series moves to Indianapolis, Indiana.	168971848	1476490130837	1476490130933	NA	173
330187	3557029	The best-of-seven series moves to Indianapolis, Indiana.	The best-of-seven series moves to Indianapolis, Indiana.	168971853	1476490131023	1476490131101	NA	32
330187	3557029	The best-of-seven series moves to Indianapolis, Indiana.	The best-of-seven series moves to Indianapolis, Indiana.	168971858	1476490131275	1476490131366		8
330187	3557029	The best-of-seven series moves to Indianapolis, Indiana.	The best-of-seven series moves to Indianapolis, Indiana.	168971916	1476490131435	1476490131521	NA	79
330187	3557029	The best-of-seven series moves to Indianapolis, Indiana.	The best-of-seven series moves to Indianapolis, Indiana.	168971921	1476490131554	1476490131696	NA	70
330187	3557029	The best-of-seven series moves to Indianapolis, Indiana.	The best-of-seven series moves to Indianapolis, Indiana.	168971926	1476490131690	1476490131780	NA	32
330187	3557029	The best-of-seven series moves to Indianapolis, Indiana.	The best-of-seven series moves to Indianapolis, Indiana.	168971930	1476490132078	1476490132193		8
330187	3557029	The best-of-seven series moves to Indianapolis, Indiana.	The best-of-seven series moves to Indianapolis, Indiana.	168971932	1476490132352	1476490132491	NA	48
330187	3557029	The best-of-seven series moves to Indianapolis, Indiana.	The best-of-seven series moves to Indianapolis, Indiana.	168971951	1476490132633	1476490132718		8
330187	3557029	The best-of-seven series moves to Indianapolis, Indiana.	The best-of-seven series moves to Indianapolis, Indiana.	168971955	1476490132763	1476490132851	NA	173
330187	3557029	The best-of-seven series moves to Indianapolis, Indiana.	The best-of-seven series moves to Indianapolis, Indiana.	168971958	1476490133344	1476490133436	NA	83
330187	3557029	The best-of-seven series moves to Indianapolis, Indiana.	The best-of-seven series moves to Indianapolis, Indiana.	168971962	1476490133507	1476490133594	NA	69
330187	3557029	The best-of-seven series moves to Indianapolis, Indiana.	The best-of-seven series moves to Indianapolis, Indiana.	168971966	1476490133720	1476490133797	NA	86
330187	3557029	The best-of-seven series moves to Indianapolis, Indiana.	The best-of-seven series moves to Indianapolis, Indiana.	168971997	1476490133790	1476490133911	NA	69
330187	3557029	The best-of-seven series moves to Indianapolis, Indiana.	The best-of-seven series moves to Indianapolis, Indiana.	168971999	1476490134006	1476490134082	NA	78
330187	3557029	The best-of-seven series moves to Indianapolis, Indiana.	The best-of-seven series moves to Indianapolis, Indiana.	168972002	1476490134395	1476490134488	NA	32
330187	3557029	The best-of-seven series moves to Indianapolis, Indiana.	The best-of-seven series moves to Indianapolis, Indiana.	168972006	1476490134651	1476490134746	NA	83
330187	3557029	The best-of-seven series moves to Indianapolis, Indiana.	The best-of-seven series moves to Indianapolis, Indiana.	168972009	1476490134831	1476490134913	NA	69
330187	3557029	The best-of-seven series moves to Indianapolis, Indiana.	The best-of-seven series moves to Indianapolis, Indiana.	168972011	1476490135012	1476490135051	NA	82
330187	3557029	The best-of-seven series moves to Indianapolis, Indiana.	The best-of-seven series moves to Indianapolis, Indiana.	168972024	1476490135097	1476490135169	NA	73
330187	3557029	The best-of-seven series moves to Indianapolis, Indiana.	The best-of-seven series moves to Indianapolis, Indiana.	168972027	1476490135188	1476490135305	NA	69
330187	3557029	The best-of-seven series moves to Indianapolis, Indiana.	The best-of-seven series moves to Indianapolis, Indiana.	168972031	1476490135259	1476490135404	NA	83
330187	3557029	The best-of-seven series moves to Indianapolis, Indiana.	The best-of-seven series moves to Indianapolis, Indiana.	168972034	1476490135391	1476490135508	NA	32
330187	3557029	The best-of-seven series moves to Indianapolis, Indiana.	The best-of-seven series moves to Indianapolis, Indiana.	168972037	1476490135750	1476490135828	NA	77
330187	3557029	The best-of-seven series moves to Indianapolis, Indiana.	The best-of-seven series moves to Indianapolis, Indiana.	168972056	1476490135913	1476490135991	NA	79
330187	3557029	The best-of-seven series moves to Indianapolis, Indiana.	The best-of-seven series moves to Indianapolis, Indiana.	168972058	1476490136138	1476490136257	NA	86
330187	3557029	The best-of-seven series moves to Indianapolis, Indiana.	The best-of-seven series moves to Indianapolis, Indiana.	168972060	1476490136224	1476490136323	NA	69
330187	3557029	The best-of-seven series moves to Indianapolis, Indiana.	The best-of-seven series moves to Indianapolis, Indiana.	168972064	1476490136381	1476490136522	NA	83
330187	3557029	The best-of-seven series moves to Indianapolis, Indiana.	The best-of-seven series moves to Indianapolis, Indiana.	168972099	1476490136512	1476490136620	NA	32
330187	3557029	The best-of-seven series moves to Indianapolis, Indiana.	The best-of-seven series moves to Indianapolis, Indiana.	168972101	1476490137079	1476490137178	NA	84
330187	3557029	The best-of-seven series moves to Indianapolis, Indiana.	The best-of-seven series moves to Indianapolis, Indiana.	168972102	1476490137159	1476490137234	NA	79
330187	3557029	The best-of-seven series moves to Indianapolis, Indiana.	The best-of-seven series moves to Indianapolis, Indiana.	168972103	1476490137247	1476490137355	NA	32
330187	3557029	The best-of-seven series moves to Indianapolis, Indiana.	The best-of-seven series moves to Indianapolis, Indiana.	168972104	1476490137333	1476490137513	SHIFT	16
330187	3557029	The best-of-seven series moves to Indianapolis, Indiana.	The best-of-seven series moves to Indianapolis, Indiana.	168972105	1476490137452	1476490137525	NA	73
330187	3557029	The best-of-seven series moves to Indianapolis, Indiana.	The best-of-seven series moves to Indianapolis, Indiana.	168972106	1476490137654	1476490137717	NA	78
330187	3557029	The best-of-seven series moves to Indianapolis, Indiana.	The best-of-seven series moves to Indianapolis, Indiana.	168972131	1476490137799	1476490137877	NA	68
330187	3557029	The best-of-seven series moves to Indianapolis, Indiana.	The best-of-seven series moves to Indianapolis, Indiana.	168972133	1476490137953	1476490138028	NA	73
330187	3557029	The best-of-seven series moves to Indianapolis, Indiana.	The best-of-seven series moves to Indianapolis, Indiana.	168972135	1476490138433	1476490138530	NA	65
330187	3557029	The best-of-seven series moves to Indianapolis, Indiana.	The best-of-seven series moves to Indianapolis, Indiana.	168972138	1476490138565	1476490138647	NA	78
330187	3557029	The best-of-seven series moves to Indianapolis, Indiana.	The best-of-seven series moves to Indianapolis, Indiana.	168972142	1476490139049	1476490139155	NA	65
330187	3557029	The best-of-seven series moves to Indianapolis, Indiana.	The best-of-seven series moves to Indianapolis, Indiana.	168972175	1476490140187	1476490140256	NA	80
330187	3557029	The best-of-seven series moves to Indianapolis, Indiana.	The best-of-seven series moves to Indianapolis, Indiana.	168972177	1476490140427	1476490140493	NA	79
330187	3557029	The best-of-seven series moves to Indianapolis, Indiana.	The best-of-seven series moves to Indianapolis, Indiana.	168972183	1476490140583	1476490140659	NA	76
330187	3557029	The best-of-seven series moves to Indianapolis, Indiana.	The best-of-seven series moves to Indianapolis, Indiana.	168972189	1476490140756	1476490140827	NA	73
330187	3557029	The best-of-seven series moves to Indianapolis, Indiana.	The best-of-seven series moves to Indianapolis, Indiana.	168972195	1476490140864	1476490141000	NA	83
330187	3557029	The best-of-seven series moves to Indianapolis, Indiana.	The best-of-seven series moves to Indianapolis, Indiana.	168972250	1476490141016	1476490141101	NA	32
330187	3557029	The best-of-seven series moves to Indianapolis, Indiana.	The best-of-seven series moves to Indianapolis, Indiana.	168972253	1476490141470	1476490141558		8
330187	3557029	The best-of-seven series moves to Indianapolis, Indiana.	The best-of-seven series moves to Indianapolis, Indiana.	168972256	1476490141976	1476490142053	NA	188
330187	3557029	The best-of-seven series moves to Indianapolis, Indiana.	The best-of-seven series moves to Indianapolis, Indiana.	168972260	1476490142099	1476490142184	NA	32
330187	3557029	The best-of-seven series moves to Indianapolis, Indiana.	The best-of-seven series moves to Indianapolis, Indiana.	168972273	1476490142244	1476490142472	SHIFT	16
330187	3557029	The best-of-seven series moves to Indianapolis, Indiana.	The best-of-seven series moves to Indianapolis, Indiana.	168972263	1476490142363	1476490142437	NA	73
330187	3557029	The best-of-seven series moves to Indianapolis, Indiana.	The best-of-seven series moves to Indianapolis, Indiana.	168972275	1476490142556	1476490142632	NA	78
330187	3557029	The best-of-seven series moves to Indianapolis, Indiana.	The best-of-seven series moves to Indianapolis, Indiana.	168972277	1476490142868	1476490142980	NA	68
330187	3557029	The best-of-seven series moves to Indianapolis, Indiana.	The best-of-seven series moves to Indianapolis, Indiana.	168972279	1476490142974	1476490143059	NA	73
330187	3557029	The best-of-seven series moves to Indianapolis, Indiana.	The best-of-seven series moves to Indianapolis, Indiana.	168972281	1476490143110	1476490143210	NA	65
330187	3557029	The best-of-seven series moves to Indianapolis, Indiana.	The best-of-seven series moves to Indianapolis, Indiana.	168972282	1476490143240	1476490143310	NA	78
330187	3557029	The best-of-seven series moves to Indianapolis, Indiana.	The best-of-seven series moves to Indianapolis, Indiana.	168972296	1476490143549	1476490143652	NA	65
330187	3557029	The best-of-seven series moves to Indianapolis, Indiana.	The best-of-seven series moves to Indianapolis, Indiana.	168972298	1476490144314	1476490144376	NA	190
330187	3557041	Kind of like silent fireworks.	Kind of like silent fireworks.	168972390	1476490146316	1476490146694	SHIFT	16
330187	3557041	Kind of like silent fireworks.	Kind of like silent fireworks.	168972388	1476490146605	1476490146670	NA	75
330187	3557041	Kind of like silent fireworks.	Kind of like silent fireworks.	168972391	1476490146754	1476490146811	NA	73
330187	3557041	Kind of like silent fireworks.	Kind of like silent fireworks.	168972392	1476490146887	1476490146956	NA	78
330187	3557041	Kind of like silent fireworks.	Kind of like silent fireworks.	168972393	1476490146984	1476490147120	NA	68
330187	3557041	Kind of like silent fireworks.	Kind of like silent fireworks.	168972394	1476490147127	1476490147211	NA	32
330187	3557041	Kind of like silent fireworks.	Kind of like silent fireworks.	168972410	1476490147319	1476490147403	NA	79
330187	3557041	Kind of like silent fireworks.	Kind of like silent fireworks.	168972413	1476490147440	1476490147535	NA	70
330187	3557041	Kind of like silent fireworks.	Kind of like silent fireworks.	168972416	1476490147526	1476490147601	NA	32
330187	3557041	Kind of like silent fireworks.	Kind of like silent fireworks.	168972418	1476490147710	1476490147797	NA	76
330187	3557041	Kind of like silent fireworks.	Kind of like silent fireworks.	168972424	1476490147893	1476490147962	NA	73
330187	3557041	Kind of like silent fireworks.	Kind of like silent fireworks.	168972454	1476490148026	1476490148104	NA	75
330187	3557041	Kind of like silent fireworks.	Kind of like silent fireworks.	168972456	1476490148132	1476490148260	NA	69
330187	3557041	Kind of like silent fireworks.	Kind of like silent fireworks.	168972459	1476490148236	1476490148339	NA	32
330187	3557041	Kind of like silent fireworks.	Kind of like silent fireworks.	168972461	1476490148744	1476490148841	NA	83
330187	3557041	Kind of like silent fireworks.	Kind of like silent fireworks.	168972462	1476490148866	1476490148938	NA	73
330187	3557041	Kind of like silent fireworks.	Kind of like silent fireworks.	168972492	1476490149028	1476490149097	NA	76
330187	3557041	Kind of like silent fireworks.	Kind of like silent fireworks.	168972496	1476490149153	1476490149256	NA	69
330187	3557041	Kind of like silent fireworks.	Kind of like silent fireworks.	168972498	1476490149241	1476490149320	NA	78
330187	3557041	Kind of like silent fireworks.	Kind of like silent fireworks.	168972501	1476490149499	1476490149577	NA	32
330187	3557041	Kind of like silent fireworks.	Kind of like silent fireworks.	168972504	1476490149986	1476490150070		8
330187	3557041	Kind of like silent fireworks.	Kind of like silent fireworks.	168972533	1476490150135	1476490150233	NA	84
330187	3557041	Kind of like silent fireworks.	Kind of like silent fireworks.	168972535	1476490150264	1476490150352	NA	32
330187	3557041	Kind of like silent fireworks.	Kind of like silent fireworks.	168972537	1476490150838	1476490150924	NA	70
330187	3557041	Kind of like silent fireworks.	Kind of like silent fireworks.	168972539	1476490150938	1476490151019	NA	73
330187	3557041	Kind of like silent fireworks.	Kind of like silent fireworks.	168972541	1476490151032	1476490151145	NA	82
330187	3557041	Kind of like silent fireworks.	Kind of like silent fireworks.	168972555	1476490151115	1476490151214	NA	69
330187	3557041	Kind of like silent fireworks.	Kind of like silent fireworks.	168972557	1476490151331	1476490151430	NA	87
330187	3557041	Kind of like silent fireworks.	Kind of like silent fireworks.	168972560	1476490151418	1476490151501	NA	79
330187	3557041	Kind of like silent fireworks.	Kind of like silent fireworks.	168972563	1476490151556	1476490151634	NA	82
330187	3557041	Kind of like silent fireworks.	Kind of like silent fireworks.	168972567	1476490151659	1476490151744	NA	75
330187	3557041	Kind of like silent fireworks.	Kind of like silent fireworks.	168972571	1476490151786	1476490151893	NA	83
330187	3557041	Kind of like silent fireworks.	Kind of like silent fireworks.	168972585	1476490152057	1476490152133	NA	190
330187	3557046	In isolation, all of these things are trivial.	In isolation, all of these things are trivial.	168972658	1476490154170	1476490154544	SHIFT	16
330187	3557046	In isolation, all of these things are trivial.	In isolation, all of these things are trivial.	168972656	1476490154436	1476490154509	NA	73
330187	3557046	In isolation, all of these things are trivial.	In isolation, all of these things are trivial.	168972660	1476490154608	1476490154668	NA	78
330187	3557046	In isolation, all of these things are trivial.	In isolation, all of these things are trivial.	168972662	1476490154738	1476490154840	NA	32
330187	3557046	In isolation, all of these things are trivial.	In isolation, all of these things are trivial.	168972664	1476490154898	1476490154965	NA	73
330187	3557046	In isolation, all of these things are trivial.	In isolation, all of these things are trivial.	168972665	1476490155019	1476490155119	NA	83
330187	3557046	In isolation, all of these things are trivial.	In isolation, all of these things are trivial.	168972675	1476490155141	1476490155207	NA	79
330187	3557046	In isolation, all of these things are trivial.	In isolation, all of these things are trivial.	168972677	1476490155276	1476490155359	NA	76
330187	3557046	In isolation, all of these things are trivial.	In isolation, all of these things are trivial.	168972678	1476490155505	1476490155586	NA	65
330187	3557046	In isolation, all of these things are trivial.	In isolation, all of these things are trivial.	168972680	1476490155614	1476490155705	NA	84
330187	3557046	In isolation, all of these things are trivial.	In isolation, all of these things are trivial.	168972682	1476490155718	1476490155793	NA	73
330187	3557046	In isolation, all of these things are trivial.	In isolation, all of these things are trivial.	168972726	1476490155857	1476490155920	NA	79
330187	3557046	In isolation, all of these things are trivial.	In isolation, all of these things are trivial.	168972728	1476490156019	1476490156080	NA	78
330187	3557046	In isolation, all of these things are trivial.	In isolation, all of these things are trivial.	168972731	1476490156224	1476490156296	NA	188
330187	3557046	In isolation, all of these things are trivial.	In isolation, all of these things are trivial.	168972733	1476490156405	1476490156474	NA	32
330187	3557046	In isolation, all of these things are trivial.	In isolation, all of these things are trivial.	168972735	1476490156834	1476490156906	NA	65
330187	3557046	In isolation, all of these things are trivial.	In isolation, all of these things are trivial.	168972756	1476490156946	1476490157022	NA	76
330187	3557046	In isolation, all of these things are trivial.	In isolation, all of these things are trivial.	168972759	1476490157054	1476490157138	NA	76
330187	3557046	In isolation, all of these things are trivial.	In isolation, all of these things are trivial.	168972760	1476490157177	1476490157268	NA	32
330187	3557046	In isolation, all of these things are trivial.	In isolation, all of these things are trivial.	168972761	1476490157506	1476490157603	NA	84
330187	3557046	In isolation, all of these things are trivial.	In isolation, all of these things are trivial.	168972762	1476490157620	1476490157686	NA	72
330187	3557046	In isolation, all of these things are trivial.	In isolation, all of these things are trivial.	168972776	1476490157888	1476490157948		8
330187	3557046	In isolation, all of these things are trivial.	In isolation, all of these things are trivial.	168972779	1476490157986	1476490158062		8
330187	3557046	In isolation, all of these things are trivial.	In isolation, all of these things are trivial.	168972782	1476490158165	1476490158245	NA	79
330187	3557046	In isolation, all of these things are trivial.	In isolation, all of these things are trivial.	168972786	1476490158326	1476490158467	NA	70
330187	3557046	In isolation, all of these things are trivial.	In isolation, all of these things are trivial.	168972807	1476490158448	1476490158554	NA	32
330187	3557046	In isolation, all of these things are trivial.	In isolation, all of these things are trivial.	168972808	1476490158567	1476490158647	NA	84
330187	3557046	In isolation, all of these things are trivial.	In isolation, all of these things are trivial.	168972809	1476490158626	1476490158704	NA	72
330187	3557046	In isolation, all of these things are trivial.	In isolation, all of these things are trivial.	168972810	1476490158747	1476490158873	NA	69
330187	3557046	In isolation, all of these things are trivial.	In isolation, all of these things are trivial.	168972811	1476490158953	1476490159046	NA	83
330187	3557046	In isolation, all of these things are trivial.	In isolation, all of these things are trivial.	168972812	1476490159600	1476490159690	NA	69
330187	3557046	In isolation, all of these things are trivial.	In isolation, all of these things are trivial.	168972837	1476490159756	1476490159828	NA	32
330187	3557046	In isolation, all of these things are trivial.	In isolation, all of these things are trivial.	168972839	1476490159971	1476490160061	NA	84
330187	3557046	In isolation, all of these things are trivial.	In isolation, all of these things are trivial.	168972841	1476490160092	1476490160158	NA	72
330187	3557046	In isolation, all of these things are trivial.	In isolation, all of these things are trivial.	168972843	1476490160254	1476490160302	NA	73
330187	3557046	In isolation, all of these things are trivial.	In isolation, all of these things are trivial.	168972845	1476490160398	1476490160465	NA	78
330187	3557046	In isolation, all of these things are trivial.	In isolation, all of these things are trivial.	168972861	1476490160516	1476490160625	NA	71
330187	3557046	In isolation, all of these things are trivial.	In isolation, all of these things are trivial.	168972863	1476490160662	1476490160800	NA	83
330187	3557046	In isolation, all of these things are trivial.	In isolation, all of these things are trivial.	168972865	1476490160816	1476490160922	NA	32
330187	3557046	In isolation, all of these things are trivial.	In isolation, all of these things are trivial.	168972868	1476490161164	1476490161255	NA	65
330187	3557046	In isolation, all of these things are trivial.	In isolation, all of these things are trivial.	168972871	1476490161360	1476490161509	NA	82
330187	3557046	In isolation, all of these things are trivial.	In isolation, all of these things are trivial.	168972894	1476490161485	1476490161619	NA	69
330187	3557046	In isolation, all of these things are trivial.	In isolation, all of these things are trivial.	168972895	1476490161595	1476490161694	NA	32
330187	3557046	In isolation, all of these things are trivial.	In isolation, all of these things are trivial.	168972896	1476490161852	1476490161937	NA	84
330187	3557046	In isolation, all of these things are trivial.	In isolation, all of these things are trivial.	168972897	1476490162051	1476490162136	NA	82
330187	3557046	In isolation, all of these things are trivial.	In isolation, all of these things are trivial.	168972898	1476490162189	1476490162266	NA	73
330187	3557046	In isolation, all of these things are trivial.	In isolation, all of these things are trivial.	168972899	1476490162368	1476490162460	NA	86
330187	3557046	In isolation, all of these things are trivial.	In isolation, all of these things are trivial.	168972908	1476490162441	1476490162514	NA	73
330187	3557046	In isolation, all of these things are trivial.	In isolation, all of these things are trivial.	168972911	1476490162563	1476490162661	NA	65
330187	3557046	In isolation, all of these things are trivial.	In isolation, all of these things are trivial.	168972913	1476490162643	1476490162724	NA	76
330187	3557046	In isolation, all of these things are trivial.	In isolation, all of these things are trivial.	168972914	1476490162827	1476490162899	NA	190
330187	3557057	We probably have to discuss trade behavior and margin.	We probably have to discuss trade behavior and margin.	168972983	1476490165046	1476490165322	SHIFT	16
330187	3557057	We probably have to discuss trade behavior and margin.	We probably have to discuss trade behavior and margin.	168972984	1476490165231	1476490165346	NA	87
330187	3557057	We probably have to discuss trade behavior and margin.	We probably have to discuss trade behavior and margin.	168972985	1476490165416	1476490165509	NA	69
330187	3557057	We probably have to discuss trade behavior and margin.	We probably have to discuss trade behavior and margin.	168972986	1476490165522	1476490165621	NA	32
330187	3557057	We probably have to discuss trade behavior and margin.	We probably have to discuss trade behavior and margin.	168972988	1476490165638	1476490165716	NA	80
330187	3557057	We probably have to discuss trade behavior and margin.	We probably have to discuss trade behavior and margin.	168972990	1476490165756	1476490165840	NA	82
330187	3557057	We probably have to discuss trade behavior and margin.	We probably have to discuss trade behavior and margin.	168973001	1476490165850	1476490165925	NA	79
330187	3557057	We probably have to discuss trade behavior and margin.	We probably have to discuss trade behavior and margin.	168973004	1476490166002	1476490166096	NA	66
330187	3557057	We probably have to discuss trade behavior and margin.	We probably have to discuss trade behavior and margin.	168973007	1476490166137	1476490166239	NA	65
330187	3557057	We probably have to discuss trade behavior and margin.	We probably have to discuss trade behavior and margin.	168973008	1476490166268	1476490166340	NA	66
330187	3557057	We probably have to discuss trade behavior and margin.	We probably have to discuss trade behavior and margin.	168973009	1476490166350	1476490166432	NA	76
330187	3557057	We probably have to discuss trade behavior and margin.	We probably have to discuss trade behavior and margin.	168973037	1476490166489	1476490166620	NA	89
330187	3557057	We probably have to discuss trade behavior and margin.	We probably have to discuss trade behavior and margin.	168973038	1476490166608	1476490166713	NA	32
330187	3557057	We probably have to discuss trade behavior and margin.	We probably have to discuss trade behavior and margin.	168973039	1476490167250	1476490167317	NA	72
330187	3557057	We probably have to discuss trade behavior and margin.	We probably have to discuss trade behavior and margin.	168973040	1476490167308	1476490167411	NA	65
330187	3557057	We probably have to discuss trade behavior and margin.	We probably have to discuss trade behavior and margin.	168973042	1476490167469	1476490167621	NA	86
330187	3557057	We probably have to discuss trade behavior and margin.	We probably have to discuss trade behavior and margin.	168973074	1476490167575	1476490167701	NA	69
330187	3557057	We probably have to discuss trade behavior and margin.	We probably have to discuss trade behavior and margin.	168973077	1476490167679	1476490167809	NA	32
330187	3557057	We probably have to discuss trade behavior and margin.	We probably have to discuss trade behavior and margin.	168973078	1476490167816	1476490167915	NA	84
330187	3557057	We probably have to discuss trade behavior and margin.	We probably have to discuss trade behavior and margin.	168973081	1476490168023	1476490168105	NA	79
330187	3557057	We probably have to discuss trade behavior and margin.	We probably have to discuss trade behavior and margin.	168973084	1476490168258	1476490168354	NA	32
330187	3557057	We probably have to discuss trade behavior and margin.	We probably have to discuss trade behavior and margin.	168973087	1476490168658	1476490168770	NA	68
330187	3557057	We probably have to discuss trade behavior and margin.	We probably have to discuss trade behavior and margin.	168973099	1476490168777	1476490168853	NA	73
330187	3557057	We probably have to discuss trade behavior and margin.	We probably have to discuss trade behavior and margin.	168973101	1476490168898	1476490168992	NA	83
330187	3557057	We probably have to discuss trade behavior and margin.	We probably have to discuss trade behavior and margin.	168973103	1476490169064	1476490169154	NA	67
330187	3557057	We probably have to discuss trade behavior and margin.	We probably have to discuss trade behavior and margin.	168973106	1476490169173	1476490169249	NA	85
330187	3557057	We probably have to discuss trade behavior and margin.	We probably have to discuss trade behavior and margin.	168973108	1476490169304	1476490169379	NA	83
330187	3557057	We probably have to discuss trade behavior and margin.	We probably have to discuss trade behavior and margin.	168973146	1476490169437	1476490169530	NA	83
330187	3557057	We probably have to discuss trade behavior and margin.	We probably have to discuss trade behavior and margin.	168973149	1476490169579	1476490169669	NA	32
330187	3557057	We probably have to discuss trade behavior and margin.	We probably have to discuss trade behavior and margin.	168973152	1476490169980	1476490170058	NA	84
330187	3557057	We probably have to discuss trade behavior and margin.	We probably have to discuss trade behavior and margin.	168973155	1476490170202	1476490170307	NA	82
330187	3557057	We probably have to discuss trade behavior and margin.	We probably have to discuss trade behavior and margin.	168973158	1476490170353	1476490170432	NA	65
330187	3557057	We probably have to discuss trade behavior and margin.	We probably have to discuss trade behavior and margin.	168973185	1476490170856	1476490170904		8
330187	3557057	We probably have to discuss trade behavior and margin.	We probably have to discuss trade behavior and margin.	168973187	1476490171203	1476490171293	NA	65
330187	3557057	We probably have to discuss trade behavior and margin.	We probably have to discuss trade behavior and margin.	168973190	1476490171366	1476490171486	NA	68
330187	3557057	We probably have to discuss trade behavior and margin.	We probably have to discuss trade behavior and margin.	168973193	1476490171460	1476490171600	NA	69
330187	3557057	We probably have to discuss trade behavior and margin.	We probably have to discuss trade behavior and margin.	168973237	1476490171576	1476490171687	NA	32
330187	3557057	We probably have to discuss trade behavior and margin.	We probably have to discuss trade behavior and margin.	168973240	1476490171942	1476490172019	NA	66
330187	3557057	We probably have to discuss trade behavior and margin.	We probably have to discuss trade behavior and margin.	168973243	1476490172045	1476490172111	NA	69
330187	3557057	We probably have to discuss trade behavior and margin.	We probably have to discuss trade behavior and margin.	168973245	1476490172234	1476490172309	NA	72
330187	3557057	We probably have to discuss trade behavior and margin.	We probably have to discuss trade behavior and margin.	168973246	1476490172332	1476490172434	NA	65
330187	3557057	We probably have to discuss trade behavior and margin.	We probably have to discuss trade behavior and margin.	168973248	1476490172516	1476490172633	NA	86
330187	3557057	We probably have to discuss trade behavior and margin.	We probably have to discuss trade behavior and margin.	168973267	1476490172641	1476490172712	NA	73
330187	3557057	We probably have to discuss trade behavior and margin.	We probably have to discuss trade behavior and margin.	168973270	1476490172785	1476490172854	NA	79
330187	3557057	We probably have to discuss trade behavior and margin.	We probably have to discuss trade behavior and margin.	168973274	1476490172911	1476490172972	NA	82
330187	3557057	We probably have to discuss trade behavior and margin.	We probably have to discuss trade behavior and margin.	168973277	1476490173351	1476490173415	NA	32
330187	3557057	We probably have to discuss trade behavior and margin.	We probably have to discuss trade behavior and margin.	168973280	1476490173469	1476490173561	NA	65
330187	3557057	We probably have to discuss trade behavior and margin.	We probably have to discuss trade behavior and margin.	168973294	1476490173598	1476490173672	NA	78
330187	3557057	We probably have to discuss trade behavior and margin.	We probably have to discuss trade behavior and margin.	168973297	1476490173679	1476490173828	NA	68
330187	3557057	We probably have to discuss trade behavior and margin.	We probably have to discuss trade behavior and margin.	168973299	1476490173801	1476490173900	NA	32
330187	3557057	We probably have to discuss trade behavior and margin.	We probably have to discuss trade behavior and margin.	168973303	1476490173910	1476490173992	NA	77
330187	3557057	We probably have to discuss trade behavior and margin.	We probably have to discuss trade behavior and margin.	168973307	1476490174026	1476490174113	NA	65
330187	3557057	We probably have to discuss trade behavior and margin.	We probably have to discuss trade behavior and margin.	168973328	1476490174121	1476490174226	NA	82
330187	3557057	We probably have to discuss trade behavior and margin.	We probably have to discuss trade behavior and margin.	168973331	1476490174429	1476490174518	NA	71
330187	3557057	We probably have to discuss trade behavior and margin.	We probably have to discuss trade behavior and margin.	168973334	1476490174506	1476490174569	NA	73
330187	3557057	We probably have to discuss trade behavior and margin.	We probably have to discuss trade behavior and margin.	168973337	1476490174658	1476490174729	NA	78
330187	3557057	We probably have to discuss trade behavior and margin.	We probably have to discuss trade behavior and margin.	168973340	1476490174879	1476490174960	NA	190
330187	3557064	Here it is again in case you didn't receive it.	Here it is again in case you didn't receive it.	168973434	1476490176872	1476490177266	SHIFT	16
330187	3557064	Here it is again in case you didn't receive it.	Here it is again in case you didn't receive it.	168973432	1476490177166	1476490177235	NA	72
330187	3557064	Here it is again in case you didn't receive it.	Here it is again in case you didn't receive it.	168973436	1476490177352	1476490177453	NA	69
330187	3557064	Here it is again in case you didn't receive it.	Here it is again in case you didn't receive it.	168973440	1476490177423	1476490177560	NA	82
330187	3557064	Here it is again in case you didn't receive it.	Here it is again in case you didn't receive it.	168973443	1476490177527	1476490177644	NA	69
330187	3557064	Here it is again in case you didn't receive it.	Here it is again in case you didn't receive it.	168973446	1476490177652	1476490177736	NA	32
330187	3557064	Here it is again in case you didn't receive it.	Here it is again in case you didn't receive it.	168973464	1476490177898	1476490177967	NA	73
330187	3557064	Here it is again in case you didn't receive it.	Here it is again in case you didn't receive it.	168973468	1476490178004	1476490178120	NA	84
330187	3557064	Here it is again in case you didn't receive it.	Here it is again in case you didn't receive it.	168973473	1476490178108	1476490178189	NA	32
330187	3557064	Here it is again in case you didn't receive it.	Here it is again in case you didn't receive it.	168973477	1476490178202	1476490178272	NA	73
330187	3557064	Here it is again in case you didn't receive it.	Here it is again in case you didn't receive it.	168973480	1476490178306	1476490178428	NA	83
330187	3557064	Here it is again in case you didn't receive it.	Here it is again in case you didn't receive it.	168973489	1476490178400	1476490178494	NA	32
330187	3557064	Here it is again in case you didn't receive it.	Here it is again in case you didn't receive it.	168973490	1476490178519	1476490178612	NA	65
330187	3557064	Here it is again in case you didn't receive it.	Here it is again in case you didn't receive it.	168973491	1476490178673	1476490178761	NA	71
330187	3557064	Here it is again in case you didn't receive it.	Here it is again in case you didn't receive it.	168973492	1476490178780	1476490178869	NA	65
330187	3557064	Here it is again in case you didn't receive it.	Here it is again in case you didn't receive it.	168973493	1476490178827	1476490178911	NA	73
330187	3557064	Here it is again in case you didn't receive it.	Here it is again in case you didn't receive it.	168973495	1476490178993	1476490179062	NA	78
330187	3557064	Here it is again in case you didn't receive it.	Here it is again in case you didn't receive it.	168973514	1476490179204	1476490179294	NA	32
330187	3557064	Here it is again in case you didn't receive it.	Here it is again in case you didn't receive it.	168973517	1476490179354	1476490179429	NA	73
330187	3557064	Here it is again in case you didn't receive it.	Here it is again in case you didn't receive it.	168973519	1476490179511	1476490179583	NA	78
330187	3557064	Here it is again in case you didn't receive it.	Here it is again in case you didn't receive it.	168973521	1476490179658	1476490179722	NA	32
330187	3557064	Here it is again in case you didn't receive it.	Here it is again in case you didn't receive it.	168973523	1476490179955	1476490180074	NA	67
330187	3557064	Here it is again in case you didn't receive it.	Here it is again in case you didn't receive it.	168973556	1476490180050	1476490180158	NA	65
330187	3557064	Here it is again in case you didn't receive it.	Here it is again in case you didn't receive it.	168973559	1476490180341	1476490180432	NA	83
330187	3557064	Here it is again in case you didn't receive it.	Here it is again in case you didn't receive it.	168973561	1476490180573	1476490180672	NA	69
330187	3557064	Here it is again in case you didn't receive it.	Here it is again in case you didn't receive it.	168973563	1476490180694	1476490180796	NA	32
330187	3557064	Here it is again in case you didn't receive it.	Here it is again in case you didn't receive it.	168973565	1476490181084	1476490181170	NA	89
330187	3557064	Here it is again in case you didn't receive it.	Here it is again in case you didn't receive it.	168973571	1476490181145	1476490181223	NA	79
330187	3557064	Here it is again in case you didn't receive it.	Here it is again in case you didn't receive it.	168973573	1476490181233	1476490181329	NA	85
330187	3557064	Here it is again in case you didn't receive it.	Here it is again in case you didn't receive it.	168973575	1476490181343	1476490181433	NA	32
330187	3557064	Here it is again in case you didn't receive it.	Here it is again in case you didn't receive it.	168973577	1476490181535	1476490181621	NA	68
330187	3557064	Here it is again in case you didn't receive it.	Here it is again in case you didn't receive it.	168973579	1476490181609	1476490181687	NA	73
330187	3557064	Here it is again in case you didn't receive it.	Here it is again in case you didn't receive it.	168973581	1476490181712	1476490181785	NA	68
330187	3557064	Here it is again in case you didn't receive it.	Here it is again in case you didn't receive it.	168973607	1476490181807	1476490181882	NA	78
330187	3557064	Here it is again in case you didn't receive it.	Here it is again in case you didn't receive it.	168973608	1476490182113	1476490182160	NA	222
330187	3557064	Here it is again in case you didn't receive it.	Here it is again in case you didn't receive it.	168973609	1476490182334	1476490182444	NA	84
330187	3557064	Here it is again in case you didn't receive it.	Here it is again in case you didn't receive it.	168973611	1476490182432	1476490182540	NA	32
330187	3557064	Here it is again in case you didn't receive it.	Here it is again in case you didn't receive it.	168973613	1476490182830	1476490182943	NA	82
330187	3557064	Here it is again in case you didn't receive it.	Here it is again in case you didn't receive it.	168973651	1476490182909	1476490183003	NA	69
330187	3557064	Here it is again in case you didn't receive it.	Here it is again in case you didn't receive it.	168973655	1476490183123	1476490183208	NA	67
330187	3557064	Here it is again in case you didn't receive it.	Here it is again in case you didn't receive it.	168973659	1476490183402	1476490183486	NA	69
330187	3557064	Here it is again in case you didn't receive it.	Here it is again in case you didn't receive it.	168973661	1476490183594	1476490183667	NA	73
330187	3557064	Here it is again in case you didn't receive it.	Here it is again in case you didn't receive it.	168973662	1476490183766	1476490183847	NA	86
330187	3557064	Here it is again in case you didn't receive it.	Here it is again in case you didn't receive it.	168973663	1476490183870	1476490183983	NA	69
330187	3557064	Here it is again in case you didn't receive it.	Here it is again in case you didn't receive it.	168973669	1476490184000	1476490184090	NA	32
330187	3557064	Here it is again in case you didn't receive it.	Here it is again in case you didn't receive it.	168973672	1476490184142	1476490184208	NA	73
330187	3557064	Here it is again in case you didn't receive it.	Here it is again in case you didn't receive it.	168973674	1476490184222	1476490184316	NA	84
330187	3557064	Here it is again in case you didn't receive it.	Here it is again in case you didn't receive it.	168973676	1476490184417	1476490184486	NA	190
330187	3557074	Your best bet is to drop him and go after another.	Your best bet is to drop him and go after another.	168973790	1476490187076	1476490187472	SHIFT	16
330187	3557074	Your best bet is to drop him and go after another.	Your best bet is to drop him and go after another.	168973793	1476490187408	1476490187489	NA	89
330187	3557074	Your best bet is to drop him and go after another.	Your best bet is to drop him and go after another.	168973796	1476490187583	1476490187658	NA	85
330187	3557074	Your best bet is to drop him and go after another.	Your best bet is to drop him and go after another.	168973798	1476490187674	1476490187735	NA	79
330187	3557074	Your best bet is to drop him and go after another.	Your best bet is to drop him and go after another.	168973799	1476490187920	1476490187980		8
330187	3557074	Your best bet is to drop him and go after another.	Your best bet is to drop him and go after another.	168973800	1476490188023	1476490188081		8
330187	3557074	Your best bet is to drop him and go after another.	Your best bet is to drop him and go after another.	168973832	1476490188219	1476490188298	NA	79
330187	3557074	Your best bet is to drop him and go after another.	Your best bet is to drop him and go after another.	168973834	1476490188314	1476490188386	NA	85
330187	3557074	Your best bet is to drop him and go after another.	Your best bet is to drop him and go after another.	168973836	1476490188550	1476490188646	NA	82
330187	3557074	Your best bet is to drop him and go after another.	Your best bet is to drop him and go after another.	168973838	1476490188690	1476490188758	NA	32
330187	3557074	Your best bet is to drop him and go after another.	Your best bet is to drop him and go after another.	168973840	1476490188927	1476490189004	NA	66
330187	3557074	Your best bet is to drop him and go after another.	Your best bet is to drop him and go after another.	168973874	1476490189018	1476490189137	NA	69
330187	3557074	Your best bet is to drop him and go after another.	Your best bet is to drop him and go after another.	168973876	1476490189107	1476490189209	NA	83
330187	3557074	Your best bet is to drop him and go after another.	Your best bet is to drop him and go after another.	168973878	1476490189238	1476490189344	NA	84
330187	3557074	Your best bet is to drop him and go after another.	Your best bet is to drop him and go after another.	168973879	1476490189320	1476490189438	NA	32
330187	3557074	Your best bet is to drop him and go after another.	Your best bet is to drop him and go after another.	168973880	1476490190063	1476490190135	NA	66
330187	3557074	Your best bet is to drop him and go after another.	Your best bet is to drop him and go after another.	168973904	1476490190151	1476490190266	NA	69
330187	3557074	Your best bet is to drop him and go after another.	Your best bet is to drop him and go after another.	168973906	1476490190389	1476490190501	NA	84
330187	3557074	Your best bet is to drop him and go after another.	Your best bet is to drop him and go after another.	168973909	1476490190520	1476490190627	NA	32
330187	3557074	Your best bet is to drop him and go after another.	Your best bet is to drop him and go after another.	168973911	1476490190834	1476490190918	NA	73
330187	3557074	Your best bet is to drop him and go after another.	Your best bet is to drop him and go after another.	168973912	1476490191261	1476490191352	NA	83
330187	3557074	Your best bet is to drop him and go after another.	Your best bet is to drop him and go after another.	168973926	1476490191389	1476490191468	NA	32
330187	3557074	Your best bet is to drop him and go after another.	Your best bet is to drop him and go after another.	168973929	1476490191483	1476490191571	NA	84
330187	3557074	Your best bet is to drop him and go after another.	Your best bet is to drop him and go after another.	168973933	1476490191584	1476490191659	NA	79
330187	3557074	Your best bet is to drop him and go after another.	Your best bet is to drop him and go after another.	168973935	1476490191693	1476490191771	NA	32
330187	3557074	Your best bet is to drop him and go after another.	Your best bet is to drop him and go after another.	168973937	1476490191838	1476490191896	NA	70
330187	3557074	Your best bet is to drop him and go after another.	Your best bet is to drop him and go after another.	168973958	1476490192087	1476490192171		8
330187	3557074	Your best bet is to drop him and go after another.	Your best bet is to drop him and go after another.	168973961	1476490192238	1476490192328	NA	68
330187	3557074	Your best bet is to drop him and go after another.	Your best bet is to drop him and go after another.	168973964	1476490192419	1476490192512	NA	82
330187	3557074	Your best bet is to drop him and go after another.	Your best bet is to drop him and go after another.	168973965	1476490192528	1476490192594	NA	79
330187	3557074	Your best bet is to drop him and go after another.	Your best bet is to drop him and go after another.	168973966	1476490192676	1476490192742	NA	80
330187	3557074	Your best bet is to drop him and go after another.	Your best bet is to drop him and go after another.	168973981	1476490192866	1476490192970	NA	32
330187	3557074	Your best bet is to drop him and go after another.	Your best bet is to drop him and go after another.	168973984	1476490193164	1476490193231	NA	72
330187	3557074	Your best bet is to drop him and go after another.	Your best bet is to drop him and go after another.	168973988	1476490193315	1476490193388	NA	73
330187	3557074	Your best bet is to drop him and go after another.	Your best bet is to drop him and go after another.	168973991	1476490193463	1476490193542	NA	77
330187	3557074	Your best bet is to drop him and go after another.	Your best bet is to drop him and go after another.	168973994	1476490193602	1476490193690	NA	32
330187	3557074	Your best bet is to drop him and go after another.	Your best bet is to drop him and go after another.	168974016	1476490193926	1476490194016	NA	65
330187	3557074	Your best bet is to drop him and go after another.	Your best bet is to drop him and go after another.	168974018	1476490194030	1476490194114	NA	78
330187	3557074	Your best bet is to drop him and go after another.	Your best bet is to drop him and go after another.	168974020	1476490194139	1476490194271	NA	68
330187	3557074	Your best bet is to drop him and go after another.	Your best bet is to drop him and go after another.	168974022	1476490194278	1476490194350	NA	32
330187	3557074	Your best bet is to drop him and go after another.	Your best bet is to drop him and go after another.	168974024	1476490194566	1476490194661	NA	71
330187	3557074	Your best bet is to drop him and go after another.	Your best bet is to drop him and go after another.	168974064	1476490194631	1476490194709	NA	79
330187	3557074	Your best bet is to drop him and go after another.	Your best bet is to drop him and go after another.	168974066	1476490194802	1476490194896	NA	32
330187	3557074	Your best bet is to drop him and go after another.	Your best bet is to drop him and go after another.	168974068	1476490195275	1476490195365	NA	65
330187	3557074	Your best bet is to drop him and go after another.	Your best bet is to drop him and go after another.	168974070	1476490195557	1476490195620	NA	70
330187	3557074	Your best bet is to drop him and go after another.	Your best bet is to drop him and go after another.	168974072	1476490195720	1476490195794	NA	84
330187	3557074	Your best bet is to drop him and go after another.	Your best bet is to drop him and go after another.	168974074	1476490195805	1476490195915	NA	69
330187	3557074	Your best bet is to drop him and go after another.	Your best bet is to drop him and go after another.	168974089	1476490195890	1476490196007	NA	82
330187	3557074	Your best bet is to drop him and go after another.	Your best bet is to drop him and go after another.	168974091	1476490195992	1476490196073	NA	32
330187	3557074	Your best bet is to drop him and go after another.	Your best bet is to drop him and go after another.	168974092	1476490196312	1476490196385	NA	65
330187	3557074	Your best bet is to drop him and go after another.	Your best bet is to drop him and go after another.	168974094	1476490196473	1476490196538	NA	78
330187	3557074	Your best bet is to drop him and go after another.	Your best bet is to drop him and go after another.	168974095	1476490196631	1476490196704	NA	79
330187	3557074	Your best bet is to drop him and go after another.	Your best bet is to drop him and go after another.	168974097	1476490196773	1476490196842	NA	84
330187	3557074	Your best bet is to drop him and go after another.	Your best bet is to drop him and go after another.	168974117	1476490196856	1476490196925	NA	72
330187	3557074	Your best bet is to drop him and go after another.	Your best bet is to drop him and go after another.	168974118	1476490196990	1476490197106	NA	69
330187	3557074	Your best bet is to drop him and go after another.	Your best bet is to drop him and go after another.	168974120	1476490197065	1476490197174	NA	82
330187	3557074	Your best bet is to drop him and go after another.	Your best bet is to drop him and go after another.	168974122	1476490197235	1476490197298	NA	190
330187	3557083	There was no such accord.	There was no such accord.	168974264	1476490199646	1476490200004	SHIFT	16
330187	3557083	There was no such accord.	There was no such accord.	168974262	1476490199907	1476490199992	NA	84
330187	3557083	There was no such accord.	There was no such accord.	168974265	1476490200026	1476490200089	NA	72
330187	3557083	There was no such accord.	There was no such accord.	168974266	1476490200225	1476490200306	NA	69
330187	3557083	There was no such accord.	There was no such accord.	168974268	1476490200494	1476490200616	NA	82
330187	3557083	There was no such accord.	There was no such accord.	168974271	1476490200705	1476490200796	NA	32
330187	3557083	There was no such accord.	There was no such accord.	168974292	1476490201053	1476490201133		8
330187	3557083	There was no such accord.	There was no such accord.	168974294	1476490201155	1476490201270	NA	69
330187	3557083	There was no such accord.	There was no such accord.	168974297	1476490201274	1476490201347	NA	32
330187	3557083	There was no such accord.	There was no such accord.	168974300	1476490201458	1476490201515	NA	87
330187	3557083	There was no such accord.	There was no such accord.	168974383	1476490201485	1476490201630	NA	65
330187	3557083	There was no such accord.	There was no such accord.	168974387	1476490201622	1476490201735	NA	83
330187	3557083	There was no such accord.	There was no such accord.	168974391	1476490201707	1476490201813	NA	32
330187	3557083	There was no such accord.	There was no such accord.	168974395	1476490201951	1476490202026	NA	78
330187	3557083	There was no such accord.	There was no such accord.	168974399	1476490202126	1476490202194	NA	79
330187	3557083	There was no such accord.	There was no such accord.	168974403	1476490202270	1476490202340	NA	32
330187	3557083	There was no such accord.	There was no such accord.	168974381	1476490202478	1476490202577	NA	83
330187	3557083	There was no such accord.	There was no such accord.	168974386	1476490202621	1476490202695	NA	85
330187	3557083	There was no such accord.	There was no such accord.	168974390	1476490202717	1476490202840	NA	67
330187	3557083	There was no such accord.	There was no such accord.	168974393	1476490202821	1476490202884	NA	72
330187	3557083	There was no such accord.	There was no such accord.	168974398	1476490202945	1476490203047	NA	32
330187	3557083	There was no such accord.	There was no such accord.	168974429	1476490203319	1476490203444	NA	82
330187	3557083	There was no such accord.	There was no such accord.	168974431	1476490203408	1476490203549	NA	69
330187	3557083	There was no such accord.	There was no such accord.	168974433	1476490203744	1476490203808		8
330187	3557083	There was no such accord.	There was no such accord.	168974436	1476490203841	1476490203920		8
330187	3557083	There was no such accord.	There was no such accord.	168974438	1476490203933	1476490204032	NA	65
330187	3557083	There was no such accord.	There was no such accord.	168974457	1476490204081	1476490204162	NA	67
330187	3557083	There was no such accord.	There was no such accord.	168974458	1476490204233	1476490204280	NA	67
330187	3557083	There was no such accord.	There was no such accord.	168974459	1476490204415	1476490204481	NA	79
330187	3557083	There was no such accord.	There was no such accord.	168974460	1476490204673	1476490204748	NA	82
330187	3557083	There was no such accord.	There was no such accord.	168974461	1476490204835	1476490204917	NA	68
330187	3557083	There was no such accord.	There was no such accord.	168974470	1476490205019	1476490205101	NA	190
330187	3557089	How did you make sure it was the right set?	How did you make sure it was the right set?	168974600	1476490207269	1476490207672	SHIFT	16
330187	3557089	How did you make sure it was the right set?	How did you make sure it was the right set?	168974599	1476490207578	1476490207634	NA	72
330187	3557089	How did you make sure it was the right set?	How did you make sure it was the right set?	168974601	1476490207757	1476490207805	NA	79
330187	3557089	How did you make sure it was the right set?	How did you make sure it was the right set?	168974602	1476490207845	1476490207933	NA	87
330187	3557089	How did you make sure it was the right set?	How did you make sure it was the right set?	168974603	1476490208359	1476490208450	NA	32
330187	3557089	How did you make sure it was the right set?	How did you make sure it was the right set?	168974604	1476490208586	1476490208692	NA	68
330187	3557089	How did you make sure it was the right set?	How did you make sure it was the right set?	168974620	1476490208682	1476490208751	NA	73
330187	3557089	How did you make sure it was the right set?	How did you make sure it was the right set?	168974624	1476490208758	1476490208883	NA	68
330187	3557089	How did you make sure it was the right set?	How did you make sure it was the right set?	168974627	1476490208884	1476490208974	NA	32
330187	3557089	How did you make sure it was the right set?	How did you make sure it was the right set?	168974633	1476490209324	1476490209392	NA	89
330187	3557089	How did you make sure it was the right set?	How did you make sure it was the right set?	168974638	1476490209396	1476490209472	NA	79
330187	3557089	How did you make sure it was the right set?	How did you make sure it was the right set?	168974640	1476490209485	1476490209545	NA	85
330187	3557089	How did you make sure it was the right set?	How did you make sure it was the right set?	168974645	1476490209582	1476490209669	NA	32
330187	3557089	How did you make sure it was the right set?	How did you make sure it was the right set?	168974648	1476490209700	1476490209778	NA	77
330187	3557089	How did you make sure it was the right set?	How did you make sure it was the right set?	168974651	1476490209798	1476490209879	NA	65
330187	3557089	How did you make sure it was the right set?	How did you make sure it was the right set?	168974653	1476490209895	1476490209968	NA	75
330187	3557089	How did you make sure it was the right set?	How did you make sure it was the right set?	168974657	1476490209998	1476490210119	NA	69
330187	3557089	How did you make sure it was the right set?	How did you make sure it was the right set?	168974679	1476490210126	1476490210228	NA	32
330187	3557089	How did you make sure it was the right set?	How did you make sure it was the right set?	168974680	1476490210394	1476490210499	NA	83
330187	3557089	How did you make sure it was the right set?	How did you make sure it was the right set?	168974681	1476490210632	1476490210706	NA	85
330187	3557089	How did you make sure it was the right set?	How did you make sure it was the right set?	168974682	1476490210719	1476490210839	NA	82
330187	3557089	How did you make sure it was the right set?	How did you make sure it was the right set?	168974701	1476490210793	1476490210912	NA	69
330187	3557089	How did you make sure it was the right set?	How did you make sure it was the right set?	168974706	1476490210900	1476490210993	NA	32
330187	3557089	How did you make sure it was the right set?	How did you make sure it was the right set?	168974711	1476490211015	1476490211082	NA	73
330187	3557089	How did you make sure it was the right set?	How did you make sure it was the right set?	168974715	1476490211101	1476490211229	NA	84
330187	3557089	How did you make sure it was the right set?	How did you make sure it was the right set?	168974720	1476490211211	1476490211286	NA	32
330187	3557089	How did you make sure it was the right set?	How did you make sure it was the right set?	168974725	1476490211433	1476490211555	NA	87
330187	3557089	How did you make sure it was the right set?	How did you make sure it was the right set?	168974737	1476490211519	1476490211678	NA	65
330187	3557089	How did you make sure it was the right set?	How did you make sure it was the right set?	168974739	1476490211642	1476490211774	NA	83
330187	3557089	How did you make sure it was the right set?	How did you make sure it was the right set?	168974741	1476490211734	1476490211843	NA	32
330187	3557089	How did you make sure it was the right set?	How did you make sure it was the right set?	168974742	1476490211930	1476490212008	NA	84
330187	3557089	How did you make sure it was the right set?	How did you make sure it was the right set?	168974743	1476490212018	1476490212097	NA	72
330187	3557089	How did you make sure it was the right set?	How did you make sure it was the right set?	168974744	1476490212104	1476490212217	NA	69
330187	3557089	How did you make sure it was the right set?	How did you make sure it was the right set?	168974775	1476490212195	1476490212298	NA	32
330187	3557089	How did you make sure it was the right set?	How did you make sure it was the right set?	168974778	1476490212526	1476490212592	NA	82
330187	3557089	How did you make sure it was the right set?	How did you make sure it was the right set?	168974782	1476490212724	1476490212802	NA	73
330187	3557089	How did you make sure it was the right set?	How did you make sure it was the right set?	168974786	1476490212839	1476490212914	NA	71
330187	3557089	How did you make sure it was the right set?	How did you make sure it was the right set?	168974790	1476490212936	1476490213005	NA	72
330187	3557089	How did you make sure it was the right set?	How did you make sure it was the right set?	168974793	1476490213042	1476490213138	NA	84
330187	3557089	How did you make sure it was the right set?	How did you make sure it was the right set?	168974829	1476490213146	1476490213224	NA	32
330187	3557089	How did you make sure it was the right set?	How did you make sure it was the right set?	168974830	1476490213674	1476490213777	NA	83
330187	3557089	How did you make sure it was the right set?	How did you make sure it was the right set?	168974831	1476490213781	1476490213898	NA	69
330187	3557089	How did you make sure it was the right set?	How did you make sure it was the right set?	168974832	1476490213962	1476490214031	NA	84
330187	3557089	How did you make sure it was the right set?	How did you make sure it was the right set?	168974836	1476490214093	1476490214275	SHIFT	16
330187	3557089	How did you make sure it was the right set?	How did you make sure it was the right set?	168974833	1476490214169	1476490214239	NA	191
330187	3557098	Geez, I sound pathetic.	Geez, I sound pathetic.	168974911	1476490216288	1476490216761	SHIFT	16
330187	3557098	Geez, I sound pathetic.	Geez, I sound pathetic.	168974907	1476490216662	1476490216744	NA	71
330187	3557098	Geez, I sound pathetic.	Geez, I sound pathetic.	168974916	1476490216852	1476490216930	NA	69
330187	3557098	Geez, I sound pathetic.	Geez, I sound pathetic.	168974920	1476490216985	1476490217054	NA	69
330187	3557098	Geez, I sound pathetic.	Geez, I sound pathetic.	168974923	1476490217201	1476490217289	NA	90
330187	3557098	Geez, I sound pathetic.	Geez, I sound pathetic.	168974927	1476490217328	1476490217386	NA	188
330187	3557098	Geez, I sound pathetic.	Geez, I sound pathetic.	168974953	1476490217772	1476490217866	NA	32
330187	3557098	Geez, I sound pathetic.	Geez, I sound pathetic.	168974959	1476490218008	1476490218247	SHIFT	16
330187	3557098	Geez, I sound pathetic.	Geez, I sound pathetic.	168974956	1476490218136	1476490218212	NA	73
330187	3557098	Geez, I sound pathetic.	Geez, I sound pathetic.	168974962	1476490218223	1476490218307	NA	32
330187	3557098	Geez, I sound pathetic.	Geez, I sound pathetic.	168974965	1476490218397	1476490218483	NA	83
330187	3557098	Geez, I sound pathetic.	Geez, I sound pathetic.	168974988	1476490218456	1476490218540	NA	79
330187	3557098	Geez, I sound pathetic.	Geez, I sound pathetic.	168974989	1476490218628	1476490218701	NA	85
330187	3557098	Geez, I sound pathetic.	Geez, I sound pathetic.	168974990	1476490218791	1476490218868	NA	78
330187	3557098	Geez, I sound pathetic.	Geez, I sound pathetic.	168974992	1476490219120	1476490219252	NA	68
330187	3557098	Geez, I sound pathetic.	Geez, I sound pathetic.	168974994	1476490219259	1476490219368	NA	32
330187	3557098	Geez, I sound pathetic.	Geez, I sound pathetic.	168974996	1476490219422	1476490219498	NA	80
330187	3557098	Geez, I sound pathetic.	Geez, I sound pathetic.	168975016	1476490219517	1476490219604	NA	65
330187	3557098	Geez, I sound pathetic.	Geez, I sound pathetic.	168975018	1476490219686	1476490219754	NA	84
330187	3557098	Geez, I sound pathetic.	Geez, I sound pathetic.	168975020	1476490219801	1476490219873	NA	72
330187	3557098	Geez, I sound pathetic.	Geez, I sound pathetic.	168975022	1476490219919	1476490220000	NA	69
330187	3557098	Geez, I sound pathetic.	Geez, I sound pathetic.	168975023	1476490220228	1476490220297	NA	84
330187	3557098	Geez, I sound pathetic.	Geez, I sound pathetic.	168975055	1476490220337	1476490220412	NA	73
330187	3557098	Geez, I sound pathetic.	Geez, I sound pathetic.	168975056	1476490220458	1476490220566	NA	67
330187	3557098	Geez, I sound pathetic.	Geez, I sound pathetic.	168975057	1476490221284	1476490221344	NA	190
330187	3557103	Please leave it to Brian.	Please leave it to Brian.	168975179	1476490223545	1476490223869	SHIFT	16
330187	3557103	Please leave it to Brian.	Please leave it to Brian.	168975177	1476490223782	1476490223853	NA	80
330187	3557103	Please leave it to Brian.	Please leave it to Brian.	168975184	1476490223929	1476490224014	NA	76
330187	3557103	Please leave it to Brian.	Please leave it to Brian.	168975188	1476490224023	1476490224131	NA	69
330187	3557103	Please leave it to Brian.	Please leave it to Brian.	168975191	1476490224115	1476490224283	NA	65
330187	3557103	Please leave it to Brian.	Please leave it to Brian.	168975218	1476490224252	1476490224337	NA	83
330187	3557103	Please leave it to Brian.	Please leave it to Brian.	168975221	1476490224424	1476490224521	NA	69
330187	3557103	Please leave it to Brian.	Please leave it to Brian.	168975223	1476490224549	1476490224612	NA	32
330187	3557103	Please leave it to Brian.	Please leave it to Brian.	168975225	1476490224667	1476490224739	NA	76
330187	3557103	Please leave it to Brian.	Please leave it to Brian.	168975226	1476490224785	1476490224893	NA	69
330187	3557103	Please leave it to Brian.	Please leave it to Brian.	168975227	1476490224877	1476490224968	NA	65
330187	3557103	Please leave it to Brian.	Please leave it to Brian.	168975229	1476490225055	1476490225177	NA	86
330187	3557103	Please leave it to Brian.	Please leave it to Brian.	168975233	1476490225167	1476490225275	NA	69
330187	3557103	Please leave it to Brian.	Please leave it to Brian.	168975238	1476490225295	1476490225388	NA	32
330187	3557103	Please leave it to Brian.	Please leave it to Brian.	168975242	1476490225454	1476490225530	NA	73
330187	3557103	Please leave it to Brian.	Please leave it to Brian.	168975247	1476490225549	1476490225683	NA	84
330187	3557103	Please leave it to Brian.	Please leave it to Brian.	168975255	1476490225664	1476490225767	NA	32
330187	3557103	Please leave it to Brian.	Please leave it to Brian.	168975257	1476490225870	1476490225958	NA	84
330187	3557103	Please leave it to Brian.	Please leave it to Brian.	168975261	1476490225938	1476490226018	NA	79
330187	3557103	Please leave it to Brian.	Please leave it to Brian.	168975265	1476490226079	1476490226172	NA	32
330187	3557103	Please leave it to Brian.	Please leave it to Brian.	168975269	1476490226293	1476490226460	SHIFT	16
330187	3557103	Please leave it to Brian.	Please leave it to Brian.	168975271	1476490226391	1476490226466	NA	66
330187	3557103	Please leave it to Brian.	Please leave it to Brian.	168975273	1476490226512	1476490226600	NA	82
330187	3557103	Please leave it to Brian.	Please leave it to Brian.	168975323	1476490226743	1476490226779	NA	85
330187	3557103	Please leave it to Brian.	Please leave it to Brian.	168975325	1476490227241	1476490227328		8
330187	3557103	Please leave it to Brian.	Please leave it to Brian.	168975329	1476490227639	1476490227717		8
330187	3557103	Please leave it to Brian.	Please leave it to Brian.	168975331	1476490227928	1476490227978	NA	73
330187	3557103	Please leave it to Brian.	Please leave it to Brian.	168975343	1476490228074	1476490228181	NA	65
330187	3557103	Please leave it to Brian.	Please leave it to Brian.	168975344	1476490228166	1476490228241	NA	78
330187	3557103	Please leave it to Brian.	Please leave it to Brian.	168975346	1476490228406	1476490228472	NA	190
330187	3557109	Should systems manage the migration?	Should systems manage the migration?	168975430	1476490230593	1476490230845	SHIFT	16
330187	3557109	Should systems manage the migration?	Should systems manage the migration?	168975435	1476490230768	1476490230872	NA	83
330187	3557109	Should systems manage the migration?	Should systems manage the migration?	168975441	1476490230886	1476490230954	NA	72
330187	3557109	Should systems manage the migration?	Should systems manage the migration?	168975445	1476490231063	1476490231135	NA	79
330187	3557109	Should systems manage the migration?	Should systems manage the migration?	168975450	1476490231219	1476490231286	NA	85
330187	3557109	Should systems manage the migration?	Should systems manage the migration?	168975455	1476490231388	1476490231457	NA	76
330187	3557109	Should systems manage the migration?	Should systems manage the migration?	168975469	1476490231467	1476490231599	NA	68
330187	3557109	Should systems manage the migration?	Should systems manage the migration?	168975471	1476490231606	1476490231688	NA	32
330187	3557109	Should systems manage the migration?	Should systems manage the migration?	168975472	1476490231873	1476490231979	NA	83
330187	3557109	Should systems manage the migration?	Should systems manage the migration?	168975473	1476490232061	1476490232130	NA	89
330187	3557109	Should systems manage the migration?	Should systems manage the migration?	168975475	1476490232146	1476490232237	NA	83
330187	3557109	Should systems manage the migration?	Should systems manage the migration?	168975492	1476490232333	1476490232443	NA	84
330187	3557109	Should systems manage the migration?	Should systems manage the migration?	168975493	1476490232412	1476490232513	NA	69
330187	3557109	Should systems manage the migration?	Should systems manage the migration?	168975494	1476490232522	1476490232595	NA	77
330187	3557109	Should systems manage the migration?	Should systems manage the migration?	168975495	1476490232621	1476490232732	NA	83
330187	3557109	Should systems manage the migration?	Should systems manage the migration?	168975496	1476490232765	1476490232868	NA	32
330187	3557109	Should systems manage the migration?	Should systems manage the migration?	168975540	1476490232964	1476490233052	NA	77
330187	3557109	Should systems manage the migration?	Should systems manage the migration?	168975543	1476490233044	1476490233141	NA	65
330187	3557109	Should systems manage the migration?	Should systems manage the migration?	168975545	1476490233189	1476490233256	NA	78
330187	3557109	Should systems manage the migration?	Should systems manage the migration?	168975547	1476490233334	1476490233431	NA	65
330187	3557109	Should systems manage the migration?	Should systems manage the migration?	168975548	1476490233617	1476490233730	NA	71
330187	3557109	Should systems manage the migration?	Should systems manage the migration?	168975571	1476490233714	1476490233845	NA	69
330187	3557109	Should systems manage the migration?	Should systems manage the migration?	168975572	1476490233838	1476490233930	NA	32
330187	3557109	Should systems manage the migration?	Should systems manage the migration?	168975574	1476490234026	1476490234103	NA	84
330187	3557109	Should systems manage the migration?	Should systems manage the migration?	168975576	1476490234237	1476490234323	NA	72
330187	3557109	Should systems manage the migration?	Should systems manage the migration?	168975578	1476490234360	1476490234468	NA	69
330187	3557109	Should systems manage the migration?	Should systems manage the migration?	168975582	1476490234481	1476490234574	NA	32
330187	3557109	Should systems manage the migration?	Should systems manage the migration?	168975614	1476490234674	1476490234746	NA	77
330187	3557109	Should systems manage the migration?	Should systems manage the migration?	168975618	1476490235015	1476490235098	NA	73
330187	3557109	Should systems manage the migration?	Should systems manage the migration?	168975624	1476490235228	1476490235298	NA	71
330187	3557109	Should systems manage the migration?	Should systems manage the migration?	168975626	1476490235409	1476490235511	NA	82
330187	3557109	Should systems manage the migration?	Should systems manage the migration?	168975628	1476490235572	1476490235608	NA	65
330187	3557109	Should systems manage the migration?	Should systems manage the migration?	168975675	1476490235785	1476490235861	NA	73
330187	3557109	Should systems manage the migration?	Should systems manage the migration?	168975676	1476490236272	1476490236359		8
330187	3557109	Should systems manage the migration?	Should systems manage the migration?	168975677	1476490236866	1476490236961	NA	84
330187	3557109	Should systems manage the migration?	Should systems manage the migration?	168975678	1476490236988	1476490237048	NA	73
330187	3557109	Should systems manage the migration?	Should systems manage the migration?	168975679	1476490237118	1476490237183	NA	79
330187	3557109	Should systems manage the migration?	Should systems manage the migration?	168975714	1476490237274	1476490237340	NA	78
330187	3557109	Should systems manage the migration?	Should systems manage the migration?	168975716	1476490238009	1476490238073	NA	191
330187	3557121	As usual, I will be as candid as I can.	As usual, I will be as candid as I can.	168975836	1476490240314	1476490240373	NA	65
330187	3557121	As usual, I will be as candid as I can.	As usual, I will be as candid as I can.	168975841	1476490240688	1476490240776	NA	83
330187	3557121	As usual, I will be as candid as I can.	As usual, I will be as candid as I can.	168975845	1476490240861	1476490240944	NA	32
330187	3557121	As usual, I will be as candid as I can.	As usual, I will be as candid as I can.	168975849	1476490241186	1476490241256	NA	85
330187	3557121	As usual, I will be as candid as I can.	As usual, I will be as candid as I can.	168975852	1476490241286	1476490241371	NA	83
330187	3557121	As usual, I will be as candid as I can.	As usual, I will be as candid as I can.	168975872	1476490241405	1476490241480	NA	85
330187	3557121	As usual, I will be as candid as I can.	As usual, I will be as candid as I can.	168975875	1476490241500	1476490241605	NA	65
330187	3557121	As usual, I will be as candid as I can.	As usual, I will be as candid as I can.	168975879	1476490241621	1476490241679	NA	76
330187	3557121	As usual, I will be as candid as I can.	As usual, I will be as candid as I can.	168975882	1476490241790	1476490241868	NA	188
330187	3557121	As usual, I will be as candid as I can.	As usual, I will be as candid as I can.	168975883	1476490241959	1476490242034	NA	32
330187	3557121	As usual, I will be as candid as I can.	As usual, I will be as candid as I can.	168975915	1476490242135	1476490242336	SHIFT	16
330187	3557121	As usual, I will be as candid as I can.	As usual, I will be as candid as I can.	168975914	1476490242201	1476490242278	NA	73
330187	3557121	As usual, I will be as candid as I can.	As usual, I will be as candid as I can.	168975916	1476490242317	1476490242416	NA	32
330187	3557121	As usual, I will be as candid as I can.	As usual, I will be as candid as I can.	168975917	1476490242424	1476490242544	NA	87
330187	3557121	As usual, I will be as candid as I can.	As usual, I will be as candid as I can.	168975918	1476490242516	1476490242589	NA	73
330187	3557121	As usual, I will be as candid as I can.	As usual, I will be as candid as I can.	168975919	1476490242667	1476490242745	NA	76
330187	3557121	As usual, I will be as candid as I can.	As usual, I will be as candid as I can.	168975946	1476490242785	1476490242852	NA	76
330187	3557121	As usual, I will be as candid as I can.	As usual, I will be as candid as I can.	168975950	1476490242903	1476490242991	NA	32
330187	3557121	As usual, I will be as candid as I can.	As usual, I will be as candid as I can.	168975952	1476490243343	1476490243421	NA	66
330187	3557121	As usual, I will be as candid as I can.	As usual, I will be as candid as I can.	168975956	1476490243434	1476490243559	NA	69
330187	3557121	As usual, I will be as candid as I can.	As usual, I will be as candid as I can.	168975999	1476490243532	1476490243631	NA	32
330187	3557121	As usual, I will be as candid as I can.	As usual, I will be as candid as I can.	168976005	1476490243671	1476490243821	NA	65
330187	3557121	As usual, I will be as candid as I can.	As usual, I will be as candid as I can.	168976008	1476490243806	1476490243950	NA	83
330187	3557121	As usual, I will be as candid as I can.	As usual, I will be as candid as I can.	168976014	1476490243912	1476490244030	NA	32
330187	3557121	As usual, I will be as candid as I can.	As usual, I will be as candid as I can.	168976021	1476490244413	1476490244515	NA	67
330187	3557121	As usual, I will be as candid as I can.	As usual, I will be as candid as I can.	168976027	1476490244530	1476490244614	NA	65
330187	3557121	As usual, I will be as candid as I can.	As usual, I will be as candid as I can.	168976082	1476490244600	1476490244659	NA	78
330187	3557121	As usual, I will be as candid as I can.	As usual, I will be as candid as I can.	168976083	1476490244749	1476490244842	NA	68
330187	3557121	As usual, I will be as candid as I can.	As usual, I will be as candid as I can.	168976084	1476490244907	1476490244982	NA	73
330187	3557121	As usual, I will be as candid as I can.	As usual, I will be as candid as I can.	168976085	1476490245105	1476490245210	NA	68
330187	3557121	As usual, I will be as candid as I can.	As usual, I will be as candid as I can.	168976087	1476490245295	1476490245397	NA	32
330187	3557121	As usual, I will be as candid as I can.	As usual, I will be as candid as I can.	168976089	1476490245561	1476490245685	NA	65
330187	3557121	As usual, I will be as candid as I can.	As usual, I will be as candid as I can.	168976118	1476490245645	1476490245796	NA	83
330187	3557121	As usual, I will be as candid as I can.	As usual, I will be as candid as I can.	168976120	1476490245844	1476490245944	NA	32
330187	3557121	As usual, I will be as candid as I can.	As usual, I will be as candid as I can.	168976129	1476490246100	1476490246320	SHIFT	16
330187	3557121	As usual, I will be as candid as I can.	As usual, I will be as candid as I can.	168976123	1476490246194	1476490246277	NA	73
330187	3557121	As usual, I will be as candid as I can.	As usual, I will be as candid as I can.	168976134	1476490246302	1476490246381	NA	32
330187	3557121	As usual, I will be as candid as I can.	As usual, I will be as candid as I can.	168976139	1476490246447	1476490246555	NA	67
330187	3557121	As usual, I will be as candid as I can.	As usual, I will be as candid as I can.	168976155	1476490246518	1476490246641	NA	65
330187	3557121	As usual, I will be as candid as I can.	As usual, I will be as candid as I can.	168976160	1476490246589	1476490246665	NA	78
330187	3557121	As usual, I will be as candid as I can.	As usual, I will be as candid as I can.	168976164	1476490246794	1476490246863	NA	190
330187	3557131	Can we have them until we move?	Can we have them until we move?	168976311	1476490249007	1476490249307	SHIFT	16
330187	3557131	Can we have them until we move?	Can we have them until we move?	168976318	1476490249219	1476490249357	NA	67
330187	3557131	Can we have them until we move?	Can we have them until we move?	168976326	1476490249351	1476490249474	NA	65
330187	3557131	Can we have them until we move?	Can we have them until we move?	168976334	1476490249505	1476490249583	NA	78
330187	3557131	Can we have them until we move?	Can we have them until we move?	168976340	1476490249682	1476490249758	NA	32
330187	3557131	Can we have them until we move?	Can we have them until we move?	168976345	1476490249914	1476490250028	NA	87
330187	3557131	Can we have them until we move?	Can we have them until we move?	168976350	1476490249982	1476490250115	NA	69
330187	3557131	Can we have them until we move?	Can we have them until we move?	168976352	1476490250119	1476490250185	NA	32
330187	3557131	Can we have them until we move?	Can we have them until we move?	168976355	1476490250223	1476490250306	NA	72
330187	3557131	Can we have them until we move?	Can we have them until we move?	168976359	1476490250306	1476490250410	NA	65
330187	3557131	Can we have them until we move?	Can we have them until we move?	168976362	1476490250444	1476490250591	NA	86
330187	3557131	Can we have them until we move?	Can we have them until we move?	168976387	1476490250563	1476490250698	NA	69
330187	3557131	Can we have them until we move?	Can we have them until we move?	168976389	1476490250661	1476490250758	NA	32
330187	3557131	Can we have them until we move?	Can we have them until we move?	168976391	1476490250961	1476490251059	NA	84
330187	3557131	Can we have them until we move?	Can we have them until we move?	168976393	1476490251040	1476490251116	NA	72
330187	3557131	Can we have them until we move?	Can we have them until we move?	168976396	1476490251192	1476490251296	NA	69
330187	3557131	Can we have them until we move?	Can we have them until we move?	168976439	1476490251271	1476490251361	NA	77
330187	3557131	Can we have them until we move?	Can we have them until we move?	168976440	1476490251413	1476490251486	NA	32
330187	3557131	Can we have them until we move?	Can we have them until we move?	168976441	1476490251799	1476490251850	NA	85
330187	3557131	Can we have them until we move?	Can we have them until we move?	168976443	1476490251946	1476490252022	NA	78
330187	3557131	Can we have them until we move?	Can we have them until we move?	168976446	1476490252074	1476490252158	NA	84
330187	3557131	Can we have them until we move?	Can we have them until we move?	168976447	1476490252173	1476490252241	NA	73
330187	3557131	Can we have them until we move?	Can we have them until we move?	168976472	1476490252328	1476490252394	NA	76
330187	3557131	Can we have them until we move?	Can we have them until we move?	168976474	1476490252466	1476490252524	NA	32
330187	3557131	Can we have them until we move?	Can we have them until we move?	168976477	1476490252609	1476490252741	NA	87
330187	3557131	Can we have them until we move?	Can we have them until we move?	168976480	1476490252689	1476490252826	NA	69
330187	3557131	Can we have them until we move?	Can we have them until we move?	168976535	1476490252805	1476490252892	NA	32
330187	3557131	Can we have them until we move?	Can we have them until we move?	168976537	1476490252977	1476490253061	NA	77
330187	3557131	Can we have them until we move?	Can we have them until we move?	168976539	1476490253137	1476490253222	NA	79
330187	3557131	Can we have them until we move?	Can we have them until we move?	168976541	1476490253344	1476490253473	NA	86
330187	3557131	Can we have them until we move?	Can we have them until we move?	168976543	1476490253424	1476490253535	NA	69
330187	3557131	Can we have them until we move?	Can we have them until we move?	168976562	1476490253599	1476490254142	SHIFT	16
330187	3557131	Can we have them until we move?	Can we have them until we move?	168976545	1476490253952	1476490254022	NA	191
330187	3557139	You're down by 5 and need to score in 4 plays or less.	You're down by 5 and need to score in 4 plays or less.	168976777	1476490256138	1476490256629	SHIFT	16
330187	3557139	You're down by 5 and need to score in 4 plays or less.	You're down by 5 and need to score in 4 plays or less.	168976773	1476490256523	1476490256605	NA	89
330187	3557139	You're down by 5 and need to score in 4 plays or less.	You're down by 5 and need to score in 4 plays or less.	168976780	1476490256645	1476490256724	NA	79
330187	3557139	You're down by 5 and need to score in 4 plays or less.	You're down by 5 and need to score in 4 plays or less.	168976784	1476490257974	1476490258051	NA	85
330187	3557139	You're down by 5 and need to score in 4 plays or less.	You're down by 5 and need to score in 4 plays or less.	168976788	1476490258109	1476490258184	NA	222
330187	3557139	You're down by 5 and need to score in 4 plays or less.	You're down by 5 and need to score in 4 plays or less.	168976790	1476490258197	1476490258317	NA	82
330187	3557139	You're down by 5 and need to score in 4 plays or less.	You're down by 5 and need to score in 4 plays or less.	168976827	1476490258272	1476490258408	NA	69
330187	3557139	You're down by 5 and need to score in 4 plays or less.	You're down by 5 and need to score in 4 plays or less.	168976829	1476490258423	1476490258519	NA	32
330187	3557139	You're down by 5 and need to score in 4 plays or less.	You're down by 5 and need to score in 4 plays or less.	168976830	1476490258875	1476490258959	NA	79
330187	3557139	You're down by 5 and need to score in 4 plays or less.	You're down by 5 and need to score in 4 plays or less.	168976831	1476490259179	1476490259264		8
330187	3557139	You're down by 5 and need to score in 4 plays or less.	You're down by 5 and need to score in 4 plays or less.	168976833	1476490259334	1476490259426	NA	68
330187	3557139	You're down by 5 and need to score in 4 plays or less.	You're down by 5 and need to score in 4 plays or less.	168976874	1476490259422	1476490259501	NA	79
330187	3557139	You're down by 5 and need to score in 4 plays or less.	You're down by 5 and need to score in 4 plays or less.	168976877	1476490259523	1476490259616	NA	87
330187	3557139	You're down by 5 and need to score in 4 plays or less.	You're down by 5 and need to score in 4 plays or less.	168976881	1476490259624	1476490259696	NA	78
330187	3557139	You're down by 5 and need to score in 4 plays or less.	You're down by 5 and need to score in 4 plays or less.	168976883	1476490259745	1476490259838	NA	32
330187	3557139	You're down by 5 and need to score in 4 plays or less.	You're down by 5 and need to score in 4 plays or less.	168976885	1476490260294	1476490260376	NA	66
330187	3557139	You're down by 5 and need to score in 4 plays or less.	You're down by 5 and need to score in 4 plays or less.	168976887	1476490260463	1476490260585	NA	89
330187	3557139	You're down by 5 and need to score in 4 plays or less.	You're down by 5 and need to score in 4 plays or less.	168976956	1476490260564	1476490260678	NA	32
330187	3557139	You're down by 5 and need to score in 4 plays or less.	You're down by 5 and need to score in 4 plays or less.	168976958	1476490260909	1476490261016	NA	53
330187	3557139	You're down by 5 and need to score in 4 plays or less.	You're down by 5 and need to score in 4 plays or less.	168976961	1476490261038	1476490261155	NA	32
330187	3557139	You're down by 5 and need to score in 4 plays or less.	You're down by 5 and need to score in 4 plays or less.	168976964	1476490261790	1476490261841	NA	78
330187	3557139	You're down by 5 and need to score in 4 plays or less.	You're down by 5 and need to score in 4 plays or less.	168976969	1476490262119	1476490262188		8
330187	3557139	You're down by 5 and need to score in 4 plays or less.	You're down by 5 and need to score in 4 plays or less.	168976972	1476490262484	1476490262591	NA	65
330187	3557139	You're down by 5 and need to score in 4 plays or less.	You're down by 5 and need to score in 4 plays or less.	168976974	1476490262585	1476490262663	NA	78
330187	3557139	You're down by 5 and need to score in 4 plays or less.	You're down by 5 and need to score in 4 plays or less.	168976977	1476490262667	1476490262824	NA	68
330187	3557139	You're down by 5 and need to score in 4 plays or less.	You're down by 5 and need to score in 4 plays or less.	168976980	1476490262804	1476490262906	NA	32
330187	3557139	You're down by 5 and need to score in 4 plays or less.	You're down by 5 and need to score in 4 plays or less.	168976983	1476490262967	1476490263033	NA	78
330187	3557139	You're down by 5 and need to score in 4 plays or less.	You're down by 5 and need to score in 4 plays or less.	168976986	1476490263073	1476490263149	NA	69
330187	3557139	You're down by 5 and need to score in 4 plays or less.	You're down by 5 and need to score in 4 plays or less.	168976989	1476490263197	1476490263245	NA	69
330187	3557139	You're down by 5 and need to score in 4 plays or less.	You're down by 5 and need to score in 4 plays or less.	168977007	1476490263312	1476490263448	NA	68
330187	3557139	You're down by 5 and need to score in 4 plays or less.	You're down by 5 and need to score in 4 plays or less.	168977008	1476490263426	1476490263539	NA	32
330187	3557139	You're down by 5 and need to score in 4 plays or less.	You're down by 5 and need to score in 4 plays or less.	168977010	1476490263579	1476490263698	NA	84
330187	3557139	You're down by 5 and need to score in 4 plays or less.	You're down by 5 and need to score in 4 plays or less.	168977011	1476490263665	1476490263735	NA	79
330187	3557139	You're down by 5 and need to score in 4 plays or less.	You're down by 5 and need to score in 4 plays or less.	168977013	1476490263796	1476490263885	NA	32
330187	3557139	You're down by 5 and need to score in 4 plays or less.	You're down by 5 and need to score in 4 plays or less.	168977049	1476490264125	1476490264234	NA	83
330187	3557139	You're down by 5 and need to score in 4 plays or less.	You're down by 5 and need to score in 4 plays or less.	168977051	1476490264294	1476490264394	NA	67
330187	3557139	You're down by 5 and need to score in 4 plays or less.	You're down by 5 and need to score in 4 plays or less.	168977054	1476490264383	1476490264468	NA	79
330187	3557139	You're down by 5 and need to score in 4 plays or less.	You're down by 5 and need to score in 4 plays or less.	168977057	1476490264495	1476490264627	NA	82
330187	3557139	You're down by 5 and need to score in 4 plays or less.	You're down by 5 and need to score in 4 plays or less.	168977126	1476490264578	1476490264739	NA	69
330187	3557139	You're down by 5 and need to score in 4 plays or less.	You're down by 5 and need to score in 4 plays or less.	168977130	1476490264733	1476490264823	NA	32
330187	3557139	You're down by 5 and need to score in 4 plays or less.	You're down by 5 and need to score in 4 plays or less.	168977136	1476490265166	1476490265238	NA	73
330187	3557139	You're down by 5 and need to score in 4 plays or less.	You're down by 5 and need to score in 4 plays or less.	168977142	1476490265323	1476490265398	NA	78
330187	3557139	You're down by 5 and need to score in 4 plays or less.	You're down by 5 and need to score in 4 plays or less.	168977147	1476490265442	1476490265535	NA	32
330187	3557139	You're down by 5 and need to score in 4 plays or less.	You're down by 5 and need to score in 4 plays or less.	168977155	1476490265782	1476490265891	NA	52
330187	3557139	You're down by 5 and need to score in 4 plays or less.	You're down by 5 and need to score in 4 plays or less.	168977199	1476490265939	1476490266036	NA	32
330187	3557139	You're down by 5 and need to score in 4 plays or less.	You're down by 5 and need to score in 4 plays or less.	168977202	1476490266254	1476490266341	NA	80
330187	3557139	You're down by 5 and need to score in 4 plays or less.	You're down by 5 and need to score in 4 plays or less.	168977204	1476490266418	1476490266498	NA	76
330187	3557139	You're down by 5 and need to score in 4 plays or less.	You're down by 5 and need to score in 4 plays or less.	168977207	1476490266758	1476490266873	NA	65
330187	3557139	You're down by 5 and need to score in 4 plays or less.	You're down by 5 and need to score in 4 plays or less.	168977212	1476490266877	1476490266949	NA	89
330187	3557139	You're down by 5 and need to score in 4 plays or less.	You're down by 5 and need to score in 4 plays or less.	168977255	1476490266995	1476490267131	NA	83
330187	3557139	You're down by 5 and need to score in 4 plays or less.	You're down by 5 and need to score in 4 plays or less.	168977257	1476490267138	1476490267244	NA	32
330187	3557139	You're down by 5 and need to score in 4 plays or less.	You're down by 5 and need to score in 4 plays or less.	168977261	1476490267605	1476490267677	NA	79
330187	3557139	You're down by 5 and need to score in 4 plays or less.	You're down by 5 and need to score in 4 plays or less.	168977265	1476490267809	1476490267934	NA	82
330187	3557139	You're down by 5 and need to score in 4 plays or less.	You're down by 5 and need to score in 4 plays or less.	168977324	1476490267918	1476490268008	NA	32
330187	3557139	You're down by 5 and need to score in 4 plays or less.	You're down by 5 and need to score in 4 plays or less.	168977327	1476490268310	1476490268385	NA	76
330187	3557139	You're down by 5 and need to score in 4 plays or less.	You're down by 5 and need to score in 4 plays or less.	168977331	1476490268419	1476490268498	NA	69
330187	3557139	You're down by 5 and need to score in 4 plays or less.	You're down by 5 and need to score in 4 plays or less.	168977334	1476490268561	1476490268640	NA	83
330187	3557139	You're down by 5 and need to score in 4 plays or less.	You're down by 5 and need to score in 4 plays or less.	168977339	1476490268653	1476490268738	NA	83
330187	3557139	You're down by 5 and need to score in 4 plays or less.	You're down by 5 and need to score in 4 plays or less.	168977343	1476490269134	1476490269201	NA	190
330187	3557158	We haven't made that decision here though.	We haven't made that decision here though.	168977470	1476490271080	1476490271398	SHIFT	16
330187	3557158	We haven't made that decision here though.	We haven't made that decision here though.	168977468	1476490271286	1476490271369	NA	87
330187	3557158	We haven't made that decision here though.	We haven't made that decision here though.	168977471	1476490271468	1476490271576	NA	69
330187	3557158	We haven't made that decision here though.	We haven't made that decision here though.	168977474	1476490271602	1476490271688	NA	32
330187	3557158	We haven't made that decision here though.	We haven't made that decision here though.	168977476	1476490271734	1476490271816	NA	72
330187	3557158	We haven't made that decision here though.	We haven't made that decision here though.	168977482	1476490271822	1476490271932	NA	65
330187	3557158	We haven't made that decision here though.	We haven't made that decision here though.	168977585	1476490271968	1476490272096	NA	86
330187	3557158	We haven't made that decision here though.	We haven't made that decision here though.	168977586	1476490272072	1476490272189	NA	69
330187	3557158	We haven't made that decision here though.	We haven't made that decision here though.	168977587	1476490273392	1476490273473	NA	78
330187	3557158	We haven't made that decision here though.	We haven't made that decision here though.	168977589	1476490273588	1476490273666	NA	222
330187	3557158	We haven't made that decision here though.	We haven't made that decision here though.	168977592	1476490273675	1476490273773	NA	84
330187	3557158	We haven't made that decision here though.	We haven't made that decision here though.	168977662	1476490273821	1476490273914	NA	32
330187	3557158	We haven't made that decision here though.	We haven't made that decision here though.	168977665	1476490274266	1476490274328	NA	77
330187	3557158	We haven't made that decision here though.	We haven't made that decision here though.	168977668	1476490274328	1476490274439	NA	65
330187	3557158	We haven't made that decision here though.	We haven't made that decision here though.	168977674	1476490275050	1476490275175	NA	68
330187	3557158	We haven't made that decision here though.	We haven't made that decision here though.	168977701	1476490275160	1476490275311	NA	69
330187	3557158	We haven't made that decision here though.	We haven't made that decision here though.	168977704	1476490275314	1476490275404	NA	32
330187	3557158	We haven't made that decision here though.	We haven't made that decision here though.	168977709	1476490275674	1476490275785	NA	84
330187	3557158	We haven't made that decision here though.	We haven't made that decision here though.	168977713	1476490275789	1476490275862	NA	72
330187	3557158	We haven't made that decision here though.	We haven't made that decision here though.	168977716	1476490275886	1476490276012	NA	65
330187	3557158	We haven't made that decision here though.	We haven't made that decision here though.	168977743	1476490275989	1476490276103	NA	84
330187	3557158	We haven't made that decision here though.	We haven't made that decision here though.	168977745	1476490276097	1476490276187	NA	32
330187	3557158	We haven't made that decision here though.	We haven't made that decision here though.	168977749	1476490276388	1476490276478	NA	68
330187	3557158	We haven't made that decision here though.	We haven't made that decision here though.	168977754	1476490276542	1476490276632	NA	69
330187	3557158	We haven't made that decision here though.	We haven't made that decision here though.	168977760	1476490276743	1476490276834	NA	67
330187	3557158	We haven't made that decision here though.	We haven't made that decision here though.	168977764	1476490276862	1476490276943	NA	73
330187	3557158	We haven't made that decision here though.	We haven't made that decision here though.	168977779	1476490276971	1476490277058	NA	83
330187	3557158	We haven't made that decision here though.	We haven't made that decision here though.	168977781	1476490277063	1476490277135	NA	73
330187	3557158	We haven't made that decision here though.	We haven't made that decision here though.	168977783	1476490277201	1476490277271	NA	79
330187	3557158	We haven't made that decision here though.	We haven't made that decision here though.	168977786	1476490277349	1476490277428	NA	78
330187	3557158	We haven't made that decision here though.	We haven't made that decision here though.	168977791	1476490277497	1476490277564	NA	32
330187	3557158	We haven't made that decision here though.	We haven't made that decision here though.	168977828	1476490278002	1476490278068	NA	72
330187	3557158	We haven't made that decision here though.	We haven't made that decision here though.	168977829	1476490278141	1476490278245	NA	69
330187	3557158	We haven't made that decision here though.	We haven't made that decision here though.	168977832	1476490278211	1476490278343	NA	82
330187	3557158	We haven't made that decision here though.	We haven't made that decision here though.	168977835	1476490278303	1476490278398	NA	69
330187	3557158	We haven't made that decision here though.	We haven't made that decision here though.	168977871	1476490278390	1476490278462	NA	32
330187	3557158	We haven't made that decision here though.	We haven't made that decision here though.	168977874	1476490278501	1476490278598	NA	84
330187	3557158	We haven't made that decision here though.	We haven't made that decision here though.	168977878	1476490278588	1476490278653	NA	72
330187	3557158	We haven't made that decision here though.	We haven't made that decision here though.	168977882	1476490278747	1476490278819	NA	79
330187	3557158	We haven't made that decision here though.	We haven't made that decision here though.	168977884	1476490278905	1476490278970	NA	85
330187	3557158	We haven't made that decision here though.	We haven't made that decision here though.	168977885	1476490279028	1476490279112	NA	71
330187	3557158	We haven't made that decision here though.	We haven't made that decision here though.	168977899	1476490279131	1476490279201	NA	72
330187	3557158	We haven't made that decision here though.	We haven't made that decision here though.	168977903	1476490279378	1476490279455	NA	190
