PARTICIPANT_ID	TEST_SECTION_ID	SENTENCE	USER_INPUT	KEYSTROKE_ID	PRESS_TIME	RELEASE_TIME	LETTER	KEYCODE
331397	3570899	I see some volume reversing in the system.	I see some volume reversing in the system.	169631100	1476512668445	1476512668665	SHIFT	16
331397	3570899	I see some volume reversing in the system.	I see some volume reversing in the system.	169631101	1476512668596	1476512668675	NA	73
331397	3570899	I see some volume reversing in the system.	I see some volume reversing in the system.	169631102	1476512668798	1476512668888	NA	32
331397	3570899	I see some volume reversing in the system.	I see some volume reversing in the system.	169631103	1476512668939	1476512669010	NA	83
331397	3570899	I see some volume reversing in the system.	I see some volume reversing in the system.	169631104	1476512669111	1476512669177	NA	69
331397	3570899	I see some volume reversing in the system.	I see some volume reversing in the system.	169631105	1476512669262	1476512669339	NA	69
331397	3570899	I see some volume reversing in the system.	I see some volume reversing in the system.	169631135	1476512669357	1476512669439	NA	32
331397	3570899	I see some volume reversing in the system.	I see some volume reversing in the system.	169631138	1476512669569	1476512669635	NA	79
331397	3570899	I see some volume reversing in the system.	I see some volume reversing in the system.	169631141	1476512670216	1476512670278		8
331397	3570899	I see some volume reversing in the system.	I see some volume reversing in the system.	169631143	1476512670421	1476512670526	NA	83
331397	3570899	I see some volume reversing in the system.	I see some volume reversing in the system.	169631145	1476512670540	1476512670625	NA	79
331397	3570899	I see some volume reversing in the system.	I see some volume reversing in the system.	169631201	1476512670747	1476512670808	NA	69
331397	3570899	I see some volume reversing in the system.	I see some volume reversing in the system.	169631203	1476512670897	1476512670992	NA	32
331397	3570899	I see some volume reversing in the system.	I see some volume reversing in the system.	169631206	1476512671049	1476512671178	NA	86
331397	3570899	I see some volume reversing in the system.	I see some volume reversing in the system.	169631209	1476512671632	1476512671690	NA	79
331397	3570899	I see some volume reversing in the system.	I see some volume reversing in the system.	169631215	1476512672212	1476512672263		8
331397	3570899	I see some volume reversing in the system.	I see some volume reversing in the system.	169631255	1476512672354	1476512672411		8
331397	3570899	I see some volume reversing in the system.	I see some volume reversing in the system.	169631256	1476512672503	1476512672558		8
331397	3570899	I see some volume reversing in the system.	I see some volume reversing in the system.	169631257	1476512672648	1476512672705		8
331397	3570899	I see some volume reversing in the system.	I see some volume reversing in the system.	169631258	1476512672787	1476512672854		8
331397	3570899	I see some volume reversing in the system.	I see some volume reversing in the system.	169631259	1476512673305	1476512673363	NA	79
331397	3570899	I see some volume reversing in the system.	I see some volume reversing in the system.	169631282	1476512673468	1476512673589	NA	77
331397	3570899	I see some volume reversing in the system.	I see some volume reversing in the system.	169631283	1476512673553	1476512673641	NA	69
331397	3570899	I see some volume reversing in the system.	I see some volume reversing in the system.	169631284	1476512673962	1476512674056	NA	32
331397	3570899	I see some volume reversing in the system.	I see some volume reversing in the system.	169631285	1476512674566	1476512674568	NA	86
331397	3570899	I see some volume reversing in the system.	I see some volume reversing in the system.	169631286	1476512674569	1476512674571	NA	79
331397	3570899	I see some volume reversing in the system.	I see some volume reversing in the system.	169631343	1476512674663	1476512674681		8
331397	3570899	I see some volume reversing in the system.	I see some volume reversing in the system.	169631345	1476512675278	1476512675337	NA	76
331397	3570899	I see some volume reversing in the system.	I see some volume reversing in the system.	169631347	1476512675730	1476512675786		8
331397	3570899	I see some volume reversing in the system.	I see some volume reversing in the system.	169631349	1476512675968	1476512676034	NA	79
331397	3570899	I see some volume reversing in the system.	I see some volume reversing in the system.	169631350	1476512676156	1476512676271	NA	76
331397	3570899	I see some volume reversing in the system.	I see some volume reversing in the system.	169631363	1476512676259	1476512676340	NA	85
331397	3570899	I see some volume reversing in the system.	I see some volume reversing in the system.	169631366	1476512676464	1476512676554	NA	77
331397	3570899	I see some volume reversing in the system.	I see some volume reversing in the system.	169631369	1476512676561	1476512676639	NA	69
331397	3570899	I see some volume reversing in the system.	I see some volume reversing in the system.	169631372	1476512676664	1476512676759	NA	32
331397	3570899	I see some volume reversing in the system.	I see some volume reversing in the system.	169631376	1476512676949	1476512677110	NA	82
331397	3570899	I see some volume reversing in the system.	I see some volume reversing in the system.	169631405	1476512677080	1476512677204	NA	69
331397	3570899	I see some volume reversing in the system.	I see some volume reversing in the system.	169631407	1476512677362	1476512677539	NA	69
331397	3570899	I see some volume reversing in the system.	I see some volume reversing in the system.	169631409	1476512677513	1476512677626	NA	82
331397	3570899	I see some volume reversing in the system.	I see some volume reversing in the system.	169631412	1476512678027	1476512678029	NA	83
331397	3570899	I see some volume reversing in the system.	I see some volume reversing in the system.	169631416	1476512678029	1476512678031	NA	73
331397	3570899	I see some volume reversing in the system.	I see some volume reversing in the system.	169631420	1476512678031	1476512678061	NA	78
331397	3570899	I see some volume reversing in the system.	I see some volume reversing in the system.	169631440	1476512678179	1476512678254	NA	32
331397	3570899	I see some volume reversing in the system.	I see some volume reversing in the system.	169631442	1476512678749	1476512678751	NA	73
331397	3570899	I see some volume reversing in the system.	I see some volume reversing in the system.	169631445	1476512678751	1476512678768	NA	78
331397	3570899	I see some volume reversing in the system.	I see some volume reversing in the system.	169631448	1476512678879	1476512678881	NA	84
331397	3570899	I see some volume reversing in the system.	I see some volume reversing in the system.	169631499	1476512679338	1476512679405		8
331397	3570899	I see some volume reversing in the system.	I see some volume reversing in the system.	169631502	1476512679572	1476512679627	NA	61
331397	3570899	I see some volume reversing in the system.	I see some volume reversing in the system.	169631504	1476512680025	1476512680099		8
331397	3570899	I see some volume reversing in the system.	I see some volume reversing in the system.	169631506	1476512680208	1476512680266		8
331397	3570899	I see some volume reversing in the system.	I see some volume reversing in the system.	169631508	1476512680360	1476512680415		8
331397	3570899	I see some volume reversing in the system.	I see some volume reversing in the system.	169631633	1476512680613	1476512680636		8
331397	3570899	I see some volume reversing in the system.	I see some volume reversing in the system.	169631634	1476512680827	1476512680899		8
331397	3570899	I see some volume reversing in the system.	I see some volume reversing in the system.	169631637	1476512684688	1476512685070	SHIFT	16
331397	3570899	I see some volume reversing in the system.	I see some volume reversing in the system.	169631635	1476512684953	1476512685050	NA	73
331397	3570899	I see some volume reversing in the system.	I see some volume reversing in the system.	169631639	1476512685149	1476512685242	NA	32
331397	3570899	I see some volume reversing in the system.	I see some volume reversing in the system.	169631643	1476512685321	1476512685432	NA	83
331397	3570899	I see some volume reversing in the system.	I see some volume reversing in the system.	169631660	1476512685544	1476512685609	NA	69
331397	3570899	I see some volume reversing in the system.	I see some volume reversing in the system.	169631663	1476512685699	1476512685776	NA	69
331397	3570899	I see some volume reversing in the system.	I see some volume reversing in the system.	169631665	1476512685830	1476512685916	NA	32
331397	3570899	I see some volume reversing in the system.	I see some volume reversing in the system.	169631667	1476512686098	1476512686201	NA	83
331397	3570899	I see some volume reversing in the system.	I see some volume reversing in the system.	169631669	1476512686209	1476512686267	NA	79
331397	3570899	I see some volume reversing in the system.	I see some volume reversing in the system.	169631689	1476512686369	1476512686470	NA	77
331397	3570899	I see some volume reversing in the system.	I see some volume reversing in the system.	169631691	1476512686457	1476512686529	NA	69
331397	3570899	I see some volume reversing in the system.	I see some volume reversing in the system.	169631692	1476512686586	1476512686681	NA	32
331397	3570899	I see some volume reversing in the system.	I see some volume reversing in the system.	169631693	1476512686747	1476512686833	NA	86
331397	3570899	I see some volume reversing in the system.	I see some volume reversing in the system.	169631694	1476512686876	1476512686934	NA	79
331397	3570899	I see some volume reversing in the system.	I see some volume reversing in the system.	169631702	1476512687095	1476512687168	NA	76
331397	3570899	I see some volume reversing in the system.	I see some volume reversing in the system.	169631706	1476512687229	1476512687304	NA	85
331397	3570899	I see some volume reversing in the system.	I see some volume reversing in the system.	169631709	1476512687442	1476512687520	NA	77
331397	3570899	I see some volume reversing in the system.	I see some volume reversing in the system.	169631714	1476512687574	1476512687657	NA	69
331397	3570899	I see some volume reversing in the system.	I see some volume reversing in the system.	169631717	1476512687739	1476512687811	NA	32
331397	3570899	I see some volume reversing in the system.	I see some volume reversing in the system.	169631737	1476512687967	1476512688110	NA	82
331397	3570899	I see some volume reversing in the system.	I see some volume reversing in the system.	169631739	1476512688080	1476512688198	NA	69
331397	3570899	I see some volume reversing in the system.	I see some volume reversing in the system.	169631741	1476512688501	1476512688631	NA	86
331397	3570899	I see some volume reversing in the system.	I see some volume reversing in the system.	169631745	1476512688609	1476512688765	NA	69
331397	3570899	I see some volume reversing in the system.	I see some volume reversing in the system.	169631751	1476512688732	1476512688816	NA	82
331397	3570899	I see some volume reversing in the system.	I see some volume reversing in the system.	169631752	1476512688910	1476512688982	NA	83
331397	3570899	I see some volume reversing in the system.	I see some volume reversing in the system.	169631754	1476512688998	1476512689056	NA	73
331397	3570899	I see some volume reversing in the system.	I see some volume reversing in the system.	169631756	1476512689187	1476512689272	NA	78
331397	3570899	I see some volume reversing in the system.	I see some volume reversing in the system.	169631757	1476512689261	1476512689341	NA	71
331397	3570899	I see some volume reversing in the system.	I see some volume reversing in the system.	169631759	1476512689392	1476512689476	NA	32
331397	3570899	I see some volume reversing in the system.	I see some volume reversing in the system.	169631767	1476512689602	1476512689703	NA	73
331397	3570899	I see some volume reversing in the system.	I see some volume reversing in the system.	169631770	1476512689691	1476512689809	NA	78
331397	3570899	I see some volume reversing in the system.	I see some volume reversing in the system.	169631773	1476512689868	1476512689958	NA	32
331397	3570899	I see some volume reversing in the system.	I see some volume reversing in the system.	169631776	1476512690003	1476512690084	NA	84
331397	3570899	I see some volume reversing in the system.	I see some volume reversing in the system.	169631778	1476512690131	1476512690211	NA	73
331397	3570899	I see some volume reversing in the system.	I see some volume reversing in the system.	169631800	1476512690263	1476512690384	NA	84
331397	3570899	I see some volume reversing in the system.	I see some volume reversing in the system.	169631801	1476512690599	1476512690641		8
331397	3570899	I see some volume reversing in the system.	I see some volume reversing in the system.	169631803	1476512690729	1476512690794		8
331397	3570899	I see some volume reversing in the system.	I see some volume reversing in the system.	169631807	1476512690969	1476512690982	NA	72
331397	3570899	I see some volume reversing in the system.	I see some volume reversing in the system.	169631811	1476512691309	1476512691380	NA	84
331397	3570899	I see some volume reversing in the system.	I see some volume reversing in the system.	169631831	1476512691652	1476512691730		8
331397	3570899	I see some volume reversing in the system.	I see some volume reversing in the system.	169631832	1476512691771	1476512691857	NA	69
331397	3570899	I see some volume reversing in the system.	I see some volume reversing in the system.	169631834	1476512691897	1476512691986	NA	32
331397	3570899	I see some volume reversing in the system.	I see some volume reversing in the system.	169631836	1476512692191	1476512692286	NA	83
331397	3570899	I see some volume reversing in the system.	I see some volume reversing in the system.	169631838	1476512692372	1476512692458	NA	89
331397	3570899	I see some volume reversing in the system.	I see some volume reversing in the system.	169631860	1476512692467	1476512692553	NA	83
331397	3570899	I see some volume reversing in the system.	I see some volume reversing in the system.	169631862	1476512692602	1476512692734	NA	84
331397	3570899	I see some volume reversing in the system.	I see some volume reversing in the system.	169631863	1476512692688	1476512692820	NA	69
331397	3570899	I see some volume reversing in the system.	I see some volume reversing in the system.	169631864	1476512692853	1476512692929	NA	77
331397	3570899	I see some volume reversing in the system.	I see some volume reversing in the system.	169631865	1476512693085	1476512693161	NA	188
331397	3570899	I see some volume reversing in the system.	I see some volume reversing in the system.	169631893	1476512693664	1476512693720		8
331397	3570899	I see some volume reversing in the system.	I see some volume reversing in the system.	169631894	1476512693910	1476512693997	NA	190
331397	3570916	Need you or John to step out.	Need you or John to step out.	169631975	1476512696976	1476512697220	SHIFT	16
331397	3570916	Need you or John to step out.	Need you or John to step out.	169631978	1476512697121	1476512697238	NA	78
331397	3570916	Need you or John to step out.	Need you or John to step out.	169631980	1476512697286	1476512697344	NA	69
331397	3570916	Need you or John to step out.	Need you or John to step out.	169631982	1476512697445	1476512697499	NA	69
331397	3570916	Need you or John to step out.	Need you or John to step out.	169631984	1476512697595	1476512697690	NA	68
331397	3570916	Need you or John to step out.	Need you or John to step out.	169631992	1476512697670	1476512697767	NA	32
331397	3570916	Need you or John to step out.	Need you or John to step out.	169631993	1476512697858	1476512697952	NA	89
331397	3570916	Need you or John to step out.	Need you or John to step out.	169631995	1476512697977	1476512698081	NA	79
331397	3570916	Need you or John to step out.	Need you or John to step out.	169631996	1476512698052	1476512698179	NA	85
331397	3570916	Need you or John to step out.	Need you or John to step out.	169631998	1476512698205	1476512698295	NA	32
331397	3570916	Need you or John to step out.	Need you or John to step out.	169631999	1476512698491	1476512698565	NA	79
331397	3570916	Need you or John to step out.	Need you or John to step out.	169632019	1476512698601	1476512698680	NA	82
331397	3570916	Need you or John to step out.	Need you or John to step out.	169632021	1476512698712	1476512698801	NA	32
331397	3570916	Need you or John to step out.	Need you or John to step out.	169632028	1476512699010	1476512699199	SHIFT	16
331397	3570916	Need you or John to step out.	Need you or John to step out.	169632024	1476512699084	1476512699172	NA	74
331397	3570916	Need you or John to step out.	Need you or John to step out.	169632031	1476512699292	1476512699358	NA	79
331397	3570916	Need you or John to step out.	Need you or John to step out.	169632034	1476512699583	1476512699650	NA	72
331397	3570916	Need you or John to step out.	Need you or John to step out.	169632056	1476512699793	1476512699858	NA	78
331397	3570916	Need you or John to step out.	Need you or John to step out.	169632058	1476512699986	1476512700062	NA	32
331397	3570916	Need you or John to step out.	Need you or John to step out.	169632059	1476512700299	1476512700388	NA	84
331397	3570916	Need you or John to step out.	Need you or John to step out.	169632060	1476512700422	1476512700490	NA	79
331397	3570916	Need you or John to step out.	Need you or John to step out.	169632061	1476512700524	1476512700647	NA	32
331397	3570916	Need you or John to step out.	Need you or John to step out.	169632081	1476512700696	1476512700766	NA	83
331397	3570916	Need you or John to step out.	Need you or John to step out.	169632082	1476512701071	1476512701207	NA	84
331397	3570916	Need you or John to step out.	Need you or John to step out.	169632083	1476512701195	1476512701301	NA	69
331397	3570916	Need you or John to step out.	Need you or John to step out.	169632084	1476512701351	1476512701441	NA	80
331397	3570916	Need you or John to step out.	Need you or John to step out.	169632085	1476512701588	1476512701681	NA	32
331397	3570916	Need you or John to step out.	Need you or John to step out.	169632110	1476512701840	1476512701944	NA	79
331397	3570916	Need you or John to step out.	Need you or John to step out.	169632111	1476512702141	1476512702238	NA	85
331397	3570916	Need you or John to step out.	Need you or John to step out.	169632112	1476512702265	1476512702327	NA	84
331397	3570916	Need you or John to step out.	Need you or John to step out.	169632113	1476512702527	1476512702610	NA	190
331397	3570922	Thanks for the quick turnaround.	Thanks for the quick turnaround.	169632162	1476512706054	1476512706302	SHIFT	16
331397	3570922	Thanks for the quick turnaround.	Thanks for the quick turnaround.	169632164	1476512706211	1476512706321	NA	84
331397	3570922	Thanks for the quick turnaround.	Thanks for the quick turnaround.	169632165	1476512706473	1476512706592	NA	78
331397	3570922	Thanks for the quick turnaround.	Thanks for the quick turnaround.	169632166	1476512706580	1476512706693	NA	65
331397	3570922	Thanks for the quick turnaround.	Thanks for the quick turnaround.	169632167	1476512706922	1476512706960		8
331397	3570922	Thanks for the quick turnaround.	Thanks for the quick turnaround.	169632168	1476512707030	1476512707086		8
331397	3570922	Thanks for the quick turnaround.	Thanks for the quick turnaround.	169632173	1476512707240	1476512707325	NA	72
331397	3570922	Thanks for the quick turnaround.	Thanks for the quick turnaround.	169632175	1476512707313	1476512707417	NA	65
331397	3570922	Thanks for the quick turnaround.	Thanks for the quick turnaround.	169632176	1476512707429	1476512707522	NA	78
331397	3570922	Thanks for the quick turnaround.	Thanks for the quick turnaround.	169632178	1476512707541	1476512707642	NA	75
331397	3570922	Thanks for the quick turnaround.	Thanks for the quick turnaround.	169632181	1476512707678	1476512707787	NA	83
331397	3570922	Thanks for the quick turnaround.	Thanks for the quick turnaround.	169632189	1476512707976	1476512708068	NA	32
331397	3570922	Thanks for the quick turnaround.	Thanks for the quick turnaround.	169632190	1476512708140	1476512708227	NA	70
331397	3570922	Thanks for the quick turnaround.	Thanks for the quick turnaround.	169632191	1476512708235	1476512708321	NA	79
331397	3570922	Thanks for the quick turnaround.	Thanks for the quick turnaround.	169632192	1476512708342	1476512708448	NA	82
331397	3570922	Thanks for the quick turnaround.	Thanks for the quick turnaround.	169632220	1476512708402	1476512708507	NA	32
331397	3570922	Thanks for the quick turnaround.	Thanks for the quick turnaround.	169632222	1476512708594	1476512708697	NA	84
331397	3570922	Thanks for the quick turnaround.	Thanks for the quick turnaround.	169632225	1476512708681	1476512708774	NA	72
331397	3570922	Thanks for the quick turnaround.	Thanks for the quick turnaround.	169632227	1476512708763	1476512708859	NA	69
331397	3570922	Thanks for the quick turnaround.	Thanks for the quick turnaround.	169632228	1476512708866	1476512708955	NA	32
331397	3570922	Thanks for the quick turnaround.	Thanks for the quick turnaround.	169632229	1476512709427	1476512709533	NA	81
331397	3570922	Thanks for the quick turnaround.	Thanks for the quick turnaround.	169632264	1476512709571	1476512709651	NA	85
331397	3570922	Thanks for the quick turnaround.	Thanks for the quick turnaround.	169632267	1476512709758	1476512709822	NA	73
331397	3570922	Thanks for the quick turnaround.	Thanks for the quick turnaround.	169632270	1476512710005	1476512710063	NA	67
331397	3570922	Thanks for the quick turnaround.	Thanks for the quick turnaround.	169632274	1476512710495	1476512710538	NA	75
331397	3570922	Thanks for the quick turnaround.	Thanks for the quick turnaround.	169632277	1476512710784	1476512710882	NA	32
331397	3570922	Thanks for the quick turnaround.	Thanks for the quick turnaround.	169632289	1476512711069	1476512711178	NA	84
331397	3570922	Thanks for the quick turnaround.	Thanks for the quick turnaround.	169632290	1476512711195	1476512711269	NA	85
331397	3570922	Thanks for the quick turnaround.	Thanks for the quick turnaround.	169632292	1476512711277	1476512711373	NA	82
331397	3570922	Thanks for the quick turnaround.	Thanks for the quick turnaround.	169632293	1476512711421	1476512711500	NA	78
331397	3570922	Thanks for the quick turnaround.	Thanks for the quick turnaround.	169632295	1476512711579	1476512711714	NA	65
331397	3570922	Thanks for the quick turnaround.	Thanks for the quick turnaround.	169632310	1476512711731	1476512711862	NA	82
331397	3570922	Thanks for the quick turnaround.	Thanks for the quick turnaround.	169632311	1476512712186	1476512712274	NA	79
331397	3570922	Thanks for the quick turnaround.	Thanks for the quick turnaround.	169632312	1476512712358	1476512712443	NA	85
331397	3570922	Thanks for the quick turnaround.	Thanks for the quick turnaround.	169632313	1476512712606	1476512712684	NA	78
331397	3570922	Thanks for the quick turnaround.	Thanks for the quick turnaround.	169632314	1476512712692	1476512712773	NA	68
331397	3570922	Thanks for the quick turnaround.	Thanks for the quick turnaround.	169632327	1476512713131	1476512713221	NA	190
331397	3570927	Most recent surveys put them in a dead heat.	Most recent surveys put them in a dead heat.	169632388	1476512715877	1476512716064	SHIFT	16
331397	3570927	Most recent surveys put them in a dead heat.	Most recent surveys put them in a dead heat.	169632389	1476512715993	1476512716092	NA	77
331397	3570927	Most recent surveys put them in a dead heat.	Most recent surveys put them in a dead heat.	169632390	1476512716145	1476512716254	NA	79
331397	3570927	Most recent surveys put them in a dead heat.	Most recent surveys put them in a dead heat.	169632391	1476512716239	1476512716362	NA	83
331397	3570927	Most recent surveys put them in a dead heat.	Most recent surveys put them in a dead heat.	169632392	1476512716349	1476512716472	NA	84
331397	3570927	Most recent surveys put them in a dead heat.	Most recent surveys put them in a dead heat.	169632393	1476512716481	1476512716582	NA	32
331397	3570927	Most recent surveys put them in a dead heat.	Most recent surveys put them in a dead heat.	169632411	1476512716612	1476512716755	NA	82
331397	3570927	Most recent surveys put them in a dead heat.	Most recent surveys put them in a dead heat.	169632412	1476512716684	1476512716813	NA	69
331397	3570927	Most recent surveys put them in a dead heat.	Most recent surveys put them in a dead heat.	169632413	1476512716960	1476512717068	NA	67
331397	3570927	Most recent surveys put them in a dead heat.	Most recent surveys put them in a dead heat.	169632414	1476512717172	1476512717257	NA	69
331397	3570927	Most recent surveys put them in a dead heat.	Most recent surveys put them in a dead heat.	169632415	1476512717283	1476512717387	NA	78
331397	3570927	Most recent surveys put them in a dead heat.	Most recent surveys put them in a dead heat.	169632444	1476512717370	1476512717477	NA	84
331397	3570927	Most recent surveys put them in a dead heat.	Most recent surveys put them in a dead heat.	169632448	1476512717505	1476512717604	NA	32
331397	3570927	Most recent surveys put them in a dead heat.	Most recent surveys put them in a dead heat.	169632451	1476512717764	1476512717883	NA	83
331397	3570927	Most recent surveys put them in a dead heat.	Most recent surveys put them in a dead heat.	169632454	1476512718100	1476512718205	NA	85
331397	3570927	Most recent surveys put them in a dead heat.	Most recent surveys put them in a dead heat.	169632456	1476512718214	1476512718322	NA	82
331397	3570927	Most recent surveys put them in a dead heat.	Most recent surveys put them in a dead heat.	169632460	1476512718421	1476512718560	NA	86
331397	3570927	Most recent surveys put them in a dead heat.	Most recent surveys put them in a dead heat.	169632482	1476512718538	1476512718652	NA	69
331397	3570927	Most recent surveys put them in a dead heat.	Most recent surveys put them in a dead heat.	169632483	1476512718721	1476512718821	NA	89
331397	3570927	Most recent surveys put them in a dead heat.	Most recent surveys put them in a dead heat.	169632484	1476512718863	1476512718945	NA	83
331397	3570927	Most recent surveys put them in a dead heat.	Most recent surveys put them in a dead heat.	169632485	1476512719078	1476512719175	NA	32
331397	3570927	Most recent surveys put them in a dead heat.	Most recent surveys put them in a dead heat.	169632486	1476512719350	1476512719413	NA	80
331397	3570927	Most recent surveys put them in a dead heat.	Most recent surveys put them in a dead heat.	169632487	1476512719514	1476512719599	NA	85
331397	3570927	Most recent surveys put them in a dead heat.	Most recent surveys put them in a dead heat.	169632500	1476512719611	1476512719687	NA	84
331397	3570927	Most recent surveys put them in a dead heat.	Most recent surveys put them in a dead heat.	169632501	1476512719908	1476512719990	NA	32
331397	3570927	Most recent surveys put them in a dead heat.	Most recent surveys put them in a dead heat.	169632502	1476512720073	1476512720180	NA	84
331397	3570927	Most recent surveys put them in a dead heat.	Most recent surveys put them in a dead heat.	169632504	1476512720164	1476512720243	NA	72
331397	3570927	Most recent surveys put them in a dead heat.	Most recent surveys put them in a dead heat.	169632507	1476512720259	1476512720338	NA	69
331397	3570927	Most recent surveys put them in a dead heat.	Most recent surveys put them in a dead heat.	169632524	1476512720367	1476512720469	NA	77
331397	3570927	Most recent surveys put them in a dead heat.	Most recent surveys put them in a dead heat.	169632525	1476512720521	1476512720612	NA	32
331397	3570927	Most recent surveys put them in a dead heat.	Most recent surveys put them in a dead heat.	169632526	1476512720668	1476512720780	NA	73
331397	3570927	Most recent surveys put them in a dead heat.	Most recent surveys put them in a dead heat.	169632527	1476512720759	1476512720864	NA	78
331397	3570927	Most recent surveys put them in a dead heat.	Most recent surveys put them in a dead heat.	169632528	1476512720883	1476512720984	NA	32
331397	3570927	Most recent surveys put them in a dead heat.	Most recent surveys put them in a dead heat.	169632553	1476512721042	1476512721155	NA	65
331397	3570927	Most recent surveys put them in a dead heat.	Most recent surveys put them in a dead heat.	169632554	1476512721178	1476512721281	NA	32
331397	3570927	Most recent surveys put them in a dead heat.	Most recent surveys put them in a dead heat.	169632556	1476512721588	1476512721675	NA	68
331397	3570927	Most recent surveys put them in a dead heat.	Most recent surveys put them in a dead heat.	169632559	1476512721765	1476512721844	NA	69
331397	3570927	Most recent surveys put them in a dead heat.	Most recent surveys put them in a dead heat.	169632562	1476512721875	1476512721988	NA	65
331397	3570927	Most recent surveys put them in a dead heat.	Most recent surveys put them in a dead heat.	169632576	1476512721998	1476512722102	NA	68
331397	3570927	Most recent surveys put them in a dead heat.	Most recent surveys put them in a dead heat.	169632578	1476512722135	1476512722171	NA	32
331397	3570927	Most recent surveys put them in a dead heat.	Most recent surveys put them in a dead heat.	169632579	1476512722321	1476512722403	NA	72
331397	3570927	Most recent surveys put them in a dead heat.	Most recent surveys put them in a dead heat.	169632581	1476512722422	1476512722521	NA	69
331397	3570927	Most recent surveys put them in a dead heat.	Most recent surveys put them in a dead heat.	169632582	1476512722537	1476512722632	NA	65
331397	3570927	Most recent surveys put them in a dead heat.	Most recent surveys put them in a dead heat.	169632592	1476512722740	1476512722823	NA	84
331397	3570927	Most recent surveys put them in a dead heat.	Most recent surveys put them in a dead heat.	169632595	1476512722962	1476512723053	NA	190
331397	3570935	In isolation, all of these things are trivial.	In isolation, all of these things are trivial.	169632668	1476512725941	1476512726149	SHIFT	16
331397	3570935	In isolation, all of these things are trivial.	In isolation, all of these things are trivial.	169632667	1476512726063	1476512726140	NA	73
331397	3570935	In isolation, all of these things are trivial.	In isolation, all of these things are trivial.	169632669	1476512726276	1476512726357	NA	78
331397	3570935	In isolation, all of these things are trivial.	In isolation, all of these things are trivial.	169632670	1476512726442	1476512726542	NA	32
331397	3570935	In isolation, all of these things are trivial.	In isolation, all of these things are trivial.	169632671	1476512726728	1476512726802	NA	73
331397	3570935	In isolation, all of these things are trivial.	In isolation, all of these things are trivial.	169632673	1476512727091	1476512727157	NA	83
331397	3570935	In isolation, all of these things are trivial.	In isolation, all of these things are trivial.	169632689	1476512727198	1476512727265	NA	79
331397	3570935	In isolation, all of these things are trivial.	In isolation, all of these things are trivial.	169632693	1476512727408	1476512727491	NA	76
331397	3570935	In isolation, all of these things are trivial.	In isolation, all of these things are trivial.	169632695	1476512727456	1476512727547	NA	65
331397	3570935	In isolation, all of these things are trivial.	In isolation, all of these things are trivial.	169632699	1476512727634	1476512727733	NA	84
331397	3570935	In isolation, all of these things are trivial.	In isolation, all of these things are trivial.	169632721	1476512727752	1476512727908	NA	73
331397	3570935	In isolation, all of these things are trivial.	In isolation, all of these things are trivial.	169632703	1476512727824	1476512727898	NA	79
331397	3570935	In isolation, all of these things are trivial.	In isolation, all of these things are trivial.	169632722	1476512727883	1476512727981	NA	78
331397	3570935	In isolation, all of these things are trivial.	In isolation, all of these things are trivial.	169632723	1476512728095	1476512728192	NA	188
331397	3570935	In isolation, all of these things are trivial.	In isolation, all of these things are trivial.	169632724	1476512728342	1476512728434	NA	32
331397	3570935	In isolation, all of these things are trivial.	In isolation, all of these things are trivial.	169632725	1476512728664	1476512728758	NA	65
331397	3570935	In isolation, all of these things are trivial.	In isolation, all of these things are trivial.	169632726	1476512728777	1476512728841	NA	76
331397	3570935	In isolation, all of these things are trivial.	In isolation, all of these things are trivial.	169632727	1476512728917	1476512729011	NA	76
331397	3570935	In isolation, all of these things are trivial.	In isolation, all of these things are trivial.	169632733	1476512729021	1476512729114	NA	32
331397	3570935	In isolation, all of these things are trivial.	In isolation, all of these things are trivial.	169632737	1476512729158	1476512729248	NA	79
331397	3570935	In isolation, all of these things are trivial.	In isolation, all of these things are trivial.	169632743	1476512729255	1476512729346	NA	70
331397	3570935	In isolation, all of these things are trivial.	In isolation, all of these things are trivial.	169632748	1476512729334	1476512729428	NA	32
331397	3570935	In isolation, all of these things are trivial.	In isolation, all of these things are trivial.	169632753	1476512729489	1476512729583	NA	84
331397	3570935	In isolation, all of these things are trivial.	In isolation, all of these things are trivial.	169632780	1476512729561	1476512729652	NA	72
331397	3570935	In isolation, all of these things are trivial.	In isolation, all of these things are trivial.	169632781	1476512729752	1476512729839	NA	69
331397	3570935	In isolation, all of these things are trivial.	In isolation, all of these things are trivial.	169632782	1476512729953	1476512730065	NA	83
331397	3570935	In isolation, all of these things are trivial.	In isolation, all of these things are trivial.	169632784	1476512730030	1476512730147	NA	69
331397	3570935	In isolation, all of these things are trivial.	In isolation, all of these things are trivial.	169632786	1476512730210	1476512730297	NA	32
331397	3570935	In isolation, all of these things are trivial.	In isolation, all of these things are trivial.	169632789	1476512730530	1476512730588	NA	84
331397	3570935	In isolation, all of these things are trivial.	In isolation, all of these things are trivial.	169632817	1476512730994	1476512731087	NA	72
331397	3570935	In isolation, all of these things are trivial.	In isolation, all of these things are trivial.	169632821	1476512731112	1476512731162	NA	73
331397	3570935	In isolation, all of these things are trivial.	In isolation, all of these things are trivial.	169632825	1476512731208	1476512731316	NA	78
331397	3570935	In isolation, all of these things are trivial.	In isolation, all of these things are trivial.	169632827	1476512731391	1476512731471	NA	71
331397	3570935	In isolation, all of these things are trivial.	In isolation, all of these things are trivial.	169632829	1476512731600	1476512731687	NA	83
331397	3570935	In isolation, all of these things are trivial.	In isolation, all of these things are trivial.	169632839	1476512732044	1476512732135	NA	32
331397	3570935	In isolation, all of these things are trivial.	In isolation, all of these things are trivial.	169632845	1476512732261	1476512732383	NA	65
331397	3570935	In isolation, all of these things are trivial.	In isolation, all of these things are trivial.	169632850	1476512732392	1476512732547	NA	82
331397	3570935	In isolation, all of these things are trivial.	In isolation, all of these things are trivial.	169632854	1476512732494	1476512732612	NA	69
331397	3570935	In isolation, all of these things are trivial.	In isolation, all of these things are trivial.	169632856	1476512732652	1476512732749	NA	32
331397	3570935	In isolation, all of these things are trivial.	In isolation, all of these things are trivial.	169632880	1476512733422	1476512733472	NA	84
331397	3570935	In isolation, all of these things are trivial.	In isolation, all of these things are trivial.	169632885	1476512733548	1476512733631	NA	82
331397	3570935	In isolation, all of these things are trivial.	In isolation, all of these things are trivial.	169632888	1476512733667	1476512733739	NA	73
331397	3570935	In isolation, all of these things are trivial.	In isolation, all of these things are trivial.	169632893	1476512733848	1476512733934	NA	86
331397	3570935	In isolation, all of these things are trivial.	In isolation, all of these things are trivial.	169632896	1476512733960	1476512734020	NA	73
331397	3570935	In isolation, all of these things are trivial.	In isolation, all of these things are trivial.	169632907	1476512734092	1476512734192	NA	65
331397	3570935	In isolation, all of these things are trivial.	In isolation, all of these things are trivial.	169632909	1476512734208	1476512734277	NA	76
331397	3570935	In isolation, all of these things are trivial.	In isolation, all of these things are trivial.	169632913	1476512734427	1476512734515	NA	190
331397	3570940	Lance and I have the same chance to win.	Lance and I have the same chance to win.	169633026	1476512737869	1476512738048	SHIFT	16
331397	3570940	Lance and I have the same chance to win.	Lance and I have the same chance to win.	169633028	1476512738012	1476512738112	NA	76
331397	3570940	Lance and I have the same chance to win.	Lance and I have the same chance to win.	169633031	1476512738153	1476512738256	NA	65
331397	3570940	Lance and I have the same chance to win.	Lance and I have the same chance to win.	169633035	1476512738244	1476512738329	NA	78
331397	3570940	Lance and I have the same chance to win.	Lance and I have the same chance to win.	169633039	1476512738393	1476512738489	NA	67
331397	3570940	Lance and I have the same chance to win.	Lance and I have the same chance to win.	169633044	1476512738584	1476512738667	NA	69
331397	3570940	Lance and I have the same chance to win.	Lance and I have the same chance to win.	169633059	1476512738655	1476512738757	NA	32
331397	3570940	Lance and I have the same chance to win.	Lance and I have the same chance to win.	169633060	1476512738831	1476512738933	NA	65
331397	3570940	Lance and I have the same chance to win.	Lance and I have the same chance to win.	169633061	1476512738952	1476512739054	NA	78
331397	3570940	Lance and I have the same chance to win.	Lance and I have the same chance to win.	169633062	1476512739083	1476512739139	NA	68
331397	3570940	Lance and I have the same chance to win.	Lance and I have the same chance to win.	169633064	1476512739149	1476512739260	NA	32
331397	3570940	Lance and I have the same chance to win.	Lance and I have the same chance to win.	169633066	1476512739641	1476512739776	SHIFT	16
331397	3570940	Lance and I have the same chance to win.	Lance and I have the same chance to win.	169633079	1476512739733	1476512739811	NA	73
331397	3570940	Lance and I have the same chance to win.	Lance and I have the same chance to win.	169633082	1476512739861	1476512739957	NA	32
331397	3570940	Lance and I have the same chance to win.	Lance and I have the same chance to win.	169633086	1476512740031	1476512740111	NA	72
331397	3570940	Lance and I have the same chance to win.	Lance and I have the same chance to win.	169633090	1476512740082	1476512740185	NA	65
331397	3570940	Lance and I have the same chance to win.	Lance and I have the same chance to win.	169633091	1476512740214	1476512740331	NA	86
331397	3570940	Lance and I have the same chance to win.	Lance and I have the same chance to win.	169633097	1476512740305	1476512740407	NA	69
331397	3570940	Lance and I have the same chance to win.	Lance and I have the same chance to win.	169633098	1476512740438	1476512740534	NA	32
331397	3570940	Lance and I have the same chance to win.	Lance and I have the same chance to win.	169633100	1476512740571	1476512740661	NA	84
331397	3570940	Lance and I have the same chance to win.	Lance and I have the same chance to win.	169633103	1476512740671	1476512740771	NA	72
331397	3570940	Lance and I have the same chance to win.	Lance and I have the same chance to win.	169633106	1476512740781	1476512740883	NA	69
331397	3570940	Lance and I have the same chance to win.	Lance and I have the same chance to win.	169633120	1476512740856	1476512740971	NA	32
331397	3570940	Lance and I have the same chance to win.	Lance and I have the same chance to win.	169633122	1476512741005	1476512741088	NA	83
331397	3570940	Lance and I have the same chance to win.	Lance and I have the same chance to win.	169633124	1476512741163	1476512741241	NA	65
331397	3570940	Lance and I have the same chance to win.	Lance and I have the same chance to win.	169633127	1476512741847	1476512741921	NA	77
331397	3570940	Lance and I have the same chance to win.	Lance and I have the same chance to win.	169633130	1476512741945	1476512742021	NA	69
331397	3570940	Lance and I have the same chance to win.	Lance and I have the same chance to win.	169633132	1476512742071	1476512742164	NA	32
331397	3570940	Lance and I have the same chance to win.	Lance and I have the same chance to win.	169633153	1476512742484	1476512742565	NA	67
331397	3570940	Lance and I have the same chance to win.	Lance and I have the same chance to win.	169633156	1476512742553	1476512742654	NA	72
331397	3570940	Lance and I have the same chance to win.	Lance and I have the same chance to win.	169633161	1476512742635	1476512742733	NA	65
331397	3570940	Lance and I have the same chance to win.	Lance and I have the same chance to win.	169633165	1476512742793	1476512742881	NA	78
331397	3570940	Lance and I have the same chance to win.	Lance and I have the same chance to win.	169633167	1476512742973	1476512743060	NA	67
331397	3570940	Lance and I have the same chance to win.	Lance and I have the same chance to win.	169633181	1476512743165	1476512743236	NA	69
331397	3570940	Lance and I have the same chance to win.	Lance and I have the same chance to win.	169633183	1476512743283	1476512743371	NA	32
331397	3570940	Lance and I have the same chance to win.	Lance and I have the same chance to win.	169633185	1476512743407	1476512743502	NA	84
331397	3570940	Lance and I have the same chance to win.	Lance and I have the same chance to win.	169633187	1476512743512	1476512743587	NA	79
331397	3570940	Lance and I have the same chance to win.	Lance and I have the same chance to win.	169633189	1476512743608	1476512743721	NA	32
331397	3570940	Lance and I have the same chance to win.	Lance and I have the same chance to win.	169633210	1476512743794	1476512743868	NA	87
331397	3570940	Lance and I have the same chance to win.	Lance and I have the same chance to win.	169633211	1476512743900	1476512743960	NA	73
331397	3570940	Lance and I have the same chance to win.	Lance and I have the same chance to win.	169633212	1476512744157	1476512744221	NA	78
331397	3570940	Lance and I have the same chance to win.	Lance and I have the same chance to win.	169633213	1476512744394	1476512744473	NA	190
331397	3570948	I'll call you when I get to the office.	I'll call you when I gen to the office.	169633276	1476512747298	1476512747498	SHIFT	16
331397	3570948	I'll call you when I get to the office.	I'll call you when I gen to the office.	169633279	1476512747436	1476512747521	NA	73
331397	3570948	I'll call you when I get to the office.	I'll call you when I gen to the office.	169633282	1476512747764	1476512747842	NA	222
331397	3570948	I'll call you when I get to the office.	I'll call you when I gen to the office.	169633285	1476512748040	1476512748084	NA	76
331397	3570948	I'll call you when I get to the office.	I'll call you when I gen to the office.	169633288	1476512748147	1476512748241	NA	76
331397	3570948	I'll call you when I get to the office.	I'll call you when I gen to the office.	169633290	1476512748298	1476512748383	NA	32
331397	3570948	I'll call you when I get to the office.	I'll call you when I gen to the office.	169633301	1476512748407	1476512748485	NA	67
331397	3570948	I'll call you when I get to the office.	I'll call you when I gen to the office.	169633302	1476512748496	1476512748641	NA	65
331397	3570948	I'll call you when I get to the office.	I'll call you when I gen to the office.	169633304	1476512748671	1476512748730	NA	76
331397	3570948	I'll call you when I get to the office.	I'll call you when I gen to the office.	169633306	1476512748801	1476512748882	NA	76
331397	3570948	I'll call you when I get to the office.	I'll call you when I gen to the office.	169633308	1476512748908	1476512749021	NA	32
331397	3570948	I'll call you when I get to the office.	I'll call you when I gen to the office.	169633334	1476512749073	1476512749154	NA	89
331397	3570948	I'll call you when I get to the office.	I'll call you when I gen to the office.	169633337	1476512749226	1476512749337	NA	79
331397	3570948	I'll call you when I get to the office.	I'll call you when I gen to the office.	169633340	1476512749368	1476512749477	NA	85
331397	3570948	I'll call you when I get to the office.	I'll call you when I gen to the office.	169633344	1476512749598	1476512749691	NA	32
331397	3570948	I'll call you when I get to the office.	I'll call you when I gen to the office.	169633345	1476512749877	1476512749968	NA	87
331397	3570948	I'll call you when I get to the office.	I'll call you when I gen to the office.	169633369	1476512749979	1476512750048	NA	72
331397	3570948	I'll call you when I get to the office.	I'll call you when I gen to the office.	169633372	1476512750110	1476512750195	NA	69
331397	3570948	I'll call you when I get to the office.	I'll call you when I gen to the office.	169633375	1476512750248	1476512750332	NA	78
331397	3570948	I'll call you when I get to the office.	I'll call you when I gen to the office.	169633377	1476512750459	1476512750539	NA	32
331397	3570948	I'll call you when I get to the office.	I'll call you when I gen to the office.	169633382	1476512750635	1476512750779	SHIFT	16
331397	3570948	I'll call you when I get to the office.	I'll call you when I gen to the office.	169633392	1476512750732	1476512750798	NA	73
331397	3570948	I'll call you when I get to the office.	I'll call you when I gen to the office.	169633393	1476512750854	1476512750952	NA	32
331397	3570948	I'll call you when I get to the office.	I'll call you when I gen to the office.	169633394	1476512751005	1476512751134	NA	71
331397	3570948	I'll call you when I get to the office.	I'll call you when I gen to the office.	169633395	1476512751113	1476512751237	NA	69
331397	3570948	I'll call you when I get to the office.	I'll call you when I gen to the office.	169633397	1476512751248	1476512751320	NA	78
331397	3570948	I'll call you when I get to the office.	I'll call you when I gen to the office.	169633400	1476512751453	1476512751555	NA	32
331397	3570948	I'll call you when I get to the office.	I'll call you when I gen to the office.	169633428	1476512751565	1476512751651	NA	84
331397	3570948	I'll call you when I get to the office.	I'll call you when I gen to the office.	169633430	1476512751684	1476512751752	NA	79
331397	3570948	I'll call you when I get to the office.	I'll call you when I gen to the office.	169633433	1476512751854	1476512751953	NA	32
331397	3570948	I'll call you when I get to the office.	I'll call you when I gen to the office.	169633436	1476512752178	1476512752291	NA	84
331397	3570948	I'll call you when I get to the office.	I'll call you when I gen to the office.	169633458	1476512752277	1476512752364	NA	72
331397	3570948	I'll call you when I get to the office.	I'll call you when I gen to the office.	169633461	1476512752376	1476512752481	NA	69
331397	3570948	I'll call you when I get to the office.	I'll call you when I gen to the office.	169633463	1476512752470	1476512752577	NA	32
331397	3570948	I'll call you when I get to the office.	I'll call you when I gen to the office.	169633465	1476512752685	1476512752758	NA	79
331397	3570948	I'll call you when I get to the office.	I'll call you when I gen to the office.	169633467	1476512752778	1476512752834	NA	70
331397	3570948	I'll call you when I get to the office.	I'll call you when I gen to the office.	169633469	1476512752939	1476512753007	NA	70
331397	3570948	I'll call you when I get to the office.	I'll call you when I gen to the office.	169633488	1476512753130	1476512753201	NA	73
331397	3570948	I'll call you when I get to the office.	I'll call you when I gen to the office.	169633492	1476512753242	1476512753326	NA	67
331397	3570948	I'll call you when I get to the office.	I'll call you when I gen to the office.	169633496	1476512753427	1476512753497	NA	69
331397	3570948	I'll call you when I get to the office.	I'll call you when I gen to the office.	169633500	1476512753555	1476512753633	NA	190
331397	3570952	There is substantially no difference between us.	There is substantially no difference between us.	169633608	1476512756621	1476512756833	SHIFT	16
331397	3570952	There is substantially no difference between us.	There is substantially no difference between us.	169633612	1476512756749	1476512756866	NA	84
331397	3570952	There is substantially no difference between us.	There is substantially no difference between us.	169633617	1476512756885	1476512756983	NA	72
331397	3570952	There is substantially no difference between us.	There is substantially no difference between us.	169633619	1476512756995	1476512757121	NA	69
331397	3570952	There is substantially no difference between us.	There is substantially no difference between us.	169633627	1476512757096	1476512757248	NA	82
331397	3570952	There is substantially no difference between us.	There is substantially no difference between us.	169633644	1476512757226	1476512757336	NA	69
331397	3570952	There is substantially no difference between us.	There is substantially no difference between us.	169633648	1476512757383	1476512757492	NA	32
331397	3570952	There is substantially no difference between us.	There is substantially no difference between us.	169633651	1476512757546	1476512757654	NA	73
331397	3570952	There is substantially no difference between us.	There is substantially no difference between us.	169633656	1476512757664	1476512757767	NA	83
331397	3570952	There is substantially no difference between us.	There is substantially no difference between us.	169633660	1476512757749	1476512757851	NA	32
331397	3570952	There is substantially no difference between us.	There is substantially no difference between us.	169633662	1476512757935	1476512758031	NA	83
331397	3570952	There is substantially no difference between us.	There is substantially no difference between us.	169633684	1476512758081	1476512758174	NA	85
331397	3570952	There is substantially no difference between us.	There is substantially no difference between us.	169633688	1476512758247	1476512758304	NA	66
331397	3570952	There is substantially no difference between us.	There is substantially no difference between us.	169633689	1476512758421	1476512758524	NA	83
331397	3570952	There is substantially no difference between us.	There is substantially no difference between us.	169633690	1476512758570	1476512758680	NA	84
331397	3570952	There is substantially no difference between us.	There is substantially no difference between us.	169633691	1476512758691	1476512758788	NA	65
331397	3570952	There is substantially no difference between us.	There is substantially no difference between us.	169633703	1476512758815	1476512758896	NA	78
331397	3570952	There is substantially no difference between us.	There is substantially no difference between us.	169633704	1476512758990	1476512759085	NA	84
331397	3570952	There is substantially no difference between us.	There is substantially no difference between us.	169633705	1476512759103	1476512759187	NA	73
331397	3570952	There is substantially no difference between us.	There is substantially no difference between us.	169633706	1476512759251	1476512759300	NA	65
331397	3570952	There is substantially no difference between us.	There is substantially no difference between us.	169633708	1476512759387	1476512759441	NA	76
331397	3570952	There is substantially no difference between us.	There is substantially no difference between us.	169633738	1476512759532	1476512759587	NA	76
331397	3570952	There is substantially no difference between us.	There is substantially no difference between us.	169633741	1476512759739	1476512759821	NA	89
331397	3570952	There is substantially no difference between us.	There is substantially no difference between us.	169633742	1476512759949	1476512760053	NA	32
331397	3570952	There is substantially no difference between us.	There is substantially no difference between us.	169633743	1476512760198	1476512760238	NA	78
331397	3570952	There is substantially no difference between us.	There is substantially no difference between us.	169633744	1476512760278	1476512760374	NA	79
331397	3570952	There is substantially no difference between us.	There is substantially no difference between us.	169633753	1476512760391	1476512760504	NA	32
331397	3570952	There is substantially no difference between us.	There is substantially no difference between us.	169633755	1476512760587	1476512760675	NA	68
331397	3570952	There is substantially no difference between us.	There is substantially no difference between us.	169633759	1476512760721	1476512760796	NA	73
331397	3570952	There is substantially no difference between us.	There is substantially no difference between us.	169633762	1476512760875	1476512760931	NA	70
331397	3570952	There is substantially no difference between us.	There is substantially no difference between us.	169633765	1476512760947	1476512760983	NA	70
331397	3570952	There is substantially no difference between us.	There is substantially no difference between us.	169633816	1476512761081	1476512761160	NA	70
331397	3570952	There is substantially no difference between us.	There is substantially no difference between us.	169633820	1476512761530	1476512761610		8
331397	3570952	There is substantially no difference between us.	There is substantially no difference between us.	169633822	1476512761659	1476512761741	NA	69
331397	3570952	There is substantially no difference between us.	There is substantially no difference between us.	169633824	1476512761864	1476512762009	NA	82
331397	3570952	There is substantially no difference between us.	There is substantially no difference between us.	169633858	1476512761979	1476512762073	NA	69
331397	3570952	There is substantially no difference between us.	There is substantially no difference between us.	169633861	1476512762084	1476512762170	NA	78
331397	3570952	There is substantially no difference between us.	There is substantially no difference between us.	169633863	1476512762261	1476512762353	NA	67
331397	3570952	There is substantially no difference between us.	There is substantially no difference between us.	169633866	1476512762471	1476512762536	NA	69
331397	3570952	There is substantially no difference between us.	There is substantially no difference between us.	169633868	1476512762643	1476512762736	NA	32
331397	3570952	There is substantially no difference between us.	There is substantially no difference between us.	169633870	1476512762815	1476512762841	NA	84
331397	3570952	There is substantially no difference between us.	There is substantially no difference between us.	169633909	1476512763106	1476512763188		8
331397	3570952	There is substantially no difference between us.	There is substantially no difference between us.	169633912	1476512763263	1476512763447	NA	69
331397	3570952	There is substantially no difference between us.	There is substantially no difference between us.	169633915	1476512763431	1476512763562	NA	84
331397	3570952	There is substantially no difference between us.	There is substantially no difference between us.	169633918	1476512763934	1476512763982		8
331397	3570952	There is substantially no difference between us.	There is substantially no difference between us.	169633920	1476512764058	1476512764138		8
331397	3570952	There is substantially no difference between us.	There is substantially no difference between us.	169633945	1476512764160	1476512764222	NA	66
331397	3570952	There is substantially no difference between us.	There is substantially no difference between us.	169633950	1476512764256	1476512764412	NA	69
331397	3570952	There is substantially no difference between us.	There is substantially no difference between us.	169633955	1476512764390	1476512764489	NA	84
331397	3570952	There is substantially no difference between us.	There is substantially no difference between us.	169633959	1476512764657	1476512764733	NA	87
331397	3570952	There is substantially no difference between us.	There is substantially no difference between us.	169633963	1476512764885	1476512764973	NA	69
331397	3570952	There is substantially no difference between us.	There is substantially no difference between us.	169633995	1476512765061	1476512765134	NA	69
331397	3570952	There is substantially no difference between us.	There is substantially no difference between us.	169633996	1476512765156	1476512765246	NA	78
331397	3570952	There is substantially no difference between us.	There is substantially no difference between us.	169633997	1476512765333	1476512765423	NA	32
331397	3570952	There is substantially no difference between us.	There is substantially no difference between us.	169633998	1476512765474	1476512765568	NA	85
331397	3570952	There is substantially no difference between us.	There is substantially no difference between us.	169633999	1476512765588	1476512765662	NA	83
331397	3570952	There is substantially no difference between us.	There is substantially no difference between us.	169634005	1476512765725	1476512765822	NA	190
331397	3570962	The election will be clean and pure.	The election will be clean and pure.	169634089	1476512768465	1476512768705	SHIFT	16
331397	3570962	The election will be clean and pure.	The election will be clean and pure.	169634092	1476512768628	1476512768736	NA	84
331397	3570962	The election will be clean and pure.	The election will be clean and pure.	169634096	1476512768773	1476512768886	NA	72
331397	3570962	The election will be clean and pure.	The election will be clean and pure.	169634100	1476512768871	1476512768971	NA	69
331397	3570962	The election will be clean and pure.	The election will be clean and pure.	169634104	1476512768986	1476512769086	NA	32
331397	3570962	The election will be clean and pure.	The election will be clean and pure.	169634105	1476512769185	1476512769288	NA	69
331397	3570962	The election will be clean and pure.	The election will be clean and pure.	169634123	1476512769464	1476512769573	NA	76
331397	3570962	The election will be clean and pure.	The election will be clean and pure.	169634126	1476512769603	1476512769668	NA	69
331397	3570962	The election will be clean and pure.	The election will be clean and pure.	169634128	1476512769823	1476512769899	NA	67
331397	3570962	The election will be clean and pure.	The election will be clean and pure.	169634134	1476512769998	1476512770092	NA	84
331397	3570962	The election will be clean and pure.	The election will be clean and pure.	169634136	1476512770116	1476512770279	NA	73
331397	3570962	The election will be clean and pure.	The election will be clean and pure.	169634150	1476512770178	1476512770291	NA	79
331397	3570962	The election will be clean and pure.	The election will be clean and pure.	169634151	1476512770240	1476512770392	NA	78
331397	3570962	The election will be clean and pure.	The election will be clean and pure.	169634152	1476512770402	1476512770531	NA	32
331397	3570962	The election will be clean and pure.	The election will be clean and pure.	169634153	1476512770549	1476512770643	NA	87
331397	3570962	The election will be clean and pure.	The election will be clean and pure.	169634154	1476512770653	1476512770720	NA	73
331397	3570962	The election will be clean and pure.	The election will be clean and pure.	169634155	1476512770807	1476512770875	NA	76
331397	3570962	The election will be clean and pure.	The election will be clean and pure.	169634156	1476512770943	1476512771016	NA	76
331397	3570962	The election will be clean and pure.	The election will be clean and pure.	169634181	1476512771033	1476512771150	NA	32
331397	3570962	The election will be clean and pure.	The election will be clean and pure.	169634182	1476512771166	1476512771242	NA	66
331397	3570962	The election will be clean and pure.	The election will be clean and pure.	169634184	1476512771253	1476512771369	NA	69
331397	3570962	The election will be clean and pure.	The election will be clean and pure.	169634187	1476512771395	1476512771489	NA	32
331397	3570962	The election will be clean and pure.	The election will be clean and pure.	169634189	1476512771649	1476512771751	NA	67
331397	3570962	The election will be clean and pure.	The election will be clean and pure.	169634196	1476512771795	1476512771881	NA	76
331397	3570962	The election will be clean and pure.	The election will be clean and pure.	169634198	1476512771894	1476512771982	NA	69
331397	3570962	The election will be clean and pure.	The election will be clean and pure.	169634201	1476512771997	1476512772111	NA	65
331397	3570962	The election will be clean and pure.	The election will be clean and pure.	169634205	1476512772130	1476512772202	NA	78
331397	3570962	The election will be clean and pure.	The election will be clean and pure.	169634209	1476512772257	1476512772362	NA	32
331397	3570962	The election will be clean and pure.	The election will be clean and pure.	169634261	1476512772452	1476512772549	NA	65
331397	3570962	The election will be clean and pure.	The election will be clean and pure.	169634263	1476512772582	1476512772669	NA	78
331397	3570962	The election will be clean and pure.	The election will be clean and pure.	169634266	1476512773024	1476512773120	NA	68
331397	3570962	The election will be clean and pure.	The election will be clean and pure.	169634268	1476512773213	1476512773307	NA	32
331397	3570962	The election will be clean and pure.	The election will be clean and pure.	169634270	1476512773814	1476512773911	NA	80
331397	3570962	The election will be clean and pure.	The election will be clean and pure.	169634292	1476512774014	1476512774109	NA	85
331397	3570962	The election will be clean and pure.	The election will be clean and pure.	169634294	1476512774121	1476512774267	NA	82
331397	3570962	The election will be clean and pure.	The election will be clean and pure.	169634295	1476512774204	1476512774328	NA	69
331397	3570962	The election will be clean and pure.	The election will be clean and pure.	169634299	1476512774458	1476512774531	NA	190
331397	3570970	Here's your Gas Daily pricing.	Here's your Gas Daily pricing.	169634426	1476512777273	1476512777872	SHIFT	16
331397	3570970	Here's your Gas Daily pricing.	Here's your Gas Daily pricing.	169634424	1476512777534	1476512777651	NA	84
331397	3570970	Here's your Gas Daily pricing.	Here's your Gas Daily pricing.	169634429	1476512778011	1476512778082		8
331397	3570970	Here's your Gas Daily pricing.	Here's your Gas Daily pricing.	169634432	1476512778108	1476512778320	SHIFT	16
331397	3570970	Here's your Gas Daily pricing.	Here's your Gas Daily pricing.	169634436	1476512778251	1476512778333	NA	72
331397	3570970	Here's your Gas Daily pricing.	Here's your Gas Daily pricing.	169634440	1476512778437	1476512778581	NA	69
331397	3570970	Here's your Gas Daily pricing.	Here's your Gas Daily pricing.	169634442	1476512778682	1476512778845	NA	82
331397	3570970	Here's your Gas Daily pricing.	Here's your Gas Daily pricing.	169634465	1476512778824	1476512778956	NA	69
331397	3570970	Here's your Gas Daily pricing.	Here's your Gas Daily pricing.	169634466	1476512779021	1476512779104	NA	222
331397	3570970	Here's your Gas Daily pricing.	Here's your Gas Daily pricing.	169634468	1476512779130	1476512779226	NA	83
331397	3570970	Here's your Gas Daily pricing.	Here's your Gas Daily pricing.	169634470	1476512779325	1476512779416	NA	32
331397	3570970	Here's your Gas Daily pricing.	Here's your Gas Daily pricing.	169634472	1476512779649	1476512779751	NA	89
331397	3570970	Here's your Gas Daily pricing.	Here's your Gas Daily pricing.	169634474	1476512779812	1476512779921	NA	79
331397	3570970	Here's your Gas Daily pricing.	Here's your Gas Daily pricing.	169634494	1476512779888	1476512780021	NA	85
331397	3570970	Here's your Gas Daily pricing.	Here's your Gas Daily pricing.	169634499	1476512779965	1476512780060	NA	82
331397	3570970	Here's your Gas Daily pricing.	Here's your Gas Daily pricing.	169634502	1476512780070	1476512780168	NA	32
331397	3570970	Here's your Gas Daily pricing.	Here's your Gas Daily pricing.	169634507	1476512780422	1476512780643	SHIFT	16
331397	3570970	Here's your Gas Daily pricing.	Here's your Gas Daily pricing.	169634512	1476512780572	1476512780691	NA	71
331397	3570970	Here's your Gas Daily pricing.	Here's your Gas Daily pricing.	169634516	1476512780764	1476512780864	NA	65
331397	3570970	Here's your Gas Daily pricing.	Here's your Gas Daily pricing.	169634520	1476512780921	1476512781038	NA	83
331397	3570970	Here's your Gas Daily pricing.	Here's your Gas Daily pricing.	169634551	1476512781050	1476512781146	NA	32
331397	3570970	Here's your Gas Daily pricing.	Here's your Gas Daily pricing.	169634554	1476512781167	1476512781367	SHIFT	16
331397	3570970	Here's your Gas Daily pricing.	Here's your Gas Daily pricing.	169634561	1476512781298	1476512781440	NA	68
331397	3570970	Here's your Gas Daily pricing.	Here's your Gas Daily pricing.	169634564	1476512781514	1476512781620	NA	65
331397	3570970	Here's your Gas Daily pricing.	Here's your Gas Daily pricing.	169634567	1476512781669	1476512781738	NA	73
331397	3570970	Here's your Gas Daily pricing.	Here's your Gas Daily pricing.	169634571	1476512781812	1476512781888	NA	76
331397	3570970	Here's your Gas Daily pricing.	Here's your Gas Daily pricing.	169634605	1476512782039	1476512782128	NA	89
331397	3570970	Here's your Gas Daily pricing.	Here's your Gas Daily pricing.	169634607	1476512782285	1476512782388	NA	32
331397	3570970	Here's your Gas Daily pricing.	Here's your Gas Daily pricing.	169634610	1476512782552	1476512782613	NA	80
331397	3570970	Here's your Gas Daily pricing.	Here's your Gas Daily pricing.	169634614	1476512782760	1476512782804	NA	82
331397	3570970	Here's your Gas Daily pricing.	Here's your Gas Daily pricing.	169634617	1476512783181	1476512783248	NA	73
331397	3570970	Here's your Gas Daily pricing.	Here's your Gas Daily pricing.	169634633	1476512783364	1476512783443	NA	67
331397	3570970	Here's your Gas Daily pricing.	Here's your Gas Daily pricing.	169634635	1476512783521	1476512783599	NA	73
331397	3570970	Here's your Gas Daily pricing.	Here's your Gas Daily pricing.	169634637	1476512783665	1476512783741	NA	78
331397	3570970	Here's your Gas Daily pricing.	Here's your Gas Daily pricing.	169634639	1476512783750	1476512783813	NA	71
331397	3570970	Here's your Gas Daily pricing.	Here's your Gas Daily pricing.	169634641	1476512783907	1476512783992	NA	190
331397	3570977	Has Dynegy made a specific request?	Has Dynegy made a specific request?	169634722	1476512786559	1476512786724	SHIFT	16
331397	3570977	Has Dynegy made a specific request?	Has Dynegy made a specific request?	169634723	1476512786703	1476512786816	NA	72
331397	3570977	Has Dynegy made a specific request?	Has Dynegy made a specific request?	169634724	1476512786830	1476512786934	NA	65
331397	3570977	Has Dynegy made a specific request?	Has Dynegy made a specific request?	169634725	1476512787003	1476512787120	NA	83
331397	3570977	Has Dynegy made a specific request?	Has Dynegy made a specific request?	169634726	1476512787187	1476512787284	NA	32
331397	3570977	Has Dynegy made a specific request?	Has Dynegy made a specific request?	169634782	1476512787321	1476512787656	SHIFT	16
331397	3570977	Has Dynegy made a specific request?	Has Dynegy made a specific request?	169634727	1476512787439	1476512787591	NA	68
331397	3570977	Has Dynegy made a specific request?	Has Dynegy made a specific request?	169634784	1476512787940	1476512788039	NA	89
331397	3570977	Has Dynegy made a specific request?	Has Dynegy made a specific request?	169634785	1476512788251	1476512788331	NA	78
331397	3570977	Has Dynegy made a specific request?	Has Dynegy made a specific request?	169634787	1476512788563	1476512788680	NA	69
331397	3570977	Has Dynegy made a specific request?	Has Dynegy made a specific request?	169634788	1476512788891	1476512788966	NA	71
331397	3570977	Has Dynegy made a specific request?	Has Dynegy made a specific request?	169634790	1476512788994	1476512789102	NA	89
331397	3570977	Has Dynegy made a specific request?	Has Dynegy made a specific request?	169634861	1476512789199	1476512789299	NA	32
331397	3570977	Has Dynegy made a specific request?	Has Dynegy made a specific request?	169634863	1476512789621	1476512789707	NA	65
331397	3570977	Has Dynegy made a specific request?	Has Dynegy made a specific request?	169634865	1476512790092	1476512790174		8
331397	3570977	Has Dynegy made a specific request?	Has Dynegy made a specific request?	169634867	1476512790402	1476512790523	NA	65
331397	3570977	Has Dynegy made a specific request?	Has Dynegy made a specific request?	169634868	1476512790798	1476512790897		8
331397	3570977	Has Dynegy made a specific request?	Has Dynegy made a specific request?	169634896	1476512791263	1476512791370	NA	77
331397	3570977	Has Dynegy made a specific request?	Has Dynegy made a specific request?	169634897	1476512791355	1476512791458	NA	65
331397	3570977	Has Dynegy made a specific request?	Has Dynegy made a specific request?	169634898	1476512791483	1476512791573	NA	68
331397	3570977	Has Dynegy made a specific request?	Has Dynegy made a specific request?	169634899	1476512791671	1476512791769	NA	69
331397	3570977	Has Dynegy made a specific request?	Has Dynegy made a specific request?	169634900	1476512791784	1476512791891	NA	32
331397	3570977	Has Dynegy made a specific request?	Has Dynegy made a specific request?	169634931	1476512791909	1476512792012	NA	65
331397	3570977	Has Dynegy made a specific request?	Has Dynegy made a specific request?	169634933	1476512792255	1476512792354	NA	32
331397	3570977	Has Dynegy made a specific request?	Has Dynegy made a specific request?	169634934	1476512792573	1476512792680	NA	83
331397	3570977	Has Dynegy made a specific request?	Has Dynegy made a specific request?	169634935	1476512792708	1476512792805	NA	80
331397	3570977	Has Dynegy made a specific request?	Has Dynegy made a specific request?	169634937	1476512792824	1476512792900	NA	69
331397	3570977	Has Dynegy made a specific request?	Has Dynegy made a specific request?	169634976	1476512793063	1476512793157	NA	67
331397	3570977	Has Dynegy made a specific request?	Has Dynegy made a specific request?	169634980	1476512793140	1476512793216	NA	73
331397	3570977	Has Dynegy made a specific request?	Has Dynegy made a specific request?	169634984	1476512793725	1476512793752	NA	73
331397	3570977	Has Dynegy made a specific request?	Has Dynegy made a specific request?	169634988	1476512793820	1476512793921	NA	70
331397	3570977	Has Dynegy made a specific request?	Has Dynegy made a specific request?	169634994	1476512794313	1476512794373		8
331397	3570977	Has Dynegy made a specific request?	Has Dynegy made a specific request?	169635106	1476512794441	1476512794522		8
331397	3570977	Has Dynegy made a specific request?	Has Dynegy made a specific request?	169635108	1476512794742	1476512794851	NA	70
331397	3570977	Has Dynegy made a specific request?	Has Dynegy made a specific request?	169635113	1476512794902	1476512794967	NA	73
331397	3570977	Has Dynegy made a specific request?	Has Dynegy made a specific request?	169635119	1476512795020	1476512795091	NA	67
331397	3570977	Has Dynegy made a specific request?	Has Dynegy made a specific request?	169635121	1476512795196	1476512795304	NA	32
331397	3570977	Has Dynegy made a specific request?	Has Dynegy made a specific request?	169635110	1476512797661	1476512797663	NA	82
331397	3570977	Has Dynegy made a specific request?	Has Dynegy made a specific request?	169635237	1476512797662	1476512799886		69
331397	3570977	Has Dynegy made a specific request?	Has Dynegy made a specific request?	169635112	1476512797667	1476512797668	BKSP	8
331397	3570977	Has Dynegy made a specific request?	Has Dynegy made a specific request?	169635198	1476512797675	1476512797750	BKSP	8
331397	3570977	Has Dynegy made a specific request?	Has Dynegy made a specific request?	169635199	1476512799073	1476512799199	NA	81
331397	3570977	Has Dynegy made a specific request?	Has Dynegy made a specific request?	169635200	1476512799492	1476512799604	NA	85
331397	3570977	Has Dynegy made a specific request?	Has Dynegy made a specific request?	169635201	1476512799743	1476512799821	NA	82
331397	3570977	Has Dynegy made a specific request?	Has Dynegy made a specific request?	169635243	1476512799773	1476512800769	NA	69
331397	3570977	Has Dynegy made a specific request?	Has Dynegy made a specific request?	169635239	1476512800351	1476512800424		8
331397	3570977	Has Dynegy made a specific request?	Has Dynegy made a specific request?	169635241	1476512800543	1476512800615		8
331397	3570977	Has Dynegy made a specific request?	Has Dynegy made a specific request?	169635244	1476512800867	1476512800982	NA	83
331397	3570977	Has Dynegy made a specific request?	Has Dynegy made a specific request?	169635245	1476512801007	1476512801121	NA	84
331397	3570977	Has Dynegy made a specific request?	Has Dynegy made a specific request?	169635255	1476512801391	1476512801649	SHIFT	16
331397	3570977	Has Dynegy made a specific request?	Has Dynegy made a specific request?	169635252	1476512801507	1476512801610	NA	191
331397	3570992	The reserve receiver is expected to see a specialist this week.	The reserve receiver is expected to see a specialist this week.	169635374	1476512804388	1476512804670	SHIFT	16
331397	3570992	The reserve receiver is expected to see a specialist this week.	The reserve receiver is expected to see a specialist this week.	169635376	1476512804559	1476512804682	NA	84
331397	3570992	The reserve receiver is expected to see a specialist this week.	The reserve receiver is expected to see a specialist this week.	169635378	1476512804733	1476512804845	NA	72
331397	3570992	The reserve receiver is expected to see a specialist this week.	The reserve receiver is expected to see a specialist this week.	169635418	1476512804829	1476512805461	NA	69
331397	3570992	The reserve receiver is expected to see a specialist this week.	The reserve receiver is expected to see a specialist this week.	169635384	1476512804941	1476512805045	NA	32
331397	3570992	The reserve receiver is expected to see a specialist this week.	The reserve receiver is expected to see a specialist this week.	169635389	1476512805228	1476512805380	NA	82
331397	3570992	The reserve receiver is expected to see a specialist this week.	The reserve receiver is expected to see a specialist this week.	169635420	1476512805341	1476512805810	NA	69
331397	3570992	The reserve receiver is expected to see a specialist this week.	The reserve receiver is expected to see a specialist this week.	169635419	1476512805551	1476512805642	NA	86
331397	3570992	The reserve receiver is expected to see a specialist this week.	The reserve receiver is expected to see a specialist this week.	169635445	1476512805653	1476512806864	NA	69
331397	3570992	The reserve receiver is expected to see a specialist this week.	The reserve receiver is expected to see a specialist this week.	169635421	1476512805770	1476512805907	NA	82
331397	3570992	The reserve receiver is expected to see a specialist this week.	The reserve receiver is expected to see a specialist this week.	169635422	1476512806275	1476512806329		8
331397	3570992	The reserve receiver is expected to see a specialist this week.	The reserve receiver is expected to see a specialist this week.	169635423	1476512806417	1476512806464		8
331397	3570992	The reserve receiver is expected to see a specialist this week.	The reserve receiver is expected to see a specialist this week.	169635438	1476512806552	1476512806626		8
331397	3570992	The reserve receiver is expected to see a specialist this week.	The reserve receiver is expected to see a specialist this week.	169635440	1476512806667	1476512806782	NA	83
331397	3570992	The reserve receiver is expected to see a specialist this week.	The reserve receiver is expected to see a specialist this week.	169635501	1476512806732	1476512807261	NA	69
331397	3570992	The reserve receiver is expected to see a specialist this week.	The reserve receiver is expected to see a specialist this week.	169635452	1476512806801	1476512806914	NA	82
331397	3570992	The reserve receiver is expected to see a specialist this week.	The reserve receiver is expected to see a specialist this week.	169635456	1476512807035	1476512807120	NA	86
331397	3570992	The reserve receiver is expected to see a specialist this week.	The reserve receiver is expected to see a specialist this week.	169635510	1476512807156	1476512807813	NA	69
331397	3570992	The reserve receiver is expected to see a specialist this week.	The reserve receiver is expected to see a specialist this week.	169635505	1476512807321	1476512807420	NA	32
331397	3570992	The reserve receiver is expected to see a specialist this week.	The reserve receiver is expected to see a specialist this week.	169635508	1476512807583	1476512807757	NA	82
331397	3570992	The reserve receiver is expected to see a specialist this week.	The reserve receiver is expected to see a specialist this week.	169635527	1476512807702	1476512808254	NA	69
331397	3570992	The reserve receiver is expected to see a specialist this week.	The reserve receiver is expected to see a specialist this week.	169635513	1476512807977	1476512808061	NA	67
331397	3570992	The reserve receiver is expected to see a specialist this week.	The reserve receiver is expected to see a specialist this week.	169635537	1476512808185	1476512808672	NA	69
331397	3570992	The reserve receiver is expected to see a specialist this week.	The reserve receiver is expected to see a specialist this week.	169635529	1476512808282	1476512808370	NA	73
331397	3570992	The reserve receiver is expected to see a specialist this week.	The reserve receiver is expected to see a specialist this week.	169635534	1476512808417	1476512808513	NA	86
331397	3570992	The reserve receiver is expected to see a specialist this week.	The reserve receiver is expected to see a specialist this week.	169635594	1476512808521	1476512809552	NA	69
331397	3570992	The reserve receiver is expected to see a specialist this week.	The reserve receiver is expected to see a specialist this week.	169635573	1476512808642	1476512808734	NA	82
331397	3570992	The reserve receiver is expected to see a specialist this week.	The reserve receiver is expected to see a specialist this week.	169635576	1476512808762	1476512808858	NA	32
331397	3570992	The reserve receiver is expected to see a specialist this week.	The reserve receiver is expected to see a specialist this week.	169635583	1476512808932	1476512809031	NA	73
331397	3570992	The reserve receiver is expected to see a specialist this week.	The reserve receiver is expected to see a specialist this week.	169635587	1476512809035	1476512809131	NA	83
331397	3570992	The reserve receiver is expected to see a specialist this week.	The reserve receiver is expected to see a specialist this week.	169635589	1476512809152	1476512809249	NA	32
331397	3570992	The reserve receiver is expected to see a specialist this week.	The reserve receiver is expected to see a specialist this week.	169635639	1476512809482	1476512810302	NA	69
331397	3570992	The reserve receiver is expected to see a specialist this week.	The reserve receiver is expected to see a specialist this week.	169635633	1476512809796	1476512809882	NA	88
331397	3570992	The reserve receiver is expected to see a specialist this week.	The reserve receiver is expected to see a specialist this week.	169635636	1476512810089	1476512810182	NA	80
331397	3570992	The reserve receiver is expected to see a specialist this week.	The reserve receiver is expected to see a specialist this week.	169635665	1476512810231	1476512810842	NA	69
331397	3570992	The reserve receiver is expected to see a specialist this week.	The reserve receiver is expected to see a specialist this week.	169635642	1476512810451	1476512810542	NA	67
331397	3570992	The reserve receiver is expected to see a specialist this week.	The reserve receiver is expected to see a specialist this week.	169635645	1476512810636	1476512810800	NA	84
331397	3570992	The reserve receiver is expected to see a specialist this week.	The reserve receiver is expected to see a specialist this week.	169635733	1476512810761	1476512811863	NA	69
331397	3570992	The reserve receiver is expected to see a specialist this week.	The reserve receiver is expected to see a specialist this week.	169635668	1476512810947	1476512811066	NA	68
331397	3570992	The reserve receiver is expected to see a specialist this week.	The reserve receiver is expected to see a specialist this week.	169635673	1476512811096	1476512811203	NA	32
331397	3570992	The reserve receiver is expected to see a specialist this week.	The reserve receiver is expected to see a specialist this week.	169635678	1476512811215	1476512811297	NA	84
331397	3570992	The reserve receiver is expected to see a specialist this week.	The reserve receiver is expected to see a specialist this week.	169635684	1476512811335	1476512811417	NA	79
331397	3570992	The reserve receiver is expected to see a specialist this week.	The reserve receiver is expected to see a specialist this week.	169635688	1476512811439	1476512811551	NA	32
331397	3570992	The reserve receiver is expected to see a specialist this week.	The reserve receiver is expected to see a specialist this week.	169635730	1476512811615	1476512811700	NA	83
331397	3570992	The reserve receiver is expected to see a specialist this week.	The reserve receiver is expected to see a specialist this week.	169635737	1476512811784	1476512812039	NA	69
331397	3570992	The reserve receiver is expected to see a specialist this week.	The reserve receiver is expected to see a specialist this week.	169635805	1476512811956	1476512813437	NA	69
331397	3570992	The reserve receiver is expected to see a specialist this week.	The reserve receiver is expected to see a specialist this week.	169635739	1476512812141	1476512812238	NA	32
331397	3570992	The reserve receiver is expected to see a specialist this week.	The reserve receiver is expected to see a specialist this week.	169635742	1476512812422	1476512812524	NA	65
331397	3570992	The reserve receiver is expected to see a specialist this week.	The reserve receiver is expected to see a specialist this week.	169635803	1476512812594	1476512812693	NA	32
331397	3570992	The reserve receiver is expected to see a specialist this week.	The reserve receiver is expected to see a specialist this week.	169635804	1476512812985	1476512813068	NA	83
331397	3570992	The reserve receiver is expected to see a specialist this week.	The reserve receiver is expected to see a specialist this week.	169635842	1476512813309	1476512814511	NA	69
331397	3570992	The reserve receiver is expected to see a specialist this week.	The reserve receiver is expected to see a specialist this week.	169635806	1476512813888	1476512813964		8
331397	3570992	The reserve receiver is expected to see a specialist this week.	The reserve receiver is expected to see a specialist this week.	169635807	1476512814206	1476512814306	NA	80
331397	3570992	The reserve receiver is expected to see a specialist this week.	The reserve receiver is expected to see a specialist this week.	169635960	1476512814399	1476512817654	NA	69
331397	3570992	The reserve receiver is expected to see a specialist this week.	The reserve receiver is expected to see a specialist this week.	169635843	1476512814766	1476512814825	NA	73
331397	3570992	The reserve receiver is expected to see a specialist this week.	The reserve receiver is expected to see a specialist this week.	169635845	1476512815069	1476512815131		8
331397	3570992	The reserve receiver is expected to see a specialist this week.	The reserve receiver is expected to see a specialist this week.	169635846	1476512815228	1476512815316	NA	67
331397	3570992	The reserve receiver is expected to see a specialist this week.	The reserve receiver is expected to see a specialist this week.	169635847	1476512815328	1476512815400	NA	73
331397	3570992	The reserve receiver is expected to see a specialist this week.	The reserve receiver is expected to see a specialist this week.	169635881	1476512815462	1476512815579	NA	65
331397	3570992	The reserve receiver is expected to see a specialist this week.	The reserve receiver is expected to see a specialist this week.	169635883	1476512815587	1476512815632	NA	76
331397	3570992	The reserve receiver is expected to see a specialist this week.	The reserve receiver is expected to see a specialist this week.	169635885	1476512815902	1476512815949	NA	73
331397	3570992	The reserve receiver is expected to see a specialist this week.	The reserve receiver is expected to see a specialist this week.	169635888	1476512816131	1476512816258	NA	83
331397	3570992	The reserve receiver is expected to see a specialist this week.	The reserve receiver is expected to see a specialist this week.	169635891	1476512816270	1476512816377	NA	84
331397	3570992	The reserve receiver is expected to see a specialist this week.	The reserve receiver is expected to see a specialist this week.	169635924	1476512816395	1476512816491	NA	32
331397	3570992	The reserve receiver is expected to see a specialist this week.	The reserve receiver is expected to see a specialist this week.	169635927	1476512816601	1476512816696	NA	84
331397	3570992	The reserve receiver is expected to see a specialist this week.	The reserve receiver is expected to see a specialist this week.	169635930	1476512816713	1476512816798	NA	72
331397	3570992	The reserve receiver is expected to see a specialist this week.	The reserve receiver is expected to see a specialist this week.	169635933	1476512817012	1476512817100	NA	73
331397	3570992	The reserve receiver is expected to see a specialist this week.	The reserve receiver is expected to see a specialist this week.	169635936	1476512817109	1476512817187	NA	83
331397	3570992	The reserve receiver is expected to see a specialist this week.	The reserve receiver is expected to see a specialist this week.	169635955	1476512817214	1476512817331	NA	32
331397	3570992	The reserve receiver is expected to see a specialist this week.	The reserve receiver is expected to see a specialist this week.	169635958	1476512817383	1476512817451	NA	87
331397	3570992	The reserve receiver is expected to see a specialist this week.	The reserve receiver is expected to see a specialist this week.	169635961	1476512817575	1476512817804	NA	69
331397	3570992	The reserve receiver is expected to see a specialist this week.	The reserve receiver is expected to see a specialist this week.	169635963	1476512817830	1476512817915	NA	75
331397	3570992	The reserve receiver is expected to see a specialist this week.	The reserve receiver is expected to see a specialist this week.	169635976	1476512818050	1476512818153	NA	190
331397	3571004	He will be re-evaluated after receiving an injection.	He will be re-evaluated after receiving an injection.	169636114	1476512820968	1476512821162	SHIFT	16
331397	3571004	He will be re-evaluated after receiving an injection.	He will be re-evaluated after receiving an injection.	169636115	1476512821102	1476512821209	NA	72
331397	3571004	He will be re-evaluated after receiving an injection.	He will be re-evaluated after receiving an injection.	169636133	1476512821266	1476512822480	NA	69
331397	3571004	He will be re-evaluated after receiving an injection.	He will be re-evaluated after receiving an injection.	169636119	1476512821425	1476512821529	NA	32
331397	3571004	He will be re-evaluated after receiving an injection.	He will be re-evaluated after receiving an injection.	169636120	1476512821601	1476512821689	NA	87
331397	3571004	He will be re-evaluated after receiving an injection.	He will be re-evaluated after receiving an injection.	169636121	1476512821700	1476512821763	NA	73
331397	3571004	He will be re-evaluated after receiving an injection.	He will be re-evaluated after receiving an injection.	169636125	1476512821853	1476512821924	NA	76
331397	3571004	He will be re-evaluated after receiving an injection.	He will be re-evaluated after receiving an injection.	169636126	1476512821981	1476512822070	NA	76
331397	3571004	He will be re-evaluated after receiving an injection.	He will be re-evaluated after receiving an injection.	169636129	1476512822084	1476512822209	NA	32
331397	3571004	He will be re-evaluated after receiving an injection.	He will be re-evaluated after receiving an injection.	169636131	1476512822232	1476512822323	NA	66
331397	3571004	He will be re-evaluated after receiving an injection.	He will be re-evaluated after receiving an injection.	169636150	1476512822363	1476512822928	NA	69
331397	3571004	He will be re-evaluated after receiving an injection.	He will be re-evaluated after receiving an injection.	169636148	1476512822492	1476512822595	NA	32
331397	3571004	He will be re-evaluated after receiving an injection.	He will be re-evaluated after receiving an injection.	169636149	1476512822688	1476512822869	NA	82
331397	3571004	He will be re-evaluated after receiving an injection.	He will be re-evaluated after receiving an injection.	169636158	1476512822786	1476512823572	NA	69
331397	3571004	He will be re-evaluated after receiving an injection.	He will be re-evaluated after receiving an injection.	169636152	1476512823046	1476512823139	NA	173
331397	3571004	He will be re-evaluated after receiving an injection.	He will be re-evaluated after receiving an injection.	169636216	1476512823476	1476512824697	NA	69
331397	3571004	He will be re-evaluated after receiving an injection.	He will be re-evaluated after receiving an injection.	169636178	1476512823697	1476512823821	NA	86
331397	3571004	He will be re-evaluated after receiving an injection.	He will be re-evaluated after receiving an injection.	169636180	1476512823796	1476512823915	NA	65
331397	3571004	He will be re-evaluated after receiving an injection.	He will be re-evaluated after receiving an injection.	169636182	1476512823980	1476512824084	NA	76
331397	3571004	He will be re-evaluated after receiving an injection.	He will be re-evaluated after receiving an injection.	169636184	1476512824095	1476512824196	NA	85
331397	3571004	He will be re-evaluated after receiving an injection.	He will be re-evaluated after receiving an injection.	169636185	1476512824234	1476512824382	NA	65
331397	3571004	He will be re-evaluated after receiving an injection.	He will be re-evaluated after receiving an injection.	169636214	1476512824485	1476512824627	NA	84
331397	3571004	He will be re-evaluated after receiving an injection.	He will be re-evaluated after receiving an injection.	169636243	1476512824590	1476512825829	NA	69
331397	3571004	He will be re-evaluated after receiving an injection.	He will be re-evaluated after receiving an injection.	169636218	1476512824826	1476512824921	NA	68
331397	3571004	He will be re-evaluated after receiving an injection.	He will be re-evaluated after receiving an injection.	169636221	1476512824996	1476512825101	NA	32
331397	3571004	He will be re-evaluated after receiving an injection.	He will be re-evaluated after receiving an injection.	169636224	1476512825207	1476512825325	NA	65
331397	3571004	He will be re-evaluated after receiving an injection.	He will be re-evaluated after receiving an injection.	169636239	1476512825385	1476512825477	NA	70
331397	3571004	He will be re-evaluated after receiving an injection.	He will be re-evaluated after receiving an injection.	169636242	1476512825600	1476512825709	NA	84
331397	3571004	He will be re-evaluated after receiving an injection.	He will be re-evaluated after receiving an injection.	169636298	1476512825674	1476512826347	NA	69
331397	3571004	He will be re-evaluated after receiving an injection.	He will be re-evaluated after receiving an injection.	169636245	1476512825789	1476512825887	NA	82
331397	3571004	He will be re-evaluated after receiving an injection.	He will be re-evaluated after receiving an injection.	169636292	1476512825869	1476512825974	NA	32
331397	3571004	He will be re-evaluated after receiving an injection.	He will be re-evaluated after receiving an injection.	169636296	1476512826130	1476512826295	NA	82
331397	3571004	He will be re-evaluated after receiving an injection.	He will be re-evaluated after receiving an injection.	169636305	1476512826235	1476512826779	NA	69
331397	3571004	He will be re-evaluated after receiving an injection.	He will be re-evaluated after receiving an injection.	169636300	1476512826486	1476512826594	NA	67
331397	3571004	He will be re-evaluated after receiving an injection.	He will be re-evaluated after receiving an injection.	169636346	1476512826704	1476512827128	NA	69
331397	3571004	He will be re-evaluated after receiving an injection.	He will be re-evaluated after receiving an injection.	169636310	1476512826822	1476512826954	NA	73
331397	3571004	He will be re-evaluated after receiving an injection.	He will be re-evaluated after receiving an injection.	169636344	1476512826936	1476512827036	NA	86
331397	3571004	He will be re-evaluated after receiving an injection.	He will be re-evaluated after receiving an injection.	169636474	1476512827014	1476512830174	NA	69
331397	3571004	He will be re-evaluated after receiving an injection.	He will be re-evaluated after receiving an injection.	169636349	1476512827221	1476512827292	NA	73
331397	3571004	He will be re-evaluated after receiving an injection.	He will be re-evaluated after receiving an injection.	169636351	1476512827339	1476512827432	NA	78
331397	3571004	He will be re-evaluated after receiving an injection.	He will be re-evaluated after receiving an injection.	169636353	1476512827421	1476512827513	NA	71
331397	3571004	He will be re-evaluated after receiving an injection.	He will be re-evaluated after receiving an injection.	169636356	1476512827822	1476512827881		8
331397	3571004	He will be re-evaluated after receiving an injection.	He will be re-evaluated after receiving an injection.	169636397	1476512827971	1476512828014		8
331397	3571004	He will be re-evaluated after receiving an injection.	He will be re-evaluated after receiving an injection.	169636399	1476512828112	1476512828164		8
331397	3571004	He will be re-evaluated after receiving an injection.	He will be re-evaluated after receiving an injection.	169636400	1476512828263	1476512828345		8
331397	3571004	He will be re-evaluated after receiving an injection.	He will be re-evaluated after receiving an injection.	169636402	1476512828639	1476512828732	NA	73
331397	3571004	He will be re-evaluated after receiving an injection.	He will be re-evaluated after receiving an injection.	169636403	1476512828775	1476512828855	NA	78
331397	3571004	He will be re-evaluated after receiving an injection.	He will be re-evaluated after receiving an injection.	169636419	1476512828875	1476512828967	NA	71
331397	3571004	He will be re-evaluated after receiving an injection.	He will be re-evaluated after receiving an injection.	169636420	1476512828977	1476512829081	NA	32
331397	3571004	He will be re-evaluated after receiving an injection.	He will be re-evaluated after receiving an injection.	169636422	1476512829193	1476512829281	NA	65
331397	3571004	He will be re-evaluated after receiving an injection.	He will be re-evaluated after receiving an injection.	169636424	1476512829300	1476512829391	NA	78
331397	3571004	He will be re-evaluated after receiving an injection.	He will be re-evaluated after receiving an injection.	169636427	1476512829449	1476512829552	NA	32
331397	3571004	He will be re-evaluated after receiving an injection.	He will be re-evaluated after receiving an injection.	169636468	1476512829651	1476512829768	NA	73
331397	3571004	He will be re-evaluated after receiving an injection.	He will be re-evaluated after receiving an injection.	169636471	1476512829743	1476512829842	NA	78
331397	3571004	He will be re-evaluated after receiving an injection.	He will be re-evaluated after receiving an injection.	169636473	1476512829982	1476512830084	NA	74
331397	3571004	He will be re-evaluated after receiving an injection.	He will be re-evaluated after receiving an injection.	169636475	1476512830496	1476512830605	NA	84
331397	3571004	He will be re-evaluated after receiving an injection.	He will be re-evaluated after receiving an injection.	169636514	1476512830830	1476512830877		8
331397	3571004	He will be re-evaluated after receiving an injection.	He will be re-evaluated after receiving an injection.	169636515	1476512831149	1476512831252	NA	67
331397	3571004	He will be re-evaluated after receiving an injection.	He will be re-evaluated after receiving an injection.	169636516	1476512831394	1476512831474	NA	84
331397	3571004	He will be re-evaluated after receiving an injection.	He will be re-evaluated after receiving an injection.	169636518	1476512831491	1476512831682	NA	73
331397	3571004	He will be re-evaluated after receiving an injection.	He will be re-evaluated after receiving an injection.	169636547	1476512831570	1476512831700	NA	79
331397	3571004	He will be re-evaluated after receiving an injection.	He will be re-evaluated after receiving an injection.	169636550	1476512831659	1476512831770	NA	78
331397	3571004	He will be re-evaluated after receiving an injection.	He will be re-evaluated after receiving an injection.	169636553	1476512831992	1476512832082	NA	190
331397	3571017	I will call in 20 to 30 minutes.	I will call in 20 to 30 minutes.	169636723	1476512835026	1476512835245	SHIFT	16
331397	3571017	I will call in 20 to 30 minutes.	I will call in 20 to 30 minutes.	169636719	1476512835161	1476512835235	NA	73
331397	3571017	I will call in 20 to 30 minutes.	I will call in 20 to 30 minutes.	169636728	1476512835402	1476512835527	NA	32
331397	3571017	I will call in 20 to 30 minutes.	I will call in 20 to 30 minutes.	169636735	1476512835675	1476512835767	NA	87
331397	3571017	I will call in 20 to 30 minutes.	I will call in 20 to 30 minutes.	169636741	1476512835810	1476512835877	NA	73
331397	3571017	I will call in 20 to 30 minutes.	I will call in 20 to 30 minutes.	169636745	1476512835973	1476512836051	NA	76
331397	3571017	I will call in 20 to 30 minutes.	I will call in 20 to 30 minutes.	169636780	1476512836111	1476512836205	NA	76
331397	3571017	I will call in 20 to 30 minutes.	I will call in 20 to 30 minutes.	169636783	1476512836252	1476512836366	NA	32
331397	3571017	I will call in 20 to 30 minutes.	I will call in 20 to 30 minutes.	169636787	1476512836434	1476512836529	NA	67
331397	3571017	I will call in 20 to 30 minutes.	I will call in 20 to 30 minutes.	169636790	1476512836542	1476512836661	NA	65
331397	3571017	I will call in 20 to 30 minutes.	I will call in 20 to 30 minutes.	169636792	1476512836708	1476512836757	NA	76
331397	3571017	I will call in 20 to 30 minutes.	I will call in 20 to 30 minutes.	169636817	1476512836842	1476512836906	NA	76
331397	3571017	I will call in 20 to 30 minutes.	I will call in 20 to 30 minutes.	169636820	1476512836924	1476512837039	NA	32
331397	3571017	I will call in 20 to 30 minutes.	I will call in 20 to 30 minutes.	169636826	1476512837254	1476512837349	NA	73
331397	3571017	I will call in 20 to 30 minutes.	I will call in 20 to 30 minutes.	169636831	1476512837375	1476512837478	NA	78
331397	3571017	I will call in 20 to 30 minutes.	I will call in 20 to 30 minutes.	169636838	1476512837528	1476512837641	NA	32
331397	3571017	I will call in 20 to 30 minutes.	I will call in 20 to 30 minutes.	169636876	1476512837761	1476512837870	NA	50
331397	3571017	I will call in 20 to 30 minutes.	I will call in 20 to 30 minutes.	169636881	1476512838004	1476512838100	NA	48
331397	3571017	I will call in 20 to 30 minutes.	I will call in 20 to 30 minutes.	169636885	1476512838210	1476512838307	NA	32
331397	3571017	I will call in 20 to 30 minutes.	I will call in 20 to 30 minutes.	169636889	1476512838369	1476512838474	NA	84
331397	3571017	I will call in 20 to 30 minutes.	I will call in 20 to 30 minutes.	169636892	1476512838484	1476512838574	NA	79
331397	3571017	I will call in 20 to 30 minutes.	I will call in 20 to 30 minutes.	169636931	1476512838559	1476512838665	NA	32
331397	3571017	I will call in 20 to 30 minutes.	I will call in 20 to 30 minutes.	169636933	1476512838857	1476512838987	NA	51
331397	3571017	I will call in 20 to 30 minutes.	I will call in 20 to 30 minutes.	169636937	1476512839111	1476512839214	NA	48
331397	3571017	I will call in 20 to 30 minutes.	I will call in 20 to 30 minutes.	169636941	1476512839306	1476512839400	NA	32
331397	3571017	I will call in 20 to 30 minutes.	I will call in 20 to 30 minutes.	169636944	1476512839487	1476512839572	NA	77
331397	3571017	I will call in 20 to 30 minutes.	I will call in 20 to 30 minutes.	169636947	1476512839585	1476512839703	NA	73
331397	3571017	I will call in 20 to 30 minutes.	I will call in 20 to 30 minutes.	169636965	1476512839675	1476512839769	NA	78
331397	3571017	I will call in 20 to 30 minutes.	I will call in 20 to 30 minutes.	169636967	1476512839866	1476512839957	NA	85
331397	3571017	I will call in 20 to 30 minutes.	I will call in 20 to 30 minutes.	169636970	1476512840048	1476512840216	NA	84
331397	3571017	I will call in 20 to 30 minutes.	I will call in 20 to 30 minutes.	169636977	1476512840347	1476512840451	NA	83
331397	3571017	I will call in 20 to 30 minutes.	I will call in 20 to 30 minutes.	169636980	1476512840549	1476512840633	NA	190
331397	3571028	I will bring John Brindle.	I will bring John Brindle.	169637135	1476512843921	1476512844092	SHIFT	16
331397	3571028	I will bring John Brindle.	I will bring John Brindle.	169637138	1476512844037	1476512844112	NA	73
331397	3571028	I will bring John Brindle.	I will bring John Brindle.	169637140	1476512844222	1476512844315	NA	32
331397	3571028	I will bring John Brindle.	I will bring John Brindle.	169637142	1476512844384	1476512844491	NA	87
331397	3571028	I will bring John Brindle.	I will bring John Brindle.	169637144	1476512844504	1476512844554	NA	73
331397	3571028	I will bring John Brindle.	I will bring John Brindle.	169637146	1476512844642	1476512844699	NA	76
331397	3571028	I will bring John Brindle.	I will bring John Brindle.	169637182	1476512844765	1476512844850	NA	76
331397	3571028	I will bring John Brindle.	I will bring John Brindle.	169637184	1476512844864	1476512844986	NA	32
331397	3571028	I will bring John Brindle.	I will bring John Brindle.	169637187	1476512845289	1476512845371	NA	66
331397	3571028	I will bring John Brindle.	I will bring John Brindle.	169637190	1476512845493	1476512845578	NA	82
331397	3571028	I will bring John Brindle.	I will bring John Brindle.	169637193	1476512845628	1476512845751	NA	73
331397	3571028	I will bring John Brindle.	I will bring John Brindle.	169637246	1476512845730	1476512845847	NA	78
331397	3571028	I will bring John Brindle.	I will bring John Brindle.	169637249	1476512845797	1476512845909	NA	71
331397	3571028	I will bring John Brindle.	I will bring John Brindle.	169637252	1476512845964	1476512846070	NA	32
331397	3571028	I will bring John Brindle.	I will bring John Brindle.	169637257	1476512846365	1476512846525	SHIFT	16
331397	3571028	I will bring John Brindle.	I will bring John Brindle.	169637262	1476512846449	1476512846537	NA	74
331397	3571028	I will bring John Brindle.	I will bring John Brindle.	169637270	1476512846783	1476512846875	NA	79
331397	3571028	I will bring John Brindle.	I will bring John Brindle.	169637276	1476512847009	1476512847099	NA	78
331397	3571028	I will bring John Brindle.	I will bring John Brindle.	169637328	1476512847276	1476512847366	NA	72
331397	3571028	I will bring John Brindle.	I will bring John Brindle.	169637332	1476512847627	1476512847680		8
331397	3571028	I will bring John Brindle.	I will bring John Brindle.	169637335	1476512847746	1476512847811		8
331397	3571028	I will bring John Brindle.	I will bring John Brindle.	169637338	1476512847959	1476512848023	NA	72
331397	3571028	I will bring John Brindle.	I will bring John Brindle.	169637345	1476512848130	1476512848221	NA	78
331397	3571028	I will bring John Brindle.	I will bring John Brindle.	169637383	1476512848301	1476512848411	NA	32
331397	3571028	I will bring John Brindle.	I will bring John Brindle.	169637386	1476512848421	1476512848665	SHIFT	16
331397	3571028	I will bring John Brindle.	I will bring John Brindle.	169637387	1476512848560	1476512848679	NA	66
331397	3571028	I will bring John Brindle.	I will bring John Brindle.	169637388	1476512848832	1476512848956	NA	82
331397	3571028	I will bring John Brindle.	I will bring John Brindle.	169637390	1476512848972	1476512849048	NA	73
331397	3571028	I will bring John Brindle.	I will bring John Brindle.	169637394	1476512849384	1476512849469	NA	78
331397	3571028	I will bring John Brindle.	I will bring John Brindle.	169637438	1476512849848	1476512849950	NA	68
331397	3571028	I will bring John Brindle.	I will bring John Brindle.	169637443	1476512849969	1476512850047	NA	76
331397	3571028	I will bring John Brindle.	I will bring John Brindle.	169637448	1476512850202	1476512850304	NA	190
