PARTICIPANT_ID	TEST_SECTION_ID	SENTENCE	USER_INPUT	KEYSTROKE_ID	PRESS_TIME	RELEASE_TIME	LETTER	KEYCODE
332969	3587755	The meeting was very beneficial.	The meeting was very beneficial.	170438458	1476552597635	1476552598783	SHIFT	16
332969	3587755	The meeting was very beneficial.	The meeting was very beneficial.	170438462	1476552601020	1476552601351	SHIFT	16
332969	3587755	The meeting was very beneficial.	The meeting was very beneficial.	170438466	1476552601234	1476552601365	T	84
332969	3587755	The meeting was very beneficial.	The meeting was very beneficial.	170438471	1476552601405	1476552601490	h	72
332969	3587755	The meeting was very beneficial.	The meeting was very beneficial.	170438475	1476552601548	1476552601660	e	69
332969	3587755	The meeting was very beneficial.	The meeting was very beneficial.	170438479	1476552601618	1476552601728	 	32
332969	3587755	The meeting was very beneficial.	The meeting was very beneficial.	170438501	1476552601722	1476552601798	m	77
332969	3587755	The meeting was very beneficial.	The meeting was very beneficial.	170438503	1476552601794	1476552601864	e	69
332969	3587755	The meeting was very beneficial.	The meeting was very beneficial.	170438505	1476552601946	1476552602058	e	69
332969	3587755	The meeting was very beneficial.	The meeting was very beneficial.	170438506	1476552602066	1476552602166	t	84
332969	3587755	The meeting was very beneficial.	The meeting was very beneficial.	170438507	1476552602173	1476552602267	i	73
332969	3587755	The meeting was very beneficial.	The meeting was very beneficial.	170438512	1476552602235	1476552602304	n	78
332969	3587755	The meeting was very beneficial.	The meeting was very beneficial.	170438514	1476552602281	1476552602392	g	71
332969	3587755	The meeting was very beneficial.	The meeting was very beneficial.	170438516	1476552602351	1476552602462	 	32
332969	3587755	The meeting was very beneficial.	The meeting was very beneficial.	170438518	1476552602549	1476552602610	q	81
332969	3587755	The meeting was very beneficial.	The meeting was very beneficial.	170438520	1476552602604	1476552602647	w	87
332969	3587755	The meeting was very beneficial.	The meeting was very beneficial.	170438557	1476552602642	1476552602739	a	65
332969	3587755	The meeting was very beneficial.	The meeting was very beneficial.	170438559	1476552603033	1476552603094	BKSP	8
332969	3587755	The meeting was very beneficial.	The meeting was very beneficial.	170438561	1476552603188	1476552603249	BKSP	8
332969	3587755	The meeting was very beneficial.	The meeting was very beneficial.	170438563	1476552603311	1476552603391	BKSP	8
332969	3587755	The meeting was very beneficial.	The meeting was very beneficial.	170438566	1476552603445	1476552603534	w	87
332969	3587755	The meeting was very beneficial.	The meeting was very beneficial.	170438568	1476552603510	1476552603659	a	65
332969	3587755	The meeting was very beneficial.	The meeting was very beneficial.	170438570	1476552603626	1476552603739	s	83
332969	3587755	The meeting was very beneficial.	The meeting was very beneficial.	170438572	1476552603697	1476552603813	 	32
332969	3587755	The meeting was very beneficial.	The meeting was very beneficial.	170438577	1476552603861	1476552603934	v	86
332969	3587755	The meeting was very beneficial.	The meeting was very beneficial.	170438587	1476552603973	1476552604076	e	69
332969	3587755	The meeting was very beneficial.	The meeting was very beneficial.	170438589	1476552604052	1476552604145	r	82
332969	3587755	The meeting was very beneficial.	The meeting was very beneficial.	170438591	1476552604233	1476552604333	y	89
332969	3587755	The meeting was very beneficial.	The meeting was very beneficial.	170438594	1476552604292	1476552604379	 	32
332969	3587755	The meeting was very beneficial.	The meeting was very beneficial.	170438598	1476552604441	1476552604521	b	66
332969	3587755	The meeting was very beneficial.	The meeting was very beneficial.	170438616	1476552604577	1476552604670	e	69
332969	3587755	The meeting was very beneficial.	The meeting was very beneficial.	170438617	1476552604683	1476552604754	n	78
332969	3587755	The meeting was very beneficial.	The meeting was very beneficial.	170438618	1476552604757	1476552604840	e	69
332969	3587755	The meeting was very beneficial.	The meeting was very beneficial.	170438620	1476552604928	1476552605026	f	70
332969	3587755	The meeting was very beneficial.	The meeting was very beneficial.	170438623	1476552605029	1476552605108	i	73
332969	3587755	The meeting was very beneficial.	The meeting was very beneficial.	170438645	1476552605147	1476552605256	c	67
332969	3587755	The meeting was very beneficial.	The meeting was very beneficial.	170438646	1476552605235	1476552605306	i	73
332969	3587755	The meeting was very beneficial.	The meeting was very beneficial.	170438649	1476552605362	1476552605448	a	65
332969	3587755	The meeting was very beneficial.	The meeting was very beneficial.	170438652	1476552605446	1476552605510	l	76
332969	3587755	The meeting was very beneficial.	The meeting was very beneficial.	170438656	1476552605602	1476552605674	.	190
332969	3587766	Please let us know asap.	Please let us know asap.	170438763	1476552608184	1476552609504	SHIFT	16
332969	3587766	Please let us know asap.	Please let us know asap.	170438761	1476552609401	1476552609487	P	80
332969	3587766	Please let us know asap.	Please let us know asap.	170438765	1476552609564	1476552609641	l	76
332969	3587766	Please let us know asap.	Please let us know asap.	170438767	1476552609630	1476552609719	e	69
332969	3587766	Please let us know asap.	Please let us know asap.	170438768	1476552609713	1476552609844	a	65
332969	3587766	Please let us know asap.	Please let us know asap.	170438804	1476552609806	1476552609896	s	83
332969	3587766	Please let us know asap.	Please let us know asap.	170438806	1476552609993	1476552610078	e	69
332969	3587766	Please let us know asap.	Please let us know asap.	170438810	1476552610375	1476552610484	 	32
332969	3587766	Please let us know asap.	Please let us know asap.	170438815	1476552610569	1476552610671	l	76
332969	3587766	Please let us know asap.	Please let us know asap.	170438819	1476552610657	1476552610743	e	69
332969	3587766	Please let us know asap.	Please let us know asap.	170438823	1476552610754	1476552610885	t	84
332969	3587766	Please let us know asap.	Please let us know asap.	170438842	1476552610833	1476552610925	 	32
332969	3587766	Please let us know asap.	Please let us know asap.	170438845	1476552610941	1476552611018	u	85
332969	3587766	Please let us know asap.	Please let us know asap.	170438847	1476552610992	1476552611111	s	83
332969	3587766	Please let us know asap.	Please let us know asap.	170438849	1476552611066	1476552611174	 	32
332969	3587766	Please let us know asap.	Please let us know asap.	170438850	1476552611217	1476552611275	k	75
332969	3587766	Please let us know asap.	Please let us know asap.	170438851	1476552611369	1476552611467	n	78
332969	3587766	Please let us know asap.	Please let us know asap.	170438865	1476552611401	1476552611500	o	79
332969	3587766	Please let us know asap.	Please let us know asap.	170438868	1476552611477	1476552611555	w	87
332969	3587766	Please let us know asap.	Please let us know asap.	170438873	1476552611639	1476552611760	 	32
332969	3587766	Please let us know asap.	Please let us know asap.	170438878	1476552611894	1476552612034	a	65
332969	3587766	Please let us know asap.	Please let us know asap.	170438881	1476552612028	1476552612089	s	83
332969	3587766	Please let us know asap.	Please let us know asap.	170438882	1476552612204	1476552612297	a	65
332969	3587766	Please let us know asap.	Please let us know asap.	170438887	1476552612292	1476552612362	p	80
332969	3587766	Please let us know asap.	Please let us know asap.	170438889	1476552612457	1476552612537	.	190
332969	3587768	In a couple of weeks.	In a couple of weeks.	170438985	1476552614649	1476552614872	SHIFT	16
332969	3587768	In a couple of weeks.	In a couple of weeks.	170438983	1476552614746	1476552614854	I	73
332969	3587768	In a couple of weeks.	In a couple of weeks.	170438987	1476552614938	1476552615024	n	78
332969	3587768	In a couple of weeks.	In a couple of weeks.	170438989	1476552615031	1476552615142	 	32
332969	3587768	In a couple of weeks.	In a couple of weeks.	170438992	1476552615157	1476552615266	a	65
332969	3587768	In a couple of weeks.	In a couple of weeks.	170439014	1476552615227	1476552615328	 	32
332969	3587768	In a couple of weeks.	In a couple of weeks.	170439019	1476552615372	1476552615486	c	67
332969	3587768	In a couple of weeks.	In a couple of weeks.	170439023	1476552615432	1476552615540	o	79
332969	3587768	In a couple of weeks.	In a couple of weeks.	170439025	1476552615507	1476552615578	u	85
332969	3587768	In a couple of weeks.	In a couple of weeks.	170439027	1476552615667	1476552615771	p	80
332969	3587768	In a couple of weeks.	In a couple of weeks.	170439032	1476552615743	1476552615826	l	76
332969	3587768	In a couple of weeks.	In a couple of weeks.	170439034	1476552615783	1476552615902	e	69
332969	3587768	In a couple of weeks.	In a couple of weeks.	170439037	1476552615849	1476552615952	 	32
332969	3587768	In a couple of weeks.	In a couple of weeks.	170439040	1476552615965	1476552616050	o	79
332969	3587768	In a couple of weeks.	In a couple of weeks.	170439043	1476552616021	1476552616139	f	70
332969	3587768	In a couple of weeks.	In a couple of weeks.	170439047	1476552616085	1476552616189	 	32
332969	3587768	In a couple of weeks.	In a couple of weeks.	170439049	1476552616280	1476552616406	w	87
332969	3587768	In a couple of weeks.	In a couple of weeks.	170439051	1476552616368	1476552616453	e	69
332969	3587768	In a couple of weeks.	In a couple of weeks.	170439053	1476552616509	1476552616612	e	69
332969	3587768	In a couple of weeks.	In a couple of weeks.	170439055	1476552616602	1476552616663	k	75
332969	3587768	In a couple of weeks.	In a couple of weeks.	170439060	1476552616707	1476552616795	s	83
332969	3587768	In a couple of weeks.	In a couple of weeks.	170439056	1476552616772	1476552616848	.	190
332969	3587770	He recently also demanded the resignation of six ministers.	He recently also demanded the resignation of six ministers.	170439097	1476552618674	1476552618903	SHIFT	16
332969	3587770	He recently also demanded the resignation of six ministers.	He recently also demanded the resignation of six ministers.	170439096	1476552618808	1476552618898	H	72
332969	3587770	He recently also demanded the resignation of six ministers.	He recently also demanded the resignation of six ministers.	170439099	1476552618957	1476552619083	e	69
332969	3587770	He recently also demanded the resignation of six ministers.	He recently also demanded the resignation of six ministers.	170439101	1476552619028	1476552619133	 	32
332969	3587770	He recently also demanded the resignation of six ministers.	He recently also demanded the resignation of six ministers.	170439105	1476552619193	1476552619309	r	82
332969	3587770	He recently also demanded the resignation of six ministers.	He recently also demanded the resignation of six ministers.	170439128	1476552619248	1476552619365	e	69
332969	3587770	He recently also demanded the resignation of six ministers.	He recently also demanded the resignation of six ministers.	170439130	1476552619441	1476552619549	c	67
332969	3587770	He recently also demanded the resignation of six ministers.	He recently also demanded the resignation of six ministers.	170439131	1476552619491	1476552619594	e	69
332969	3587770	He recently also demanded the resignation of six ministers.	He recently also demanded the resignation of six ministers.	170439133	1476552619604	1476552619678	n	78
332969	3587770	He recently also demanded the resignation of six ministers.	He recently also demanded the resignation of six ministers.	170439135	1476552619720	1476552619807	t	84
332969	3587770	He recently also demanded the resignation of six ministers.	He recently also demanded the resignation of six ministers.	170439137	1476552619825	1476552619906	l	76
332969	3587770	He recently also demanded the resignation of six ministers.	He recently also demanded the resignation of six ministers.	170439145	1476552619941	1476552620024	y	89
332969	3587770	He recently also demanded the resignation of six ministers.	He recently also demanded the resignation of six ministers.	170439147	1476552619996	1476552620085	 	32
332969	3587770	He recently also demanded the resignation of six ministers.	He recently also demanded the resignation of six ministers.	170439149	1476552620244	1476552620346	w	87
332969	3587770	He recently also demanded the resignation of six ministers.	He recently also demanded the resignation of six ministers.	170439152	1476552620465	1476552620564	BKSP	8
332969	3587770	He recently also demanded the resignation of six ministers.	He recently also demanded the resignation of six ministers.	170439156	1476552620615	1476552620698	a	65
332969	3587770	He recently also demanded the resignation of six ministers.	He recently also demanded the resignation of six ministers.	170439180	1476552620690	1476552620763	l	76
332969	3587770	He recently also demanded the resignation of six ministers.	He recently also demanded the resignation of six ministers.	170439183	1476552620800	1476552620888	s	83
332969	3587770	He recently also demanded the resignation of six ministers.	He recently also demanded the resignation of six ministers.	170439186	1476552620868	1476552620933	o	79
332969	3587770	He recently also demanded the resignation of six ministers.	He recently also demanded the resignation of six ministers.	170439189	1476552620937	1476552621063	 	32
332969	3587770	He recently also demanded the resignation of six ministers.	He recently also demanded the resignation of six ministers.	170439193	1476552621144	1476552621290	d	68
332969	3587770	He recently also demanded the resignation of six ministers.	He recently also demanded the resignation of six ministers.	170439206	1476552621210	1476552621323	e	69
332969	3587770	He recently also demanded the resignation of six ministers.	He recently also demanded the resignation of six ministers.	170439210	1476552621355	1476552621433	m	77
332969	3587770	He recently also demanded the resignation of six ministers.	He recently also demanded the resignation of six ministers.	170439215	1476552621485	1476552621576	a	65
332969	3587770	He recently also demanded the resignation of six ministers.	He recently also demanded the resignation of six ministers.	170439218	1476552621592	1476552621644	n	78
332969	3587770	He recently also demanded the resignation of six ministers.	He recently also demanded the resignation of six ministers.	170439222	1476552621685	1476552621796	d	68
332969	3587770	He recently also demanded the resignation of six ministers.	He recently also demanded the resignation of six ministers.	170439236	1476552621787	1476552621922	e	69
332969	3587770	He recently also demanded the resignation of six ministers.	He recently also demanded the resignation of six ministers.	170439237	1476552621883	1476552621993	d	68
332969	3587770	He recently also demanded the resignation of six ministers.	He recently also demanded the resignation of six ministers.	170439238	1476552621949	1476552622075	 	32
332969	3587770	He recently also demanded the resignation of six ministers.	He recently also demanded the resignation of six ministers.	170439239	1476552622152	1476552622250	t	84
332969	3587770	He recently also demanded the resignation of six ministers.	He recently also demanded the resignation of six ministers.	170439240	1476552622218	1476552622302	h	72
332969	3587770	He recently also demanded the resignation of six ministers.	He recently also demanded the resignation of six ministers.	170439241	1476552622362	1476552622448	e	69
332969	3587770	He recently also demanded the resignation of six ministers.	He recently also demanded the resignation of six ministers.	170439267	1476552622422	1476552622540	 	32
332969	3587770	He recently also demanded the resignation of six ministers.	He recently also demanded the resignation of six ministers.	170439270	1476552622563	1476552622694	r	82
332969	3587770	He recently also demanded the resignation of six ministers.	He recently also demanded the resignation of six ministers.	170439273	1476552622623	1476552622739	e	69
332969	3587770	He recently also demanded the resignation of six ministers.	He recently also demanded the resignation of six ministers.	170439275	1476552622809	1476552622898	s	83
332969	3587770	He recently also demanded the resignation of six ministers.	He recently also demanded the resignation of six ministers.	170439279	1476552622888	1476552622959	i	73
332969	3587770	He recently also demanded the resignation of six ministers.	He recently also demanded the resignation of six ministers.	170439286	1476552623006	1476552623101	g	71
332969	3587770	He recently also demanded the resignation of six ministers.	He recently also demanded the resignation of six ministers.	170439309	1476552623108	1476552623188	n	78
332969	3587770	He recently also demanded the resignation of six ministers.	He recently also demanded the resignation of six ministers.	170439310	1476552623303	1476552623379	a	65
332969	3587770	He recently also demanded the resignation of six ministers.	He recently also demanded the resignation of six ministers.	170439312	1476552623457	1476552623544	t	84
332969	3587770	He recently also demanded the resignation of six ministers.	He recently also demanded the resignation of six ministers.	170439314	1476552623534	1476552623595	i	73
332969	3587770	He recently also demanded the resignation of six ministers.	He recently also demanded the resignation of six ministers.	170439317	1476552623642	1476552623776	o	79
332969	3587770	He recently also demanded the resignation of six ministers.	He recently also demanded the resignation of six ministers.	170439332	1476552623753	1476552623833	n	78
332969	3587770	He recently also demanded the resignation of six ministers.	He recently also demanded the resignation of six ministers.	170439334	1476552623889	1476552624002	 	32
332969	3587770	He recently also demanded the resignation of six ministers.	He recently also demanded the resignation of six ministers.	170439336	1476552624052	1476552624127	o	79
332969	3587770	He recently also demanded the resignation of six ministers.	He recently also demanded the resignation of six ministers.	170439337	1476552624131	1476552624224	f	70
332969	3587770	He recently also demanded the resignation of six ministers.	He recently also demanded the resignation of six ministers.	170439338	1476552624187	1476552624303	 	32
332969	3587770	He recently also demanded the resignation of six ministers.	He recently also demanded the resignation of six ministers.	170439341	1476552624455	1476552624544	s	83
332969	3587770	He recently also demanded the resignation of six ministers.	He recently also demanded the resignation of six ministers.	170439374	1476552624520	1476552624594	i	73
332969	3587770	He recently also demanded the resignation of six ministers.	He recently also demanded the resignation of six ministers.	170439377	1476552624778	1476552624883	x	88
332969	3587770	He recently also demanded the resignation of six ministers.	He recently also demanded the resignation of six ministers.	170439380	1476552624833	1476552624964	 	32
332969	3587770	He recently also demanded the resignation of six ministers.	He recently also demanded the resignation of six ministers.	170439381	1476552625029	1476552625145	m	77
332969	3587770	He recently also demanded the resignation of six ministers.	He recently also demanded the resignation of six ministers.	170439382	1476552625123	1476552625239	i	73
332969	3587770	He recently also demanded the resignation of six ministers.	He recently also demanded the resignation of six ministers.	170439385	1476552625246	1476552625368	n	78
332969	3587770	He recently also demanded the resignation of six ministers.	He recently also demanded the resignation of six ministers.	170439405	1476552625317	1476552625416	i	73
332969	3587770	He recently also demanded the resignation of six ministers.	He recently also demanded the resignation of six ministers.	170439407	1476552625537	1476552625611	s	83
332969	3587770	He recently also demanded the resignation of six ministers.	He recently also demanded the resignation of six ministers.	170439408	1476552625668	1476552625757	t	84
332969	3587770	He recently also demanded the resignation of six ministers.	He recently also demanded the resignation of six ministers.	170439409	1476552625791	1476552625890	e	69
332969	3587770	He recently also demanded the resignation of six ministers.	He recently also demanded the resignation of six ministers.	170439410	1476552625857	1476552625941	r	82
332969	3587770	He recently also demanded the resignation of six ministers.	He recently also demanded the resignation of six ministers.	170439411	1476552625979	1476552626064	s	83
332969	3587780	The hospital was hit by electricity cuts.	The hospital was hit by electricity cuts.	170439462	1476552627979	1476552628551	SHIFT	16
332969	3587780	The hospital was hit by electricity cuts.	The hospital was hit by electricity cuts.	170439464	1476552628467	1476552628555	T	84
332969	3587780	The hospital was hit by electricity cuts.	The hospital was hit by electricity cuts.	170439465	1476552628627	1476552628716	h	72
332969	3587780	The hospital was hit by electricity cuts.	The hospital was hit by electricity cuts.	170439466	1476552628764	1476552628862	e	69
332969	3587780	The hospital was hit by electricity cuts.	The hospital was hit by electricity cuts.	170439467	1476552628824	1476552628932	 	32
332969	3587780	The hospital was hit by electricity cuts.	The hospital was hit by electricity cuts.	170439468	1476552629077	1476552629147	h	72
332969	3587780	The hospital was hit by electricity cuts.	The hospital was hit by electricity cuts.	170439504	1476552629310	1476552629381	BKSP	8
332969	3587780	The hospital was hit by electricity cuts.	The hospital was hit by electricity cuts.	170439506	1476552629622	1476552629725	h	72
332969	3587780	The hospital was hit by electricity cuts.	The hospital was hit by electricity cuts.	170439507	1476552629709	1476552629795	o	79
332969	3587780	The hospital was hit by electricity cuts.	The hospital was hit by electricity cuts.	170439509	1476552629880	1476552629973	s	83
332969	3587780	The hospital was hit by electricity cuts.	The hospital was hit by electricity cuts.	170439511	1476552629977	1476552630070	p	80
332969	3587780	The hospital was hit by electricity cuts.	The hospital was hit by electricity cuts.	170439515	1476552630163	1476552630239	i	73
332969	3587780	The hospital was hit by electricity cuts.	The hospital was hit by electricity cuts.	170439536	1476552630328	1476552630407	t	84
332969	3587780	The hospital was hit by electricity cuts.	The hospital was hit by electricity cuts.	170439540	1476552630504	1476552630580	a	65
332969	3587780	The hospital was hit by electricity cuts.	The hospital was hit by electricity cuts.	170439544	1476552630594	1476552630669	l	76
332969	3587780	The hospital was hit by electricity cuts.	The hospital was hit by electricity cuts.	170439547	1476552630690	1476552630835	 	32
332969	3587780	The hospital was hit by electricity cuts.	The hospital was hit by electricity cuts.	170439551	1476552630969	1476552631047	w	87
332969	3587780	The hospital was hit by electricity cuts.	The hospital was hit by electricity cuts.	170439555	1476552631084	1476552631194	a	65
332969	3587780	The hospital was hit by electricity cuts.	The hospital was hit by electricity cuts.	170439556	1476552631161	1476552631278	s	83
332969	3587780	The hospital was hit by electricity cuts.	The hospital was hit by electricity cuts.	170439557	1476552631207	1476552631347	 	32
332969	3587780	The hospital was hit by electricity cuts.	The hospital was hit by electricity cuts.	170439558	1476552631342	1476552631470	h	72
332969	3587780	The hospital was hit by electricity cuts.	The hospital was hit by electricity cuts.	170439574	1476552631407	1476552631496	i	73
332969	3587780	The hospital was hit by electricity cuts.	The hospital was hit by electricity cuts.	170439576	1476552631491	1476552631600	t	84
332969	3587780	The hospital was hit by electricity cuts.	The hospital was hit by electricity cuts.	170439578	1476552631542	1476552631646	 	32
332969	3587780	The hospital was hit by electricity cuts.	The hospital was hit by electricity cuts.	170439580	1476552631743	1476552631833	b	66
332969	3587780	The hospital was hit by electricity cuts.	The hospital was hit by electricity cuts.	170439581	1476552631871	1476552631960	y	89
332969	3587780	The hospital was hit by electricity cuts.	The hospital was hit by electricity cuts.	170439613	1476552631928	1476552632016	 	32
332969	3587780	The hospital was hit by electricity cuts.	The hospital was hit by electricity cuts.	170439618	1476552632112	1476552632181	e	69
332969	3587780	The hospital was hit by electricity cuts.	The hospital was hit by electricity cuts.	170439621	1476552632176	1476552632251	l	76
332969	3587780	The hospital was hit by electricity cuts.	The hospital was hit by electricity cuts.	170439623	1476552632283	1476552632348	e	69
332969	3587780	The hospital was hit by electricity cuts.	The hospital was hit by electricity cuts.	170439625	1476552632425	1476552632496	c	67
332969	3587780	The hospital was hit by electricity cuts.	The hospital was hit by electricity cuts.	170439626	1476552632712	1476552632853	t	84
332969	3587780	The hospital was hit by electricity cuts.	The hospital was hit by electricity cuts.	170439631	1476552632773	1476552632886	r	82
332969	3587780	The hospital was hit by electricity cuts.	The hospital was hit by electricity cuts.	170439632	1476552632912	1476552632984	i	73
332969	3587780	The hospital was hit by electricity cuts.	The hospital was hit by electricity cuts.	170439633	1476552633041	1476552633127	c	67
332969	3587780	The hospital was hit by electricity cuts.	The hospital was hit by electricity cuts.	170439634	1476552633172	1476552633243	i	73
332969	3587780	The hospital was hit by electricity cuts.	The hospital was hit by electricity cuts.	170439635	1476552633260	1476552633354	t	84
332969	3587780	The hospital was hit by electricity cuts.	The hospital was hit by electricity cuts.	170439636	1476552633440	1476552633529	y	89
332969	3587780	The hospital was hit by electricity cuts.	The hospital was hit by electricity cuts.	170439653	1476552633501	1476552633599	 	32
332969	3587780	The hospital was hit by electricity cuts.	The hospital was hit by electricity cuts.	170439655	1476552633711	1476552633771	c	67
332969	3587780	The hospital was hit by electricity cuts.	The hospital was hit by electricity cuts.	170439657	1476552633769	1476552633848	u	85
332969	3587780	The hospital was hit by electricity cuts.	The hospital was hit by electricity cuts.	170439659	1476552633890	1476552633975	t	84
332969	3587780	The hospital was hit by electricity cuts.	The hospital was hit by electricity cuts.	170439661	1476552633987	1476552634073	s	83
332969	3587786	Wang was to meet with Clinton's national security advisor.	Wang was to meet with Clinton's national security advisor.	170439775	1476552636301	1476552636952	SHIFT	16
332969	3587786	Wang was to meet with Clinton's national security advisor.	Wang was to meet with Clinton's national security advisor.	170439776	1476552636844	1476552636999	W	87
332969	3587786	Wang was to meet with Clinton's national security advisor.	Wang was to meet with Clinton's national security advisor.	170439777	1476552636998	1476552637096	a	65
332969	3587786	Wang was to meet with Clinton's national security advisor.	Wang was to meet with Clinton's national security advisor.	170439778	1476552637081	1476552637161	n	78
332969	3587786	Wang was to meet with Clinton's national security advisor.	Wang was to meet with Clinton's national security advisor.	170439779	1476552637238	1476552637367	g	71
332969	3587786	Wang was to meet with Clinton's national security advisor.	Wang was to meet with Clinton's national security advisor.	170439810	1476552637297	1476552637408	 	32
332969	3587786	Wang was to meet with Clinton's national security advisor.	Wang was to meet with Clinton's national security advisor.	170439812	1476552637492	1476552637573	w	87
332969	3587786	Wang was to meet with Clinton's national security advisor.	Wang was to meet with Clinton's national security advisor.	170439817	1476552637622	1476552637734	a	65
332969	3587786	Wang was to meet with Clinton's national security advisor.	Wang was to meet with Clinton's national security advisor.	170439820	1476552637682	1476552637808	s	83
332969	3587786	Wang was to meet with Clinton's national security advisor.	Wang was to meet with Clinton's national security advisor.	170439823	1476552637761	1476552637880	 	32
332969	3587786	Wang was to meet with Clinton's national security advisor.	Wang was to meet with Clinton's national security advisor.	170439826	1476552637935	1476552638033	t	84
332969	3587786	Wang was to meet with Clinton's national security advisor.	Wang was to meet with Clinton's national security advisor.	170439841	1476552638028	1476552638088	o	79
332969	3587786	Wang was to meet with Clinton's national security advisor.	Wang was to meet with Clinton's national security advisor.	170439845	1476552638132	1476552638224	 	32
332969	3587786	Wang was to meet with Clinton's national security advisor.	Wang was to meet with Clinton's national security advisor.	170439848	1476552638219	1476552638298	m	77
332969	3587786	Wang was to meet with Clinton's national security advisor.	Wang was to meet with Clinton's national security advisor.	170439850	1476552638297	1476552638368	e	69
332969	3587786	Wang was to meet with Clinton's national security advisor.	Wang was to meet with Clinton's national security advisor.	170439852	1476552638444	1476552638537	e	69
332969	3587786	Wang was to meet with Clinton's national security advisor.	Wang was to meet with Clinton's national security advisor.	170439854	1476552638548	1476552638687	t	84
332969	3587786	Wang was to meet with Clinton's national security advisor.	Wang was to meet with Clinton's national security advisor.	170439855	1476552638630	1476552638734	 	32
332969	3587786	Wang was to meet with Clinton's national security advisor.	Wang was to meet with Clinton's national security advisor.	170439856	1476552638786	1476552638862	w	87
332969	3587786	Wang was to meet with Clinton's national security advisor.	Wang was to meet with Clinton's national security advisor.	170439857	1476552638861	1476552638933	i	73
332969	3587786	Wang was to meet with Clinton's national security advisor.	Wang was to meet with Clinton's national security advisor.	170439859	1476552638983	1476552639064	t	84
332969	3587786	Wang was to meet with Clinton's national security advisor.	Wang was to meet with Clinton's national security advisor.	170439863	1476552639036	1476552639129	h	72
332969	3587786	Wang was to meet with Clinton's national security advisor.	Wang was to meet with Clinton's national security advisor.	170439932	1476552639075	1476552639162	 	32
332969	3587786	Wang was to meet with Clinton's national security advisor.	Wang was to meet with Clinton's national security advisor.	170439934	1476552639104	1476552639346	SHIFT	16
332969	3587786	Wang was to meet with Clinton's national security advisor.	Wang was to meet with Clinton's national security advisor.	170439933	1476552639278	1476552639313	X	88
332969	3587786	Wang was to meet with Clinton's national security advisor.	Wang was to meet with Clinton's national security advisor.	170439936	1476552639389	1476552639482	l	76
332969	3587786	Wang was to meet with Clinton's national security advisor.	Wang was to meet with Clinton's national security advisor.	170439938	1476552639569	1476552639682	i	73
332969	3587786	Wang was to meet with Clinton's national security advisor.	Wang was to meet with Clinton's national security advisor.	170439940	1476552639653	1476552639743	n	78
332969	3587786	Wang was to meet with Clinton's national security advisor.	Wang was to meet with Clinton's national security advisor.	170439943	1476552639943	1476552639992	BKSP	8
332969	3587786	Wang was to meet with Clinton's national security advisor.	Wang was to meet with Clinton's national security advisor.	170439946	1476552640079	1476552640135	BKSP	8
332969	3587786	Wang was to meet with Clinton's national security advisor.	Wang was to meet with Clinton's national security advisor.	170439951	1476552640193	1476552640254	BKSP	8
332969	3587786	Wang was to meet with Clinton's national security advisor.	Wang was to meet with Clinton's national security advisor.	170439956	1476552640319	1476552640418	BKSP	8
332969	3587786	Wang was to meet with Clinton's national security advisor.	Wang was to meet with Clinton's national security advisor.	170439961	1476552640509	1476552640672	SHIFT	16
332969	3587786	Wang was to meet with Clinton's national security advisor.	Wang was to meet with Clinton's national security advisor.	170439954	1476552640611	1476552640709	C	67
332969	3587786	Wang was to meet with Clinton's national security advisor.	Wang was to meet with Clinton's national security advisor.	170439959	1476552640743	1476552640814	l	76
332969	3587786	Wang was to meet with Clinton's national security advisor.	Wang was to meet with Clinton's national security advisor.	170439964	1476552640901	1476552641008	i	73
332969	3587786	Wang was to meet with Clinton's national security advisor.	Wang was to meet with Clinton's national security advisor.	170439967	1476552640985	1476552641068	n	78
332969	3587786	Wang was to meet with Clinton's national security advisor.	Wang was to meet with Clinton's national security advisor.	170439969	1476552641050	1476552641139	t	84
332969	3587786	Wang was to meet with Clinton's national security advisor.	Wang was to meet with Clinton's national security advisor.	170439976	1476552641133	1476552641242	o	79
332969	3587786	Wang was to meet with Clinton's national security advisor.	Wang was to meet with Clinton's national security advisor.	170439978	1476552641216	1476552641279	n	78
332969	3587786	Wang was to meet with Clinton's national security advisor.	Wang was to meet with Clinton's national security advisor.	170439981	1476552641367	1476552641447	'	222
332969	3587786	Wang was to meet with Clinton's national security advisor.	Wang was to meet with Clinton's national security advisor.	170439984	1476552641469	1476552641565	s	83
332969	3587786	Wang was to meet with Clinton's national security advisor.	Wang was to meet with Clinton's national security advisor.	170439986	1476552641507	1476552641620	 	32
332969	3587786	Wang was to meet with Clinton's national security advisor.	Wang was to meet with Clinton's national security advisor.	170439987	1476552641806	1476552641886	n	78
332969	3587786	Wang was to meet with Clinton's national security advisor.	Wang was to meet with Clinton's national security advisor.	170439988	1476552641908	1476552641988	a	65
332969	3587786	Wang was to meet with Clinton's national security advisor.	Wang was to meet with Clinton's national security advisor.	170439989	1476552642080	1476552642173	t	84
332969	3587786	Wang was to meet with Clinton's national security advisor.	Wang was to meet with Clinton's national security advisor.	170439990	1476552642140	1476552642209	i	73
332969	3587786	Wang was to meet with Clinton's national security advisor.	Wang was to meet with Clinton's national security advisor.	170439991	1476552642277	1476552642388	o	79
332969	3587786	Wang was to meet with Clinton's national security advisor.	Wang was to meet with Clinton's national security advisor.	170440017	1476552642356	1476552642449	n	78
332969	3587786	Wang was to meet with Clinton's national security advisor.	Wang was to meet with Clinton's national security advisor.	170440019	1476552642489	1476552642569	a	65
332969	3587786	Wang was to meet with Clinton's national security advisor.	Wang was to meet with Clinton's national security advisor.	170440021	1476552642579	1476552642663	l	76
332969	3587786	Wang was to meet with Clinton's national security advisor.	Wang was to meet with Clinton's national security advisor.	170440022	1476552642679	1476552642797	 	32
332969	3587786	Wang was to meet with Clinton's national security advisor.	Wang was to meet with Clinton's national security advisor.	170440023	1476552642831	1476552642909	s	83
332969	3587786	Wang was to meet with Clinton's national security advisor.	Wang was to meet with Clinton's national security advisor.	170440024	1476552642993	1476552643096	e	69
332969	3587786	Wang was to meet with Clinton's national security advisor.	Wang was to meet with Clinton's national security advisor.	170440030	1476552643139	1476552643237	c	67
332969	3587786	Wang was to meet with Clinton's national security advisor.	Wang was to meet with Clinton's national security advisor.	170440031	1476552643275	1476552643358	u	85
332969	3587786	Wang was to meet with Clinton's national security advisor.	Wang was to meet with Clinton's national security advisor.	170440032	1476552643380	1476552643484	r	82
332969	3587786	Wang was to meet with Clinton's national security advisor.	Wang was to meet with Clinton's national security advisor.	170440034	1476552643516	1476552643588	i	73
332969	3587786	Wang was to meet with Clinton's national security advisor.	Wang was to meet with Clinton's national security advisor.	170440036	1476552643605	1476552643703	t	84
332969	3587786	Wang was to meet with Clinton's national security advisor.	Wang was to meet with Clinton's national security advisor.	170440051	1476552643800	1476552643893	y	89
332969	3587786	Wang was to meet with Clinton's national security advisor.	Wang was to meet with Clinton's national security advisor.	170440053	1476552643847	1476552643963	 	32
332969	3587786	Wang was to meet with Clinton's national security advisor.	Wang was to meet with Clinton's national security advisor.	170440056	1476552644083	1476552644169	a	65
332969	3587786	Wang was to meet with Clinton's national security advisor.	Wang was to meet with Clinton's national security advisor.	170440058	1476552644259	1476552644335	d	68
332969	3587786	Wang was to meet with Clinton's national security advisor.	Wang was to meet with Clinton's national security advisor.	170440060	1476552644449	1476552644537	v	86
332969	3587786	Wang was to meet with Clinton's national security advisor.	Wang was to meet with Clinton's national security advisor.	170440069	1476552644539	1476552644611	i	73
332969	3587786	Wang was to meet with Clinton's national security advisor.	Wang was to meet with Clinton's national security advisor.	170440071	1476552644650	1476552644739	s	83
332969	3587786	Wang was to meet with Clinton's national security advisor.	Wang was to meet with Clinton's national security advisor.	170440075	1476552644816	1476552644885	o	79
332969	3587786	Wang was to meet with Clinton's national security advisor.	Wang was to meet with Clinton's national security advisor.	170440077	1476552644918	1476552644988	r	82
332969	3587794	So, we need to get these resolved.	So, we need to get these resolved.	170440147	1476552647079	1476552647590	SHIFT	16
332969	3587794	So, we need to get these resolved.	So, we need to get these resolved.	170440148	1476552647516	1476552647614	S	83
332969	3587794	So, we need to get these resolved.	So, we need to get these resolved.	170440149	1476552647661	1476552647722	o	79
332969	3587794	So, we need to get these resolved.	So, we need to get these resolved.	170440150	1476552647818	1476552647898	,	188
332969	3587794	So, we need to get these resolved.	So, we need to get these resolved.	170440151	1476552647888	1476552647996	 	32
332969	3587794	So, we need to get these resolved.	So, we need to get these resolved.	170440190	1476552647990	1476552648107	w	87
332969	3587794	So, we need to get these resolved.	So, we need to get these resolved.	170440191	1476552648036	1476552648157	e	69
332969	3587794	So, we need to get these resolved.	So, we need to get these resolved.	170440193	1476552648129	1476552648215	 	32
332969	3587794	So, we need to get these resolved.	So, we need to get these resolved.	170440192	1476552648152	1476552648200	n	78
332969	3587794	So, we need to get these resolved.	So, we need to get these resolved.	170440194	1476552648300	1476552648366	e	69
332969	3587794	So, we need to get these resolved.	So, we need to get these resolved.	170440196	1476552648892	1476552649041	e	69
332969	3587794	So, we need to get these resolved.	So, we need to get these resolved.	170440213	1476552649008	1476552649161	d	68
332969	3587794	So, we need to get these resolved.	So, we need to get these resolved.	170440214	1476552649078	1476552649215	 	32
332969	3587794	So, we need to get these resolved.	So, we need to get these resolved.	170440215	1476552649293	1476552649386	t	84
332969	3587794	So, we need to get these resolved.	So, we need to get these resolved.	170440216	1476552649357	1476552649431	o	79
332969	3587794	So, we need to get these resolved.	So, we need to get these resolved.	170440217	1476552649421	1476552649534	 	32
332969	3587794	So, we need to get these resolved.	So, we need to get these resolved.	170440218	1476552649611	1476552649732	g	71
332969	3587794	So, we need to get these resolved.	So, we need to get these resolved.	170440226	1476552649759	1476552649863	e	69
332969	3587794	So, we need to get these resolved.	So, we need to get these resolved.	170440228	1476552649819	1476552649941	t	84
332969	3587794	So, we need to get these resolved.	So, we need to get these resolved.	170440234	1476552649880	1476552649969	 	32
332969	3587794	So, we need to get these resolved.	So, we need to get these resolved.	170440238	1476552650002	1476552650105	t	84
332969	3587794	So, we need to get these resolved.	So, we need to get these resolved.	170440264	1476552650057	1476552650155	h	72
332969	3587794	So, we need to get these resolved.	So, we need to get these resolved.	170440268	1476552650221	1476552650314	e	69
332969	3587794	So, we need to get these resolved.	So, we need to get these resolved.	170440274	1476552650398	1476552650506	s	83
332969	3587794	So, we need to get these resolved.	So, we need to get these resolved.	170440279	1476552650426	1476552650557	e	69
332969	3587794	So, we need to get these resolved.	So, we need to get these resolved.	170440285	1476552650500	1476552650617	 	32
332969	3587794	So, we need to get these resolved.	So, we need to get these resolved.	170440289	1476552650659	1476552650813	r	82
332969	3587794	So, we need to get these resolved.	So, we need to get these resolved.	170440300	1476552650747	1476552650846	e	69
332969	3587794	So, we need to get these resolved.	So, we need to get these resolved.	170440301	1476552650957	1476552651043	s	83
332969	3587794	So, we need to get these resolved.	So, we need to get these resolved.	170440302	1476552651045	1476552651116	o	79
332969	3587794	So, we need to get these resolved.	So, we need to get these resolved.	170440303	1476552651198	1476552651280	l	76
332969	3587794	So, we need to get these resolved.	So, we need to get these resolved.	170440304	1476552651246	1476552651335	v	86
332969	3587794	So, we need to get these resolved.	So, we need to get these resolved.	170440307	1476552651377	1476552651478	e	69
332969	3587794	So, we need to get these resolved.	So, we need to get these resolved.	170440310	1476552651438	1476552651544	d	68
332969	3587797	England star Paul Gascoigne was one of the recipients of the loans.	England star Paul Gascoigne was one of the recipients of the loans.	170440393	1476552653535	1476552653718	SHIFT	16
332969	3587797	England star Paul Gascoigne was one of the recipients of the loans.	England star Paul Gascoigne was one of the recipients of the loans.	170440391	1476552653616	1476552653698	E	69
332969	3587797	England star Paul Gascoigne was one of the recipients of the loans.	England star Paul Gascoigne was one of the recipients of the loans.	170440396	1476552653760	1476552653847	n	78
332969	3587797	England star Paul Gascoigne was one of the recipients of the loans.	England star Paul Gascoigne was one of the recipients of the loans.	170440399	1476552653873	1476552653961	g	71
332969	3587797	England star Paul Gascoigne was one of the recipients of the loans.	England star Paul Gascoigne was one of the recipients of the loans.	170440405	1476552653989	1476552654064	l	76
332969	3587797	England star Paul Gascoigne was one of the recipients of the loans.	England star Paul Gascoigne was one of the recipients of the loans.	170440427	1476552654060	1476552654148	a	65
332969	3587797	England star Paul Gascoigne was one of the recipients of the loans.	England star Paul Gascoigne was one of the recipients of the loans.	170440428	1476552654179	1476552654250	n	78
332969	3587797	England star Paul Gascoigne was one of the recipients of the loans.	England star Paul Gascoigne was one of the recipients of the loans.	170440429	1476552654211	1476552654355	d	68
332969	3587797	England star Paul Gascoigne was one of the recipients of the loans.	England star Paul Gascoigne was one of the recipients of the loans.	170440432	1476552654277	1476552654410	 	32
332969	3587797	England star Paul Gascoigne was one of the recipients of the loans.	England star Paul Gascoigne was one of the recipients of the loans.	170440436	1476552654505	1476552654602	s	83
332969	3587797	England star Paul Gascoigne was one of the recipients of the loans.	England star Paul Gascoigne was one of the recipients of the loans.	170440440	1476552654662	1476552654743	t	84
332969	3587797	England star Paul Gascoigne was one of the recipients of the loans.	England star Paul Gascoigne was one of the recipients of the loans.	170440446	1476552654799	1476552654888	a	65
332969	3587797	England star Paul Gascoigne was one of the recipients of the loans.	England star Paul Gascoigne was one of the recipients of the loans.	170440448	1476552654962	1476552655083	r	82
332969	3587797	England star Paul Gascoigne was one of the recipients of the loans.	England star Paul Gascoigne was one of the recipients of the loans.	170440450	1476552655055	1476552655191	 	32
332969	3587797	England star Paul Gascoigne was one of the recipients of the loans.	England star Paul Gascoigne was one of the recipients of the loans.	170440454	1476552655134	1476552655330	SHIFT	16
332969	3587797	England star Paul Gascoigne was one of the recipients of the loans.	England star Paul Gascoigne was one of the recipients of the loans.	170440452	1476552655204	1476552655308	P	80
332969	3587797	England star Paul Gascoigne was one of the recipients of the loans.	England star Paul Gascoigne was one of the recipients of the loans.	170440457	1476552655336	1476552655431	a	65
332969	3587797	England star Paul Gascoigne was one of the recipients of the loans.	England star Paul Gascoigne was one of the recipients of the loans.	170440471	1476552655452	1476552655525	u	85
332969	3587797	England star Paul Gascoigne was one of the recipients of the loans.	England star Paul Gascoigne was one of the recipients of the loans.	170440473	1476552655637	1476552655710	l	76
332969	3587797	England star Paul Gascoigne was one of the recipients of the loans.	England star Paul Gascoigne was one of the recipients of the loans.	170440476	1476552655724	1476552655851	 	32
332969	3587797	England star Paul Gascoigne was one of the recipients of the loans.	England star Paul Gascoigne was one of the recipients of the loans.	170440483	1476552655882	1476552656054	SHIFT	16
332969	3587797	England star Paul Gascoigne was one of the recipients of the loans.	England star Paul Gascoigne was one of the recipients of the loans.	170440481	1476552655974	1476552656045	G	71
332969	3587797	England star Paul Gascoigne was one of the recipients of the loans.	England star Paul Gascoigne was one of the recipients of the loans.	170440484	1476552656151	1476552656301	a	65
332969	3587797	England star Paul Gascoigne was one of the recipients of the loans.	England star Paul Gascoigne was one of the recipients of the loans.	170440535	1476552656248	1476552656370	s	83
332969	3587797	England star Paul Gascoigne was one of the recipients of the loans.	England star Paul Gascoigne was one of the recipients of the loans.	170440537	1476552656427	1476552656512	o	79
332969	3587797	England star Paul Gascoigne was one of the recipients of the loans.	England star Paul Gascoigne was one of the recipients of the loans.	170440539	1476552656586	1476552656688	c	67
332969	3587797	England star Paul Gascoigne was one of the recipients of the loans.	England star Paul Gascoigne was one of the recipients of the loans.	170440542	1476552657390	1476552657438	BKSP	8
332969	3587797	England star Paul Gascoigne was one of the recipients of the loans.	England star Paul Gascoigne was one of the recipients of the loans.	170440545	1476552658132	1476552658222	BKSP	8
332969	3587797	England star Paul Gascoigne was one of the recipients of the loans.	England star Paul Gascoigne was one of the recipients of the loans.	170440548	1476552658373	1476552658501	c	67
332969	3587797	England star Paul Gascoigne was one of the recipients of the loans.	England star Paul Gascoigne was one of the recipients of the loans.	170440551	1476552658562	1476552658678	o	79
332969	3587797	England star Paul Gascoigne was one of the recipients of the loans.	England star Paul Gascoigne was one of the recipients of the loans.	170440553	1476552658769	1476552658876	i	73
332969	3587797	England star Paul Gascoigne was one of the recipients of the loans.	England star Paul Gascoigne was one of the recipients of the loans.	170440599	1476552659044	1476552659142	g	71
332969	3587797	England star Paul Gascoigne was one of the recipients of the loans.	England star Paul Gascoigne was one of the recipients of the loans.	170440601	1476552659259	1476552659335	n	78
332969	3587797	England star Paul Gascoigne was one of the recipients of the loans.	England star Paul Gascoigne was one of the recipients of the loans.	170440603	1476552659348	1476552659469	e	69
332969	3587797	England star Paul Gascoigne was one of the recipients of the loans.	England star Paul Gascoigne was one of the recipients of the loans.	170440607	1476552659427	1476552659568	 	32
332969	3587797	England star Paul Gascoigne was one of the recipients of the loans.	England star Paul Gascoigne was one of the recipients of the loans.	170440611	1476552659891	1476552659941	BKSP	8
332969	3587797	England star Paul Gascoigne was one of the recipients of the loans.	England star Paul Gascoigne was one of the recipients of the loans.	170440615	1476552660039	1476552660100	BKSP	8
332969	3587797	England star Paul Gascoigne was one of the recipients of the loans.	England star Paul Gascoigne was one of the recipients of the loans.	170440618	1476552660985	1476552661148	e	69
332969	3587797	England star Paul Gascoigne was one of the recipients of the loans.	England star Paul Gascoigne was one of the recipients of the loans.	170440623	1476552661070	1476552661228	 	32
332969	3587797	England star Paul Gascoigne was one of the recipients of the loans.	England star Paul Gascoigne was one of the recipients of the loans.	170440624	1476552661273	1476552661356	w	87
332969	3587797	England star Paul Gascoigne was one of the recipients of the loans.	England star Paul Gascoigne was one of the recipients of the loans.	170440625	1476552661389	1476552661504	a	65
332969	3587797	England star Paul Gascoigne was one of the recipients of the loans.	England star Paul Gascoigne was one of the recipients of the loans.	170440627	1476552661459	1476552661588	s	83
332969	3587797	England star Paul Gascoigne was one of the recipients of the loans.	England star Paul Gascoigne was one of the recipients of the loans.	170440629	1476552661520	1476552661620	 	32
332969	3587797	England star Paul Gascoigne was one of the recipients of the loans.	England star Paul Gascoigne was one of the recipients of the loans.	170440633	1476552661636	1476552661734	o	79
332969	3587797	England star Paul Gascoigne was one of the recipients of the loans.	England star Paul Gascoigne was one of the recipients of the loans.	170440634	1476552661686	1476552661794	n	78
332969	3587797	England star Paul Gascoigne was one of the recipients of the loans.	England star Paul Gascoigne was one of the recipients of the loans.	170440637	1476552661740	1476552661844	e	69
332969	3587797	England star Paul Gascoigne was one of the recipients of the loans.	England star Paul Gascoigne was one of the recipients of the loans.	170440640	1476552661806	1476552661923	 	32
332969	3587797	England star Paul Gascoigne was one of the recipients of the loans.	England star Paul Gascoigne was one of the recipients of the loans.	170440643	1476552661897	1476552661984	o	79
332969	3587797	England star Paul Gascoigne was one of the recipients of the loans.	England star Paul Gascoigne was one of the recipients of the loans.	170440675	1476552661963	1476552662067	g	70
332969	3587797	England star Paul Gascoigne was one of the recipients of the loans.	England star Paul Gascoigne was one of the recipients of the loans.	170440679	1476552662028	1476552662122	 	32
332969	3587797	England star Paul Gascoigne was one of the recipients of the loans.	England star Paul Gascoigne was one of the recipients of the loans.	170440682	1476552662145	1476552662258	t	84
332969	3587797	England star Paul Gascoigne was one of the recipients of the loans.	England star Paul Gascoigne was one of the recipients of the loans.	170440684	1476552662440	1476552662506	BKSP	8
332969	3587797	England star Paul Gascoigne was one of the recipients of the loans.	England star Paul Gascoigne was one of the recipients of the loans.	170440686	1476552662586	1476552662647	BKSP	8
332969	3587797	England star Paul Gascoigne was one of the recipients of the loans.	England star Paul Gascoigne was one of the recipients of the loans.	170440687	1476552662721	1476552662826	BKSP	8
332969	3587797	England star Paul Gascoigne was one of the recipients of the loans.	England star Paul Gascoigne was one of the recipients of the loans.	170440688	1476552662836	1476552662930	 	32
332969	3587797	England star Paul Gascoigne was one of the recipients of the loans.	England star Paul Gascoigne was one of the recipients of the loans.	170440689	1476552662953	1476552663038	t	84
332969	3587797	England star Paul Gascoigne was one of the recipients of the loans.	England star Paul Gascoigne was one of the recipients of the loans.	170440699	1476552663001	1476552663094	h	72
332969	3587797	England star Paul Gascoigne was one of the recipients of the loans.	England star Paul Gascoigne was one of the recipients of the loans.	170440701	1476552663137	1476552663245	e	69
332969	3587797	England star Paul Gascoigne was one of the recipients of the loans.	England star Paul Gascoigne was one of the recipients of the loans.	170440702	1476552663207	1476552663306	 	32
332969	3587797	England star Paul Gascoigne was one of the recipients of the loans.	England star Paul Gascoigne was one of the recipients of the loans.	170440703	1476552663347	1476552663515	r	82
332969	3587797	England star Paul Gascoigne was one of the recipients of the loans.	England star Paul Gascoigne was one of the recipients of the loans.	170440704	1476552663439	1476552663586	e	69
332969	3587797	England star Paul Gascoigne was one of the recipients of the loans.	England star Paul Gascoigne was one of the recipients of the loans.	170440705	1476552663671	1476552663793	c	67
332969	3587797	England star Paul Gascoigne was one of the recipients of the loans.	England star Paul Gascoigne was one of the recipients of the loans.	170440734	1476552663772	1476552663848	i	73
332969	3587797	England star Paul Gascoigne was one of the recipients of the loans.	England star Paul Gascoigne was one of the recipients of the loans.	170440738	1476552664062	1476552664168	p	80
332969	3587797	England star Paul Gascoigne was one of the recipients of the loans.	England star Paul Gascoigne was one of the recipients of the loans.	170440742	1476552664163	1476552664254	i	73
332969	3587797	England star Paul Gascoigne was one of the recipients of the loans.	England star Paul Gascoigne was one of the recipients of the loans.	170440748	1476552664316	1476552664404	e	69
332969	3587797	England star Paul Gascoigne was one of the recipients of the loans.	England star Paul Gascoigne was one of the recipients of the loans.	170440751	1476552664399	1476552664485	n	78
332969	3587797	England star Paul Gascoigne was one of the recipients of the loans.	England star Paul Gascoigne was one of the recipients of the loans.	170440752	1476552664538	1476552664637	t	84
332969	3587797	England star Paul Gascoigne was one of the recipients of the loans.	England star Paul Gascoigne was one of the recipients of the loans.	170440764	1476552664714	1476552664817	s	83
332969	3587797	England star Paul Gascoigne was one of the recipients of the loans.	England star Paul Gascoigne was one of the recipients of the loans.	170440766	1476552664761	1476552664868	 	32
332969	3587797	England star Paul Gascoigne was one of the recipients of the loans.	England star Paul Gascoigne was one of the recipients of the loans.	170440767	1476552664931	1476552664991	o	79
332969	3587797	England star Paul Gascoigne was one of the recipients of the loans.	England star Paul Gascoigne was one of the recipients of the loans.	170440768	1476552664976	1476552665089	f	70
332969	3587797	England star Paul Gascoigne was one of the recipients of the loans.	England star Paul Gascoigne was one of the recipients of the loans.	170440770	1476552665065	1476552665159	 	32
332969	3587797	England star Paul Gascoigne was one of the recipients of the loans.	England star Paul Gascoigne was one of the recipients of the loans.	170440772	1476552665162	1476552665275	t	84
332969	3587797	England star Paul Gascoigne was one of the recipients of the loans.	England star Paul Gascoigne was one of the recipients of the loans.	170440775	1476552665241	1476552665326	h	72
332969	3587797	England star Paul Gascoigne was one of the recipients of the loans.	England star Paul Gascoigne was one of the recipients of the loans.	170440778	1476552665376	1476552665480	e	69
332969	3587797	England star Paul Gascoigne was one of the recipients of the loans.	England star Paul Gascoigne was one of the recipients of the loans.	170440781	1476552665432	1476552665535	 	32
332969	3587797	England star Paul Gascoigne was one of the recipients of the loans.	England star Paul Gascoigne was one of the recipients of the loans.	170440790	1476552665506	1476552665619	l	76
332969	3587797	England star Paul Gascoigne was one of the recipients of the loans.	England star Paul Gascoigne was one of the recipients of the loans.	170440791	1476552665614	1476552665712	o	79
332969	3587797	England star Paul Gascoigne was one of the recipients of the loans.	England star Paul Gascoigne was one of the recipients of the loans.	170440792	1476552665674	1476552665766	a	65
332969	3587797	England star Paul Gascoigne was one of the recipients of the loans.	England star Paul Gascoigne was one of the recipients of the loans.	170440793	1476552665762	1476552665855	n	78
332969	3587797	England star Paul Gascoigne was one of the recipients of the loans.	England star Paul Gascoigne was one of the recipients of the loans.	170440794	1476552665929	1476552665995	s	83
332969	3587808	It carries a lot more excitement for the driver.	It carries a lot more excitement for the driver.	170440869	1476552668192	1476552668439	SHIFT	16
332969	3587808	It carries a lot more excitement for the driver.	It carries a lot more excitement for the driver.	170440867	1476552668323	1476552668407	I	73
332969	3587808	It carries a lot more excitement for the driver.	It carries a lot more excitement for the driver.	170440872	1476552668485	1476552668584	t	84
332969	3587808	It carries a lot more excitement for the driver.	It carries a lot more excitement for the driver.	170440875	1476552668527	1476552668639	 	32
332969	3587808	It carries a lot more excitement for the driver.	It carries a lot more excitement for the driver.	170440878	1476552668691	1476552668761	c	67
332969	3587808	It carries a lot more excitement for the driver.	It carries a lot more excitement for the driver.	170440879	1476552668823	1476552668907	a	65
332969	3587808	It carries a lot more excitement for the driver.	It carries a lot more excitement for the driver.	170440888	1476552668949	1476552669026	r	82
332969	3587808	It carries a lot more excitement for the driver.	It carries a lot more excitement for the driver.	170440890	1476552669098	1476552669201	r	82
332969	3587808	It carries a lot more excitement for the driver.	It carries a lot more excitement for the driver.	170440893	1476552669173	1476552669239	i	73
332969	3587808	It carries a lot more excitement for the driver.	It carries a lot more excitement for the driver.	170440896	1476552669247	1476552669382	e	69
332969	3587808	It carries a lot more excitement for the driver.	It carries a lot more excitement for the driver.	170440897	1476552669487	1476552669604	s	83
332969	3587808	It carries a lot more excitement for the driver.	It carries a lot more excitement for the driver.	170440912	1476552669564	1476552669684	 	32
332969	3587808	It carries a lot more excitement for the driver.	It carries a lot more excitement for the driver.	170440915	1476552669705	1476552669804	a	65
332969	3587808	It carries a lot more excitement for the driver.	It carries a lot more excitement for the driver.	170440917	1476552669778	1476552669905	 	32
332969	3587808	It carries a lot more excitement for the driver.	It carries a lot more excitement for the driver.	170440921	1476552669878	1476552670013	l	76
332969	3587808	It carries a lot more excitement for the driver.	It carries a lot more excitement for the driver.	170440925	1476552669961	1476552670060	o	79
332969	3587808	It carries a lot more excitement for the driver.	It carries a lot more excitement for the driver.	170440928	1476552670078	1476552670200	t	84
332969	3587808	It carries a lot more excitement for the driver.	It carries a lot more excitement for the driver.	170440931	1476552670123	1476552670233	 	32
332969	3587808	It carries a lot more excitement for the driver.	It carries a lot more excitement for the driver.	170440934	1476552670293	1476552670414	m	77
332969	3587808	It carries a lot more excitement for the driver.	It carries a lot more excitement for the driver.	170440936	1476552670366	1476552670466	o	79
332969	3587808	It carries a lot more excitement for the driver.	It carries a lot more excitement for the driver.	170440940	1476552670451	1476552670583	r	82
332969	3587808	It carries a lot more excitement for the driver.	It carries a lot more excitement for the driver.	170440951	1476552670492	1476552670614	e	69
332969	3587808	It carries a lot more excitement for the driver.	It carries a lot more excitement for the driver.	170440952	1476552670553	1476552670671	 	32
332969	3587808	It carries a lot more excitement for the driver.	It carries a lot more excitement for the driver.	170440953	1476552670848	1476552670930	e	69
332969	3587808	It carries a lot more excitement for the driver.	It carries a lot more excitement for the driver.	170440954	1476552671062	1476552671176	x	88
332969	3587808	It carries a lot more excitement for the driver.	It carries a lot more excitement for the driver.	170440955	1476552671144	1476552671222	c	67
332969	3587808	It carries a lot more excitement for the driver.	It carries a lot more excitement for the driver.	170440956	1476552671236	1476552671305	i	73
332969	3587808	It carries a lot more excitement for the driver.	It carries a lot more excitement for the driver.	170440981	1476552671363	1476552671436	r	84
332969	3587808	It carries a lot more excitement for the driver.	It carries a lot more excitement for the driver.	170440982	1476552671486	1476552671533	e	69
332969	3587808	It carries a lot more excitement for the driver.	It carries a lot more excitement for the driver.	170440983	1476552671896	1476552671951	BKSP	8
332969	3587808	It carries a lot more excitement for the driver.	It carries a lot more excitement for the driver.	170440984	1476552672031	1476552672116	BKSP	8
332969	3587808	It carries a lot more excitement for the driver.	It carries a lot more excitement for the driver.	170440985	1476552672161	1476552672240	e	69
332969	3587808	It carries a lot more excitement for the driver.	It carries a lot more excitement for the driver.	170440986	1476552672248	1476552672318	m	77
332969	3587808	It carries a lot more excitement for the driver.	It carries a lot more excitement for the driver.	170440987	1476552672322	1476552672427	e	69
332969	3587808	It carries a lot more excitement for the driver.	It carries a lot more excitement for the driver.	170440994	1476552672421	1476552672492	n	78
332969	3587808	It carries a lot more excitement for the driver.	It carries a lot more excitement for the driver.	170440997	1476552672499	1476552672616	t	84
332969	3587808	It carries a lot more excitement for the driver.	It carries a lot more excitement for the driver.	170440999	1476552672607	1476552672706	 	32
332969	3587808	It carries a lot more excitement for the driver.	It carries a lot more excitement for the driver.	170441001	1476552672772	1476552672861	f	70
332969	3587808	It carries a lot more excitement for the driver.	It carries a lot more excitement for the driver.	170441004	1476552672823	1476552672904	o	79
332969	3587808	It carries a lot more excitement for the driver.	It carries a lot more excitement for the driver.	170441009	1476552672893	1476552672982	r	82
332969	3587808	It carries a lot more excitement for the driver.	It carries a lot more excitement for the driver.	170441011	1476552672967	1476552673070	 	32
332969	3587808	It carries a lot more excitement for the driver.	It carries a lot more excitement for the driver.	170441014	1476552673088	1476552673177	t	84
332969	3587808	It carries a lot more excitement for the driver.	It carries a lot more excitement for the driver.	170441017	1476552673143	1476552673226	h	72
332969	3587808	It carries a lot more excitement for the driver.	It carries a lot more excitement for the driver.	170441020	1476552673280	1476552673369	e	69
332969	3587808	It carries a lot more excitement for the driver.	It carries a lot more excitement for the driver.	170441031	1476552673327	1476552673435	 	32
332969	3587808	It carries a lot more excitement for the driver.	It carries a lot more excitement for the driver.	170441033	1476552673503	1476552673565	d	68
332969	3587808	It carries a lot more excitement for the driver.	It carries a lot more excitement for the driver.	170441037	1476552673693	1476552673786	r	82
332969	3587808	It carries a lot more excitement for the driver.	It carries a lot more excitement for the driver.	170441041	1476552673887	1476552673968	i	73
332969	3587808	It carries a lot more excitement for the driver.	It carries a lot more excitement for the driver.	170441044	1476552673980	1476552674050	v	86
332969	3587808	It carries a lot more excitement for the driver.	It carries a lot more excitement for the driver.	170441048	1476552674093	1476552674185	e	69
332969	3587808	It carries a lot more excitement for the driver.	It carries a lot more excitement for the driver.	170441038	1476552674153	1476552674242	r	82
332969	3587814	Referring to his meeting in Washington with US President Bill Clinton.	Referring to his meeting in Washington with US President Bill Clinton.	170441159	1476552677286	1476552677467	SHIFT	16
332969	3587814	Referring to his meeting in Washington with US President Bill Clinton.	Referring to his meeting in Washington with US President Bill Clinton.	170441160	1476552677417	1476552677570	R	82
332969	3587814	Referring to his meeting in Washington with US President Bill Clinton.	Referring to his meeting in Washington with US President Bill Clinton.	170441161	1476552677527	1476552677653	e	69
332969	3587814	Referring to his meeting in Washington with US President Bill Clinton.	Referring to his meeting in Washington with US President Bill Clinton.	170441162	1476552677671	1476552677774	f	70
332969	3587814	Referring to his meeting in Washington with US President Bill Clinton.	Referring to his meeting in Washington with US President Bill Clinton.	170441163	1476552677801	1476552677895	e	69
332969	3587814	Referring to his meeting in Washington with US President Bill Clinton.	Referring to his meeting in Washington with US President Bill Clinton.	170441166	1476552677872	1476552677966	r	82
332969	3587814	Referring to his meeting in Washington with US President Bill Clinton.	Referring to his meeting in Washington with US President Bill Clinton.	170441168	1476552678017	1476552678116	r	82
332969	3587814	Referring to his meeting in Washington with US President Bill Clinton.	Referring to his meeting in Washington with US President Bill Clinton.	170441170	1476552678154	1476552678257	i	73
332969	3587814	Referring to his meeting in Washington with US President Bill Clinton.	Referring to his meeting in Washington with US President Bill Clinton.	170441172	1476552678220	1476552678308	n	78
332969	3587814	Referring to his meeting in Washington with US President Bill Clinton.	Referring to his meeting in Washington with US President Bill Clinton.	170441174	1476552678272	1476552678383	g	71
332969	3587814	Referring to his meeting in Washington with US President Bill Clinton.	Referring to his meeting in Washington with US President Bill Clinton.	170441193	1476552678335	1476552678426	 	32
332969	3587814	Referring to his meeting in Washington with US President Bill Clinton.	Referring to his meeting in Washington with US President Bill Clinton.	170441195	1476552678456	1476552678547	t	84
332969	3587814	Referring to his meeting in Washington with US President Bill Clinton.	Referring to his meeting in Washington with US President Bill Clinton.	170441198	1476552678541	1476552678607	o	79
332969	3587814	Referring to his meeting in Washington with US President Bill Clinton.	Referring to his meeting in Washington with US President Bill Clinton.	170441201	1476552678590	1476552678700	 	32
332969	3587814	Referring to his meeting in Washington with US President Bill Clinton.	Referring to his meeting in Washington with US President Bill Clinton.	170441203	1476552678943	1476552679085	h	72
332969	3587814	Referring to his meeting in Washington with US President Bill Clinton.	Referring to his meeting in Washington with US President Bill Clinton.	170441208	1476552679152	1476552679228	i	73
332969	3587814	Referring to his meeting in Washington with US President Bill Clinton.	Referring to his meeting in Washington with US President Bill Clinton.	170441218	1476552679207	1476552679338	s	83
332969	3587814	Referring to his meeting in Washington with US President Bill Clinton.	Referring to his meeting in Washington with US President Bill Clinton.	170441219	1476552679268	1476552679399	 	32
332969	3587814	Referring to his meeting in Washington with US President Bill Clinton.	Referring to his meeting in Washington with US President Bill Clinton.	170441220	1476552679502	1476552679567	m	77
332969	3587814	Referring to his meeting in Washington with US President Bill Clinton.	Referring to his meeting in Washington with US President Bill Clinton.	170441221	1476552679598	1476552679663	e	69
332969	3587814	Referring to his meeting in Washington with US President Bill Clinton.	Referring to his meeting in Washington with US President Bill Clinton.	170441222	1476552679737	1476552679841	e	69
332969	3587814	Referring to his meeting in Washington with US President Bill Clinton.	Referring to his meeting in Washington with US President Bill Clinton.	170441223	1476552679867	1476552679968	t	84
332969	3587814	Referring to his meeting in Washington with US President Bill Clinton.	Referring to his meeting in Washington with US President Bill Clinton.	170441226	1476552679965	1476552680053	i	73
332969	3587814	Referring to his meeting in Washington with US President Bill Clinton.	Referring to his meeting in Washington with US President Bill Clinton.	170441228	1476552680024	1476552680100	n	78
332969	3587814	Referring to his meeting in Washington with US President Bill Clinton.	Referring to his meeting in Washington with US President Bill Clinton.	170441231	1476552680104	1476552680202	g	71
332969	3587814	Referring to his meeting in Washington with US President Bill Clinton.	Referring to his meeting in Washington with US President Bill Clinton.	170441234	1476552680150	1476552680250	 	32
332969	3587814	Referring to his meeting in Washington with US President Bill Clinton.	Referring to his meeting in Washington with US President Bill Clinton.	170441236	1476552680296	1476552680410	i	73
332969	3587814	Referring to his meeting in Washington with US President Bill Clinton.	Referring to his meeting in Washington with US President Bill Clinton.	170441244	1476552680377	1476552680470	n	78
332969	3587814	Referring to his meeting in Washington with US President Bill Clinton.	Referring to his meeting in Washington with US President Bill Clinton.	170441245	1476552680450	1476552680585	 	32
332969	3587814	Referring to his meeting in Washington with US President Bill Clinton.	Referring to his meeting in Washington with US President Bill Clinton.	170441246	1476552680674	1476552680822	SHIFT	16
332969	3587814	Referring to his meeting in Washington with US President Bill Clinton.	Referring to his meeting in Washington with US President Bill Clinton.	170441247	1476552680749	1476552680827	W	87
332969	3587814	Referring to his meeting in Washington with US President Bill Clinton.	Referring to his meeting in Washington with US President Bill Clinton.	170441248	1476552680939	1476552681057	a	65
332969	3587814	Referring to his meeting in Washington with US President Bill Clinton.	Referring to his meeting in Washington with US President Bill Clinton.	170441249	1476552681029	1476552681135	s	83
332969	3587814	Referring to his meeting in Washington with US President Bill Clinton.	Referring to his meeting in Washington with US President Bill Clinton.	170441257	1476552681092	1476552681172	h	72
332969	3587814	Referring to his meeting in Washington with US President Bill Clinton.	Referring to his meeting in Washington with US President Bill Clinton.	170441260	1476552681227	1476552681333	i	73
332969	3587814	Referring to his meeting in Washington with US President Bill Clinton.	Referring to his meeting in Washington with US President Bill Clinton.	170441262	1476552681300	1476552681385	n	78
332969	3587814	Referring to his meeting in Washington with US President Bill Clinton.	Referring to his meeting in Washington with US President Bill Clinton.	170441265	1476552681365	1476552681453	t	84
332969	3587814	Referring to his meeting in Washington with US President Bill Clinton.	Referring to his meeting in Washington with US President Bill Clinton.	170441266	1476552681494	1476552681597	o	79
332969	3587814	Referring to his meeting in Washington with US President Bill Clinton.	Referring to his meeting in Washington with US President Bill Clinton.	170441269	1476552681568	1476552681662	n	78
332969	3587814	Referring to his meeting in Washington with US President Bill Clinton.	Referring to his meeting in Washington with US President Bill Clinton.	170441270	1476552681649	1476552681778	 	32
332969	3587814	Referring to his meeting in Washington with US President Bill Clinton.	Referring to his meeting in Washington with US President Bill Clinton.	170441273	1476552681912	1476552682001	w	87
332969	3587814	Referring to his meeting in Washington with US President Bill Clinton.	Referring to his meeting in Washington with US President Bill Clinton.	170441275	1476552682005	1476552682084	i	73
332969	3587814	Referring to his meeting in Washington with US President Bill Clinton.	Referring to his meeting in Washington with US President Bill Clinton.	170441277	1476552682159	1476552682265	t	84
332969	3587814	Referring to his meeting in Washington with US President Bill Clinton.	Referring to his meeting in Washington with US President Bill Clinton.	170441303	1476552682206	1476552682310	h	72
332969	3587814	Referring to his meeting in Washington with US President Bill Clinton.	Referring to his meeting in Washington with US President Bill Clinton.	170441304	1476552682259	1476552682346	 	32
332969	3587814	Referring to his meeting in Washington with US President Bill Clinton.	Referring to his meeting in Washington with US President Bill Clinton.	170441308	1476552682322	1476552682924	SHIFT	16
332969	3587814	Referring to his meeting in Washington with US President Bill Clinton.	Referring to his meeting in Washington with US President Bill Clinton.	170441305	1476552682433	1476552682524	U	85
332969	3587814	Referring to his meeting in Washington with US President Bill Clinton.	Referring to his meeting in Washington with US President Bill Clinton.	170441306	1476552682513	1476552682617	S	83
332969	3587814	Referring to his meeting in Washington with US President Bill Clinton.	Referring to his meeting in Washington with US President Bill Clinton.	170441307	1476552682573	1476552682677	 	32
332969	3587814	Referring to his meeting in Washington with US President Bill Clinton.	Referring to his meeting in Washington with US President Bill Clinton.	170441311	1476552683252	1476552683443	SHIFT	16
332969	3587814	Referring to his meeting in Washington with US President Bill Clinton.	Referring to his meeting in Washington with US President Bill Clinton.	170441309	1476552683324	1476552683410	P	80
332969	3587814	Referring to his meeting in Washington with US President Bill Clinton.	Referring to his meeting in Washington with US President Bill Clinton.	170441313	1476552683503	1476552683609	r	82
332969	3587814	Referring to his meeting in Washington with US President Bill Clinton.	Referring to his meeting in Washington with US President Bill Clinton.	170441329	1476552683548	1476552683641	e	69
332969	3587814	Referring to his meeting in Washington with US President Bill Clinton.	Referring to his meeting in Washington with US President Bill Clinton.	170441330	1476552683744	1476552683821	s	83
332969	3587814	Referring to his meeting in Washington with US President Bill Clinton.	Referring to his meeting in Washington with US President Bill Clinton.	170441332	1476552683834	1476552683909	i	73
332969	3587814	Referring to his meeting in Washington with US President Bill Clinton.	Referring to his meeting in Washington with US President Bill Clinton.	170441334	1476552683963	1476552684102	d	68
332969	3587814	Referring to his meeting in Washington with US President Bill Clinton.	Referring to his meeting in Washington with US President Bill Clinton.	170441336	1476552684036	1476552684153	e	69
332969	3587814	Referring to his meeting in Washington with US President Bill Clinton.	Referring to his meeting in Washington with US President Bill Clinton.	170441351	1476552684134	1476552684213	n	78
332969	3587814	Referring to his meeting in Washington with US President Bill Clinton.	Referring to his meeting in Washington with US President Bill Clinton.	170441353	1476552684246	1476552684349	 	84
332969	3587814	Referring to his meeting in Washington with US President Bill Clinton.	Referring to his meeting in Washington with US President Bill Clinton.	170441356	1476552684334	1476552684576	SHIFT	16
332969	3587814	Referring to his meeting in Washington with US President Bill Clinton.	Referring to his meeting in Washington with US President Bill Clinton.	170441359	1476552684501	1476552684606	B	66
332969	3587814	Referring to his meeting in Washington with US President Bill Clinton.	Referring to his meeting in Washington with US President Bill Clinton.	170441360	1476552684640	1476552684700	i	73
332969	3587814	Referring to his meeting in Washington with US President Bill Clinton.	Referring to his meeting in Washington with US President Bill Clinton.	170441361	1476552684803	1476552684850	l	76
332969	3587814	Referring to his meeting in Washington with US President Bill Clinton.	Referring to his meeting in Washington with US President Bill Clinton.	170441373	1476552684896	1476552684968	l	76
332969	3587814	Referring to his meeting in Washington with US President Bill Clinton.	Referring to his meeting in Washington with US President Bill Clinton.	170441376	1476552684970	1476552685056	 	32
332969	3587814	Referring to his meeting in Washington with US President Bill Clinton.	Referring to his meeting in Washington with US President Bill Clinton.	170441379	1476552685017	1476552685203	SHIFT	16
332969	3587814	Referring to his meeting in Washington with US President Bill Clinton.	Referring to his meeting in Washington with US President Bill Clinton.	170441384	1476552685137	1476552685237	C	67
332969	3587814	Referring to his meeting in Washington with US President Bill Clinton.	Referring to his meeting in Washington with US President Bill Clinton.	170441388	1476552685258	1476552685331	l	76
332969	3587814	Referring to his meeting in Washington with US President Bill Clinton.	Referring to his meeting in Washington with US President Bill Clinton.	170441391	1476552685397	1476552685505	i	73
332969	3587814	Referring to his meeting in Washington with US President Bill Clinton.	Referring to his meeting in Washington with US President Bill Clinton.	170441472	1476552685478	1476552685566	n	78
332969	3587814	Referring to his meeting in Washington with US President Bill Clinton.	Referring to his meeting in Washington with US President Bill Clinton.	170441474	1476552685574	1476552685653	t	84
332969	3587814	Referring to his meeting in Washington with US President Bill Clinton.	Referring to his meeting in Washington with US President Bill Clinton.	170441479	1476552685634	1476552685727	o	79
332969	3587814	Referring to his meeting in Washington with US President Bill Clinton.	Referring to his meeting in Washington with US President Bill Clinton.	170441485	1476552685703	1476552685765	n	78
332969	3587814	Referring to his meeting in Washington with US President Bill Clinton.	Referring to his meeting in Washington with US President Bill Clinton.	170441493	1476552688350	1476552688457	g	71
332969	3587823	I won't be home until 6.	I won't be home until 6.	170441533	1476552690562	1476552691117	SHIFT	16
332969	3587823	I won't be home until 6.	I won't be home until 6.	170441532	1476552691008	1476552691088	I	73
332969	3587823	I won't be home until 6.	I won't be home until 6.	170441534	1476552691100	1476552691242	 	32
332969	3587823	I won't be home until 6.	I won't be home until 6.	170441535	1476552691212	1476552691310	w	87
332969	3587823	I won't be home until 6.	I won't be home until 6.	170441536	1476552691249	1476552691343	o	79
332969	3587823	I won't be home until 6.	I won't be home until 6.	170441553	1476552691329	1476552691391	n	78
332969	3587823	I won't be home until 6.	I won't be home until 6.	170441554	1476552691481	1476552691557	'	222
332969	3587823	I won't be home until 6.	I won't be home until 6.	170441555	1476552691534	1476552691616	t	84
332969	3587823	I won't be home until 6.	I won't be home until 6.	170441556	1476552691584	1476552691659	 	32
332969	3587823	I won't be home until 6.	I won't be home until 6.	170441557	1476552691714	1476552691787	b	66
332969	3587823	I won't be home until 6.	I won't be home until 6.	170441558	1476552691834	1476552691956	e	69
332969	3587823	I won't be home until 6.	I won't be home until 6.	170441568	1476552691895	1476552691995	 	32
332969	3587823	I won't be home until 6.	I won't be home until 6.	170441570	1476552692082	1476552692171	h	72
332969	3587823	I won't be home until 6.	I won't be home until 6.	170441571	1476552692148	1476552692241	o	79
332969	3587823	I won't be home until 6.	I won't be home until 6.	170441572	1476552692213	1476552692297	m	77
332969	3587823	I won't be home until 6.	I won't be home until 6.	170441573	1476552692286	1476552692380	e	69
332969	3587823	I won't be home until 6.	I won't be home until 6.	170441579	1476552692334	1476552692466	 	32
332969	3587823	I won't be home until 6.	I won't be home until 6.	170441584	1476552692431	1476552692516	u	85
332969	3587823	I won't be home until 6.	I won't be home until 6.	170441589	1476552692496	1476552692561	n	78
332969	3587823	I won't be home until 6.	I won't be home until 6.	170441593	1476552692606	1476552692681	t	84
332969	3587823	I won't be home until 6.	I won't be home until 6.	170441596	1476552692639	1476552692710	i	73
332969	3587823	I won't be home until 6.	I won't be home until 6.	170441599	1476552692811	1476552692891	l	76
332969	3587823	I won't be home until 6.	I won't be home until 6.	170441605	1476552692894	1476552692976	 	32
332969	3587823	I won't be home until 6.	I won't be home until 6.	170441607	1476552693052	1476552693158	6	54
332969	3587827	Once you do, you can never go back.	Once you do, you can never go back.	170441685	1476552695092	1476552695330	SHIFT	16
332969	3587827	Once you do, you can never go back.	Once you do, you can never go back.	170441687	1476552695240	1476552695352	O	79
332969	3587827	Once you do, you can never go back.	Once you do, you can never go back.	170441689	1476552695419	1476552695509	n	78
332969	3587827	Once you do, you can never go back.	Once you do, you can never go back.	170441692	1476552695573	1476552695728	c	67
332969	3587827	Once you do, you can never go back.	Once you do, you can never go back.	170441714	1476552695643	1476552695784	e	69
332969	3587827	Once you do, you can never go back.	Once you do, you can never go back.	170441717	1476552695722	1476552695826	 	32
332969	3587827	Once you do, you can never go back.	Once you do, you can never go back.	170441720	1476552695954	1476552696052	y	89
332969	3587827	Once you do, you can never go back.	Once you do, you can never go back.	170441722	1476552696000	1476552696085	o	79
332969	3587827	Once you do, you can never go back.	Once you do, you can never go back.	170441725	1476552696060	1476552696140	u	85
332969	3587827	Once you do, you can never go back.	Once you do, you can never go back.	170441727	1476552696120	1476552696233	 	32
332969	3587827	Once you do, you can never go back.	Once you do, you can never go back.	170441729	1476552696463	1476552696536	d	68
332969	3587827	Once you do, you can never go back.	Once you do, you can never go back.	170441737	1476552696504	1476552696564	o	79
332969	3587827	Once you do, you can never go back.	Once you do, you can never go back.	170441739	1476552696662	1476552696745	,	188
332969	3587827	Once you do, you can never go back.	Once you do, you can never go back.	170441741	1476552696728	1476552696825	 	32
332969	3587827	Once you do, you can never go back.	Once you do, you can never go back.	170441743	1476552696932	1476552697029	y	89
332969	3587827	Once you do, you can never go back.	Once you do, you can never go back.	170441745	1476552696987	1476552697085	o	79
332969	3587827	Once you do, you can never go back.	Once you do, you can never go back.	170441753	1476552697052	1476552697127	u	85
332969	3587827	Once you do, you can never go back.	Once you do, you can never go back.	170441754	1476552697099	1476552697183	 	32
332969	3587827	Once you do, you can never go back.	Once you do, you can never go back.	170441757	1476552697217	1476552697303	c	67
332969	3587827	Once you do, you can never go back.	Once you do, you can never go back.	170441760	1476552697381	1476552697457	a	65
332969	3587827	Once you do, you can never go back.	Once you do, you can never go back.	170441763	1476552697423	1476552697484	n	78
332969	3587827	Once you do, you can never go back.	Once you do, you can never go back.	170441768	1476552697501	1476552697605	 	32
332969	3587827	Once you do, you can never go back.	Once you do, you can never go back.	170441777	1476552697609	1476552697688	n	78
332969	3587827	Once you do, you can never go back.	Once you do, you can never go back.	170441779	1476552697646	1476552697740	e	69
332969	3587827	Once you do, you can never go back.	Once you do, you can never go back.	170441782	1476552697785	1476552697865	v	86
332969	3587827	Once you do, you can never go back.	Once you do, you can never go back.	170441784	1476552697897	1476552697995	e	69
332969	3587827	Once you do, you can never go back.	Once you do, you can never go back.	170441786	1476552697966	1476552698085	r	82
332969	3587827	Once you do, you can never go back.	Once you do, you can never go back.	170441787	1476552698031	1476552698119	 	32
332969	3587827	Once you do, you can never go back.	Once you do, you can never go back.	170441788	1476552698194	1476552698284	g	71
332969	3587827	Once you do, you can never go back.	Once you do, you can never go back.	170441789	1476552698266	1476552698336	o	79
332969	3587827	Once you do, you can never go back.	Once you do, you can never go back.	170441790	1476552698359	1476552698465	 	32
332969	3587827	Once you do, you can never go back.	Once you do, you can never go back.	170441791	1476552698539	1476552698611	b	66
332969	3587827	Once you do, you can never go back.	Once you do, you can never go back.	170441801	1476552698705	1476552698776	a	65
332969	3587827	Once you do, you can never go back.	Once you do, you can never go back.	170441803	1476552698849	1476552698920	c	67
332969	3587827	Once you do, you can never go back.	Once you do, you can never go back.	170441804	1476552698902	1476552698953	k	75
332969	3587831	The artist assures me it is a turkey.	The artist assures me it is a turkey.	170441870	1476552700838	1476552700998	SHIFT	16
332969	3587831	The artist assures me it is a turkey.	The artist assures me it is a turkey.	170441871	1476552700937	1476552701023	T	84
332969	3587831	The artist assures me it is a turkey.	The artist assures me it is a turkey.	170441872	1476552701039	1476552701138	h	72
332969	3587831	The artist assures me it is a turkey.	The artist assures me it is a turkey.	170441873	1476552701189	1476552701303	e	69
332969	3587831	The artist assures me it is a turkey.	The artist assures me it is a turkey.	170441874	1476552701273	1476552701369	 	32
332969	3587831	The artist assures me it is a turkey.	The artist assures me it is a turkey.	170441875	1476552701463	1476552701538	a	65
332969	3587831	The artist assures me it is a turkey.	The artist assures me it is a turkey.	170441889	1476552701670	1476552701742	r	82
332969	3587831	The artist assures me it is a turkey.	The artist assures me it is a turkey.	170441891	1476552701817	1476552701913	t	84
332969	3587831	The artist assures me it is a turkey.	The artist assures me it is a turkey.	170441892	1476552701907	1476552701972	i	73
332969	3587831	The artist assures me it is a turkey.	The artist assures me it is a turkey.	170441893	1476552702006	1476552702095	s	83
332969	3587831	The artist assures me it is a turkey.	The artist assures me it is a turkey.	170441894	1476552702161	1476552702264	t	84
332969	3587831	The artist assures me it is a turkey.	The artist assures me it is a turkey.	170441913	1476552702231	1476552702335	 	32
332969	3587831	The artist assures me it is a turkey.	The artist assures me it is a turkey.	170441915	1476552702485	1476552702554	a	65
332969	3587831	The artist assures me it is a turkey.	The artist assures me it is a turkey.	170441918	1476552702895	1476552702965	s	83
332969	3587831	The artist assures me it is a turkey.	The artist assures me it is a turkey.	170441920	1476552703031	1476552703113	s	83
332969	3587831	The artist assures me it is a turkey.	The artist assures me it is a turkey.	170441921	1476552703110	1476552703171	u	85
332969	3587831	The artist assures me it is a turkey.	The artist assures me it is a turkey.	170441922	1476552703214	1476552703365	r	82
332969	3587831	The artist assures me it is a turkey.	The artist assures me it is a turkey.	170441930	1476552703266	1476552703379	e	69
332969	3587831	The artist assures me it is a turkey.	The artist assures me it is a turkey.	170441931	1476552703535	1476552703657	s	83
332969	3587831	The artist assures me it is a turkey.	The artist assures me it is a turkey.	170441932	1476552703598	1476552703725	 	32
332969	3587831	The artist assures me it is a turkey.	The artist assures me it is a turkey.	170441934	1476552703744	1476552703822	m	77
332969	3587831	The artist assures me it is a turkey.	The artist assures me it is a turkey.	170441936	1476552703812	1476552703906	e	69
332969	3587831	The artist assures me it is a turkey.	The artist assures me it is a turkey.	170441946	1476552703893	1476552704013	 	32
332969	3587831	The artist assures me it is a turkey.	The artist assures me it is a turkey.	170441947	1476552704012	1476552704087	i	73
332969	3587831	The artist assures me it is a turkey.	The artist assures me it is a turkey.	170441949	1476552704180	1476552704298	t	84
332969	3587831	The artist assures me it is a turkey.	The artist assures me it is a turkey.	170441951	1476552704240	1476552704348	 	32
332969	3587831	The artist assures me it is a turkey.	The artist assures me it is a turkey.	170441953	1476552704352	1476552704432	i	73
332969	3587831	The artist assures me it is a turkey.	The artist assures me it is a turkey.	170441955	1476552704446	1476552704548	s	83
332969	3587831	The artist assures me it is a turkey.	The artist assures me it is a turkey.	170441969	1476552704501	1476552704623	 	32
332969	3587831	The artist assures me it is a turkey.	The artist assures me it is a turkey.	170441971	1476552704926	1476552705019	a	65
332969	3587831	The artist assures me it is a turkey.	The artist assures me it is a turkey.	170441973	1476552704996	1476552705100	 	32
332969	3587831	The artist assures me it is a turkey.	The artist assures me it is a turkey.	170441975	1476552705184	1476552705282	t	84
332969	3587831	The artist assures me it is a turkey.	The artist assures me it is a turkey.	170441976	1476552705281	1476552705337	u	85
332969	3587831	The artist assures me it is a turkey.	The artist assures me it is a turkey.	170441977	1476552705369	1476552705450	r	82
332969	3587831	The artist assures me it is a turkey.	The artist assures me it is a turkey.	170441981	1476552705478	1476552705543	k	75
332969	3587831	The artist assures me it is a turkey.	The artist assures me it is a turkey.	170441983	1476552705555	1476552705611	e	69
332969	3587831	The artist assures me it is a turkey.	The artist assures me it is a turkey.	170441985	1476552705725	1476552705800	y	89
332969	3587833	Appointing Jeff as CFO is one important step in that process.	Appointing Jeff as CFO is one important step in that process.	170442029	1476552708037	1476552708228	SHIFT	16
332969	3587833	Appointing Jeff as CFO is one important step in that process.	Appointing Jeff as CFO is one important step in that process.	170442030	1476552708167	1476552708237	A	65
332969	3587833	Appointing Jeff as CFO is one important step in that process.	Appointing Jeff as CFO is one important step in that process.	170442031	1476552708311	1476552708368	p	80
332969	3587833	Appointing Jeff as CFO is one important step in that process.	Appointing Jeff as CFO is one important step in that process.	170442032	1476552708461	1476552708560	p	80
332969	3587833	Appointing Jeff as CFO is one important step in that process.	Appointing Jeff as CFO is one important step in that process.	170442034	1476552708540	1476552708624	o	79
332969	3587833	Appointing Jeff as CFO is one important step in that process.	Appointing Jeff as CFO is one important step in that process.	170442036	1476552708704	1476552708813	i	73
332969	3587833	Appointing Jeff as CFO is one important step in that process.	Appointing Jeff as CFO is one important step in that process.	170442045	1476552708779	1476552708857	n	78
332969	3587833	Appointing Jeff as CFO is one important step in that process.	Appointing Jeff as CFO is one important step in that process.	170442047	1476552708834	1476552708934	t	84
332969	3587833	Appointing Jeff as CFO is one important step in that process.	Appointing Jeff as CFO is one important step in that process.	170442048	1476552708954	1476552709049	i	73
332969	3587833	Appointing Jeff as CFO is one important step in that process.	Appointing Jeff as CFO is one important step in that process.	170442049	1476552709014	1476552709110	n	78
332969	3587833	Appointing Jeff as CFO is one important step in that process.	Appointing Jeff as CFO is one important step in that process.	170442050	1476552709071	1476552709182	g	71
332969	3587833	Appointing Jeff as CFO is one important step in that process.	Appointing Jeff as CFO is one important step in that process.	170442056	1476552709145	1476552709256	 	32
332969	3587833	Appointing Jeff as CFO is one important step in that process.	Appointing Jeff as CFO is one important step in that process.	170442058	1476552709279	1476552709438	SHIFT	16
332969	3587833	Appointing Jeff as CFO is one important step in that process.	Appointing Jeff as CFO is one important step in that process.	170442057	1476552709359	1476552709420	J	74
332969	3587833	Appointing Jeff as CFO is one important step in that process.	Appointing Jeff as CFO is one important step in that process.	170442059	1476552709472	1476552709553	e	69
332969	3587833	Appointing Jeff as CFO is one important step in that process.	Appointing Jeff as CFO is one important step in that process.	170442060	1476552709620	1476552709682	f	70
332969	3587833	Appointing Jeff as CFO is one important step in that process.	Appointing Jeff as CFO is one important step in that process.	170442061	1476552709742	1476552709868	f	70
332969	3587833	Appointing Jeff as CFO is one important step in that process.	Appointing Jeff as CFO is one important step in that process.	170442068	1476552709834	1476552709929	 	32
332969	3587833	Appointing Jeff as CFO is one important step in that process.	Appointing Jeff as CFO is one important step in that process.	170442069	1476552709975	1476552710071	a	65
332969	3587833	Appointing Jeff as CFO is one important step in that process.	Appointing Jeff as CFO is one important step in that process.	170442070	1476552710008	1476552710149	s	83
332969	3587833	Appointing Jeff as CFO is one important step in that process.	Appointing Jeff as CFO is one important step in that process.	170442072	1476552710096	1476552710180	 	32
332969	3587833	Appointing Jeff as CFO is one important step in that process.	Appointing Jeff as CFO is one important step in that process.	170442086	1476552710240	1476552711069	SHIFT	16
332969	3587833	Appointing Jeff as CFO is one important step in that process.	Appointing Jeff as CFO is one important step in that process.	170442074	1476552710598	1476552710669	C	67
332969	3587833	Appointing Jeff as CFO is one important step in that process.	Appointing Jeff as CFO is one important step in that process.	170442077	1476552710806	1476552710895	F	70
332969	3587833	Appointing Jeff as CFO is one important step in that process.	Appointing Jeff as CFO is one important step in that process.	170442085	1476552710904	1476552710966	O	79
332969	3587833	Appointing Jeff as CFO is one important step in that process.	Appointing Jeff as CFO is one important step in that process.	170442087	1476552710988	1476552711096	 	32
332969	3587833	Appointing Jeff as CFO is one important step in that process.	Appointing Jeff as CFO is one important step in that process.	170442088	1476552711212	1476552711288	i	73
332969	3587833	Appointing Jeff as CFO is one important step in that process.	Appointing Jeff as CFO is one important step in that process.	170442089	1476552711310	1476552711426	s	83
332969	3587833	Appointing Jeff as CFO is one important step in that process.	Appointing Jeff as CFO is one important step in that process.	170442100	1476552711356	1476552711492	 	32
332969	3587833	Appointing Jeff as CFO is one important step in that process.	Appointing Jeff as CFO is one important step in that process.	170442103	1476552711509	1476552711618	o	79
332969	3587833	Appointing Jeff as CFO is one important step in that process.	Appointing Jeff as CFO is one important step in that process.	170442110	1476552711561	1476552711659	n	78
332969	3587833	Appointing Jeff as CFO is one important step in that process.	Appointing Jeff as CFO is one important step in that process.	170442113	1476552711611	1476552711719	e	69
332969	3587833	Appointing Jeff as CFO is one important step in that process.	Appointing Jeff as CFO is one important step in that process.	170442116	1476552711678	1476552711804	 	32
332969	3587833	Appointing Jeff as CFO is one important step in that process.	Appointing Jeff as CFO is one important step in that process.	170442117	1476552711841	1476552711953	i	73
332969	3587833	Appointing Jeff as CFO is one important step in that process.	Appointing Jeff as CFO is one important step in that process.	170442127	1476552711924	1476552711997	m	77
332969	3587833	Appointing Jeff as CFO is one important step in that process.	Appointing Jeff as CFO is one important step in that process.	170442130	1476552712070	1476552712184	p	80
332969	3587833	Appointing Jeff as CFO is one important step in that process.	Appointing Jeff as CFO is one important step in that process.	170442134	1476552712163	1476552712253	o	79
332969	3587833	Appointing Jeff as CFO is one important step in that process.	Appointing Jeff as CFO is one important step in that process.	170442138	1476552712248	1476552712336	r	82
332969	3587833	Appointing Jeff as CFO is one important step in that process.	Appointing Jeff as CFO is one important step in that process.	170442141	1476552712374	1476552712462	t	84
332969	3587833	Appointing Jeff as CFO is one important step in that process.	Appointing Jeff as CFO is one important step in that process.	170442144	1476552712552	1476552712640	a	65
332969	3587833	Appointing Jeff as CFO is one important step in that process.	Appointing Jeff as CFO is one important step in that process.	170442155	1476552712626	1476552712697	n	78
332969	3587833	Appointing Jeff as CFO is one important step in that process.	Appointing Jeff as CFO is one important step in that process.	170442157	1476552712729	1476552712824	t	84
332969	3587833	Appointing Jeff as CFO is one important step in that process.	Appointing Jeff as CFO is one important step in that process.	170442159	1476552712775	1476552712868	 	32
332969	3587833	Appointing Jeff as CFO is one important step in that process.	Appointing Jeff as CFO is one important step in that process.	170442161	1476552712948	1476552713013	s	83
332969	3587833	Appointing Jeff as CFO is one important step in that process.	Appointing Jeff as CFO is one important step in that process.	170442163	1476552713117	1476552713227	t	84
332969	3587833	Appointing Jeff as CFO is one important step in that process.	Appointing Jeff as CFO is one important step in that process.	170442165	1476552713170	1476552713271	e	69
332969	3587833	Appointing Jeff as CFO is one important step in that process.	Appointing Jeff as CFO is one important step in that process.	170442167	1476552713270	1476552713342	p	80
332969	3587833	Appointing Jeff as CFO is one important step in that process.	Appointing Jeff as CFO is one important step in that process.	170442168	1476552713377	1476552713484	 	32
332969	3587833	Appointing Jeff as CFO is one important step in that process.	Appointing Jeff as CFO is one important step in that process.	170442170	1476552713497	1476552713577	i	73
332969	3587833	Appointing Jeff as CFO is one important step in that process.	Appointing Jeff as CFO is one important step in that process.	170442171	1476552713550	1476552713643	n	78
332969	3587833	Appointing Jeff as CFO is one important step in that process.	Appointing Jeff as CFO is one important step in that process.	170442174	1476552713596	1476552713698	 	32
332969	3587833	Appointing Jeff as CFO is one important step in that process.	Appointing Jeff as CFO is one important step in that process.	170442179	1476552713730	1476552713819	t	84
332969	3587833	Appointing Jeff as CFO is one important step in that process.	Appointing Jeff as CFO is one important step in that process.	170442184	1476552713780	1476552713862	h	72
332969	3587833	Appointing Jeff as CFO is one important step in that process.	Appointing Jeff as CFO is one important step in that process.	170442189	1476552713993	1476552714054	a	65
332969	3587833	Appointing Jeff as CFO is one important step in that process.	Appointing Jeff as CFO is one important step in that process.	170442196	1476552714148	1476552714233	t	84
332969	3587833	Appointing Jeff as CFO is one important step in that process.	Appointing Jeff as CFO is one important step in that process.	170442210	1476552714200	1476552714293	 	32
332969	3587833	Appointing Jeff as CFO is one important step in that process.	Appointing Jeff as CFO is one important step in that process.	170442211	1476552714342	1476552714412	p	80
332969	3587833	Appointing Jeff as CFO is one important step in that process.	Appointing Jeff as CFO is one important step in that process.	170442212	1476552714447	1476552714522	r	82
332969	3587833	Appointing Jeff as CFO is one important step in that process.	Appointing Jeff as CFO is one important step in that process.	170442213	1476552714525	1476552714586	o	79
332969	3587833	Appointing Jeff as CFO is one important step in that process.	Appointing Jeff as CFO is one important step in that process.	170442214	1476552714669	1476552714777	c	67
332969	3587833	Appointing Jeff as CFO is one important step in that process.	Appointing Jeff as CFO is one important step in that process.	170442217	1476552714735	1476552714833	e	69
332969	3587833	Appointing Jeff as CFO is one important step in that process.	Appointing Jeff as CFO is one important step in that process.	170442219	1476552714931	1476552714993	s	83
332969	3587833	Appointing Jeff as CFO is one important step in that process.	Appointing Jeff as CFO is one important step in that process.	170442221	1476552715058	1476552715136	s	83
332969	3587840	His current status is day to day.	His current status is day to day.	170442291	1476552717239	1476552717492	SHIFT	16
332969	3587840	His current status is day to day.	His current status is day to day.	170442292	1476552717416	1476552717506	H	72
332969	3587840	His current status is day to day.	His current status is day to day.	170442294	1476552717569	1476552717649	i	73
332969	3587840	His current status is day to day.	His current status is day to day.	170442296	1476552717624	1476552717742	s	83
332969	3587840	His current status is day to day.	His current status is day to day.	170442298	1476552717685	1476552717792	 	32
332969	3587840	His current status is day to day.	His current status is day to day.	170442300	1476552717849	1476552717928	c	67
332969	3587840	His current status is day to day.	His current status is day to day.	170442311	1476552717901	1476552717971	u	85
332969	3587840	His current status is day to day.	His current status is day to day.	170442316	1476552718039	1476552718105	r	82
332969	3587840	His current status is day to day.	His current status is day to day.	170442322	1476552718167	1476552718294	r	82
332969	3587840	His current status is day to day.	His current status is day to day.	170442327	1476552718266	1476552718363	e	69
332969	3587840	His current status is day to day.	His current status is day to day.	170442330	1476552718358	1476552718428	n	78
332969	3587840	His current status is day to day.	His current status is day to day.	170442333	1476552718438	1476552718545	t	84
332969	3587840	His current status is day to day.	His current status is day to day.	170442343	1476552718507	1476552718601	 	32
332969	3587840	His current status is day to day.	His current status is day to day.	170442345	1476552718688	1476552718753	s	83
332969	3587840	His current status is day to day.	His current status is day to day.	170442347	1476552718775	1476552718874	t	84
332969	3587840	His current status is day to day.	His current status is day to day.	170442349	1476552718950	1476552719010	a	65
332969	3587840	His current status is day to day.	His current status is day to day.	170442351	1476552719085	1476552719175	t	84
332969	3587840	His current status is day to day.	His current status is day to day.	170442357	1476552719173	1476552719234	u	85
332969	3587840	His current status is day to day.	His current status is day to day.	170442359	1476552719261	1476552719366	s	83
332969	3587840	His current status is day to day.	His current status is day to day.	170442362	1476552719321	1476552719427	 	32
332969	3587840	His current status is day to day.	His current status is day to day.	170442364	1476552719492	1476552719553	i	73
332969	3587840	His current status is day to day.	His current status is day to day.	170442366	1476552719552	1476552719658	s	83
332969	3587840	His current status is day to day.	His current status is day to day.	170442387	1476552719601	1476552719727	 	32
332969	3587840	His current status is day to day.	His current status is day to day.	170442389	1476552719799	1476552719873	d	68
332969	3587840	His current status is day to day.	His current status is day to day.	170442391	1476552719935	1476552720004	a	65
332969	3587840	His current status is day to day.	His current status is day to day.	170442393	1476552720138	1476552720210	y	89
332969	3587840	His current status is day to day.	His current status is day to day.	170442394	1476552720199	1476552720269	 	32
332969	3587840	His current status is day to day.	His current status is day to day.	170442395	1476552720336	1476552720429	t	84
332969	3587840	His current status is day to day.	His current status is day to day.	170442401	1476552720396	1476552720457	o	79
332969	3587840	His current status is day to day.	His current status is day to day.	170442402	1476552720471	1476552720574	 	32
332969	3587840	His current status is day to day.	His current status is day to day.	170442403	1476552720668	1476552720736	d	68
332969	3587840	His current status is day to day.	His current status is day to day.	170442404	1476552720803	1476552720873	a	65
332969	3587840	His current status is day to day.	His current status is day to day.	170442405	1476552721013	1476552721059	y	89
