PARTICIPANT_ID	TEST_SECTION_ID	SENTENCE	USER_INPUT	KEYSTROKE_ID	PRESS_TIME	RELEASE_TIME	LETTER	KEYCODE
333643	3595730	Laveranues Coles will be the top receiver in his absence.	Laveranues Coles will be the top receiver in his absence. 	170820334	1476566854768	1476566854907	SHIFT	16
333643	3595730	Laveranues Coles will be the top receiver in his absence.	Laveranues Coles will be the top receiver in his absence. 	170820335	1476566854823	1476566854939	L	76
333643	3595730	Laveranues Coles will be the top receiver in his absence.	Laveranues Coles will be the top receiver in his absence. 	170820336	1476566854927	1476566855022	a	65
333643	3595730	Laveranues Coles will be the top receiver in his absence.	Laveranues Coles will be the top receiver in his absence. 	170820337	1476566855107	1476566855203	v	86
333643	3595730	Laveranues Coles will be the top receiver in his absence.	Laveranues Coles will be the top receiver in his absence. 	170820338	1476566855223	1476566855362	e	69
333643	3595730	Laveranues Coles will be the top receiver in his absence.	Laveranues Coles will be the top receiver in his absence. 	170820377	1476566855323	1476566855450	r	82
333643	3595730	Laveranues Coles will be the top receiver in his absence.	Laveranues Coles will be the top receiver in his absence. 	170820379	1476566855483	1476566855607	a	65
333643	3595730	Laveranues Coles will be the top receiver in his absence.	Laveranues Coles will be the top receiver in his absence. 	170820381	1476566855787	1476566855899	u	85
333643	3595730	Laveranues Coles will be the top receiver in his absence.	Laveranues Coles will be the top receiver in his absence. 	170820383	1476566855875	1476566855987	n	78
333643	3595730	Laveranues Coles will be the top receiver in his absence.	Laveranues Coles will be the top receiver in his absence. 	170820385	1476566856268	1476566856330	BKSP	8
333643	3595730	Laveranues Coles will be the top receiver in his absence.	Laveranues Coles will be the top receiver in his absence. 	170820387	1476566856414	1476566856478	BKSP	8
333643	3595730	Laveranues Coles will be the top receiver in his absence.	Laveranues Coles will be the top receiver in his absence. 	170820389	1476566856983	1476566857046	n	78
333643	3595730	Laveranues Coles will be the top receiver in his absence.	Laveranues Coles will be the top receiver in his absence. 	170820392	1476566857615	1476566857698	u	85
333643	3595730	Laveranues Coles will be the top receiver in his absence.	Laveranues Coles will be the top receiver in his absence. 	170820399	1476566858057	1476566858114	s	83
333643	3595730	Laveranues Coles will be the top receiver in his absence.	Laveranues Coles will be the top receiver in his absence. 	170820400	1476566858295	1476566858369	BKSP	8
333643	3595730	Laveranues Coles will be the top receiver in his absence.	Laveranues Coles will be the top receiver in his absence. 	170820401	1476566858393	1476566858487	e	69
333643	3595730	Laveranues Coles will be the top receiver in his absence.	Laveranues Coles will be the top receiver in his absence. 	170820402	1476566858527	1476566858668	s	83
333643	3595730	Laveranues Coles will be the top receiver in his absence.	Laveranues Coles will be the top receiver in his absence. 	170820403	1476566858634	1476566858738	 	32
333643	3595730	Laveranues Coles will be the top receiver in his absence.	Laveranues Coles will be the top receiver in his absence. 	170820404	1476566858783	1476566858891	SHIFT	16
333643	3595730	Laveranues Coles will be the top receiver in his absence.	Laveranues Coles will be the top receiver in his absence. 	170820405	1476566858860	1476566858960	C	67
333643	3595730	Laveranues Coles will be the top receiver in his absence.	Laveranues Coles will be the top receiver in his absence. 	170820406	1476566858971	1476566859072	o	79
333643	3595730	Laveranues Coles will be the top receiver in his absence.	Laveranues Coles will be the top receiver in his absence. 	170820407	1476566859073	1476566859174	l	76
333643	3595730	Laveranues Coles will be the top receiver in his absence.	Laveranues Coles will be the top receiver in his absence. 	170820408	1476566859174	1476566859262	e	69
333643	3595730	Laveranues Coles will be the top receiver in his absence.	Laveranues Coles will be the top receiver in his absence. 	170820409	1476566859270	1476566859450	s	83
333643	3595730	Laveranues Coles will be the top receiver in his absence.	Laveranues Coles will be the top receiver in his absence. 	170820430	1476566859427	1476566859506	 	32
333643	3595730	Laveranues Coles will be the top receiver in his absence.	Laveranues Coles will be the top receiver in his absence. 	170820432	1476566859591	1476566859691	w	87
333643	3595730	Laveranues Coles will be the top receiver in his absence.	Laveranues Coles will be the top receiver in his absence. 	170820434	1476566859695	1476566859747	i	73
333643	3595730	Laveranues Coles will be the top receiver in his absence.	Laveranues Coles will be the top receiver in his absence. 	170820436	1476566859852	1476566859891	l	76
333643	3595730	Laveranues Coles will be the top receiver in his absence.	Laveranues Coles will be the top receiver in his absence. 	170820437	1476566859969	1476566860028	l	76
333643	3595730	Laveranues Coles will be the top receiver in his absence.	Laveranues Coles will be the top receiver in his absence. 	170820438	1476566860034	1476566860120	 	32
333643	3595730	Laveranues Coles will be the top receiver in his absence.	Laveranues Coles will be the top receiver in his absence. 	170820439	1476566860192	1476566860279	b	66
333643	3595730	Laveranues Coles will be the top receiver in his absence.	Laveranues Coles will be the top receiver in his absence. 	170820440	1476566860355	1476566860478	e	69
333643	3595730	Laveranues Coles will be the top receiver in his absence.	Laveranues Coles will be the top receiver in his absence. 	170820441	1476566860426	1476566860503	 	32
333643	3595730	Laveranues Coles will be the top receiver in his absence.	Laveranues Coles will be the top receiver in his absence. 	170820442	1476566860535	1476566860618	t	84
333643	3595730	Laveranues Coles will be the top receiver in his absence.	Laveranues Coles will be the top receiver in his absence. 	170820451	1476566860602	1476566860675	h	72
333643	3595730	Laveranues Coles will be the top receiver in his absence.	Laveranues Coles will be the top receiver in his absence. 	170820452	1476566860695	1476566860818	e	69
333643	3595730	Laveranues Coles will be the top receiver in his absence.	Laveranues Coles will be the top receiver in his absence. 	170820453	1476566860751	1476566860838	 	32
333643	3595730	Laveranues Coles will be the top receiver in his absence.	Laveranues Coles will be the top receiver in his absence. 	170820454	1476566860887	1476566860979	t	84
333643	3595730	Laveranues Coles will be the top receiver in his absence.	Laveranues Coles will be the top receiver in his absence. 	170820455	1476566860983	1476566861118	o	79
333643	3595730	Laveranues Coles will be the top receiver in his absence.	Laveranues Coles will be the top receiver in his absence. 	170820469	1476566861055	1476566861138	p	80
333643	3595730	Laveranues Coles will be the top receiver in his absence.	Laveranues Coles will be the top receiver in his absence. 	170820470	1476566861189	1476566861265	 	32
333643	3595730	Laveranues Coles will be the top receiver in his absence.	Laveranues Coles will be the top receiver in his absence. 	170820471	1476566861329	1476566861442	r	82
333643	3595730	Laveranues Coles will be the top receiver in his absence.	Laveranues Coles will be the top receiver in his absence. 	170820472	1476566861414	1476566861522	e	69
333643	3595730	Laveranues Coles will be the top receiver in his absence.	Laveranues Coles will be the top receiver in his absence. 	170820473	1476566861582	1476566861691	c	67
333643	3595730	Laveranues Coles will be the top receiver in his absence.	Laveranues Coles will be the top receiver in his absence. 	170820474	1476566861755	1476566861867	e	69
333643	3595730	Laveranues Coles will be the top receiver in his absence.	Laveranues Coles will be the top receiver in his absence. 	170820475	1476566861942	1476566862023	i	73
333643	3595730	Laveranues Coles will be the top receiver in his absence.	Laveranues Coles will be the top receiver in his absence. 	170820476	1476566862075	1476566862175	v	86
333643	3595730	Laveranues Coles will be the top receiver in his absence.	Laveranues Coles will be the top receiver in his absence. 	170820477	1476566862194	1476566862355	e	69
333643	3595730	Laveranues Coles will be the top receiver in his absence.	Laveranues Coles will be the top receiver in his absence. 	170820478	1476566862331	1476566862458	r	82
333643	3595730	Laveranues Coles will be the top receiver in his absence.	Laveranues Coles will be the top receiver in his absence. 	170820490	1476566862426	1476566862510	 	32
333643	3595730	Laveranues Coles will be the top receiver in his absence.	Laveranues Coles will be the top receiver in his absence. 	170820492	1476566862531	1476566862614	i	73
333643	3595730	Laveranues Coles will be the top receiver in his absence.	Laveranues Coles will be the top receiver in his absence. 	170820495	1476566862586	1476566862690	n	78
333643	3595730	Laveranues Coles will be the top receiver in his absence.	Laveranues Coles will be the top receiver in his absence. 	170820499	1476566862659	1476566862755	 	32
333643	3595730	Laveranues Coles will be the top receiver in his absence.	Laveranues Coles will be the top receiver in his absence. 	170820501	1476566862822	1476566862887	h	72
333643	3595730	Laveranues Coles will be the top receiver in his absence.	Laveranues Coles will be the top receiver in his absence. 	170820503	1476566862963	1476566863049	i	73
333643	3595730	Laveranues Coles will be the top receiver in his absence.	Laveranues Coles will be the top receiver in his absence. 	170820511	1476566863043	1476566863150	s	83
333643	3595730	Laveranues Coles will be the top receiver in his absence.	Laveranues Coles will be the top receiver in his absence. 	170820512	1476566863126	1476566863201	 	32
333643	3595730	Laveranues Coles will be the top receiver in his absence.	Laveranues Coles will be the top receiver in his absence. 	170820513	1476566863239	1476566863318	a	65
333643	3595730	Laveranues Coles will be the top receiver in his absence.	Laveranues Coles will be the top receiver in his absence. 	170820514	1476566863399	1476566863475	b	66
333643	3595730	Laveranues Coles will be the top receiver in his absence.	Laveranues Coles will be the top receiver in his absence. 	170820515	1476566863723	1476566863802	s	83
333643	3595730	Laveranues Coles will be the top receiver in his absence.	Laveranues Coles will be the top receiver in his absence. 	170820516	1476566863899	1476566863979	e	69
333643	3595730	Laveranues Coles will be the top receiver in his absence.	Laveranues Coles will be the top receiver in his absence. 	170820538	1476566864027	1476566864119	n	78
333643	3595730	Laveranues Coles will be the top receiver in his absence.	Laveranues Coles will be the top receiver in his absence. 	170820541	1476566864175	1476566864227	c	67
333643	3595730	Laveranues Coles will be the top receiver in his absence.	Laveranues Coles will be the top receiver in his absence. 	170820543	1476566864203	1476566864319	e	69
333643	3595730	Laveranues Coles will be the top receiver in his absence.	Laveranues Coles will be the top receiver in his absence. 	170820545	1476566864351	1476566864407	.	190
333643	3595730	Laveranues Coles will be the top receiver in his absence.	Laveranues Coles will be the top receiver in his absence. 	170820546	1476566864890	1476566864913	 	32
333643	3595740	Now I really feel I'm alive, not like before.	Now I really feel I'm alive, not like before.	170820595	1476566866434	1476566866686	SHIFT	16
333643	3595740	Now I really feel I'm alive, not like before.	Now I really feel I'm alive, not like before.	170820596	1476566866638	1476566866722	N	78
333643	3595740	Now I really feel I'm alive, not like before.	Now I really feel I'm alive, not like before.	170820598	1476566866706	1476566866810	o	79
333643	3595740	Now I really feel I'm alive, not like before.	Now I really feel I'm alive, not like before.	170820600	1476566866838	1476566866974	w	87
333643	3595740	Now I really feel I'm alive, not like before.	Now I really feel I'm alive, not like before.	170820602	1476566866939	1476566867035	 	32
333643	3595740	Now I really feel I'm alive, not like before.	Now I really feel I'm alive, not like before.	170820604	1476566867159	1476566867242	MENU	93
333643	3595740	Now I really feel I'm alive, not like before.	Now I really feel I'm alive, not like before.	170820606	1476566868894	1476566869095	SHIFT	16
333643	3595740	Now I really feel I'm alive, not like before.	Now I really feel I'm alive, not like before.	170820608	1476566869047	1476566869127	I	73
333643	3595740	Now I really feel I'm alive, not like before.	Now I really feel I'm alive, not like before.	170820609	1476566869143	1476566869218	 	32
333643	3595740	Now I really feel I'm alive, not like before.	Now I really feel I'm alive, not like before.	170820611	1476566869226	1476566869327	r	82
333643	3595740	Now I really feel I'm alive, not like before.	Now I really feel I'm alive, not like before.	170820613	1476566869298	1476566869429	e	69
333643	3595740	Now I really feel I'm alive, not like before.	Now I really feel I'm alive, not like before.	170820638	1476566869403	1476566869478	a	65
333643	3595740	Now I really feel I'm alive, not like before.	Now I really feel I'm alive, not like before.	170820635	1476566869423	1476566869470	l	76
333643	3595740	Now I really feel I'm alive, not like before.	Now I really feel I'm alive, not like before.	170820641	1476566869551	1476566869611	l	76
333643	3595740	Now I really feel I'm alive, not like before.	Now I really feel I'm alive, not like before.	170820644	1476566869667	1476566869783	y	89
333643	3595740	Now I really feel I'm alive, not like before.	Now I really feel I'm alive, not like before.	170820647	1476566869734	1476566869822	 	32
333643	3595740	Now I really feel I'm alive, not like before.	Now I really feel I'm alive, not like before.	170820649	1476566869971	1476566870059	f	70
333643	3595740	Now I really feel I'm alive, not like before.	Now I really feel I'm alive, not like before.	170820653	1476566870099	1476566870191	e	69
333643	3595740	Now I really feel I'm alive, not like before.	Now I really feel I'm alive, not like before.	170820664	1476566870263	1476566870363	e	69
333643	3595740	Now I really feel I'm alive, not like before.	Now I really feel I'm alive, not like before.	170820665	1476566870351	1476566870406	l	76
333643	3595740	Now I really feel I'm alive, not like before.	Now I really feel I'm alive, not like before.	170820666	1476566870455	1476566870538	 	32
333643	3595740	Now I really feel I'm alive, not like before.	Now I really feel I'm alive, not like before.	170820667	1476566870562	1476566870714	SHIFT	16
333643	3595740	Now I really feel I'm alive, not like before.	Now I really feel I'm alive, not like before.	170820668	1476566870658	1476566870750	I	73
333643	3595740	Now I really feel I'm alive, not like before.	Now I really feel I'm alive, not like before.	170820670	1476566870854	1476566870922	'	191
333643	3595740	Now I really feel I'm alive, not like before.	Now I really feel I'm alive, not like before.	170820690	1476566871026	1476566871115	m	77
333643	3595740	Now I really feel I'm alive, not like before.	Now I really feel I'm alive, not like before.	170820693	1476566871183	1476566871262	 	32
333643	3595740	Now I really feel I'm alive, not like before.	Now I really feel I'm alive, not like before.	170820696	1476566871315	1476566871411	a	65
333643	3595740	Now I really feel I'm alive, not like before.	Now I really feel I'm alive, not like before.	170820699	1476566871427	1476566871495	l	76
333643	3595740	Now I really feel I'm alive, not like before.	Now I really feel I'm alive, not like before.	170820702	1476566871587	1476566871651	i	73
333643	3595740	Now I really feel I'm alive, not like before.	Now I really feel I'm alive, not like before.	170820716	1476566871767	1476566871851	e	69
333643	3595740	Now I really feel I'm alive, not like before.	Now I really feel I'm alive, not like before.	170820717	1476566872118	1476566872198	BKSP	8
333643	3595740	Now I really feel I'm alive, not like before.	Now I really feel I'm alive, not like before.	170820718	1476566872247	1476566872330	v	86
333643	3595740	Now I really feel I'm alive, not like before.	Now I really feel I'm alive, not like before.	170820719	1476566872311	1476566872414	e	69
333643	3595740	Now I really feel I'm alive, not like before.	Now I really feel I'm alive, not like before.	170820720	1476566872414	1476566872478	,	188
333643	3595740	Now I really feel I'm alive, not like before.	Now I really feel I'm alive, not like before.	170820721	1476566872562	1476566872619	 	32
333643	3595740	Now I really feel I'm alive, not like before.	Now I really feel I'm alive, not like before.	170820738	1476566872695	1476566872719	t	84
333643	3595740	Now I really feel I'm alive, not like before.	Now I really feel I'm alive, not like before.	170820741	1476566872930	1476566872981	BKSP	8
333643	3595740	Now I really feel I'm alive, not like before.	Now I really feel I'm alive, not like before.	170820745	1476566873118	1476566873227	n	78
333643	3595740	Now I really feel I'm alive, not like before.	Now I really feel I'm alive, not like before.	170820748	1476566873175	1476566873297	o	79
333643	3595740	Now I really feel I'm alive, not like before.	Now I really feel I'm alive, not like before.	170820751	1476566873318	1476566873385	t	84
333643	3595740	Now I really feel I'm alive, not like before.	Now I really feel I'm alive, not like before.	170820766	1476566873365	1476566873462	 	32
333643	3595740	Now I really feel I'm alive, not like before.	Now I really feel I'm alive, not like before.	170820768	1476566873875	1476566873938	l	76
333643	3595740	Now I really feel I'm alive, not like before.	Now I really feel I'm alive, not like before.	170820770	1476566874042	1476566874117	i	73
333643	3595740	Now I really feel I'm alive, not like before.	Now I really feel I'm alive, not like before.	170820772	1476566874118	1476566874166	k	75
333643	3595740	Now I really feel I'm alive, not like before.	Now I really feel I'm alive, not like before.	170820774	1476566874206	1476566874322	e	69
333643	3595740	Now I really feel I'm alive, not like before.	Now I really feel I'm alive, not like before.	170820781	1476566874306	1476566874361	 	32
333643	3595740	Now I really feel I'm alive, not like before.	Now I really feel I'm alive, not like before.	170820783	1476566874426	1476566874502	b	66
333643	3595740	Now I really feel I'm alive, not like before.	Now I really feel I'm alive, not like before.	170820785	1476566874554	1476566874669	e	69
333643	3595740	Now I really feel I'm alive, not like before.	Now I really feel I'm alive, not like before.	170820787	1476566874677	1476566874773	f	70
333643	3595740	Now I really feel I'm alive, not like before.	Now I really feel I'm alive, not like before.	170820788	1476566874794	1476566874858	o	79
333643	3595740	Now I really feel I'm alive, not like before.	Now I really feel I'm alive, not like before.	170820790	1476566874878	1476566874963	r	82
333643	3595740	Now I really feel I'm alive, not like before.	Now I really feel I'm alive, not like before.	170820791	1476566874936	1476566875039	e	69
333643	3595740	Now I really feel I'm alive, not like before.	Now I really feel I'm alive, not like before.	170820793	1476566874988	1476566875071	.	190
333643	3595745	Add a Star Trek convention and sports memorabilia show to the mix.	Add a Star Trek convention and sports memorabilia show to the mix.	170820825	1476566876487	1476566876640	SHIFT	16
333643	3595745	Add a Star Trek convention and sports memorabilia show to the mix.	Add a Star Trek convention and sports memorabilia show to the mix.	170820826	1476566876559	1476566876687	A	65
333643	3595745	Add a Star Trek convention and sports memorabilia show to the mix.	Add a Star Trek convention and sports memorabilia show to the mix.	170820827	1476566876640	1476566876739	d	68
333643	3595745	Add a Star Trek convention and sports memorabilia show to the mix.	Add a Star Trek convention and sports memorabilia show to the mix.	170820828	1476566876811	1476566876919	d	68
333643	3595745	Add a Star Trek convention and sports memorabilia show to the mix.	Add a Star Trek convention and sports memorabilia show to the mix.	170820829	1476566876927	1476566877014	 	32
333643	3595745	Add a Star Trek convention and sports memorabilia show to the mix.	Add a Star Trek convention and sports memorabilia show to the mix.	170820849	1476566876983	1476566877110	a	65
333643	3595745	Add a Star Trek convention and sports memorabilia show to the mix.	Add a Star Trek convention and sports memorabilia show to the mix.	170820850	1476566877431	1476566877586	SHIFT	16
333643	3595745	Add a Star Trek convention and sports memorabilia show to the mix.	Add a Star Trek convention and sports memorabilia show to the mix.	170820852	1476566877535	1476566877626	S	83
333643	3595745	Add a Star Trek convention and sports memorabilia show to the mix.	Add a Star Trek convention and sports memorabilia show to the mix.	170820854	1476566877663	1476566877731	t	84
333643	3595745	Add a Star Trek convention and sports memorabilia show to the mix.	Add a Star Trek convention and sports memorabilia show to the mix.	170820857	1476566877937	1476566877982	BKSP	8
333643	3595745	Add a Star Trek convention and sports memorabilia show to the mix.	Add a Star Trek convention and sports memorabilia show to the mix.	170820862	1476566878067	1476566878118	BKSP	8
333643	3595745	Add a Star Trek convention and sports memorabilia show to the mix.	Add a Star Trek convention and sports memorabilia show to the mix.	170820866	1476566878195	1476566878302	 	32
333643	3595745	Add a Star Trek convention and sports memorabilia show to the mix.	Add a Star Trek convention and sports memorabilia show to the mix.	170820869	1476566878302	1476566878437	SHIFT	16
333643	3595745	Add a Star Trek convention and sports memorabilia show to the mix.	Add a Star Trek convention and sports memorabilia show to the mix.	170820871	1476566878359	1476566878469	S	83
333643	3595745	Add a Star Trek convention and sports memorabilia show to the mix.	Add a Star Trek convention and sports memorabilia show to the mix.	170820872	1476566878462	1476566878546	t	84
333643	3595745	Add a Star Trek convention and sports memorabilia show to the mix.	Add a Star Trek convention and sports memorabilia show to the mix.	170820874	1476566878574	1476566878702	a	65
333643	3595745	Add a Star Trek convention and sports memorabilia show to the mix.	Add a Star Trek convention and sports memorabilia show to the mix.	170820876	1476566878679	1476566878779	r	82
333643	3595745	Add a Star Trek convention and sports memorabilia show to the mix.	Add a Star Trek convention and sports memorabilia show to the mix.	170820879	1476566878819	1476566878882	 	32
333643	3595745	Add a Star Trek convention and sports memorabilia show to the mix.	Add a Star Trek convention and sports memorabilia show to the mix.	170820885	1476566878906	1476566879072	SHIFT	16
333643	3595745	Add a Star Trek convention and sports memorabilia show to the mix.	Add a Star Trek convention and sports memorabilia show to the mix.	170820881	1476566878993	1476566879072	T	84
333643	3595745	Add a Star Trek convention and sports memorabilia show to the mix.	Add a Star Trek convention and sports memorabilia show to the mix.	170820889	1476566879198	1476566879262	r	82
333643	3595745	Add a Star Trek convention and sports memorabilia show to the mix.	Add a Star Trek convention and sports memorabilia show to the mix.	170820907	1476566879246	1476566879361	e	69
333643	3595745	Add a Star Trek convention and sports memorabilia show to the mix.	Add a Star Trek convention and sports memorabilia show to the mix.	170820908	1476566879474	1476566879558	k	75
333643	3595745	Add a Star Trek convention and sports memorabilia show to the mix.	Add a Star Trek convention and sports memorabilia show to the mix.	170820909	1476566879614	1476566879694	 	32
333643	3595745	Add a Star Trek convention and sports memorabilia show to the mix.	Add a Star Trek convention and sports memorabilia show to the mix.	170820911	1476566879780	1476566879860	SHIFT	16
333643	3595745	Add a Star Trek convention and sports memorabilia show to the mix.	Add a Star Trek convention and sports memorabilia show to the mix.	170820914	1476566880065	1476566880169	c	67
333643	3595745	Add a Star Trek convention and sports memorabilia show to the mix.	Add a Star Trek convention and sports memorabilia show to the mix.	170820917	1476566880162	1476566880253	o	79
333643	3595745	Add a Star Trek convention and sports memorabilia show to the mix.	Add a Star Trek convention and sports memorabilia show to the mix.	170820924	1476566880226	1476566880333	n	78
333643	3595745	Add a Star Trek convention and sports memorabilia show to the mix.	Add a Star Trek convention and sports memorabilia show to the mix.	170820925	1476566880305	1476566880400	v	86
333643	3595745	Add a Star Trek convention and sports memorabilia show to the mix.	Add a Star Trek convention and sports memorabilia show to the mix.	170820926	1476566880398	1476566880513	e	69
333643	3595745	Add a Star Trek convention and sports memorabilia show to the mix.	Add a Star Trek convention and sports memorabilia show to the mix.	170820928	1476566880505	1476566880609	n	78
333643	3595745	Add a Star Trek convention and sports memorabilia show to the mix.	Add a Star Trek convention and sports memorabilia show to the mix.	170820932	1476566880598	1476566880680	t	84
333643	3595745	Add a Star Trek convention and sports memorabilia show to the mix.	Add a Star Trek convention and sports memorabilia show to the mix.	170820935	1476566880729	1476566880780	i	73
333643	3595745	Add a Star Trek convention and sports memorabilia show to the mix.	Add a Star Trek convention and sports memorabilia show to the mix.	170820946	1476566880825	1476566880937	o	79
333643	3595745	Add a Star Trek convention and sports memorabilia show to the mix.	Add a Star Trek convention and sports memorabilia show to the mix.	170820948	1476566880926	1476566881021	n	78
333643	3595745	Add a Star Trek convention and sports memorabilia show to the mix.	Add a Star Trek convention and sports memorabilia show to the mix.	170820949	1476566881022	1476566881109	 	32
333643	3595745	Add a Star Trek convention and sports memorabilia show to the mix.	Add a Star Trek convention and sports memorabilia show to the mix.	170820951	1476566881125	1476566881253	a	65
333643	3595745	Add a Star Trek convention and sports memorabilia show to the mix.	Add a Star Trek convention and sports memorabilia show to the mix.	170820955	1476566881209	1476566881301	n	78
333643	3595745	Add a Star Trek convention and sports memorabilia show to the mix.	Add a Star Trek convention and sports memorabilia show to the mix.	170820956	1476566881293	1476566881428	d	68
333643	3595745	Add a Star Trek convention and sports memorabilia show to the mix.	Add a Star Trek convention and sports memorabilia show to the mix.	170820957	1476566881400	1476566881485	 	32
333643	3595745	Add a Star Trek convention and sports memorabilia show to the mix.	Add a Star Trek convention and sports memorabilia show to the mix.	170820958	1476566881537	1476566881646	s	83
333643	3595745	Add a Star Trek convention and sports memorabilia show to the mix.	Add a Star Trek convention and sports memorabilia show to the mix.	170820989	1476566881838	1476566881900	å	80
333643	3595745	Add a Star Trek convention and sports memorabilia show to the mix.	Add a Star Trek convention and sports memorabilia show to the mix.	170820991	1476566882053	1476566882137	o	79
333643	3595745	Add a Star Trek convention and sports memorabilia show to the mix.	Add a Star Trek convention and sports memorabilia show to the mix.	170820993	1476566882205	1476566882296	r	82
333643	3595745	Add a Star Trek convention and sports memorabilia show to the mix.	Add a Star Trek convention and sports memorabilia show to the mix.	170820995	1476566882384	1476566882469	t	84
333643	3595745	Add a Star Trek convention and sports memorabilia show to the mix.	Add a Star Trek convention and sports memorabilia show to the mix.	170820997	1476566882582	1476566882637	BKSP	8
333643	3595745	Add a Star Trek convention and sports memorabilia show to the mix.	Add a Star Trek convention and sports memorabilia show to the mix.	170820999	1476566882709	1476566882764	BKSP	8
333643	3595745	Add a Star Trek convention and sports memorabilia show to the mix.	Add a Star Trek convention and sports memorabilia show to the mix.	170821000	1476566882857	1476566882901	BKSP	8
333643	3595745	Add a Star Trek convention and sports memorabilia show to the mix.	Add a Star Trek convention and sports memorabilia show to the mix.	170821001	1476566882977	1476566883037	BKSP	8
333643	3595745	Add a Star Trek convention and sports memorabilia show to the mix.	Add a Star Trek convention and sports memorabilia show to the mix.	170821002	1476566883158	1476566883255	o	79
333643	3595745	Add a Star Trek convention and sports memorabilia show to the mix.	Add a Star Trek convention and sports memorabilia show to the mix.	170821003	1476566883256	1476566883321	r	82
333643	3595745	Add a Star Trek convention and sports memorabilia show to the mix.	Add a Star Trek convention and sports memorabilia show to the mix.	170821015	1476566883389	1476566883469	t	84
333643	3595745	Add a Star Trek convention and sports memorabilia show to the mix.	Add a Star Trek convention and sports memorabilia show to the mix.	170821020	1476566883522	1476566883650	s	83
333643	3595745	Add a Star Trek convention and sports memorabilia show to the mix.	Add a Star Trek convention and sports memorabilia show to the mix.	170821024	1476566883634	1476566883726	 	32
333643	3595745	Add a Star Trek convention and sports memorabilia show to the mix.	Add a Star Trek convention and sports memorabilia show to the mix.	170821027	1476566883754	1476566883838	m	77
333643	3595745	Add a Star Trek convention and sports memorabilia show to the mix.	Add a Star Trek convention and sports memorabilia show to the mix.	170821029	1476566884018	1476566884118	e	69
333643	3595745	Add a Star Trek convention and sports memorabilia show to the mix.	Add a Star Trek convention and sports memorabilia show to the mix.	170821044	1476566884181	1476566884250	m	77
333643	3595745	Add a Star Trek convention and sports memorabilia show to the mix.	Add a Star Trek convention and sports memorabilia show to the mix.	170821047	1476566884330	1476566884418	o	79
333643	3595745	Add a Star Trek convention and sports memorabilia show to the mix.	Add a Star Trek convention and sports memorabilia show to the mix.	170821049	1476566884546	1476566884638	r	82
333643	3595745	Add a Star Trek convention and sports memorabilia show to the mix.	Add a Star Trek convention and sports memorabilia show to the mix.	170821052	1476566884674	1476566884770	a	65
333643	3595745	Add a Star Trek convention and sports memorabilia show to the mix.	Add a Star Trek convention and sports memorabilia show to the mix.	170821054	1476566884886	1476566884970	b	66
333643	3595745	Add a Star Trek convention and sports memorabilia show to the mix.	Add a Star Trek convention and sports memorabilia show to the mix.	170821062	1476566885007	1476566885098	i	73
333643	3595745	Add a Star Trek convention and sports memorabilia show to the mix.	Add a Star Trek convention and sports memorabilia show to the mix.	170821064	1476566885214	1476566885265	l	76
333643	3595745	Add a Star Trek convention and sports memorabilia show to the mix.	Add a Star Trek convention and sports memorabilia show to the mix.	170821066	1476566885370	1476566885449	i	73
333643	3595745	Add a Star Trek convention and sports memorabilia show to the mix.	Add a Star Trek convention and sports memorabilia show to the mix.	170821070	1476566885529	1476566885641	a	65
333643	3595745	Add a Star Trek convention and sports memorabilia show to the mix.	Add a Star Trek convention and sports memorabilia show to the mix.	170821073	1476566885678	1476566885761	 	32
333643	3595745	Add a Star Trek convention and sports memorabilia show to the mix.	Add a Star Trek convention and sports memorabilia show to the mix.	170821090	1476566885826	1476566885885	s	83
333643	3595745	Add a Star Trek convention and sports memorabilia show to the mix.	Add a Star Trek convention and sports memorabilia show to the mix.	170821092	1476566886018	1476566886080	h	72
333643	3595745	Add a Star Trek convention and sports memorabilia show to the mix.	Add a Star Trek convention and sports memorabilia show to the mix.	170821094	1476566886161	1476566886225	o	79
333643	3595745	Add a Star Trek convention and sports memorabilia show to the mix.	Add a Star Trek convention and sports memorabilia show to the mix.	170821095	1476566886258	1476566886362	w	87
333643	3595745	Add a Star Trek convention and sports memorabilia show to the mix.	Add a Star Trek convention and sports memorabilia show to the mix.	170821108	1476566886337	1476566886405	 	32
333643	3595745	Add a Star Trek convention and sports memorabilia show to the mix.	Add a Star Trek convention and sports memorabilia show to the mix.	170821110	1476566886462	1476566886578	t	84
333643	3595745	Add a Star Trek convention and sports memorabilia show to the mix.	Add a Star Trek convention and sports memorabilia show to the mix.	170821112	1476566886570	1476566886634	o	79
333643	3595745	Add a Star Trek convention and sports memorabilia show to the mix.	Add a Star Trek convention and sports memorabilia show to the mix.	170821114	1476566886674	1476566886762	 	32
333643	3595745	Add a Star Trek convention and sports memorabilia show to the mix.	Add a Star Trek convention and sports memorabilia show to the mix.	170821115	1476566886918	1476566886998	t	84
333643	3595745	Add a Star Trek convention and sports memorabilia show to the mix.	Add a Star Trek convention and sports memorabilia show to the mix.	170821117	1476566886982	1476566887062	h	72
333643	3595745	Add a Star Trek convention and sports memorabilia show to the mix.	Add a Star Trek convention and sports memorabilia show to the mix.	170821119	1476566887082	1476566887192	e	69
333643	3595745	Add a Star Trek convention and sports memorabilia show to the mix.	Add a Star Trek convention and sports memorabilia show to the mix.	170821121	1476566887145	1476566887225	 	32
333643	3595745	Add a Star Trek convention and sports memorabilia show to the mix.	Add a Star Trek convention and sports memorabilia show to the mix.	170821124	1476566887250	1476566887361	m	77
333643	3595745	Add a Star Trek convention and sports memorabilia show to the mix.	Add a Star Trek convention and sports memorabilia show to the mix.	170821128	1476566887333	1476566887426	i	73
333643	3595745	Add a Star Trek convention and sports memorabilia show to the mix.	Add a Star Trek convention and sports memorabilia show to the mix.	170821130	1476566887621	1476566887728	x	88
333643	3595745	Add a Star Trek convention and sports memorabilia show to the mix.	Add a Star Trek convention and sports memorabilia show to the mix.	170821150	1476566887917	1476566887940	ö	192
333643	3595745	Add a Star Trek convention and sports memorabilia show to the mix.	Add a Star Trek convention and sports memorabilia show to the mix.	170821151	1476566887948	1476566887988	.	190
333643	3595745	Add a Star Trek convention and sports memorabilia show to the mix.	Add a Star Trek convention and sports memorabilia show to the mix.	170821152	1476566888353	1476566888400	BKSP	8
333643	3595745	Add a Star Trek convention and sports memorabilia show to the mix.	Add a Star Trek convention and sports memorabilia show to the mix.	170821153	1476566888476	1476566888533	BKSP	8
333643	3595745	Add a Star Trek convention and sports memorabilia show to the mix.	Add a Star Trek convention and sports memorabilia show to the mix.	170821154	1476566888660	1476566888712	.	190
333643	3595751	Both have also promised higher salaries.	Both have also promised gigher salaries	170821268	1476566892833	1476566892985	SHIFT	16
333643	3595751	Both have also promised higher salaries.	Both have also promised gigher salaries	170821271	1476566892950	1476566893033	B	66
333643	3595751	Both have also promised higher salaries.	Both have also promised gigher salaries	170821275	1476566893085	1476566893173	o	79
333643	3595751	Both have also promised higher salaries.	Both have also promised gigher salaries	170821280	1476566893334	1476566893449	t	84
333643	3595751	Both have also promised higher salaries.	Both have also promised gigher salaries	170821283	1476566893445	1476566893522	h	72
333643	3595751	Both have also promised higher salaries.	Both have also promised gigher salaries	170821286	1476566893558	1476566893648	 	32
333643	3595751	Both have also promised higher salaries.	Both have also promised gigher salaries	170821305	1476566893794	1476566893882	h	72
333643	3595751	Both have also promised higher salaries.	Both have also promised gigher salaries	170821307	1476566893874	1476566893958	a	65
333643	3595751	Both have also promised higher salaries.	Both have also promised gigher salaries	170821310	1476566894058	1476566894146	e	69
333643	3595751	Both have also promised higher salaries.	Both have also promised gigher salaries	170821312	1476566894610	1476566894669	BKSP	8
333643	3595751	Both have also promised higher salaries.	Both have also promised gigher salaries	170821313	1476566894718	1476566894818	v	86
333643	3595751	Both have also promised higher salaries.	Both have also promised gigher salaries	170821330	1476566894802	1476566894922	e	69
333643	3595751	Both have also promised higher salaries.	Both have also promised gigher salaries	170821332	1476566894923	1476566895001	 	32
333643	3595751	Both have also promised higher salaries.	Both have also promised gigher salaries	170821335	1476566895103	1476566895218	a	65
333643	3595751	Both have also promised higher salaries.	Both have also promised gigher salaries	170821339	1476566895225	1476566895292	l	76
333643	3595751	Both have also promised higher salaries.	Both have also promised gigher salaries	170821342	1476566895309	1476566895421	s	83
333643	3595751	Both have also promised higher salaries.	Both have also promised gigher salaries	170821344	1476566895505	1476566895557	BKSP	8
333643	3595751	Both have also promised higher salaries.	Both have also promised gigher salaries	170821347	1476566895645	1476566895700	BKSP	8
333643	3595751	Both have also promised higher salaries.	Both have also promised gigher salaries	170821351	1476566895889	1476566895917	s	83
333643	3595751	Both have also promised higher salaries.	Both have also promised gigher salaries	170821367	1476566896109	1476566896161	BKSP	8
333643	3595751	Both have also promised higher salaries.	Both have also promised gigher salaries	170821368	1476566896278	1476566896357	l	76
333643	3595751	Both have also promised higher salaries.	Both have also promised gigher salaries	170821369	1476566896361	1476566896448	s	83
333643	3595751	Both have also promised higher salaries.	Both have also promised gigher salaries	170821370	1476566896486	1476566896553	o	79
333643	3595751	Both have also promised higher salaries.	Both have also promised gigher salaries	170821371	1476566896609	1476566896690	 	32
333643	3595751	Both have also promised higher salaries.	Both have also promised gigher salaries	170821372	1476566896745	1476566896817	p	80
333643	3595751	Both have also promised higher salaries.	Both have also promised gigher salaries	170821382	1476566896845	1476566896941	r	82
333643	3595751	Both have also promised higher salaries.	Both have also promised gigher salaries	170821384	1476566896953	1476566897029	o	79
333643	3595751	Both have also promised higher salaries.	Both have also promised gigher salaries	170821385	1476566897241	1476566897345	m	77
333643	3595751	Both have also promised higher salaries.	Both have also promised gigher salaries	170821387	1476566897333	1476566897429	i	73
333643	3595751	Both have also promised higher salaries.	Both have also promised gigher salaries	170821388	1476566897429	1476566897505	s	83
333643	3595751	Both have also promised higher salaries.	Both have also promised gigher salaries	170821406	1476566897678	1476566897760	e	69
333643	3595751	Both have also promised higher salaries.	Both have also promised gigher salaries	170821408	1476566897712	1476566897844	d	68
333643	3595751	Both have also promised higher salaries.	Both have also promised gigher salaries	170821409	1476566897813	1476566897884	 	32
333643	3595751	Both have also promised higher salaries.	Both have also promised gigher salaries	170821410	1476566897940	1476566898032	g	71
333643	3595751	Both have also promised higher salaries.	Both have also promised gigher salaries	170821411	1476566898044	1476566898117	i	73
333643	3595751	Both have also promised higher salaries.	Both have also promised gigher salaries	170821417	1476566898158	1476566898229	g	71
333643	3595751	Both have also promised higher salaries.	Both have also promised gigher salaries	170821418	1476566898241	1476566898333	h	72
333643	3595751	Both have also promised higher salaries.	Both have also promised gigher salaries	170821419	1476566898405	1476566898557	e	69
333643	3595751	Both have also promised higher salaries.	Both have also promised gigher salaries	170821420	1476566898505	1476566898652	r	82
333643	3595751	Both have also promised higher salaries.	Both have also promised gigher salaries	170821421	1476566898721	1476566898809	 	32
333643	3595751	Both have also promised higher salaries.	Both have also promised gigher salaries	170821437	1476566899165	1476566899297	s	83
333643	3595751	Both have also promised higher salaries.	Both have also promised gigher salaries	170821438	1476566899345	1476566899477	a	65
333643	3595751	Both have also promised higher salaries.	Both have also promised gigher salaries	170821439	1476566899469	1476566899565	l	76
333643	3595751	Both have also promised higher salaries.	Both have also promised gigher salaries	170821440	1476566899593	1476566899721	a	65
333643	3595751	Both have also promised higher salaries.	Both have also promised gigher salaries	170821454	1476566899689	1476566899810	r	82
333643	3595751	Both have also promised higher salaries.	Both have also promised gigher salaries	170821456	1476566899814	1476566899930	a	65
333643	3595751	Both have also promised higher salaries.	Both have also promised gigher salaries	170821458	1476566900158	1476566900222	BKSP	8
333643	3595751	Both have also promised higher salaries.	Both have also promised gigher salaries	170821461	1476566900326	1476566900417	i	73
333643	3595751	Both have also promised higher salaries.	Both have also promised gigher salaries	170821463	1476566900442	1476566900505	s	83
333643	3595751	Both have also promised higher salaries.	Both have also promised gigher salaries	170821465	1476566900682	1476566900729	BKSP	8
333643	3595751	Both have also promised higher salaries.	Both have also promised gigher salaries	170821468	1476566900770	1476566900849	e	69
333643	3595751	Both have also promised higher salaries.	Both have also promised gigher salaries	170821471	1476566900877	1476566900985	s	83
333643	3595756	That would be great.	That would be great.'	170821499	1476566902090	1476566902238	SHIFT	16
333643	3595756	That would be great.	That would be great.'	170821500	1476566902178	1476566902261	T	84
333643	3595756	That would be great.	That would be great.'	170821501	1476566902354	1476566902413	h	72
333643	3595756	That would be great.	That would be great.'	170821502	1476566902494	1476566902586	a	65
333643	3595756	That would be great.	That would be great.'	170821503	1476566902674	1476566902785	t	84
333643	3595756	That would be great.	That would be great.'	170821505	1476566902849	1476566902953	 	32
333643	3595756	That would be great.	That would be great.'	170821520	1476566902978	1476566903033	o	79
333643	3595756	That would be great.	That would be great.'	170821522	1476566903200	1476566903268	BKSP	8
333643	3595756	That would be great.	That would be great.'	170821523	1476566903321	1476566903392	w	87
333643	3595756	That would be great.	That would be great.'	170821525	1476566903396	1476566903440	o	79
333643	3595756	That would be great.	That would be great.'	170821526	1476566903533	1476566903605	u	85
333643	3595756	That would be great.	That would be great.'	170821527	1476566903705	1476566903780	l	76
333643	3595756	That would be great.	That would be great.'	170821528	1476566903808	1476566903905	d	68
333643	3595756	That would be great.	That would be great.'	170821529	1476566903861	1476566903933	 	32
333643	3595756	That would be great.	That would be great.'	170821530	1476566904013	1476566904085	b	66
333643	3595756	That would be great.	That would be great.'	170821532	1476566904137	1476566904237	e	69
333643	3595756	That would be great.	That would be great.'	170821549	1476566904201	1476566904249	 	32
333643	3595756	That would be great.	That would be great.'	170821550	1476566904341	1476566904421	g	71
333643	3595756	That would be great.	That would be great.'	170821551	1476566904517	1476566904621	r	82
333643	3595756	That would be great.	That would be great.'	170821552	1476566904565	1476566904753	e	69
333643	3595756	That would be great.	That would be great.'	170821553	1476566904661	1476566904765	a	65
333643	3595756	That would be great.	That would be great.'	170821554	1476566904745	1476566904817	t	84
333643	3595756	That would be great.	That would be great.'	170821555	1476566904793	1476566904849	.	190
333643	3595759	The rates would become effective after endorsement by parliament.	The rates would become effective after endorsement by parliment.¨	170821592	1476566906019	1476566906181	SHIFT	16
333643	3595759	The rates would become effective after endorsement by parliament.	The rates would become effective after endorsement by parliment.¨	170821594	1476566906105	1476566906205	T	84
333643	3595759	The rates would become effective after endorsement by parliament.	The rates would become effective after endorsement by parliment.¨	170821595	1476566906309	1476566906381	h	72
333643	3595759	The rates would become effective after endorsement by parliament.	The rates would become effective after endorsement by parliment.¨	170821597	1476566906505	1476566906569	 	32
333643	3595759	The rates would become effective after endorsement by parliament.	The rates would become effective after endorsement by parliment.¨	170821598	1476566906785	1476566906852	BKSP	8
333643	3595759	The rates would become effective after endorsement by parliament.	The rates would become effective after endorsement by parliment.¨	170821600	1476566907189	1476566907288	e	69
333643	3595759	The rates would become effective after endorsement by parliament.	The rates would become effective after endorsement by parliment.¨	170821613	1476566907257	1476566907336	 	32
333643	3595759	The rates would become effective after endorsement by parliament.	The rates would become effective after endorsement by parliment.¨	170821614	1476566907397	1476566907521	r	82
333643	3595759	The rates would become effective after endorsement by parliament.	The rates would become effective after endorsement by parliment.¨	170821615	1476566907509	1476566907641	a	65
333643	3595759	The rates would become effective after endorsement by parliament.	The rates would become effective after endorsement by parliment.¨	170821616	1476566907645	1476566907765	t	84
333643	3595759	The rates would become effective after endorsement by parliament.	The rates would become effective after endorsement by parliment.¨	170821617	1476566907753	1476566907894	e	69
333643	3595759	The rates would become effective after endorsement by parliament.	The rates would become effective after endorsement by parliment.¨	170821618	1476566907970	1476566908066	s	83
333643	3595759	The rates would become effective after endorsement by parliament.	The rates would become effective after endorsement by parliment.¨	170821624	1476566908082	1476566908113	 	32
333643	3595759	The rates would become effective after endorsement by parliament.	The rates would become effective after endorsement by parliment.¨	170821626	1476566908205	1476566908304	w	87
333643	3595759	The rates would become effective after endorsement by parliament.	The rates would become effective after endorsement by parliment.¨	170821628	1476566908308	1476566908352	o	79
333643	3595759	The rates would become effective after endorsement by parliament.	The rates would become effective after endorsement by parliment.¨	170821630	1476566908441	1476566908509	u	85
333643	3595759	The rates would become effective after endorsement by parliament.	The rates would become effective after endorsement by parliment.¨	170821633	1476566908614	1476566908673	l	76
333643	3595759	The rates would become effective after endorsement by parliament.	The rates would become effective after endorsement by parliment.¨	170821656	1476566908913	1476566909040	d	68
333643	3595759	The rates would become effective after endorsement by parliament.	The rates would become effective after endorsement by parliment.¨	170821657	1476566909033	1476566909121	 	32
333643	3595759	The rates would become effective after endorsement by parliament.	The rates would become effective after endorsement by parliment.¨	170821659	1476566909221	1476566909297	b	66
333643	3595759	The rates would become effective after endorsement by parliament.	The rates would become effective after endorsement by parliment.¨	170821662	1476566909342	1476566909430	e	69
333643	3595759	The rates would become effective after endorsement by parliament.	The rates would become effective after endorsement by parliment.¨	170821666	1476566909478	1476566909607	c	67
333643	3595759	The rates would become effective after endorsement by parliament.	The rates would become effective after endorsement by parliment.¨	170821687	1476566909582	1476566909669	o	79
333643	3595759	The rates would become effective after endorsement by parliament.	The rates would become effective after endorsement by parliment.¨	170821688	1476566909641	1476566909738	m	77
333643	3595759	The rates would become effective after endorsement by parliament.	The rates would become effective after endorsement by parliment.¨	170821689	1476566909718	1476566909818	e	69
333643	3595759	The rates would become effective after endorsement by parliament.	The rates would become effective after endorsement by parliment.¨	170821690	1476566909798	1476566909865	 	32
333643	3595759	The rates would become effective after endorsement by parliament.	The rates would become effective after endorsement by parliment.¨	170821693	1476566909930	1476566909974	w	87
333643	3595759	The rates would become effective after endorsement by parliament.	The rates would become effective after endorsement by parliment.¨	170821696	1476566910143	1476566910209	BKSP	8
333643	3595759	The rates would become effective after endorsement by parliament.	The rates would become effective after endorsement by parliment.¨	170821702	1476566910286	1476566910382	e	69
333643	3595759	The rates would become effective after endorsement by parliament.	The rates would become effective after endorsement by parliment.¨	170821719	1476566910354	1476566910445	f	70
333643	3595759	The rates would become effective after endorsement by parliament.	The rates would become effective after endorsement by parliment.¨	170821720	1476566910546	1476566910637	f	70
333643	3595759	The rates would become effective after endorsement by parliament.	The rates would become effective after endorsement by parliment.¨	170821721	1476566910641	1476566910761	e	69
333643	3595759	The rates would become effective after endorsement by parliament.	The rates would become effective after endorsement by parliment.¨	170821722	1476566910829	1476566910929	c	67
333643	3595759	The rates would become effective after endorsement by parliament.	The rates would become effective after endorsement by parliment.¨	170821723	1476566911033	1476566911126	t	84
333643	3595759	The rates would become effective after endorsement by parliament.	The rates would become effective after endorsement by parliment.¨	170821724	1476566911127	1476566911213	i	73
333643	3595759	The rates would become effective after endorsement by parliament.	The rates would become effective after endorsement by parliment.¨	170821725	1476566911229	1476566911337	v	86
333643	3595759	The rates would become effective after endorsement by parliament.	The rates would become effective after endorsement by parliment.¨	170821726	1476566911317	1476566911441	e	69
333643	3595759	The rates would become effective after endorsement by parliament.	The rates would become effective after endorsement by parliment.¨	170821727	1476566911413	1476566911506	 	32
333643	3595759	The rates would become effective after endorsement by parliament.	The rates would become effective after endorsement by parliment.¨	170821728	1476566911549	1476566911641	a	65
333643	3595759	The rates would become effective after endorsement by parliament.	The rates would become effective after endorsement by parliment.¨	170821729	1476566911713	1476566911788	f	70
333643	3595759	The rates would become effective after endorsement by parliament.	The rates would become effective after endorsement by parliment.¨	170821745	1476566911880	1476566911944	r	82
333643	3595759	The rates would become effective after endorsement by parliament.	The rates would become effective after endorsement by parliment.¨	170821747	1476566912137	1476566912209	BKSP	8
333643	3595759	The rates would become effective after endorsement by parliament.	The rates would become effective after endorsement by parliment.¨	170821749	1476566912221	1476566912321	t	84
333643	3595759	The rates would become effective after endorsement by parliament.	The rates would become effective after endorsement by parliment.¨	170821751	1476566912309	1476566912453	e	69
333643	3595759	The rates would become effective after endorsement by parliament.	The rates would become effective after endorsement by parliment.¨	170821752	1476566912405	1476566912529	r	82
333643	3595759	The rates would become effective after endorsement by parliament.	The rates would become effective after endorsement by parliment.¨	170821764	1476566912501	1476566912585	 	32
333643	3595759	The rates would become effective after endorsement by parliament.	The rates would become effective after endorsement by parliment.¨	170821765	1476566912681	1476566912793	e	69
333643	3595759	The rates would become effective after endorsement by parliament.	The rates would become effective after endorsement by parliment.¨	170821766	1476566912832	1476566912925	n	78
333643	3595759	The rates would become effective after endorsement by parliament.	The rates would become effective after endorsement by parliment.¨	170821767	1476566912926	1476566913021	d	68
333643	3595759	The rates would become effective after endorsement by parliament.	The rates would become effective after endorsement by parliment.¨	170821768	1476566913137	1476566913233	r	82
333643	3595759	The rates would become effective after endorsement by parliament.	The rates would become effective after endorsement by parliment.¨	170821769	1476566913273	1476566913357	o	79
333643	3595759	The rates would become effective after endorsement by parliament.	The rates would become effective after endorsement by parliment.¨	170821775	1476566913516	1476566913556	BKSP	8
333643	3595759	The rates would become effective after endorsement by parliament.	The rates would become effective after endorsement by parliment.¨	170821777	1476566913644	1476566913684	BKSP	8
333643	3595759	The rates would become effective after endorsement by parliament.	The rates would become effective after endorsement by parliment.¨	170821780	1476566913797	1476566913853	o	79
333643	3595759	The rates would become effective after endorsement by parliament.	The rates would become effective after endorsement by parliment.¨	170821783	1476566913906	1476566913996	r	82
333643	3595759	The rates would become effective after endorsement by parliament.	The rates would become effective after endorsement by parliment.¨	170821784	1476566914129	1476566914237	s	83
333643	3595759	The rates would become effective after endorsement by parliament.	The rates would become effective after endorsement by parliment.¨	170821786	1476566914371	1476566914448	e	69
333643	3595759	The rates would become effective after endorsement by parliament.	The rates would become effective after endorsement by parliment.¨	170821788	1476566914537	1476566914601	m	77
333643	3595759	The rates would become effective after endorsement by parliament.	The rates would become effective after endorsement by parliment.¨	170821792	1476566914737	1476566914833	e	69
333643	3595759	The rates would become effective after endorsement by parliament.	The rates would become effective after endorsement by parliment.¨	170821793	1476566914861	1476566914941	n	78
333643	3595759	The rates would become effective after endorsement by parliament.	The rates would become effective after endorsement by parliment.¨	170821794	1476566914969	1476566915053	t	84
333643	3595759	The rates would become effective after endorsement by parliament.	The rates would become effective after endorsement by parliment.¨	170821795	1476566915137	1476566915225	 	32
333643	3595759	The rates would become effective after endorsement by parliament.	The rates would become effective after endorsement by parliment.¨	170821796	1476566915313	1476566915365	f	70
333643	3595759	The rates would become effective after endorsement by parliament.	The rates would become effective after endorsement by parliment.¨	170821819	1476566915513	1476566915577	BKSP	8
333643	3595759	The rates would become effective after endorsement by parliament.	The rates would become effective after endorsement by parliment.¨	170821820	1476566915609	1476566915673	b	66
333643	3595759	The rates would become effective after endorsement by parliament.	The rates would become effective after endorsement by parliment.¨	170821822	1476566915772	1476566915873	y	89
333643	3595759	The rates would become effective after endorsement by parliament.	The rates would become effective after endorsement by parliment.¨	170821823	1476566915874	1476566915944	 	32
333643	3595759	The rates would become effective after endorsement by parliament.	The rates would become effective after endorsement by parliment.¨	170821824	1476566916255	1476566916365	p	80
333643	3595759	The rates would become effective after endorsement by parliament.	The rates would become effective after endorsement by parliment.¨	170821825	1476566916394	1476566916497	a	65
333643	3595759	The rates would become effective after endorsement by parliament.	The rates would become effective after endorsement by parliment.¨	170821837	1476566916465	1476566916578	r	82
333643	3595759	The rates would become effective after endorsement by parliament.	The rates would become effective after endorsement by parliment.¨	170821839	1476566916673	1476566916739	l	76
333643	3595759	The rates would become effective after endorsement by parliament.	The rates would become effective after endorsement by parliment.¨	170821840	1476566916826	1476566916941	i	73
333643	3595759	The rates would become effective after endorsement by parliament.	The rates would become effective after endorsement by parliment.¨	170821841	1476566916953	1476566917062	m	77
333643	3595759	The rates would become effective after endorsement by parliament.	The rates would become effective after endorsement by parliment.¨	170821842	1476566917093	1476566917172	e	69
333643	3595759	The rates would become effective after endorsement by parliament.	The rates would become effective after endorsement by parliment.¨	170821845	1476566917168	1476566917246	n	78
333643	3595759	The rates would become effective after endorsement by parliament.	The rates would become effective after endorsement by parliment.¨	170821846	1476566917326	1476566917382	t	84
333643	3595759	The rates would become effective after endorsement by parliament.	The rates would become effective after endorsement by parliment.¨	170821847	1476566917626	1476566917698	.	190
333643	3595765	Our advantages have been brought into fuller play.	Our advantages have been brought into fuller play.	170821884	1476566919106	1476566919305	SHIFT	16
333643	3595765	Our advantages have been brought into fuller play.	Our advantages have been brought into fuller play.	170821886	1476566919265	1476566919341	O	79
333643	3595765	Our advantages have been brought into fuller play.	Our advantages have been brought into fuller play.	170821887	1476566919449	1476566919541	u	85
333643	3595765	Our advantages have been brought into fuller play.	Our advantages have been brought into fuller play.	170821888	1476566919525	1476566919637	r	82
333643	3595765	Our advantages have been brought into fuller play.	Our advantages have been brought into fuller play.	170821889	1476566919617	1476566919681	 	32
333643	3595765	Our advantages have been brought into fuller play.	Our advantages have been brought into fuller play.	170821890	1476566919685	1476566919822	a	65
333643	3595765	Our advantages have been brought into fuller play.	Our advantages have been brought into fuller play.	170821899	1476566919824	1476566919893	d	68
333643	3595765	Our advantages have been brought into fuller play.	Our advantages have been brought into fuller play.	170821901	1476566919997	1476566920064	v	86
333643	3595765	Our advantages have been brought into fuller play.	Our advantages have been brought into fuller play.	170821903	1476566920117	1476566920241	a	65
333643	3595765	Our advantages have been brought into fuller play.	Our advantages have been brought into fuller play.	170821906	1476566920225	1476566920318	n	78
333643	3595765	Our advantages have been brought into fuller play.	Our advantages have been brought into fuller play.	170821921	1476566920313	1476566920388	t	84
333643	3595765	Our advantages have been brought into fuller play.	Our advantages have been brought into fuller play.	170821922	1476566920389	1476566920497	a	65
333643	3595765	Our advantages have been brought into fuller play.	Our advantages have been brought into fuller play.	170821923	1476566920565	1476566920652	g	71
333643	3595765	Our advantages have been brought into fuller play.	Our advantages have been brought into fuller play.	170821924	1476566920689	1476566920797	e	69
333643	3595765	Our advantages have been brought into fuller play.	Our advantages have been brought into fuller play.	170821925	1476566920858	1476566920973	s	83
333643	3595765	Our advantages have been brought into fuller play.	Our advantages have been brought into fuller play.	170821926	1476566920993	1476566921056	 	32
333643	3595765	Our advantages have been brought into fuller play.	Our advantages have been brought into fuller play.	170821935	1476566921245	1476566921329	h	72
333643	3595765	Our advantages have been brought into fuller play.	Our advantages have been brought into fuller play.	170821938	1476566921333	1476566921420	a	65
333643	3595765	Our advantages have been brought into fuller play.	Our advantages have been brought into fuller play.	170821940	1476566921452	1476566921553	v	86
333643	3595765	Our advantages have been brought into fuller play.	Our advantages have been brought into fuller play.	170821941	1476566921525	1476566921656	e	69
333643	3595765	Our advantages have been brought into fuller play.	Our advantages have been brought into fuller play.	170821947	1476566921617	1476566921684	 	32
333643	3595765	Our advantages have been brought into fuller play.	Our advantages have been brought into fuller play.	170821948	1476566921765	1476566921849	b	66
333643	3595765	Our advantages have been brought into fuller play.	Our advantages have been brought into fuller play.	170821949	1476566921917	1476566921997	e	69
333643	3595765	Our advantages have been brought into fuller play.	Our advantages have been brought into fuller play.	170821950	1476566922060	1476566922161	e	69
333643	3595765	Our advantages have been brought into fuller play.	Our advantages have been brought into fuller play.	170821951	1476566922165	1476566922245	n	78
333643	3595765	Our advantages have been brought into fuller play.	Our advantages have been brought into fuller play.	170821952	1476566922265	1476566922345	 	32
333643	3595765	Our advantages have been brought into fuller play.	Our advantages have been brought into fuller play.	170821963	1476566922404	1476566922488	b	66
333643	3595765	Our advantages have been brought into fuller play.	Our advantages have been brought into fuller play.	170821964	1476566922597	1476566922697	r	82
333643	3595765	Our advantages have been brought into fuller play.	Our advantages have been brought into fuller play.	170821965	1476566922705	1476566922761	o	79
333643	3595765	Our advantages have been brought into fuller play.	Our advantages have been brought into fuller play.	170821967	1476566922849	1476566922924	u	85
333643	3595765	Our advantages have been brought into fuller play.	Our advantages have been brought into fuller play.	170821969	1476566922924	1476566923009	g	71
333643	3595765	Our advantages have been brought into fuller play.	Our advantages have been brought into fuller play.	170821974	1476566923032	1476566923105	h	72
333643	3595765	Our advantages have been brought into fuller play.	Our advantages have been brought into fuller play.	170821975	1476566923157	1476566923213	t	84
333643	3595765	Our advantages have been brought into fuller play.	Our advantages have been brought into fuller play.	170821976	1476566923197	1476566923244	 	32
333643	3595765	Our advantages have been brought into fuller play.	Our advantages have been brought into fuller play.	170821977	1476566923876	1476566923963	i	73
333643	3595765	Our advantages have been brought into fuller play.	Our advantages have been brought into fuller play.	170821984	1476566923943	1476566924036	n	78
333643	3595765	Our advantages have been brought into fuller play.	Our advantages have been brought into fuller play.	170821986	1476566924076	1476566924177	t	84
333643	3595765	Our advantages have been brought into fuller play.	Our advantages have been brought into fuller play.	170821987	1476566924161	1476566924237	o	79
333643	3595765	Our advantages have been brought into fuller play.	Our advantages have been brought into fuller play.	170821988	1476566924300	1476566924353	 	32
333643	3595765	Our advantages have been brought into fuller play.	Our advantages have been brought into fuller play.	170821990	1476566924498	1476566924597	f	70
333643	3595765	Our advantages have been brought into fuller play.	Our advantages have been brought into fuller play.	170821993	1476566924581	1476566924648	u	85
333643	3595765	Our advantages have been brought into fuller play.	Our advantages have been brought into fuller play.	170821994	1476566924765	1476566924817	l	76
333643	3595765	Our advantages have been brought into fuller play.	Our advantages have been brought into fuller play.	170821995	1476566924892	1476566924981	l	76
333643	3595765	Our advantages have been brought into fuller play.	Our advantages have been brought into fuller play.	170821996	1476566924953	1476566925045	e	69
333643	3595765	Our advantages have been brought into fuller play.	Our advantages have been brought into fuller play.	170821997	1476566925005	1476566925114	r	82
333643	3595765	Our advantages have been brought into fuller play.	Our advantages have been brought into fuller play.	170821998	1476566925086	1476566925153	 	32
333643	3595765	Our advantages have been brought into fuller play.	Our advantages have been brought into fuller play.	170821999	1476566925180	1476566925329	p	80
333643	3595765	Our advantages have been brought into fuller play.	Our advantages have been brought into fuller play.	170822000	1476566925290	1476566925417	l	76
333643	3595765	Our advantages have been brought into fuller play.	Our advantages have been brought into fuller play.	170822001	1476566925401	1476566925510	a	65
333643	3595765	Our advantages have been brought into fuller play.	Our advantages have been brought into fuller play.	170822002	1476566925498	1476566925573	y	89
333643	3595765	Our advantages have been brought into fuller play.	Our advantages have been brought into fuller play.	170822003	1476566925573	1476566925649	.	190
333643	3595771	He doesn't want to give the trading positions.	He doesn't want to give the trading positions	170822022	1476566927866	1476566928021	SHIFT	16
333643	3595771	He doesn't want to give the trading positions.	He doesn't want to give the trading positions	170822021	1476566927921	1476566927985	H	72
333643	3595771	He doesn't want to give the trading positions.	He doesn't want to give the trading positions	170822023	1476566928061	1476566928172	e	69
333643	3595771	He doesn't want to give the trading positions.	He doesn't want to give the trading positions	170822024	1476566928152	1476566928245	 	32
333643	3595771	He doesn't want to give the trading positions.	He doesn't want to give the trading positions	170822025	1476566928289	1476566928392	d	68
333643	3595771	He doesn't want to give the trading positions.	He doesn't want to give the trading positions	170822032	1476566928365	1476566928424	o	79
333643	3595771	He doesn't want to give the trading positions.	He doesn't want to give the trading positions	170822033	1476566928481	1476566928577	e	69
333643	3595771	He doesn't want to give the trading positions.	He doesn't want to give the trading positions	170822034	1476566928613	1476566928721	s	83
333643	3595771	He doesn't want to give the trading positions.	He doesn't want to give the trading positions	170822035	1476566928722	1476566928805	n	78
333643	3595771	He doesn't want to give the trading positions.	He doesn't want to give the trading positions	170822039	1476566929030	1476566929112	t	84
333643	3595771	He doesn't want to give the trading positions.	He doesn't want to give the trading positions	170822044	1476566929068	1476566929148	 	32
333643	3595771	He doesn't want to give the trading positions.	He doesn't want to give the trading positions	170822046	1476566929220	1476566929337	w	87
333643	3595771	He doesn't want to give the trading positions.	He doesn't want to give the trading positions	170822048	1476566929317	1476566929420	a	65
333643	3595771	He doesn't want to give the trading positions.	He doesn't want to give the trading positions	170822050	1476566929381	1476566929472	n	78
333643	3595771	He doesn't want to give the trading positions.	He doesn't want to give the trading positions	170822052	1476566929472	1476566929593	t	84
333643	3595771	He doesn't want to give the trading positions.	He doesn't want to give the trading positions	170822065	1476566929557	1476566929625	 	32
333643	3595771	He doesn't want to give the trading positions.	He doesn't want to give the trading positions	170822067	1476566929701	1476566929805	t	84
333643	3595771	He doesn't want to give the trading positions.	He doesn't want to give the trading positions	170822066	1476566929740	1476566929797	o	79
333643	3595771	He doesn't want to give the trading positions.	He doesn't want to give the trading positions	170822068	1476566929953	1476566930012	 	32
333643	3595771	He doesn't want to give the trading positions.	He doesn't want to give the trading positions	170822069	1476566930373	1476566930460	g	71
333643	3595771	He doesn't want to give the trading positions.	He doesn't want to give the trading positions	170822070	1476566930493	1476566930561	i	73
333643	3595771	He doesn't want to give the trading positions.	He doesn't want to give the trading positions	170822072	1476566930626	1476566930696	v	67
333643	3595771	He doesn't want to give the trading positions.	He doesn't want to give the trading positions	170822074	1476566930681	1476566930821	e	69
333643	3595771	He doesn't want to give the trading positions.	He doesn't want to give the trading positions	170822076	1476566930816	1476566930881	 	32
333643	3595771	He doesn't want to give the trading positions.	He doesn't want to give the trading positions	170822078	1476566930921	1476566930984	t	84
333643	3595771	He doesn't want to give the trading positions.	He doesn't want to give the trading positions	170822116	1476566931145	1476566931196	BKSP	8
333643	3595771	He doesn't want to give the trading positions.	He doesn't want to give the trading positions	170822117	1476566931285	1476566931340	BKSP	8
333643	3595771	He doesn't want to give the trading positions.	He doesn't want to give the trading positions	170822118	1476566931429	1476566931480	BKSP	8
333643	3595771	He doesn't want to give the trading positions.	He doesn't want to give the trading positions	170822119	1476566931560	1476566931604	BKSP	8
333643	3595771	He doesn't want to give the trading positions.	He doesn't want to give the trading positions	170822120	1476566931761	1476566931832	v	86
333643	3595771	He doesn't want to give the trading positions.	He doesn't want to give the trading positions	170822121	1476566931809	1476566931884	e	69
333643	3595771	He doesn't want to give the trading positions.	He doesn't want to give the trading positions	170822122	1476566932088	1476566932135	BKSP	8
333643	3595771	He doesn't want to give the trading positions.	He doesn't want to give the trading positions	170822123	1476566932215	1476566932267	BKSP	8
333643	3595771	He doesn't want to give the trading positions.	He doesn't want to give the trading positions	170822124	1476566932344	1476566932396	BKSP	8
333643	3595771	He doesn't want to give the trading positions.	He doesn't want to give the trading positions	170822125	1476566932424	1476566932508	v	86
333643	3595771	He doesn't want to give the trading positions.	He doesn't want to give the trading positions	170822126	1476566932488	1476566932599	e	69
333643	3595771	He doesn't want to give the trading positions.	He doesn't want to give the trading positions	170822132	1476566932569	1476566932637	 	32
333643	3595771	He doesn't want to give the trading positions.	He doesn't want to give the trading positions	170822133	1476566932661	1476566932769	t	84
333643	3595771	He doesn't want to give the trading positions.	He doesn't want to give the trading positions	170822134	1476566932750	1476566932822	h	72
333643	3595771	He doesn't want to give the trading positions.	He doesn't want to give the trading positions	170822135	1476566932823	1476566932937	e	69
333643	3595771	He doesn't want to give the trading positions.	He doesn't want to give the trading positions	170822136	1476566932894	1476566932964	 	32
333643	3595771	He doesn't want to give the trading positions.	He doesn't want to give the trading positions	170822137	1476566933058	1476566933137	t	84
333643	3595771	He doesn't want to give the trading positions.	He doesn't want to give the trading positions	170822144	1476566933234	1476566933324	r	82
333643	3595771	He doesn't want to give the trading positions.	He doesn't want to give the trading positions	170822145	1476566933305	1476566933432	a	65
333643	3595771	He doesn't want to give the trading positions.	He doesn't want to give the trading positions	170822146	1476566933424	1476566933521	d	68
333643	3595771	He doesn't want to give the trading positions.	He doesn't want to give the trading positions	170822148	1476566933545	1476566933629	i	73
333643	3595771	He doesn't want to give the trading positions.	He doesn't want to give the trading positions	170822163	1476566933605	1476566933717	n	78
333643	3595771	He doesn't want to give the trading positions.	He doesn't want to give the trading positions	170822164	1476566933697	1476566933769	g	71
333643	3595771	He doesn't want to give the trading positions.	He doesn't want to give the trading positions	170822165	1476566933746	1476566933830	 	32
333643	3595771	He doesn't want to give the trading positions.	He doesn't want to give the trading positions	170822166	1476566933984	1476566934023	p	80
333643	3595771	He doesn't want to give the trading positions.	He doesn't want to give the trading positions	170822167	1476566934117	1476566934201	o	79
333643	3595771	He doesn't want to give the trading positions.	He doesn't want to give the trading positions	170822168	1476566934245	1476566934340	s	83
333643	3595771	He doesn't want to give the trading positions.	He doesn't want to give the trading positions	170822180	1476566934360	1476566934441	i	73
333643	3595771	He doesn't want to give the trading positions.	He doesn't want to give the trading positions	170822181	1476566934689	1476566934781	i	73
333643	3595771	He doesn't want to give the trading positions.	He doesn't want to give the trading positions	170822182	1476566935033	1476566935116	BKSP	8
333643	3595771	He doesn't want to give the trading positions.	He doesn't want to give the trading positions	170822183	1476566935440	1476566935529	t	84
333643	3595771	He doesn't want to give the trading positions.	He doesn't want to give the trading positions	170822184	1476566935537	1476566935581	i	73
333643	3595771	He doesn't want to give the trading positions.	He doesn't want to give the trading positions	170822185	1476566935653	1476566935833	o	79
333643	3595771	He doesn't want to give the trading positions.	He doesn't want to give the trading positions	170822186	1476566935861	1476566935969	n	78
333643	3595771	He doesn't want to give the trading positions.	He doesn't want to give the trading positions	170822187	1476566936001	1476566936077	s	83
333643	3595773	I wouldn't worry about coming in today.	I wouldn't worry about coming in today.	170822203	1476566937449	1476566937589	SHIFT	16
333643	3595773	I wouldn't worry about coming in today.	I wouldn't worry about coming in today.	170822204	1476566937573	1476566937633	I	73
333643	3595773	I wouldn't worry about coming in today.	I wouldn't worry about coming in today.	170822205	1476566937637	1476566937701	 	32
333643	3595773	I wouldn't worry about coming in today.	I wouldn't worry about coming in today.	170822206	1476566938094	1476566938180	w	87
333643	3595773	I wouldn't worry about coming in today.	I wouldn't worry about coming in today.	170822207	1476566938156	1476566938220	o	79
333643	3595773	I wouldn't worry about coming in today.	I wouldn't worry about coming in today.	170822208	1476566938304	1476566938377	u	85
333643	3595773	I wouldn't worry about coming in today.	I wouldn't worry about coming in today.	170822231	1476566938481	1476566938564	l	76
333643	3595773	I wouldn't worry about coming in today.	I wouldn't worry about coming in today.	170822232	1476566938701	1476566938756	n	78
333643	3595773	I wouldn't worry about coming in today.	I wouldn't worry about coming in today.	170822233	1476566939065	1476566939128	BKSP	8
333643	3595773	I wouldn't worry about coming in today.	I wouldn't worry about coming in today.	170822234	1476566939177	1476566939289	d	68
333643	3595773	I wouldn't worry about coming in today.	I wouldn't worry about coming in today.	170822235	1476566939257	1476566939336	n	78
333643	3595773	I wouldn't worry about coming in today.	I wouldn't worry about coming in today.	170822236	1476566939440	1476566939527	'	191
333643	3595773	I wouldn't worry about coming in today.	I wouldn't worry about coming in today.	170822243	1476566939571	1476566939665	t	84
333643	3595773	I wouldn't worry about coming in today.	I wouldn't worry about coming in today.	170822245	1476566939666	1476566939724	 	32
333643	3595773	I wouldn't worry about coming in today.	I wouldn't worry about coming in today.	170822247	1476566939900	1476566939984	w	87
333643	3595773	I wouldn't worry about coming in today.	I wouldn't worry about coming in today.	170822249	1476566939992	1476566940048	o	79
333643	3595773	I wouldn't worry about coming in today.	I wouldn't worry about coming in today.	170822252	1476566940092	1476566940171	r	82
333643	3595773	I wouldn't worry about coming in today.	I wouldn't worry about coming in today.	170822269	1476566940240	1476566940300	r	82
333643	3595773	I wouldn't worry about coming in today.	I wouldn't worry about coming in today.	170822271	1476566940408	1476566940495	y	89
333643	3595773	I wouldn't worry about coming in today.	I wouldn't worry about coming in today.	170822274	1476566940488	1476566940544	 	32
333643	3595773	I wouldn't worry about coming in today.	I wouldn't worry about coming in today.	170822278	1476566940581	1476566940674	a	65
333643	3595773	I wouldn't worry about coming in today.	I wouldn't worry about coming in today.	170822281	1476566940741	1476566940840	b	66
333643	3595773	I wouldn't worry about coming in today.	I wouldn't worry about coming in today.	170822285	1476566940850	1476566940893	o	79
333643	3595773	I wouldn't worry about coming in today.	I wouldn't worry about coming in today.	170822287	1476566941002	1476566941081	u	85
333643	3595773	I wouldn't worry about coming in today.	I wouldn't worry about coming in today.	170822288	1476566941066	1476566941149	t	84
333643	3595773	I wouldn't worry about coming in today.	I wouldn't worry about coming in today.	170822289	1476566941125	1476566941197	 	32
333643	3595773	I wouldn't worry about coming in today.	I wouldn't worry about coming in today.	170822290	1476566941273	1476566941316	c	67
333643	3595773	I wouldn't worry about coming in today.	I wouldn't worry about coming in today.	170822300	1476566941396	1476566941482	i	73
333643	3595773	I wouldn't worry about coming in today.	I wouldn't worry about coming in today.	170822301	1476566941682	1476566941709	n	78
333643	3595773	I wouldn't worry about coming in today.	I wouldn't worry about coming in today.	170822302	1476566941885	1476566941945	BKSP	8
333643	3595773	I wouldn't worry about coming in today.	I wouldn't worry about coming in today.	170822303	1476566942017	1476566942089	BKSP	8
333643	3595773	I wouldn't worry about coming in today.	I wouldn't worry about coming in today.	170822304	1476566942209	1476566942320	o	79
333643	3595773	I wouldn't worry about coming in today.	I wouldn't worry about coming in today.	170822305	1476566942313	1476566942388	m	77
333643	3595773	I wouldn't worry about coming in today.	I wouldn't worry about coming in today.	170822306	1476566942453	1476566942561	i	73
333643	3595773	I wouldn't worry about coming in today.	I wouldn't worry about coming in today.	170822307	1476566942537	1476566942618	n	78
333643	3595773	I wouldn't worry about coming in today.	I wouldn't worry about coming in today.	170822308	1476566942629	1476566942722	g	71
333643	3595773	I wouldn't worry about coming in today.	I wouldn't worry about coming in today.	170822309	1476566942701	1476566942777	 	32
333643	3595773	I wouldn't worry about coming in today.	I wouldn't worry about coming in today.	170822310	1476566942813	1476566942909	i	73
333643	3595773	I wouldn't worry about coming in today.	I wouldn't worry about coming in today.	170822311	1476566942886	1476566942977	n	78
333643	3595773	I wouldn't worry about coming in today.	I wouldn't worry about coming in today.	170822317	1476566942961	1476566943020	 	32
333643	3595773	I wouldn't worry about coming in today.	I wouldn't worry about coming in today.	170822318	1476566943065	1476566943169	t	84
333643	3595773	I wouldn't worry about coming in today.	I wouldn't worry about coming in today.	170822319	1476566943181	1476566943253	o	79
333643	3595773	I wouldn't worry about coming in today.	I wouldn't worry about coming in today.	170822320	1476566943301	1476566943421	d	68
333643	3595773	I wouldn't worry about coming in today.	I wouldn't worry about coming in today.	170822321	1476566943485	1476566943565	a	65
333643	3595773	I wouldn't worry about coming in today.	I wouldn't worry about coming in today.	170822322	1476566943609	1476566943697	y	89
333643	3595773	I wouldn't worry about coming in today.	I wouldn't worry about coming in today.	170822323	1476566943745	1476566943781	.	190
333643	3595777	Megan, try this for Phillips.	Megan, try this for Phillips.	170822342	1476566945133	1476566945312	SHIFT	16
333643	3595777	Megan, try this for Phillips.	Megan, try this for Phillips.	170822340	1476566945221	1476566945308	M	77
333643	3595777	Megan, try this for Phillips.	Megan, try this for Phillips.	170822343	1476566945308	1476566945393	E	69
333643	3595777	Megan, try this for Phillips.	Megan, try this for Phillips.	170822345	1476566945420	1476566945497	g	71
333643	3595777	Megan, try this for Phillips.	Megan, try this for Phillips.	170822346	1476566945533	1476566945593	a	65
333643	3595777	Megan, try this for Phillips.	Megan, try this for Phillips.	170822347	1476566946182	1476566946228	BKSP	8
333643	3595777	Megan, try this for Phillips.	Megan, try this for Phillips.	170822349	1476566946309	1476566946356	BKSP	8
333643	3595777	Megan, try this for Phillips.	Megan, try this for Phillips.	170822353	1476566946444	1476566946492	BKSP	8
333643	3595777	Megan, try this for Phillips.	Megan, try this for Phillips.	170822357	1476566946564	1476566946644	e	69
333643	3595777	Megan, try this for Phillips.	Megan, try this for Phillips.	170822363	1476566946672	1476566946760	g	71
333643	3595777	Megan, try this for Phillips.	Megan, try this for Phillips.	170822365	1476566946796	1476566946913	a	65
333643	3595777	Megan, try this for Phillips.	Megan, try this for Phillips.	170822367	1476566946914	1476566946980	n	78
333643	3595777	Megan, try this for Phillips.	Megan, try this for Phillips.	170822369	1476566947121	1476566947188	,	188
333643	3595777	Megan, try this for Phillips.	Megan, try this for Phillips.	170822370	1476566947269	1476566947332	 	32
333643	3595777	Megan, try this for Phillips.	Megan, try this for Phillips.	170822382	1476566947408	1476566947484	t	84
333643	3595777	Megan, try this for Phillips.	Megan, try this for Phillips.	170822384	1476566947592	1476566947656	r	82
333643	3595777	Megan, try this for Phillips.	Megan, try this for Phillips.	170822386	1476566947760	1476566947849	y	89
333643	3595777	Megan, try this for Phillips.	Megan, try this for Phillips.	170822388	1476566947876	1476566947948	 	32
333643	3595777	Megan, try this for Phillips.	Megan, try this for Phillips.	170822390	1476566948005	1476566948108	t	84
333643	3595777	Megan, try this for Phillips.	Megan, try this for Phillips.	170822404	1476566948089	1476566948144	h	72
333643	3595777	Megan, try this for Phillips.	Megan, try this for Phillips.	170822407	1476566948228	1476566948306	i	73
333643	3595777	Megan, try this for Phillips.	Megan, try this for Phillips.	170822410	1476566948297	1476566948405	s	83
333643	3595777	Megan, try this for Phillips.	Megan, try this for Phillips.	170822412	1476566948413	1476566948460	 	32
333643	3595777	Megan, try this for Phillips.	Megan, try this for Phillips.	170822414	1476566948680	1476566948727	o	79
333643	3595777	Megan, try this for Phillips.	Megan, try this for Phillips.	170822415	1476566948892	1476566948947	BKSP	8
333643	3595777	Megan, try this for Phillips.	Megan, try this for Phillips.	170822416	1476566949023	1476566949112	f	70
333643	3595777	Megan, try this for Phillips.	Megan, try this for Phillips.	170822417	1476566949141	1476566949213	o	79
333643	3595777	Megan, try this for Phillips.	Megan, try this for Phillips.	170822418	1476566949225	1476566949330	r	82
333643	3595777	Megan, try this for Phillips.	Megan, try this for Phillips.	170822419	1476566949318	1476566949364	 	32
333643	3595777	Megan, try this for Phillips.	Megan, try this for Phillips.	170822420	1476566949373	1476566949513	SHIFT	16
333643	3595777	Megan, try this for Phillips.	Megan, try this for Phillips.	170822421	1476566949481	1476566949557	P	80
333643	3595777	Megan, try this for Phillips.	Megan, try this for Phillips.	170822422	1476566949609	1476566949673	h	72
333643	3595777	Megan, try this for Phillips.	Megan, try this for Phillips.	170822429	1476566949776	1476566949860	i	73
333643	3595777	Megan, try this for Phillips.	Megan, try this for Phillips.	170822431	1476566949944	1476566949992	s	83
333643	3595777	Megan, try this for Phillips.	Megan, try this for Phillips.	170822433	1476566950037	1476566950088	l	76
333643	3595777	Megan, try this for Phillips.	Megan, try this for Phillips.	170822435	1476566950245	1476566950293	BKSP	8
333643	3595777	Megan, try this for Phillips.	Megan, try this for Phillips.	170822437	1476566950373	1476566950413	BKSP	8
333643	3595777	Megan, try this for Phillips.	Megan, try this for Phillips.	170822438	1476566950545	1476566950588	l	76
333643	3595777	Megan, try this for Phillips.	Megan, try this for Phillips.	170822439	1476566950825	1476566950901	l	76
333643	3595777	Megan, try this for Phillips.	Megan, try this for Phillips.	170822440	1476566950989	1476566951053	i	73
333643	3595777	Megan, try this for Phillips.	Megan, try this for Phillips.	170822441	1476566951141	1476566951213	p	80
333643	3595777	Megan, try this for Phillips.	Megan, try this for Phillips.	170822442	1476566951257	1476566951344	s	83
333643	3595777	Megan, try this for Phillips.	Megan, try this for Phillips.	170822443	1476566951469	1476566951544	.	190
333643	3595779	What happened to the guy with the paper to sign?	What happened to the guy with the paper to sign'0	170822479	1476566953840	1476566953992	SHIFT	16
333643	3595779	What happened to the guy with the paper to sign?	What happened to the guy with the paper to sign'0	170822480	1476566953945	1476566954064	W	87
333643	3595779	What happened to the guy with the paper to sign?	What happened to the guy with the paper to sign'0	170822482	1476566954125	1476566954229	h	72
333643	3595779	What happened to the guy with the paper to sign?	What happened to the guy with the paper to sign'0	170822484	1476566954221	1476566954319	a	65
333643	3595779	What happened to the guy with the paper to sign?	What happened to the guy with the paper to sign'0	170822486	1476566954295	1476566954403	t	84
333643	3595779	What happened to the guy with the paper to sign?	What happened to the guy with the paper to sign'0	170822496	1476566954372	1476566954451	 	32
333643	3595779	What happened to the guy with the paper to sign?	What happened to the guy with the paper to sign'0	170822498	1476566954628	1476566954704	h	72
333643	3595779	What happened to the guy with the paper to sign?	What happened to the guy with the paper to sign'0	170822499	1476566954721	1476566954821	a	65
333643	3595779	What happened to the guy with the paper to sign?	What happened to the guy with the paper to sign'0	170822500	1476566954821	1476566954884	p	80
333643	3595779	What happened to the guy with the paper to sign?	What happened to the guy with the paper to sign'0	170822501	1476566954955	1476566955003	p	80
333643	3595779	What happened to the guy with the paper to sign?	What happened to the guy with the paper to sign'0	170822502	1476566955031	1476566955135	e	69
333643	3595779	What happened to the guy with the paper to sign?	What happened to the guy with the paper to sign'0	170822512	1476566955127	1476566955216	n	78
333643	3595779	What happened to the guy with the paper to sign?	What happened to the guy with the paper to sign'0	170822513	1476566955280	1476566955451	e	69
333643	3595779	What happened to the guy with the paper to sign?	What happened to the guy with the paper to sign'0	170822514	1476566955380	1476566955519	d	68
333643	3595779	What happened to the guy with the paper to sign?	What happened to the guy with the paper to sign'0	170822515	1476566955487	1476566955564	 	32
333643	3595779	What happened to the guy with the paper to sign?	What happened to the guy with the paper to sign'0	170822516	1476566955620	1476566955725	t	84
333643	3595779	What happened to the guy with the paper to sign?	What happened to the guy with the paper to sign'0	170822517	1476566955717	1476566955769	o	79
333643	3595779	What happened to the guy with the paper to sign?	What happened to the guy with the paper to sign'0	170822519	1476566955765	1476566955844	 	32
333643	3595779	What happened to the guy with the paper to sign?	What happened to the guy with the paper to sign'0	170822521	1476566955912	1476566956000	t	84
333643	3595779	What happened to the guy with the paper to sign?	What happened to the guy with the paper to sign'0	170822523	1476566956012	1476566956086	h	72
333643	3595779	What happened to the guy with the paper to sign?	What happened to the guy with the paper to sign'0	170822526	1476566956077	1476566956196	e	69
333643	3595779	What happened to the guy with the paper to sign?	What happened to the guy with the paper to sign'0	170822545	1476566956153	1476566956232	 	32
333643	3595779	What happened to the guy with the paper to sign?	What happened to the guy with the paper to sign'0	170822547	1476566956276	1476566956373	g	71
333643	3595779	What happened to the guy with the paper to sign?	What happened to the guy with the paper to sign'0	170822549	1476566956400	1476566956480	u	85
333643	3595779	What happened to the guy with the paper to sign?	What happened to the guy with the paper to sign'0	170822551	1476566956565	1476566956643	y	89
333643	3595779	What happened to the guy with the paper to sign?	What happened to the guy with the paper to sign'0	170822552	1476566956700	1476566956783	 	32
333643	3595779	What happened to the guy with the paper to sign?	What happened to the guy with the paper to sign'0	170822553	1476566956953	1476566957080	w	87
333643	3595779	What happened to the guy with the paper to sign?	What happened to the guy with the paper to sign'0	170822559	1476566957068	1476566957120	i	73
333643	3595779	What happened to the guy with the paper to sign?	What happened to the guy with the paper to sign'0	170822560	1476566957184	1476566957280	t	84
333643	3595779	What happened to the guy with the paper to sign?	What happened to the guy with the paper to sign'0	170822561	1476566957321	1476566957381	h	72
333643	3595779	What happened to the guy with the paper to sign?	What happened to the guy with the paper to sign'0	170822562	1476566957501	1476566957601	 	32
333643	3595779	What happened to the guy with the paper to sign?	What happened to the guy with the paper to sign'0	170822563	1476566957689	1476566957786	t	84
333643	3595779	What happened to the guy with the paper to sign?	What happened to the guy with the paper to sign'0	170822564	1476566957787	1476566957852	h	72
333643	3595779	What happened to the guy with the paper to sign?	What happened to the guy with the paper to sign'0	170822576	1476566957864	1476566957978	e	69
333643	3595779	What happened to the guy with the paper to sign?	What happened to the guy with the paper to sign'0	170822577	1476566957941	1476566958021	 	32
333643	3595779	What happened to the guy with the paper to sign?	What happened to the guy with the paper to sign'0	170822578	1476566958502	1476566958573	p	80
333643	3595779	What happened to the guy with the paper to sign?	What happened to the guy with the paper to sign'0	170822579	1476566958636	1476566958745	a	65
333643	3595779	What happened to the guy with the paper to sign?	What happened to the guy with the paper to sign'0	170822581	1476566958753	1476566958837	t	84
333643	3595779	What happened to the guy with the paper to sign?	What happened to the guy with the paper to sign'0	170822586	1476566959069	1476566959137	BKSP	8
333643	3595779	What happened to the guy with the paper to sign?	What happened to the guy with the paper to sign'0	170822587	1476566959249	1476566959321	p	80
333643	3595779	What happened to the guy with the paper to sign?	What happened to the guy with the paper to sign'0	170822588	1476566959344	1476566959446	e	69
333643	3595779	What happened to the guy with the paper to sign?	What happened to the guy with the paper to sign'0	170822589	1476566959401	1476566959508	r	82
333643	3595779	What happened to the guy with the paper to sign?	What happened to the guy with the paper to sign'0	170822591	1476566959524	1476566959605	 	32
333643	3595779	What happened to the guy with the paper to sign?	What happened to the guy with the paper to sign'0	170822593	1476566959677	1476566959769	t	84
333643	3595779	What happened to the guy with the paper to sign?	What happened to the guy with the paper to sign'0	170822619	1476566959761	1476566959821	o	79
333643	3595779	What happened to the guy with the paper to sign?	What happened to the guy with the paper to sign'0	170822620	1476566959917	1476566960013	s	83
333643	3595779	What happened to the guy with the paper to sign?	What happened to the guy with the paper to sign'0	170822621	1476566960216	1476566960280	BKSP	8
333643	3595779	What happened to the guy with the paper to sign?	What happened to the guy with the paper to sign'0	170822622	1476566960316	1476566960404	 	32
333643	3595779	What happened to the guy with the paper to sign?	What happened to the guy with the paper to sign'0	170822623	1476566960397	1476566960489	s	83
333643	3595779	What happened to the guy with the paper to sign?	What happened to the guy with the paper to sign'0	170822624	1476566960509	1476566960592	i	73
333643	3595779	What happened to the guy with the paper to sign?	What happened to the guy with the paper to sign'0	170822625	1476566960628	1476566960709	g	71
333643	3595779	What happened to the guy with the paper to sign?	What happened to the guy with the paper to sign'0	170822636	1476566960725	1476566960805	n	78
333643	3595779	What happened to the guy with the paper to sign?	What happened to the guy with the paper to sign'0	170822638	1476566960929	1476566961152	'	191
333643	3595779	What happened to the guy with the paper to sign?	What happened to the guy with the paper to sign'0	170822637	1476566961037	1476566961145	0	48
333643	3595781	Surely we can cover this from within Virgo's team?	surely we an cover this from within Virgo's team?	170822669	1476566962868	1476566963013	SHIFT	16
333643	3595781	Surely we can cover this from within Virgo's team?	surely we an cover this from within Virgo's team?	170822671	1476566963014	1476566963076	s	83
333643	3595781	Surely we can cover this from within Virgo's team?	surely we an cover this from within Virgo's team?	170822673	1476566963144	1476566963228	u	85
333643	3595781	Surely we can cover this from within Virgo's team?	surely we an cover this from within Virgo's team?	170822675	1476566963248	1476566963360	r	82
333643	3595781	Surely we can cover this from within Virgo's team?	surely we an cover this from within Virgo's team?	170822677	1476566963320	1476566963424	e	69
333643	3595781	Surely we can cover this from within Virgo's team?	surely we an cover this from within Virgo's team?	170822679	1476566963536	1476566963608	l	76
333643	3595781	Surely we can cover this from within Virgo's team?	surely we an cover this from within Virgo's team?	170822691	1476566963733	1476566963780	e	69
333643	3595781	Surely we can cover this from within Virgo's team?	surely we an cover this from within Virgo's team?	170822693	1476566963989	1476566964047	BKSP	8
333643	3595781	Surely we can cover this from within Virgo's team?	surely we an cover this from within Virgo's team?	170822695	1476566964092	1476566964196	y	89
333643	3595781	Surely we can cover this from within Virgo's team?	surely we an cover this from within Virgo's team?	170822697	1476566964176	1476566964244	 	32
333643	3595781	Surely we can cover this from within Virgo's team?	surely we an cover this from within Virgo's team?	170822699	1476566964653	1476566964764	w	87
333643	3595781	Surely we can cover this from within Virgo's team?	surely we an cover this from within Virgo's team?	170822701	1476566964820	1476566964937	e	69
333643	3595781	Surely we can cover this from within Virgo's team?	surely we an cover this from within Virgo's team?	170822710	1476566964928	1476566965000	 	32
333643	3595781	Surely we can cover this from within Virgo's team?	surely we an cover this from within Virgo's team?	170822711	1476566965204	1476566965316	a	65
333643	3595781	Surely we can cover this from within Virgo's team?	surely we an cover this from within Virgo's team?	170822712	1476566965347	1476566965435	n	78
333643	3595781	Surely we can cover this from within Virgo's team?	surely we an cover this from within Virgo's team?	170822713	1476566965463	1476566965540	 	32
333643	3595781	Surely we can cover this from within Virgo's team?	surely we an cover this from within Virgo's team?	170822714	1476566965825	1476566965893	c	67
333643	3595781	Surely we can cover this from within Virgo's team?	surely we an cover this from within Virgo's team?	170822715	1476566965957	1476566966021	o	79
333643	3595781	Surely we can cover this from within Virgo's team?	surely we an cover this from within Virgo's team?	170822734	1476566966281	1476566966373	v	86
333643	3595781	Surely we can cover this from within Virgo's team?	surely we an cover this from within Virgo's team?	170822735	1476566966409	1476566966565	e	69
333643	3595781	Surely we can cover this from within Virgo's team?	surely we an cover this from within Virgo's team?	170822736	1476566966549	1476566966657	r	82
333643	3595781	Surely we can cover this from within Virgo's team?	surely we an cover this from within Virgo's team?	170822737	1476566966629	1476566966697	 	32
333643	3595781	Surely we can cover this from within Virgo's team?	surely we an cover this from within Virgo's team?	170822738	1476566966760	1476566966861	t	84
333643	3595781	Surely we can cover this from within Virgo's team?	surely we an cover this from within Virgo's team?	170822758	1476566966849	1476566966912	h	72
333643	3595781	Surely we can cover this from within Virgo's team?	surely we an cover this from within Virgo's team?	170822760	1476566966997	1476566967075	i	73
333643	3595781	Surely we can cover this from within Virgo's team?	surely we an cover this from within Virgo's team?	170822761	1476566967085	1476566967184	s	83
333643	3595781	Surely we can cover this from within Virgo's team?	surely we an cover this from within Virgo's team?	170822762	1476566967165	1476566967237	 	32
333643	3595781	Surely we can cover this from within Virgo's team?	surely we an cover this from within Virgo's team?	170822763	1476566967369	1476566967433	w	87
333643	3595781	Surely we can cover this from within Virgo's team?	surely we an cover this from within Virgo's team?	170822764	1476566967581	1476566967644	BKSP	8
333643	3595781	Surely we can cover this from within Virgo's team?	surely we an cover this from within Virgo's team?	170822765	1476566967664	1476566967757	f	70
333643	3595781	Surely we can cover this from within Virgo's team?	surely we an cover this from within Virgo's team?	170822776	1476566967849	1476566967929	r	82
333643	3595781	Surely we can cover this from within Virgo's team?	surely we an cover this from within Virgo's team?	170822777	1476566967897	1476566968013	o	79
333643	3595781	Surely we can cover this from within Virgo's team?	surely we an cover this from within Virgo's team?	170822778	1476566967989	1476566968110	m	77
333643	3595781	Surely we can cover this from within Virgo's team?	surely we an cover this from within Virgo's team?	170822779	1476566968101	1476566968169	 	32
333643	3595781	Surely we can cover this from within Virgo's team?	surely we an cover this from within Virgo's team?	170822780	1476566968265	1476566968352	t	84
333643	3595781	Surely we can cover this from within Virgo's team?	surely we an cover this from within Virgo's team?	170822798	1476566968544	1476566968617	BKSP	8
333643	3595781	Surely we can cover this from within Virgo's team?	surely we an cover this from within Virgo's team?	170822799	1476566968668	1476566968744	w	87
333643	3595781	Surely we can cover this from within Virgo's team?	surely we an cover this from within Virgo's team?	170822800	1476566968745	1476566968829	i	73
333643	3595781	Surely we can cover this from within Virgo's team?	surely we an cover this from within Virgo's team?	170822802	1476566968873	1476566968973	t	84
333643	3595781	Surely we can cover this from within Virgo's team?	surely we an cover this from within Virgo's team?	170822804	1476566968965	1476566969041	h	72
333643	3595781	Surely we can cover this from within Virgo's team?	surely we an cover this from within Virgo's team?	170822806	1476566969157	1476566969280	i	73
333643	3595781	Surely we can cover this from within Virgo's team?	surely we an cover this from within Virgo's team?	170822822	1476566969257	1476566969377	n	78
333643	3595781	Surely we can cover this from within Virgo's team?	surely we an cover this from within Virgo's team?	170822824	1476566969380	1476566969473	 	32
333643	3595781	Surely we can cover this from within Virgo's team?	surely we an cover this from within Virgo's team?	170822825	1476566969532	1476566969667	SHIFT	16
333643	3595781	Surely we can cover this from within Virgo's team?	surely we an cover this from within Virgo's team?	170822826	1476566969629	1476566969699	V	86
333643	3595781	Surely we can cover this from within Virgo's team?	surely we an cover this from within Virgo's team?	170822828	1476566969796	1476566969888	i	73
333643	3595781	Surely we can cover this from within Virgo's team?	surely we an cover this from within Virgo's team?	170822829	1476566969892	1476566969992	r	82
333643	3595781	Surely we can cover this from within Virgo's team?	surely we an cover this from within Virgo's team?	170822830	1476566970156	1476566970252	g	71
333643	3595781	Surely we can cover this from within Virgo's team?	surely we an cover this from within Virgo's team?	170822853	1476566970265	1476566970352	o	79
333643	3595781	Surely we can cover this from within Virgo's team?	surely we an cover this from within Virgo's team?	170822854	1476566970659	1476566970735	'	191
333643	3595781	Surely we can cover this from within Virgo's team?	surely we an cover this from within Virgo's team?	170822855	1476566970795	1476566970900	s	83
333643	3595781	Surely we can cover this from within Virgo's team?	surely we an cover this from within Virgo's team?	170822856	1476566970928	1476566971008	 	32
333643	3595781	Surely we can cover this from within Virgo's team?	surely we an cover this from within Virgo's team?	170822857	1476566971241	1476566971348	t	84
333643	3595781	Surely we can cover this from within Virgo's team?	surely we an cover this from within Virgo's team?	170822876	1476566971324	1476566971460	e	69
333643	3595781	Surely we can cover this from within Virgo's team?	surely we an cover this from within Virgo's team?	170822878	1476566971541	1476566971564	m	77
333643	3595781	Surely we can cover this from within Virgo's team?	surely we an cover this from within Virgo's team?	170822881	1476566971605	1476566971704	a	65
333643	3595781	Surely we can cover this from within Virgo's team?	surely we an cover this from within Virgo's team?	170822886	1476566972073	1476566972108	BKSP	8
333643	3595781	Surely we can cover this from within Virgo's team?	surely we an cover this from within Virgo's team?	170822888	1476566972185	1476566972260	BKSP	8
333643	3595781	Surely we can cover this from within Virgo's team?	surely we an cover this from within Virgo's team?	170822891	1476566972320	1476566972425	a	65
333643	3595781	Surely we can cover this from within Virgo's team?	surely we an cover this from within Virgo's team?	170822893	1476566972400	1476566972483	m	77
333643	3595781	Surely we can cover this from within Virgo's team?	surely we an cover this from within Virgo's team?	170822896	1476566972592	1476566972813	SHIFT	16
333643	3595781	Surely we can cover this from within Virgo's team?	surely we an cover this from within Virgo's team?	170822898	1476566972828	1476566972831	+	187
333643	3595781	Surely we can cover this from within Virgo's team?	surely we an cover this from within Virgo's team?	170822908	1476566973268	1476566973336	BKSP	8
333643	3595781	Surely we can cover this from within Virgo's team?	surely we an cover this from within Virgo's team?	170822910	1476566973464	1476566973780	SHIFT	16
333643	3595781	Surely we can cover this from within Virgo's team?	surely we an cover this from within Virgo's team?	170822912	1476566973708	1476566973800	?	187
333643	3595789	Jiang made the comments in a meeting with Malaysian Prime Minister.	Jiang made the comments in a meeting with Malaysian Prime Minister.	170822990	1476566975329	1476566975641	SHIFT	16
333643	3595789	Jiang made the comments in a meeting with Malaysian Prime Minister.	Jiang made the comments in a meeting with Malaysian Prime Minister.	170822992	1476566975601	1476566975649	J	74
333643	3595789	Jiang made the comments in a meeting with Malaysian Prime Minister.	Jiang made the comments in a meeting with Malaysian Prime Minister.	170822994	1476566975669	1476566975737	j	74
333643	3595789	Jiang made the comments in a meeting with Malaysian Prime Minister.	Jiang made the comments in a meeting with Malaysian Prime Minister.	170822995	1476566975840	1476566975981	i	73
333643	3595789	Jiang made the comments in a meeting with Malaysian Prime Minister.	Jiang made the comments in a meeting with Malaysian Prime Minister.	170822997	1476566976033	1476566976116	a	65
333643	3595789	Jiang made the comments in a meeting with Malaysian Prime Minister.	Jiang made the comments in a meeting with Malaysian Prime Minister.	170823000	1476566976285	1476566976341	BKSP	8
333643	3595789	Jiang made the comments in a meeting with Malaysian Prime Minister.	Jiang made the comments in a meeting with Malaysian Prime Minister.	170823002	1476566976417	1476566976480	BKSP	8
333643	3595789	Jiang made the comments in a meeting with Malaysian Prime Minister.	Jiang made the comments in a meeting with Malaysian Prime Minister.	170823004	1476566976573	1476566976664	a	65
333643	3595789	Jiang made the comments in a meeting with Malaysian Prime Minister.	Jiang made the comments in a meeting with Malaysian Prime Minister.	170823055	1476566976956	1476566977016	BKSP	8
333643	3595789	Jiang made the comments in a meeting with Malaysian Prime Minister.	Jiang made the comments in a meeting with Malaysian Prime Minister.	170823057	1476566977093	1476566977160	BKSP	8
333643	3595789	Jiang made the comments in a meeting with Malaysian Prime Minister.	Jiang made the comments in a meeting with Malaysian Prime Minister.	170823059	1476566977321	1476566977409	i	73
333643	3595789	Jiang made the comments in a meeting with Malaysian Prime Minister.	Jiang made the comments in a meeting with Malaysian Prime Minister.	170823060	1476566977496	1476566977620	a	65
333643	3595789	Jiang made the comments in a meeting with Malaysian Prime Minister.	Jiang made the comments in a meeting with Malaysian Prime Minister.	170823061	1476566977596	1476566977674	n	78
333643	3595789	Jiang made the comments in a meeting with Malaysian Prime Minister.	Jiang made the comments in a meeting with Malaysian Prime Minister.	170823063	1476566978036	1476566978128	 	32
333643	3595789	Jiang made the comments in a meeting with Malaysian Prime Minister.	Jiang made the comments in a meeting with Malaysian Prime Minister.	170823065	1476566978397	1476566978472	BKSP	8
333643	3595789	Jiang made the comments in a meeting with Malaysian Prime Minister.	Jiang made the comments in a meeting with Malaysian Prime Minister.	170823067	1476566978489	1476566978588	g	71
333643	3595789	Jiang made the comments in a meeting with Malaysian Prime Minister.	Jiang made the comments in a meeting with Malaysian Prime Minister.	170823074	1476566978577	1476566978660	 	32
333643	3595789	Jiang made the comments in a meeting with Malaysian Prime Minister.	Jiang made the comments in a meeting with Malaysian Prime Minister.	170823076	1476566978720	1476566978784	m	77
333643	3595789	Jiang made the comments in a meeting with Malaysian Prime Minister.	Jiang made the comments in a meeting with Malaysian Prime Minister.	170823079	1476566978792	1476566978864	a	65
333643	3595789	Jiang made the comments in a meeting with Malaysian Prime Minister.	Jiang made the comments in a meeting with Malaysian Prime Minister.	170823081	1476566979036	1476566979164	d	68
333643	3595789	Jiang made the comments in a meeting with Malaysian Prime Minister.	Jiang made the comments in a meeting with Malaysian Prime Minister.	170823094	1476566979124	1476566979272	e	69
333643	3595789	Jiang made the comments in a meeting with Malaysian Prime Minister.	Jiang made the comments in a meeting with Malaysian Prime Minister.	170823083	1476566979216	1476566979264	 	32
333643	3595789	Jiang made the comments in a meeting with Malaysian Prime Minister.	Jiang made the comments in a meeting with Malaysian Prime Minister.	170823096	1476566979301	1476566979400	t	84
333643	3595789	Jiang made the comments in a meeting with Malaysian Prime Minister.	Jiang made the comments in a meeting with Malaysian Prime Minister.	170823098	1476566979385	1476566979452	h	72
333643	3595789	Jiang made the comments in a meeting with Malaysian Prime Minister.	Jiang made the comments in a meeting with Malaysian Prime Minister.	170823099	1476566979468	1476566979567	e	69
333643	3595789	Jiang made the comments in a meeting with Malaysian Prime Minister.	Jiang made the comments in a meeting with Malaysian Prime Minister.	170823100	1476566979520	1476566979607	 	32
333643	3595789	Jiang made the comments in a meeting with Malaysian Prime Minister.	Jiang made the comments in a meeting with Malaysian Prime Minister.	170823101	1476566979680	1476566979773	c	67
333643	3595789	Jiang made the comments in a meeting with Malaysian Prime Minister.	Jiang made the comments in a meeting with Malaysian Prime Minister.	170823114	1476566979733	1476566979824	o	79
333643	3595789	Jiang made the comments in a meeting with Malaysian Prime Minister.	Jiang made the comments in a meeting with Malaysian Prime Minister.	170823115	1476566979840	1476566979916	m	77
333643	3595789	Jiang made the comments in a meeting with Malaysian Prime Minister.	Jiang made the comments in a meeting with Malaysian Prime Minister.	170823116	1476566979980	1476566980036	m	77
333643	3595789	Jiang made the comments in a meeting with Malaysian Prime Minister.	Jiang made the comments in a meeting with Malaysian Prime Minister.	170823117	1476566980188	1476566980284	e	69
333643	3595789	Jiang made the comments in a meeting with Malaysian Prime Minister.	Jiang made the comments in a meeting with Malaysian Prime Minister.	170823118	1476566980292	1476566980393	n	78
333643	3595789	Jiang made the comments in a meeting with Malaysian Prime Minister.	Jiang made the comments in a meeting with Malaysian Prime Minister.	170823124	1476566980385	1476566980471	t	84
333643	3595789	Jiang made the comments in a meeting with Malaysian Prime Minister.	Jiang made the comments in a meeting with Malaysian Prime Minister.	170823125	1476566980548	1476566980671	s	83
333643	3595789	Jiang made the comments in a meeting with Malaysian Prime Minister.	Jiang made the comments in a meeting with Malaysian Prime Minister.	170823126	1476566980664	1476566980724	 	32
333643	3595789	Jiang made the comments in a meeting with Malaysian Prime Minister.	Jiang made the comments in a meeting with Malaysian Prime Minister.	170823127	1476566980736	1476566980832	i	73
333643	3595789	Jiang made the comments in a meeting with Malaysian Prime Minister.	Jiang made the comments in a meeting with Malaysian Prime Minister.	170823128	1476566980796	1476566980907	n	78
333643	3595789	Jiang made the comments in a meeting with Malaysian Prime Minister.	Jiang made the comments in a meeting with Malaysian Prime Minister.	170823152	1476566980884	1476566980964	 	32
333643	3595789	Jiang made the comments in a meeting with Malaysian Prime Minister.	Jiang made the comments in a meeting with Malaysian Prime Minister.	170823154	1476566980983	1476566981099	a	65
333643	3595789	Jiang made the comments in a meeting with Malaysian Prime Minister.	Jiang made the comments in a meeting with Malaysian Prime Minister.	170823156	1476566981091	1476566981157	 	32
333643	3595789	Jiang made the comments in a meeting with Malaysian Prime Minister.	Jiang made the comments in a meeting with Malaysian Prime Minister.	170823158	1476566981180	1476566981252	m	77
333643	3595789	Jiang made the comments in a meeting with Malaysian Prime Minister.	Jiang made the comments in a meeting with Malaysian Prime Minister.	170823159	1476566981300	1476566981388	e	69
333643	3595789	Jiang made the comments in a meeting with Malaysian Prime Minister.	Jiang made the comments in a meeting with Malaysian Prime Minister.	170823160	1476566981480	1476566981596	e	69
333643	3595789	Jiang made the comments in a meeting with Malaysian Prime Minister.	Jiang made the comments in a meeting with Malaysian Prime Minister.	170823166	1476566981568	1476566981700	t	84
333643	3595789	Jiang made the comments in a meeting with Malaysian Prime Minister.	Jiang made the comments in a meeting with Malaysian Prime Minister.	170823167	1476566981716	1476566981820	i	73
333643	3595789	Jiang made the comments in a meeting with Malaysian Prime Minister.	Jiang made the comments in a meeting with Malaysian Prime Minister.	170823168	1476566981776	1476566981904	n	78
333643	3595789	Jiang made the comments in a meeting with Malaysian Prime Minister.	Jiang made the comments in a meeting with Malaysian Prime Minister.	170823169	1476566981880	1476566981976	g	71
333643	3595789	Jiang made the comments in a meeting with Malaysian Prime Minister.	Jiang made the comments in a meeting with Malaysian Prime Minister.	170823170	1476566981948	1476566982033	 	32
333643	3595789	Jiang made the comments in a meeting with Malaysian Prime Minister.	Jiang made the comments in a meeting with Malaysian Prime Minister.	170823171	1476566982077	1476566982189	w	87
333643	3595789	Jiang made the comments in a meeting with Malaysian Prime Minister.	Jiang made the comments in a meeting with Malaysian Prime Minister.	170823185	1476566982233	1476566982280	h	72
333643	3595789	Jiang made the comments in a meeting with Malaysian Prime Minister.	Jiang made the comments in a meeting with Malaysian Prime Minister.	170823187	1476566982449	1476566982525	BKSP	8
333643	3595789	Jiang made the comments in a meeting with Malaysian Prime Minister.	Jiang made the comments in a meeting with Malaysian Prime Minister.	170823190	1476566982669	1476566982769	i	73
333643	3595789	Jiang made the comments in a meeting with Malaysian Prime Minister.	Jiang made the comments in a meeting with Malaysian Prime Minister.	170823192	1476566982793	1476566982911	t	84
333643	3595789	Jiang made the comments in a meeting with Malaysian Prime Minister.	Jiang made the comments in a meeting with Malaysian Prime Minister.	170823193	1476566982893	1476566982956	h	72
333643	3595789	Jiang made the comments in a meeting with Malaysian Prime Minister.	Jiang made the comments in a meeting with Malaysian Prime Minister.	170823194	1476566982992	1476566983087	 	32
333643	3595789	Jiang made the comments in a meeting with Malaysian Prime Minister.	Jiang made the comments in a meeting with Malaysian Prime Minister.	170823214	1476566983119	1476566983247	SHIFT	16
333643	3595789	Jiang made the comments in a meeting with Malaysian Prime Minister.	Jiang made the comments in a meeting with Malaysian Prime Minister.	170823216	1476566983597	1476566983825	SHIFT	16
333643	3595789	Jiang made the comments in a meeting with Malaysian Prime Minister.	Jiang made the comments in a meeting with Malaysian Prime Minister.	170823215	1476566983761	1476566983821	;	77
333643	3595789	Jiang made the comments in a meeting with Malaysian Prime Minister.	Jiang made the comments in a meeting with Malaysian Prime Minister.	170823217	1476566983957	1476566984053	a	65
333643	3595789	Jiang made the comments in a meeting with Malaysian Prime Minister.	Jiang made the comments in a meeting with Malaysian Prime Minister.	170823218	1476566984309	1476566984337	BKSP	8
333643	3595789	Jiang made the comments in a meeting with Malaysian Prime Minister.	Jiang made the comments in a meeting with Malaysian Prime Minister.	170823219	1476566984429	1476566984497	BKSP	8
333643	3595789	Jiang made the comments in a meeting with Malaysian Prime Minister.	Jiang made the comments in a meeting with Malaysian Prime Minister.	170823220	1476566984693	1476566984816	a	65
333643	3595789	Jiang made the comments in a meeting with Malaysian Prime Minister.	Jiang made the comments in a meeting with Malaysian Prime Minister.	170823222	1476566984832	1476566984903	l	76
333643	3595789	Jiang made the comments in a meeting with Malaysian Prime Minister.	Jiang made the comments in a meeting with Malaysian Prime Minister.	170823235	1476566985008	1476566985095	a	65
333643	3595789	Jiang made the comments in a meeting with Malaysian Prime Minister.	Jiang made the comments in a meeting with Malaysian Prime Minister.	170823237	1476566985164	1476566985243	y	89
333643	3595789	Jiang made the comments in a meeting with Malaysian Prime Minister.	Jiang made the comments in a meeting with Malaysian Prime Minister.	170823239	1476566985641	1476566985736	s	83
333643	3595789	Jiang made the comments in a meeting with Malaysian Prime Minister.	Jiang made the comments in a meeting with Malaysian Prime Minister.	170823240	1476566985752	1476566985816	i	73
333643	3595789	Jiang made the comments in a meeting with Malaysian Prime Minister.	Jiang made the comments in a meeting with Malaysian Prime Minister.	170823241	1476566985876	1476566985948	a	65
333643	3595789	Jiang made the comments in a meeting with Malaysian Prime Minister.	Jiang made the comments in a meeting with Malaysian Prime Minister.	170823248	1476566985991	1476566986060	n	78
333643	3595789	Jiang made the comments in a meeting with Malaysian Prime Minister.	Jiang made the comments in a meeting with Malaysian Prime Minister.	170823251	1476566986119	1476566986187	 	32
333643	3595789	Jiang made the comments in a meeting with Malaysian Prime Minister.	Jiang made the comments in a meeting with Malaysian Prime Minister.	170823256	1476566986320	1476566986392	p	80
333643	3595789	Jiang made the comments in a meeting with Malaysian Prime Minister.	Jiang made the comments in a meeting with Malaysian Prime Minister.	170823260	1476566986547	1476566986608	BKSP	8
333643	3595789	Jiang made the comments in a meeting with Malaysian Prime Minister.	Jiang made the comments in a meeting with Malaysian Prime Minister.	170823263	1476566986756	1476566986936	SHIFT	16
333643	3595789	Jiang made the comments in a meeting with Malaysian Prime Minister.	Jiang made the comments in a meeting with Malaysian Prime Minister.	170823267	1476566986864	1476566986980	P	80
333643	3595789	Jiang made the comments in a meeting with Malaysian Prime Minister.	Jiang made the comments in a meeting with Malaysian Prime Minister.	170823270	1476566986981	1476566987087	r	82
333643	3595789	Jiang made the comments in a meeting with Malaysian Prime Minister.	Jiang made the comments in a meeting with Malaysian Prime Minister.	170823285	1476566987127	1476566987240	i	73
333643	3595789	Jiang made the comments in a meeting with Malaysian Prime Minister.	Jiang made the comments in a meeting with Malaysian Prime Minister.	170823287	1476566987220	1476566987326	m	77
333643	3595789	Jiang made the comments in a meeting with Malaysian Prime Minister.	Jiang made the comments in a meeting with Malaysian Prime Minister.	170823289	1476566987316	1476566987440	e	69
333643	3595789	Jiang made the comments in a meeting with Malaysian Prime Minister.	Jiang made the comments in a meeting with Malaysian Prime Minister.	170823291	1476566987389	1476566987504	 	32
333643	3595789	Jiang made the comments in a meeting with Malaysian Prime Minister.	Jiang made the comments in a meeting with Malaysian Prime Minister.	170823293	1476566987576	1476566987764	SHIFT	16
333643	3595789	Jiang made the comments in a meeting with Malaysian Prime Minister.	Jiang made the comments in a meeting with Malaysian Prime Minister.	170823295	1476566987980	1476566988223	SHIFT	16
333643	3595789	Jiang made the comments in a meeting with Malaysian Prime Minister.	Jiang made the comments in a meeting with Malaysian Prime Minister.	170823311	1476566988162	1476566988259	M	77
333643	3595789	Jiang made the comments in a meeting with Malaysian Prime Minister.	Jiang made the comments in a meeting with Malaysian Prime Minister.	170823313	1476566988364	1476566988492	i	73
333643	3595789	Jiang made the comments in a meeting with Malaysian Prime Minister.	Jiang made the comments in a meeting with Malaysian Prime Minister.	170823315	1476566988496	1476566988572	n	78
333643	3595789	Jiang made the comments in a meeting with Malaysian Prime Minister.	Jiang made the comments in a meeting with Malaysian Prime Minister.	170823316	1476566988641	1476566988744	i	73
333643	3595789	Jiang made the comments in a meeting with Malaysian Prime Minister.	Jiang made the comments in a meeting with Malaysian Prime Minister.	170823317	1476566988784	1476566988860	s	83
333643	3595789	Jiang made the comments in a meeting with Malaysian Prime Minister.	Jiang made the comments in a meeting with Malaysian Prime Minister.	170823318	1476566988893	1476566988984	t	84
333643	3595789	Jiang made the comments in a meeting with Malaysian Prime Minister.	Jiang made the comments in a meeting with Malaysian Prime Minister.	170823324	1476566988972	1476566989095	e	69
333643	3595789	Jiang made the comments in a meeting with Malaysian Prime Minister.	Jiang made the comments in a meeting with Malaysian Prime Minister.	170823325	1476566989059	1476566989164	r	82
333643	3595789	Jiang made the comments in a meeting with Malaysian Prime Minister.	Jiang made the comments in a meeting with Malaysian Prime Minister.	170823326	1476566989323	1476566989404	.	190
333643	3595796	And I can't turn my phone on.	And I can't turn my phone on.	170823381	1476566990793	1476566991013	SHIFT	16
333643	3595796	And I can't turn my phone on.	And I can't turn my phone on.	170823383	1476566990910	1476566991040	A	65
333643	3595796	And I can't turn my phone on.	And I can't turn my phone on.	170823384	1476566991456	1476566991541	n	78
333643	3595796	And I can't turn my phone on.	And I can't turn my phone on.	170823385	1476566991561	1476566991685	d	68
333643	3595796	And I can't turn my phone on.	And I can't turn my phone on.	170823386	1476566991653	1476566991744	 	32
333643	3595796	And I can't turn my phone on.	And I can't turn my phone on.	170823389	1476566991725	1476566991925	SHIFT	16
333643	3595796	And I can't turn my phone on.	And I can't turn my phone on.	170823387	1476566991840	1476566991924	I	73
333643	3595796	And I can't turn my phone on.	And I can't turn my phone on.	170823391	1476566991956	1476566992049	 	32
333643	3595796	And I can't turn my phone on.	And I can't turn my phone on.	170823394	1476566992112	1476566992168	'	191
333643	3595796	And I can't turn my phone on.	And I can't turn my phone on.	170823397	1476566992429	1476566992484	BKSP	8
333643	3595796	And I can't turn my phone on.	And I can't turn my phone on.	170823400	1476566992540	1476566992636	c	67
333643	3595796	And I can't turn my phone on.	And I can't turn my phone on.	170823403	1476566992621	1476566992727	a	65
333643	3595796	And I can't turn my phone on.	And I can't turn my phone on.	170823411	1476566992700	1476566992792	n	78
333643	3595796	And I can't turn my phone on.	And I can't turn my phone on.	170823412	1476566992904	1476566992984	'	191
333643	3595796	And I can't turn my phone on.	And I can't turn my phone on.	170823413	1476566993027	1476566993127	t	84
333643	3595796	And I can't turn my phone on.	And I can't turn my phone on.	170823414	1476566993111	1476566993208	 	32
333643	3595796	And I can't turn my phone on.	And I can't turn my phone on.	170823415	1476566993372	1476566993460	t	84
333643	3595796	And I can't turn my phone on.	And I can't turn my phone on.	170823417	1476566993504	1476566993584	u	85
333643	3595796	And I can't turn my phone on.	And I can't turn my phone on.	170823428	1476566993600	1476566993688	r	82
333643	3595796	And I can't turn my phone on.	And I can't turn my phone on.	170823429	1476566993712	1476566993800	n	78
333643	3595796	And I can't turn my phone on.	And I can't turn my phone on.	170823430	1476566993864	1476566993936	 	32
333643	3595796	And I can't turn my phone on.	And I can't turn my phone on.	170823432	1476566993992	1476566994101	m	77
333643	3595796	And I can't turn my phone on.	And I can't turn my phone on.	170823439	1476566994096	1476566994200	y	89
333643	3595796	And I can't turn my phone on.	And I can't turn my phone on.	170823440	1476566994184	1476566994260	 	32
333643	3595796	And I can't turn my phone on.	And I can't turn my phone on.	170823441	1476566994320	1476566994396	p	80
333643	3595796	And I can't turn my phone on.	And I can't turn my phone on.	170823442	1476566994515	1476566994612	h	72
333643	3595796	And I can't turn my phone on.	And I can't turn my phone on.	170823443	1476566994644	1476566994756	o	79
333643	3595796	And I can't turn my phone on.	And I can't turn my phone on.	170823454	1476566994740	1476566994848	n	78
333643	3595796	And I can't turn my phone on.	And I can't turn my phone on.	170823458	1476566994829	1476566994952	e	69
333643	3595796	And I can't turn my phone on.	And I can't turn my phone on.	170823461	1476566994928	1476566995020	 	32
333643	3595796	And I can't turn my phone on.	And I can't turn my phone on.	170823464	1476566995056	1476566995149	o	79
333643	3595796	And I can't turn my phone on.	And I can't turn my phone on.	170823467	1476566995132	1476566995203	n	78
333643	3595796	And I can't turn my phone on.	And I can't turn my phone on.	170823469	1476566995300	1476566995388	.	190
333643	3595799	I have other things to worry about!	I have other things to worry about!	170823524	1476566997376	1476566997708	SHIFT	16
333643	3595799	I have other things to worry about!	I have other things to worry about!	170823527	1476566997648	1476566997743	I	73
333643	3595799	I have other things to worry about!	I have other things to worry about!	170823529	1476566997736	1476566997840	 	32
333643	3595799	I have other things to worry about!	I have other things to worry about!	170823531	1476566997947	1476566998036	h	72
333643	3595799	I have other things to worry about!	I have other things to worry about!	170823533	1476566998040	1476566998152	a	65
333643	3595799	I have other things to worry about!	I have other things to worry about!	170823558	1476566998140	1476566998258	v	86
333643	3595799	I have other things to worry about!	I have other things to worry about!	170823560	1476566998231	1476566998387	e	69
333643	3595799	I have other things to worry about!	I have other things to worry about!	170823562	1476566998270	1476566998399	 	32
333643	3595799	I have other things to worry about!	I have other things to worry about!	170823564	1476566998435	1476566998511	o	79
333643	3595799	I have other things to worry about!	I have other things to worry about!	170823565	1476566998555	1476566998640	t	84
333643	3595799	I have other things to worry about!	I have other things to worry about!	170823566	1476566998673	1476566998752	h	72
333643	3595799	I have other things to worry about!	I have other things to worry about!	170823572	1476566998740	1476566998867	e	69
333643	3595799	I have other things to worry about!	I have other things to worry about!	170823573	1476566998808	1476566998915	r	82
333643	3595799	I have other things to worry about!	I have other things to worry about!	170823575	1476566998879	1476566998965	 	32
333643	3595799	I have other things to worry about!	I have other things to worry about!	170823577	1476566999027	1476566999120	t	84
333643	3595799	I have other things to worry about!	I have other things to worry about!	170823580	1476566999104	1476566999160	h	72
333643	3595799	I have other things to worry about!	I have other things to worry about!	170823583	1476566999256	1476566999361	i	73
333643	3595799	I have other things to worry about!	I have other things to worry about!	170823595	1476566999329	1476566999436	n	78
333643	3595799	I have other things to worry about!	I have other things to worry about!	170823598	1476566999378	1476566999452	g	71
333643	3595799	I have other things to worry about!	I have other things to worry about!	170823601	1476566999517	1476566999637	s	83
333643	3595799	I have other things to worry about!	I have other things to worry about!	170823602	1476566999621	1476566999676	 	32
333643	3595799	I have other things to worry about!	I have other things to worry about!	170823603	1476566999705	1476566999816	t	84
333643	3595799	I have other things to worry about!	I have other things to worry about!	170823604	1476566999820	1476566999888	o	79
333643	3595799	I have other things to worry about!	I have other things to worry about!	170823616	1476566999905	1476566999972	 	32
333643	3595799	I have other things to worry about!	I have other things to worry about!	170823618	1476567000045	1476567000172	w	87
333643	3595799	I have other things to worry about!	I have other things to worry about!	170823622	1476567000234	1476567000284	o	79
333643	3595799	I have other things to worry about!	I have other things to worry about!	170823626	1476567000429	1476567000520	r	82
333643	3595799	I have other things to worry about!	I have other things to worry about!	170823630	1476567000616	1476567000680	r	82
333643	3595799	I have other things to worry about!	I have other things to worry about!	170823643	1476567000828	1476567000924	y	89
333643	3595799	I have other things to worry about!	I have other things to worry about!	170823645	1476567000948	1476567001011	 	32
333643	3595799	I have other things to worry about!	I have other things to worry about!	170823646	1476567001164	1476567001247	a	65
333643	3595799	I have other things to worry about!	I have other things to worry about!	170823647	1476567001332	1476567001440	b	66
333643	3595799	I have other things to worry about!	I have other things to worry about!	170823677	1476567001420	1476567001488	o	79
333643	3595799	I have other things to worry about!	I have other things to worry about!	170823681	1476567001564	1476567001640	u	85
333643	3595799	I have other things to worry about!	I have other things to worry about!	170823685	1476567001632	1476567001715	t	84
333643	3595799	I have other things to worry about!	I have other things to worry about!	170823688	1476567001767	1476567001912	SHIFT	16
333643	3595799	I have other things to worry about!	I have other things to worry about!	170823689	1476567001823	1476567001932	!	49
