PARTICIPANT_ID	TEST_SECTION_ID	SENTENCE	USER_INPUT	KEYSTROKE_ID	PRESS_TIME	RELEASE_TIME	LETTER	KEYCODE
335401	3615104	Let me know if you have more questions.	Let me know if you have more questions.	171755931	1476609753932	1476609754131	SHIFT	16
335401	3615104	Let me know if you have more questions.	Let me know if you have more questions.	171755932	1476609753971	1476609754187	L	76
335401	3615104	Let me know if you have more questions.	Let me know if you have more questions.	171755933	1476609754195	1476609754371	e	69
335401	3615104	Let me know if you have more questions.	Let me know if you have more questions.	171755934	1476609754635	1476609754747	t	89
335401	3615104	Let me know if you have more questions.	Let me know if you have more questions.	171755935	1476609755141	1476609755381	BKSP	8
335401	3615104	Let me know if you have more questions.	Let me know if you have more questions.	171755936	1476609755381	1476609755511	t	84
335401	3615104	Let me know if you have more questions.	Let me know if you have more questions.	171755956	1476609755587	1476609755661	BKSP	8
335401	3615104	Let me know if you have more questions.	Let me know if you have more questions.	171755957	1476609755721	1476609755859	BKSP	8
335401	3615104	Let me know if you have more questions.	Let me know if you have more questions.	171755959	1476609755811	1476609755941	t	84
335401	3615104	Let me know if you have more questions.	Let me know if you have more questions.	171755961	1476609755971	1476609756163	 	32
335401	3615104	Let me know if you have more questions.	Let me know if you have more questions.	171755963	1476609756139	1476609756339	m	77
335401	3615104	Let me know if you have more questions.	Let me know if you have more questions.	171755966	1476609756243	1476609756371	e	69
335401	3615104	Let me know if you have more questions.	Let me know if you have more questions.	171755969	1476609756411	1476609756611	 	32
335401	3615104	Let me know if you have more questions.	Let me know if you have more questions.	171755994	1476609756631	1476609756861	k	75
335401	3615104	Let me know if you have more questions.	Let me know if you have more questions.	171755996	1476609756899	1476609757075	n	78
335401	3615104	Let me know if you have more questions.	Let me know if you have more questions.	171755998	1476609757061	1476609757203	o	79
335401	3615104	Let me know if you have more questions.	Let me know if you have more questions.	171756000	1476609757181	1476609757299	e	69
335401	3615104	Let me know if you have more questions.	Let me know if you have more questions.	171756002	1476609757481	1476609757571	BKSP	8
335401	3615104	Let me know if you have more questions.	Let me know if you have more questions.	171756004	1476609757667	1476609757699	BKSP	8
335401	3615104	Let me know if you have more questions.	Let me know if you have more questions.	171756022	1476609757691	1476609757840	w	87
335401	3615104	Let me know if you have more questions.	Let me know if you have more questions.	171756024	1476609758243	1476609758355	BKSP	8
335401	3615104	Let me know if you have more questions.	Let me know if you have more questions.	171756026	1476609758511	1476609758711	o	79
335401	3615104	Let me know if you have more questions.	Let me know if you have more questions.	171756028	1476609758667	1476609758841	w	87
335401	3615104	Let me know if you have more questions.	Let me know if you have more questions.	171756030	1476609758931	1476609759147	 	32
335401	3615104	Let me know if you have more questions.	Let me know if you have more questions.	171756031	1476609759101	1476609759281	o	79
335401	3615104	Let me know if you have more questions.	Let me know if you have more questions.	171756032	1476609759321	1476609759411	f	70
335401	3615104	Let me know if you have more questions.	Let me know if you have more questions.	171756060	1476609759511	1476609759611	BKSP	8
335401	3615104	Let me know if you have more questions.	Let me know if you have more questions.	171756061	1476609759671	1476609759761	BKSP	8
335401	3615104	Let me know if you have more questions.	Let me know if you have more questions.	171756062	1476609759871	1476609760091	i	73
335401	3615104	Let me know if you have more questions.	Let me know if you have more questions.	171756063	1476609760021	1476609760140	f	70
335401	3615104	Let me know if you have more questions.	Let me know if you have more questions.	171756064	1476609760275	1476609760507	 	32
335401	3615104	Let me know if you have more questions.	Let me know if you have more questions.	171756065	1476609760671	1476609760781	o	79
335401	3615104	Let me know if you have more questions.	Let me know if you have more questions.	171756066	1476609760991	1476609761139	BKSP	8
335401	3615104	Let me know if you have more questions.	Let me know if you have more questions.	171756067	1476609761548	1476609761661	y	89
335401	3615104	Let me know if you have more questions.	Let me know if you have more questions.	171756068	1476609761699	1476609761939	o	79
335401	3615104	Let me know if you have more questions.	Let me know if you have more questions.	171756069	1476609762219	1476609762387	u	85
335401	3615104	Let me know if you have more questions.	Let me know if you have more questions.	171756070	1476609762531	1476609762699	 	32
335401	3615104	Let me know if you have more questions.	Let me know if you have more questions.	171756071	1476609762821	1476609762995	h	72
335401	3615104	Let me know if you have more questions.	Let me know if you have more questions.	171756088	1476609762947	1476609763043	a	65
335401	3615104	Let me know if you have more questions.	Let me know if you have more questions.	171756090	1476609763261	1476609763381	v	86
335401	3615104	Let me know if you have more questions.	Let me know if you have more questions.	171756092	1476609763787	1476609763871	e	69
335401	3615104	Let me know if you have more questions.	Let me know if you have more questions.	171756094	1476609764259	1476609764467	m	77
335401	3615104	Let me know if you have more questions.	Let me know if you have more questions.	171756095	1476609764681	1476609764801	BKSP	8
335401	3615104	Let me know if you have more questions.	Let me know if you have more questions.	171756096	1476609764930	1476609765099	 	32
335401	3615104	Let me know if you have more questions.	Let me know if you have more questions.	171756097	1476609765107	1476609765315	m	77
335401	3615104	Let me know if you have more questions.	Let me know if you have more questions.	171756106	1476609765281	1476609765441	o	79
335401	3615104	Let me know if you have more questions.	Let me know if you have more questions.	171756107	1476609765581	1476609765811	r	82
335401	3615104	Let me know if you have more questions.	Let me know if you have more questions.	171756108	1476609765751	1476609765940	e	69
335401	3615104	Let me know if you have more questions.	Let me know if you have more questions.	171756109	1476609766011	1476609766221	 	32
335401	3615104	Let me know if you have more questions.	Let me know if you have more questions.	171756110	1476609766699	1476609766781	q	81
335401	3615104	Let me know if you have more questions.	Let me know if you have more questions.	171756111	1476609767275	1476609767395	u	85
335401	3615104	Let me know if you have more questions.	Let me know if you have more questions.	171756114	1476609767381	1476609767561	i	73
335401	3615104	Let me know if you have more questions.	Let me know if you have more questions.	171756116	1476609767499	1476609767650	e	69
335401	3615104	Let me know if you have more questions.	Let me know if you have more questions.	171756120	1476609767859	1476609767939	BKSP	8
335401	3615104	Let me know if you have more questions.	Let me know if you have more questions.	171756123	1476609768002	1476609768123	BKSP	8
335401	3615104	Let me know if you have more questions.	Let me know if you have more questions.	171756126	1476609768083	1476609768200	e	69
335401	3615104	Let me know if you have more questions.	Let me know if you have more questions.	171756129	1476609768361	1476609768555	s	83
335401	3615104	Let me know if you have more questions.	Let me know if you have more questions.	171756132	1476609768771	1476609768881	t	84
335401	3615104	Let me know if you have more questions.	Let me know if you have more questions.	171756136	1476609768921	1476609769123	i	73
335401	3615104	Let me know if you have more questions.	Let me know if you have more questions.	171756143	1476609769043	1476609769283	o	79
335401	3615104	Let me know if you have more questions.	Let me know if you have more questions.	171756144	1476609769267	1476609769520	n	78
335401	3615104	Let me know if you have more questions.	Let me know if you have more questions.	171756145	1476609769481	1476609769620	s	83
335401	3615104	Let me know if you have more questions.	Let me know if you have more questions.	171756146	1476609769901	1476609770030	.	190
335401	3615111	I'll call you in the morning.	I'll call you in the morning.	171756233	1476609773150	1476609773341	SHIFT	16
335401	3615111	I'll call you in the morning.	I'll call you in the morning.	171756235	1476609773201	1476609773380	I	73
335401	3615111	I'll call you in the morning.	I'll call you in the morning.	171756238	1476609773763	1476609773930	'	222
335401	3615111	I'll call you in the morning.	I'll call you in the morning.	171756240	1476609773987	1476609774059	l	76
335401	3615111	I'll call you in the morning.	I'll call you in the morning.	171756242	1476609774147	1476609774221	l	76
335401	3615111	I'll call you in the morning.	I'll call you in the morning.	171756244	1476609774331	1476609774523	 	32
335401	3615111	I'll call you in the morning.	I'll call you in the morning.	171756262	1476609774631	1476609774770	c	67
335401	3615111	I'll call you in the morning.	I'll call you in the morning.	171756264	1476609774811	1476609774971	a	65
335401	3615111	I'll call you in the morning.	I'll call you in the morning.	171756267	1476609774979	1476609775080	l	76
335401	3615111	I'll call you in the morning.	I'll call you in the morning.	171756269	1476609775147	1476609775251	l	76
335401	3615111	I'll call you in the morning.	I'll call you in the morning.	171756270	1476609775315	1476609775507	 	32
335401	3615111	I'll call you in the morning.	I'll call you in the morning.	171756282	1476609775619	1476609775763	y	89
335401	3615111	I'll call you in the morning.	I'll call you in the morning.	171756283	1476609775801	1476609775979	o	79
335401	3615111	I'll call you in the morning.	I'll call you in the morning.	171756284	1476609775920	1476609776067	u	85
335401	3615111	I'll call you in the morning.	I'll call you in the morning.	171756285	1476609776163	1476609776371	 	32
335401	3615111	I'll call you in the morning.	I'll call you in the morning.	171756298	1476609776363	1476609776491	i	73
335401	3615111	I'll call you in the morning.	I'll call you in the morning.	171756301	1476609776563	1476609776707	n	78
335401	3615111	I'll call you in the morning.	I'll call you in the morning.	171756304	1476609776751	1476609776955	 	32
335401	3615111	I'll call you in the morning.	I'll call you in the morning.	171756303	1476609776788	1476609776811	'	222
335401	3615111	I'll call you in the morning.	I'll call you in the morning.	171756318	1476609776835	1476609776956	t	84
335401	3615111	I'll call you in the morning.	I'll call you in the morning.	171756320	1476609776941	1476609777067	h	72
335401	3615111	I'll call you in the morning.	I'll call you in the morning.	171756322	1476609777011	1476609777132	e	69
335401	3615111	I'll call you in the morning.	I'll call you in the morning.	171756324	1476609777179	1476609777307	 	32
335401	3615111	I'll call you in the morning.	I'll call you in the morning.	171756326	1476609777203	1476609777320	'	222
335401	3615111	I'll call you in the morning.	I'll call you in the morning.	171756328	1476609777563	1476609777643	BKSP	8
335401	3615111	I'll call you in the morning.	I'll call you in the morning.	171756330	1476609777730	1476609777801	BKSP	8
335401	3615111	I'll call you in the morning.	I'll call you in the morning.	171756333	1476609777881	1476609777950	BKSP	8
335401	3615111	I'll call you in the morning.	I'll call you in the morning.	171756335	1476609778031	1476609778115	BKSP	8
335401	3615111	I'll call you in the morning.	I'll call you in the morning.	171756337	1476609778180	1476609778267	BKSP	8
335401	3615111	I'll call you in the morning.	I'll call you in the morning.	171756339	1476609778331	1476609778427	BKSP	8
335401	3615111	I'll call you in the morning.	I'll call you in the morning.	171756341	1476609778731	1476609778907	h	72
335401	3615111	I'll call you in the morning.	I'll call you in the morning.	171756352	1476609778859	1476609778963	t	84
335401	3615111	I'll call you in the morning.	I'll call you in the morning.	171756354	1476609779320	1476609779403	BKSP	8
335401	3615111	I'll call you in the morning.	I'll call you in the morning.	171756356	1476609779459	1476609779563	BKSP	8
335401	3615111	I'll call you in the morning.	I'll call you in the morning.	171756358	1476609779880	1476609780051	h	72
335401	3615111	I'll call you in the morning.	I'll call you in the morning.	171756360	1476609779987	1476609780099	e	69
335401	3615111	I'll call you in the morning.	I'll call you in the morning.	171756362	1476609780311	1476609780379	BKSP	8
335401	3615111	I'll call you in the morning.	I'll call you in the morning.	171756364	1476609780440	1476609780547	BKSP	8
335401	3615111	I'll call you in the morning.	I'll call you in the morning.	171756366	1476609781019	1476609781115	t	84
335401	3615111	I'll call you in the morning.	I'll call you in the morning.	171756396	1476609781151	1476609781282	h	74
335401	3615111	I'll call you in the morning.	I'll call you in the morning.	171756397	1476609781195	1476609781310	e	69
335401	3615111	I'll call you in the morning.	I'll call you in the morning.	171756399	1476609781591	1476609781671	BKSP	8
335401	3615111	I'll call you in the morning.	I'll call you in the morning.	171756401	1476609781740	1476609781851	BKSP	8
335401	3615111	I'll call you in the morning.	I'll call you in the morning.	171756402	1476609781921	1476609781981	BKSP	8
335401	3615111	I'll call you in the morning.	I'll call you in the morning.	171756403	1476609782427	1476609782578	h	72
335401	3615111	I'll call you in the morning.	I'll call you in the morning.	171756404	1476609782554	1476609782627	e	69
335401	3615111	I'll call you in the morning.	I'll call you in the morning.	171756405	1476609782700	1476609782986	 	32
335401	3615111	I'll call you in the morning.	I'll call you in the morning.	171756406	1476609783018	1476609783195	m	77
335401	3615111	I'll call you in the morning.	I'll call you in the morning.	171756430	1476609783139	1476609783440	o	79
335401	3615111	I'll call you in the morning.	I'll call you in the morning.	171756431	1476609783861	1476609783981	r	82
335401	3615111	I'll call you in the morning.	I'll call you in the morning.	171756432	1476609784231	1476609784395	n	78
335401	3615111	I'll call you in the morning.	I'll call you in the morning.	171756433	1476609784378	1476609784481	i	73
335401	3615111	I'll call you in the morning.	I'll call you in the morning.	171756434	1476609784498	1476609784681	n	78
335401	3615111	I'll call you in the morning.	I'll call you in the morning.	171756470	1476609784681	1476609784810	h	71
335401	3615111	I'll call you in the morning.	I'll call you in the morning.	171756472	1476609785161	1476609785244	BKSP	8
335401	3615111	I'll call you in the morning.	I'll call you in the morning.	171756473	1476609786059	1476609786131	.	190
335401	3615116	However, Jeffers is too risky to start from a Fantasy perspective.	However, Jeffers is too risky to start from a Fantasy perspective.	171756544	1476609789267	1476609789466	SHIFT	16
335401	3615116	However, Jeffers is too risky to start from a Fantasy perspective.	However, Jeffers is too risky to start from a Fantasy perspective.	171756545	1476609789339	1476609789506	H	72
335401	3615116	However, Jeffers is too risky to start from a Fantasy perspective.	However, Jeffers is too risky to start from a Fantasy perspective.	171756546	1476609789481	1476609789661	o	79
335401	3615116	However, Jeffers is too risky to start from a Fantasy perspective.	However, Jeffers is too risky to start from a Fantasy perspective.	171756548	1476609790001	1476609790170	e	69
335401	3615116	However, Jeffers is too risky to start from a Fantasy perspective.	However, Jeffers is too risky to start from a Fantasy perspective.	171756550	1476609790600	1476609790730	BKSP	8
335401	3615116	However, Jeffers is too risky to start from a Fantasy perspective.	However, Jeffers is too risky to start from a Fantasy perspective.	171756552	1476609790710	1476609790830	w	87
335401	3615116	However, Jeffers is too risky to start from a Fantasy perspective.	However, Jeffers is too risky to start from a Fantasy perspective.	171756554	1476609791461	1476609791571	e	69
335401	3615116	However, Jeffers is too risky to start from a Fantasy perspective.	However, Jeffers is too risky to start from a Fantasy perspective.	171756599	1476609791910	1476609792027	v	86
335401	3615116	However, Jeffers is too risky to start from a Fantasy perspective.	However, Jeffers is too risky to start from a Fantasy perspective.	171756600	1476609792040	1476609792220	e	69
335401	3615116	However, Jeffers is too risky to start from a Fantasy perspective.	However, Jeffers is too risky to start from a Fantasy perspective.	171756601	1476609792187	1476609792314	r	82
335401	3615116	However, Jeffers is too risky to start from a Fantasy perspective.	However, Jeffers is too risky to start from a Fantasy perspective.	171756602	1476609793842	1476609794001	,	188
335401	3615116	However, Jeffers is too risky to start from a Fantasy perspective.	However, Jeffers is too risky to start from a Fantasy perspective.	171756603	1476609794291	1476609794571	 	32
335401	3615116	However, Jeffers is too risky to start from a Fantasy perspective.	However, Jeffers is too risky to start from a Fantasy perspective.	171756657	1476609795051	1476609795186	j	74
335401	3615116	However, Jeffers is too risky to start from a Fantasy perspective.	However, Jeffers is too risky to start from a Fantasy perspective.	171756658	1476609795107	1476609795218	SHIFT	16
335401	3615116	However, Jeffers is too risky to start from a Fantasy perspective.	However, Jeffers is too risky to start from a Fantasy perspective.	171756659	1476609795500	1476609795578	e	69
335401	3615116	However, Jeffers is too risky to start from a Fantasy perspective.	However, Jeffers is too risky to start from a Fantasy perspective.	171756660	1476609795811	1476609795898	BKSP	8
335401	3615116	However, Jeffers is too risky to start from a Fantasy perspective.	However, Jeffers is too risky to start from a Fantasy perspective.	171756661	1476609795951	1476609796041	BKSP	8
335401	3615116	However, Jeffers is too risky to start from a Fantasy perspective.	However, Jeffers is too risky to start from a Fantasy perspective.	171756662	1476609796106	1476609796290	SHIFT	16
335401	3615116	However, Jeffers is too risky to start from a Fantasy perspective.	However, Jeffers is too risky to start from a Fantasy perspective.	171756663	1476609796160	1476609796340	J	74
335401	3615116	However, Jeffers is too risky to start from a Fantasy perspective.	However, Jeffers is too risky to start from a Fantasy perspective.	171756664	1476609796370	1476609796490	e	69
335401	3615116	However, Jeffers is too risky to start from a Fantasy perspective.	However, Jeffers is too risky to start from a Fantasy perspective.	171756665	1476609796900	1476609797010	f	70
335401	3615116	However, Jeffers is too risky to start from a Fantasy perspective.	However, Jeffers is too risky to start from a Fantasy perspective.	171756652	1476609797081	1476609797151	f	70
335401	3615116	However, Jeffers is too risky to start from a Fantasy perspective.	However, Jeffers is too risky to start from a Fantasy perspective.	171756653	1476609797200	1476609797394	e	69
335401	3615116	However, Jeffers is too risky to start from a Fantasy perspective.	However, Jeffers is too risky to start from a Fantasy perspective.	171756654	1476609797360	1476609797501	r	82
335401	3615116	However, Jeffers is too risky to start from a Fantasy perspective.	However, Jeffers is too risky to start from a Fantasy perspective.	171756655	1476609797640	1476609797826	s	83
335401	3615116	However, Jeffers is too risky to start from a Fantasy perspective.	However, Jeffers is too risky to start from a Fantasy perspective.	171756656	1476609797938	1476609798034	 	32
335401	3615116	However, Jeffers is too risky to start from a Fantasy perspective.	However, Jeffers is too risky to start from a Fantasy perspective.	171756710	1476609798099	1476609798307	i	73
335401	3615116	However, Jeffers is too risky to start from a Fantasy perspective.	However, Jeffers is too risky to start from a Fantasy perspective.	171756712	1476609798241	1476609798400	s	83
335401	3615116	However, Jeffers is too risky to start from a Fantasy perspective.	However, Jeffers is too risky to start from a Fantasy perspective.	171756714	1476609798826	1476609798911	BKSP	8
335401	3615116	However, Jeffers is too risky to start from a Fantasy perspective.	However, Jeffers is too risky to start from a Fantasy perspective.	171756716	1476609799050	1476609799138	BKSP	8
335401	3615116	However, Jeffers is too risky to start from a Fantasy perspective.	However, Jeffers is too risky to start from a Fantasy perspective.	171756718	1476609800771	1476609800940	i	73
335401	3615116	However, Jeffers is too risky to start from a Fantasy perspective.	However, Jeffers is too risky to start from a Fantasy perspective.	171756720	1476609800871	1476609801051	s	83
335401	3615116	However, Jeffers is too risky to start from a Fantasy perspective.	However, Jeffers is too risky to start from a Fantasy perspective.	171756744	1476609801010	1476609801250	 	32
335401	3615116	However, Jeffers is too risky to start from a Fantasy perspective.	However, Jeffers is too risky to start from a Fantasy perspective.	171756746	1476609801210	1476609801354	t	84
335401	3615116	However, Jeffers is too risky to start from a Fantasy perspective.	However, Jeffers is too risky to start from a Fantasy perspective.	171756747	1476609801320	1476609801418	o	79
335401	3615116	However, Jeffers is too risky to start from a Fantasy perspective.	However, Jeffers is too risky to start from a Fantasy perspective.	171756748	1476609801490	1476609801610	o	79
335401	3615116	However, Jeffers is too risky to start from a Fantasy perspective.	However, Jeffers is too risky to start from a Fantasy perspective.	171756749	1476609801666	1476609801883	 	32
335401	3615116	However, Jeffers is too risky to start from a Fantasy perspective.	However, Jeffers is too risky to start from a Fantasy perspective.	171756750	1476609802203	1476609802370	r	82
335401	3615116	However, Jeffers is too risky to start from a Fantasy perspective.	However, Jeffers is too risky to start from a Fantasy perspective.	171756771	1476609802418	1476609802621	i	73
335401	3615116	However, Jeffers is too risky to start from a Fantasy perspective.	However, Jeffers is too risky to start from a Fantasy perspective.	171756772	1476609802931	1476609803099	s	83
335401	3615116	However, Jeffers is too risky to start from a Fantasy perspective.	However, Jeffers is too risky to start from a Fantasy perspective.	171756773	1476609803099	1476609803226	k	75
335401	3615116	However, Jeffers is too risky to start from a Fantasy perspective.	However, Jeffers is too risky to start from a Fantasy perspective.	171756774	1476609803340	1476609803490	y	89
335401	3615116	However, Jeffers is too risky to start from a Fantasy perspective.	However, Jeffers is too risky to start from a Fantasy perspective.	171756776	1476609803618	1476609803834	 	32
335401	3615116	However, Jeffers is too risky to start from a Fantasy perspective.	However, Jeffers is too risky to start from a Fantasy perspective.	171756796	1476609803870	1476609804001	t	84
335401	3615116	However, Jeffers is too risky to start from a Fantasy perspective.	However, Jeffers is too risky to start from a Fantasy perspective.	171756797	1476609804018	1476609804210	o	79
335401	3615116	However, Jeffers is too risky to start from a Fantasy perspective.	However, Jeffers is too risky to start from a Fantasy perspective.	171756798	1476609804170	1476609804380	 	32
335401	3615116	However, Jeffers is too risky to start from a Fantasy perspective.	However, Jeffers is too risky to start from a Fantasy perspective.	171756799	1476609804271	1476609804506	s	83
335401	3615116	However, Jeffers is too risky to start from a Fantasy perspective.	However, Jeffers is too risky to start from a Fantasy perspective.	171756800	1476609804522	1476609804650	t	84
335401	3615116	However, Jeffers is too risky to start from a Fantasy perspective.	However, Jeffers is too risky to start from a Fantasy perspective.	171756835	1476609804760	1476609804956	e	69
335401	3615116	However, Jeffers is too risky to start from a Fantasy perspective.	However, Jeffers is too risky to start from a Fantasy perspective.	171756837	1476609805370	1476609805531	BKSP	8
335401	3615116	However, Jeffers is too risky to start from a Fantasy perspective.	However, Jeffers is too risky to start from a Fantasy perspective.	171756839	1476609805426	1476609805630	a	65
335401	3615116	However, Jeffers is too risky to start from a Fantasy perspective.	However, Jeffers is too risky to start from a Fantasy perspective.	171756841	1476609805970	1476609806090	r	82
335401	3615116	However, Jeffers is too risky to start from a Fantasy perspective.	However, Jeffers is too risky to start from a Fantasy perspective.	171756842	1476609806171	1476609806310	t	84
335401	3615116	However, Jeffers is too risky to start from a Fantasy perspective.	However, Jeffers is too risky to start from a Fantasy perspective.	171756843	1476609806420	1476609806690	 	32
335401	3615116	However, Jeffers is too risky to start from a Fantasy perspective.	However, Jeffers is too risky to start from a Fantasy perspective.	171756864	1476609806660	1476609806826	f	70
335401	3615116	However, Jeffers is too risky to start from a Fantasy perspective.	However, Jeffers is too risky to start from a Fantasy perspective.	171756865	1476609807074	1476609807221	r	82
335401	3615116	However, Jeffers is too risky to start from a Fantasy perspective.	However, Jeffers is too risky to start from a Fantasy perspective.	171756866	1476609807178	1476609807330	o	79
335401	3615116	However, Jeffers is too risky to start from a Fantasy perspective.	However, Jeffers is too risky to start from a Fantasy perspective.	171756867	1476609807426	1476609807666	m	77
335401	3615116	However, Jeffers is too risky to start from a Fantasy perspective.	However, Jeffers is too risky to start from a Fantasy perspective.	171756868	1476609807630	1476609807800	 	32
335401	3615116	However, Jeffers is too risky to start from a Fantasy perspective.	However, Jeffers is too risky to start from a Fantasy perspective.	171756904	1476609807730	1476609807850	a	65
335401	3615116	However, Jeffers is too risky to start from a Fantasy perspective.	However, Jeffers is too risky to start from a Fantasy perspective.	171756906	1476609807986	1476609808181	 	32
335401	3615116	However, Jeffers is too risky to start from a Fantasy perspective.	However, Jeffers is too risky to start from a Fantasy perspective.	171756908	1476609808361	1476609808640	SHIFT	16
335401	3615116	However, Jeffers is too risky to start from a Fantasy perspective.	However, Jeffers is too risky to start from a Fantasy perspective.	171756907	1476609808480	1476609808590	A	65
335401	3615116	However, Jeffers is too risky to start from a Fantasy perspective.	However, Jeffers is too risky to start from a Fantasy perspective.	171756910	1476609808790	1476609808930	BKSP	8
335401	3615116	However, Jeffers is too risky to start from a Fantasy perspective.	However, Jeffers is too risky to start from a Fantasy perspective.	171756914	1476609809026	1476609809210	SHIFT	16
335401	3615116	However, Jeffers is too risky to start from a Fantasy perspective.	However, Jeffers is too risky to start from a Fantasy perspective.	171756912	1476609809081	1476609809190	F	70
335401	3615116	However, Jeffers is too risky to start from a Fantasy perspective.	However, Jeffers is too risky to start from a Fantasy perspective.	171756916	1476609809298	1476609809411	a	65
335401	3615116	However, Jeffers is too risky to start from a Fantasy perspective.	However, Jeffers is too risky to start from a Fantasy perspective.	171756918	1476609809658	1476609809850	n	78
335401	3615116	However, Jeffers is too risky to start from a Fantasy perspective.	However, Jeffers is too risky to start from a Fantasy perspective.	171756931	1476609809858	1476609810061	s	83
335401	3615116	However, Jeffers is too risky to start from a Fantasy perspective.	However, Jeffers is too risky to start from a Fantasy perspective.	171756932	1476609810100	1476609810200	t	84
335401	3615116	However, Jeffers is too risky to start from a Fantasy perspective.	However, Jeffers is too risky to start from a Fantasy perspective.	171756933	1476609810280	1476609810442	a	65
335401	3615116	However, Jeffers is too risky to start from a Fantasy perspective.	However, Jeffers is too risky to start from a Fantasy perspective.	171756934	1476609810980	1476609811100	BKSP	8
335401	3615116	However, Jeffers is too risky to start from a Fantasy perspective.	However, Jeffers is too risky to start from a Fantasy perspective.	171756935	1476609811170	1476609811266	BKSP	8
335401	3615116	However, Jeffers is too risky to start from a Fantasy perspective.	However, Jeffers is too risky to start from a Fantasy perspective.	171756936	1476609811321	1476609811431	BKSP	8
335401	3615116	However, Jeffers is too risky to start from a Fantasy perspective.	However, Jeffers is too risky to start from a Fantasy perspective.	171756937	1476609811500	1476609811620	t	84
335401	3615116	However, Jeffers is too risky to start from a Fantasy perspective.	However, Jeffers is too risky to start from a Fantasy perspective.	171756938	1476609811620	1476609811770	a	65
335401	3615116	However, Jeffers is too risky to start from a Fantasy perspective.	However, Jeffers is too risky to start from a Fantasy perspective.	171756961	1476609811830	1476609812010	s	83
335401	3615116	However, Jeffers is too risky to start from a Fantasy perspective.	However, Jeffers is too risky to start from a Fantasy perspective.	171756962	1476609812130	1476609812280	y	89
335401	3615116	However, Jeffers is too risky to start from a Fantasy perspective.	However, Jeffers is too risky to start from a Fantasy perspective.	171756963	1476609812500	1476609812707	 	32
335401	3615116	However, Jeffers is too risky to start from a Fantasy perspective.	However, Jeffers is too risky to start from a Fantasy perspective.	171756964	1476609812810	1476609812994	p	80
335401	3615116	However, Jeffers is too risky to start from a Fantasy perspective.	However, Jeffers is too risky to start from a Fantasy perspective.	171756965	1476609813230	1476609813380	e	69
335401	3615116	However, Jeffers is too risky to start from a Fantasy perspective.	However, Jeffers is too risky to start from a Fantasy perspective.	171756999	1476609813698	1476609813790	s	83
335401	3615116	However, Jeffers is too risky to start from a Fantasy perspective.	However, Jeffers is too risky to start from a Fantasy perspective.	171757002	1476609814090	1476609814250	BKSP	8
335401	3615116	However, Jeffers is too risky to start from a Fantasy perspective.	However, Jeffers is too risky to start from a Fantasy perspective.	171757004	1476609814266	1476609814498	e	69
335401	3615116	However, Jeffers is too risky to start from a Fantasy perspective.	However, Jeffers is too risky to start from a Fantasy perspective.	171757005	1476609814722	1476609814875	BKSP	8
335401	3615116	However, Jeffers is too risky to start from a Fantasy perspective.	However, Jeffers is too risky to start from a Fantasy perspective.	171757007	1476609814790	1476609814898	r	82
335401	3615116	However, Jeffers is too risky to start from a Fantasy perspective.	However, Jeffers is too risky to start from a Fantasy perspective.	171757008	1476609814866	1476609814970	e	69
335401	3615116	However, Jeffers is too risky to start from a Fantasy perspective.	However, Jeffers is too risky to start from a Fantasy perspective.	171757010	1476609815066	1476609815267	s	83
335401	3615116	However, Jeffers is too risky to start from a Fantasy perspective.	However, Jeffers is too risky to start from a Fantasy perspective.	171757049	1476609815355	1476609815460	BKSP	8
335401	3615116	However, Jeffers is too risky to start from a Fantasy perspective.	However, Jeffers is too risky to start from a Fantasy perspective.	171757051	1476609815506	1476609815618	BKSP	8
335401	3615116	However, Jeffers is too risky to start from a Fantasy perspective.	However, Jeffers is too risky to start from a Fantasy perspective.	171757056	1476609815601	1476609815720	s	83
335401	3615116	However, Jeffers is too risky to start from a Fantasy perspective.	However, Jeffers is too risky to start from a Fantasy perspective.	171757059	1476609816099	1476609816220	p	80
335401	3615116	However, Jeffers is too risky to start from a Fantasy perspective.	However, Jeffers is too risky to start from a Fantasy perspective.	171757061	1476609816261	1476609816290	p	80
335401	3615116	However, Jeffers is too risky to start from a Fantasy perspective.	However, Jeffers is too risky to start from a Fantasy perspective.	171757063	1476609816920	1476609817060	BKSP	8
335401	3615116	However, Jeffers is too risky to start from a Fantasy perspective.	However, Jeffers is too risky to start from a Fantasy perspective.	171757064	1476609817020	1476609817154	e	69
335401	3615116	However, Jeffers is too risky to start from a Fantasy perspective.	However, Jeffers is too risky to start from a Fantasy perspective.	171757065	1476609817450	1476609817586	c	67
335401	3615116	However, Jeffers is too risky to start from a Fantasy perspective.	However, Jeffers is too risky to start from a Fantasy perspective.	171757078	1476609817690	1476609817866	t	84
335401	3615116	However, Jeffers is too risky to start from a Fantasy perspective.	However, Jeffers is too risky to start from a Fantasy perspective.	171757080	1476609817840	1476609817940	i	73
335401	3615116	However, Jeffers is too risky to start from a Fantasy perspective.	However, Jeffers is too risky to start from a Fantasy perspective.	171757082	1476609818040	1476609818230	n	78
335401	3615116	However, Jeffers is too risky to start from a Fantasy perspective.	However, Jeffers is too risky to start from a Fantasy perspective.	171757084	1476609818420	1476609818570	BKSP	8
335401	3615116	However, Jeffers is too risky to start from a Fantasy perspective.	However, Jeffers is too risky to start from a Fantasy perspective.	171757086	1476609818467	1476609818667	v	86
335401	3615116	However, Jeffers is too risky to start from a Fantasy perspective.	However, Jeffers is too risky to start from a Fantasy perspective.	171757109	1476609818630	1476609818858	e	69
335401	3615116	However, Jeffers is too risky to start from a Fantasy perspective.	However, Jeffers is too risky to start from a Fantasy perspective.	171757112	1476609819010	1476609819178	.	190
335401	3615126	She has a web address.	She has a web address.	171757228	1476609821861	1476609822106	SHIFT	16
335401	3615126	She has a web address.	She has a web address.	171757230	1476609822190	1476609822227	d	68
335401	3615126	She has a web address.	She has a web address.	171757232	1476609822430	1476609822630	SHIFT	16
335401	3615126	She has a web address.	She has a web address.	171757235	1476609822780	1476609822940	BKSP	8
335401	3615126	She has a web address.	She has a web address.	171757239	1476609823070	1476609823266	SHIFT	16
335401	3615126	She has a web address.	She has a web address.	171757245	1476609823140	1476609823298	S	83
335401	3615126	She has a web address.	She has a web address.	171757250	1476609823590	1476609823730	h	72
335401	3615126	She has a web address.	She has a web address.	171757254	1476609823698	1476609823786	e	69
335401	3615126	She has a web address.	She has a web address.	171757257	1476609823880	1476609824080	 	32
335401	3615126	She has a web address.	She has a web address.	171757255	1476609824186	1476609824346	h	72
335401	3615126	She has a web address.	She has a web address.	171757258	1476609824338	1476609824386	a	65
335401	3615126	She has a web address.	She has a web address.	171757260	1476609824362	1476609824500	s	83
335401	3615126	She has a web address.	She has a web address.	171757262	1476609824540	1476609824630	a	65
335401	3615126	She has a web address.	She has a web address.	171757263	1476609824740	1476609824818	BKSP	8
335401	3615126	She has a web address.	She has a web address.	171757264	1476609825226	1476609825390	 	32
335401	3615126	She has a web address.	She has a web address.	171757298	1476609825310	1476609825470	a	65
335401	3615126	She has a web address.	She has a web address.	171757299	1476609825500	1476609825780	 	32
335401	3615126	She has a web address.	She has a web address.	171757300	1476609825706	1476609825880	w	87
335401	3615126	She has a web address.	She has a web address.	171757301	1476609826360	1476609826498	e	69
335401	3615126	She has a web address.	She has a web address.	171757302	1476609827170	1476609827290	b	66
335401	3615126	She has a web address.	She has a web address.	171757303	1476609827670	1476609827900	 	32
335401	3615126	She has a web address.	She has a web address.	171757313	1476609827914	1476609828060	a	65
335401	3615126	She has a web address.	She has a web address.	171757320	1476609828220	1476609828310	d	68
335401	3615126	She has a web address.	She has a web address.	171757324	1476609828426	1476609828510	d	68
335401	3615126	She has a web address.	She has a web address.	171757328	1476609828720	1476609828890	r	82
335401	3615126	She has a web address.	She has a web address.	171757362	1476609828810	1476609828962	e	69
335401	3615126	She has a web address.	She has a web address.	171757363	1476609829060	1476609829162	s	83
335401	3615126	She has a web address.	She has a web address.	171757364	1476609829240	1476609829330	s	83
335401	3615126	She has a web address.	She has a web address.	171757365	1476609829430	1476609829602	l	76
335401	3615126	She has a web address.	She has a web address.	171757366	1476609829730	1476609829794	]	221
335401	3615126	She has a web address.	She has a web address.	171757367	1476609830274	1476609830380	BKSP	8
335401	3615126	She has a web address.	She has a web address.	171757368	1476609830474	1476609830540	BKSP	8
335401	3615126	She has a web address.	She has a web address.	171757397	1476609830818	1476609831060	.	191
335401	3615126	She has a web address.	She has a web address.	171757399	1476609831320	1476609831386	\	220
335401	3615126	She has a web address.	She has a web address.	171757400	1476609831460	1476609831620	BKSP	8
335401	3615126	She has a web address.	She has a web address.	171757401	1476609831738	1476609831794	BKSP	8
335401	3615126	She has a web address.	She has a web address.	171757402	1476609831898	1476609831986	BKSP	8
335401	3615126	She has a web address.	She has a web address.	171757403	1476609832760	1476609832826	.	190
335401	3615134	What number should he call you on?	What number should he call you on?	171757522	1476609837430	1476609837626	SHIFT	16
335401	3615134	What number should he call you on?	What number should he call you on?	171757521	1476609837480	1476609837610	W	87
335401	3615134	What number should he call you on?	What number should he call you on?	171757523	1476609837706	1476609837860	h	72
335401	3615134	What number should he call you on?	What number should he call you on?	171757524	1476609837930	1476609838130	a	65
335401	3615134	What number should he call you on?	What number should he call you on?	171757525	1476609838190	1476609838320	t	84
335401	3615134	What number should he call you on?	What number should he call you on?	171757526	1476609838410	1476609838590	 	32
335401	3615134	What number should he call you on?	What number should he call you on?	171757545	1476609838642	1476609838779	n	78
335401	3615134	What number should he call you on?	What number should he call you on?	171757547	1476609838860	1476609838962	u	85
335401	3615134	What number should he call you on?	What number should he call you on?	171757548	1476609839290	1476609839460	m	77
335401	3615134	What number should he call you on?	What number should he call you on?	171757550	1476609839710	1476609839842	b	66
335401	3615134	What number should he call you on?	What number should he call you on?	171757551	1476609839950	1476609840190	e	69
335401	3615134	What number should he call you on?	What number should he call you on?	171757575	1476609840378	1476609840498	r	82
335401	3615134	What number should he call you on?	What number should he call you on?	171757577	1476609840560	1476609840778	 	32
335401	3615134	What number should he call you on?	What number should he call you on?	171757579	1476609840760	1476609840914	s	83
335401	3615134	What number should he call you on?	What number should he call you on?	171757581	1476609841018	1476609841210	h	72
335401	3615134	What number should he call you on?	What number should he call you on?	171757583	1476609841346	1476609841538	o	79
335401	3615134	What number should he call you on?	What number should he call you on?	171757595	1476609841490	1476609841650	u	85
335401	3615134	What number should he call you on?	What number should he call you on?	171757596	1476609841810	1476609841946	l	76
335401	3615134	What number should he call you on?	What number should he call you on?	171757597	1476609842306	1476609842430	d	68
335401	3615134	What number should he call you on?	What number should he call you on?	171757598	1476609842540	1476609842750	 	32
335401	3615134	What number should he call you on?	What number should he call you on?	171757599	1476609842978	1476609843110	h	72
335401	3615134	What number should he call you on?	What number should he call you on?	171757600	1476609843129	1476609843250	e	69
335401	3615134	What number should he call you on?	What number should he call you on?	171757625	1476609843320	1476609843498	 	32
335401	3615134	What number should he call you on?	What number should he call you on?	171757626	1476609844018	1476609844138	c	67
335401	3615134	What number should he call you on?	What number should he call you on?	171757628	1476609844186	1476609844298	a	65
335401	3615134	What number should he call you on?	What number should he call you on?	171757630	1476609844346	1476609844426	l	76
335401	3615134	What number should he call you on?	What number should he call you on?	171757632	1476609844510	1476609844618	l	76
335401	3615134	What number should he call you on?	What number should he call you on?	171757645	1476609844674	1476609844858	 	32
335401	3615134	What number should he call you on?	What number should he call you on?	171757647	1476609844910	1476609845090	y	89
335401	3615134	What number should he call you on?	What number should he call you on?	171757649	1476609845080	1476609845298	o	79
335401	3615134	What number should he call you on?	What number should he call you on?	171757650	1476609845218	1476609845350	u	85
335401	3615134	What number should he call you on?	What number should he call you on?	171757651	1476609845434	1476609845626	 	32
335401	3615134	What number should he call you on?	What number should he call you on?	171757683	1476609845600	1476609845800	o	79
335401	3615134	What number should he call you on?	What number should he call you on?	171757684	1476609845842	1476609846026	n	78
335401	3615134	What number should he call you on?	What number should he call you on?	171757687	1476609846250	1476609847266	SHIFT	16
335401	3615134	What number should he call you on?	What number should he call you on?	171757685	1476609846509	1476609846666	>	190
335401	3615134	What number should he call you on?	What number should he call you on?	171757686	1476609847026	1476609847162	BKSP	8
335401	3615134	What number should he call you on?	What number should he call you on?	171757689	1476609847466	1476609847850	SHIFT	16
335401	3615134	What number should he call you on?	What number should he call you on?	171757688	1476609847626	1476609847750	?	191
335401	3615139	Hope you had a good weekend.	Hope you had a good weeekend.	171757778	1476609853378	1476609853586	SHIFT	16
335401	3615139	Hope you had a good weekend.	Hope you had a good weeekend.	171757779	1476609853460	1476609853706	H	72
335401	3615139	Hope you had a good weekend.	Hope you had a good weeekend.	171757780	1476609853660	1476609854098	o	79
335401	3615139	Hope you had a good weekend.	Hope you had a good weeekend.	171757781	1476609854060	1476609854240	p	80
335401	3615139	Hope you had a good weekend.	Hope you had a good weeekend.	171757782	1476609854260	1476609854429	e	69
335401	3615139	Hope you had a good weekend.	Hope you had a good weeekend.	171757783	1476609854480	1476609854680	 	32
335401	3615139	Hope you had a good weekend.	Hope you had a good weeekend.	171757807	1476609854800	1476609854910	y	85
335401	3615139	Hope you had a good weekend.	Hope you had a good weeekend.	171757809	1476609854950	1476609855109	o	79
335401	3615139	Hope you had a good weekend.	Hope you had a good weeekend.	171757811	1476609855060	1476609855209	u	85
335401	3615139	Hope you had a good weekend.	Hope you had a good weeekend.	171757812	1476609855340	1476609855434	BKSP	8
335401	3615139	Hope you had a good weekend.	Hope you had a good weeekend.	171757813	1476609855522	1476609855589	BKSP	8
335401	3615139	Hope you had a good weekend.	Hope you had a good weeekend.	171757814	1476609855670	1476609855730	BKSP	8
335401	3615139	Hope you had a good weekend.	Hope you had a good weeekend.	171757816	1476609855790	1476609855898	BKSP	8
335401	3615139	Hope you had a good weekend.	Hope you had a good weeekend.	171757818	1476609856319	1476609856466	u	85
335401	3615139	Hope you had a good weekend.	Hope you had a good weeekend.	171757848	1476609856458	1476609856634	o	79
335401	3615139	Hope you had a good weekend.	Hope you had a good weeekend.	171757849	1476609856580	1476609856746	u	85
335401	3615139	Hope you had a good weekend.	Hope you had a good weeekend.	171757850	1476609856919	1476609857000	BKSP	8
335401	3615139	Hope you had a good weekend.	Hope you had a good weeekend.	171757851	1476609857098	1476609857170	BKSP	8
335401	3615139	Hope you had a good weekend.	Hope you had a good weeekend.	171757852	1476609857258	1476609857300	BKSP	8
335401	3615139	Hope you had a good weekend.	Hope you had a good weeekend.	171757853	1476609857370	1476609857450	BKSP	8
335401	3615139	Hope you had a good weekend.	Hope you had a good weeekend.	171757854	1476609858130	1476609858266	y	89
335401	3615139	Hope you had a good weekend.	Hope you had a good weeekend.	171757855	1476609858306	1476609858466	o	79
335401	3615139	Hope you had a good weekend.	Hope you had a good weeekend.	171757856	1476609858419	1476609858570	u	85
335401	3615139	Hope you had a good weekend.	Hope you had a good weeekend.	171757857	1476609858779	1476609858850	=	187
335401	3615139	Hope you had a good weekend.	Hope you had a good weeekend.	171757858	1476609859114	1476609859169	=	187
335401	3615139	Hope you had a good weekend.	Hope you had a good weeekend.	171757859	1476609859260	1476609859339	BKSP	8
335401	3615139	Hope you had a good weekend.	Hope you had a good weeekend.	171757860	1476609859420	1476609859500	BKSP	8
335401	3615139	Hope you had a good weekend.	Hope you had a good weeekend.	171757861	1476609859586	1476609859660	BKSP	8
335401	3615139	Hope you had a good weekend.	Hope you had a good weeekend.	171757863	1476609859746	1476609859818	BKSP	8
335401	3615139	Hope you had a good weekend.	Hope you had a good weeekend.	171757865	1476609859970	1476609860070	BKSP	8
335401	3615139	Hope you had a good weekend.	Hope you had a good weeekend.	171757867	1476609860130	1476609860298	 	32
335401	3615139	Hope you had a good weekend.	Hope you had a good weeekend.	171757869	1476609860790	1476609860946	y	89
335401	3615139	Hope you had a good weekend.	Hope you had a good weeekend.	171757872	1476609860960	1476609861130	p	80
335401	3615139	Hope you had a good weekend.	Hope you had a good weeekend.	171757889	1476609861110	1476609861260	u	85
335401	3615139	Hope you had a good weekend.	Hope you had a good weeekend.	171757890	1476609861500	1476609861586	BKSP	8
335401	3615139	Hope you had a good weekend.	Hope you had a good weeekend.	171757891	1476609861682	1476609861754	BKSP	8
335401	3615139	Hope you had a good weekend.	Hope you had a good weeekend.	171757892	1476609862259	1476609862434	o	79
335401	3615139	Hope you had a good weekend.	Hope you had a good weeekend.	171757893	1476609862399	1476609862522	u	85
335401	3615139	Hope you had a good weekend.	Hope you had a good weeekend.	171757894	1476609862619	1476609862829	 	32
335401	3615139	Hope you had a good weekend.	Hope you had a good weeekend.	171757895	1476609862954	1476609863106	h	72
335401	3615139	Hope you had a good weekend.	Hope you had a good weeekend.	171757900	1476609863066	1476609863170	a	65
335401	3615139	Hope you had a good weekend.	Hope you had a good weeekend.	171757901	1476609863219	1476609863409	d	68
335401	3615139	Hope you had a good weekend.	Hope you had a good weeekend.	171757902	1476609863480	1476609863666	 	32
335401	3615139	Hope you had a good weekend.	Hope you had a good weeekend.	171757903	1476609863619	1476609863790	a	65
335401	3615139	Hope you had a good weekend.	Hope you had a good weeekend.	171757904	1476609863810	1476609863986	 	32
335401	3615139	Hope you had a good weekend.	Hope you had a good weeekend.	171757940	1476609863930	1476609864090	d	68
335401	3615139	Hope you had a good weekend.	Hope you had a good weeekend.	171757941	1476609864309	1476609864442	BKSP	8
335401	3615139	Hope you had a good weekend.	Hope you had a good weeekend.	171757942	1476609864430	1476609864586	g	71
335401	3615139	Hope you had a good weekend.	Hope you had a good weeekend.	171757943	1476609864986	1476609865070	o	79
335401	3615139	Hope you had a good weekend.	Hope you had a good weeekend.	171757944	1476609865140	1476609865219	o	79
335401	3615139	Hope you had a good weekend.	Hope you had a good weeekend.	171757945	1476609865260	1476609865370	d	68
335401	3615139	Hope you had a good weekend.	Hope you had a good weeekend.	171757946	1476609865570	1476609865826	 	32
335401	3615139	Hope you had a good weekend.	Hope you had a good weeekend.	171757961	1476609865874	1476609866002	w	87
335401	3615139	Hope you had a good weekend.	Hope you had a good weeekend.	171757963	1476609866098	1476609866209	e	69
335401	3615139	Hope you had a good weekend.	Hope you had a good weeekend.	171757965	1476609866420	1476609866549	k	75
335401	3615139	Hope you had a good weekend.	Hope you had a good weeekend.	171757968	1476609866762	1476609866860	BKSP	8
335401	3615139	Hope you had a good weekend.	Hope you had a good weeekend.	171757972	1476609866898	1476609866970	e	69
335401	3615139	Hope you had a good weekend.	Hope you had a good weeekend.	171757974	1476609867070	1476609867121	e	69
335401	3615139	Hope you had a good weekend.	Hope you had a good weeekend.	171758011	1476609867106	1476609867306	k	75
335401	3615139	Hope you had a good weekend.	Hope you had a good weeekend.	171758013	1476609867390	1476609867530	e	69
335401	3615139	Hope you had a good weekend.	Hope you had a good weeekend.	171758015	1476609867634	1476609867722	BKSP	8
335401	3615139	Hope you had a good weekend.	Hope you had a good weeekend.	171758017	1476609867799	1476609867874	BKSP	8
335401	3615139	Hope you had a good weekend.	Hope you had a good weeekend.	171758019	1476609867950	1476609868050	BKSP	8
335401	3615139	Hope you had a good weekend.	Hope you had a good weeekend.	171758021	1476609868080	1476609868200	e	69
335401	3615139	Hope you had a good weekend.	Hope you had a good weeekend.	171758022	1476609868219	1476609868510	k	75
335401	3615139	Hope you had a good weekend.	Hope you had a good weeekend.	171758024	1476609868529	1476609868680	e	69
335401	3615139	Hope you had a good weekend.	Hope you had a good weeekend.	171758025	1476609868899	1476609869090	n	78
335401	3615139	Hope you had a good weekend.	Hope you had a good weeekend.	171758036	1476609869070	1476609869209	d	68
335401	3615139	Hope you had a good weekend.	Hope you had a good weeekend.	171758039	1476609869690	1476609869850	.	190
335401	3615145	He started Sunday's game and had two catches for 70 yards.	He started Sunday's game and had two catches for 70 yards.	171758121	1476609873370	1476609873569	SHIFT	16
335401	3615145	He started Sunday's game and had two catches for 70 yards.	He started Sunday's game and had two catches for 70 yards.	171758123	1476609873489	1476609873641	H	72
335401	3615145	He started Sunday's game and had two catches for 70 yards.	He started Sunday's game and had two catches for 70 yards.	171758126	1476609873626	1476609873750	e	69
335401	3615145	He started Sunday's game and had two catches for 70 yards.	He started Sunday's game and had two catches for 70 yards.	171758128	1476609873826	1476609873945	s	83
335401	3615145	He started Sunday's game and had two catches for 70 yards.	He started Sunday's game and had two catches for 70 yards.	171758130	1476609874140	1476609874258	BKSP	8
335401	3615145	He started Sunday's game and had two catches for 70 yards.	He started Sunday's game and had two catches for 70 yards.	171758131	1476609874345	1476609874513	 	32
335401	3615145	He started Sunday's game and had two catches for 70 yards.	He started Sunday's game and had two catches for 70 yards.	171758168	1476609874433	1476609874617	s	83
335401	3615145	He started Sunday's game and had two catches for 70 yards.	He started Sunday's game and had two catches for 70 yards.	171758169	1476609875010	1476609875129	t	84
335401	3615145	He started Sunday's game and had two catches for 70 yards.	He started Sunday's game and had two catches for 70 yards.	171758170	1476609875153	1476609875320	e	69
335401	3615145	He started Sunday's game and had two catches for 70 yards.	He started Sunday's game and had two catches for 70 yards.	171758171	1476609875680	1476609875817	BKSP	8
335401	3615145	He started Sunday's game and had two catches for 70 yards.	He started Sunday's game and had two catches for 70 yards.	171758172	1476609875780	1476609875980	a	65
335401	3615145	He started Sunday's game and had two catches for 70 yards.	He started Sunday's game and had two catches for 70 yards.	171758173	1476609876309	1476609876410	r	82
335401	3615145	He started Sunday's game and had two catches for 70 yards.	He started Sunday's game and had two catches for 70 yards.	171758174	1476609876509	1476609876619	t	84
335401	3615145	He started Sunday's game and had two catches for 70 yards.	He started Sunday's game and had two catches for 70 yards.	171758196	1476609876657	1476609876779	e	69
335401	3615145	He started Sunday's game and had two catches for 70 yards.	He started Sunday's game and had two catches for 70 yards.	171758198	1476609876980	1476609877145	d	68
335401	3615145	He started Sunday's game and had two catches for 70 yards.	He started Sunday's game and had two catches for 70 yards.	171758200	1476609877337	1476609877590	 	32
335401	3615145	He started Sunday's game and had two catches for 70 yards.	He started Sunday's game and had two catches for 70 yards.	171758202	1476609878266	1476609878506	SHIFT	16
335401	3615145	He started Sunday's game and had two catches for 70 yards.	He started Sunday's game and had two catches for 70 yards.	171758204	1476609878401	1476609878539	S	83
335401	3615145	He started Sunday's game and had two catches for 70 yards.	He started Sunday's game and had two catches for 70 yards.	171758207	1476609878639	1476609878705	i	85
335401	3615145	He started Sunday's game and had two catches for 70 yards.	He started Sunday's game and had two catches for 70 yards.	171758238	1476609879089	1476609879229	BKSP	8
335401	3615145	He started Sunday's game and had two catches for 70 yards.	He started Sunday's game and had two catches for 70 yards.	171758240	1476609879389	1476609879589	n	78
335401	3615145	He started Sunday's game and had two catches for 70 yards.	He started Sunday's game and had two catches for 70 yards.	171758242	1476609880250	1476609880489	d	68
335401	3615145	He started Sunday's game and had two catches for 70 yards.	He started Sunday's game and had two catches for 70 yards.	171758243	1476609880570	1476609880737	a	65
335401	3615145	He started Sunday's game and had two catches for 70 yards.	He started Sunday's game and had two catches for 70 yards.	171758244	1476609880874	1476609880946	y	89
335401	3615145	He started Sunday's game and had two catches for 70 yards.	He started Sunday's game and had two catches for 70 yards.	171758245	1476609881577	1476609881779	'	222
335401	3615145	He started Sunday's game and had two catches for 70 yards.	He started Sunday's game and had two catches for 70 yards.	171758292	1476609881699	1476609881874	s	83
335401	3615145	He started Sunday's game and had two catches for 70 yards.	He started Sunday's game and had two catches for 70 yards.	171758294	1476609881930	1476609882229	 	32
335401	3615145	He started Sunday's game and had two catches for 70 yards.	He started Sunday's game and had two catches for 70 yards.	171758296	1476609882660	1476609882750	g	71
335401	3615145	He started Sunday's game and had two catches for 70 yards.	He started Sunday's game and had two catches for 70 yards.	171758298	1476609882750	1476609882938	a	65
335401	3615145	He started Sunday's game and had two catches for 70 yards.	He started Sunday's game and had two catches for 70 yards.	171758299	1476609883181	1476609883281	b	66
335401	3615145	He started Sunday's game and had two catches for 70 yards.	He started Sunday's game and had two catches for 70 yards.	171758301	1476609883611	1476609883740	BKSP	8
335401	3615145	He started Sunday's game and had two catches for 70 yards.	He started Sunday's game and had two catches for 70 yards.	171758304	1476609883961	1476609884122	m	77
335401	3615145	He started Sunday's game and had two catches for 70 yards.	He started Sunday's game and had two catches for 70 yards.	171758321	1476609884026	1476609884130	e	69
335401	3615145	He started Sunday's game and had two catches for 70 yards.	He started Sunday's game and had two catches for 70 yards.	171758324	1476609884419	1476609884661	 	32
335401	3615145	He started Sunday's game and had two catches for 70 yards.	He started Sunday's game and had two catches for 70 yards.	171758326	1476609884586	1476609884731	a	65
335401	3615145	He started Sunday's game and had two catches for 70 yards.	He started Sunday's game and had two catches for 70 yards.	171758330	1476609884880	1476609884994	n	78
335401	3615145	He started Sunday's game and had two catches for 70 yards.	He started Sunday's game and had two catches for 70 yards.	171758332	1476609885010	1476609885060	f	70
335401	3615145	He started Sunday's game and had two catches for 70 yards.	He started Sunday's game and had two catches for 70 yards.	171758335	1476609885141	1476609885351	 	32
335401	3615145	He started Sunday's game and had two catches for 70 yards.	He started Sunday's game and had two catches for 70 yards.	171758369	1476609885380	1476609885490	h	72
335401	3615145	He started Sunday's game and had two catches for 70 yards.	He started Sunday's game and had two catches for 70 yards.	171758371	1476609885650	1476609885754	BKSP	8
335401	3615145	He started Sunday's game and had two catches for 70 yards.	He started Sunday's game and had two catches for 70 yards.	171758373	1476609885850	1476609885910	BKSP	8
335401	3615145	He started Sunday's game and had two catches for 70 yards.	He started Sunday's game and had two catches for 70 yards.	171758375	1476609886010	1476609886080	BKSP	8
335401	3615145	He started Sunday's game and had two catches for 70 yards.	He started Sunday's game and had two catches for 70 yards.	171758377	1476609886160	1476609886307	d	68
335401	3615145	He started Sunday's game and had two catches for 70 yards.	He started Sunday's game and had two catches for 70 yards.	171758381	1476609886362	1476609886586	 	32
335401	3615145	He started Sunday's game and had two catches for 70 yards.	He started Sunday's game and had two catches for 70 yards.	171758384	1476609886530	1476609886750	h	72
335401	3615145	He started Sunday's game and had two catches for 70 yards.	He started Sunday's game and had two catches for 70 yards.	171758387	1476609886980	1476609887120	a	65
335401	3615145	He started Sunday's game and had two catches for 70 yards.	He started Sunday's game and had two catches for 70 yards.	171758409	1476609887300	1476609887427	d	68
335401	3615145	He started Sunday's game and had two catches for 70 yards.	He started Sunday's game and had two catches for 70 yards.	171758410	1476609887510	1476609887761	 	32
335401	3615145	He started Sunday's game and had two catches for 70 yards.	He started Sunday's game and had two catches for 70 yards.	171758412	1476609887954	1476609887970	e	69
335401	3615145	He started Sunday's game and had two catches for 70 yards.	He started Sunday's game and had two catches for 70 yards.	171758415	1476609888530	1476609888710	BKSP	8
335401	3615145	He started Sunday's game and had two catches for 70 yards.	He started Sunday's game and had two catches for 70 yards.	171758445	1476609888730	1476609888786	y	84
335401	3615145	He started Sunday's game and had two catches for 70 yards.	He started Sunday's game and had two catches for 70 yards.	171758447	1476609889180	1476609889298	BKSP	8
335401	3615145	He started Sunday's game and had two catches for 70 yards.	He started Sunday's game and had two catches for 70 yards.	171758449	1476609889747	1476609889841	w	87
335401	3615145	He started Sunday's game and had two catches for 70 yards.	He started Sunday's game and had two catches for 70 yards.	171758451	1476609889923	1476609890061	o	79
335401	3615145	He started Sunday's game and had two catches for 70 yards.	He started Sunday's game and had two catches for 70 yards.	171758453	1476609890490	1476609890820	 	32
335401	3615145	He started Sunday's game and had two catches for 70 yards.	He started Sunday's game and had two catches for 70 yards.	171758456	1476609891067	1476609891160	c	67
335401	3615145	He started Sunday's game and had two catches for 70 yards.	He started Sunday's game and had two catches for 70 yards.	171758459	1476609891230	1476609891470	a	65
335401	3615145	He started Sunday's game and had two catches for 70 yards.	He started Sunday's game and had two catches for 70 yards.	171758477	1476609891541	1476609891700	t	84
335401	3615145	He started Sunday's game and had two catches for 70 yards.	He started Sunday's game and had two catches for 70 yards.	171758478	1476609892031	1476609892186	c	67
335401	3615145	He started Sunday's game and had two catches for 70 yards.	He started Sunday's game and had two catches for 70 yards.	171758479	1476609892194	1476609892330	h	72
335401	3615145	He started Sunday's game and had two catches for 70 yards.	He started Sunday's game and had two catches for 70 yards.	171758480	1476609892338	1476609892450	e	69
335401	3615145	He started Sunday's game and had two catches for 70 yards.	He started Sunday's game and had two catches for 70 yards.	171758481	1476609892550	1476609892690	s	83
335401	3615145	He started Sunday's game and had two catches for 70 yards.	He started Sunday's game and had two catches for 70 yards.	171758495	1476609892714	1476609892938	 	32
335401	3615145	He started Sunday's game and had two catches for 70 yards.	He started Sunday's game and had two catches for 70 yards.	171758496	1476609892882	1476609893002	f	70
335401	3615145	He started Sunday's game and had two catches for 70 yards.	He started Sunday's game and had two catches for 70 yards.	171758497	1476609892986	1476609893147	o	79
335401	3615145	He started Sunday's game and had two catches for 70 yards.	He started Sunday's game and had two catches for 70 yards.	171758498	1476609893130	1476609893301	e	69
335401	3615145	He started Sunday's game and had two catches for 70 yards.	He started Sunday's game and had two catches for 70 yards.	171758499	1476609893722	1476609893882	BKSP	8
335401	3615145	He started Sunday's game and had two catches for 70 yards.	He started Sunday's game and had two catches for 70 yards.	171758561	1476609893841	1476609894002	r	82
335401	3615145	He started Sunday's game and had two catches for 70 yards.	He started Sunday's game and had two catches for 70 yards.	171758563	1476609894020	1476609894320	 	32
335401	3615145	He started Sunday's game and had two catches for 70 yards.	He started Sunday's game and had two catches for 70 yards.	171758565	1476609895341	1476609895466	7	55
335401	3615145	He started Sunday's game and had two catches for 70 yards.	He started Sunday's game and had two catches for 70 yards.	171758567	1476609895561	1476609895690	0	48
335401	3615145	He started Sunday's game and had two catches for 70 yards.	He started Sunday's game and had two catches for 70 yards.	171758568	1476609895867	1476609895970	 	32
335401	3615145	He started Sunday's game and had two catches for 70 yards.	He started Sunday's game and had two catches for 70 yards.	171758569	1476609896510	1476609896650	y	89
335401	3615145	He started Sunday's game and had two catches for 70 yards.	He started Sunday's game and had two catches for 70 yards.	171758621	1476609897066	1476609897210	a	65
335401	3615145	He started Sunday's game and had two catches for 70 yards.	He started Sunday's game and had two catches for 70 yards.	171758623	1476609898120	1476609898290	e	69
335401	3615145	He started Sunday's game and had two catches for 70 yards.	He started Sunday's game and had two catches for 70 yards.	171758625	1476609898626	1476609898802	BKSP	8
335401	3615145	He started Sunday's game and had two catches for 70 yards.	He started Sunday's game and had two catches for 70 yards.	171758627	1476609898730	1476609898870	r	82
335401	3615145	He started Sunday's game and had two catches for 70 yards.	He started Sunday's game and had two catches for 70 yards.	171758630	1476609898962	1476609899110	d	68
335401	3615145	He started Sunday's game and had two catches for 70 yards.	He started Sunday's game and had two catches for 70 yards.	171758635	1476609899202	1476609899351	s	83
335401	3615145	He started Sunday's game and had two catches for 70 yards.	He started Sunday's game and had two catches for 70 yards.	171758644	1476609899819	1476609899915	.	190
335401	3615156	The injury is more serious than the Panthers first expected.	The injury is more serious than the Panthers first expected.	171758695	1476609902910	1476609903090	SHIFT	16
335401	3615156	The injury is more serious than the Panthers first expected.	The injury is more serious than the Panthers first expected.	171758696	1476609903018	1476609903110	T	84
335401	3615156	The injury is more serious than the Panthers first expected.	The injury is more serious than the Panthers first expected.	171758697	1476609903130	1476609903290	h	72
335401	3615156	The injury is more serious than the Panthers first expected.	The injury is more serious than the Panthers first expected.	171758698	1476609903230	1476609903331	e	69
335401	3615156	The injury is more serious than the Panthers first expected.	The injury is more serious than the Panthers first expected.	171758699	1476609903441	1476609903706	 	32
335401	3615156	The injury is more serious than the Panthers first expected.	The injury is more serious than the Panthers first expected.	171758700	1476609903910	1476609904031	i	73
335401	3615156	The injury is more serious than the Panthers first expected.	The injury is more serious than the Panthers first expected.	171758740	1476609904099	1476609904258	n	78
335401	3615156	The injury is more serious than the Panthers first expected.	The injury is more serious than the Panthers first expected.	171758741	1476609904403	1476609904620	h	72
335401	3615156	The injury is more serious than the Panthers first expected.	The injury is more serious than the Panthers first expected.	171758743	1476609904970	1476609905090	BKSP	8
335401	3615156	The injury is more serious than the Panthers first expected.	The injury is more serious than the Panthers first expected.	171758746	1476609905643	1476609905746	j	74
335401	3615156	The injury is more serious than the Panthers first expected.	The injury is more serious than the Panthers first expected.	171758750	1476609905820	1476609905970	u	85
335401	3615156	The injury is more serious than the Panthers first expected.	The injury is more serious than the Panthers first expected.	171758768	1476609905955	1476609906131	r	82
335401	3615156	The injury is more serious than the Panthers first expected.	The injury is more serious than the Panthers first expected.	171758769	1476609906090	1476609906194	y	89
335401	3615156	The injury is more serious than the Panthers first expected.	The injury is more serious than the Panthers first expected.	171758770	1476609906154	1476609906218	r	82
335401	3615156	The injury is more serious than the Panthers first expected.	The injury is more serious than the Panthers first expected.	171758771	1476609906770	1476609906874	BKSP	8
335401	3615156	The injury is more serious than the Panthers first expected.	The injury is more serious than the Panthers first expected.	171758773	1476609906987	1476609907138	 	32
335401	3615156	The injury is more serious than the Panthers first expected.	The injury is more serious than the Panthers first expected.	171758775	1476609907120	1476609907314	i	73
335401	3615156	The injury is more serious than the Panthers first expected.	The injury is more serious than the Panthers first expected.	171758791	1476609907241	1476609907418	s	83
335401	3615156	The injury is more serious than the Panthers first expected.	The injury is more serious than the Panthers first expected.	171758793	1476609907378	1476609907530	 	32
335401	3615156	The injury is more serious than the Panthers first expected.	The injury is more serious than the Panthers first expected.	171758795	1476609907590	1476609907810	m	77
335401	3615156	The injury is more serious than the Panthers first expected.	The injury is more serious than the Panthers first expected.	171758797	1476609907740	1476609907890	o	79
335401	3615156	The injury is more serious than the Panthers first expected.	The injury is more serious than the Panthers first expected.	171758799	1476609907858	1476609908042	r	82
335401	3615156	The injury is more serious than the Panthers first expected.	The injury is more serious than the Panthers first expected.	171758827	1476609907962	1476609908114	e	69
335401	3615156	The injury is more serious than the Panthers first expected.	The injury is more serious than the Panthers first expected.	171758828	1476609908074	1476609908306	 	32
335401	3615156	The injury is more serious than the Panthers first expected.	The injury is more serious than the Panthers first expected.	171758830	1476609908230	1476609908370	s	83
335401	3615156	The injury is more serious than the Panthers first expected.	The injury is more serious than the Panthers first expected.	171758833	1476609908490	1476609908674	r	82
335401	3615156	The injury is more serious than the Panthers first expected.	The injury is more serious than the Panthers first expected.	171758836	1476609908611	1476609908778	e	69
335401	3615156	The injury is more serious than the Panthers first expected.	The injury is more serious than the Panthers first expected.	171758839	1476609908995	1476609909070	BKSP	8
335401	3615156	The injury is more serious than the Panthers first expected.	The injury is more serious than the Panthers first expected.	171758841	1476609909116	1476609909226	BKSP	8
335401	3615156	The injury is more serious than the Panthers first expected.	The injury is more serious than the Panthers first expected.	171758852	1476609909178	1476609909338	e	69
335401	3615156	The injury is more serious than the Panthers first expected.	The injury is more serious than the Panthers first expected.	171758855	1476609909280	1476609909450	r	82
335401	3615156	The injury is more serious than the Panthers first expected.	The injury is more serious than the Panthers first expected.	171758859	1476609909480	1476609909714	i	73
335401	3615156	The injury is more serious than the Panthers first expected.	The injury is more serious than the Panthers first expected.	171758862	1476609910019	1476609910234	o	79
335401	3615156	The injury is more serious than the Panthers first expected.	The injury is more serious than the Panthers first expected.	171758863	1476609910200	1476609910341	u	85
335401	3615156	The injury is more serious than the Panthers first expected.	The injury is more serious than the Panthers first expected.	171758865	1476609910370	1476609910490	s	83
335401	3615156	The injury is more serious than the Panthers first expected.	The injury is more serious than the Panthers first expected.	171758872	1476609910600	1476609910842	 	32
335401	3615156	The injury is more serious than the Panthers first expected.	The injury is more serious than the Panthers first expected.	171758874	1476609910779	1476609910890	t	84
335401	3615156	The injury is more serious than the Panthers first expected.	The injury is more serious than the Panthers first expected.	171758878	1476609910874	1476609911034	h	72
335401	3615156	The injury is more serious than the Panthers first expected.	The injury is more serious than the Panthers first expected.	171758882	1476609911018	1476609911220	a	65
335401	3615156	The injury is more serious than the Panthers first expected.	The injury is more serious than the Panthers first expected.	171758886	1476609911380	1476609911562	n	78
335401	3615156	The injury is more serious than the Panthers first expected.	The injury is more serious than the Panthers first expected.	171758902	1476609911618	1476609911820	 	32
335401	3615156	The injury is more serious than the Panthers first expected.	The injury is more serious than the Panthers first expected.	171758903	1476609911700	1476609911820	t	84
335401	3615156	The injury is more serious than the Panthers first expected.	The injury is more serious than the Panthers first expected.	171758904	1476609911866	1476609911970	h	72
335401	3615156	The injury is more serious than the Panthers first expected.	The injury is more serious than the Panthers first expected.	171758905	1476609911914	1476609912066	e	69
335401	3615156	The injury is more serious than the Panthers first expected.	The injury is more serious than the Panthers first expected.	171758906	1476609912120	1476609912354	 	32
335401	3615156	The injury is more serious than the Panthers first expected.	The injury is more serious than the Panthers first expected.	171758917	1476609912338	1476609912540	p	80
335401	3615156	The injury is more serious than the Panthers first expected.	The injury is more serious than the Panthers first expected.	171758918	1476609912460	1476609912590	a	65
335401	3615156	The injury is more serious than the Panthers first expected.	The injury is more serious than the Panthers first expected.	171758919	1476609912640	1476609912830	n	78
335401	3615156	The injury is more serious than the Panthers first expected.	The injury is more serious than the Panthers first expected.	171758920	1476609913140	1476609913240	t	84
335401	3615156	The injury is more serious than the Panthers first expected.	The injury is more serious than the Panthers first expected.	171758922	1476609913258	1476609913434	h	72
335401	3615156	The injury is more serious than the Panthers first expected.	The injury is more serious than the Panthers first expected.	171758984	1476609913410	1476609913546	e	69
335401	3615156	The injury is more serious than the Panthers first expected.	The injury is more serious than the Panthers first expected.	171758985	1476609913740	1476609913840	BKSP	8
335401	3615156	The injury is more serious than the Panthers first expected.	The injury is more serious than the Panthers first expected.	171758986	1476609913900	1476609913986	BKSP	8
335401	3615156	The injury is more serious than the Panthers first expected.	The injury is more serious than the Panthers first expected.	171758987	1476609914060	1476609914138	BKSP	8
335401	3615156	The injury is more serious than the Panthers first expected.	The injury is more serious than the Panthers first expected.	171758988	1476609914219	1476609914298	BKSP	8
335401	3615156	The injury is more serious than the Panthers first expected.	The injury is more serious than the Panthers first expected.	171758989	1476609914360	1476609914430	BKSP	8
335401	3615156	The injury is more serious than the Panthers first expected.	The injury is more serious than the Panthers first expected.	171758990	1476609914506	1476609914580	BKSP	8
335401	3615156	The injury is more serious than the Panthers first expected.	The injury is more serious than the Panthers first expected.	171758992	1476609914580	1476609914978	SHIFT	16
335401	3615156	The injury is more serious than the Panthers first expected.	The injury is more serious than the Panthers first expected.	171758991	1476609914750	1476609914920	P	80
335401	3615156	The injury is more serious than the Panthers first expected.	The injury is more serious than the Panthers first expected.	171758993	1476609915458	1476609915570	a	65
335401	3615156	The injury is more serious than the Panthers first expected.	The injury is more serious than the Panthers first expected.	171758995	1476609915520	1476609915690	n	78
335401	3615156	The injury is more serious than the Panthers first expected.	The injury is more serious than the Panthers first expected.	171758997	1476609916130	1476609916240	h	72
335401	3615156	The injury is more serious than the Panthers first expected.	The injury is more serious than the Panthers first expected.	171759000	1476609916300	1476609916440	e	69
335401	3615156	The injury is more serious than the Panthers first expected.	The injury is more serious than the Panthers first expected.	171759013	1476609916610	1476609916700	BKSP	8
335401	3615156	The injury is more serious than the Panthers first expected.	The injury is more serious than the Panthers first expected.	171759014	1476609916722	1476609916830	BKSP	8
335401	3615156	The injury is more serious than the Panthers first expected.	The injury is more serious than the Panthers first expected.	171759015	1476609917200	1476609917338	t	84
335401	3615156	The injury is more serious than the Panthers first expected.	The injury is more serious than the Panthers first expected.	171759016	1476609917300	1476609917440	h	72
335401	3615156	The injury is more serious than the Panthers first expected.	The injury is more serious than the Panthers first expected.	171759017	1476609917440	1476609917600	e	69
335401	3615156	The injury is more serious than the Panthers first expected.	The injury is more serious than the Panthers first expected.	171759018	1476609917880	1476609918018	r	82
335401	3615156	The injury is more serious than the Panthers first expected.	The injury is more serious than the Panthers first expected.	171759019	1476609918053	1476609918242	s	83
335401	3615156	The injury is more serious than the Panthers first expected.	The injury is more serious than the Panthers first expected.	171759051	1476609918235	1476609918460	 	32
335401	3615156	The injury is more serious than the Panthers first expected.	The injury is more serious than the Panthers first expected.	171759052	1476609918860	1476609919002	f	70
335401	3615156	The injury is more serious than the Panthers first expected.	The injury is more serious than the Panthers first expected.	171759053	1476609919026	1476609919202	i	73
335401	3615156	The injury is more serious than the Panthers first expected.	The injury is more serious than the Panthers first expected.	171759054	1476609919210	1476609919360	r	82
335401	3615156	The injury is more serious than the Panthers first expected.	The injury is more serious than the Panthers first expected.	171759055	1476609919880	1476609920120	s	83
335401	3615156	The injury is more serious than the Panthers first expected.	The injury is more serious than the Panthers first expected.	171759056	1476609920500	1476609920554	t	84
335401	3615156	The injury is more serious than the Panthers first expected.	The injury is more serious than the Panthers first expected.	171759123	1476609921020	1476609921240	 	32
335401	3615156	The injury is more serious than the Panthers first expected.	The injury is more serious than the Panthers first expected.	171759125	1476609921330	1476609921480	e	69
335401	3615156	The injury is more serious than the Panthers first expected.	The injury is more serious than the Panthers first expected.	171759127	1476609922260	1476609922450	x	88
335401	3615156	The injury is more serious than the Panthers first expected.	The injury is more serious than the Panthers first expected.	171759129	1476609922760	1476609922970	p	80
335401	3615156	The injury is more serious than the Panthers first expected.	The injury is more serious than the Panthers first expected.	171759131	1476609923266	1476609923450	e	69
335401	3615156	The injury is more serious than the Panthers first expected.	The injury is more serious than the Panthers first expected.	171759157	1476609923626	1476609923710	c	67
335401	3615156	The injury is more serious than the Panthers first expected.	The injury is more serious than the Panthers first expected.	171759158	1476609923860	1476609924034	t	84
335401	3615156	The injury is more serious than the Panthers first expected.	The injury is more serious than the Panthers first expected.	171759159	1476609924010	1476609924202	e	69
335401	3615156	The injury is more serious than the Panthers first expected.	The injury is more serious than the Panthers first expected.	171759160	1476609924306	1476609924514	d	68
335401	3615156	The injury is more serious than the Panthers first expected.	The injury is more serious than the Panthers first expected.	171759161	1476609924850	1476609924970	.	190
335401	3615167	The Fed has not taken an official position on the issue.	The Fed has not taken an official position on the issue.	171759244	1476609928778	1476609928954	SHIFT	16
335401	3615167	The Fed has not taken an official position on the issue.	The Fed has not taken an official position on the issue.	171759246	1476609928866	1476609928962	T	84
335401	3615167	The Fed has not taken an official position on the issue.	The Fed has not taken an official position on the issue.	171759248	1476609928946	1476609929066	H	72
335401	3615167	The Fed has not taken an official position on the issue.	The Fed has not taken an official position on the issue.	171759250	1476609929020	1476609929098	e	69
335401	3615167	The Fed has not taken an official position on the issue.	The Fed has not taken an official position on the issue.	171759253	1476609929514	1476609929594	BKSP	8
335401	3615167	The Fed has not taken an official position on the issue.	The Fed has not taken an official position on the issue.	171759255	1476609929640	1476609929720	BKSP	8
335401	3615167	The Fed has not taken an official position on the issue.	The Fed has not taken an official position on the issue.	171759257	1476609929830	1476609929960	h	72
335401	3615167	The Fed has not taken an official position on the issue.	The Fed has not taken an official position on the issue.	171759285	1476609929890	1476609929980	e	69
335401	3615167	The Fed has not taken an official position on the issue.	The Fed has not taken an official position on the issue.	171759286	1476609930210	1476609930458	 	32
335401	3615167	The Fed has not taken an official position on the issue.	The Fed has not taken an official position on the issue.	171759287	1476609930802	1476609931018	SHIFT	16
335401	3615167	The Fed has not taken an official position on the issue.	The Fed has not taken an official position on the issue.	171759288	1476609930930	1476609931026	F	70
335401	3615167	The Fed has not taken an official position on the issue.	The Fed has not taken an official position on the issue.	171759289	1476609930990	1476609931106	E	69
335401	3615167	The Fed has not taken an official position on the issue.	The Fed has not taken an official position on the issue.	171759290	1476609931418	1476609931514	BKSP	8
335401	3615167	The Fed has not taken an official position on the issue.	The Fed has not taken an official position on the issue.	171759291	1476609931500	1476609931610	e	69
335401	3615167	The Fed has not taken an official position on the issue.	The Fed has not taken an official position on the issue.	171759292	1476609931720	1476609931810	d	68
335401	3615167	The Fed has not taken an official position on the issue.	The Fed has not taken an official position on the issue.	171759304	1476609931890	1476609932070	 	32
335401	3615167	The Fed has not taken an official position on the issue.	The Fed has not taken an official position on the issue.	171759306	1476609932220	1476609932370	h	72
335401	3615167	The Fed has not taken an official position on the issue.	The Fed has not taken an official position on the issue.	171759308	1476609932346	1476609932402	a	65
335401	3615167	The Fed has not taken an official position on the issue.	The Fed has not taken an official position on the issue.	171759310	1476609932480	1476609932620	s	83
335401	3615167	The Fed has not taken an official position on the issue.	The Fed has not taken an official position on the issue.	171759312	1476609932666	1476609932820	 	32
335401	3615167	The Fed has not taken an official position on the issue.	The Fed has not taken an official position on the issue.	171759330	1476609932858	1476609933058	n	78
335401	3615167	The Fed has not taken an official position on the issue.	The Fed has not taken an official position on the issue.	171759331	1476609933030	1476609933230	o	79
335401	3615167	The Fed has not taken an official position on the issue.	The Fed has not taken an official position on the issue.	171759332	1476609933260	1476609933394	t	84
335401	3615167	The Fed has not taken an official position on the issue.	The Fed has not taken an official position on the issue.	171759333	1476609933430	1476609933640	 	32
335401	3615167	The Fed has not taken an official position on the issue.	The Fed has not taken an official position on the issue.	171759334	1476609933986	1476609934060	t	84
335401	3615167	The Fed has not taken an official position on the issue.	The Fed has not taken an official position on the issue.	171759370	1476609934378	1476609934522	k	75
335401	3615167	The Fed has not taken an official position on the issue.	The Fed has not taken an official position on the issue.	171759371	1476609934514	1476609934620	e	69
335401	3615167	The Fed has not taken an official position on the issue.	The Fed has not taken an official position on the issue.	171759372	1476609934786	1476609934960	BKSP	8
335401	3615167	The Fed has not taken an official position on the issue.	The Fed has not taken an official position on the issue.	171759373	1476609935146	1476609935242	BKSP	8
335401	3615167	The Fed has not taken an official position on the issue.	The Fed has not taken an official position on the issue.	171759374	1476609935306	1476609935466	a	65
335401	3615167	The Fed has not taken an official position on the issue.	The Fed has not taken an official position on the issue.	171759375	1476609935420	1476609935609	k	75
335401	3615167	The Fed has not taken an official position on the issue.	The Fed has not taken an official position on the issue.	171759376	1476609935609	1476609935700	e	69
335401	3615167	The Fed has not taken an official position on the issue.	The Fed has not taken an official position on the issue.	171759400	1476609935938	1476609936074	n	78
335401	3615167	The Fed has not taken an official position on the issue.	The Fed has not taken an official position on the issue.	171759402	1476609936138	1476609936310	 	32
335401	3615167	The Fed has not taken an official position on the issue.	The Fed has not taken an official position on the issue.	171759403	1476609936230	1476609936386	a	65
335401	3615167	The Fed has not taken an official position on the issue.	The Fed has not taken an official position on the issue.	171759404	1476609936370	1476609936522	n	78
335401	3615167	The Fed has not taken an official position on the issue.	The Fed has not taken an official position on the issue.	171759405	1476609936560	1476609936738	 	32
335401	3615167	The Fed has not taken an official position on the issue.	The Fed has not taken an official position on the issue.	171759434	1476609936730	1476609936842	o	79
335401	3615167	The Fed has not taken an official position on the issue.	The Fed has not taken an official position on the issue.	171759438	1476609937050	1476609937154	f	70
335401	3615167	The Fed has not taken an official position on the issue.	The Fed has not taken an official position on the issue.	171759440	1476609937220	1476609937300	f	70
335401	3615167	The Fed has not taken an official position on the issue.	The Fed has not taken an official position on the issue.	171759444	1476609937550	1476609937778	i	73
335401	3615167	The Fed has not taken an official position on the issue.	The Fed has not taken an official position on the issue.	171759446	1476609937860	1476609938018	c	67
335401	3615167	The Fed has not taken an official position on the issue.	The Fed has not taken an official position on the issue.	171759449	1476609938060	1476609938202	i	73
335401	3615167	The Fed has not taken an official position on the issue.	The Fed has not taken an official position on the issue.	171759455	1476609938346	1476609938498	a	65
335401	3615167	The Fed has not taken an official position on the issue.	The Fed has not taken an official position on the issue.	171759456	1476609938466	1476609938610	l	76
335401	3615167	The Fed has not taken an official position on the issue.	The Fed has not taken an official position on the issue.	171759457	1476609938750	1476609938954	 	32
335401	3615167	The Fed has not taken an official position on the issue.	The Fed has not taken an official position on the issue.	171759458	1476609939070	1476609939226	p	80
335401	3615167	The Fed has not taken an official position on the issue.	The Fed has not taken an official position on the issue.	171759459	1476609939329	1476609939470	o	79
335401	3615167	The Fed has not taken an official position on the issue.	The Fed has not taken an official position on the issue.	171759479	1476609939506	1476609939626	a	65
335401	3615167	The Fed has not taken an official position on the issue.	The Fed has not taken an official position on the issue.	171759482	1476609939780	1476609939850	s	83
335401	3615167	The Fed has not taken an official position on the issue.	The Fed has not taken an official position on the issue.	171759484	1476609939826	1476609940010	i	73
335401	3615167	The Fed has not taken an official position on the issue.	The Fed has not taken an official position on the issue.	171759486	1476609940338	1476609940420	BKSP	8
335401	3615167	The Fed has not taken an official position on the issue.	The Fed has not taken an official position on the issue.	171759488	1476609940500	1476609940578	BKSP	8
335401	3615167	The Fed has not taken an official position on the issue.	The Fed has not taken an official position on the issue.	171759491	1476609940669	1476609940754	BKSP	8
335401	3615167	The Fed has not taken an official position on the issue.	The Fed has not taken an official position on the issue.	171759494	1476609940910	1476609941154	s	83
335401	3615167	The Fed has not taken an official position on the issue.	The Fed has not taken an official position on the issue.	171759510	1476609941018	1476609941260	i	73
335401	3615167	The Fed has not taken an official position on the issue.	The Fed has not taken an official position on the issue.	171759512	1476609941359	1476609941482	t	84
335401	3615167	The Fed has not taken an official position on the issue.	The Fed has not taken an official position on the issue.	171759514	1476609941490	1476609941554	i	73
335401	3615167	The Fed has not taken an official position on the issue.	The Fed has not taken an official position on the issue.	171759517	1476609941522	1476609941778	o	79
335401	3615167	The Fed has not taken an official position on the issue.	The Fed has not taken an official position on the issue.	171759520	1476609941880	1476609942058	n	78
335401	3615167	The Fed has not taken an official position on the issue.	The Fed has not taken an official position on the issue.	171759522	1476609942090	1476609942234	 	32
335401	3615167	The Fed has not taken an official position on the issue.	The Fed has not taken an official position on the issue.	171759537	1476609942226	1476609942599	o	79
335401	3615167	The Fed has not taken an official position on the issue.	The Fed has not taken an official position on the issue.	171759538	1476609942620	1476609942818	n	78
335401	3615167	The Fed has not taken an official position on the issue.	The Fed has not taken an official position on the issue.	171759539	1476609942890	1476609943121	 	32
335401	3615167	The Fed has not taken an official position on the issue.	The Fed has not taken an official position on the issue.	171759540	1476609943089	1476609943201	t	84
335401	3615167	The Fed has not taken an official position on the issue.	The Fed has not taken an official position on the issue.	171759541	1476609943193	1476609943321	h	72
335401	3615167	The Fed has not taken an official position on the issue.	The Fed has not taken an official position on the issue.	171759552	1476609943297	1476609943429	e	69
335401	3615167	The Fed has not taken an official position on the issue.	The Fed has not taken an official position on the issue.	171759554	1476609943429	1476609943609	 	32
335401	3615167	The Fed has not taken an official position on the issue.	The Fed has not taken an official position on the issue.	171759556	1476609943619	1476609943857	i	73
335401	3615167	The Fed has not taken an official position on the issue.	The Fed has not taken an official position on the issue.	171759558	1476609943759	1476609943857	s	83
335401	3615167	The Fed has not taken an official position on the issue.	The Fed has not taken an official position on the issue.	171759560	1476609943937	1476609944025	s	83
335401	3615167	The Fed has not taken an official position on the issue.	The Fed has not taken an official position on the issue.	171759562	1476609944079	1476609944199	u	85
335401	3615167	The Fed has not taken an official position on the issue.	The Fed has not taken an official position on the issue.	171759585	1476609944409	1476609944521	r	82
335401	3615167	The Fed has not taken an official position on the issue.	The Fed has not taken an official position on the issue.	171759586	1476609944457	1476609944608	e	69
335401	3615167	The Fed has not taken an official position on the issue.	The Fed has not taken an official position on the issue.	171759587	1476609944721	1476609944949	.	190
335401	3615167	The Fed has not taken an official position on the issue.	The Fed has not taken an official position on the issue.	171759588	1476609945139	1476609945219	BKSP	8
335401	3615167	The Fed has not taken an official position on the issue.	The Fed has not taken an official position on the issue.	171759589	1476609945309	1476609945401	BKSP	8
335401	3615167	The Fed has not taken an official position on the issue.	The Fed has not taken an official position on the issue.	171759590	1476609945488	1476609945559	BKSP	8
335401	3615167	The Fed has not taken an official position on the issue.	The Fed has not taken an official position on the issue.	171759591	1476609945619	1476609945769	e	69
335401	3615167	The Fed has not taken an official position on the issue.	The Fed has not taken an official position on the issue.	171759592	1476609945819	1476609945979	.	190
335401	3615176	Call me if you have any questions.	Call me if you have any questions.	171759661	1476609948457	1476609948977	SHIFT	16
335401	3615176	Call me if you have any questions.	Call me if you have any questions.	171759663	1476609949119	1476609949785	SHIFT	16
335401	3615176	Call me if you have any questions.	Call me if you have any questions.	171759665	1476609949665	1476609949798	C	67
335401	3615176	Call me if you have any questions.	Call me if you have any questions.	171759667	1476609950097	1476609950217	a	65
335401	3615176	Call me if you have any questions.	Call me if you have any questions.	171759669	1476609950225	1476609950289	l	76
335401	3615176	Call me if you have any questions.	Call me if you have any questions.	171759671	1476609950349	1476609950444	l	76
335401	3615176	Call me if you have any questions.	Call me if you have any questions.	171759672	1476609950508	1476609950657	 	32
335401	3615176	Call me if you have any questions.	Call me if you have any questions.	171759679	1476609950665	1476609950801	m	77
335401	3615176	Call me if you have any questions.	Call me if you have any questions.	171759680	1476609950761	1476609950865	e	69
335401	3615176	Call me if you have any questions.	Call me if you have any questions.	171759681	1476609950889	1476609951025	 	32
335401	3615176	Call me if you have any questions.	Call me if you have any questions.	171759682	1476609951026	1476609951217	i	73
335401	3615176	Call me if you have any questions.	Call me if you have any questions.	171759721	1476609951169	1476609951361	f	70
335401	3615176	Call me if you have any questions.	Call me if you have any questions.	171759722	1476609951369	1476609951539	 	32
335401	3615176	Call me if you have any questions.	Call me if you have any questions.	171759723	1476609951618	1476609951785	o	79
335401	3615176	Call me if you have any questions.	Call me if you have any questions.	171759724	1476609951759	1476609951833	y	89
335401	3615176	Call me if you have any questions.	Call me if you have any questions.	171759725	1476609952259	1476609952345	BKSP	8
335401	3615176	Call me if you have any questions.	Call me if you have any questions.	171759726	1476609952417	1476609952489	BKSP	8
335401	3615176	Call me if you have any questions.	Call me if you have any questions.	171759727	1476609952939	1476609953019	y	89
335401	3615176	Call me if you have any questions.	Call me if you have any questions.	171759728	1476609953059	1476609953209	o	79
335401	3615176	Call me if you have any questions.	Call me if you have any questions.	171759755	1476609953178	1476609953319	u	85
335401	3615176	Call me if you have any questions.	Call me if you have any questions.	171759758	1476609953513	1476609953697	 	32
335401	3615176	Call me if you have any questions.	Call me if you have any questions.	171759760	1476609953785	1476609953937	h	72
335401	3615176	Call me if you have any questions.	Call me if you have any questions.	171759761	1476609953906	1476609954017	a	65
335401	3615176	Call me if you have any questions.	Call me if you have any questions.	171759762	1476609954159	1476609954305	c	67
335401	3615176	Call me if you have any questions.	Call me if you have any questions.	171759763	1476609954378	1476609954545	e	69
335401	3615176	Call me if you have any questions.	Call me if you have any questions.	171759770	1476609954688	1476609954759	BKSP	8
335401	3615176	Call me if you have any questions.	Call me if you have any questions.	171759771	1476609954819	1476609954919	BKSP	8
335401	3615176	Call me if you have any questions.	Call me if you have any questions.	171759772	1476609954889	1476609955025	v	86
335401	3615176	Call me if you have any questions.	Call me if you have any questions.	171759773	1476609955009	1476609955161	e	69
335401	3615176	Call me if you have any questions.	Call me if you have any questions.	171759774	1476609955129	1476609955297	 	32
335401	3615176	Call me if you have any questions.	Call me if you have any questions.	171759775	1476609955241	1476609955377	a	65
335401	3615176	Call me if you have any questions.	Call me if you have any questions.	171759806	1476609955358	1476609955521	n	78
335401	3615176	Call me if you have any questions.	Call me if you have any questions.	171759807	1476609955599	1476609955729	y	89
335401	3615176	Call me if you have any questions.	Call me if you have any questions.	171759808	1476609955889	1476609956028	 	32
335401	3615176	Call me if you have any questions.	Call me if you have any questions.	171759809	1476609956598	1476609956749	q	81
335401	3615176	Call me if you have any questions.	Call me if you have any questions.	171759810	1476609956848	1476609956999	u	85
335401	3615176	Call me if you have any questions.	Call me if you have any questions.	171759811	1476609957016	1476609957161	i	73
335401	3615176	Call me if you have any questions.	Call me if you have any questions.	171759838	1476609957209	1476609957339	d	68
335401	3615176	Call me if you have any questions.	Call me if you have any questions.	171759840	1476609957539	1476609957625	BKSP	8
335401	3615176	Call me if you have any questions.	Call me if you have any questions.	171759842	1476609957705	1476609957809	BKSP	8
335401	3615176	Call me if you have any questions.	Call me if you have any questions.	171759844	1476609957745	1476609957857	e	69
335401	3615176	Call me if you have any questions.	Call me if you have any questions.	171759846	1476609957945	1476609958105	s	83
335401	3615176	Call me if you have any questions.	Call me if you have any questions.	171759848	1476609958198	1476609958329	t	84
335401	3615176	Call me if you have any questions.	Call me if you have any questions.	171759850	1476609958337	1476609958505	i	73
335401	3615176	Call me if you have any questions.	Call me if you have any questions.	171759886	1476609958449	1476609958649	o	79
335401	3615176	Call me if you have any questions.	Call me if you have any questions.	171759888	1476609958708	1476609958889	n	78
335401	3615176	Call me if you have any questions.	Call me if you have any questions.	171759890	1476609958859	1476609959056	s	83
335401	3615176	Call me if you have any questions.	Call me if you have any questions.	171759892	1476609959065	1476609959225	l	76
335401	3615176	Call me if you have any questions.	Call me if you have any questions.	171759894	1476609959640	1476609959777	BKSP	8
335401	3615176	Call me if you have any questions.	Call me if you have any questions.	171759897	1476609959969	1476609960248	,	190
335401	3615176	Call me if you have any questions.	Call me if you have any questions.	171759898	1476609960459	1476609960579	BKSP	8
335401	3615181	Thanks again for thinking of me.	Thanks again for thinking of me.	171759956	1476609960718	1476609963825	SHIFT	16
335401	3615181	Thanks again for thinking of me.	Thanks again for thinking of me.	171759955	1476609963728	1476609963808	T	84
335401	3615181	Thanks again for thinking of me.	Thanks again for thinking of me.	171759957	1476609963768	1476609963918	H	72
335401	3615181	Thanks again for thinking of me.	Thanks again for thinking of me.	171759958	1476609963949	1476609964089	e	69
335401	3615181	Thanks again for thinking of me.	Thanks again for thinking of me.	171759959	1476609964313	1476609964398	BKSP	8
335401	3615181	Thanks again for thinking of me.	Thanks again for thinking of me.	171759960	1476609964456	1476609964528	BKSP	8
335401	3615181	Thanks again for thinking of me.	Thanks again for thinking of me.	171759961	1476609964559	1476609964657	e	69
335401	3615181	Thanks again for thinking of me.	Thanks again for thinking of me.	171759962	1476609964668	1476609964798	h	72
335401	3615181	Thanks again for thinking of me.	Thanks again for thinking of me.	171759993	1476609965097	1476609965176	BKSP	8
335401	3615181	Thanks again for thinking of me.	Thanks again for thinking of me.	171759994	1476609965224	1476609965281	BKSP	8
335401	3615181	Thanks again for thinking of me.	Thanks again for thinking of me.	171759996	1476609965408	1476609965513	h	72
335401	3615181	Thanks again for thinking of me.	Thanks again for thinking of me.	171759998	1476609965488	1476609965544	e	69
335401	3615181	Thanks again for thinking of me.	Thanks again for thinking of me.	171760000	1476609966048	1476609966139	BKSP	8
335401	3615181	Thanks again for thinking of me.	Thanks again for thinking of me.	171760002	1476609966097	1476609966268	a	65
335401	3615181	Thanks again for thinking of me.	Thanks again for thinking of me.	171760004	1476609966368	1476609966488	n	78
335401	3615181	Thanks again for thinking of me.	Thanks again for thinking of me.	171760005	1476609966824	1476609966897	k	75
335401	3615181	Thanks again for thinking of me.	Thanks again for thinking of me.	171760036	1476609966978	1476609967039	s	83
335401	3615181	Thanks again for thinking of me.	Thanks again for thinking of me.	171760038	1476609967598	1476609967779	 	32
335401	3615181	Thanks again for thinking of me.	Thanks again for thinking of me.	171760040	1476609967809	1476609968048	a	65
335401	3615181	Thanks again for thinking of me.	Thanks again for thinking of me.	171760042	1476609968384	1476609968498	g	71
335401	3615181	Thanks again for thinking of me.	Thanks again for thinking of me.	171760044	1476609969059	1476609969248	a	65
335401	3615181	Thanks again for thinking of me.	Thanks again for thinking of me.	171760084	1476609969199	1476609969345	i	73
335401	3615181	Thanks again for thinking of me.	Thanks again for thinking of me.	171760088	1476609969521	1476609969688	n	78
335401	3615181	Thanks again for thinking of me.	Thanks again for thinking of me.	171760091	1476609969839	1476609970029	f	70
335401	3615181	Thanks again for thinking of me.	Thanks again for thinking of me.	171760094	1476609969976	1476609970198	o	79
335401	3615181	Thanks again for thinking of me.	Thanks again for thinking of me.	171760096	1476609970272	1476609970377	r	82
335401	3615181	Thanks again for thinking of me.	Thanks again for thinking of me.	171760097	1476609970512	1476609970585	BKSP	8
335401	3615181	Thanks again for thinking of me.	Thanks again for thinking of me.	171760098	1476609970659	1476609970728	BKSP	8
335401	3615181	Thanks again for thinking of me.	Thanks again for thinking of me.	171760099	1476609970808	1476609970889	BKSP	8
335401	3615181	Thanks again for thinking of me.	Thanks again for thinking of me.	171760100	1476609971018	1476609971225	 	32
335401	3615181	Thanks again for thinking of me.	Thanks again for thinking of me.	171760101	1476609971209	1476609971392	f	70
335401	3615181	Thanks again for thinking of me.	Thanks again for thinking of me.	171760102	1476609971349	1476609971508	o	79
335401	3615181	Thanks again for thinking of me.	Thanks again for thinking of me.	171760103	1476609971508	1476609971669	r	82
335401	3615181	Thanks again for thinking of me.	Thanks again for thinking of me.	171760104	1476609971868	1476609972072	 	32
335401	3615181	Thanks again for thinking of me.	Thanks again for thinking of me.	171760105	1476609972029	1476609972169	t	84
335401	3615181	Thanks again for thinking of me.	Thanks again for thinking of me.	171760114	1476609972108	1476609972248	h	72
335401	3615181	Thanks again for thinking of me.	Thanks again for thinking of me.	171760115	1476609972239	1476609972378	i	73
335401	3615181	Thanks again for thinking of me.	Thanks again for thinking of me.	171760116	1476609972459	1476609972656	n	78
335401	3615181	Thanks again for thinking of me.	Thanks again for thinking of me.	171760117	1476609972664	1476609972839	k	75
335401	3615181	Thanks again for thinking of me.	Thanks again for thinking of me.	171760118	1476609972939	1476609973078	i	73
335401	3615181	Thanks again for thinking of me.	Thanks again for thinking of me.	171760119	1476609973149	1476609973328	n	78
335401	3615181	Thanks again for thinking of me.	Thanks again for thinking of me.	171760126	1476609973352	1476609973496	g	71
335401	3615181	Thanks again for thinking of me.	Thanks again for thinking of me.	171760127	1476609973699	1476609973905	 	32
335401	3615181	Thanks again for thinking of me.	Thanks again for thinking of me.	171760128	1476609973889	1476609974059	o	79
335401	3615181	Thanks again for thinking of me.	Thanks again for thinking of me.	171760129	1476609974098	1476609974264	f	70
335401	3615181	Thanks again for thinking of me.	Thanks again for thinking of me.	171760130	1476609974268	1476609974449	 	32
335401	3615181	Thanks again for thinking of me.	Thanks again for thinking of me.	171760146	1476609974625	1476609974928	m	77
335401	3615181	Thanks again for thinking of me.	Thanks again for thinking of me.	171760144	1476609974708	1476609974840	e	69
335401	3615181	Thanks again for thinking of me.	Thanks again for thinking of me.	171760149	1476609974953	1476609975099	.	190
335401	3615187	I am now officially a Blackberry addict.	I am now officially a Blackberry addict.	171760202	1476609978308	1476609978549	SHIFT	16
335401	3615187	I am now officially a Blackberry addict.	I am now officially a Blackberry addict.	171760199	1476609978408	1476609978508	I	73
335401	3615187	I am now officially a Blackberry addict.	I am now officially a Blackberry addict.	171760204	1476609978600	1476609978768	 	32
335401	3615187	I am now officially a Blackberry addict.	I am now officially a Blackberry addict.	171760206	1476609978738	1476609978864	a	65
335401	3615187	I am now officially a Blackberry addict.	I am now officially a Blackberry addict.	171760207	1476609978828	1476609979028	m	77
335401	3615187	I am now officially a Blackberry addict.	I am now officially a Blackberry addict.	171760208	1476609979049	1476609979304	 	32
335401	3615187	I am now officially a Blackberry addict.	I am now officially a Blackberry addict.	171760215	1476609979379	1476609979544	n	78
335401	3615187	I am now officially a Blackberry addict.	I am now officially a Blackberry addict.	171760217	1476609979529	1476609979738	o	79
335401	3615187	I am now officially a Blackberry addict.	I am now officially a Blackberry addict.	171760219	1476609979668	1476609979878	w	87
335401	3615187	I am now officially a Blackberry addict.	I am now officially a Blackberry addict.	171760221	1476609979878	1476609980118	 	32
335401	3615187	I am now officially a Blackberry addict.	I am now officially a Blackberry addict.	171760223	1476609980136	1476609980320	o	79
335401	3615187	I am now officially a Blackberry addict.	I am now officially a Blackberry addict.	171760242	1476609980249	1476609980336	f	70
335401	3615187	I am now officially a Blackberry addict.	I am now officially a Blackberry addict.	171760243	1476609980424	1476609980521	f	70
335401	3615187	I am now officially a Blackberry addict.	I am now officially a Blackberry addict.	171760244	1476609980598	1476609980824	i	73
335401	3615187	I am now officially a Blackberry addict.	I am now officially a Blackberry addict.	171760245	1476609980788	1476609980839	d	68
335401	3615187	I am now officially a Blackberry addict.	I am now officially a Blackberry addict.	171760246	1476609980978	1476609981088	c	67
335401	3615187	I am now officially a Blackberry addict.	I am now officially a Blackberry addict.	171760247	1476609981349	1476609981448	BKSP	8
335401	3615187	I am now officially a Blackberry addict.	I am now officially a Blackberry addict.	171760248	1476609981504	1476609981561	BKSP	8
335401	3615187	I am now officially a Blackberry addict.	I am now officially a Blackberry addict.	171760268	1476609981552	1476609981704	c	67
335401	3615187	I am now officially a Blackberry addict.	I am now officially a Blackberry addict.	171760269	1476609981712	1476609981880	i	73
335401	3615187	I am now officially a Blackberry addict.	I am now officially a Blackberry addict.	171760270	1476609981858	1476609982016	a	65
335401	3615187	I am now officially a Blackberry addict.	I am now officially a Blackberry addict.	171760271	1476609981978	1476609982088	l	76
335401	3615187	I am now officially a Blackberry addict.	I am now officially a Blackberry addict.	171760273	1476609982178	1476609982264	l	76
335401	3615187	I am now officially a Blackberry addict.	I am now officially a Blackberry addict.	171760275	1476609982458	1476609982628	y	89
335401	3615187	I am now officially a Blackberry addict.	I am now officially a Blackberry addict.	171760310	1476609982778	1476609982918	 	32
335401	3615187	I am now officially a Blackberry addict.	I am now officially a Blackberry addict.	171760311	1476609982960	1476609983128	a	65
335401	3615187	I am now officially a Blackberry addict.	I am now officially a Blackberry addict.	171760313	1476609983129	1476609983376	 	32
335401	3615187	I am now officially a Blackberry addict.	I am now officially a Blackberry addict.	171760315	1476609983777	1476609983978	SHIFT	16
335401	3615187	I am now officially a Blackberry addict.	I am now officially a Blackberry addict.	171760317	1476609983878	1476609984000	B	66
335401	3615187	I am now officially a Blackberry addict.	I am now officially a Blackberry addict.	171760318	1476609984056	1476609984228	l	76
335401	3615187	I am now officially a Blackberry addict.	I am now officially a Blackberry addict.	171760348	1476609984149	1476609984298	a	65
335401	3615187	I am now officially a Blackberry addict.	I am now officially a Blackberry addict.	171760349	1476609984888	1476609985056	c	67
335401	3615187	I am now officially a Blackberry addict.	I am now officially a Blackberry addict.	171760350	1476609985809	1476609986008	k	75
335401	3615187	I am now officially a Blackberry addict.	I am now officially a Blackberry addict.	171760351	1476609986208	1476609986416	 	32
335401	3615187	I am now officially a Blackberry addict.	I am now officially a Blackberry addict.	171760352	1476609986696	1476609986784	=	8
335401	3615187	I am now officially a Blackberry addict.	I am now officially a Blackberry addict.	171760407	1476609986776	1476609986888	b	66
335401	3615187	I am now officially a Blackberry addict.	I am now officially a Blackberry addict.	171760408	1476609987217	1476609987288	BKSP	8
335401	3615187	I am now officially a Blackberry addict.	I am now officially a Blackberry addict.	171760409	1476609987368	1476609987456	BKSP	8
335401	3615187	I am now officially a Blackberry addict.	I am now officially a Blackberry addict.	171760410	1476609987432	1476609987552	b	66
335401	3615187	I am now officially a Blackberry addict.	I am now officially a Blackberry addict.	171760411	1476609988016	1476609988144	r	82
335401	3615187	I am now officially a Blackberry addict.	I am now officially a Blackberry addict.	171760412	1476609988592	1476609988719	BKSP	8
335401	3615187	I am now officially a Blackberry addict.	I am now officially a Blackberry addict.	171760413	1476609988768	1476609988896	e	69
335401	3615187	I am now officially a Blackberry addict.	I am now officially a Blackberry addict.	171760414	1476609989229	1476609989288	r	82
335401	3615187	I am now officially a Blackberry addict.	I am now officially a Blackberry addict.	171760415	1476609989338	1476609989429	r	82
335401	3615187	I am now officially a Blackberry addict.	I am now officially a Blackberry addict.	171760402	1476609989505	1476609989648	y	89
335401	3615187	I am now officially a Blackberry addict.	I am now officially a Blackberry addict.	171760403	1476609989784	1476609989948	 	32
335401	3615187	I am now officially a Blackberry addict.	I am now officially a Blackberry addict.	171760404	1476609990098	1476609990218	a	65
335401	3615187	I am now officially a Blackberry addict.	I am now officially a Blackberry addict.	171760405	1476609990338	1476609990438	d	68
335401	3615187	I am now officially a Blackberry addict.	I am now officially a Blackberry addict.	171760406	1476609990528	1476609990616	d	68
335401	3615187	I am now officially a Blackberry addict.	I am now officially a Blackberry addict.	171760426	1476609990656	1476609990912	i	73
335401	3615187	I am now officially a Blackberry addict.	I am now officially a Blackberry addict.	171760428	1476609990848	1476609991096	c	67
335401	3615187	I am now officially a Blackberry addict.	I am now officially a Blackberry addict.	171760431	1476609991148	1476609991268	k	75
335401	3615187	I am now officially a Blackberry addict.	I am now officially a Blackberry addict.	171760433	1476609991497	1476609991672	BKSP	8
335401	3615187	I am now officially a Blackberry addict.	I am now officially a Blackberry addict.	171760470	1476609991648	1476609991839	y	84
335401	3615187	I am now officially a Blackberry addict.	I am now officially a Blackberry addict.	171760472	1476609992384	1476609992496	BKSP	8
335401	3615187	I am now officially a Blackberry addict.	I am now officially a Blackberry addict.	171760473	1476609992658	1476609992936	/	191
335401	3615187	I am now officially a Blackberry addict.	I am now officially a Blackberry addict.	171760475	1476609993118	1476609993232	BKSP	8
335401	3615187	I am now officially a Blackberry addict.	I am now officially a Blackberry addict.	171760476	1476609993712	1476609993768	.	190
335401	3615192	We have been working on clay for four weeks.	We have been working on clay for four weeks.	171760557	1476609996657	1476609996864	SHIFT	16
335401	3615192	We have been working on clay for four weeks.	We have been working on clay for four weeks.	171760558	1476609996801	1476609996928	W	87
335401	3615192	We have been working on clay for four weeks.	We have been working on clay for four weeks.	171760559	1476609997368	1476609997512	e	69
335401	3615192	We have been working on clay for four weeks.	We have been working on clay for four weeks.	171760560	1476609997544	1476609997728	 	32
335401	3615192	We have been working on clay for four weeks.	We have been working on clay for four weeks.	171760561	1476609997778	1476609997904	h	72
335401	3615192	We have been working on clay for four weeks.	We have been working on clay for four weeks.	171760572	1476609997856	1476609997968	a	65
335401	3615192	We have been working on clay for four weeks.	We have been working on clay for four weeks.	171760573	1476609998088	1476609998208	c	67
335401	3615192	We have been working on clay for four weeks.	We have been working on clay for four weeks.	171760574	1476609998318	1476609998472	e	69
335401	3615192	We have been working on clay for four weeks.	We have been working on clay for four weeks.	171760575	1476609998598	1476609998678	BKSP	8
335401	3615192	We have been working on clay for four weeks.	We have been working on clay for four weeks.	171760576	1476609998739	1476609998848	BKSP	8
335401	3615192	We have been working on clay for four weeks.	We have been working on clay for four weeks.	171760577	1476609998788	1476609998944	v	86
335401	3615192	We have been working on clay for four weeks.	We have been working on clay for four weeks.	171760578	1476609998918	1476609999072	e	69
335401	3615192	We have been working on clay for four weeks.	We have been working on clay for four weeks.	171760587	1476609999018	1476609999218	 	32
335401	3615192	We have been working on clay for four weeks.	We have been working on clay for four weeks.	171760588	1476609999428	1476609999548	b	66
335401	3615192	We have been working on clay for four weeks.	We have been working on clay for four weeks.	171760589	1476609999638	1476609999704	e	69
335401	3615192	We have been working on clay for four weeks.	We have been working on clay for four weeks.	171760590	1476609999767	1476609999864	e	69
335401	3615192	We have been working on clay for four weeks.	We have been working on clay for four weeks.	171760591	1476609999984	1476610000064	n	78
335401	3615192	We have been working on clay for four weeks.	We have been working on clay for four weeks.	171760617	1476610000028	1476610000198	m	77
335401	3615192	We have been working on clay for four weeks.	We have been working on clay for four weeks.	171760619	1476610000569	1476610000708	BKSP	8
335401	3615192	We have been working on clay for four weeks.	We have been working on clay for four weeks.	171760621	1476610000840	1476610001038	 	32
335401	3615192	We have been working on clay for four weeks.	We have been working on clay for four weeks.	171760623	1476610001078	1476610001278	w	87
335401	3615192	We have been working on clay for four weeks.	We have been working on clay for four weeks.	171760625	1476610001278	1476610001358	p	79
335401	3615192	We have been working on clay for four weeks.	We have been working on clay for four weeks.	171760626	1476610001678	1476610001816	BKSP	8
335401	3615192	We have been working on clay for four weeks.	We have been working on clay for four weeks.	171760627	1476610001928	1476610002068	r	82
335401	3615192	We have been working on clay for four weeks.	We have been working on clay for four weeks.	171760650	1476610002298	1476610002416	k	75
335401	3615192	We have been working on clay for four weeks.	We have been working on clay for four weeks.	171760653	1476610002508	1476610002588	o	79
335401	3615192	We have been working on clay for four weeks.	We have been working on clay for four weeks.	171760654	1476610002658	1476610002856	n	78
335401	3615192	We have been working on clay for four weeks.	We have been working on clay for four weeks.	171760657	1476610002848	1476610003024	g	71
335401	3615192	We have been working on clay for four weeks.	We have been working on clay for four weeks.	171760660	1476610003278	1476610003360	BKSP	8
335401	3615192	We have been working on clay for four weeks.	We have been working on clay for four weeks.	171760662	1476610003440	1476610003512	BKSP	8
335401	3615192	We have been working on clay for four weeks.	We have been working on clay for four weeks.	171760665	1476610003561	1476610003638	BKSP	8
335401	3615192	We have been working on clay for four weeks.	We have been working on clay for four weeks.	171760667	1476610003918	1476610004064	i	73
335401	3615192	We have been working on clay for four weeks.	We have been working on clay for four weeks.	171760687	1476610004144	1476610004344	n	78
335401	3615192	We have been working on clay for four weeks.	We have been working on clay for four weeks.	171760690	1476610004424	1476610004638	g	71
335401	3615192	We have been working on clay for four weeks.	We have been working on clay for four weeks.	171760693	1476610004778	1476610004952	 	32
335401	3615192	We have been working on clay for four weeks.	We have been working on clay for four weeks.	171760694	1476610004952	1476610005138	o	79
335401	3615192	We have been working on clay for four weeks.	We have been working on clay for four weeks.	171760695	1476610005208	1476610005376	n	78
335401	3615192	We have been working on clay for four weeks.	We have been working on clay for four weeks.	171760701	1476610005418	1476610005616	 	32
335401	3615192	We have been working on clay for four weeks.	We have been working on clay for four weeks.	171760703	1476610005728	1476610005872	c	67
335401	3615192	We have been working on clay for four weeks.	We have been working on clay for four weeks.	171760705	1476610005838	1476610006028	l	76
335401	3615192	We have been working on clay for four weeks.	We have been working on clay for four weeks.	171760707	1476610006000	1476610006144	a	65
335401	3615192	We have been working on clay for four weeks.	We have been working on clay for four weeks.	171760709	1476610006267	1476610006428	y	89
335401	3615192	We have been working on clay for four weeks.	We have been working on clay for four weeks.	171760723	1476610006584	1476610006758	 	32
335401	3615192	We have been working on clay for four weeks.	We have been working on clay for four weeks.	171760726	1476610006758	1476610006944	f	70
335401	3615192	We have been working on clay for four weeks.	We have been working on clay for four weeks.	171760728	1476610006878	1476610007108	o	79
335401	3615192	We have been working on clay for four weeks.	We have been working on clay for four weeks.	171760730	1476610007128	1476610007312	r	82
335401	3615192	We have been working on clay for four weeks.	We have been working on clay for four weeks.	171760769	1476610007304	1476610007568	 	32
335401	3615192	We have been working on clay for four weeks.	We have been working on clay for four weeks.	171760770	1476610008028	1476610008176	f	70
335401	3615192	We have been working on clay for four weeks.	We have been working on clay for four weeks.	171760771	1476610008160	1476610008400	o	79
335401	3615192	We have been working on clay for four weeks.	We have been working on clay for four weeks.	171760772	1476610008368	1476610008536	u	85
335401	3615192	We have been working on clay for four weeks.	We have been working on clay for four weeks.	171760774	1476610008568	1476610008768	r	82
335401	3615192	We have been working on clay for four weeks.	We have been working on clay for four weeks.	171760791	1476610008908	1476610009248	 	32
335401	3615192	We have been working on clay for four weeks.	We have been working on clay for four weeks.	171760776	1476610009136	1476610009228	w	87
335401	3615192	We have been working on clay for four weeks.	We have been working on clay for four weeks.	171760792	1476610009358	1476610009448	e	69
335401	3615192	We have been working on clay for four weeks.	We have been working on clay for four weeks.	171760794	1476610009528	1476610009584	e	69
335401	3615192	We have been working on clay for four weeks.	We have been working on clay for four weeks.	171760796	1476610009648	1476610009748	k	75
335401	3615192	We have been working on clay for four weeks.	We have been working on clay for four weeks.	171760798	1476610009840	1476610010018	s	83
335401	3615192	We have been working on clay for four weeks.	We have been working on clay for four weeks.	171760801	1476610010228	1476610010384	.	190
335401	3615200	OK to make changes, change out original.	OK to make changes, change out original.	171760911	1476610014058	1476610014338	SHIFT	16
335401	3615200	OK to make changes, change out original.	OK to make changes, change out original.	171760910	1476610014128	1476610014258	O	79
335401	3615200	OK to make changes, change out original.	OK to make changes, change out original.	171760912	1476610014398	1476610014528	k	75
335401	3615200	OK to make changes, change out original.	OK to make changes, change out original.	171760913	1476610015328	1476610015472	BKSP	8
335401	3615200	OK to make changes, change out original.	OK to make changes, change out original.	171760917	1476610015528	1476610015872	SHIFT	16
335401	3615200	OK to make changes, change out original.	OK to make changes, change out original.	171760915	1476610015648	1476610015808	K	75
335401	3615200	OK to make changes, change out original.	OK to make changes, change out original.	171760919	1476610015988	1476610016184	 	32
335401	3615200	OK to make changes, change out original.	OK to make changes, change out original.	171760934	1476610016272	1476610016384	t	84
335401	3615200	OK to make changes, change out original.	OK to make changes, change out original.	171760935	1476610016368	1476610016544	o	79
335401	3615200	OK to make changes, change out original.	OK to make changes, change out original.	171760936	1476610016558	1476610016767	 	32
335401	3615200	OK to make changes, change out original.	OK to make changes, change out original.	171760937	1476610016784	1476610016928	m	77
335401	3615200	OK to make changes, change out original.	OK to make changes, change out original.	171760968	1476610016856	1476610016992	e	69
335401	3615200	OK to make changes, change out original.	OK to make changes, change out original.	171760970	1476610017038	1476610017218	k	75
335401	3615200	OK to make changes, change out original.	OK to make changes, change out original.	171760972	1476610017267	1476610017438	e	69
335401	3615200	OK to make changes, change out original.	OK to make changes, change out original.	171760974	1476610017478	1476610017558	=	187
335401	3615200	OK to make changes, change out original.	OK to make changes, change out original.	171760976	1476610017656	1476610017728	BKSP	8
335401	3615200	OK to make changes, change out original.	OK to make changes, change out original.	171760977	1476610017828	1476610017904	BKSP	8
335401	3615200	OK to make changes, change out original.	OK to make changes, change out original.	171760978	1476610018000	1476610018038	BKSP	8
335401	3615200	OK to make changes, change out original.	OK to make changes, change out original.	171760979	1476610018128	1476610018208	BKSP	8
335401	3615200	OK to make changes, change out original.	OK to make changes, change out original.	171760980	1476610018160	1476610018344	a	65
335401	3615200	OK to make changes, change out original.	OK to make changes, change out original.	171760996	1476610018328	1476610018504	k	75
335401	3615200	OK to make changes, change out original.	OK to make changes, change out original.	171760997	1476610018416	1476610018512	e	69
335401	3615200	OK to make changes, change out original.	OK to make changes, change out original.	171761000	1476610018938	1476610019158	 	32
335401	3615200	OK to make changes, change out original.	OK to make changes, change out original.	171761003	1476610019118	1476610019216	s	83
335401	3615200	OK to make changes, change out original.	OK to make changes, change out original.	171761006	1476610019478	1476610019608	BKSP	8
335401	3615200	OK to make changes, change out original.	OK to make changes, change out original.	171761009	1476610019578	1476610019728	c	67
335401	3615200	OK to make changes, change out original.	OK to make changes, change out original.	171761012	1476610019807	1476610019978	a	65
335401	3615200	OK to make changes, change out original.	OK to make changes, change out original.	171761049	1476610020328	1476610020440	BKSP	8
335401	3615200	OK to make changes, change out original.	OK to make changes, change out original.	171761047	1476610020352	1476610020368	=	187
335401	3615200	OK to make changes, change out original.	OK to make changes, change out original.	171761051	1476610020598	1476610020832	h	72
335401	3615200	OK to make changes, change out original.	OK to make changes, change out original.	171761052	1476610020984	1476610021056	BKSP	8
335401	3615200	OK to make changes, change out original.	OK to make changes, change out original.	171761053	1476610021128	1476610021198	BKSP	8
335401	3615200	OK to make changes, change out original.	OK to make changes, change out original.	171761054	1476610021336	1476610021480	h	72
335401	3615200	OK to make changes, change out original.	OK to make changes, change out original.	171761055	1476610021458	1476610021578	a	65
335401	3615200	OK to make changes, change out original.	OK to make changes, change out original.	171761056	1476610021978	1476610022278	n	78
335401	3615200	OK to make changes, change out original.	OK to make changes, change out original.	171761099	1476610022178	1476610022352	e	69
335401	3615200	OK to make changes, change out original.	OK to make changes, change out original.	171761101	1476610022458	1476610022698	s	83
335401	3615200	OK to make changes, change out original.	OK to make changes, change out original.	171761103	1476610022818	1476610022898	BKSP	8
335401	3615200	OK to make changes, change out original.	OK to make changes, change out original.	171761110	1476610022978	1476610023498	BKSP	8
335401	3615200	OK to make changes, change out original.	OK to make changes, change out original.	171761105	1476610023144	1476610023258	g	71
335401	3615200	OK to make changes, change out original.	OK to make changes, change out original.	171761107	1476610023358	1476610023478	e	69
335401	3615200	OK to make changes, change out original.	OK to make changes, change out original.	171761112	1476610023558	1476610023744	s	83
335401	3615200	OK to make changes, change out original.	OK to make changes, change out original.	171761115	1476610024138	1476610024360	,	188
335401	3615200	OK to make changes, change out original.	OK to make changes, change out original.	171761146	1476610024472	1476610024708	 	32
335401	3615200	OK to make changes, change out original.	OK to make changes, change out original.	171761147	1476610025368	1476610025468	c	67
335401	3615200	OK to make changes, change out original.	OK to make changes, change out original.	171761148	1476610025548	1476610025624	a	65
335401	3615200	OK to make changes, change out original.	OK to make changes, change out original.	171761149	1476610025667	1476610025818	h	72
335401	3615200	OK to make changes, change out original.	OK to make changes, change out original.	171761150	1476610026058	1476610026248	BKSP	8
335401	3615200	OK to make changes, change out original.	OK to make changes, change out original.	171761151	1476610026504	1476610026624	BKSP	8
335401	3615200	OK to make changes, change out original.	OK to make changes, change out original.	171761152	1476610026744	1476610026888	h	72
335401	3615200	OK to make changes, change out original.	OK to make changes, change out original.	171761207	1476610026838	1476610026976	a	65
335401	3615200	OK to make changes, change out original.	OK to make changes, change out original.	171761208	1476610027448	1476610027624	b	66
335401	3615200	OK to make changes, change out original.	OK to make changes, change out original.	171761209	1476610027856	1476610027958	BKSP	8
335401	3615200	OK to make changes, change out original.	OK to make changes, change out original.	171761210	1476610028118	1476610028328	n	78
335401	3615200	OK to make changes, change out original.	OK to make changes, change out original.	171761211	1476610028278	1476610028388	e	69
335401	3615200	OK to make changes, change out original.	OK to make changes, change out original.	171761212	1476610028448	1476610028638	 	32
335401	3615200	OK to make changes, change out original.	OK to make changes, change out original.	171761233	1476610028638	1476610028808	p	79
335401	3615200	OK to make changes, change out original.	OK to make changes, change out original.	171761234	1476610028984	1476610029080	BKSP	8
335401	3615200	OK to make changes, change out original.	OK to make changes, change out original.	171761235	1476610029158	1476610029240	BKSP	8
335401	3615200	OK to make changes, change out original.	OK to make changes, change out original.	171761236	1476610029336	1476610029398	BKSP	8
335401	3615200	OK to make changes, change out original.	OK to make changes, change out original.	171761237	1476610029480	1476610029568	BKSP	8
335401	3615200	OK to make changes, change out original.	OK to make changes, change out original.	171761238	1476610029748	1476610029898	g	71
335401	3615200	OK to make changes, change out original.	OK to make changes, change out original.	171761239	1476610030184	1476610030304	e	69
335401	3615200	OK to make changes, change out original.	OK to make changes, change out original.	171761240	1476610030544	1476610030744	 	32
335401	3615200	OK to make changes, change out original.	OK to make changes, change out original.	171761241	1476610030720	1476610030928	p	80
335401	3615200	OK to make changes, change out original.	OK to make changes, change out original.	171761257	1476610030858	1476610031048	u	85
335401	3615200	OK to make changes, change out original.	OK to make changes, change out original.	171761260	1476610031064	1476610031264	r	82
335401	3615200	OK to make changes, change out original.	OK to make changes, change out original.	171761262	1476610031348	1476610031428	BKSP	8
335401	3615200	OK to make changes, change out original.	OK to make changes, change out original.	171761266	1476610031528	1476610031588	BKSP	8
335401	3615200	OK to make changes, change out original.	OK to make changes, change out original.	171761267	1476610031664	1476610031748	BKSP	8
335401	3615200	OK to make changes, change out original.	OK to make changes, change out original.	171761269	1476610032288	1476610032352	p	80
335401	3615200	OK to make changes, change out original.	OK to make changes, change out original.	171761271	1476610032328	1476610032428	o	79
335401	3615200	OK to make changes, change out original.	OK to make changes, change out original.	171761284	1476610032458	1476610032544	i	85
335401	3615200	OK to make changes, change out original.	OK to make changes, change out original.	171761285	1476610032798	1476610032888	BKSP	8
335401	3615200	OK to make changes, change out original.	OK to make changes, change out original.	171761286	1476610032984	1476610033048	BKSP	8
335401	3615200	OK to make changes, change out original.	OK to make changes, change out original.	171761287	1476610033138	1476610033208	BKSP	8
335401	3615200	OK to make changes, change out original.	OK to make changes, change out original.	171761288	1476610033267	1476610033308	BKSP	8
335401	3615200	OK to make changes, change out original.	OK to make changes, change out original.	171761289	1476610033456	1476610033624	o	79
335401	3615200	OK to make changes, change out original.	OK to make changes, change out original.	171761290	1476610033588	1476610033720	u	85
335401	3615200	OK to make changes, change out original.	OK to make changes, change out original.	171761291	1476610033678	1476610033776	t	84
335401	3615200	OK to make changes, change out original.	OK to make changes, change out original.	171761292	1476610034278	1476610034472	 	32
335401	3615200	OK to make changes, change out original.	OK to make changes, change out original.	171761293	1476610034598	1476610034738	r	82
335401	3615200	OK to make changes, change out original.	OK to make changes, change out original.	171761324	1476610034816	1476610034968	o	79
335401	3615200	OK to make changes, change out original.	OK to make changes, change out original.	171761325	1476610035107	1476610035168	BKSP	8
335401	3615200	OK to make changes, change out original.	OK to make changes, change out original.	171761327	1476610035228	1476610035308	BKSP	8
335401	3615200	OK to make changes, change out original.	OK to make changes, change out original.	171761329	1476610035464	1476610035608	o	79
335401	3615200	OK to make changes, change out original.	OK to make changes, change out original.	171761331	1476610035496	1476610035638	r	82
335401	3615200	OK to make changes, change out original.	OK to make changes, change out original.	171761333	1476610036097	1476610036296	i	73
335401	3615200	OK to make changes, change out original.	OK to make changes, change out original.	171761335	1476610036787	1476610036944	g	71
335401	3615200	OK to make changes, change out original.	OK to make changes, change out original.	171761352	1476610036888	1476610037027	i	73
335401	3615200	OK to make changes, change out original.	OK to make changes, change out original.	171761354	1476610037128	1476610037378	n	78
335401	3615200	OK to make changes, change out original.	OK to make changes, change out original.	171761353	1476610037224	1476610037378	e	69
335401	3615200	OK to make changes, change out original.	OK to make changes, change out original.	171761356	1476610037457	1476610037667	l	76
335401	3615200	OK to make changes, change out original.	OK to make changes, change out original.	171761358	1476610037824	1476610037918	BKSP	8
335401	3615200	OK to make changes, change out original.	OK to make changes, change out original.	171761360	1476610037987	1476610038058	BKSP	8
335401	3615200	OK to make changes, change out original.	OK to make changes, change out original.	171761362	1476610038208	1476610038400	a	65
335401	3615200	OK to make changes, change out original.	OK to make changes, change out original.	171761365	1476610038360	1476610038536	l	76
335401	3615200	OK to make changes, change out original.	OK to make changes, change out original.	171761366	1476610038696	1476610038878	.	190
335401	3615209	Jets secondary on Sunday.	Jets secondary on Sunday.	171761433	1476610042832	1476610043016	SHIFT	16
335401	3615209	Jets secondary on Sunday.	Jets secondary on Sunday.	171761432	1476610042868	1476610042997	J	74
335401	3615209	Jets secondary on Sunday.	Jets secondary on Sunday.	171761434	1476610043078	1476610043216	e	69
335401	3615209	Jets secondary on Sunday.	Jets secondary on Sunday.	171761435	1476610043508	1476610043618	t	84
335401	3615209	Jets secondary on Sunday.	Jets secondary on Sunday.	171761436	1476610043696	1476610043858	s	83
335401	3615209	Jets secondary on Sunday.	Jets secondary on Sunday.	171761437	1476610043877	1476610044028	 	32
335401	3615209	Jets secondary on Sunday.	Jets secondary on Sunday.	171761464	1476610044118	1476610044272	s	83
335401	3615209	Jets secondary on Sunday.	Jets secondary on Sunday.	171761465	1476610044464	1476610044548	e	69
335401	3615209	Jets secondary on Sunday.	Jets secondary on Sunday.	171761466	1476610044778	1476610044944	c	67
335401	3615209	Jets secondary on Sunday.	Jets secondary on Sunday.	171761467	1476610044908	1476610045047	i	73
335401	3615209	Jets secondary on Sunday.	Jets secondary on Sunday.	171761468	1476610045544	1476610045664	BKSP	8
335401	3615209	Jets secondary on Sunday.	Jets secondary on Sunday.	171761469	1476610045858	1476610046058	o	79
335401	3615209	Jets secondary on Sunday.	Jets secondary on Sunday.	171761475	1476610046080	1476610046304	n	78
335401	3615209	Jets secondary on Sunday.	Jets secondary on Sunday.	171761476	1476610046368	1476610046504	d	68
335401	3615209	Jets secondary on Sunday.	Jets secondary on Sunday.	171761477	1476610046536	1476610046720	a	65
335401	3615209	Jets secondary on Sunday.	Jets secondary on Sunday.	171761478	1476610046918	1476610047072	r	82
335401	3615209	Jets secondary on Sunday.	Jets secondary on Sunday.	171761503	1476610047038	1476610047138	y	89
335401	3615209	Jets secondary on Sunday.	Jets secondary on Sunday.	171761504	1476610047218	1476610047375	 	32
335401	3615209	Jets secondary on Sunday.	Jets secondary on Sunday.	171761505	1476610047358	1476610047547	o	79
335401	3615209	Jets secondary on Sunday.	Jets secondary on Sunday.	171761506	1476610047578	1476610047744	n	78
335401	3615209	Jets secondary on Sunday.	Jets secondary on Sunday.	171761507	1476610047784	1476610047984	 	32
335401	3615209	Jets secondary on Sunday.	Jets secondary on Sunday.	171761509	1476610048456	1476610048776	SHIFT	16
335401	3615209	Jets secondary on Sunday.	Jets secondary on Sunday.	171761511	1476610048880	1476610049167	SHIFT	16
335401	3615209	Jets secondary on Sunday.	Jets secondary on Sunday.	171761526	1476610049055	1476610049264	S	83
335401	3615209	Jets secondary on Sunday.	Jets secondary on Sunday.	171761528	1476610049615	1476610049736	u	85
335401	3615209	Jets secondary on Sunday.	Jets secondary on Sunday.	171761530	1476610049848	1476610050112	n	78
335401	3615209	Jets secondary on Sunday.	Jets secondary on Sunday.	171761533	1476610050104	1476610050283	d	68
335401	3615209	Jets secondary on Sunday.	Jets secondary on Sunday.	171761536	1476610050303	1476610050520	a	65
335401	3615209	Jets secondary on Sunday.	Jets secondary on Sunday.	171761561	1476610050428	1476610050584	y	89
335401	3615209	Jets secondary on Sunday.	Jets secondary on Sunday.	171761562	1476610051447	1476610051608	.	190
335401	3615209	Jets secondary on Sunday.	Jets secondary on Sunday.	171761564	1476610052348	1476610052496	BKSP	8
