PARTICIPANT_ID	TEST_SECTION_ID	SENTENCE	USER_INPUT	KEYSTROKE_ID	PRESS_TIME	RELEASE_TIME	LETTER	KEYCODE
33988	366383	John, can you give Konni a call?	John, can you give Konni a call?	17411130	1472357912320	1472357912372	SHIFT	16
33988	366383	John, can you give Konni a call?	John, can you give Konni a call?	17411132	1472357912347	1472357912412	J	74
33988	366383	John, can you give Konni a call?	John, can you give Konni a call?	17411133	1472357912585	1472357912709	o	79
33988	366383	John, can you give Konni a call?	John, can you give Konni a call?	17411134	1472357912872	1472357912999	h	72
33988	366383	John, can you give Konni a call?	John, can you give Konni a call?	17411135	1472357913212	1472357913368	n	78
33988	366383	John, can you give Konni a call?	John, can you give Konni a call?	17411162	1472357913689	1472357913887	,	188
33988	366383	John, can you give Konni a call?	John, can you give Konni a call?	17411136	1472357913756	1472357913834	 	32
33988	366383	John, can you give Konni a call?	John, can you give Konni a call?	17411163	1472357914586	1472357914695	c	67
33988	366383	John, can you give Konni a call?	John, can you give Konni a call?	17411164	1472357914780	1472357914908	a	65
33988	366383	John, can you give Konni a call?	John, can you give Konni a call?	17411165	1472357914879	1472357915044	n	78
33988	366383	John, can you give Konni a call?	John, can you give Konni a call?	17411166	1472357915025	1472357915164	 	32
33988	366383	John, can you give Konni a call?	John, can you give Konni a call?	17411167	1472357915359	1472357915450	y	89
33988	366383	John, can you give Konni a call?	John, can you give Konni a call?	17411196	1472357915497	1472357915652	o	79
33988	366383	John, can you give Konni a call?	John, can you give Konni a call?	17411197	1472357915568	1472357915730	u	85
33988	366383	John, can you give Konni a call?	John, can you give Konni a call?	17411198	1472357915746	1472357915876	 	32
33988	366383	John, can you give Konni a call?	John, can you give Konni a call?	17411199	1472357916332	1472357916441	g	71
33988	366383	John, can you give Konni a call?	John, can you give Konni a call?	17411200	1472357916472	1472357916593	i	73
33988	366383	John, can you give Konni a call?	John, can you give Konni a call?	17411226	1472357916637	1472357916765	v	86
33988	366383	John, can you give Konni a call?	John, can you give Konni a call?	17411229	1472357916780	1472357916953	e	69
33988	366383	John, can you give Konni a call?	John, can you give Konni a call?	17411232	1472357916971	1472357917126	 	32
33988	366383	John, can you give Konni a call?	John, can you give Konni a call?	17411237	1472357917382	1472357917594	SHIFT	16
33988	366383	John, can you give Konni a call?	John, can you give Konni a call?	17411239	1472357917499	1472357917610	K	75
33988	366383	John, can you give Konni a call?	John, can you give Konni a call?	17411240	1472357917703	1472357917832	o	79
33988	366383	John, can you give Konni a call?	John, can you give Konni a call?	17411246	1472357918008	1472357918101	n	78
33988	366383	John, can you give Konni a call?	John, can you give Konni a call?	17411247	1472357918483	1472357918578	n	78
33988	366383	John, can you give Konni a call?	John, can you give Konni a call?	17411248	1472357918750	1472357918860	i	73
33988	366383	John, can you give Konni a call?	John, can you give Konni a call?	17411249	1472357918891	1472357919007	e	69
33988	366383	John, can you give Konni a call?	John, can you give Konni a call?	17411250	1472357919092	1472357919171	 	32
33988	366383	John, can you give Konni a call?	John, can you give Konni a call?	17411316	1472357919186	1472357919356	a	65
33988	366383	John, can you give Konni a call?	John, can you give Konni a call?	17411318	1472357919542	1472357919666	 	32
33988	366383	John, can you give Konni a call?	John, can you give Konni a call?	17411320	1472357920966	1472357921037	BKSP	8
33988	366383	John, can you give Konni a call?	John, can you give Konni a call?	17411322	1472357921115	1472357921227	BKSP	8
33988	366383	John, can you give Konni a call?	John, can you give Konni a call?	17411323	1472357921289	1472357921361	BKSP	8
33988	366383	John, can you give Konni a call?	John, can you give Konni a call?	17411324	1472357921439	1472357921584	BKSP	8
33988	366383	John, can you give Konni a call?	John, can you give Konni a call?	17411326	1472357921846	1472357922017	 	32
33988	366383	John, can you give Konni a call?	John, can you give Konni a call?	17411328	1472357922189	1472357922299	a	65
33988	366383	John, can you give Konni a call?	John, can you give Konni a call?	17411330	1472357922536	1472357922659	 	32
33988	366383	John, can you give Konni a call?	John, can you give Konni a call?	17411362	1472357923167	1472357923300	c	67
33988	366383	John, can you give Konni a call?	John, can you give Konni a call?	17411363	1472357923378	1472357923523	a	65
33988	366383	John, can you give Konni a call?	John, can you give Konni a call?	17411364	1472357923477	1472357923551	l	76
33988	366383	John, can you give Konni a call?	John, can you give Konni a call?	17411366	1472357923661	1472357923750	l	76
33988	366383	John, can you give Konni a call?	John, can you give Konni a call?	17411414	1472357923876	1472357924242	SHIFT	16
33988	366383	John, can you give Konni a call?	John, can you give Konni a call?	17411368	1472357924084	1472357924177	?	191
33988	366390	We have been working on clay for four weeks.	We have been working on clay for four weeks.	17411512	1472357927637	1472357927968	SHIFT	16
33988	366390	We have been working on clay for four weeks.	We have been working on clay for four weeks.	17411515	1472357927884	1472357927999	W	87
33988	366390	We have been working on clay for four weeks.	We have been working on clay for four weeks.	17411518	1472357928083	1472357928229	e	69
33988	366390	We have been working on clay for four weeks.	We have been working on clay for four weeks.	17411521	1472357928245	1472357928392	 	32
33988	366390	We have been working on clay for four weeks.	We have been working on clay for four weeks.	17411524	1472357928573	1472357928713	h	72
33988	366390	We have been working on clay for four weeks.	We have been working on clay for four weeks.	17411545	1472357928651	1472357928818	a	65
33988	366390	We have been working on clay for four weeks.	We have been working on clay for four weeks.	17411546	1472357928801	1472357928978	v	86
33988	366390	We have been working on clay for four weeks.	We have been working on clay for four weeks.	17411547	1472357928927	1472357929073	e	69
33988	366390	We have been working on clay for four weeks.	We have been working on clay for four weeks.	17411548	1472357929012	1472357929127	 	32
33988	366390	We have been working on clay for four weeks.	We have been working on clay for four weeks.	17411549	1472357929516	1472357929660	b	66
33988	366390	We have been working on clay for four weeks.	We have been working on clay for four weeks.	17411550	1472357929785	1472357929899	e	69
33988	366390	We have been working on clay for four weeks.	We have been working on clay for four weeks.	17411578	1472357930010	1472357930147	e	69
33988	366390	We have been working on clay for four weeks.	We have been working on clay for four weeks.	17411580	1472357930303	1472357930462	n	78
33988	366390	We have been working on clay for four weeks.	We have been working on clay for four weeks.	17411582	1472357930509	1472357930646	 	32
33988	366390	We have been working on clay for four weeks.	We have been working on clay for four weeks.	17411583	1472357930818	1472357930946	w	87
33988	366390	We have been working on clay for four weeks.	We have been working on clay for four weeks.	17411609	1472357930900	1472357931026	o	79
33988	366390	We have been working on clay for four weeks.	We have been working on clay for four weeks.	17411611	1472357931118	1472357931257	r	82
33988	366390	We have been working on clay for four weeks.	We have been working on clay for four weeks.	17411613	1472357931397	1472357931484	k	75
33988	366390	We have been working on clay for four weeks.	We have been working on clay for four weeks.	17411614	1472357931577	1472357931682	i	73
33988	366390	We have been working on clay for four weeks.	We have been working on clay for four weeks.	17411615	1472357931745	1472357931882	n	78
33988	366390	We have been working on clay for four weeks.	We have been working on clay for four weeks.	17411625	1472357931849	1472357931977	g	71
33988	366390	We have been working on clay for four weeks.	We have been working on clay for four weeks.	17411626	1472357931960	1472357932122	 	32
33988	366390	We have been working on clay for four weeks.	We have been working on clay for four weeks.	17411627	1472357932157	1472357932261	o	79
33988	366390	We have been working on clay for four weeks.	We have been working on clay for four weeks.	17411628	1472357932339	1472357932464	n	78
33988	366390	We have been working on clay for four weeks.	We have been working on clay for four weeks.	17411629	1472357932480	1472357932622	 	32
33988	366390	We have been working on clay for four weeks.	We have been working on clay for four weeks.	17411630	1472357932809	1472357932958	c	67
33988	366390	We have been working on clay for four weeks.	We have been working on clay for four weeks.	17411661	1472357933178	1472357933385	l	76
33988	366390	We have been working on clay for four weeks.	We have been working on clay for four weeks.	17411662	1472357933403	1472357933526	a	65
33988	366390	We have been working on clay for four weeks.	We have been working on clay for four weeks.	17411665	1472357933763	1472357933865	y	89
33988	366390	We have been working on clay for four weeks.	We have been working on clay for four weeks.	17411667	1472357933938	1472357934063	 	32
33988	366390	We have been working on clay for four weeks.	We have been working on clay for four weeks.	17411669	1472357934235	1472357934324	f	70
33988	366390	We have been working on clay for four weeks.	We have been working on clay for four weeks.	17411687	1472357934349	1472357934450	o	79
33988	366390	We have been working on clay for four weeks.	We have been working on clay for four weeks.	17411688	1472357934465	1472357934617	r	82
33988	366390	We have been working on clay for four weeks.	We have been working on clay for four weeks.	17411689	1472357934583	1472357934731	 	32
33988	366390	We have been working on clay for four weeks.	We have been working on clay for four weeks.	17411690	1472357935017	1472357935152	f	70
33988	366390	We have been working on clay for four weeks.	We have been working on clay for four weeks.	17411691	1472357935231	1472357935397	o	79
33988	366390	We have been working on clay for four weeks.	We have been working on clay for four weeks.	17411702	1472357935423	1472357935489	o	79
33988	366390	We have been working on clay for four weeks.	We have been working on clay for four weeks.	17411703	1472357935449	1472357935569	u	85
33988	366390	We have been working on clay for four weeks.	We have been working on clay for four weeks.	17411704	1472357935518	1472357935664	r	82
33988	366390	We have been working on clay for four weeks.	We have been working on clay for four weeks.	17411706	1472357935726	1472357935859	 	32
33988	366390	We have been working on clay for four weeks.	We have been working on clay for four weeks.	17411708	1472357936184	1472357936277	w	87
33988	366390	We have been working on clay for four weeks.	We have been working on clay for four weeks.	17411874	1472357936525	1472357936596	e	69
33988	366390	We have been working on clay for four weeks.	We have been working on clay for four weeks.	17411875	1472357936742	1472357936864	e	69
33988	366390	We have been working on clay for four weeks.	We have been working on clay for four weeks.	17411876	1472357937183	1472357937282	k	75
33988	366390	We have been working on clay for four weeks.	We have been working on clay for four weeks.	17411877	1472357937466	1472357937614	s	83
33988	366390	We have been working on clay for four weeks.	We have been working on clay for four weeks.	17411878	1472357938804	1472357938915	ARW_LEFT	37
33988	366390	We have been working on clay for four weeks.	We have been working on clay for four weeks.	17411879	1472357938993	1472357939078	ARW_LEFT	37
33988	366390	We have been working on clay for four weeks.	We have been working on clay for four weeks.	17411880	1472357939156	1472357939234	ARW_LEFT	37
33988	366390	We have been working on clay for four weeks.	We have been working on clay for four weeks.	17411881	1472357939328	1472357939418	ARW_LEFT	37
33988	366390	We have been working on clay for four weeks.	We have been working on clay for four weeks.	17411882	1472357939480	1472357939562	ARW_LEFT	37
33988	366390	We have been working on clay for four weeks.	We have been working on clay for four weeks.	17411883	1472357939655	1472357939727	ARW_LEFT	37
33988	366390	We have been working on clay for four weeks.	We have been working on clay for four weeks.	17411885	1472357939806	1472357939884	ARW_LEFT	37
33988	366390	We have been working on clay for four weeks.	We have been working on clay for four weeks.	17411887	1472357939964	1472357940049	ARW_LEFT	37
33988	366390	We have been working on clay for four weeks.	We have been working on clay for four weeks.	17411891	1472357940111	1472357940184	ARW_LEFT	37
33988	366390	We have been working on clay for four weeks.	We have been working on clay for four weeks.	17411895	1472357941070	1472357941166	DELETE	46
33988	366390	We have been working on clay for four weeks.	We have been working on clay for four weeks.	17411899	1472357941582	1472357941661	ARW_RIGHT	39
33988	366390	We have been working on clay for four weeks.	We have been working on clay for four weeks.	17411903	1472357941755	1472357941841	ARW_RIGHT	39
33988	366390	We have been working on clay for four weeks.	We have been working on clay for four weeks.	17411905	1472357941914	1472357941993	ARW_RIGHT	39
33988	366390	We have been working on clay for four weeks.	We have been working on clay for four weeks.	17411907	1472357942057	1472357942138	ARW_RIGHT	39
33988	366390	We have been working on clay for four weeks.	We have been working on clay for four weeks.	17411909	1472357942209	1472357942289	ARW_RIGHT	39
33988	366390	We have been working on clay for four weeks.	We have been working on clay for four weeks.	17411910	1472357942353	1472357942433	ARW_RIGHT	39
33988	366390	We have been working on clay for four weeks.	We have been working on clay for four weeks.	17411911	1472357942512	1472357942592	ARW_RIGHT	39
33988	366390	We have been working on clay for four weeks.	We have been working on clay for four weeks.	17411912	1472357942656	1472357942728	ARW_RIGHT	39
33988	366390	We have been working on clay for four weeks.	We have been working on clay for four weeks.	17411913	1472357943841	1472357943961	.	190
33988	366402	There will be some better news later today	There will be some better news later today	17411991	1472357946303	1472357946592	SHIFT	16
33988	366402	There will be some better news later today	There will be some better news later today	17411994	1472357946481	1472357946608	T	84
33988	366402	There will be some better news later today	There will be some better news later today	17411996	1472357946623	1472357946754	h	72
33988	366402	There will be some better news later today	There will be some better news later today	17411998	1472357946700	1472357946861	e	69
33988	366402	There will be some better news later today	There will be some better news later today	17412001	1472357946784	1472357946969	r	82
33988	366402	There will be some better news later today	There will be some better news later today	17412022	1472357946939	1472357947007	e	69
33988	366402	There will be some better news later today	There will be some better news later today	17412023	1472357946984	1472357947090	 	32
33988	366402	There will be some better news later today	There will be some better news later today	17412024	1472357947371	1472357947520	w	87
33988	366402	There will be some better news later today	There will be some better news later today	17412025	1472357947567	1472357947661	i	73
33988	366402	There will be some better news later today	There will be some better news later today	17412026	1472357947849	1472357947943	l	76
33988	366402	There will be some better news later today	There will be some better news later today	17412027	1472357948005	1472357948192	l	76
33988	366402	There will be some better news later today	There will be some better news later today	17412064	1472357948173	1472357948328	 	32
33988	366402	There will be some better news later today	There will be some better news later today	17412070	1472357948484	1472357948583	b	66
33988	366402	There will be some better news later today	There will be some better news later today	17412075	1472357948606	1472357948768	e	69
33988	366402	There will be some better news later today	There will be some better news later today	17412077	1472357948735	1472357948879	 	32
33988	366402	There will be some better news later today	There will be some better news later today	17412081	1472357948958	1472357949127	s	83
33988	366402	There will be some better news later today	There will be some better news later today	17412106	1472357949075	1472357949192	o	79
33988	366402	There will be some better news later today	There will be some better news later today	17412108	1472357949289	1472357949407	m	77
33988	366402	There will be some better news later today	There will be some better news later today	17412110	1472357949377	1472357949503	e	69
33988	366402	There will be some better news later today	There will be some better news later today	17412112	1472357949519	1472357949632	 	32
33988	366402	There will be some better news later today	There will be some better news later today	17412114	1472357949862	1472357949934	b	66
33988	366402	There will be some better news later today	There will be some better news later today	17412115	1472357950047	1472357950166	e	69
33988	366402	There will be some better news later today	There will be some better news later today	17412126	1472357950317	1472357950416	t	84
33988	366402	There will be some better news later today	There will be some better news later today	17412127	1472357950478	1472357950607	t	84
33988	366402	There will be some better news later today	There will be some better news later today	17412129	1472357950576	1472357950799	e	69
33988	366402	There will be some better news later today	There will be some better news later today	17412131	1472357950728	1472357950879	r	82
33988	366402	There will be some better news later today	There will be some better news later today	17412149	1472357950815	1472357950984	 	32
33988	366402	There will be some better news later today	There will be some better news later today	17412150	1472357951145	1472357951291	n	78
33988	366402	There will be some better news later today	There will be some better news later today	17412151	1472357951306	1472357951511	e	69
33988	366402	There will be some better news later today	There will be some better news later today	17412152	1472357951479	1472357951612	w	87
33988	366402	There will be some better news later today	There will be some better news later today	17412153	1472357951862	1472357951929	s	83
33988	366402	There will be some better news later today	There will be some better news later today	17412154	1472357952202	1472357952347	 	32
33988	366402	There will be some better news later today	There will be some better news later today	17412188	1472357952636	1472357952803	l	76
33988	366402	There will be some better news later today	There will be some better news later today	17412189	1472357952757	1472357952923	a	65
33988	366402	There will be some better news later today	There will be some better news later today	17412190	1472357952954	1472357953068	t	84
33988	366402	There will be some better news later today	There will be some better news later today	17412191	1472357953084	1472357953256	e	69
33988	366402	There will be some better news later today	There will be some better news later today	17412208	1472357953204	1472357953331	r	82
33988	366402	There will be some better news later today	There will be some better news later today	17412212	1472357953346	1472357953512	 	32
33988	366402	There will be some better news later today	There will be some better news later today	17412218	1472357953655	1472357953749	t	84
33988	366402	There will be some better news later today	There will be some better news later today	17412223	1472357953780	1472357953866	o	79
33988	366402	There will be some better news later today	There will be some better news later today	17412228	1472357953960	1472357954059	d	68
33988	366402	There will be some better news later today	There will be some better news later today	17412232	1472357954137	1472357954250	a	65
33988	366402	There will be some better news later today	There will be some better news later today	17412244	1472357954391	1472357954498	y	89
33988	366407	At 17, he enlisted in the US Navy.	At 17, he enlisted in the US Navy.	17412349	1472357957272	1472357957449	SHIFT	16
33988	366407	At 17, he enlisted in the US Navy.	At 17, he enlisted in the US Navy.	17412351	1472357957350	1472357957477	A	65
33988	366407	At 17, he enlisted in the US Navy.	At 17, he enlisted in the US Navy.	17412353	1472357957587	1472357957708	t	84
33988	366407	At 17, he enlisted in the US Navy.	At 17, he enlisted in the US Navy.	17412354	1472357957724	1472357957847	 	32
33988	366407	At 17, he enlisted in the US Navy.	At 17, he enlisted in the US Navy.	17412355	1472357958348	1472357958443	1	97
33988	366407	At 17, he enlisted in the US Navy.	At 17, he enlisted in the US Navy.	17412356	1472357958584	1472357958649	7	103
33988	366407	At 17, he enlisted in the US Navy.	At 17, he enlisted in the US Navy.	17412462	1472357961508	1472357961630	,	188
33988	366407	At 17, he enlisted in the US Navy.	At 17, he enlisted in the US Navy.	17412463	1472357961645	1472357961764	 	32
33988	366407	At 17, he enlisted in the US Navy.	At 17, he enlisted in the US Navy.	17412465	1472357961904	1472357962023	h	72
33988	366407	At 17, he enlisted in the US Navy.	At 17, he enlisted in the US Navy.	17412467	1472357962068	1472357962222	e	69
33988	366407	At 17, he enlisted in the US Navy.	At 17, he enlisted in the US Navy.	17412470	1472357962253	1472357962380	 	32
33988	366407	At 17, he enlisted in the US Navy.	At 17, he enlisted in the US Navy.	17412531	1472357962877	1472357962993	e	69
33988	366407	At 17, he enlisted in the US Navy.	At 17, he enlisted in the US Navy.	17412533	1472357963687	1472357963788	n	78
33988	366407	At 17, he enlisted in the US Navy.	At 17, he enlisted in the US Navy.	17412535	1472357964125	1472357964244	l	76
33988	366407	At 17, he enlisted in the US Navy.	At 17, he enlisted in the US Navy.	17412537	1472357964322	1472357964477	i	73
33988	366407	At 17, he enlisted in the US Navy.	At 17, he enlisted in the US Navy.	17412594	1472357964462	1472357964580	s	83
33988	366407	At 17, he enlisted in the US Navy.	At 17, he enlisted in the US Navy.	17412597	1472357964642	1472357964789	t	84
33988	366407	At 17, he enlisted in the US Navy.	At 17, he enlisted in the US Navy.	17412600	1472357965043	1472357965158	d	69
33988	366407	At 17, he enlisted in the US Navy.	At 17, he enlisted in the US Navy.	17412603	1472357966193	1472357966308	 	32
33988	366407	At 17, he enlisted in the US Navy.	At 17, he enlisted in the US Navy.	17412605	1472357967294	1472357967413	i	73
33988	366407	At 17, he enlisted in the US Navy.	At 17, he enlisted in the US Navy.	17412625	1472357967501	1472357967640	n	78
33988	366407	At 17, he enlisted in the US Navy.	At 17, he enlisted in the US Navy.	17412626	1472357967656	1472357967790	 	32
33988	366407	At 17, he enlisted in the US Navy.	At 17, he enlisted in the US Navy.	17412627	1472357967844	1472357967948	t	84
33988	366407	At 17, he enlisted in the US Navy.	At 17, he enlisted in the US Navy.	17412628	1472357967900	1472357967999	h	72
33988	366407	At 17, he enlisted in the US Navy.	At 17, he enlisted in the US Navy.	17412629	1472357968083	1472357968217	e	69
33988	366407	At 17, he enlisted in the US Navy.	At 17, he enlisted in the US Navy.	17412685	1472357968165	1472357968292	 	32
33988	366407	At 17, he enlisted in the US Navy.	At 17, he enlisted in the US Navy.	17412695	1472357968797	1472357969377	SHIFT	16
33988	366407	At 17, he enlisted in the US Navy.	At 17, he enlisted in the US Navy.	17412687	1472357968906	1472357969054	U	85
33988	366407	At 17, he enlisted in the US Navy.	At 17, he enlisted in the US Navy.	17412692	1472357969132	1472357969289	S	83
33988	366407	At 17, he enlisted in the US Navy.	At 17, he enlisted in the US Navy.	17412700	1472357969351	1472357969464	 	32
33988	366407	At 17, he enlisted in the US Navy.	At 17, he enlisted in the US Navy.	17412701	1472357969666	1472357969915	SHIFT	16
33988	366407	At 17, he enlisted in the US Navy.	At 17, he enlisted in the US Navy.	17412702	1472357969807	1472357969946	N	78
33988	366407	At 17, he enlisted in the US Navy.	At 17, he enlisted in the US Navy.	17412703	1472357970008	1472357970161	a	65
33988	366407	At 17, he enlisted in the US Navy.	At 17, he enlisted in the US Navy.	17412723	1472357970258	1472357970422	v	86
33988	366407	At 17, he enlisted in the US Navy.	At 17, he enlisted in the US Navy.	17412725	1472357970625	1472357970749	y	89
33988	366407	At 17, he enlisted in the US Navy.	At 17, he enlisted in the US Navy.	17412726	1472357971155	1472357971265	.	190
33988	366417	Call me anytime for information.	Call me anytime for information.	17412768	1472357973528	1472357973783	SHIFT	16
33988	366417	Call me anytime for information.	Call me anytime for information.	17412769	1472357973700	1472357973845	C	67
33988	366417	Call me anytime for information.	Call me anytime for information.	17412770	1472357973908	1472357974073	a	65
33988	366417	Call me anytime for information.	Call me anytime for information.	17412771	1472357974105	1472357974214	l	76
33988	366417	Call me anytime for information.	Call me anytime for information.	17412772	1472357974277	1472357974460	l	76
33988	366417	Call me anytime for information.	Call me anytime for information.	17412795	1472357974406	1472357974572	 	32
33988	366417	Call me anytime for information.	Call me anytime for information.	17412797	1472357974665	1472357974759	m	77
33988	366417	Call me anytime for information.	Call me anytime for information.	17412799	1472357974806	1472357974893	e	69
33988	366417	Call me anytime for information.	Call me anytime for information.	17412801	1472357974949	1472357975044	 	32
33988	366417	Call me anytime for information.	Call me anytime for information.	17412803	1472357975279	1472357975445	a	65
33988	366417	Call me anytime for information.	Call me anytime for information.	17412821	1472357975397	1472357975501	n	78
33988	366417	Call me anytime for information.	Call me anytime for information.	17412823	1472357975668	1472357975775	y	89
33988	366417	Call me anytime for information.	Call me anytime for information.	17412825	1472357975971	1472357976075	t	84
33988	366417	Call me anytime for information.	Call me anytime for information.	17412827	1472357976153	1472357976227	i	73
33988	366417	Call me anytime for information.	Call me anytime for information.	17412829	1472357976321	1472357976414	m	77
33988	366417	Call me anytime for information.	Call me anytime for information.	17412831	1472357976430	1472357976562	e	69
33988	366417	Call me anytime for information.	Call me anytime for information.	17412835	1472357976613	1472357976710	 	32
33988	366417	Call me anytime for information.	Call me anytime for information.	17412838	1472357976787	1472357976880	f	70
33988	366417	Call me anytime for information.	Call me anytime for information.	17412841	1472357976896	1472357976983	o	79
33988	366417	Call me anytime for information.	Call me anytime for information.	17412844	1472357976998	1472357977093	r	82
33988	366417	Call me anytime for information.	Call me anytime for information.	17412847	1472357977140	1472357977274	 	32
33988	366417	Call me anytime for information.	Call me anytime for information.	17412854	1472357977517	1472357977594	i	73
33988	366417	Call me anytime for information.	Call me anytime for information.	17412856	1472357977688	1472357977782	n	78
33988	366417	Call me anytime for information.	Call me anytime for information.	17412858	1472357977813	1472357977930	f	70
33988	366417	Call me anytime for information.	Call me anytime for information.	17412860	1472357977946	1472357978047	o	79
33988	366417	Call me anytime for information.	Call me anytime for information.	17412861	1472357978078	1472357978133	r	82
33988	366417	Call me anytime for information.	Call me anytime for information.	17412891	1472357978190	1472357978313	m	77
33988	366417	Call me anytime for information.	Call me anytime for information.	17412892	1472357978546	1472357978690	a	65
33988	366417	Call me anytime for information.	Call me anytime for information.	17412893	1472357978757	1472357978883	t	84
33988	366417	Call me anytime for information.	Call me anytime for information.	17412894	1472357978818	1472357979020	i	73
33988	366417	Call me anytime for information.	Call me anytime for information.	17412915	1472357978914	1472357979136	o	79
33988	366417	Call me anytime for information.	Call me anytime for information.	17412916	1472357979152	1472357979294	n	78
33988	366417	Call me anytime for information.	Call me anytime for information.	17412917	1472357979454	1472357979572	.	190
33988	366421	Thanks again for thinking of me.	Thanks again for thinking of me.	17412966	1472357981808	1472357982052	SHIFT	16
33988	366421	Thanks again for thinking of me.	Thanks again for thinking of me.	17412967	1472357981918	1472357982068	T	84
33988	366421	Thanks again for thinking of me.	Thanks again for thinking of me.	17412968	1472357982083	1472357982159	h	72
33988	366421	Thanks again for thinking of me.	Thanks again for thinking of me.	17412969	1472357982206	1472357982350	a	65
33988	366421	Thanks again for thinking of me.	Thanks again for thinking of me.	17412970	1472357982293	1472357982412	n	78
33988	366421	Thanks again for thinking of me.	Thanks again for thinking of me.	17412971	1472357982494	1472357982607	k	75
33988	366421	Thanks again for thinking of me.	Thanks again for thinking of me.	17412983	1472357982688	1472357982833	s	83
33988	366421	Thanks again for thinking of me.	Thanks again for thinking of me.	17412984	1472357982912	1472357983051	 	32
33988	366421	Thanks again for thinking of me.	Thanks again for thinking of me.	17412985	1472357983100	1472357983256	a	65
33988	366421	Thanks again for thinking of me.	Thanks again for thinking of me.	17412986	1472357983303	1472357983382	g	71
33988	366421	Thanks again for thinking of me.	Thanks again for thinking of me.	17412987	1472357983397	1472357983539	a	65
33988	366421	Thanks again for thinking of me.	Thanks again for thinking of me.	17413011	1472357983556	1472357983642	i	73
33988	366421	Thanks again for thinking of me.	Thanks again for thinking of me.	17413014	1472357983732	1472357983875	n	78
33988	366421	Thanks again for thinking of me.	Thanks again for thinking of me.	17413016	1472357983975	1472357984112	 	32
33988	366421	Thanks again for thinking of me.	Thanks again for thinking of me.	17413018	1472357984159	1472357984290	f	70
33988	366421	Thanks again for thinking of me.	Thanks again for thinking of me.	17413020	1472357984305	1472357984382	o	79
33988	366421	Thanks again for thinking of me.	Thanks again for thinking of me.	17413027	1472357984411	1472357984497	r	82
33988	366421	Thanks again for thinking of me.	Thanks again for thinking of me.	17413028	1472357984531	1472357984647	 	32
33988	366421	Thanks again for thinking of me.	Thanks again for thinking of me.	17413029	1472357984867	1472357984949	t	84
33988	366421	Thanks again for thinking of me.	Thanks again for thinking of me.	17413030	1472357984964	1472357985043	h	72
33988	366421	Thanks again for thinking of me.	Thanks again for thinking of me.	17413032	1472357985152	1472357985258	i	73
33988	366421	Thanks again for thinking of me.	Thanks again for thinking of me.	17413047	1472357985339	1472357985447	n	78
33988	366421	Thanks again for thinking of me.	Thanks again for thinking of me.	17413048	1472357985556	1472357985663	k	75
33988	366421	Thanks again for thinking of me.	Thanks again for thinking of me.	17413049	1472357985726	1472357985833	i	73
33988	366421	Thanks again for thinking of me.	Thanks again for thinking of me.	17413050	1472357985880	1472357985982	n	78
33988	366421	Thanks again for thinking of me.	Thanks again for thinking of me.	17413051	1472357986067	1472357986158	g	71
33988	366421	Thanks again for thinking of me.	Thanks again for thinking of me.	17413057	1472357986209	1472357986345	 	32
33988	366421	Thanks again for thinking of me.	Thanks again for thinking of me.	17413058	1472357986474	1472357986549	o	79
33988	366421	Thanks again for thinking of me.	Thanks again for thinking of me.	17413059	1472357986617	1472357986762	f	70
33988	366421	Thanks again for thinking of me.	Thanks again for thinking of me.	17413060	1472357986714	1472357986839	 	32
33988	366421	Thanks again for thinking of me.	Thanks again for thinking of me.	17413061	1472357986933	1472357987032	m	77
33988	366421	Thanks again for thinking of me.	Thanks again for thinking of me.	17413062	1472357987081	1472357987191	e	69
33988	366421	Thanks again for thinking of me.	Thanks again for thinking of me.	17413063	1472357987503	1472357987546	.	190
33988	366425	We need to bring them along slowly.	We need to bring them along slowly.	17413125	1472357989801	1472357990082	SHIFT	16
33988	366425	We need to bring them along slowly.	We need to bring them along slowly.	17413128	1472357990001	1472357990128	W	87
33988	366425	We need to bring them along slowly.	We need to bring them along slowly.	17413131	1472357990207	1472357990330	e	69
33988	366425	We need to bring them along slowly.	We need to bring them along slowly.	17413134	1472357990297	1472357990454	 	32
33988	366425	We need to bring them along slowly.	We need to bring them along slowly.	17413137	1472357990790	1472357990907	n	78
33988	366425	We need to bring them along slowly.	We need to bring them along slowly.	17413145	1472357990865	1472357990966	e	69
33988	366425	We need to bring them along slowly.	We need to bring them along slowly.	17413146	1472357991034	1472357991130	e	69
33988	366425	We need to bring them along slowly.	We need to bring them along slowly.	17413147	1472357991243	1472357991362	d	68
33988	366425	We need to bring them along slowly.	We need to bring them along slowly.	17413148	1472357991346	1472357991470	 	32
33988	366425	We need to bring them along slowly.	We need to bring them along slowly.	17413149	1472357991623	1472357991754	t	84
33988	366425	We need to bring them along slowly.	We need to bring them along slowly.	17413167	1472357991725	1472357991874	o	79
33988	366425	We need to bring them along slowly.	We need to bring them along slowly.	17413168	1472357991846	1472357991973	 	32
33988	366425	We need to bring them along slowly.	We need to bring them along slowly.	17413169	1472357992080	1472357992182	b	66
33988	366425	We need to bring them along slowly.	We need to bring them along slowly.	17413170	1472357992358	1472357992489	r	82
33988	366425	We need to bring them along slowly.	We need to bring them along slowly.	17413171	1472357992504	1472357992597	i	73
33988	366425	We need to bring them along slowly.	We need to bring them along slowly.	17413172	1472357992691	1472357992774	n	78
33988	366425	We need to bring them along slowly.	We need to bring them along slowly.	17413177	1472357992836	1472357992930	g	71
33988	366425	We need to bring them along slowly.	We need to bring them along slowly.	17413180	1472357992993	1472357993122	 	32
33988	366425	We need to bring them along slowly.	We need to bring them along slowly.	17413184	1472357993283	1472357993377	t	84
33988	366425	We need to bring them along slowly.	We need to bring them along slowly.	17413190	1472357993394	1472357993492	h	72
33988	366425	We need to bring them along slowly.	We need to bring them along slowly.	17413195	1472357993554	1472357993663	e	69
33988	366425	We need to bring them along slowly.	We need to bring them along slowly.	17413211	1472357993673	1472357993843	m	77
33988	366425	We need to bring them along slowly.	We need to bring them along slowly.	17413214	1472357993858	1472357993974	 	32
33988	366425	We need to bring them along slowly.	We need to bring them along slowly.	17413217	1472357994212	1472357994340	a	65
33988	366425	We need to bring them along slowly.	We need to bring them along slowly.	17413218	1472357994406	1472357994482	l	76
33988	366425	We need to bring them along slowly.	We need to bring them along slowly.	17413220	1472357994572	1472357994675	o	79
33988	366425	We need to bring them along slowly.	We need to bring them along slowly.	17413227	1472357994775	1472357994849	n	78
33988	366425	We need to bring them along slowly.	We need to bring them along slowly.	17413230	1472357994930	1472357995026	g	71
33988	366425	We need to bring them along slowly.	We need to bring them along slowly.	17413233	1472357995084	1472357995180	 	32
33988	366425	We need to bring them along slowly.	We need to bring them along slowly.	17413236	1472357995305	1472357995445	s	83
33988	366425	We need to bring them along slowly.	We need to bring them along slowly.	17413239	1472357995460	1472357995558	l	76
33988	366425	We need to bring them along slowly.	We need to bring them along slowly.	17413267	1472357995667	1472357995786	o	79
33988	366425	We need to bring them along slowly.	We need to bring them along slowly.	17413269	1472357995764	1472357995905	w	87
33988	366425	We need to bring them along slowly.	We need to bring them along slowly.	17413271	1472357996058	1472357996210	l	76
33988	366425	We need to bring them along slowly.	We need to bring them along slowly.	17413272	1472357996351	1472357996457	y	89
33988	366425	We need to bring them along slowly.	We need to bring them along slowly.	17413273	1472357996678	1472357996748	.	190
33988	366432	Let's leave it until we get going.	Let's leave it until we get going.	17413326	1472357999467	1472357999666	SHIFT	16
33988	366432	Let's leave it until we get going.	Let's leave it until we get going.	17413327	1472357999592	1472357999759	L	76
33988	366432	Let's leave it until we get going.	Let's leave it until we get going.	17413328	1472357999900	1472358000029	e	69
33988	366432	Let's leave it until we get going.	Let's leave it until we get going.	17413329	1472358000176	1472358000263	t	84
33988	366432	Let's leave it until we get going.	Let's leave it until we get going.	17413330	1472358000435	1472358000577	'	222
33988	366432	Let's leave it until we get going.	Let's leave it until we get going.	17413331	1472358000592	1472358000743	s	83
33988	366432	Let's leave it until we get going.	Let's leave it until we get going.	17413348	1472358000778	1472358000895	 	32
33988	366432	Let's leave it until we get going.	Let's leave it until we get going.	17413350	1472358001228	1472358001388	l	76
33988	366432	Let's leave it until we get going.	Let's leave it until we get going.	17413352	1472358001403	1472358001508	e	69
33988	366432	Let's leave it until we get going.	Let's leave it until we get going.	17413355	1472358001617	1472358001708	a	65
33988	366432	Let's leave it until we get going.	Let's leave it until we get going.	17413357	1472358001833	1472358001993	v	86
33988	366432	Let's leave it until we get going.	Let's leave it until we get going.	17413368	1472358002018	1472358002153	e	69
33988	366432	Let's leave it until we get going.	Let's leave it until we get going.	17413369	1472358002098	1472358002233	 	32
33988	366432	Let's leave it until we get going.	Let's leave it until we get going.	17413370	1472358002380	1472358002479	i	73
33988	366432	Let's leave it until we get going.	Let's leave it until we get going.	17413371	1472358002464	1472358002578	t	84
33988	366432	Let's leave it until we get going.	Let's leave it until we get going.	17413372	1472358002656	1472358002810	 	32
33988	366432	Let's leave it until we get going.	Let's leave it until we get going.	17413390	1472358003327	1472358003425	u	85
33988	366432	Let's leave it until we get going.	Let's leave it until we get going.	17413392	1472358003566	1472358003713	n	78
33988	366432	Let's leave it until we get going.	Let's leave it until we get going.	17413394	1472358003753	1472358003848	t	84
33988	366432	Let's leave it until we get going.	Let's leave it until we get going.	17413396	1472358003879	1472358003963	i	73
33988	366432	Let's leave it until we get going.	Let's leave it until we get going.	17413399	1472358004126	1472358004213	l	76
33988	366432	Let's leave it until we get going.	Let's leave it until we get going.	17413446	1472358004546	1472358004709	 	32
33988	366432	Let's leave it until we get going.	Let's leave it until we get going.	17413449	1472358004916	1472358005046	w	87
33988	366432	Let's leave it until we get going.	Let's leave it until we get going.	17413452	1472358005061	1472358005248	e	69
33988	366432	Let's leave it until we get going.	Let's leave it until we get going.	17413455	1472358005225	1472358005344	 	32
33988	366432	Let's leave it until we get going.	Let's leave it until we get going.	17413458	1472358005556	1472358005628	g	71
33988	366432	Let's leave it until we get going.	Let's leave it until we get going.	17413489	1472358005740	1472358005841	e	69
33988	366432	Let's leave it until we get going.	Let's leave it until we get going.	17413490	1472358005888	1472358006006	t	84
33988	366432	Let's leave it until we get going.	Let's leave it until we get going.	17413492	1472358006281	1472358006469	 	32
33988	366432	Let's leave it until we get going.	Let's leave it until we get going.	17413494	1472358006594	1472358006728	g	71
33988	366432	Let's leave it until we get going.	Let's leave it until we get going.	17413496	1472358006790	1472358007047	o	79
33988	366432	Let's leave it until we get going.	Let's leave it until we get going.	17413545	1472358006969	1472358007143	i	73
33988	366432	Let's leave it until we get going.	Let's leave it until we get going.	17413547	1472358007263	1472358007373	n	78
33988	366432	Let's leave it until we get going.	Let's leave it until we get going.	17413549	1472358007466	1472358007547	g	71
33988	366432	Let's leave it until we get going.	Let's leave it until we get going.	17413551	1472358008065	1472358008157	.	190
33988	366435	Southern forces said they had shot down three northern warplanes.	Southern forces said they had shot down three northern warplanes.	17413589	1472358010436	1472358010710	SHIFT	16
33988	366435	Southern forces said they had shot down three northern warplanes.	Southern forces said they had shot down three northern warplanes.	17413590	1472358010577	1472358010726	S	83
33988	366435	Southern forces said they had shot down three northern warplanes.	Southern forces said they had shot down three northern warplanes.	17413591	1472358010772	1472358011032	o	79
33988	366435	Southern forces said they had shot down three northern warplanes.	Southern forces said they had shot down three northern warplanes.	17413592	1472358010948	1472358011064	u	85
33988	366435	Southern forces said they had shot down three northern warplanes.	Southern forces said they had shot down three northern warplanes.	17413593	1472358011330	1472358011462	t	84
33988	366435	Southern forces said they had shot down three northern warplanes.	Southern forces said they had shot down three northern warplanes.	17413594	1472358011477	1472358011569	h	72
33988	366435	Southern forces said they had shot down three northern warplanes.	Southern forces said they had shot down three northern warplanes.	17413674	1472358011915	1472358012039	e	69
33988	366435	Southern forces said they had shot down three northern warplanes.	Southern forces said they had shot down three northern warplanes.	17413677	1472358012182	1472358012274	n	78
33988	366435	Southern forces said they had shot down three northern warplanes.	Southern forces said they had shot down three northern warplanes.	17413680	1472358012524	1472358012661	r	82
33988	366435	Southern forces said they had shot down three northern warplanes.	Southern forces said they had shot down three northern warplanes.	17413683	1472358013088	1472358013257	 	32
33988	366435	Southern forces said they had shot down three northern warplanes.	Southern forces said they had shot down three northern warplanes.	17413686	1472358013816	1472358013923	BKSP	8
33988	366435	Southern forces said they had shot down three northern warplanes.	Southern forces said they had shot down three northern warplanes.	17413688	1472358013995	1472358014074	BKSP	8
33988	366435	Southern forces said they had shot down three northern warplanes.	Southern forces said they had shot down three northern warplanes.	17413689	1472358014168	1472358014257	BKSP	8
33988	366435	Southern forces said they had shot down three northern warplanes.	Southern forces said they had shot down three northern warplanes.	17413690	1472358014554	1472358014665	r	82
33988	366435	Southern forces said they had shot down three northern warplanes.	Southern forces said they had shot down three northern warplanes.	17413715	1472358014738	1472358014862	n	78
33988	366435	Southern forces said they had shot down three northern warplanes.	Southern forces said they had shot down three northern warplanes.	17413717	1472358015034	1472358015208	 	32
33988	366435	Southern forces said they had shot down three northern warplanes.	Southern forces said they had shot down three northern warplanes.	17413720	1472358015520	1472358015645	f	70
33988	366435	Southern forces said they had shot down three northern warplanes.	Southern forces said they had shot down three northern warplanes.	17413722	1472358015661	1472358015731	o	79
33988	366435	Southern forces said they had shot down three northern warplanes.	Southern forces said they had shot down three northern warplanes.	17413724	1472358015763	1472358015920	r	82
33988	366435	Southern forces said they had shot down three northern warplanes.	Southern forces said they had shot down three northern warplanes.	17413746	1472358016141	1472358016261	c	67
33988	366435	Southern forces said they had shot down three northern warplanes.	Southern forces said they had shot down three northern warplanes.	17413748	1472358016433	1472358016502	e	69
33988	366435	Southern forces said they had shot down three northern warplanes.	Southern forces said they had shot down three northern warplanes.	17413750	1472358016463	1472358016663	s	83
33988	366435	Southern forces said they had shot down three northern warplanes.	Southern forces said they had shot down three northern warplanes.	17413752	1472358016635	1472358016807	 	32
33988	366435	Southern forces said they had shot down three northern warplanes.	Southern forces said they had shot down three northern warplanes.	17413754	1472358016934	1472358017067	s	83
33988	366435	Southern forces said they had shot down three northern warplanes.	Southern forces said they had shot down three northern warplanes.	17413777	1472358017087	1472358017231	a	65
33988	366435	Southern forces said they had shot down three northern warplanes.	Southern forces said they had shot down three northern warplanes.	17413779	1472358017197	1472358017306	i	73
33988	366435	Southern forces said they had shot down three northern warplanes.	Southern forces said they had shot down three northern warplanes.	17413782	1472358017385	1472358017506	d	68
33988	366435	Southern forces said they had shot down three northern warplanes.	Southern forces said they had shot down three northern warplanes.	17413785	1472358017537	1472358017655	 	32
33988	366435	Southern forces said they had shot down three northern warplanes.	Southern forces said they had shot down three northern warplanes.	17413787	1472358017787	1472358017902	t	84
33988	366435	Southern forces said they had shot down three northern warplanes.	Southern forces said they had shot down three northern warplanes.	17413839	1472358017864	1472358017979	h	72
33988	366435	Southern forces said they had shot down three northern warplanes.	Southern forces said they had shot down three northern warplanes.	17413840	1472358018397	1472358018480	e	69
33988	366435	Southern forces said they had shot down three northern warplanes.	Southern forces said they had shot down three northern warplanes.	17413841	1472358018577	1472358018725	y	89
33988	366435	Southern forces said they had shot down three northern warplanes.	Southern forces said they had shot down three northern warplanes.	17413842	1472358018803	1472358018951	 	32
33988	366435	Southern forces said they had shot down three northern warplanes.	Southern forces said they had shot down three northern warplanes.	17413843	1472358019238	1472358019366	h	72
33988	366435	Southern forces said they had shot down three northern warplanes.	Southern forces said they had shot down three northern warplanes.	17413862	1472358019313	1472358019445	a	65
33988	366435	Southern forces said they had shot down three northern warplanes.	Southern forces said they had shot down three northern warplanes.	17413864	1472358019538	1472358019670	d	68
33988	366435	Southern forces said they had shot down three northern warplanes.	Southern forces said they had shot down three northern warplanes.	17413866	1472358019641	1472358019789	 	32
33988	366435	Southern forces said they had shot down three northern warplanes.	Southern forces said they had shot down three northern warplanes.	17413868	1472358019911	1472358020048	s	83
33988	366435	Southern forces said they had shot down three northern warplanes.	Southern forces said they had shot down three northern warplanes.	17413870	1472358020080	1472358020195	h	72
33988	366435	Southern forces said they had shot down three northern warplanes.	Southern forces said they had shot down three northern warplanes.	17413872	1472358020274	1472358020375	o	79
33988	366435	Southern forces said they had shot down three northern warplanes.	Southern forces said they had shot down three northern warplanes.	17413892	1472358020423	1472358020513	t	84
33988	366435	Southern forces said they had shot down three northern warplanes.	Southern forces said they had shot down three northern warplanes.	17413895	1472358020591	1472358020726	 	32
33988	366435	Southern forces said they had shot down three northern warplanes.	Southern forces said they had shot down three northern warplanes.	17413899	1472358020903	1472358021054	d	68
33988	366435	Southern forces said they had shot down three northern warplanes.	Southern forces said they had shot down three northern warplanes.	17413903	1472358021046	1472358021101	o	79
33988	366435	Southern forces said they had shot down three northern warplanes.	Southern forces said they had shot down three northern warplanes.	17413907	1472358021234	1472358021345	e	69
33988	366435	Southern forces said they had shot down three northern warplanes.	Southern forces said they had shot down three northern warplanes.	17413970	1472358021703	1472358021797	n	78
33988	366435	Southern forces said they had shot down three northern warplanes.	Southern forces said they had shot down three northern warplanes.	17413972	1472358022094	1472358022180	BKSP	8
33988	366435	Southern forces said they had shot down three northern warplanes.	Southern forces said they had shot down three northern warplanes.	17413974	1472358022258	1472358022346	BKSP	8
33988	366435	Southern forces said they had shot down three northern warplanes.	Southern forces said they had shot down three northern warplanes.	17413976	1472358022393	1472358022506	w	87
33988	366435	Southern forces said they had shot down three northern warplanes.	Southern forces said they had shot down three northern warplanes.	17413978	1472358022616	1472358022754	n	78
33988	366435	Southern forces said they had shot down three northern warplanes.	Southern forces said they had shot down three northern warplanes.	17413980	1472358022816	1472358022965	 	32
33988	366435	Southern forces said they had shot down three northern warplanes.	Southern forces said they had shot down three northern warplanes.	17413982	1472358024142	1472358024234	t	84
33988	366435	Southern forces said they had shot down three northern warplanes.	Southern forces said they had shot down three northern warplanes.	17414013	1472358024261	1472358024378	h	72
33988	366435	Southern forces said they had shot down three northern warplanes.	Southern forces said they had shot down three northern warplanes.	17414015	1472358024472	1472358024604	r	82
33988	366435	Southern forces said they had shot down three northern warplanes.	Southern forces said they had shot down three northern warplanes.	17414017	1472358024636	1472358024708	e	69
33988	366435	Southern forces said they had shot down three northern warplanes.	Southern forces said they had shot down three northern warplanes.	17414018	1472358024896	1472358025065	e	69
33988	366435	Southern forces said they had shot down three northern warplanes.	Southern forces said they had shot down three northern warplanes.	17414019	1472358025358	1472358025520	 	32
33988	366435	Southern forces said they had shot down three northern warplanes.	Southern forces said they had shot down three northern warplanes.	17414054	1472358025861	1472358025962	n	78
33988	366435	Southern forces said they had shot down three northern warplanes.	Southern forces said they had shot down three northern warplanes.	17414055	1472358026066	1472358026189	o	79
33988	366435	Southern forces said they had shot down three northern warplanes.	Southern forces said they had shot down three northern warplanes.	17414056	1472358026411	1472358026522	r	82
33988	366435	Southern forces said they had shot down three northern warplanes.	Southern forces said they had shot down three northern warplanes.	17414057	1472358027128	1472358027261	t	84
33988	366435	Southern forces said they had shot down three northern warplanes.	Southern forces said they had shot down three northern warplanes.	17414059	1472358027324	1472358027444	h	72
33988	366435	Southern forces said they had shot down three northern warplanes.	Southern forces said they had shot down three northern warplanes.	17414122	1472358028165	1472358028309	e	69
33988	366435	Southern forces said they had shot down three northern warplanes.	Southern forces said they had shot down three northern warplanes.	17414126	1472358028595	1472358028707	r	82
33988	366435	Southern forces said they had shot down three northern warplanes.	Southern forces said they had shot down three northern warplanes.	17414130	1472358028754	1472358028909	n	78
33988	366435	Southern forces said they had shot down three northern warplanes.	Southern forces said they had shot down three northern warplanes.	17414134	1472358029046	1472358029150	 	32
33988	366435	Southern forces said they had shot down three northern warplanes.	Southern forces said they had shot down three northern warplanes.	17414138	1472358029704	1472358029838	w	87
33988	366435	Southern forces said they had shot down three northern warplanes.	Southern forces said they had shot down three northern warplanes.	17414162	1472358029896	1472358030100	a	65
33988	366435	Southern forces said they had shot down three northern warplanes.	Southern forces said they had shot down three northern warplanes.	17414164	1472358030064	1472358030225	r	82
33988	366435	Southern forces said they had shot down three northern warplanes.	Southern forces said they had shot down three northern warplanes.	17414166	1472358030555	1472358030700	p	80
33988	366435	Southern forces said they had shot down three northern warplanes.	Southern forces said they had shot down three northern warplanes.	17414169	1472358030841	1472358030988	l	76
33988	366435	Southern forces said they had shot down three northern warplanes.	Southern forces said they had shot down three northern warplanes.	17414173	1472358031004	1472358031165	a	65
33988	366435	Southern forces said they had shot down three northern warplanes.	Southern forces said they had shot down three northern warplanes.	17414192	1472358031146	1472358031303	n	78
33988	366435	Southern forces said they had shot down three northern warplanes.	Southern forces said they had shot down three northern warplanes.	17414194	1472358031475	1472358031595	e	69
33988	366435	Southern forces said they had shot down three northern warplanes.	Southern forces said they had shot down three northern warplanes.	17414197	1472358031856	1472358032004	s	83
33988	366435	Southern forces said they had shot down three northern warplanes.	Southern forces said they had shot down three northern warplanes.	17414200	1472358032140	1472358032255	.	190
33988	366449	Look for this trend to continue when he faces the San Diego.	Look for this trend to continue when he faces the San Diego.	17414266	1472358034674	1472358034858	SHIFT	16
33988	366449	Look for this trend to continue when he faces the San Diego.	Look for this trend to continue when he faces the San Diego.	17414268	1472358034783	1472358034905	L	76
33988	366449	Look for this trend to continue when he faces the San Diego.	Look for this trend to continue when he faces the San Diego.	17414270	1472358035044	1472358035156	o	79
33988	366449	Look for this trend to continue when he faces the San Diego.	Look for this trend to continue when he faces the San Diego.	17414272	1472358035218	1472358035328	o	79
33988	366449	Look for this trend to continue when he faces the San Diego.	Look for this trend to continue when he faces the San Diego.	17414273	1472358035485	1472358035642	k	75
33988	366449	Look for this trend to continue when he faces the San Diego.	Look for this trend to continue when he faces the San Diego.	17414274	1472358035689	1472358035806	 	32
33988	366449	Look for this trend to continue when he faces the San Diego.	Look for this trend to continue when he faces the San Diego.	17414280	1472358035939	1472358036052	f	70
33988	366449	Look for this trend to continue when he faces the San Diego.	Look for this trend to continue when he faces the San Diego.	17414282	1472358036007	1472358036111	o	79
33988	366449	Look for this trend to continue when he faces the San Diego.	Look for this trend to continue when he faces the San Diego.	17414284	1472358036158	1472358036284	r	82
33988	366449	Look for this trend to continue when he faces the San Diego.	Look for this trend to continue when he faces the San Diego.	17414286	1472358036261	1472358036393	 	32
33988	366449	Look for this trend to continue when he faces the San Diego.	Look for this trend to continue when he faces the San Diego.	17414289	1472358036502	1472358036611	t	84
33988	366449	Look for this trend to continue when he faces the San Diego.	Look for this trend to continue when he faces the San Diego.	17414321	1472358036580	1472358036689	h	72
33988	366449	Look for this trend to continue when he faces the San Diego.	Look for this trend to continue when he faces the San Diego.	17414323	1472358036783	1472358036859	i	73
33988	366449	Look for this trend to continue when he faces the San Diego.	Look for this trend to continue when he faces the San Diego.	17414327	1472358036874	1472358037049	s	83
33988	366449	Look for this trend to continue when he faces the San Diego.	Look for this trend to continue when he faces the San Diego.	17414329	1472358037024	1472358037154	 	32
33988	366449	Look for this trend to continue when he faces the San Diego.	Look for this trend to continue when he faces the San Diego.	17414331	1472358037491	1472358037589	t	84
33988	366449	Look for this trend to continue when he faces the San Diego.	Look for this trend to continue when he faces the San Diego.	17414334	1472358037745	1472358037963	r	82
33988	366449	Look for this trend to continue when he faces the San Diego.	Look for this trend to continue when he faces the San Diego.	17414362	1472358037886	1472358038050	e	69
33988	366449	Look for this trend to continue when he faces the San Diego.	Look for this trend to continue when he faces the San Diego.	17414365	1472358038238	1472358038339	n	78
33988	366449	Look for this trend to continue when he faces the San Diego.	Look for this trend to continue when he faces the San Diego.	17414368	1472358038527	1472358038659	d	68
33988	366449	Look for this trend to continue when he faces the San Diego.	Look for this trend to continue when he faces the San Diego.	17414373	1472358038675	1472358038789	 	32
33988	366449	Look for this trend to continue when he faces the San Diego.	Look for this trend to continue when he faces the San Diego.	17414377	1472358038961	1472358039067	t	84
33988	366449	Look for this trend to continue when he faces the San Diego.	Look for this trend to continue when he faces the San Diego.	17414413	1472358039041	1472358039188	o	79
33988	366449	Look for this trend to continue when he faces the San Diego.	Look for this trend to continue when he faces the San Diego.	17414416	1472358039171	1472358039294	 	32
33988	366449	Look for this trend to continue when he faces the San Diego.	Look for this trend to continue when he faces the San Diego.	17414418	1472358039434	1472358039579	c	67
33988	366449	Look for this trend to continue when he faces the San Diego.	Look for this trend to continue when he faces the San Diego.	17414421	1472358039564	1472358039640	o	79
33988	366449	Look for this trend to continue when he faces the San Diego.	Look for this trend to continue when he faces the San Diego.	17414422	1472358039703	1472358039821	n	78
33988	366449	Look for this trend to continue when he faces the San Diego.	Look for this trend to continue when he faces the San Diego.	17414424	1472358039884	1472358039979	t	84
33988	366449	Look for this trend to continue when he faces the San Diego.	Look for this trend to continue when he faces the San Diego.	17414440	1472358040039	1472358040130	i	73
33988	366449	Look for this trend to continue when he faces the San Diego.	Look for this trend to continue when he faces the San Diego.	17414442	1472358040239	1472358040346	n	78
33988	366449	Look for this trend to continue when he faces the San Diego.	Look for this trend to continue when he faces the San Diego.	17414444	1472358040486	1472358040595	u	85
33988	366449	Look for this trend to continue when he faces the San Diego.	Look for this trend to continue when he faces the San Diego.	17414446	1472358040641	1472358040744	e	69
33988	366449	Look for this trend to continue when he faces the San Diego.	Look for this trend to continue when he faces the San Diego.	17414447	1472358040759	1472358040938	 	32
33988	366449	Look for this trend to continue when he faces the San Diego.	Look for this trend to continue when he faces the San Diego.	17414456	1472358041093	1472358041227	w	87
33988	366449	Look for this trend to continue when he faces the San Diego.	Look for this trend to continue when he faces the San Diego.	17414457	1472358041196	1472358041321	h	72
33988	366449	Look for this trend to continue when he faces the San Diego.	Look for this trend to continue when he faces the San Diego.	17414458	1472358041337	1472358041454	e	69
33988	366449	Look for this trend to continue when he faces the San Diego.	Look for this trend to continue when he faces the San Diego.	17414459	1472358041470	1472358041635	n	78
33988	366449	Look for this trend to continue when he faces the San Diego.	Look for this trend to continue when he faces the San Diego.	17414460	1472358041651	1472358041766	 	32
33988	366449	Look for this trend to continue when he faces the San Diego.	Look for this trend to continue when he faces the San Diego.	17414490	1472358041935	1472358042067	h	72
33988	366449	Look for this trend to continue when he faces the San Diego.	Look for this trend to continue when he faces the San Diego.	17414492	1472358042035	1472358042159	e	69
33988	366449	Look for this trend to continue when he faces the San Diego.	Look for this trend to continue when he faces the San Diego.	17414494	1472358042175	1472358042336	 	32
33988	366449	Look for this trend to continue when he faces the San Diego.	Look for this trend to continue when he faces the San Diego.	17414496	1472358042467	1472358042594	f	70
33988	366449	Look for this trend to continue when he faces the San Diego.	Look for this trend to continue when he faces the San Diego.	17414498	1472358042610	1472358042753	a	65
33988	366449	Look for this trend to continue when he faces the San Diego.	Look for this trend to continue when he faces the San Diego.	17414502	1472358042897	1472358043018	c	67
33988	366449	Look for this trend to continue when he faces the San Diego.	Look for this trend to continue when he faces the San Diego.	17414504	1472358043126	1472358043228	e	69
33988	366449	Look for this trend to continue when he faces the San Diego.	Look for this trend to continue when he faces the San Diego.	17414507	1472358043259	1472358043393	s	83
33988	366449	Look for this trend to continue when he faces the San Diego.	Look for this trend to continue when he faces the San Diego.	17414510	1472358043408	1472358043542	 	32
33988	366449	Look for this trend to continue when he faces the San Diego.	Look for this trend to continue when he faces the San Diego.	17414514	1472358043605	1472358043691	t	84
33988	366449	Look for this trend to continue when he faces the San Diego.	Look for this trend to continue when he faces the San Diego.	17414527	1472358043722	1472358043796	h	72
33988	366449	Look for this trend to continue when he faces the San Diego.	Look for this trend to continue when he faces the San Diego.	17414529	1472358043812	1472358043955	e	69
33988	366449	Look for this trend to continue when he faces the San Diego.	Look for this trend to continue when he faces the San Diego.	17414532	1472358043968	1472358044106	 	32
33988	366449	Look for this trend to continue when he faces the San Diego.	Look for this trend to continue when he faces the San Diego.	17414536	1472358044170	1472358044361	SHIFT	16
33988	366449	Look for this trend to continue when he faces the San Diego.	Look for this trend to continue when he faces the San Diego.	17414541	1472358044259	1472358044424	S	83
33988	366449	Look for this trend to continue when he faces the San Diego.	Look for this trend to continue when he faces the San Diego.	17414544	1472358044471	1472358044620	a	65
33988	366449	Look for this trend to continue when he faces the San Diego.	Look for this trend to continue when he faces the San Diego.	17414587	1472358044573	1472358044733	n	78
33988	366449	Look for this trend to continue when he faces the San Diego.	Look for this trend to continue when he faces the San Diego.	17414589	1472358044764	1472358044846	 	32
33988	366449	Look for this trend to continue when he faces the San Diego.	Look for this trend to continue when he faces the San Diego.	17414591	1472358044908	1472358045081	SHIFT	16
33988	366449	Look for this trend to continue when he faces the San Diego.	Look for this trend to continue when he faces the San Diego.	17414593	1472358045175	1472358045631	SHIFT	16
33988	366449	Look for this trend to continue when he faces the San Diego.	Look for this trend to continue when he faces the San Diego.	17414595	1472358045519	1472358045662	D	68
33988	366449	Look for this trend to continue when he faces the San Diego.	Look for this trend to continue when he faces the San Diego.	17414598	1472358045834	1472358045960	i	73
33988	366449	Look for this trend to continue when he faces the San Diego.	Look for this trend to continue when he faces the San Diego.	17414600	1472358046076	1472358046209	e	69
33988	366449	Look for this trend to continue when he faces the San Diego.	Look for this trend to continue when he faces the San Diego.	17414602	1472358046366	1472358046479	g	71
33988	366449	Look for this trend to continue when he faces the San Diego.	Look for this trend to continue when he faces the San Diego.	17414604	1472358046522	1472358046640	o	79
33988	366449	Look for this trend to continue when he faces the San Diego.	Look for this trend to continue when he faces the San Diego.	17414605	1472358046806	1472358046922	.	190
33988	366457	Seve Ballesteros was well satisfied with his first round.	Seve Ballesteros was well satisfied with his first round.	17414716	1472358049110	1472358049402	SHIFT	16
33988	366457	Seve Ballesteros was well satisfied with his first round.	Seve Ballesteros was well satisfied with his first round.	17414719	1472358049345	1472358049523	S	83
33988	366457	Seve Ballesteros was well satisfied with his first round.	Seve Ballesteros was well satisfied with his first round.	17414720	1472358049479	1472358049619	e	69
33988	366457	Seve Ballesteros was well satisfied with his first round.	Seve Ballesteros was well satisfied with his first round.	17414721	1472358049813	1472358049978	v	86
33988	366457	Seve Ballesteros was well satisfied with his first round.	Seve Ballesteros was well satisfied with his first round.	17414723	1472358049934	1472358050100	e	69
33988	366457	Seve Ballesteros was well satisfied with his first round.	Seve Ballesteros was well satisfied with his first round.	17414766	1472358050067	1472358050210	 	32
33988	366457	Seve Ballesteros was well satisfied with his first round.	Seve Ballesteros was well satisfied with his first round.	17414769	1472358050460	1472358050948	SHIFT	16
33988	366457	Seve Ballesteros was well satisfied with his first round.	Seve Ballesteros was well satisfied with his first round.	17414770	1472358050820	1472358050979	B	66
33988	366457	Seve Ballesteros was well satisfied with his first round.	Seve Ballesteros was well satisfied with his first round.	17414771	1472358051185	1472358051341	a	65
33988	366457	Seve Ballesteros was well satisfied with his first round.	Seve Ballesteros was well satisfied with his first round.	17414772	1472358051529	1472358051628	l	76
33988	366457	Seve Ballesteros was well satisfied with his first round.	Seve Ballesteros was well satisfied with his first round.	17414774	1472358051722	1472358051858	l	76
33988	366457	Seve Ballesteros was well satisfied with his first round.	Seve Ballesteros was well satisfied with his first round.	17414777	1472358052078	1472358052162	e	69
33988	366457	Seve Ballesteros was well satisfied with his first round.	Seve Ballesteros was well satisfied with his first round.	17414828	1472358052220	1472358052311	s	83
33988	366457	Seve Ballesteros was well satisfied with his first round.	Seve Ballesteros was well satisfied with his first round.	17414829	1472358052582	1472358052726	t	84
33988	366457	Seve Ballesteros was well satisfied with his first round.	Seve Ballesteros was well satisfied with his first round.	17414830	1472358052913	1472358053097	e	69
33988	366457	Seve Ballesteros was well satisfied with his first round.	Seve Ballesteros was well satisfied with his first round.	17414832	1472358053050	1472358053208	r	82
33988	366457	Seve Ballesteros was well satisfied with his first round.	Seve Ballesteros was well satisfied with his first round.	17414834	1472358053318	1472358053442	o	79
33988	366457	Seve Ballesteros was well satisfied with his first round.	Seve Ballesteros was well satisfied with his first round.	17414863	1472358053520	1472358053643	s	83
33988	366457	Seve Ballesteros was well satisfied with his first round.	Seve Ballesteros was well satisfied with his first round.	17414866	1472358053674	1472358053810	 	32
33988	366457	Seve Ballesteros was well satisfied with his first round.	Seve Ballesteros was well satisfied with his first round.	17414870	1472358053973	1472358054103	w	87
33988	366457	Seve Ballesteros was well satisfied with his first round.	Seve Ballesteros was well satisfied with his first round.	17414876	1472358054119	1472358054286	a	65
33988	366457	Seve Ballesteros was well satisfied with his first round.	Seve Ballesteros was well satisfied with his first round.	17415011	1472358054259	1472358054465	s	83
33988	366457	Seve Ballesteros was well satisfied with his first round.	Seve Ballesteros was well satisfied with his first round.	17415013	1472358054440	1472358054591	 	32
33988	366457	Seve Ballesteros was well satisfied with his first round.	Seve Ballesteros was well satisfied with his first round.	17415016	1472358058427	1472358058555	w	87
33988	366457	Seve Ballesteros was well satisfied with his first round.	Seve Ballesteros was well satisfied with his first round.	17415018	1472358058743	1472358058860	e	69
33988	366457	Seve Ballesteros was well satisfied with his first round.	Seve Ballesteros was well satisfied with his first round.	17415020	1472358058953	1472358059064	l	76
33988	366457	Seve Ballesteros was well satisfied with his first round.	Seve Ballesteros was well satisfied with his first round.	17415022	1472358059127	1472358059289	l	76
33988	366457	Seve Ballesteros was well satisfied with his first round.	Seve Ballesteros was well satisfied with his first round.	17415047	1472358059243	1472358059355	 	32
33988	366457	Seve Ballesteros was well satisfied with his first round.	Seve Ballesteros was well satisfied with his first round.	17415050	1472358059877	1472358060008	s	83
33988	366457	Seve Ballesteros was well satisfied with his first round.	Seve Ballesteros was well satisfied with his first round.	17415053	1472358060057	1472358060176	a	65
33988	366457	Seve Ballesteros was well satisfied with his first round.	Seve Ballesteros was well satisfied with his first round.	17415056	1472358060379	1472358060489	t	84
33988	366457	Seve Ballesteros was well satisfied with his first round.	Seve Ballesteros was well satisfied with his first round.	17415058	1472358060536	1472358060681	i	73
33988	366457	Seve Ballesteros was well satisfied with his first round.	Seve Ballesteros was well satisfied with his first round.	17415091	1472358060655	1472358060789	s	83
33988	366457	Seve Ballesteros was well satisfied with his first round.	Seve Ballesteros was well satisfied with his first round.	17415092	1472358061104	1472358061239	f	70
33988	366457	Seve Ballesteros was well satisfied with his first round.	Seve Ballesteros was well satisfied with his first round.	17415093	1472358061255	1472358061371	i	73
33988	366457	Seve Ballesteros was well satisfied with his first round.	Seve Ballesteros was well satisfied with his first round.	17415094	1472358061433	1472358061554	e	69
33988	366457	Seve Ballesteros was well satisfied with his first round.	Seve Ballesteros was well satisfied with his first round.	17415095	1472358061694	1472358061837	d	68
33988	366457	Seve Ballesteros was well satisfied with his first round.	Seve Ballesteros was well satisfied with his first round.	17415096	1472358061868	1472358062009	 	32
33988	366457	Seve Ballesteros was well satisfied with his first round.	Seve Ballesteros was well satisfied with his first round.	17415120	1472358062142	1472358062257	w	87
33988	366457	Seve Ballesteros was well satisfied with his first round.	Seve Ballesteros was well satisfied with his first round.	17415124	1472358062207	1472358062337	i	73
33988	366457	Seve Ballesteros was well satisfied with his first round.	Seve Ballesteros was well satisfied with his first round.	17415126	1472358062305	1472358062432	t	84
33988	366457	Seve Ballesteros was well satisfied with his first round.	Seve Ballesteros was well satisfied with his first round.	17415128	1472358062410	1472358062583	h	72
33988	366457	Seve Ballesteros was well satisfied with his first round.	Seve Ballesteros was well satisfied with his first round.	17415130	1472358062614	1472358062707	 	32
33988	366457	Seve Ballesteros was well satisfied with his first round.	Seve Ballesteros was well satisfied with his first round.	17415182	1472358062916	1472358063016	h	72
33988	366457	Seve Ballesteros was well satisfied with his first round.	Seve Ballesteros was well satisfied with his first round.	17415183	1472358063098	1472358063216	i	73
33988	366457	Seve Ballesteros was well satisfied with his first round.	Seve Ballesteros was well satisfied with his first round.	17415185	1472358063247	1472358063396	s	83
33988	366457	Seve Ballesteros was well satisfied with his first round.	Seve Ballesteros was well satisfied with his first round.	17415187	1472358063322	1472358063459	 	32
33988	366457	Seve Ballesteros was well satisfied with his first round.	Seve Ballesteros was well satisfied with his first round.	17415190	1472358063678	1472358063772	f	70
33988	366457	Seve Ballesteros was well satisfied with his first round.	Seve Ballesteros was well satisfied with his first round.	17415184	1472358063788	1472358063888	i	73
33988	366457	Seve Ballesteros was well satisfied with his first round.	Seve Ballesteros was well satisfied with his first round.	17415186	1472358063924	1472358064050	r	82
33988	366457	Seve Ballesteros was well satisfied with his first round.	Seve Ballesteros was well satisfied with his first round.	17415188	1472358064175	1472358064284	s	83
33988	366457	Seve Ballesteros was well satisfied with his first round.	Seve Ballesteros was well satisfied with his first round.	17415191	1472358064315	1472358064443	t	84
33988	366457	Seve Ballesteros was well satisfied with his first round.	Seve Ballesteros was well satisfied with his first round.	17415193	1472358064474	1472358064587	 	32
33988	366457	Seve Ballesteros was well satisfied with his first round.	Seve Ballesteros was well satisfied with his first round.	17415210	1472358064763	1472358064888	r	82
33988	366457	Seve Ballesteros was well satisfied with his first round.	Seve Ballesteros was well satisfied with his first round.	17415212	1472358064856	1472358065133	o	79
33988	366457	Seve Ballesteros was well satisfied with his first round.	Seve Ballesteros was well satisfied with his first round.	17415214	1472358064976	1472358065165	u	85
33988	366457	Seve Ballesteros was well satisfied with his first round.	Seve Ballesteros was well satisfied with his first round.	17415215	1472358065243	1472358065347	n	78
33988	366457	Seve Ballesteros was well satisfied with his first round.	Seve Ballesteros was well satisfied with his first round.	17415216	1472358065410	1472358065522	g	71
33988	366457	Seve Ballesteros was well satisfied with his first round.	Seve Ballesteros was well satisfied with his first round.	17415267	1472358066044	1472358066170	BKSP	8
33988	366457	Seve Ballesteros was well satisfied with his first round.	Seve Ballesteros was well satisfied with his first round.	17415269	1472358066311	1472358066426	d	68
33988	366457	Seve Ballesteros was well satisfied with his first round.	Seve Ballesteros was well satisfied with his first round.	17415270	1472358066651	1472358066757	.	190
33988	366465	The move was a further twist in the long-running dispute.	The move was a further twist in the long-running dispute.	17415353	1472358069078	1472358069296	SHIFT	16
33988	366465	The move was a further twist in the long-running dispute.	The move was a further twist in the long-running dispute.	17415354	1472358069222	1472358069384	T	84
33988	366465	The move was a further twist in the long-running dispute.	The move was a further twist in the long-running dispute.	17415355	1472358069358	1472358069455	h	72
33988	366465	The move was a further twist in the long-running dispute.	The move was a further twist in the long-running dispute.	17415356	1472358069486	1472358069608	e	69
33988	366465	The move was a further twist in the long-running dispute.	The move was a further twist in the long-running dispute.	17415357	1472358069624	1472358069758	 	32
33988	366465	The move was a further twist in the long-running dispute.	The move was a further twist in the long-running dispute.	17415358	1472358069868	1472358069982	m	77
33988	366465	The move was a further twist in the long-running dispute.	The move was a further twist in the long-running dispute.	17415367	1472358070055	1472358070141	o	79
33988	366465	The move was a further twist in the long-running dispute.	The move was a further twist in the long-running dispute.	17415370	1472358070087	1472358070204	v	86
33988	366465	The move was a further twist in the long-running dispute.	The move was a further twist in the long-running dispute.	17415373	1472358070266	1472358070366	e	69
33988	366465	The move was a further twist in the long-running dispute.	The move was a further twist in the long-running dispute.	17415376	1472358070429	1472358070554	 	32
33988	366465	The move was a further twist in the long-running dispute.	The move was a further twist in the long-running dispute.	17415378	1472358070697	1472358070779	w	87
33988	366465	The move was a further twist in the long-running dispute.	The move was a further twist in the long-running dispute.	17415395	1472358070873	1472358071000	a	65
33988	366465	The move was a further twist in the long-running dispute.	The move was a further twist in the long-running dispute.	17415396	1472358070955	1472358071136	s	83
33988	366465	The move was a further twist in the long-running dispute.	The move was a further twist in the long-running dispute.	17415397	1472358071102	1472358071225	 	32
33988	366465	The move was a further twist in the long-running dispute.	The move was a further twist in the long-running dispute.	17415398	1472358071241	1472358071401	a	65
33988	366465	The move was a further twist in the long-running dispute.	The move was a further twist in the long-running dispute.	17415399	1472358071417	1472358071557	 	32
33988	366465	The move was a further twist in the long-running dispute.	The move was a further twist in the long-running dispute.	17415430	1472358071686	1472358071840	f	70
33988	366465	The move was a further twist in the long-running dispute.	The move was a further twist in the long-running dispute.	17415431	1472358072048	1472358072186	u	85
33988	366465	The move was a further twist in the long-running dispute.	The move was a further twist in the long-running dispute.	17415432	1472358072202	1472358072321	r	82
33988	366465	The move was a further twist in the long-running dispute.	The move was a further twist in the long-running dispute.	17415433	1472358072796	1472358072904	t	84
33988	366465	The move was a further twist in the long-running dispute.	The move was a further twist in the long-running dispute.	17415434	1472358073024	1472358073137	h	72
33988	366465	The move was a further twist in the long-running dispute.	The move was a further twist in the long-running dispute.	17415462	1472358073175	1472358073343	e	69
33988	366465	The move was a further twist in the long-running dispute.	The move was a further twist in the long-running dispute.	17415463	1472358073303	1472358073451	r	82
33988	366465	The move was a further twist in the long-running dispute.	The move was a further twist in the long-running dispute.	17415464	1472358073482	1472358073609	 	32
33988	366465	The move was a further twist in the long-running dispute.	The move was a further twist in the long-running dispute.	17415465	1472358074079	1472358074161	t	84
33988	366465	The move was a further twist in the long-running dispute.	The move was a further twist in the long-running dispute.	17415466	1472358074496	1472358074614	w	87
33988	366465	The move was a further twist in the long-running dispute.	The move was a further twist in the long-running dispute.	17415556	1472358074822	1472358074942	e	69
33988	366465	The move was a further twist in the long-running dispute.	The move was a further twist in the long-running dispute.	17415557	1472358075486	1472358075588	i	73
33988	366465	The move was a further twist in the long-running dispute.	The move was a further twist in the long-running dispute.	17415558	1472358075684	1472358075793	s	83
33988	366465	The move was a further twist in the long-running dispute.	The move was a further twist in the long-running dispute.	17415559	1472358076280	1472358076371	BKSP	8
33988	366465	The move was a further twist in the long-running dispute.	The move was a further twist in the long-running dispute.	17415560	1472358076449	1472358076548	BKSP	8
33988	366465	The move was a further twist in the long-running dispute.	The move was a further twist in the long-running dispute.	17415561	1472358076642	1472358076770	BKSP	8
33988	366465	The move was a further twist in the long-running dispute.	The move was a further twist in the long-running dispute.	17415562	1472358077004	1472358077110	i	73
33988	366465	The move was a further twist in the long-running dispute.	The move was a further twist in the long-running dispute.	17415563	1472358077141	1472358077259	s	83
33988	366465	The move was a further twist in the long-running dispute.	The move was a further twist in the long-running dispute.	17415603	1472358077318	1472358077441	t	84
33988	366465	The move was a further twist in the long-running dispute.	The move was a further twist in the long-running dispute.	17415605	1472358077566	1472358077709	 	32
33988	366465	The move was a further twist in the long-running dispute.	The move was a further twist in the long-running dispute.	17415607	1472358077865	1472358077929	i	73
33988	366465	The move was a further twist in the long-running dispute.	The move was a further twist in the long-running dispute.	17415609	1472358078040	1472358078224	n	78
33988	366465	The move was a further twist in the long-running dispute.	The move was a further twist in the long-running dispute.	17415629	1472358078201	1472358078359	 	32
33988	366465	The move was a further twist in the long-running dispute.	The move was a further twist in the long-running dispute.	17415632	1472358078341	1472358078462	t	84
33988	366465	The move was a further twist in the long-running dispute.	The move was a further twist in the long-running dispute.	17415633	1472358078428	1472358078543	h	72
33988	366465	The move was a further twist in the long-running dispute.	The move was a further twist in the long-running dispute.	17415634	1472358078637	1472358078726	e	69
33988	366465	The move was a further twist in the long-running dispute.	The move was a further twist in the long-running dispute.	17415635	1472358078687	1472358078836	 	32
33988	366465	The move was a further twist in the long-running dispute.	The move was a further twist in the long-running dispute.	17415637	1472358078946	1472358079067	l	76
33988	366465	The move was a further twist in the long-running dispute.	The move was a further twist in the long-running dispute.	17415673	1472358079163	1472358079265	o	79
33988	366465	The move was a further twist in the long-running dispute.	The move was a further twist in the long-running dispute.	17415675	1472358079363	1472358079438	n	78
33988	366465	The move was a further twist in the long-running dispute.	The move was a further twist in the long-running dispute.	17415680	1472358079532	1472358079606	g	71
33988	366465	The move was a further twist in the long-running dispute.	The move was a further twist in the long-running dispute.	17415684	1472358080342	1472358080412	-	189
33988	366465	The move was a further twist in the long-running dispute.	The move was a further twist in the long-running dispute.	17415686	1472358080912	1472358081033	r	82
33988	366465	The move was a further twist in the long-running dispute.	The move was a further twist in the long-running dispute.	17415687	1472358081118	1472358081215	u	85
33988	366465	The move was a further twist in the long-running dispute.	The move was a further twist in the long-running dispute.	17415688	1472358081403	1472358081463	n	78
33988	366465	The move was a further twist in the long-running dispute.	The move was a further twist in the long-running dispute.	17415689	1472358081541	1472358081653	n	78
33988	366465	The move was a further twist in the long-running dispute.	The move was a further twist in the long-running dispute.	17415690	1472358081762	1472358081845	i	73
33988	366465	The move was a further twist in the long-running dispute.	The move was a further twist in the long-running dispute.	17415691	1472358081939	1472358082022	n	78
33988	366465	The move was a further twist in the long-running dispute.	The move was a further twist in the long-running dispute.	17415724	1472358082080	1472358082193	g	71
33988	366465	The move was a further twist in the long-running dispute.	The move was a further twist in the long-running dispute.	17415726	1472358082224	1472358082359	 	32
33988	366465	The move was a further twist in the long-running dispute.	The move was a further twist in the long-running dispute.	17415728	1472358082476	1472358082613	d	68
33988	366465	The move was a further twist in the long-running dispute.	The move was a further twist in the long-running dispute.	17415730	1472358082571	1472358082708	i	73
33988	366465	The move was a further twist in the long-running dispute.	The move was a further twist in the long-running dispute.	17415731	1472358082804	1472358082990	s	83
33988	366465	The move was a further twist in the long-running dispute.	The move was a further twist in the long-running dispute.	17415746	1472358083035	1472358083168	p	80
33988	366465	The move was a further twist in the long-running dispute.	The move was a further twist in the long-running dispute.	17415748	1472358083285	1472358083424	u	85
33988	366465	The move was a further twist in the long-running dispute.	The move was a further twist in the long-running dispute.	17415752	1472358083440	1472358083620	t	84
33988	366465	The move was a further twist in the long-running dispute.	The move was a further twist in the long-running dispute.	17415754	1472358083700	1472358083878	e	69
33988	366465	The move was a further twist in the long-running dispute.	The move was a further twist in the long-running dispute.	17415908	1472358083856	1472358083954	r	82
33988	366465	The move was a further twist in the long-running dispute.	The move was a further twist in the long-running dispute.	17415909	1472358084305	1472358084404	BKSP	8
33988	366465	The move was a further twist in the long-running dispute.	The move was a further twist in the long-running dispute.	17415911	1472358084854	1472358084890	ALT	18
33988	366481	Wang urged the international community not to forget the prisoners.	Wang urged the international community not to forget the prisoners.	17416061	1472358091201	1472358091520	SHIFT	16
33988	366481	Wang urged the international community not to forget the prisoners.	Wang urged the international community not to forget the prisoners.	17416064	1472358091411	1472358091567	W	87
33988	366481	Wang urged the international community not to forget the prisoners.	Wang urged the international community not to forget the prisoners.	17416067	1472358091629	1472358091789	a	65
33988	366481	Wang urged the international community not to forget the prisoners.	Wang urged the international community not to forget the prisoners.	17416070	1472358091773	1472358091892	n	78
33988	366481	Wang urged the international community not to forget the prisoners.	Wang urged the international community not to forget the prisoners.	17416073	1472358092677	1472358092837	g	71
33988	366481	Wang urged the international community not to forget the prisoners.	Wang urged the international community not to forget the prisoners.	17416075	1472358092902	1472358093039	 	32
33988	366481	Wang urged the international community not to forget the prisoners.	Wang urged the international community not to forget the prisoners.	17416137	1472358093597	1472358093716	u	85
33988	366481	Wang urged the international community not to forget the prisoners.	Wang urged the international community not to forget the prisoners.	17416142	1472358093877	1472358094021	r	82
33988	366481	Wang urged the international community not to forget the prisoners.	Wang urged the international community not to forget the prisoners.	17416143	1472358094373	1472358094493	g	71
33988	366481	Wang urged the international community not to forget the prisoners.	Wang urged the international community not to forget the prisoners.	17416146	1472358094533	1472358094653	e	69
33988	366481	Wang urged the international community not to forget the prisoners.	Wang urged the international community not to forget the prisoners.	17416150	1472358094820	1472358094956	d	68
33988	366481	Wang urged the international community not to forget the prisoners.	Wang urged the international community not to forget the prisoners.	17416172	1472358094938	1472358095087	 	32
33988	366481	Wang urged the international community not to forget the prisoners.	Wang urged the international community not to forget the prisoners.	17416173	1472358095134	1472358095242	t	84
33988	366481	Wang urged the international community not to forget the prisoners.	Wang urged the international community not to forget the prisoners.	17416174	1472358095262	1472358095353	h	72
33988	366481	Wang urged the international community not to forget the prisoners.	Wang urged the international community not to forget the prisoners.	17416175	1472358095368	1472358095512	e	69
33988	366481	Wang urged the international community not to forget the prisoners.	Wang urged the international community not to forget the prisoners.	17416176	1472358095527	1472358095674	 	32
33988	366481	Wang urged the international community not to forget the prisoners.	Wang urged the international community not to forget the prisoners.	17416177	1472358095814	1472358095925	i	73
33988	366481	Wang urged the international community not to forget the prisoners.	Wang urged the international community not to forget the prisoners.	17416203	1472358096007	1472358096156	n	78
33988	366481	Wang urged the international community not to forget the prisoners.	Wang urged the international community not to forget the prisoners.	17416208	1472358096107	1472358096220	t	84
33988	366481	Wang urged the international community not to forget the prisoners.	Wang urged the international community not to forget the prisoners.	17416211	1472358096282	1472358096436	e	69
33988	366481	Wang urged the international community not to forget the prisoners.	Wang urged the international community not to forget the prisoners.	17416217	1472358096388	1472358096503	r	82
33988	366481	Wang urged the international community not to forget the prisoners.	Wang urged the international community not to forget the prisoners.	17416221	1472358096784	1472358096924	n	78
33988	366481	Wang urged the international community not to forget the prisoners.	Wang urged the international community not to forget the prisoners.	17416242	1472358096939	1472358097063	a	65
33988	366481	Wang urged the international community not to forget the prisoners.	Wang urged the international community not to forget the prisoners.	17416246	1472358097307	1472358097393	t	84
33988	366481	Wang urged the international community not to forget the prisoners.	Wang urged the international community not to forget the prisoners.	17416250	1472358097409	1472358097657	i	73
33988	366481	Wang urged the international community not to forget the prisoners.	Wang urged the international community not to forget the prisoners.	17416255	1472358097525	1472358097688	o	79
33988	366481	Wang urged the international community not to forget the prisoners.	Wang urged the international community not to forget the prisoners.	17416259	1472358097719	1472358097846	n	78
33988	366481	Wang urged the international community not to forget the prisoners.	Wang urged the international community not to forget the prisoners.	17416317	1472358097904	1472358098039	a	65
33988	366481	Wang urged the international community not to forget the prisoners.	Wang urged the international community not to forget the prisoners.	17416318	1472358098201	1472358098356	l	76
33988	366481	Wang urged the international community not to forget the prisoners.	Wang urged the international community not to forget the prisoners.	17416320	1472358098372	1472358098532	 	32
33988	366481	Wang urged the international community not to forget the prisoners.	Wang urged the international community not to forget the prisoners.	17416322	1472358099083	1472358099268	c	67
33988	366481	Wang urged the international community not to forget the prisoners.	Wang urged the international community not to forget the prisoners.	17416363	1472358099239	1472358099327	o	79
33988	366481	Wang urged the international community not to forget the prisoners.	Wang urged the international community not to forget the prisoners.	17416364	1472358099468	1472358099538	m	77
33988	366481	Wang urged the international community not to forget the prisoners.	Wang urged the international community not to forget the prisoners.	17416365	1472358099616	1472358099740	m	77
33988	366481	Wang urged the international community not to forget the prisoners.	Wang urged the international community not to forget the prisoners.	17416366	1472358099865	1472358099970	u	85
33988	366481	Wang urged the international community not to forget the prisoners.	Wang urged the international community not to forget the prisoners.	17416367	1472358100099	1472358100182	n	78
33988	366481	Wang urged the international community not to forget the prisoners.	Wang urged the international community not to forget the prisoners.	17416368	1472358100276	1472358100388	i	73
33988	366481	Wang urged the international community not to forget the prisoners.	Wang urged the international community not to forget the prisoners.	17416390	1472358100328	1472358100443	t	84
33988	366481	Wang urged the international community not to forget the prisoners.	Wang urged the international community not to forget the prisoners.	17416392	1472358100521	1472358100684	y	89
33988	366481	Wang urged the international community not to forget the prisoners.	Wang urged the international community not to forget the prisoners.	17416394	1472358100712	1472358100840	 	32
33988	366481	Wang urged the international community not to forget the prisoners.	Wang urged the international community not to forget the prisoners.	17416396	1472358101012	1472358101104	n	78
33988	366481	Wang urged the international community not to forget the prisoners.	Wang urged the international community not to forget the prisoners.	17416398	1472358101167	1472358101276	o	79
33988	366481	Wang urged the international community not to forget the prisoners.	Wang urged the international community not to forget the prisoners.	17416431	1472358101211	1472358101319	t	84
33988	366481	Wang urged the international community not to forget the prisoners.	Wang urged the international community not to forget the prisoners.	17416434	1472358101382	1472358101503	 	32
33988	366481	Wang urged the international community not to forget the prisoners.	Wang urged the international community not to forget the prisoners.	17416438	1472358101611	1472358101724	t	84
33988	366481	Wang urged the international community not to forget the prisoners.	Wang urged the international community not to forget the prisoners.	17416439	1472358101694	1472358101819	o	79
33988	366481	Wang urged the international community not to forget the prisoners.	Wang urged the international community not to forget the prisoners.	17416442	1472358101802	1472358101950	 	32
33988	366481	Wang urged the international community not to forget the prisoners.	Wang urged the international community not to forget the prisoners.	17416445	1472358102107	1472358102209	f	70
33988	366481	Wang urged the international community not to forget the prisoners.	Wang urged the international community not to forget the prisoners.	17416463	1472358102243	1472358102322	o	79
33988	366481	Wang urged the international community not to forget the prisoners.	Wang urged the international community not to forget the prisoners.	17416464	1472358102353	1472358102454	r	82
33988	366481	Wang urged the international community not to forget the prisoners.	Wang urged the international community not to forget the prisoners.	17416468	1472358102688	1472358102787	g	71
33988	366481	Wang urged the international community not to forget the prisoners.	Wang urged the international community not to forget the prisoners.	17416473	1472358102850	1472358102969	e	69
33988	366481	Wang urged the international community not to forget the prisoners.	Wang urged the international community not to forget the prisoners.	17416477	1472358102985	1472358103097	t	84
33988	366481	Wang urged the international community not to forget the prisoners.	Wang urged the international community not to forget the prisoners.	17416502	1472358103148	1472358103290	 	32
33988	366481	Wang urged the international community not to forget the prisoners.	Wang urged the international community not to forget the prisoners.	17416505	1472358103359	1472358103459	t	84
33988	366481	Wang urged the international community not to forget the prisoners.	Wang urged the international community not to forget the prisoners.	17416507	1472358103439	1472358103553	h	72
33988	366481	Wang urged the international community not to forget the prisoners.	Wang urged the international community not to forget the prisoners.	17416509	1472358103616	1472358103721	e	69
33988	366481	Wang urged the international community not to forget the prisoners.	Wang urged the international community not to forget the prisoners.	17416511	1472358103768	1472358103875	 	32
33988	366481	Wang urged the international community not to forget the prisoners.	Wang urged the international community not to forget the prisoners.	17416551	1472358104229	1472358104351	p	80
33988	366481	Wang urged the international community not to forget the prisoners.	Wang urged the international community not to forget the prisoners.	17416552	1472358104554	1472358104620	r	82
33988	366481	Wang urged the international community not to forget the prisoners.	Wang urged the international community not to forget the prisoners.	17416554	1472358104762	1472358104869	i	73
33988	366481	Wang urged the international community not to forget the prisoners.	Wang urged the international community not to forget the prisoners.	17416557	1472358105072	1472358105219	s	83
33988	366481	Wang urged the international community not to forget the prisoners.	Wang urged the international community not to forget the prisoners.	17416599	1472358105186	1472358105277	o	79
33988	366481	Wang urged the international community not to forget the prisoners.	Wang urged the international community not to forget the prisoners.	17416600	1472358105359	1472358105460	n	78
33988	366481	Wang urged the international community not to forget the prisoners.	Wang urged the international community not to forget the prisoners.	17416601	1472358105475	1472358105586	e	69
33988	366481	Wang urged the international community not to forget the prisoners.	Wang urged the international community not to forget the prisoners.	17416602	1472358105683	1472358105817	r	82
33988	366481	Wang urged the international community not to forget the prisoners.	Wang urged the international community not to forget the prisoners.	17416603	1472358105911	1472358106038	s	83
33988	366493	I'll take them one at a time.	I'll take them one at a time.	17416725	1472358108740	1472358109020	SHIFT	16
33988	366493	I'll take them one at a time.	I'll take them one at a time.	17416730	1472358108923	1472358109043	I	73
33988	366493	I'll take them one at a time.	I'll take them one at a time.	17416734	1472358109307	1472358109435	'	222
33988	366493	I'll take them one at a time.	I'll take them one at a time.	17416736	1472358110016	1472358110087	l	76
33988	366493	I'll take them one at a time.	I'll take them one at a time.	17416739	1472358110185	1472358110355	l	76
33988	366493	I'll take them one at a time.	I'll take them one at a time.	17416740	1472358110370	1472358110518	 	32
33988	366493	I'll take them one at a time.	I'll take them one at a time.	17416756	1472358110591	1472358110703	t	84
33988	366493	I'll take them one at a time.	I'll take them one at a time.	17416759	1472358110719	1472358110893	a	65
33988	366493	I'll take them one at a time.	I'll take them one at a time.	17416764	1472358110924	1472358111004	k	75
33988	366493	I'll take them one at a time.	I'll take them one at a time.	17416768	1472358111079	1472358111155	k	75
33988	366493	I'll take them one at a time.	I'll take them one at a time.	17416772	1472358111521	1472358111620	BKSP	8
33988	366493	I'll take them one at a time.	I'll take them one at a time.	17416775	1472358111714	1472358111841	e	69
33988	366493	I'll take them one at a time.	I'll take them one at a time.	17416781	1472358111884	1472358112008	 	32
33988	366493	I'll take them one at a time.	I'll take them one at a time.	17416782	1472358112207	1472358112313	t	84
33988	366493	I'll take them one at a time.	I'll take them one at a time.	17416783	1472358112277	1472358112406	h	72
33988	366493	I'll take them one at a time.	I'll take them one at a time.	17416784	1472358112500	1472358112603	e	69
33988	366493	I'll take them one at a time.	I'll take them one at a time.	17416817	1472358112578	1472358112762	m	77
33988	366493	I'll take them one at a time.	I'll take them one at a time.	17416818	1472358112737	1472358112856	 	32
33988	366493	I'll take them one at a time.	I'll take them one at a time.	17416819	1472358112950	1472358113041	o	79
33988	366493	I'll take them one at a time.	I'll take them one at a time.	17416821	1472358113135	1472358113245	n	78
33988	366493	I'll take them one at a time.	I'll take them one at a time.	17416823	1472358113308	1472358113423	e	69
33988	366493	I'll take them one at a time.	I'll take them one at a time.	17416830	1472358113470	1472358113607	 	32
33988	366493	I'll take them one at a time.	I'll take them one at a time.	17416869	1472358113987	1472358114123	a	65
33988	366493	I'll take them one at a time.	I'll take them one at a time.	17416871	1472358114091	1472358114235	t	84
33988	366493	I'll take them one at a time.	I'll take them one at a time.	17416875	1472358114250	1472358114389	 	32
33988	366493	I'll take them one at a time.	I'll take them one at a time.	17416877	1472358114405	1472358114569	a	65
33988	366493	I'll take them one at a time.	I'll take them one at a time.	17416879	1472358114584	1472358114749	 	32
33988	366493	I'll take them one at a time.	I'll take them one at a time.	17416905	1472358114873	1472358114991	t	84
33988	366493	I'll take them one at a time.	I'll take them one at a time.	17416908	1472358115054	1472358115138	i	73
33988	366493	I'll take them one at a time.	I'll take them one at a time.	17416910	1472358115264	1472358115409	m	77
33988	366493	I'll take them one at a time.	I'll take them one at a time.	17416912	1472358115422	1472358115494	e	69
33988	366493	I'll take them one at a time.	I'll take them one at a time.	17416916	1472358115643	1472358115759	.	190
33988	366501	Donovan McNabb is one of my starters.	Donovan McNabb is one of my starters.	17417034	1472358117866	1472358118176	SHIFT	16
33988	366501	Donovan McNabb is one of my starters.	Donovan McNabb is one of my starters.	17417035	1472358118064	1472358118223	D	68
33988	366501	Donovan McNabb is one of my starters.	Donovan McNabb is one of my starters.	17417037	1472358118270	1472358118359	o	79
33988	366501	Donovan McNabb is one of my starters.	Donovan McNabb is one of my starters.	17417040	1472358118453	1472358118569	n	78
33988	366501	Donovan McNabb is one of my starters.	Donovan McNabb is one of my starters.	17417042	1472358118679	1472358118776	o	79
33988	366501	Donovan McNabb is one of my starters.	Donovan McNabb is one of my starters.	17417044	1472358118961	1472358119082	v	86
33988	366501	Donovan McNabb is one of my starters.	Donovan McNabb is one of my starters.	17417117	1472358119192	1472358119318	a	65
33988	366501	Donovan McNabb is one of my starters.	Donovan McNabb is one of my starters.	17417120	1472358119588	1472358119709	n	78
33988	366501	Donovan McNabb is one of my starters.	Donovan McNabb is one of my starters.	17417123	1472358120093	1472358120265	 	32
33988	366501	Donovan McNabb is one of my starters.	Donovan McNabb is one of my starters.	17417125	1472358120786	1472358121116	SHIFT	16
33988	366501	Donovan McNabb is one of my starters.	Donovan McNabb is one of my starters.	17417127	1472358120990	1472358121131	M	77
33988	366501	Donovan McNabb is one of my starters.	Donovan McNabb is one of my starters.	17417130	1472358121355	1472358121485	c	67
33988	366501	Donovan McNabb is one of my starters.	Donovan McNabb is one of my starters.	17417176	1472358121671	1472358121952	SHIFT	16
33988	366501	Donovan McNabb is one of my starters.	Donovan McNabb is one of my starters.	17417179	1472358121827	1472358121983	N	78
33988	366501	Donovan McNabb is one of my starters.	Donovan McNabb is one of my starters.	17417183	1472358122121	1472358122255	a	65
33988	366501	Donovan McNabb is one of my starters.	Donovan McNabb is one of my starters.	17417187	1472358122489	1472358122576	b	66
33988	366501	Donovan McNabb is one of my starters.	Donovan McNabb is one of my starters.	17417190	1472358122638	1472358122767	b	66
33988	366501	Donovan McNabb is one of my starters.	Donovan McNabb is one of my starters.	17417192	1472358122830	1472358122968	 	32
33988	366501	Donovan McNabb is one of my starters.	Donovan McNabb is one of my starters.	17417206	1472358123056	1472358123177	i	73
33988	366501	Donovan McNabb is one of my starters.	Donovan McNabb is one of my starters.	17417207	1472358123134	1472358123296	s	83
33988	366501	Donovan McNabb is one of my starters.	Donovan McNabb is one of my starters.	17417208	1472358123267	1472358123411	 	32
33988	366501	Donovan McNabb is one of my starters.	Donovan McNabb is one of my starters.	17417209	1472358123520	1472358123639	o	79
33988	366501	Donovan McNabb is one of my starters.	Donovan McNabb is one of my starters.	17417211	1472358123765	1472358123874	n	78
33988	366501	Donovan McNabb is one of my starters.	Donovan McNabb is one of my starters.	17417229	1472358124091	1472358124186	e	69
33988	366501	Donovan McNabb is one of my starters.	Donovan McNabb is one of my starters.	17417233	1472358124218	1472358124367	 	32
33988	366501	Donovan McNabb is one of my starters.	Donovan McNabb is one of my starters.	17417237	1472358124492	1472358124586	o	79
33988	366501	Donovan McNabb is one of my starters.	Donovan McNabb is one of my starters.	17417240	1472358124758	1472358124859	f	70
33988	366501	Donovan McNabb is one of my starters.	Donovan McNabb is one of my starters.	17417242	1472358124877	1472358124992	 	32
33988	366501	Donovan McNabb is one of my starters.	Donovan McNabb is one of my starters.	17417275	1472358125418	1472358125566	m	77
33988	366501	Donovan McNabb is one of my starters.	Donovan McNabb is one of my starters.	17417276	1472358125738	1472358125868	y	89
33988	366501	Donovan McNabb is one of my starters.	Donovan McNabb is one of my starters.	17417277	1472358125899	1472358126034	 	32
33988	366501	Donovan McNabb is one of my starters.	Donovan McNabb is one of my starters.	17417279	1472358126336	1472358126442	s	83
33988	366501	Donovan McNabb is one of my starters.	Donovan McNabb is one of my starters.	17417281	1472358126991	1472358127087	t	84
33988	366501	Donovan McNabb is one of my starters.	Donovan McNabb is one of my starters.	17417339	1472358128111	1472358128234	a	65
33988	366501	Donovan McNabb is one of my starters.	Donovan McNabb is one of my starters.	17417341	1472358128312	1472358128450	r	82
33988	366501	Donovan McNabb is one of my starters.	Donovan McNabb is one of my starters.	17417343	1472358128653	1472358128800	t	84
33988	366501	Donovan McNabb is one of my starters.	Donovan McNabb is one of my starters.	17417345	1472358128816	1472358129020	e	69
33988	366501	Donovan McNabb is one of my starters.	Donovan McNabb is one of my starters.	17417370	1472358128956	1472358129065	r	82
33988	366501	Donovan McNabb is one of my starters.	Donovan McNabb is one of my starters.	17417372	1472358129253	1472358129374	s	83
33988	366501	Donovan McNabb is one of my starters.	Donovan McNabb is one of my starters.	17417375	1472358129593	1472358129701	.	190
