PARTICIPANT_ID	TEST_SECTION_ID	SENTENCE	USER_INPUT	KEYSTROKE_ID	PRESS_TIME	RELEASE_TIME	LETTER	KEYCODE
348286	3754226	Should we email this to you or fax to your house?	Should we email this to you or fax to your house?	178383399	1476800086098	1476800086447	SHIFT	16
348286	3754226	Should we email this to you or fax to your house?	Should we email this to you or fax to your house?	178383405	1476800086370	1476800086507	S	83
348286	3754226	Should we email this to you or fax to your house?	Should we email this to you or fax to your house?	178383409	1476800086505	1476800086597	h	72
348286	3754226	Should we email this to you or fax to your house?	Should we email this to you or fax to your house?	178383412	1476800086717	1476800086914	o	79
348286	3754226	Should we email this to you or fax to your house?	Should we email this to you or fax to your house?	178383415	1476800086815	1476800086953	u	85
348286	3754226	Should we email this to you or fax to your house?	Should we email this to you or fax to your house?	178383417	1476800087034	1476800087182	l	76
348286	3754226	Should we email this to you or fax to your house?	Should we email this to you or fax to your house?	178383442	1476800087257	1476800087401	d	68
348286	3754226	Should we email this to you or fax to your house?	Should we email this to you or fax to your house?	178383443	1476800087405	1476800087481	 	32
348286	3754226	Should we email this to you or fax to your house?	Should we email this to you or fax to your house?	178383445	1476800087642	1476800087869	w	87
348286	3754226	Should we email this to you or fax to your house?	Should we email this to you or fax to your house?	178383447	1476800087761	1476800087957	e	69
348286	3754226	Should we email this to you or fax to your house?	Should we email this to you or fax to your house?	178383472	1476800087918	1476800088021	 	32
348286	3754226	Should we email this to you or fax to your house?	Should we email this to you or fax to your house?	178383473	1476800088252	1476800088379	e	69
348286	3754226	Should we email this to you or fax to your house?	Should we email this to you or fax to your house?	178383475	1476800088387	1476800088463	m	77
348286	3754226	Should we email this to you or fax to your house?	Should we email this to you or fax to your house?	178383480	1476800088564	1476800088752	a	65
348286	3754226	Should we email this to you or fax to your house?	Should we email this to you or fax to your house?	178383485	1476800088688	1476800088856	i	73
348286	3754226	Should we email this to you or fax to your house?	Should we email this to you or fax to your house?	178383511	1476800088760	1476800088944	l	76
348286	3754226	Should we email this to you or fax to your house?	Should we email this to you or fax to your house?	178383514	1476800088992	1476800089112	 	32
348286	3754226	Should we email this to you or fax to your house?	Should we email this to you or fax to your house?	178383519	1476800089418	1476800089518	t	84
348286	3754226	Should we email this to you or fax to your house?	Should we email this to you or fax to your house?	178383522	1476800089522	1476800089729	h	72
348286	3754226	Should we email this to you or fax to your house?	Should we email this to you or fax to your house?	178383525	1476800089622	1476800089814	i	73
348286	3754226	Should we email this to you or fax to your house?	Should we email this to you or fax to your house?	178383527	1476800089832	1476800090019	s	83
348286	3754226	Should we email this to you or fax to your house?	Should we email this to you or fax to your house?	178383581	1476800089956	1476800090073	 	32
348286	3754226	Should we email this to you or fax to your house?	Should we email this to you or fax to your house?	178383582	1476800090762	1476800090881	t	84
348286	3754226	Should we email this to you or fax to your house?	Should we email this to you or fax to your house?	178383583	1476800091494	1476800091629	o	79
348286	3754226	Should we email this to you or fax to your house?	Should we email this to you or fax to your house?	178383585	1476800091699	1476800091828	 	32
348286	3754226	Should we email this to you or fax to your house?	Should we email this to you or fax to your house?	178383587	1476800092136	1476800092322	y	89
348286	3754226	Should we email this to you or fax to your house?	Should we email this to you or fax to your house?	178383612	1476800092170	1476800092474	o	79
348286	3754226	Should we email this to you or fax to your house?	Should we email this to you or fax to your house?	178383614	1476800092379	1476800092538	u	85
348286	3754226	Should we email this to you or fax to your house?	Should we email this to you or fax to your house?	178383617	1476800092555	1476800092710	 	32
348286	3754226	Should we email this to you or fax to your house?	Should we email this to you or fax to your house?	178383620	1476800093140	1476800093263	o	79
348286	3754226	Should we email this to you or fax to your house?	Should we email this to you or fax to your house?	178383621	1476800093323	1476800093455	r	82
348286	3754226	Should we email this to you or fax to your house?	Should we email this to you or fax to your house?	178383877	1476800093419	1476800093543	 	32
348286	3754226	Should we email this to you or fax to your house?	Should we email this to you or fax to your house?	178383878	1476800094369	1476800094469	t	84
348286	3754226	Should we email this to you or fax to your house?	Should we email this to you or fax to your house?	178383879	1476800095228	1476800095336	BKSP	8
348286	3754226	Should we email this to you or fax to your house?	Should we email this to you or fax to your house?	178383880	1476800095575	1476800095675	BKSP	8
348286	3754226	Should we email this to you or fax to your house?	Should we email this to you or fax to your house?	178383881	1476800097722	1476800097826	 	32
348286	3754226	Should we email this to you or fax to your house?	Should we email this to you or fax to your house?	178383882	1476800097859	1476800098023	f	70
348286	3754226	Should we email this to you or fax to your house?	Should we email this to you or fax to your house?	178383883	1476800097984	1476800098183	a	65
348286	3754226	Should we email this to you or fax to your house?	Should we email this to you or fax to your house?	178383884	1476800098360	1476800098540	x	88
348286	3754226	Should we email this to you or fax to your house?	Should we email this to you or fax to your house?	178383889	1476800098496	1476800098632	 	32
348286	3754226	Should we email this to you or fax to your house?	Should we email this to you or fax to your house?	178383891	1476800098707	1476800098829	t	84
348286	3754226	Should we email this to you or fax to your house?	Should we email this to you or fax to your house?	178383894	1476800098811	1476800098915	o	79
348286	3754226	Should we email this to you or fax to your house?	Should we email this to you or fax to your house?	178383897	1476800098916	1476800099059	 	32
348286	3754226	Should we email this to you or fax to your house?	Should we email this to you or fax to your house?	178383902	1476800099225	1476800099381	y	89
348286	3754226	Should we email this to you or fax to your house?	Should we email this to you or fax to your house?	178383938	1476800099370	1476800099525	o	79
348286	3754226	Should we email this to you or fax to your house?	Should we email this to you or fax to your house?	178383939	1476800099457	1476800099617	u	85
348286	3754226	Should we email this to you or fax to your house?	Should we email this to you or fax to your house?	178383940	1476800099606	1476800099769	r	82
348286	3754226	Should we email this to you or fax to your house?	Should we email this to you or fax to your house?	178383941	1476800099710	1476800099833	 	32
348286	3754226	Should we email this to you or fax to your house?	Should we email this to you or fax to your house?	178383942	1476800100156	1476800100336	h	72
348286	3754226	Should we email this to you or fax to your house?	Should we email this to you or fax to your house?	178384082	1476800100296	1476800100552	o	79
348286	3754226	Should we email this to you or fax to your house?	Should we email this to you or fax to your house?	178384084	1476800100452	1476800100644	u	85
348286	3754226	Should we email this to you or fax to your house?	Should we email this to you or fax to your house?	178384088	1476800100597	1476800100876	s	83
348286	3754226	Should we email this to you or fax to your house?	Should we email this to you or fax to your house?	178384092	1476800100708	1476800101008	e	69
348286	3754226	Should we email this to you or fax to your house?	Should we email this to you or fax to your house?	178384096	1476800101524	1476800101755	SHIFT	16
348286	3754226	Should we email this to you or fax to your house?	Should we email this to you or fax to your house?	178384103	1476800101665	1476800101848	?	191
348286	3754243	I have an electric knife.	I have an electric knife.	178384280	1476800106931	1476800107623	SHIFT	16
348286	3754243	I have an electric knife.	I have an electric knife.	178384283	1476800107572	1476800107639	I	73
348286	3754243	I have an electric knife.	I have an electric knife.	178384286	1476800107880	1476800107976	 	32
348286	3754243	I have an electric knife.	I have an electric knife.	178384289	1476800108100	1476800108167	h	72
348286	3754243	I have an electric knife.	I have an electric knife.	178384293	1476800108227	1476800108367	a	65
348286	3754243	I have an electric knife.	I have an electric knife.	178384335	1476800108319	1476800108407	v	86
348286	3754243	I have an electric knife.	I have an electric knife.	178384338	1476800108648	1476800108795	e	69
348286	3754243	I have an electric knife.	I have an electric knife.	178384341	1476800108772	1476800108879	 	32
348286	3754243	I have an electric knife.	I have an electric knife.	178384344	1476800109139	1476800109291	a	65
348286	3754243	I have an electric knife.	I have an electric knife.	178384349	1476800109330	1476800109428	n	78
348286	3754243	I have an electric knife.	I have an electric knife.	178384355	1476800109437	1476800109548	 	32
348286	3754243	I have an electric knife.	I have an electric knife.	178384397	1476800109708	1476800109852	e	69
348286	3754243	I have an electric knife.	I have an electric knife.	178384402	1476800109853	1476800109964	l	76
348286	3754243	I have an electric knife.	I have an electric knife.	178384406	1476800110336	1476800110596	e	69
348286	3754243	I have an electric knife.	I have an electric knife.	178384409	1476800110497	1476800110667	c	67
348286	3754243	I have an electric knife.	I have an electric knife.	178384411	1476800110780	1476800110913	t	84
348286	3754243	I have an electric knife.	I have an electric knife.	178384426	1476800111017	1476800111165	r	82
348286	3754243	I have an electric knife.	I have an electric knife.	178384428	1476800111154	1476800111301	i	73
348286	3754243	I have an electric knife.	I have an electric knife.	178384432	1476800111365	1476800111515	c	67
348286	3754243	I have an electric knife.	I have an electric knife.	178384434	1476800111440	1476800111567	 	32
348286	3754243	I have an electric knife.	I have an electric knife.	178384437	1476800111707	1476800111906	k	75
348286	3754243	I have an electric knife.	I have an electric knife.	178384476	1476800111811	1476800112026	n	78
348286	3754243	I have an electric knife.	I have an electric knife.	178384477	1476800112078	1476800112197	i	73
348286	3754243	I have an electric knife.	I have an electric knife.	178384478	1476800112447	1476800112667	f	70
348286	3754243	I have an electric knife.	I have an electric knife.	178384480	1476800112563	1476800112803	e	69
348286	3754243	I have an electric knife.	I have an electric knife.	178384482	1476800112947	1476800113059	.	190
348286	3754251	If you need John speak up now.	If you need John speak up now.	178384582	1476800116394	1476800116742	SHIFT	16
348286	3754251	If you need John speak up now.	If you need John speak up now.	178384583	1476800116707	1476800116798	I	73
348286	3754251	If you need John speak up now.	If you need John speak up now.	178384584	1476800116861	1476800116993	f	70
348286	3754251	If you need John speak up now.	If you need John speak up now.	178384585	1476800116929	1476800117069	 	32
348286	3754251	If you need John speak up now.	If you need John speak up now.	178384586	1476800117176	1476800117343	y	89
348286	3754251	If you need John speak up now.	If you need John speak up now.	178384613	1476800117316	1476800117471	o	79
348286	3754251	If you need John speak up now.	If you need John speak up now.	178384616	1476800117384	1476800117535	u	85
348286	3754251	If you need John speak up now.	If you need John speak up now.	178384619	1476800117511	1476800117643	 	32
348286	3754251	If you need John speak up now.	If you need John speak up now.	178384622	1476800117651	1476800117783	n	78
348286	3754251	If you need John speak up now.	If you need John speak up now.	178384625	1476800117805	1476800118116	e	69
348286	3754251	If you need John speak up now.	If you need John speak up now.	178384628	1476800118254	1476800118486	e	69
348286	3754251	If you need John speak up now.	If you need John speak up now.	178384656	1476800118355	1476800118602	d	68
348286	3754251	If you need John speak up now.	If you need John speak up now.	178384658	1476800118539	1476800118682	 	32
348286	3754251	If you need John speak up now.	If you need John speak up now.	178384660	1476800118854	1476800119062	SHIFT	16
348286	3754251	If you need John speak up now.	If you need John speak up now.	178384662	1476800118974	1476800119086	J	74
348286	3754251	If you need John speak up now.	If you need John speak up now.	178384666	1476800119258	1476800119373	o	79
348286	3754251	If you need John speak up now.	If you need John speak up now.	178384668	1476800119455	1476800119570	h	72
348286	3754251	If you need John speak up now.	If you need John speak up now.	178384715	1476800119563	1476800119643	n	78
348286	3754251	If you need John speak up now.	If you need John speak up now.	178384717	1476800119700	1476800119843	 	32
348286	3754251	If you need John speak up now.	If you need John speak up now.	178384719	1476800120518	1476800120665	s	83
348286	3754251	If you need John speak up now.	If you need John speak up now.	178384721	1476800120645	1476800120791	p	80
348286	3754251	If you need John speak up now.	If you need John speak up now.	178384722	1476800120824	1476800121113	e	69
348286	3754251	If you need John speak up now.	If you need John speak up now.	178384763	1476800121034	1476800121329	a	65
348286	3754251	If you need John speak up now.	If you need John speak up now.	178384767	1476800121265	1476800121392	k	75
348286	3754251	If you need John speak up now.	If you need John speak up now.	178384770	1476800121481	1476800121645	 	32
348286	3754251	If you need John speak up now.	If you need John speak up now.	178384774	1476800121939	1476800122150	u	85
348286	3754251	If you need John speak up now.	If you need John speak up now.	178384777	1476800122058	1476800122211	p	80
348286	3754251	If you need John speak up now.	If you need John speak up now.	178384820	1476800122194	1476800122342	 	32
348286	3754251	If you need John speak up now.	If you need John speak up now.	178384823	1476800122379	1476800122627	n	78
348286	3754251	If you need John speak up now.	If you need John speak up now.	178384826	1476800122527	1476800122691	o	79
348286	3754251	If you need John speak up now.	If you need John speak up now.	178384828	1476800122736	1476800122935	w	87
348286	3754251	If you need John speak up now.	If you need John speak up now.	178384831	1476800123007	1476800123126	.	190
348286	3754259	England star Paul Gascoigne was one of the recipients of the loans.	England star Paul Gascoinge was one of the recipients of the loans. 	178384935	1476800125505	1476800125857	SHIFT	16
348286	3754259	England star Paul Gascoigne was one of the recipients of the loans.	England star Paul Gascoinge was one of the recipients of the loans. 	178384937	1476800125805	1476800125929	E	69
348286	3754259	England star Paul Gascoigne was one of the recipients of the loans.	England star Paul Gascoinge was one of the recipients of the loans. 	178384939	1476800125949	1476800126096	n	78
348286	3754259	England star Paul Gascoigne was one of the recipients of the loans.	England star Paul Gascoinge was one of the recipients of the loans. 	178384940	1476800126172	1476800126292	g	71
348286	3754259	England star Paul Gascoigne was one of the recipients of the loans.	England star Paul Gascoinge was one of the recipients of the loans. 	178384942	1476800126308	1476800126448	l	76
348286	3754259	England star Paul Gascoigne was one of the recipients of the loans.	England star Paul Gascoinge was one of the recipients of the loans. 	178384944	1476800126473	1476800126644	a	65
348286	3754259	England star Paul Gascoigne was one of the recipients of the loans.	England star Paul Gascoinge was one of the recipients of the loans. 	178384994	1476800126556	1476800126675	n	78
348286	3754259	England star Paul Gascoigne was one of the recipients of the loans.	England star Paul Gascoinge was one of the recipients of the loans. 	178384995	1476800126661	1476800126890	d	68
348286	3754259	England star Paul Gascoigne was one of the recipients of the loans.	England star Paul Gascoinge was one of the recipients of the loans. 	178384996	1476800126825	1476800127000	 	32
348286	3754259	England star Paul Gascoigne was one of the recipients of the loans.	England star Paul Gascoinge was one of the recipients of the loans. 	178384997	1476800127583	1476800127766	s	83
348286	3754259	England star Paul Gascoigne was one of the recipients of the loans.	England star Paul Gascoinge was one of the recipients of the loans. 	178384999	1476800127789	1476800127868	t	84
348286	3754259	England star Paul Gascoigne was one of the recipients of the loans.	England star Paul Gascoinge was one of the recipients of the loans. 	178385001	1476800127891	1476800128027	a	65
348286	3754259	England star Paul Gascoigne was one of the recipients of the loans.	England star Paul Gascoinge was one of the recipients of the loans. 	178385029	1476800127983	1476800128087	r	82
348286	3754259	England star Paul Gascoigne was one of the recipients of the loans.	England star Paul Gascoinge was one of the recipients of the loans. 	178385031	1476800128121	1476800128248	 	32
348286	3754259	England star Paul Gascoigne was one of the recipients of the loans.	England star Paul Gascoinge was one of the recipients of the loans. 	178385033	1476800128480	1476800128772	SHIFT	16
348286	3754259	England star Paul Gascoigne was one of the recipients of the loans.	England star Paul Gascoinge was one of the recipients of the loans. 	178385035	1476800128749	1476800128844	P	80
348286	3754259	England star Paul Gascoigne was one of the recipients of the loans.	England star Paul Gascoinge was one of the recipients of the loans. 	178385040	1476800128910	1476800129101	a	65
348286	3754259	England star Paul Gascoigne was one of the recipients of the loans.	England star Paul Gascoinge was one of the recipients of the loans. 	178385044	1476800129132	1476800129285	u	85
348286	3754259	England star Paul Gascoigne was one of the recipients of the loans.	England star Paul Gascoinge was one of the recipients of the loans. 	178385166	1476800129248	1476800129397	l	76
348286	3754259	England star Paul Gascoigne was one of the recipients of the loans.	England star Paul Gascoinge was one of the recipients of the loans. 	178385170	1476800129397	1476800129512	 	32
348286	3754259	England star Paul Gascoigne was one of the recipients of the loans.	England star Paul Gascoinge was one of the recipients of the loans. 	178385181	1476800129661	1476800130868	SHIFT	16
348286	3754259	England star Paul Gascoigne was one of the recipients of the loans.	England star Paul Gascoinge was one of the recipients of the loans. 	178385177	1476800130730	1476800130801	G	71
348286	3754259	England star Paul Gascoigne was one of the recipients of the loans.	England star Paul Gascoinge was one of the recipients of the loans. 	178385184	1476800130874	1476800131086	a	65
348286	3754259	England star Paul Gascoigne was one of the recipients of the loans.	England star Paul Gascoinge was one of the recipients of the loans. 	178385186	1476800131053	1476800131257	s	83
348286	3754259	England star Paul Gascoigne was one of the recipients of the loans.	England star Paul Gascoinge was one of the recipients of the loans. 	178385187	1476800132179	1476800132310	c	67
348286	3754259	England star Paul Gascoigne was one of the recipients of the loans.	England star Paul Gascoinge was one of the recipients of the loans. 	178385212	1476800132315	1476800132714	o	79
348286	3754259	England star Paul Gascoigne was one of the recipients of the loans.	England star Paul Gascoinge was one of the recipients of the loans. 	178385214	1476800132619	1476800132790	i	73
348286	3754259	England star Paul Gascoigne was one of the recipients of the loans.	England star Paul Gascoinge was one of the recipients of the loans. 	178385216	1476800133285	1476800133403	n	78
348286	3754259	England star Paul Gascoigne was one of the recipients of the loans.	England star Paul Gascoinge was one of the recipients of the loans. 	178385218	1476800133388	1476800133631	g	71
348286	3754259	England star Paul Gascoigne was one of the recipients of the loans.	England star Paul Gascoinge was one of the recipients of the loans. 	178385277	1476800133536	1476800133751	e	69
348286	3754259	England star Paul Gascoigne was one of the recipients of the loans.	England star Paul Gascoinge was one of the recipients of the loans. 	178385281	1476800133700	1476800133807	 	32
348286	3754259	England star Paul Gascoigne was one of the recipients of the loans.	England star Paul Gascoinge was one of the recipients of the loans. 	178385290	1476800135553	1476800135736	w	87
348286	3754259	England star Paul Gascoigne was one of the recipients of the loans.	England star Paul Gascoinge was one of the recipients of the loans. 	178385297	1476800135665	1476800135944	a	65
348286	3754259	England star Paul Gascoigne was one of the recipients of the loans.	England star Paul Gascoinge was one of the recipients of the loans. 	178385302	1476800135861	1476800136128	s	83
348286	3754259	England star Paul Gascoigne was one of the recipients of the loans.	England star Paul Gascoinge was one of the recipients of the loans. 	178385340	1476800136064	1476800136224	 	32
348286	3754259	England star Paul Gascoigne was one of the recipients of the loans.	England star Paul Gascoinge was one of the recipients of the loans. 	178385342	1476800136524	1476800136803	o	79
348286	3754259	England star Paul Gascoigne was one of the recipients of the loans.	England star Paul Gascoinge was one of the recipients of the loans. 	178385345	1476800136664	1476800136907	n	78
348286	3754259	England star Paul Gascoigne was one of the recipients of the loans.	England star Paul Gascoinge was one of the recipients of the loans. 	178385347	1476800136828	1476800137003	e	69
348286	3754259	England star Paul Gascoigne was one of the recipients of the loans.	England star Paul Gascoinge was one of the recipients of the loans. 	178385350	1476800136972	1476800137127	 	32
348286	3754259	England star Paul Gascoigne was one of the recipients of the loans.	England star Paul Gascoinge was one of the recipients of the loans. 	178385352	1476800137557	1476800137680	o	79
348286	3754259	England star Paul Gascoigne was one of the recipients of the loans.	England star Paul Gascoinge was one of the recipients of the loans. 	178385371	1476800137775	1476800137910	f	70
348286	3754259	England star Paul Gascoigne was one of the recipients of the loans.	England star Paul Gascoinge was one of the recipients of the loans. 	178385373	1476800137827	1476800137998	 	32
348286	3754259	England star Paul Gascoigne was one of the recipients of the loans.	England star Paul Gascoinge was one of the recipients of the loans. 	178385375	1476800138061	1476800138204	t	84
348286	3754259	England star Paul Gascoigne was one of the recipients of the loans.	England star Paul Gascoinge was one of the recipients of the loans. 	178385376	1476800138200	1476800138323	h	72
348286	3754259	England star Paul Gascoigne was one of the recipients of the loans.	England star Paul Gascoinge was one of the recipients of the loans. 	178385433	1476800138252	1476800138447	e	69
348286	3754259	England star Paul Gascoigne was one of the recipients of the loans.	England star Paul Gascoinge was one of the recipients of the loans. 	178385437	1476800138436	1476800138556	 	32
348286	3754259	England star Paul Gascoigne was one of the recipients of the loans.	England star Paul Gascoinge was one of the recipients of the loans. 	178385443	1476800139125	1476800139271	r	82
348286	3754259	England star Paul Gascoigne was one of the recipients of the loans.	England star Paul Gascoinge was one of the recipients of the loans. 	178385448	1476800139216	1476800139435	e	69
348286	3754259	England star Paul Gascoigne was one of the recipients of the loans.	England star Paul Gascoinge was one of the recipients of the loans. 	178385450	1476800140209	1476800140352	c	67
348286	3754259	England star Paul Gascoigne was one of the recipients of the loans.	England star Paul Gascoinge was one of the recipients of the loans. 	178385453	1476800140377	1476800140578	i	73
348286	3754259	England star Paul Gascoigne was one of the recipients of the loans.	England star Paul Gascoinge was one of the recipients of the loans. 	178385486	1476800140503	1476800140682	p	80
348286	3754259	England star Paul Gascoigne was one of the recipients of the loans.	England star Paul Gascoinge was one of the recipients of the loans. 	178385489	1476800140948	1476800141036	i	73
348286	3754259	England star Paul Gascoigne was one of the recipients of the loans.	England star Paul Gascoinge was one of the recipients of the loans. 	178385494	1476800141095	1476800141254	e	69
348286	3754259	England star Paul Gascoigne was one of the recipients of the loans.	England star Paul Gascoinge was one of the recipients of the loans. 	178385498	1476800141162	1476800141299	n	78
348286	3754259	England star Paul Gascoigne was one of the recipients of the loans.	England star Paul Gascoinge was one of the recipients of the loans. 	178385503	1476800141413	1476800141607	t	84
348286	3754259	England star Paul Gascoigne was one of the recipients of the loans.	England star Paul Gascoinge was one of the recipients of the loans. 	178385551	1476800141597	1476800141832	s	83
348286	3754259	England star Paul Gascoigne was one of the recipients of the loans.	England star Paul Gascoinge was one of the recipients of the loans. 	178385555	1476800141772	1476800141904	 	32
348286	3754259	England star Paul Gascoigne was one of the recipients of the loans.	England star Paul Gascoinge was one of the recipients of the loans. 	178385557	1476800142155	1476800142287	o	79
348286	3754259	England star Paul Gascoigne was one of the recipients of the loans.	England star Paul Gascoinge was one of the recipients of the loans. 	178385562	1476800142299	1476800142419	f	70
348286	3754259	England star Paul Gascoigne was one of the recipients of the loans.	England star Paul Gascoinge was one of the recipients of the loans. 	178385565	1476800142355	1476800142483	 	32
348286	3754259	England star Paul Gascoigne was one of the recipients of the loans.	England star Paul Gascoinge was one of the recipients of the loans. 	178385568	1476800142553	1476800142680	t	84
348286	3754259	England star Paul Gascoigne was one of the recipients of the loans.	England star Paul Gascoinge was one of the recipients of the loans. 	178385601	1476800142617	1476800142744	h	72
348286	3754259	England star Paul Gascoigne was one of the recipients of the loans.	England star Paul Gascoinge was one of the recipients of the loans. 	178385604	1476800142729	1476800142876	e	69
348286	3754259	England star Paul Gascoigne was one of the recipients of the loans.	England star Paul Gascoinge was one of the recipients of the loans. 	178385607	1476800142881	1476800143008	 	32
348286	3754259	England star Paul Gascoigne was one of the recipients of the loans.	England star Paul Gascoinge was one of the recipients of the loans. 	178385608	1476800143283	1476800143378	l	76
348286	3754259	England star Paul Gascoigne was one of the recipients of the loans.	England star Paul Gascoinge was one of the recipients of the loans. 	178385612	1476800143460	1476800143567	o	79
348286	3754259	England star Paul Gascoigne was one of the recipients of the loans.	England star Paul Gascoinge was one of the recipients of the loans. 	178385615	1476800143627	1476800143807	a	65
348286	3754259	England star Paul Gascoigne was one of the recipients of the loans.	England star Paul Gascoinge was one of the recipients of the loans. 	178385642	1476800143768	1476800143839	n	78
348286	3754259	England star Paul Gascoigne was one of the recipients of the loans.	England star Paul Gascoinge was one of the recipients of the loans. 	178385645	1476800143917	1476800144105	s	83
348286	3754259	England star Paul Gascoigne was one of the recipients of the loans.	England star Paul Gascoinge was one of the recipients of the loans. 	178385646	1476800144298	1476800144373	.	190
348286	3754259	England star Paul Gascoigne was one of the recipients of the loans.	England star Paul Gascoinge was one of the recipients of the loans. 	178385649	1476800144415	1476800144506	 	32
348286	3754281	They have not issued an order yet.	They have not issued an order yet. 	178385791	1476800148038	1476800148270	SHIFT	16
348286	3754281	They have not issued an order yet.	They have not issued an order yet. 	178385784	1476800148191	1476800148262	T	84
348286	3754281	They have not issued an order yet.	They have not issued an order yet. 	178385796	1476800148374	1476800148441	h	72
348286	3754281	They have not issued an order yet.	They have not issued an order yet. 	178385801	1476800148471	1476800148558	e	69
348286	3754281	They have not issued an order yet.	They have not issued an order yet. 	178385807	1476800148555	1476800148614	y	89
348286	3754281	They have not issued an order yet.	They have not issued an order yet. 	178385813	1476800148636	1476800148783	 	32
348286	3754281	They have not issued an order yet.	They have not issued an order yet. 	178385857	1476800149059	1476800149126	h	72
348286	3754281	They have not issued an order yet.	They have not issued an order yet. 	178385864	1476800149135	1476800149270	a	65
348286	3754281	They have not issued an order yet.	They have not issued an order yet. 	178385871	1476800149267	1476800149346	v	86
348286	3754281	They have not issued an order yet.	They have not issued an order yet. 	178385876	1476800149409	1476800149560	e	69
348286	3754281	They have not issued an order yet.	They have not issued an order yet. 	178385902	1476800149497	1476800149588	 	32
348286	3754281	They have not issued an order yet.	They have not issued an order yet. 	178385904	1476800149721	1476800149948	n	78
348286	3754281	They have not issued an order yet.	They have not issued an order yet. 	178385907	1476800149861	1476800150008	o	79
348286	3754281	They have not issued an order yet.	They have not issued an order yet. 	178385913	1476800150024	1476800150128	t	84
348286	3754281	They have not issued an order yet.	They have not issued an order yet. 	178385918	1476800150171	1476800150255	 	32
348286	3754281	They have not issued an order yet.	They have not issued an order yet. 	178385920	1476800150690	1476800150766	i	73
348286	3754281	They have not issued an order yet.	They have not issued an order yet. 	178385929	1476800150779	1476800150894	s	83
348286	3754281	They have not issued an order yet.	They have not issued an order yet. 	178385931	1476800150960	1476800151140	s	83
348286	3754281	They have not issued an order yet.	They have not issued an order yet. 	178385933	1476800151141	1476800151247	u	85
348286	3754281	They have not issued an order yet.	They have not issued an order yet. 	178385937	1476800151399	1476800151682	e	69
348286	3754281	They have not issued an order yet.	They have not issued an order yet. 	178385940	1476800151843	1476800151998	d	68
348286	3754281	They have not issued an order yet.	They have not issued an order yet. 	178385998	1476800152000	1476800152118	 	32
348286	3754281	They have not issued an order yet.	They have not issued an order yet. 	178385999	1476800152375	1476800152538	o	79
348286	3754281	They have not issued an order yet.	They have not issued an order yet. 	178386001	1476800152479	1476800152642	n	78
348286	3754281	They have not issued an order yet.	They have not issued an order yet. 	178386003	1476800153035	1476800153111	BKSP	8
348286	3754281	They have not issued an order yet.	They have not issued an order yet. 	178386006	1476800153179	1476800153243	BKSP	8
348286	3754281	They have not issued an order yet.	They have not issued an order yet. 	178386009	1476800153322	1476800153469	a	65
348286	3754281	They have not issued an order yet.	They have not issued an order yet. 	178386050	1476800153394	1476800153565	n	78
348286	3754281	They have not issued an order yet.	They have not issued an order yet. 	178386051	1476800153601	1476800153716	 	32
348286	3754281	They have not issued an order yet.	They have not issued an order yet. 	178386052	1476800154294	1476800154421	o	79
348286	3754281	They have not issued an order yet.	They have not issued an order yet. 	178386054	1476800154457	1476800154564	r	82
348286	3754281	They have not issued an order yet.	They have not issued an order yet. 	178386056	1476800154730	1476800154929	d	68
348286	3754281	They have not issued an order yet.	They have not issued an order yet. 	178386072	1476800154850	1476800155142	e	69
348286	3754281	They have not issued an order yet.	They have not issued an order yet. 	178386074	1476800155037	1476800155209	r	82
348286	3754281	They have not issued an order yet.	They have not issued an order yet. 	178386076	1476800155142	1476800155273	 	32
348286	3754281	They have not issued an order yet.	They have not issued an order yet. 	178386078	1476800155327	1476800155442	y	89
348286	3754281	They have not issued an order yet.	They have not issued an order yet. 	178386080	1476800155427	1476800155722	e	69
348286	3754281	They have not issued an order yet.	They have not issued an order yet. 	178386114	1476800155575	1476800155750	t	84
348286	3754281	They have not issued an order yet.	They have not issued an order yet. 	178386117	1476800155796	1476800155867	.	190
348286	3754281	They have not issued an order yet.	They have not issued an order yet. 	178386122	1476800155928	1476800156043	 	32
348286	3754289	This is not a good situation to be in without a contract.	This is not a good situation to be in without a contract.	178386278	1476800158692	1476800158972	SHIFT	16
348286	3754289	This is not a good situation to be in without a contract.	This is not a good situation to be in without a contract.	178386284	1476800158937	1476800159040	T	84
348286	3754289	This is not a good situation to be in without a contract.	This is not a good situation to be in without a contract.	178386289	1476800159059	1476800159170	h	72
348286	3754289	This is not a good situation to be in without a contract.	This is not a good situation to be in without a contract.	178386293	1476800159396	1476800159463	i	73
348286	3754289	This is not a good situation to be in without a contract.	This is not a good situation to be in without a contract.	178386303	1476800159491	1476800159650	s	83
348286	3754289	This is not a good situation to be in without a contract.	This is not a good situation to be in without a contract.	178386347	1476800159623	1476800159698	 	32
348286	3754289	This is not a good situation to be in without a contract.	This is not a good situation to be in without a contract.	178386349	1476800159976	1476800160075	i	73
348286	3754289	This is not a good situation to be in without a contract.	This is not a good situation to be in without a contract.	178386350	1476800160083	1476800160258	s	83
348286	3754289	This is not a good situation to be in without a contract.	This is not a good situation to be in without a contract.	178386353	1476800160148	1476800160266	 	32
348286	3754289	This is not a good situation to be in without a contract.	This is not a good situation to be in without a contract.	178386356	1476800160383	1476800160591	n	78
348286	3754289	This is not a good situation to be in without a contract.	This is not a good situation to be in without a contract.	178386377	1476800160508	1476800160652	o	79
348286	3754289	This is not a good situation to be in without a contract.	This is not a good situation to be in without a contract.	178386378	1476800160634	1476800160758	t	84
348286	3754289	This is not a good situation to be in without a contract.	This is not a good situation to be in without a contract.	178386381	1476800160752	1476800160867	 	32
348286	3754289	This is not a good situation to be in without a contract.	This is not a good situation to be in without a contract.	178386387	1476800160917	1476800161073	a	65
348286	3754289	This is not a good situation to be in without a contract.	This is not a good situation to be in without a contract.	178386391	1476800161010	1476800161105	 	32
348286	3754289	This is not a good situation to be in without a contract.	This is not a good situation to be in without a contract.	178386395	1476800161218	1476800161395	g	71
348286	3754289	This is not a good situation to be in without a contract.	This is not a good situation to be in without a contract.	178386450	1476800161360	1476800161451	o	79
348286	3754289	This is not a good situation to be in without a contract.	This is not a good situation to be in without a contract.	178386452	1476800161536	1476800161652	o	79
348286	3754289	This is not a good situation to be in without a contract.	This is not a good situation to be in without a contract.	178386455	1476800162403	1476800162546	d	68
348286	3754289	This is not a good situation to be in without a contract.	This is not a good situation to be in without a contract.	178386458	1476800162487	1476800162610	 	32
348286	3754289	This is not a good situation to be in without a contract.	This is not a good situation to be in without a contract.	178386459	1476800162789	1476800162976	s	83
348286	3754289	This is not a good situation to be in without a contract.	This is not a good situation to be in without a contract.	178386476	1476800162953	1476800163052	i	73
348286	3754289	This is not a good situation to be in without a contract.	This is not a good situation to be in without a contract.	178386477	1476800163205	1476800163340	t	84
348286	3754289	This is not a good situation to be in without a contract.	This is not a good situation to be in without a contract.	178386479	1476800163434	1476800163553	u	85
348286	3754289	This is not a good situation to be in without a contract.	This is not a good situation to be in without a contract.	178386482	1476800163597	1476800163876	a	65
348286	3754289	This is not a good situation to be in without a contract.	This is not a good situation to be in without a contract.	178386484	1476800163813	1476800163996	t	84
348286	3754289	This is not a good situation to be in without a contract.	This is not a good situation to be in without a contract.	178386515	1476800163941	1476800164052	i	73
348286	3754289	This is not a good situation to be in without a contract.	This is not a good situation to be in without a contract.	178386517	1476800164025	1476800164280	o	79
348286	3754289	This is not a good situation to be in without a contract.	This is not a good situation to be in without a contract.	178386520	1476800164197	1476800164432	n	78
348286	3754289	This is not a good situation to be in without a contract.	This is not a good situation to be in without a contract.	178386524	1476800164428	1476800164557	 	32
348286	3754289	This is not a good situation to be in without a contract.	This is not a good situation to be in without a contract.	178386528	1476800164789	1476800164896	t	84
348286	3754289	This is not a good situation to be in without a contract.	This is not a good situation to be in without a contract.	178386556	1476800164881	1476800164984	o	79
348286	3754289	This is not a good situation to be in without a contract.	This is not a good situation to be in without a contract.	178386559	1476800164989	1476800165132	 	32
348286	3754289	This is not a good situation to be in without a contract.	This is not a good situation to be in without a contract.	178386562	1476800165166	1476800165262	b	66
348286	3754289	This is not a good situation to be in without a contract.	This is not a good situation to be in without a contract.	178386565	1476800165298	1476800165412	e	69
348286	3754289	This is not a good situation to be in without a contract.	This is not a good situation to be in without a contract.	178386568	1476800165366	1476800165481	 	32
348286	3754289	This is not a good situation to be in without a contract.	This is not a good situation to be in without a contract.	178386569	1476800165583	1476800165797	i	73
348286	3754289	This is not a good situation to be in without a contract.	This is not a good situation to be in without a contract.	178386585	1476800165698	1476800165882	n	78
348286	3754289	This is not a good situation to be in without a contract.	This is not a good situation to be in without a contract.	178386586	1476800165874	1476800165998	 	32
348286	3754289	This is not a good situation to be in without a contract.	This is not a good situation to be in without a contract.	178386587	1476800166355	1476800166474	w	87
348286	3754289	This is not a good situation to be in without a contract.	This is not a good situation to be in without a contract.	178386588	1476800166449	1476800166582	i	73
348286	3754289	This is not a good situation to be in without a contract.	This is not a good situation to be in without a contract.	178386589	1476800166633	1476800166777	t	84
348286	3754289	This is not a good situation to be in without a contract.	This is not a good situation to be in without a contract.	178386590	1476800166786	1476800166889	h	72
348286	3754289	This is not a good situation to be in without a contract.	This is not a good situation to be in without a contract.	178386626	1476800166920	1476800167147	o	79
348286	3754289	This is not a good situation to be in without a contract.	This is not a good situation to be in without a contract.	178386628	1476800167147	1476800167207	u	85
348286	3754289	This is not a good situation to be in without a contract.	This is not a good situation to be in without a contract.	178386633	1476800167184	1476800167299	t	84
348286	3754289	This is not a good situation to be in without a contract.	This is not a good situation to be in without a contract.	178386639	1476800168092	1476800168247	 	32
348286	3754289	This is not a good situation to be in without a contract.	This is not a good situation to be in without a contract.	178386643	1476800168456	1476800168627	a	65
348286	3754289	This is not a good situation to be in without a contract.	This is not a good situation to be in without a contract.	178386690	1476800168544	1476800168659	 	32
348286	3754289	This is not a good situation to be in without a contract.	This is not a good situation to be in without a contract.	178386693	1476800168797	1476800168964	c	67
348286	3754289	This is not a good situation to be in without a contract.	This is not a good situation to be in without a contract.	178386698	1476800168885	1476800169104	o	79
348286	3754289	This is not a good situation to be in without a contract.	This is not a good situation to be in without a contract.	178386701	1476800169033	1476800169208	n	78
348286	3754289	This is not a good situation to be in without a contract.	This is not a good situation to be in without a contract.	178386704	1476800169201	1476800169352	t	84
348286	3754289	This is not a good situation to be in without a contract.	This is not a good situation to be in without a contract.	178386705	1476800169476	1476800169631	r	82
348286	3754289	This is not a good situation to be in without a contract.	This is not a good situation to be in without a contract.	178386731	1476800169749	1476800170000	a	65
348286	3754289	This is not a good situation to be in without a contract.	This is not a good situation to be in without a contract.	178386733	1476800169845	1476800170028	c	67
348286	3754289	This is not a good situation to be in without a contract.	This is not a good situation to be in without a contract.	178386736	1476800170166	1476800170343	t	84
348286	3754289	This is not a good situation to be in without a contract.	This is not a good situation to be in without a contract.	178386739	1476800170403	1476800170530	.	190
348286	3754306	So you're ignoring me.	So you're ignoring me.	178386947	1476800173720	1476800174342	SHIFT	16
348286	3754306	So you're ignoring me.	So you're ignoring me.	178386948	1476800174328	1476800174423	S	83
348286	3754306	So you're ignoring me.	So you're ignoring me.	178386951	1476800174500	1476800174567	o	79
348286	3754306	So you're ignoring me.	So you're ignoring me.	178386954	1476800174617	1476800174717	 	32
348286	3754306	So you're ignoring me.	So you're ignoring me.	178386956	1476800175533	1476800175664	y	89
348286	3754306	So you're ignoring me.	So you're ignoring me.	178386994	1476800175661	1476800175888	o	79
348286	3754306	So you're ignoring me.	So you're ignoring me.	178386998	1476800175785	1476800175900	u	85
348286	3754306	So you're ignoring me.	So you're ignoring me.	178387001	1476800176318	1476800176401	'	222
348286	3754306	So you're ignoring me.	So you're ignoring me.	178387003	1476800176435	1476800176566	r	82
348286	3754306	So you're ignoring me.	So you're ignoring me.	178387005	1476800176607	1476800176809	e	69
348286	3754306	So you're ignoring me.	So you're ignoring me.	178387008	1476800176841	1476800176960	 	32
348286	3754306	So you're ignoring me.	So you're ignoring me.	178387099	1476800177340	1476800177532	i	73
348286	3754306	So you're ignoring me.	So you're ignoring me.	178387102	1476800177725	1476800177868	g	71
348286	3754306	So you're ignoring me.	So you're ignoring me.	178387105	1476800177841	1476800178020	n	78
348286	3754306	So you're ignoring me.	So you're ignoring me.	178387108	1476800177957	1476800178124	o	79
348286	3754306	So you're ignoring me.	So you're ignoring me.	178387112	1476800178508	1476800178639	r	82
348286	3754306	So you're ignoring me.	So you're ignoring me.	178387120	1476800178688	1476800178875	i	73
348286	3754306	So you're ignoring me.	So you're ignoring me.	178387127	1476800178800	1476800178961	n	78
348286	3754306	So you're ignoring me.	So you're ignoring me.	178387133	1476800178960	1476800179095	g	71
348286	3754306	So you're ignoring me.	So you're ignoring me.	178387139	1476800179032	1476800179155	 	32
348286	3754306	So you're ignoring me.	So you're ignoring me.	178387146	1476800179529	1476800179620	m	77
348286	3754306	So you're ignoring me.	So you're ignoring me.	178387203	1476800179665	1476800179804	e	69
348286	3754314	Neither player is going to be a clear-cut starter this week.	Neither player is going to be a clear-cut starter this week.	178388101	1476800180916	1476800200510	.	190
348286	3754314	Neither player is going to be a clear-cut starter this week.	Neither player is going to be a clear-cut starter this week.	178387322	1476800183357	1476800183649	SHIFT	16
348286	3754314	Neither player is going to be a clear-cut starter this week.	Neither player is going to be a clear-cut starter this week.	178387318	1476800183546	1476800183633	N	78
348286	3754314	Neither player is going to be a clear-cut starter this week.	Neither player is going to be a clear-cut starter this week.	178387326	1476800183706	1476800183837	e	69
348286	3754314	Neither player is going to be a clear-cut starter this week.	Neither player is going to be a clear-cut starter this week.	178387331	1476800183847	1476800184001	i	73
348286	3754314	Neither player is going to be a clear-cut starter this week.	Neither player is going to be a clear-cut starter this week.	178387336	1476800184019	1476800184158	g	71
348286	3754314	Neither player is going to be a clear-cut starter this week.	Neither player is going to be a clear-cut starter this week.	178387397	1476800184119	1476800184160	h	72
348286	3754314	Neither player is going to be a clear-cut starter this week.	Neither player is going to be a clear-cut starter this week.	178387400	1476800184485	1476800184528	BKSP	8
348286	3754314	Neither player is going to be a clear-cut starter this week.	Neither player is going to be a clear-cut starter this week.	178387403	1476800184775	1476800184930	BKSP	8
348286	3754314	Neither player is going to be a clear-cut starter this week.	Neither player is going to be a clear-cut starter this week.	178387407	1476800185243	1476800185390	t	84
348286	3754314	Neither player is going to be a clear-cut starter this week.	Neither player is going to be a clear-cut starter this week.	178387411	1476800185359	1476800185434	h	72
348286	3754314	Neither player is going to be a clear-cut starter this week.	Neither player is going to be a clear-cut starter this week.	178387415	1476800185443	1476800185710	e	69
348286	3754314	Neither player is going to be a clear-cut starter this week.	Neither player is going to be a clear-cut starter this week.	178387419	1476800185535	1476800185818	r	82
348286	3754314	Neither player is going to be a clear-cut starter this week.	Neither player is going to be a clear-cut starter this week.	178387480	1476800185771	1476800185926	 	32
348286	3754314	Neither player is going to be a clear-cut starter this week.	Neither player is going to be a clear-cut starter this week.	178387481	1476800186254	1476800186453	p	80
348286	3754314	Neither player is going to be a clear-cut starter this week.	Neither player is going to be a clear-cut starter this week.	178387483	1476800186374	1476800186557	l	76
348286	3754314	Neither player is going to be a clear-cut starter this week.	Neither player is going to be a clear-cut starter this week.	178387485	1476800186578	1476800186761	a	65
348286	3754314	Neither player is going to be a clear-cut starter this week.	Neither player is going to be a clear-cut starter this week.	178387488	1476800186829	1476800186984	y	89
348286	3754314	Neither player is going to be a clear-cut starter this week.	Neither player is going to be a clear-cut starter this week.	178387492	1476800187053	1476800187308	e	69
348286	3754314	Neither player is going to be a clear-cut starter this week.	Neither player is going to be a clear-cut starter this week.	178387579	1476800187185	1476800187360	r	82
348286	3754314	Neither player is going to be a clear-cut starter this week.	Neither player is going to be a clear-cut starter this week.	178387582	1476800187297	1476800187444	 	32
348286	3754314	Neither player is going to be a clear-cut starter this week.	Neither player is going to be a clear-cut starter this week.	178387586	1476800187482	1476800187670	i	73
348286	3754314	Neither player is going to be a clear-cut starter this week.	Neither player is going to be a clear-cut starter this week.	178387589	1476800187837	1476800188008	s	83
348286	3754314	Neither player is going to be a clear-cut starter this week.	Neither player is going to be a clear-cut starter this week.	178387592	1476800187941	1476800188072	 	32
348286	3754314	Neither player is going to be a clear-cut starter this week.	Neither player is going to be a clear-cut starter this week.	178387595	1476800188671	1476800188817	g	71
348286	3754314	Neither player is going to be a clear-cut starter this week.	Neither player is going to be a clear-cut starter this week.	178387620	1476800188762	1476800188941	o	79
348286	3754314	Neither player is going to be a clear-cut starter this week.	Neither player is going to be a clear-cut starter this week.	178387622	1476800188838	1476800188957	i	73
348286	3754314	Neither player is going to be a clear-cut starter this week.	Neither player is going to be a clear-cut starter this week.	178387624	1476800189032	1476800189167	n	78
348286	3754314	Neither player is going to be a clear-cut starter this week.	Neither player is going to be a clear-cut starter this week.	178387626	1476800189187	1476800189342	g	71
348286	3754314	Neither player is going to be a clear-cut starter this week.	Neither player is going to be a clear-cut starter this week.	178387629	1476800189263	1476800189406	 	32
348286	3754314	Neither player is going to be a clear-cut starter this week.	Neither player is going to be a clear-cut starter this week.	178387632	1476800189681	1476800189817	t	84
348286	3754314	Neither player is going to be a clear-cut starter this week.	Neither player is going to be a clear-cut starter this week.	178387663	1476800189778	1476800189885	o	79
348286	3754314	Neither player is going to be a clear-cut starter this week.	Neither player is going to be a clear-cut starter this week.	178387669	1476800189894	1476800190065	 	32
348286	3754314	Neither player is going to be a clear-cut starter this week.	Neither player is going to be a clear-cut starter this week.	178387674	1476800190599	1476800190676	b	66
348286	3754314	Neither player is going to be a clear-cut starter this week.	Neither player is going to be a clear-cut starter this week.	178387681	1476800190669	1476800190820	e	69
348286	3754314	Neither player is going to be a clear-cut starter this week.	Neither player is going to be a clear-cut starter this week.	178387685	1476800190783	1476800190892	 	32
348286	3754314	Neither player is going to be a clear-cut starter this week.	Neither player is going to be a clear-cut starter this week.	178387687	1476800190909	1476800191076	a	65
348286	3754314	Neither player is going to be a clear-cut starter this week.	Neither player is going to be a clear-cut starter this week.	178387733	1476800191017	1476800191120	 	32
348286	3754314	Neither player is going to be a clear-cut starter this week.	Neither player is going to be a clear-cut starter this week.	178387736	1476800191535	1476800191653	c	67
348286	3754314	Neither player is going to be a clear-cut starter this week.	Neither player is going to be a clear-cut starter this week.	178387738	1476800191635	1476800191734	l	76
348286	3754314	Neither player is going to be a clear-cut starter this week.	Neither player is going to be a clear-cut starter this week.	178387741	1476800191890	1476800192109	e	69
348286	3754314	Neither player is going to be a clear-cut starter this week.	Neither player is going to be a clear-cut starter this week.	178387743	1476800192033	1476800192317	a	65
348286	3754314	Neither player is going to be a clear-cut starter this week.	Neither player is going to be a clear-cut starter this week.	178387786	1476800192250	1476800192433	r	82
348286	3754314	Neither player is going to be a clear-cut starter this week.	Neither player is going to be a clear-cut starter this week.	178387788	1476800192475	1476800192582	-	189
348286	3754314	Neither player is going to be a clear-cut starter this week.	Neither player is going to be a clear-cut starter this week.	178387790	1476800192825	1476800193128	o	79
348286	3754314	Neither player is going to be a clear-cut starter this week.	Neither player is going to be a clear-cut starter this week.	178387792	1476800193049	1476800193230	u	85
348286	3754314	Neither player is going to be a clear-cut starter this week.	Neither player is going to be a clear-cut starter this week.	178387796	1476800193329	1476800193480	t	84
348286	3754314	Neither player is going to be a clear-cut starter this week.	Neither player is going to be a clear-cut starter this week.	178387801	1476800193497	1476800193633	 	32
348286	3754314	Neither player is going to be a clear-cut starter this week.	Neither player is going to be a clear-cut starter this week.	178387918	1476800194133	1476800194212	BKSP	8
348286	3754314	Neither player is going to be a clear-cut starter this week.	Neither player is going to be a clear-cut starter this week.	178387921	1476800194284	1476800194367	BKSP	8
348286	3754314	Neither player is going to be a clear-cut starter this week.	Neither player is going to be a clear-cut starter this week.	178387926	1476800194446	1476800194533	BKSP	8
348286	3754314	Neither player is going to be a clear-cut starter this week.	Neither player is going to be a clear-cut starter this week.	178387930	1476800194593	1476800194669	BKSP	8
348286	3754314	Neither player is going to be a clear-cut starter this week.	Neither player is going to be a clear-cut starter this week.	178387934	1476800195274	1476800195433	c	67
348286	3754314	Neither player is going to be a clear-cut starter this week.	Neither player is going to be a clear-cut starter this week.	178387937	1476800195406	1476800195569	u	85
348286	3754314	Neither player is going to be a clear-cut starter this week.	Neither player is going to be a clear-cut starter this week.	178387939	1476800195642	1476800195753	t	84
348286	3754314	Neither player is going to be a clear-cut starter this week.	Neither player is going to be a clear-cut starter this week.	178387941	1476800195742	1476800195929	 	32
348286	3754314	Neither player is going to be a clear-cut starter this week.	Neither player is going to be a clear-cut starter this week.	178387943	1476800196368	1476800196591	s	83
348286	3754314	Neither player is going to be a clear-cut starter this week.	Neither player is going to be a clear-cut starter this week.	178387963	1476800196658	1476800196761	t	84
348286	3754314	Neither player is going to be a clear-cut starter this week.	Neither player is going to be a clear-cut starter this week.	178387964	1476800197061	1476800197328	a	65
348286	3754314	Neither player is going to be a clear-cut starter this week.	Neither player is going to be a clear-cut starter this week.	178387965	1476800197197	1476800197384	r	82
348286	3754314	Neither player is going to be a clear-cut starter this week.	Neither player is going to be a clear-cut starter this week.	178387967	1476800197499	1476800197638	t	84
348286	3754314	Neither player is going to be a clear-cut starter this week.	Neither player is going to be a clear-cut starter this week.	178388039	1476800197611	1476800197894	e	69
348286	3754314	Neither player is going to be a clear-cut starter this week.	Neither player is going to be a clear-cut starter this week.	178388041	1476800197783	1476800197994	r	82
348286	3754314	Neither player is going to be a clear-cut starter this week.	Neither player is going to be a clear-cut starter this week.	178388043	1476800198322	1476800198481	 	32
348286	3754314	Neither player is going to be a clear-cut starter this week.	Neither player is going to be a clear-cut starter this week.	178388044	1476800198866	1476800199013	t	84
348286	3754314	Neither player is going to be a clear-cut starter this week.	Neither player is going to be a clear-cut starter this week.	178388045	1476800198962	1476800199205	h	72
348286	3754314	Neither player is going to be a clear-cut starter this week.	Neither player is going to be a clear-cut starter this week.	178388079	1476800199162	1476800199321	i	73
348286	3754314	Neither player is going to be a clear-cut starter this week.	Neither player is going to be a clear-cut starter this week.	178388081	1476800199344	1476800199495	s	83
348286	3754314	Neither player is going to be a clear-cut starter this week.	Neither player is going to be a clear-cut starter this week.	178388083	1476800199472	1476800199567	 	32
348286	3754314	Neither player is going to be a clear-cut starter this week.	Neither player is going to be a clear-cut starter this week.	178388085	1476800199637	1476800199896	w	87
348286	3754314	Neither player is going to be a clear-cut starter this week.	Neither player is going to be a clear-cut starter this week.	178388088	1476800199797	1476800199976	e	69
348286	3754314	Neither player is going to be a clear-cut starter this week.	Neither player is going to be a clear-cut starter this week.	178388091	1476800200032	1476800200164	e	69
348286	3754314	Neither player is going to be a clear-cut starter this week.	Neither player is going to be a clear-cut starter this week.	178388100	1476800200149	1476800200252	k	75
348286	3754334	What is up with ENE?	What is up with ENE?	178388224	1476800203439	1476800203542	w	87
348286	3754334	What is up with ENE?	What is up with ENE?	178388227	1476800203527	1476800203606	h	72
348286	3754334	What is up with ENE?	What is up with ENE?	178388230	1476800203729	1476800203804	t	84
348286	3754334	What is up with ENE?	What is up with ENE?	178388234	1476800203842	1476800203997	a	65
348286	3754334	What is up with ENE?	What is up with ENE?	178388239	1476800204041	1476800204196	 	32
348286	3754334	What is up with ENE?	What is up with ENE?	178388448	1476800204534	1476800204629	BKSP	8
348286	3754334	What is up with ENE?	What is up with ENE?	178388451	1476800204692	1476800204759	BKSP	8
348286	3754334	What is up with ENE?	What is up with ENE?	178388454	1476800204813	1476800204880	BKSP	8
348286	3754334	What is up with ENE?	What is up with ENE?	178388458	1476800204932	1476800205015	BKSP	8
348286	3754334	What is up with ENE?	What is up with ENE?	178388460	1476800205074	1476800205254	BKSP	8
348286	3754334	What is up with ENE?	What is up with ENE?	178388463	1476800205420	1476800205693	SHIFT	16
348286	3754334	What is up with ENE?	What is up with ENE?	178388467	1476800205694	1476800205833	w	87
348286	3754334	What is up with ENE?	What is up with ENE?	178388470	1476800206649	1476800206820	BKSP	8
348286	3754334	What is up with ENE?	What is up with ENE?	178388478	1476800206832	1476800207120	SHIFT	16
348286	3754334	What is up with ENE?	What is up with ENE?	178388483	1476800207057	1476800207168	W	87
348286	3754334	What is up with ENE?	What is up with ENE?	178388487	1476800207257	1476800207324	h	72
348286	3754334	What is up with ENE?	What is up with ENE?	178388493	1476800207366	1476800207469	a	65
348286	3754334	What is up with ENE?	What is up with ENE?	178388512	1476800207466	1476800207533	t	84
348286	3754334	What is up with ENE?	What is up with ENE?	178388513	1476800207575	1476800207682	 	32
348286	3754334	What is up with ENE?	What is up with ENE?	178388514	1476800207899	1476800208006	i	73
348286	3754334	What is up with ENE?	What is up with ENE?	178388515	1476800207995	1476800208134	s	83
348286	3754334	What is up with ENE?	What is up with ENE?	178388516	1476800208083	1476800208194	 	32
348286	3754334	What is up with ENE?	What is up with ENE?	178388518	1476800208424	1476800208587	u	85
348286	3754334	What is up with ENE?	What is up with ENE?	178388571	1476800208536	1476800208635	p	80
348286	3754334	What is up with ENE?	What is up with ENE?	178388573	1476800208640	1476800208771	 	32
348286	3754334	What is up with ENE?	What is up with ENE?	178388575	1476800209261	1476800209436	w	87
348286	3754334	What is up with ENE?	What is up with ENE?	178388580	1476800209401	1476800209496	i	73
348286	3754334	What is up with ENE?	What is up with ENE?	178388585	1476800209566	1476800209705	t	84
348286	3754334	What is up with ENE?	What is up with ENE?	178388674	1476800209653	1476800209762	h	72
348286	3754334	What is up with ENE?	What is up with ENE?	178388675	1476800209770	1476800209917	 	32
348286	3754334	What is up with ENE?	What is up with ENE?	178388692	1476800210156	1476800211008	SHIFT	16
348286	3754334	What is up with ENE?	What is up with ENE?	178388681	1476800210553	1476800210681	E	69
348286	3754334	What is up with ENE?	What is up with ENE?	178388685	1476800210713	1476800210792	N	78
348286	3754334	What is up with ENE?	What is up with ENE?	178388700	1476800210857	1476800211021	E	69
348286	3754334	What is up with ENE?	What is up with ENE?	178388734	1476800211456	1476800211700	SHIFT	16
348286	3754334	What is up with ENE?	What is up with ENE?	178388707	1476800211577	1476800211680	?	191
348286	3754352	I would expect an answer ASAP.	I would expect an answer ASAP.	178388837	1476800214279	1476800214539	SHIFT	16
348286	3754352	I would expect an answer ASAP.	I would expect an answer ASAP.	178388840	1476800214488	1476800214551	I	73
348286	3754352	I would expect an answer ASAP.	I would expect an answer ASAP.	178388843	1476800214628	1476800214754	 	32
348286	3754352	I would expect an answer ASAP.	I would expect an answer ASAP.	178388846	1476800214870	1476800215045	w	87
348286	3754352	I would expect an answer ASAP.	I would expect an answer ASAP.	178388848	1476800215006	1476800215245	o	79
348286	3754352	I would expect an answer ASAP.	I would expect an answer ASAP.	178388902	1476800215134	1476800215301	u	85
348286	3754352	I would expect an answer ASAP.	I would expect an answer ASAP.	178388905	1476800215371	1476800215522	l	76
348286	3754352	I would expect an answer ASAP.	I would expect an answer ASAP.	178388907	1476800215507	1476800215650	d	68
348286	3754352	I would expect an answer ASAP.	I would expect an answer ASAP.	178388910	1476800215607	1476800215763	 	32
348286	3754352	I would expect an answer ASAP.	I would expect an answer ASAP.	178388912	1476800216068	1476800216215	e	69
348286	3754352	I would expect an answer ASAP.	I would expect an answer ASAP.	178388913	1476800216432	1476800216591	x	88
348286	3754352	I would expect an answer ASAP.	I would expect an answer ASAP.	178389028	1476800216717	1476800216913	c	67
348286	3754352	I would expect an answer ASAP.	I would expect an answer ASAP.	178389031	1476800216857	1476800217100	e	69
348286	3754352	I would expect an answer ASAP.	I would expect an answer ASAP.	178389035	1476800217723	1476800217802	BKSP	8
348286	3754352	I would expect an answer ASAP.	I would expect an answer ASAP.	178389039	1476800217887	1476800217946	BKSP	8
348286	3754352	I would expect an answer ASAP.	I would expect an answer ASAP.	178389042	1476800218540	1476800218623	p	80
348286	3754352	I would expect an answer ASAP.	I would expect an answer ASAP.	178389044	1476800218645	1476800218936	e	69
348286	3754352	I would expect an answer ASAP.	I would expect an answer ASAP.	178389113	1476800218825	1476800219012	c	67
348286	3754352	I would expect an answer ASAP.	I would expect an answer ASAP.	178389115	1476800219226	1476800219357	t	84
348286	3754352	I would expect an answer ASAP.	I would expect an answer ASAP.	178389117	1476800219362	1476800219501	 	32
348286	3754352	I would expect an answer ASAP.	I would expect an answer ASAP.	178389120	1476800219764	1476800219935	a	65
348286	3754352	I would expect an answer ASAP.	I would expect an answer ASAP.	178389123	1476800219888	1476800219979	n	78
348286	3754352	I would expect an answer ASAP.	I would expect an answer ASAP.	178389126	1476800219995	1476800220162	d	68
348286	3754352	I would expect an answer ASAP.	I would expect an answer ASAP.	178389204	1476800220096	1476800220203	 	32
348286	3754352	I would expect an answer ASAP.	I would expect an answer ASAP.	178389206	1476800220437	1476800220521	BKSP	8
348286	3754352	I would expect an answer ASAP.	I would expect an answer ASAP.	178389210	1476800220591	1476800220666	BKSP	8
348286	3754352	I would expect an answer ASAP.	I would expect an answer ASAP.	178389213	1476800220731	1476800220835	 	32
348286	3754352	I would expect an answer ASAP.	I would expect an answer ASAP.	178389217	1476800221266	1476800221416	a	65
348286	3754352	I would expect an answer ASAP.	I would expect an answer ASAP.	178389224	1476800221418	1476800221526	n	78
348286	3754352	I would expect an answer ASAP.	I would expect an answer ASAP.	178389230	1476800221653	1476800221824	s	83
348286	3754352	I would expect an answer ASAP.	I would expect an answer ASAP.	178389317	1476800221757	1476800222064	w	87
348286	3754352	I would expect an answer ASAP.	I would expect an answer ASAP.	178389320	1476800221937	1476800222128	e	69
348286	3754352	I would expect an answer ASAP.	I would expect an answer ASAP.	178389324	1476800222215	1476800222446	r	82
348286	3754352	I would expect an answer ASAP.	I would expect an answer ASAP.	178389329	1476800222367	1476800222522	 	32
348286	3754352	I would expect an answer ASAP.	I would expect an answer ASAP.	178389449	1476800222781	1476800224893	SHIFT	16
348286	3754352	I would expect an answer ASAP.	I would expect an answer ASAP.	178389331	1476800223054	1476800223157	S	83
348286	3754352	I would expect an answer ASAP.	I would expect an answer ASAP.	178389336	1476800223522	1476800223717	BKSP	8
348286	3754352	I would expect an answer ASAP.	I would expect an answer ASAP.	178389343	1476800223742	1476800223969	A	65
348286	3754352	I would expect an answer ASAP.	I would expect an answer ASAP.	178389441	1476800223910	1476800224291	S	83
348286	3754352	I would expect an answer ASAP.	I would expect an answer ASAP.	178389443	1476800224218	1476800224529	A	65
348286	3754352	I would expect an answer ASAP.	I would expect an answer ASAP.	178389446	1476800224478	1476800224617	P	80
348286	3754352	I would expect an answer ASAP.	I would expect an answer ASAP.	178389452	1476800225394	1476800225460	.	190
348286	3754365	Another group of policemen was due to be deployed.	Another group of policemen was due to be deplyoed.	178389638	1476800227620	1476800227984	SHIFT	16
348286	3754365	Another group of policemen was due to be deployed.	Another group of policemen was due to be deplyoed.	178389645	1476800227977	1476800228128	A	65
348286	3754365	Another group of policemen was due to be deployed.	Another group of policemen was due to be deplyoed.	178389654	1476800228305	1476800228480	n	78
348286	3754365	Another group of policemen was due to be deployed.	Another group of policemen was due to be deplyoed.	178389659	1476800228437	1476800228601	o	79
348286	3754365	Another group of policemen was due to be deployed.	Another group of policemen was due to be deplyoed.	178389663	1476800228577	1476800228688	t	84
348286	3754365	Another group of policemen was due to be deployed.	Another group of policemen was due to be deplyoed.	178389739	1476800228657	1476800228760	h	72
348286	3754365	Another group of policemen was due to be deployed.	Another group of policemen was due to be deplyoed.	178389741	1476800228773	1476800229004	e	69
348286	3754365	Another group of policemen was due to be deployed.	Another group of policemen was due to be deplyoed.	178389743	1476800228873	1476800229092	r	82
348286	3754365	Another group of policemen was due to be deployed.	Another group of policemen was due to be deplyoed.	178389745	1476800229109	1476800229228	 	32
348286	3754365	Another group of policemen was due to be deployed.	Another group of policemen was due to be deplyoed.	178389748	1476800229770	1476800230009	g	71
348286	3754365	Another group of policemen was due to be deployed.	Another group of policemen was due to be deplyoed.	178389810	1476800229946	1476800230161	r	82
348286	3754365	Another group of policemen was due to be deployed.	Another group of policemen was due to be deplyoed.	178389812	1476800230118	1476800230317	o	79
348286	3754365	Another group of policemen was due to be deployed.	Another group of policemen was due to be deplyoed.	178389814	1476800230230	1476800230483	u	85
348286	3754365	Another group of policemen was due to be deployed.	Another group of policemen was due to be deplyoed.	178389817	1476800230482	1476800230717	p	80
348286	3754365	Another group of policemen was due to be deployed.	Another group of policemen was due to be deplyoed.	178389819	1476800230762	1476800230945	 	32
348286	3754365	Another group of policemen was due to be deployed.	Another group of policemen was due to be deplyoed.	178389821	1476800231477	1476800231631	o	79
348286	3754365	Another group of policemen was due to be deployed.	Another group of policemen was due to be deplyoed.	178389847	1476800231596	1476800231747	f	70
348286	3754365	Another group of policemen was due to be deployed.	Another group of policemen was due to be deplyoed.	178389849	1476800231694	1476800231827	 	32
348286	3754365	Another group of policemen was due to be deployed.	Another group of policemen was due to be deplyoed.	178389852	1476800231938	1476800232205	p	80
348286	3754365	Another group of policemen was due to be deployed.	Another group of policemen was due to be deplyoed.	178389855	1476800232130	1476800232289	o	79
348286	3754365	Another group of policemen was due to be deployed.	Another group of policemen was due to be deplyoed.	178389858	1476800232328	1476800232519	l	76
348286	3754365	Another group of policemen was due to be deployed.	Another group of policemen was due to be deplyoed.	178389861	1476800232616	1476800232751	i	73
348286	3754365	Another group of policemen was due to be deployed.	Another group of policemen was due to be deplyoed.	178389955	1476800232854	1476800233038	c	67
348286	3754365	Another group of policemen was due to be deployed.	Another group of policemen was due to be deplyoed.	178389959	1476800233218	1476800233389	e	69
348286	3754365	Another group of policemen was due to be deployed.	Another group of policemen was due to be deplyoed.	178389963	1476800234632	1476800234731	m	77
348286	3754365	Another group of policemen was due to be deployed.	Another group of policemen was due to be deplyoed.	178389967	1476800234736	1476800234907	e	69
348286	3754365	Another group of policemen was due to be deployed.	Another group of policemen was due to be deplyoed.	178390065	1476800234840	1476800234968	n	78
348286	3754365	Another group of policemen was due to be deployed.	Another group of policemen was due to be deplyoed.	178390068	1476800234968	1476800235131	 	32
348286	3754365	Another group of policemen was due to be deployed.	Another group of policemen was due to be deplyoed.	178390071	1476800235324	1476800235479	w	87
348286	3754365	Another group of policemen was due to be deployed.	Another group of policemen was due to be deplyoed.	178390074	1476800235445	1476800235727	a	65
348286	3754365	Another group of policemen was due to be deployed.	Another group of policemen was due to be deplyoed.	178390076	1476800235616	1476800235835	s	83
348286	3754365	Another group of policemen was due to be deployed.	Another group of policemen was due to be deplyoed.	178390079	1476800235840	1476800235955	 	32
348286	3754365	Another group of policemen was due to be deployed.	Another group of policemen was due to be deplyoed.	178390153	1476800235983	1476800236094	d	68
348286	3754365	Another group of policemen was due to be deployed.	Another group of policemen was due to be deplyoed.	178390154	1476800236103	1476800236202	u	85
348286	3754365	Another group of policemen was due to be deployed.	Another group of policemen was due to be deplyoed.	178390155	1476800236288	1476800236479	e	69
348286	3754365	Another group of policemen was due to be deployed.	Another group of policemen was due to be deplyoed.	178390156	1476800236408	1476800236527	 	32
348286	3754365	Another group of policemen was due to be deployed.	Another group of policemen was due to be deplyoed.	178390157	1476800237210	1476800237313	t	84
348286	3754365	Another group of policemen was due to be deployed.	Another group of policemen was due to be deplyoed.	178390272	1476800237294	1476800237378	o	79
348286	3754365	Another group of policemen was due to be deployed.	Another group of policemen was due to be deplyoed.	178390274	1476800237421	1476800237541	 	32
348286	3754365	Another group of policemen was due to be deployed.	Another group of policemen was due to be deplyoed.	178390278	1476800238741	1476800238856	b	66
348286	3754365	Another group of policemen was due to be deployed.	Another group of policemen was due to be deplyoed.	178390282	1476800238841	1476800239020	e	69
348286	3754365	Another group of policemen was due to be deployed.	Another group of policemen was due to be deplyoed.	178390287	1476800238925	1476800239065	 	32
348286	3754365	Another group of policemen was due to be deployed.	Another group of policemen was due to be deplyoed.	178390291	1476800239298	1476800239505	d	68
348286	3754365	Another group of policemen was due to be deployed.	Another group of policemen was due to be deplyoed.	178390358	1476800239422	1476800239705	e	69
348286	3754365	Another group of policemen was due to be deployed.	Another group of policemen was due to be deplyoed.	178390359	1476800239662	1476800239989	p	80
348286	3754365	Another group of policemen was due to be deployed.	Another group of policemen was due to be deplyoed.	178390363	1476800239830	1476800240069	l	76
348286	3754365	Another group of policemen was due to be deployed.	Another group of policemen was due to be deplyoed.	178390368	1476800240261	1476800240403	y	89
348286	3754365	Another group of policemen was due to be deployed.	Another group of policemen was due to be deplyoed.	178390373	1476800240385	1476800240529	o	79
348286	3754365	Another group of policemen was due to be deployed.	Another group of policemen was due to be deplyoed.	178390379	1476800240585	1476800240852	e	69
348286	3754365	Another group of policemen was due to be deployed.	Another group of policemen was due to be deplyoed.	178390388	1476800240706	1476800241005	d	68
348286	3754387	He was our best player when he got hurt.	He was our best player when he got hurt.	178391129	1476800241098	1476800254088	.	190
348286	3754387	He was our best player when he got hurt.	He was our best player when he got hurt.	178390564	1476800244389	1476800244577	SHIFT	16
348286	3754387	He was our best player when he got hurt.	He was our best player when he got hurt.	178390570	1476800244498	1476800244581	H	72
348286	3754387	He was our best player when he got hurt.	He was our best player when he got hurt.	178390579	1476800244615	1476800244802	e	69
348286	3754387	He was our best player when he got hurt.	He was our best player when he got hurt.	178390585	1476800244830	1476800244929	 	32
348286	3754387	He was our best player when he got hurt.	He was our best player when he got hurt.	178390592	1476800245153	1476800245336	w	87
348286	3754387	He was our best player when he got hurt.	He was our best player when he got hurt.	178390626	1476800245285	1476800245556	a	65
348286	3754387	He was our best player when he got hurt.	He was our best player when he got hurt.	178390629	1476800245466	1476800245748	s	83
348286	3754387	He was our best player when he got hurt.	He was our best player when he got hurt.	178390632	1476800245609	1476800245765	 	32
348286	3754387	He was our best player when he got hurt.	He was our best player when he got hurt.	178390637	1476800245836	1476800246103	o	79
348286	3754387	He was our best player when he got hurt.	He was our best player when he got hurt.	178390642	1476800246008	1476800246155	u	85
348286	3754387	He was our best player when he got hurt.	He was our best player when he got hurt.	178390645	1476800246172	1476800246271	t	84
348286	3754387	He was our best player when he got hurt.	He was our best player when he got hurt.	178390798	1476800247016	1476800247175	BKSP	8
348286	3754387	He was our best player when he got hurt.	He was our best player when he got hurt.	178390804	1476800247171	1476800247318	r	82
348286	3754387	He was our best player when he got hurt.	He was our best player when he got hurt.	178390808	1476800247267	1476800247418	 	32
348286	3754387	He was our best player when he got hurt.	He was our best player when he got hurt.	178390812	1476800248327	1476800248426	b	66
348286	3754387	He was our best player when he got hurt.	He was our best player when he got hurt.	178390816	1476800248383	1476800248574	e	69
348286	3754387	He was our best player when he got hurt.	He was our best player when he got hurt.	178390822	1476800248579	1476800248818	s	83
348286	3754387	He was our best player when he got hurt.	He was our best player when he got hurt.	178390869	1476800248775	1476800248854	t	84
348286	3754387	He was our best player when he got hurt.	He was our best player when he got hurt.	178390873	1476800248885	1476800249032	 	32
348286	3754387	He was our best player when he got hurt.	He was our best player when he got hurt.	178390878	1476800249109	1476800249336	p	80
348286	3754387	He was our best player when he got hurt.	He was our best player when he got hurt.	178390884	1476800249241	1476800249384	l	76
348286	3754387	He was our best player when he got hurt.	He was our best player when he got hurt.	178390889	1476800249373	1476800249576	a	65
348286	3754387	He was our best player when he got hurt.	He was our best player when he got hurt.	178390893	1476800249577	1476800249677	y	89
348286	3754387	He was our best player when he got hurt.	He was our best player when he got hurt.	178390917	1476800249702	1476800250013	e	69
348286	3754387	He was our best player when he got hurt.	He was our best player when he got hurt.	178390919	1476800249862	1476800250085	r	82
348286	3754387	He was our best player when he got hurt.	He was our best player when he got hurt.	178390923	1476800250021	1476800250145	 	32
348286	3754387	He was our best player when he got hurt.	He was our best player when he got hurt.	178390926	1476800250412	1476800250587	w	87
348286	3754387	He was our best player when he got hurt.	He was our best player when he got hurt.	178391020	1476800250548	1476800250647	h	72
348286	3754387	He was our best player when he got hurt.	He was our best player when he got hurt.	178391023	1476800250729	1476800250936	e	69
348286	3754387	He was our best player when he got hurt.	He was our best player when he got hurt.	178391026	1476800250930	1476800251097	n	78
348286	3754387	He was our best player when he got hurt.	He was our best player when he got hurt.	178391031	1476800251125	1476800251284	 	32
348286	3754387	He was our best player when he got hurt.	He was our best player when he got hurt.	178391035	1476800252171	1476800252254	h	72
348286	3754387	He was our best player when he got hurt.	He was our best player when he got hurt.	178391049	1476800252243	1476800252426	e	69
348286	3754387	He was our best player when he got hurt.	He was our best player when he got hurt.	178391054	1476800252347	1476800252471	 	32
348286	3754387	He was our best player when he got hurt.	He was our best player when he got hurt.	178391060	1476800252640	1476800252733	g	71
348286	3754387	He was our best player when he got hurt.	He was our best player when he got hurt.	178391067	1476800252720	1476800252831	o	79
348286	3754387	He was our best player when he got hurt.	He was our best player when he got hurt.	178391072	1476800252848	1476800252971	t	84
348286	3754387	He was our best player when he got hurt.	He was our best player when he got hurt.	178391114	1476800252896	1476800253016	 	32
348286	3754387	He was our best player when he got hurt.	He was our best player when he got hurt.	178391116	1476800253065	1476800253336	h	72
348286	3754387	He was our best player when he got hurt.	He was our best player when he got hurt.	178391120	1476800253253	1476800253393	u	85
348286	3754387	He was our best player when he got hurt.	He was our best player when he got hurt.	178391123	1476800253441	1476800253637	r	82
348286	3754387	He was our best player when he got hurt.	He was our best player when he got hurt.	178391126	1476800253729	1476800253904	t	84
348286	3754405	We can work around these plans if you prefer.	We can work around these plans if you prefer.	178391344	1476800256424	1476800256963	SHIFT	16
348286	3754405	We can work around these plans if you prefer.	We can work around these plans if you prefer.	178391353	1476800256772	1476800257024	W	87
348286	3754405	We can work around these plans if you prefer.	We can work around these plans if you prefer.	178391361	1476800257335	1476800257439	e	69
348286	3754405	We can work around these plans if you prefer.	We can work around these plans if you prefer.	178391365	1476800257477	1476800257609	 	32
348286	3754405	We can work around these plans if you prefer.	We can work around these plans if you prefer.	178391369	1476800257811	1476800258019	c	67
348286	3754405	We can work around these plans if you prefer.	We can work around these plans if you prefer.	178391396	1476800257959	1476800258142	a	65
348286	3754405	We can work around these plans if you prefer.	We can work around these plans if you prefer.	178391399	1476800258071	1476800258194	n	78
348286	3754405	We can work around these plans if you prefer.	We can work around these plans if you prefer.	178391400	1476800258211	1476800258334	 	32
348286	3754405	We can work around these plans if you prefer.	We can work around these plans if you prefer.	178391401	1476800258432	1476800258639	w	87
348286	3754405	We can work around these plans if you prefer.	We can work around these plans if you prefer.	178391403	1476800258600	1476800258756	o	79
348286	3754405	We can work around these plans if you prefer.	We can work around these plans if you prefer.	178391408	1476800258870	1476800259022	r	82
348286	3754405	We can work around these plans if you prefer.	We can work around these plans if you prefer.	178391449	1476800258922	1476800259081	k	75
348286	3754405	We can work around these plans if you prefer.	We can work around these plans if you prefer.	178391451	1476800259086	1476800259250	 	32
348286	3754405	We can work around these plans if you prefer.	We can work around these plans if you prefer.	178391458	1476800259709	1476800259933	a	65
348286	3754405	We can work around these plans if you prefer.	We can work around these plans if you prefer.	178391463	1476800260112	1476800260241	r	82
348286	3754405	We can work around these plans if you prefer.	We can work around these plans if you prefer.	178391468	1476800260224	1476800260459	o	79
348286	3754405	We can work around these plans if you prefer.	We can work around these plans if you prefer.	178391493	1476800260372	1476800260491	u	85
348286	3754405	We can work around these plans if you prefer.	We can work around these plans if you prefer.	178391496	1476800260582	1476800260718	n	78
348286	3754405	We can work around these plans if you prefer.	We can work around these plans if you prefer.	178391507	1476800260724	1476800260925	d	68
348286	3754405	We can work around these plans if you prefer.	We can work around these plans if you prefer.	178391501	1476800260794	1476800260923	 	32
348286	3754405	We can work around these plans if you prefer.	We can work around these plans if you prefer.	178391512	1476800261396	1476800261535	r	82
348286	3754405	We can work around these plans if you prefer.	We can work around these plans if you prefer.	178391699	1476800261448	1476800261575	h	72
348286	3754405	We can work around these plans if you prefer.	We can work around these plans if you prefer.	178391702	1476800261826	1476800261913	BKSP	8
348286	3754405	We can work around these plans if you prefer.	We can work around these plans if you prefer.	178391705	1476800262013	1476800262080	BKSP	8
348286	3754405	We can work around these plans if you prefer.	We can work around these plans if you prefer.	178391708	1476800262607	1476800262766	t	84
348286	3754405	We can work around these plans if you prefer.	We can work around these plans if you prefer.	178391711	1476800262759	1476800262866	h	72
348286	3754405	We can work around these plans if you prefer.	We can work around these plans if you prefer.	178391716	1476800262879	1476800263106	e	69
348286	3754405	We can work around these plans if you prefer.	We can work around these plans if you prefer.	178391719	1476800262991	1476800263198	r	82
348286	3754405	We can work around these plans if you prefer.	We can work around these plans if you prefer.	178391722	1476800263421	1476800263584	BKSP	8
348286	3754405	We can work around these plans if you prefer.	We can work around these plans if you prefer.	178391726	1476800263602	1476800263865	s	83
348286	3754405	We can work around these plans if you prefer.	We can work around these plans if you prefer.	178391732	1476800263750	1476800263970	e	69
348286	3754405	We can work around these plans if you prefer.	We can work around these plans if you prefer.	178391734	1476800263938	1476800264050	 	32
348286	3754405	We can work around these plans if you prefer.	We can work around these plans if you prefer.	178391738	1476800264232	1476800264467	p	80
348286	3754405	We can work around these plans if you prefer.	We can work around these plans if you prefer.	178391742	1476800264380	1476800264508	l	76
348286	3754405	We can work around these plans if you prefer.	We can work around these plans if you prefer.	178391745	1476800264504	1476800264735	a	65
348286	3754405	We can work around these plans if you prefer.	We can work around these plans if you prefer.	178391794	1476800264636	1476800264783	n	78
348286	3754405	We can work around these plans if you prefer.	We can work around these plans if you prefer.	178391796	1476800264792	1476800264999	s	83
348286	3754405	We can work around these plans if you prefer.	We can work around these plans if you prefer.	178391799	1476800264920	1476800265053	 	32
348286	3754405	We can work around these plans if you prefer.	We can work around these plans if you prefer.	178391802	1476800265723	1476800265839	i	73
348286	3754405	We can work around these plans if you prefer.	We can work around these plans if you prefer.	178391805	1476800265811	1476800265974	f	70
348286	3754405	We can work around these plans if you prefer.	We can work around these plans if you prefer.	178391874	1476800265904	1476800266039	 	32
348286	3754405	We can work around these plans if you prefer.	We can work around these plans if you prefer.	178391879	1476800266407	1476800266442	t	84
348286	3754405	We can work around these plans if you prefer.	We can work around these plans if you prefer.	178391885	1476800266791	1476800266940	BKSP	8
348286	3754405	We can work around these plans if you prefer.	We can work around these plans if you prefer.	178391890	1476800266979	1476800267087	y	89
348286	3754405	We can work around these plans if you prefer.	We can work around these plans if you prefer.	178391896	1476800267141	1476800267381	o	79
348286	3754405	We can work around these plans if you prefer.	We can work around these plans if you prefer.	178391901	1476800267289	1476800267453	u	85
348286	3754405	We can work around these plans if you prefer.	We can work around these plans if you prefer.	178392018	1476800267437	1476800267625	 	32
348286	3754405	We can work around these plans if you prefer.	We can work around these plans if you prefer.	178392022	1476800267952	1476800268080	p	80
348286	3754405	We can work around these plans if you prefer.	We can work around these plans if you prefer.	178392028	1476800268238	1476800268421	r	82
348286	3754405	We can work around these plans if you prefer.	We can work around these plans if you prefer.	178392032	1476800268342	1476800268653	e	69
348286	3754405	We can work around these plans if you prefer.	We can work around these plans if you prefer.	178392038	1476800268614	1476800268842	f	70
348286	3754405	We can work around these plans if you prefer.	We can work around these plans if you prefer.	178392145	1476800268774	1476800269133	e	69
348286	3754405	We can work around these plans if you prefer.	We can work around these plans if you prefer.	178392147	1476800268958	1476800269254	r	82
348286	3754423	Tried to call but couldn't reach you.	Tried to call but couldn't reach you.	178392306	1476800272843	1476800273264	SHIFT	16
348286	3754423	Tried to call but couldn't reach you.	Tried to call but couldn't reach you.	178392313	1476800273212	1476800273316	T	84
348286	3754423	Tried to call but couldn't reach you.	Tried to call but couldn't reach you.	178392321	1476800273407	1476800273562	r	82
348286	3754423	Tried to call but couldn't reach you.	Tried to call but couldn't reach you.	178392326	1476800273547	1476800273623	i	73
348286	3754423	Tried to call but couldn't reach you.	Tried to call but couldn't reach you.	178392332	1476800273619	1476800273966	e	69
348286	3754423	Tried to call but couldn't reach you.	Tried to call but couldn't reach you.	178392378	1476800273779	1476800274039	d	68
348286	3754423	Tried to call but couldn't reach you.	Tried to call but couldn't reach you.	178392382	1476800274031	1476800274199	 	32
348286	3754423	Tried to call but couldn't reach you.	Tried to call but couldn't reach you.	178392385	1476800274421	1476800274565	t	84
348286	3754423	Tried to call but couldn't reach you.	Tried to call but couldn't reach you.	178392388	1476800274513	1476800274641	o	79
348286	3754423	Tried to call but couldn't reach you.	Tried to call but couldn't reach you.	178392392	1476800274609	1476800274777	 	32
348286	3754423	Tried to call but couldn't reach you.	Tried to call but couldn't reach you.	178392396	1476800274840	1476800275067	c	67
348286	3754423	Tried to call but couldn't reach you.	Tried to call but couldn't reach you.	178392412	1476800275005	1476800275184	a	65
348286	3754423	Tried to call but couldn't reach you.	Tried to call but couldn't reach you.	178392418	1476800275112	1476800275188	l	76
348286	3754423	Tried to call but couldn't reach you.	Tried to call but couldn't reach you.	178392421	1476800275280	1476800275379	l	76
348286	3754423	Tried to call but couldn't reach you.	Tried to call but couldn't reach you.	178392425	1476800275388	1476800275533	 	32
348286	3754423	Tried to call but couldn't reach you.	Tried to call but couldn't reach you.	178392429	1476800275747	1476800275934	b	66
348286	3754423	Tried to call but couldn't reach you.	Tried to call but couldn't reach you.	178392445	1476800275867	1476800275997	u	85
348286	3754423	Tried to call but couldn't reach you.	Tried to call but couldn't reach you.	178392446	1476800275971	1476800276115	t	84
348286	3754423	Tried to call but couldn't reach you.	Tried to call but couldn't reach you.	178392447	1476800276087	1476800276203	 	32
348286	3754423	Tried to call but couldn't reach you.	Tried to call but couldn't reach you.	178392448	1476800276549	1476800276721	c	67
348286	3754423	Tried to call but couldn't reach you.	Tried to call but couldn't reach you.	178392449	1476800276657	1476800276877	o	79
348286	3754423	Tried to call but couldn't reach you.	Tried to call but couldn't reach you.	178392505	1476800276773	1476800276889	u	85
348286	3754423	Tried to call but couldn't reach you.	Tried to call but couldn't reach you.	178392506	1476800276965	1476800277112	l	76
348286	3754423	Tried to call but couldn't reach you.	Tried to call but couldn't reach you.	178392508	1476800277145	1476800277317	d	68
348286	3754423	Tried to call but couldn't reach you.	Tried to call but couldn't reach you.	178392510	1476800277257	1476800277369	n	78
348286	3754423	Tried to call but couldn't reach you.	Tried to call but couldn't reach you.	178392512	1476800277800	1476800277880	'	222
348286	3754423	Tried to call but couldn't reach you.	Tried to call but couldn't reach you.	178392513	1476800277929	1476800278044	t	84
348286	3754423	Tried to call but couldn't reach you.	Tried to call but couldn't reach you.	178392567	1476800278018	1476800278125	 	32
348286	3754423	Tried to call but couldn't reach you.	Tried to call but couldn't reach you.	178392573	1476800278663	1476800278842	r	82
348286	3754423	Tried to call but couldn't reach you.	Tried to call but couldn't reach you.	178392581	1476800278759	1476800279020	e	69
348286	3754423	Tried to call but couldn't reach you.	Tried to call but couldn't reach you.	178392588	1476800279038	1476800279382	a	65
348286	3754423	Tried to call but couldn't reach you.	Tried to call but couldn't reach you.	178392594	1476800279314	1476800279510	c	67
348286	3754423	Tried to call but couldn't reach you.	Tried to call but couldn't reach you.	178392720	1476800279450	1476800279546	h	72
348286	3754423	Tried to call but couldn't reach you.	Tried to call but couldn't reach you.	178392723	1476800279579	1476800279715	 	32
348286	3754423	Tried to call but couldn't reach you.	Tried to call but couldn't reach you.	178392726	1476800280361	1476800280452	y	89
348286	3754423	Tried to call but couldn't reach you.	Tried to call but couldn't reach you.	178392730	1476800280433	1476800280616	o	79
348286	3754423	Tried to call but couldn't reach you.	Tried to call but couldn't reach you.	178392733	1476800280527	1476800280677	u	85
348286	3754436	Good to know it exists.	Good to know it exists.	178392831	1476800284079	1476800284434	SHIFT	16
348286	3754436	Good to know it exists.	Good to know it exists.	178392839	1476800284371	1476800284459	G	71
348286	3754436	Good to know it exists.	Good to know it exists.	178392844	1476800284591	1476800284667	o	79
348286	3754436	Good to know it exists.	Good to know it exists.	178392850	1476800284727	1476800284827	o	79
348286	3754436	Good to know it exists.	Good to know it exists.	178392857	1476800284843	1476800284962	d	68
348286	3754436	Good to know it exists.	Good to know it exists.	178392907	1476800284919	1476800285063	 	32
348286	3754436	Good to know it exists.	Good to know it exists.	178392910	1476800285484	1476800285599	t	84
348286	3754436	Good to know it exists.	Good to know it exists.	178392911	1476800285596	1476800285696	o	79
348286	3754436	Good to know it exists.	Good to know it exists.	178392914	1476800285775	1476800285903	 	32
348286	3754436	Good to know it exists.	Good to know it exists.	178392917	1476800286000	1476800286264	k	75
348286	3754436	Good to know it exists.	Good to know it exists.	178392965	1476800286112	1476800286416	n	78
348286	3754436	Good to know it exists.	Good to know it exists.	178392969	1476800286380	1476800286548	o	79
348286	3754436	Good to know it exists.	Good to know it exists.	178392973	1476800286611	1476800286777	w	87
348286	3754436	Good to know it exists.	Good to know it exists.	178392976	1476800286778	1476800286906	 	32
348286	3754436	Good to know it exists.	Good to know it exists.	178392980	1476800287255	1476800287374	i	73
348286	3754436	Good to know it exists.	Good to know it exists.	178392984	1476800287477	1476800287617	t	84
348286	3754436	Good to know it exists.	Good to know it exists.	178393025	1476800287593	1476800287701	 	32
348286	3754436	Good to know it exists.	Good to know it exists.	178393026	1476800287853	1476800288009	e	69
348286	3754436	Good to know it exists.	Good to know it exists.	178393027	1476800288243	1476800288403	x	88
348286	3754436	Good to know it exists.	Good to know it exists.	178393028	1476800288407	1476800288499	i	73
348286	3754436	Good to know it exists.	Good to know it exists.	178393029	1476800288643	1476800288815	s	83
348286	3754436	Good to know it exists.	Good to know it exists.	178393030	1476800288843	1476800288923	t	84
348286	3754436	Good to know it exists.	Good to know it exists.	178393060	1476800289060	1476800289228	s	83
