PARTICIPANT_ID	TEST_SECTION_ID	SENTENCE	USER_INPUT	KEYSTROKE_ID	PRESS_TIME	RELEASE_TIME	LETTER	KEYCODE
34905	376967	There are some different rules here.	There are some different rules here.	17919056	1472380340211	1472380343940	SHIFT	16
34905	376967	There are some different rules here.	There are some different rules here.	17919057	1472380343877	1472380344024	T	84
34905	376967	There are some different rules here.	There are some different rules here.	17919058	1472380343972	1472380344092	h	72
34905	376967	There are some different rules here.	There are some different rules here.	17919059	1472380344061	1472380344200	e	69
34905	376967	There are some different rules here.	There are some different rules here.	17919060	1472380344185	1472380344341	r	82
34905	376967	There are some different rules here.	There are some different rules here.	17919063	1472380344285	1472380344457	e	69
34905	376967	There are some different rules here.	There are some different rules here.	17919064	1472380344477	1472380344613	 	32
34905	376967	There are some different rules here.	There are some different rules here.	17919065	1472380344609	1472380344756	a	65
34905	376967	There are some different rules here.	There are some different rules here.	17919076	1472380344697	1472380344866	r	82
34905	376967	There are some different rules here.	There are some different rules here.	17919066	1472380344797	1472380344864	e	69
34905	376967	There are some different rules here.	There are some different rules here.	17919077	1472380344849	1472380344965	 	32
34905	376967	There are some different rules here.	There are some different rules here.	17919078	1472380345026	1472380345145	s	83
34905	376967	There are some different rules here.	There are some different rules here.	17919079	1472380345114	1472380345249	o	79
34905	376967	There are some different rules here.	There are some different rules here.	17919081	1472380345190	1472380345301	m	77
34905	376967	There are some different rules here.	There are some different rules here.	17919083	1472380345270	1472380345417	e	69
34905	376967	There are some different rules here.	There are some different rules here.	17919085	1472380345586	1472380345707	 	32
34905	376967	There are some different rules here.	There are some different rules here.	17919093	1472380345785	1472380345916	d	68
34905	376967	There are some different rules here.	There are some different rules here.	17919094	1472380345905	1472380346014	i	73
34905	376967	There are some different rules here.	There are some different rules here.	17919095	1472380346231	1472380346303	f	70
34905	376967	There are some different rules here.	There are some different rules here.	17919096	1472380346387	1472380346462	f	70
34905	376967	There are some different rules here.	There are some different rules here.	17919097	1472380346575	1472380346734	e	69
34905	376967	There are some different rules here.	There are some different rules here.	17919098	1472380346863	1472380347027	r	82
34905	376967	There are some different rules here.	There are some different rules here.	17919099	1472380347054	1472380347201	e	69
34905	376967	There are some different rules here.	There are some different rules here.	17919100	1472380347174	1472380347293	n	78
34905	376967	There are some different rules here.	There are some different rules here.	17919101	1472380347306	1472380347441	c	67
34905	376967	There are some different rules here.	There are some different rules here.	17919126	1472380347362	1472380347486	e	69
34905	376967	There are some different rules here.	There are some different rules here.	17919127	1472380347544	1472380347699	 	32
34905	376967	There are some different rules here.	There are some different rules here.	17919128	1472380348176	1472380348311	r	82
34905	376967	There are some different rules here.	There are some different rules here.	17919129	1472380348280	1472380348380	u	85
34905	376967	There are some different rules here.	There are some different rules here.	17919130	1472380348464	1472380348568	l	76
34905	376967	There are some different rules here.	There are some different rules here.	17919131	1472380348621	1472380348784	e	69
34905	376967	There are some different rules here.	There are some different rules here.	17919199	1472380349670	1472380350541	BKSP	8
34905	376967	There are some different rules here.	There are some different rules here.	17919201	1472380350791	1472380350902	BKSP	8
34905	376967	There are some different rules here.	There are some different rules here.	17919203	1472380351527	1472380351694	t	84
34905	376967	There are some different rules here.	There are some different rules here.	17919204	1472380351848	1472380351955	 	32
34905	376967	There are some different rules here.	There are some different rules here.	17919206	1472380352023	1472380352202	r	82
34905	376967	There are some different rules here.	There are some different rules here.	17919208	1472380352143	1472380352230	e	69
34905	376967	There are some different rules here.	There are some different rules here.	17919210	1472380352668	1472380352775	BKSP	8
34905	376967	There are some different rules here.	There are some different rules here.	17919213	1472380352915	1472380353022	u	85
34905	376967	There are some different rules here.	There are some different rules here.	17919221	1472380353107	1472380353222	l	76
34905	376967	There are some different rules here.	There are some different rules here.	17919223	1472380353288	1472380353520	e	69
34905	376967	There are some different rules here.	There are some different rules here.	17919225	1472380353412	1472380353563	s	83
34905	376967	There are some different rules here.	There are some different rules here.	17919227	1472380353635	1472380353750	 	32
34905	376967	There are some different rules here.	There are some different rules here.	17919229	1472380353857	1472380353988	h	72
34905	376967	There are some different rules here.	There are some different rules here.	17919244	1472380353941	1472380354072	e	69
34905	376967	There are some different rules here.	There are some different rules here.	17919245	1472380354029	1472380354180	r	82
34905	376967	There are some different rules here.	There are some different rules here.	17919246	1472380354121	1472380354264	e	69
34905	376967	There are some different rules here.	There are some different rules here.	17919247	1472380354406	1472380354549	.	190
34905	376974	This is not a good situation to be in without a contract.	This is not a good situation to be in without a contract.	17919283	1472380358273	1472380358757	SHIFT	16
34905	376974	This is not a good situation to be in without a contract.	This is not a good situation to be in without a contract.	17919284	1472380358597	1472380358805	T	84
34905	376974	This is not a good situation to be in without a contract.	This is not a good situation to be in without a contract.	17919285	1472380358786	1472380358897	h	72
34905	376974	This is not a good situation to be in without a contract.	This is not a good situation to be in without a contract.	17919286	1472380359200	1472380359288	i	73
34905	376974	This is not a good situation to be in without a contract.	This is not a good situation to be in without a contract.	17919287	1472380359346	1472380359454	s	83
34905	376974	This is not a good situation to be in without a contract.	This is not a good situation to be in without a contract.	17919288	1472380359470	1472380359558	 	32
34905	376974	This is not a good situation to be in without a contract.	This is not a good situation to be in without a contract.	17919311	1472380359624	1472380359715	i	73
34905	376974	This is not a good situation to be in without a contract.	This is not a good situation to be in without a contract.	17919314	1472380359779	1472380359894	s	83
34905	376974	This is not a good situation to be in without a contract.	This is not a good situation to be in without a contract.	17919318	1472380359895	1472380360046	 	32
34905	376974	This is not a good situation to be in without a contract.	This is not a good situation to be in without a contract.	17919320	1472380360086	1472380360234	n	78
34905	376974	This is not a good situation to be in without a contract.	This is not a good situation to be in without a contract.	17919350	1472380360178	1472380360286	o	79
34905	376974	This is not a good situation to be in without a contract.	This is not a good situation to be in without a contract.	17919351	1472380360324	1472380360476	 	32
34905	376974	This is not a good situation to be in without a contract.	This is not a good situation to be in without a contract.	17919352	1472380360583	1472380360706	 	32
34905	376974	This is not a good situation to be in without a contract.	This is not a good situation to be in without a contract.	17919353	1472380361037	1472380361153	BKSP	8
34905	376974	This is not a good situation to be in without a contract.	This is not a good situation to be in without a contract.	17919354	1472380361239	1472380361335	a	65
34905	376974	This is not a good situation to be in without a contract.	This is not a good situation to be in without a contract.	17919355	1472380361485	1472380361561	BKSP	8
34905	376974	This is not a good situation to be in without a contract.	This is not a good situation to be in without a contract.	17919356	1472380361635	1472380361711	BKSP	8
34905	376974	This is not a good situation to be in without a contract.	This is not a good situation to be in without a contract.	17919357	1472380361925	1472380362053	t	84
34905	376974	This is not a good situation to be in without a contract.	This is not a good situation to be in without a contract.	17919370	1472380362045	1472380362125	 	32
34905	376974	This is not a good situation to be in without a contract.	This is not a good situation to be in without a contract.	17919372	1472380362190	1472380362302	a	65
34905	376974	This is not a good situation to be in without a contract.	This is not a good situation to be in without a contract.	17919376	1472380362330	1472380362430	 	32
34905	376974	This is not a good situation to be in without a contract.	This is not a good situation to be in without a contract.	17919378	1472380362484	1472380362624	g	71
34905	376974	This is not a good situation to be in without a contract.	This is not a good situation to be in without a contract.	17919379	1472380362628	1472380362676	o	79
34905	376974	This is not a good situation to be in without a contract.	This is not a good situation to be in without a contract.	17919380	1472380362771	1472380362835	o	79
34905	376974	This is not a good situation to be in without a contract.	This is not a good situation to be in without a contract.	17919386	1472380363053	1472380363201	d	68
34905	376974	This is not a good situation to be in without a contract.	This is not a good situation to be in without a contract.	17919387	1472380363173	1472380363284	 	32
34905	376974	This is not a good situation to be in without a contract.	This is not a good situation to be in without a contract.	17919388	1472380363464	1472380363535	s	83
34905	376974	This is not a good situation to be in without a contract.	This is not a good situation to be in without a contract.	17919389	1472380363724	1472380363852	t	84
34905	376974	This is not a good situation to be in without a contract.	This is not a good situation to be in without a contract.	17919390	1472380363895	1472380364012	i	73
34905	376974	This is not a good situation to be in without a contract.	This is not a good situation to be in without a contract.	17919414	1472380364313	1472380364393	BKSP	8
34905	376974	This is not a good situation to be in without a contract.	This is not a good situation to be in without a contract.	17919416	1472380364469	1472380364569	BKSP	8
34905	376974	This is not a good situation to be in without a contract.	This is not a good situation to be in without a contract.	17919417	1472380364723	1472380364843	i	73
34905	376974	This is not a good situation to be in without a contract.	This is not a good situation to be in without a contract.	17919419	1472380364907	1472380365031	t	84
34905	376974	This is not a good situation to be in without a contract.	This is not a good situation to be in without a contract.	17919420	1472380365129	1472380365273	u	85
34905	376974	This is not a good situation to be in without a contract.	This is not a good situation to be in without a contract.	17919421	1472380365342	1472380365442	a	65
34905	376974	This is not a good situation to be in without a contract.	This is not a good situation to be in without a contract.	17919422	1472380365509	1472380365644	t	84
34905	376974	This is not a good situation to be in without a contract.	This is not a good situation to be in without a contract.	17919424	1472380365613	1472380365861	i	73
34905	376974	This is not a good situation to be in without a contract.	This is not a good situation to be in without a contract.	17919423	1472380365725	1472380365845	o	79
34905	376974	This is not a good situation to be in without a contract.	This is not a good situation to be in without a contract.	17919425	1472380365761	1472380365901	n	78
34905	376974	This is not a good situation to be in without a contract.	This is not a good situation to be in without a contract.	17919426	1472380365926	1472380366046	 	32
34905	376974	This is not a good situation to be in without a contract.	This is not a good situation to be in without a contract.	17919427	1472380366119	1472380366255	t	84
34905	376974	This is not a good situation to be in without a contract.	This is not a good situation to be in without a contract.	17919458	1472380366203	1472380366367	o	79
34905	376974	This is not a good situation to be in without a contract.	This is not a good situation to be in without a contract.	17919459	1472380366311	1472380366431	 	32
34905	376974	This is not a good situation to be in without a contract.	This is not a good situation to be in without a contract.	17919460	1472380366525	1472380366629	b	66
34905	376974	This is not a good situation to be in without a contract.	This is not a good situation to be in without a contract.	17919461	1472380366796	1472380366904	e	69
34905	376974	This is not a good situation to be in without a contract.	This is not a good situation to be in without a contract.	17919462	1472380367051	1472380367175	 	32
34905	376974	This is not a good situation to be in without a contract.	This is not a good situation to be in without a contract.	17919463	1472380368448	1472380368608	i	73
34905	376974	This is not a good situation to be in without a contract.	This is not a good situation to be in without a contract.	17919481	1472380368552	1472380368692	n	78
34905	376974	This is not a good situation to be in without a contract.	This is not a good situation to be in without a contract.	17919483	1472380368755	1472380368854	 	32
34905	376974	This is not a good situation to be in without a contract.	This is not a good situation to be in without a contract.	17919486	1472380368944	1472380369076	w	87
34905	376974	This is not a good situation to be in without a contract.	This is not a good situation to be in without a contract.	17919490	1472380369072	1472380369185	i	73
34905	376974	This is not a good situation to be in without a contract.	This is not a good situation to be in without a contract.	17919494	1472380369228	1472380369367	t	84
34905	376974	This is not a good situation to be in without a contract.	This is not a good situation to be in without a contract.	17919505	1472380369315	1472380369452	h	72
34905	376974	This is not a good situation to be in without a contract.	This is not a good situation to be in without a contract.	17919506	1472380369452	1472380369615	o	79
34905	376974	This is not a good situation to be in without a contract.	This is not a good situation to be in without a contract.	17919507	1472380369511	1472380369623	u	85
34905	376974	This is not a good situation to be in without a contract.	This is not a good situation to be in without a contract.	17919508	1472380369781	1472380369941	t	84
34905	376974	This is not a good situation to be in without a contract.	This is not a good situation to be in without a contract.	17919509	1472380369997	1472380370125	 	32
34905	376974	This is not a good situation to be in without a contract.	This is not a good situation to be in without a contract.	17919510	1472380370146	1472380370286	a	65
34905	376974	This is not a good situation to be in without a contract.	This is not a good situation to be in without a contract.	17919530	1472380370262	1472380370370	 	32
34905	376974	This is not a good situation to be in without a contract.	This is not a good situation to be in without a contract.	17919531	1472380370518	1472380370634	c	67
34905	376974	This is not a good situation to be in without a contract.	This is not a good situation to be in without a contract.	17919532	1472380370630	1472380370722	o	79
34905	376974	This is not a good situation to be in without a contract.	This is not a good situation to be in without a contract.	17919533	1472380370821	1472380370949	n	78
34905	376974	This is not a good situation to be in without a contract.	This is not a good situation to be in without a contract.	17919534	1472380371118	1472380371270	t	84
34905	376974	This is not a good situation to be in without a contract.	This is not a good situation to be in without a contract.	17919535	1472380371297	1472380371417	r	82
34905	376974	This is not a good situation to be in without a contract.	This is not a good situation to be in without a contract.	17919571	1472380371634	1472380371778	a	65
34905	376974	This is not a good situation to be in without a contract.	This is not a good situation to be in without a contract.	17919574	1472380371852	1472380371956	c	67
34905	376974	This is not a good situation to be in without a contract.	This is not a good situation to be in without a contract.	17919577	1472380372075	1472380372215	t	84
34905	376974	This is not a good situation to be in without a contract.	This is not a good situation to be in without a contract.	17919578	1472380373354	1472380373442	.	190
34905	376981	She probably won't come next year either.	She probably won't come next year either.	17919622	1472380376155	1472380376359	SHIFT	16
34905	376981	She probably won't come next year either.	She probably won't come next year either.	17919624	1472380376275	1472380376399	S	83
34905	376981	She probably won't come next year either.	She probably won't come next year either.	17919625	1472380376407	1472380376555	h	72
34905	376981	She probably won't come next year either.	She probably won't come next year either.	17919626	1472380376515	1472380376630	e	69
34905	376981	She probably won't come next year either.	She probably won't come next year either.	17919627	1472380376631	1472380376735	 	32
34905	376981	She probably won't come next year either.	She probably won't come next year either.	17919628	1472380376787	1472380376891	p	80
34905	376981	She probably won't come next year either.	She probably won't come next year either.	17919629	1472380376919	1472380377043	r	82
34905	376981	She probably won't come next year either.	She probably won't come next year either.	17919630	1472380377369	1472380377505	o	79
34905	376981	She probably won't come next year either.	She probably won't come next year either.	17919631	1472380377595	1472380377699	b	66
34905	376981	She probably won't come next year either.	She probably won't come next year either.	17919632	1472380377783	1472380377878	a	65
34905	376981	She probably won't come next year either.	She probably won't come next year either.	17919638	1472380377831	1472380377967	b	66
34905	376981	She probably won't come next year either.	She probably won't come next year either.	17919639	1472380377927	1472380378055	l	76
34905	376981	She probably won't come next year either.	She probably won't come next year either.	17919641	1472380378084	1472380378220	y	89
34905	376981	She probably won't come next year either.	She probably won't come next year either.	17919643	1472380378184	1472380378280	 	32
34905	376981	She probably won't come next year either.	She probably won't come next year either.	17919645	1472380378360	1472380378492	w	87
34905	376981	She probably won't come next year either.	She probably won't come next year either.	17919651	1472380378408	1472380378552	o	79
34905	376981	She probably won't come next year either.	She probably won't come next year either.	17919653	1472380378508	1472380378576	n	78
34905	376981	She probably won't come next year either.	She probably won't come next year either.	17919656	1472380378672	1472380378776	'	222
34905	376981	She probably won't come next year either.	She probably won't come next year either.	17919659	1472380378844	1472380378968	t	84
34905	376981	She probably won't come next year either.	She probably won't come next year either.	17919662	1472380378924	1472380379044	 	32
34905	376981	She probably won't come next year either.	She probably won't come next year either.	17919663	1472380379124	1472380379244	c	67
34905	376981	She probably won't come next year either.	She probably won't come next year either.	17919665	1472380379224	1472380379348	o	79
34905	376981	She probably won't come next year either.	She probably won't come next year either.	17919667	1472380379288	1472380379396	m	77
34905	376981	She probably won't come next year either.	She probably won't come next year either.	17919670	1472380379413	1472380379521	e	69
34905	376981	She probably won't come next year either.	She probably won't come next year either.	17919673	1472380379508	1472380379596	 	32
34905	376981	She probably won't come next year either.	She probably won't come next year either.	17919676	1472380379646	1472380379753	n	78
34905	376981	She probably won't come next year either.	She probably won't come next year either.	17919685	1472380379670	1472380379830	e	69
34905	376981	She probably won't come next year either.	She probably won't come next year either.	17919687	1472380379873	1472380380022	x	88
34905	376981	She probably won't come next year either.	She probably won't come next year either.	17919688	1472380379953	1472380380081	t	84
34905	376981	She probably won't come next year either.	She probably won't come next year either.	17919689	1472380380104	1472380380216	 	32
34905	376981	She probably won't come next year either.	She probably won't come next year either.	17919690	1472380380311	1472380380435	y	89
34905	376981	She probably won't come next year either.	She probably won't come next year either.	17919693	1472380380439	1472380380651	e	69
34905	376981	She probably won't come next year either.	She probably won't come next year either.	17919691	1472380380507	1472380380638	a	65
34905	376981	She probably won't come next year either.	She probably won't come next year either.	17919695	1472380380571	1472380380763	r	82
34905	376981	She probably won't come next year either.	She probably won't come next year either.	17919697	1472380380792	1472380380907	 	32
34905	376981	She probably won't come next year either.	She probably won't come next year either.	17919699	1472380381098	1472380381230	e	69
34905	376981	She probably won't come next year either.	She probably won't come next year either.	17919701	1472380381234	1472380381342	i	73
34905	376981	She probably won't come next year either.	She probably won't come next year either.	17919703	1472380381367	1472380381482	t	84
34905	376981	She probably won't come next year either.	She probably won't come next year either.	17919712	1472380381451	1472380381578	h	72
34905	376981	She probably won't come next year either.	She probably won't come next year either.	17919713	1472380381567	1472380381699	e	69
34905	376981	She probably won't come next year either.	She probably won't come next year either.	17919714	1472380381643	1472380381778	r	82
34905	376981	She probably won't come next year either.	She probably won't come next year either.	17919716	1472380382305	1472380382353	.	190
34905	376984	The film will be shown for the first time.	The film will be shown for the first time.	17919779	1472380384997	1472380385284	SHIFT	16
34905	376984	The film will be shown for the first time.	The film will be shown for the first time.	17919781	1472380385193	1472380385336	T	84
34905	376984	The film will be shown for the first time.	The film will be shown for the first time.	17919783	1472380385329	1472380385468	h	72
34905	376984	The film will be shown for the first time.	The film will be shown for the first time.	17919785	1472380385492	1472380385615	e	69
34905	376984	The film will be shown for the first time.	The film will be shown for the first time.	17919786	1472380385616	1472380385748	 	32
34905	376984	The film will be shown for the first time.	The film will be shown for the first time.	17919787	1472380385770	1472380385889	f	70
34905	376984	The film will be shown for the first time.	The film will be shown for the first time.	17919793	1472380385891	1472380385993	i	73
34905	376984	The film will be shown for the first time.	The film will be shown for the first time.	17919794	1472380386171	1472380386286	l	76
34905	376984	The film will be shown for the first time.	The film will be shown for the first time.	17919795	1472380386615	1472380386758	m	77
34905	376984	The film will be shown for the first time.	The film will be shown for the first time.	17919796	1472380386846	1472380386953	 	32
34905	376984	The film will be shown for the first time.	The film will be shown for the first time.	17919797	1472380387039	1472380387174	w	87
34905	376984	The film will be shown for the first time.	The film will be shown for the first time.	17919815	1472380387139	1472380387238	i	73
34905	376984	The film will be shown for the first time.	The film will be shown for the first time.	17919816	1472380387320	1472380387399	l	76
34905	376984	The film will be shown for the first time.	The film will be shown for the first time.	17919817	1472380387459	1472380387562	l	76
34905	376984	The film will be shown for the first time.	The film will be shown for the first time.	17919818	1472380387605	1472380387724	 	32
34905	376984	The film will be shown for the first time.	The film will be shown for the first time.	17919820	1472380387681	1472380387816	b	66
34905	376984	The film will be shown for the first time.	The film will be shown for the first time.	17919822	1472380387855	1472380387978	e	69
34905	376984	The film will be shown for the first time.	The film will be shown for the first time.	17919834	1472380387907	1472380388006	 	32
34905	376984	The film will be shown for the first time.	The film will be shown for the first time.	17919835	1472380388090	1472380388222	s	83
34905	376984	The film will be shown for the first time.	The film will be shown for the first time.	17919836	1472380388186	1472380388345	h	72
34905	376984	The film will be shown for the first time.	The film will be shown for the first time.	17919837	1472380388294	1472380388389	o	79
34905	376984	The film will be shown for the first time.	The film will be shown for the first time.	17919838	1472380388457	1472380388596	w	87
34905	376984	The film will be shown for the first time.	The film will be shown for the first time.	17919839	1472380388649	1472380388784	n	78
34905	376984	The film will be shown for the first time.	The film will be shown for the first time.	17919851	1472380388887	1472380389013	 	32
34905	376984	The film will be shown for the first time.	The film will be shown for the first time.	17919853	1472380389096	1472380389209	f	70
34905	376984	The film will be shown for the first time.	The film will be shown for the first time.	17919855	1472380389196	1472380389283	o	79
34905	376984	The film will be shown for the first time.	The film will be shown for the first time.	17919857	1472380389284	1472380389391	r	82
34905	376984	The film will be shown for the first time.	The film will be shown for the first time.	17919859	1472380389418	1472380389529	 	32
34905	376984	The film will be shown for the first time.	The film will be shown for the first time.	17919870	1472380389514	1472380389637	t	84
34905	376984	The film will be shown for the first time.	The film will be shown for the first time.	17919872	1472380389630	1472380389733	h	72
34905	376984	The film will be shown for the first time.	The film will be shown for the first time.	17919875	1472380389750	1472380389877	e	69
34905	376984	The film will be shown for the first time.	The film will be shown for the first time.	17919879	1472380389894	1472380389997	 	32
34905	376984	The film will be shown for the first time.	The film will be shown for the first time.	17919882	1472380390042	1472380390173	f	70
34905	376984	The film will be shown for the first time.	The film will be shown for the first time.	17919883	1472380390342	1472380390417	r	82
34905	376984	The film will be shown for the first time.	The film will be shown for the first time.	17919894	1472380390669	1472380390756	BKSP	8
34905	376984	The film will be shown for the first time.	The film will be shown for the first time.	17919895	1472380390903	1472380391006	i	73
34905	376984	The film will be shown for the first time.	The film will be shown for the first time.	17919896	1472380391253	1472380391388	r	82
34905	376984	The film will be shown for the first time.	The film will be shown for the first time.	17919897	1472380391494	1472380391661	s	83
34905	376984	The film will be shown for the first time.	The film will be shown for the first time.	17919899	1472380391622	1472380391777	t	84
34905	376984	The film will be shown for the first time.	The film will be shown for the first time.	17919922	1472380391718	1472380391833	 	32
34905	376984	The film will be shown for the first time.	The film will be shown for the first time.	17919924	1472380391865	1472380391972	t	84
34905	376984	The film will be shown for the first time.	The film will be shown for the first time.	17919926	1472380391961	1472380392124	i	73
34905	376984	The film will be shown for the first time.	The film will be shown for the first time.	17919931	1472380392041	1472380392164	m	77
34905	376984	The film will be shown for the first time.	The film will be shown for the first time.	17919935	1472380392133	1472380392257	e	69
34905	376984	The film will be shown for the first time.	The film will be shown for the first time.	17919940	1472380392727	1472380392838	.	190
34905	376986	He is listed as probable for this week's game.	He is listed as probable for this week's game	17919992	1472380394132	1472380394507	SHIFT	16
34905	376986	He is listed as probable for this week's game.	He is listed as probable for this week's game	17919996	1472380394895	1472380395535	SHIFT	16
34905	376986	He is listed as probable for this week's game.	He is listed as probable for this week's game	17919994	1472380395404	1472380395523	H	72
34905	376986	He is listed as probable for this week's game.	He is listed as probable for this week's game	17919999	1472380395576	1472380395663	e	69
34905	376986	He is listed as probable for this week's game.	He is listed as probable for this week's game	17920002	1472380395667	1472380395771	 	32
34905	376986	He is listed as probable for this week's game.	He is listed as probable for this week's game	17920005	1472380395827	1472380395911	i	73
34905	376986	He is listed as probable for this week's game.	He is listed as probable for this week's game	17920008	1472380396001	1472380396096	s	83
34905	376986	He is listed as probable for this week's game.	He is listed as probable for this week's game	17920035	1472380396049	1472380396172	 	32
34905	376986	He is listed as probable for this week's game.	He is listed as probable for this week's game	17920037	1472380396230	1472380396453	l	76
34905	376986	He is listed as probable for this week's game.	He is listed as probable for this week's game	17920040	1472380396365	1472380396489	i	73
34905	376986	He is listed as probable for this week's game.	He is listed as probable for this week's game	17920043	1472380396531	1472380396694	t	84
34905	376986	He is listed as probable for this week's game.	He is listed as probable for this week's game	17920047	1472380397260	1472380397355	BKSP	8
34905	376986	He is listed as probable for this week's game.	He is listed as probable for this week's game	17920049	1472380397407	1472380397550	s	83
34905	376986	He is listed as probable for this week's game.	He is listed as probable for this week's game	17920059	1472380397503	1472380397650	t	84
34905	376986	He is listed as probable for this week's game.	He is listed as probable for this week's game	17920060	1472380397732	1472380397912	e	69
34905	376986	He is listed as probable for this week's game.	He is listed as probable for this week's game	17920061	1472380397844	1472380397984	d	68
34905	376986	He is listed as probable for this week's game.	He is listed as probable for this week's game	17920063	1472380397997	1472380398120	 	32
34905	376986	He is listed as probable for this week's game.	He is listed as probable for this week's game	17920065	1472380398145	1472380398335	a	65
34905	376986	He is listed as probable for this week's game.	He is listed as probable for this week's game	17920079	1472380398248	1472380398395	s	83
34905	376986	He is listed as probable for this week's game.	He is listed as probable for this week's game	17920080	1472380398404	1472380398515	 	32
34905	376986	He is listed as probable for this week's game.	He is listed as probable for this week's game	17920082	1472380398559	1472380398667	p	80
34905	376986	He is listed as probable for this week's game.	He is listed as probable for this week's game	17920084	1472380398697	1472380398825	r	82
34905	376986	He is listed as probable for this week's game.	He is listed as probable for this week's game	17920085	1472380398809	1472380398841	o	79
34905	376986	He is listed as probable for this week's game.	He is listed as probable for this week's game	17920087	1472380399172	1472380399260	b	66
34905	376986	He is listed as probable for this week's game.	He is listed as probable for this week's game	17920089	1472380399314	1472380399422	a	65
34905	376986	He is listed as probable for this week's game.	He is listed as probable for this week's game	17920090	1472380399386	1472380399520	b	66
34905	376986	He is listed as probable for this week's game.	He is listed as probable for this week's game	17920091	1472380399494	1472380399598	l	76
34905	376986	He is listed as probable for this week's game.	He is listed as probable for this week's game	17920092	1472380399651	1472380399771	y	89
34905	376986	He is listed as probable for this week's game.	He is listed as probable for this week's game	17920093	1472380399802	1472380399922	 	32
34905	376986	He is listed as probable for this week's game.	He is listed as probable for this week's game	17920109	1472380400205	1472380400285	BKSP	8
34905	376986	He is listed as probable for this week's game.	He is listed as probable for this week's game	17920111	1472380400344	1472380400424	BKSP	8
34905	376986	He is listed as probable for this week's game.	He is listed as probable for this week's game	17920113	1472380400641	1472380400757	e	69
34905	376986	He is listed as probable for this week's game.	He is listed as probable for this week's game	17920115	1472380400738	1472380400845	 	32
34905	376986	He is listed as probable for this week's game.	He is listed as probable for this week's game	17920117	1472380400958	1472380401066	f	70
34905	376986	He is listed as probable for this week's game.	He is listed as probable for this week's game	17920121	1472380401042	1472380401138	o	79
34905	376986	He is listed as probable for this week's game.	He is listed as probable for this week's game	17920123	1472380401179	1472380401251	r	82
34905	376986	He is listed as probable for this week's game.	He is listed as probable for this week's game	17920129	1472380401310	1472380401398	 	32
34905	376986	He is listed as probable for this week's game.	He is listed as probable for this week's game	17920130	1472380401490	1472380401610	t	84
34905	376986	He is listed as probable for this week's game.	He is listed as probable for this week's game	17920132	1472380401566	1472380401702	h	72
34905	376986	He is listed as probable for this week's game.	He is listed as probable for this week's game	17920135	1472380401647	1472380401754	i	73
34905	376986	He is listed as probable for this week's game.	He is listed as probable for this week's game	17920138	1472380401770	1472380401894	s	83
34905	376986	He is listed as probable for this week's game.	He is listed as probable for this week's game	17920149	1472380401903	1472380402022	 	32
34905	376986	He is listed as probable for this week's game.	He is listed as probable for this week's game	17920150	1472380402219	1472380402347	w	87
34905	376986	He is listed as probable for this week's game.	He is listed as probable for this week's game	17920152	1472380402327	1472380402411	e	69
34905	376986	He is listed as probable for this week's game.	He is listed as probable for this week's game	17920154	1472380402472	1472380402572	e	69
34905	376986	He is listed as probable for this week's game.	He is listed as probable for this week's game	17920156	1472380402675	1472380402783	l	76
34905	376986	He is listed as probable for this week's game.	He is listed as probable for this week's game	17920180	1472380403116	1472380403236	BKSP	8
34905	376986	He is listed as probable for this week's game.	He is listed as probable for this week's game	17920181	1472380403590	1472380403706	k	75
34905	376986	He is listed as probable for this week's game.	He is listed as probable for this week's game	17920182	1472380403882	1472380404058	'	222
34905	376986	He is listed as probable for this week's game.	He is listed as probable for this week's game	17920183	1472380404332	1472380404464	s	83
34905	376986	He is listed as probable for this week's game.	He is listed as probable for this week's game	17920184	1472380404519	1472380404655	 	32
34905	376986	He is listed as probable for this week's game.	He is listed as probable for this week's game	17920185	1472380404731	1472380404868	g	71
34905	376986	He is listed as probable for this week's game.	He is listed as probable for this week's game	17920186	1472380404859	1472380405011	a	65
34905	376986	He is listed as probable for this week's game.	He is listed as probable for this week's game	17920188	1472380404927	1472380405039	m	77
34905	376986	He is listed as probable for this week's game.	He is listed as probable for this week's game	17920190	1472380405055	1472380405207	e	69
34905	376990	More jobs are to be eliminated this financial year.	More jobs are to be eliminated this financial year.	17920237	1472380407799	1472380408579	SHIFT	16
34905	376990	More jobs are to be eliminated this financial year.	More jobs are to be eliminated this financial year.	17920235	1472380408455	1472380408575	M	77
34905	376990	More jobs are to be eliminated this financial year.	More jobs are to be eliminated this financial year.	17920239	1472380408650	1472380408718	o	79
34905	376990	More jobs are to be eliminated this financial year.	More jobs are to be eliminated this financial year.	17920240	1472380408839	1472380408979	r	82
34905	376990	More jobs are to be eliminated this financial year.	More jobs are to be eliminated this financial year.	17920241	1472380408915	1472380409059	e	69
34905	376990	More jobs are to be eliminated this financial year.	More jobs are to be eliminated this financial year.	17920242	1472380409085	1472380409216	 	32
34905	376990	More jobs are to be eliminated this financial year.	More jobs are to be eliminated this financial year.	17920261	1472380409360	1472380409488	j	74
34905	376990	More jobs are to be eliminated this financial year.	More jobs are to be eliminated this financial year.	17920266	1472380410072	1472380410152	o	79
34905	376990	More jobs are to be eliminated this financial year.	More jobs are to be eliminated this financial year.	17920270	1472380410287	1472380410431	b	66
34905	376990	More jobs are to be eliminated this financial year.	More jobs are to be eliminated this financial year.	17920272	1472380410423	1472380410579	s	83
34905	376990	More jobs are to be eliminated this financial year.	More jobs are to be eliminated this financial year.	17920273	1472380410644	1472380410772	 	32
34905	376990	More jobs are to be eliminated this financial year.	More jobs are to be eliminated this financial year.	17920274	1472380410911	1472380411155	a	65
34905	376990	More jobs are to be eliminated this financial year.	More jobs are to be eliminated this financial year.	17920276	1472380411099	1472380411259	r	82
34905	376990	More jobs are to be eliminated this financial year.	More jobs are to be eliminated this financial year.	17920277	1472380411155	1472380411319	e	69
34905	376990	More jobs are to be eliminated this financial year.	More jobs are to be eliminated this financial year.	17920278	1472380411291	1472380411411	 	32
34905	376990	More jobs are to be eliminated this financial year.	More jobs are to be eliminated this financial year.	17920279	1472380411427	1472380411551	t	84
34905	376990	More jobs are to be eliminated this financial year.	More jobs are to be eliminated this financial year.	17920280	1472380411559	1472380411743	o	79
34905	376990	More jobs are to be eliminated this financial year.	More jobs are to be eliminated this financial year.	17920282	1472380411643	1472380411763	 	32
34905	376990	More jobs are to be eliminated this financial year.	More jobs are to be eliminated this financial year.	17920284	1472380411838	1472380411974	b	66
34905	376990	More jobs are to be eliminated this financial year.	More jobs are to be eliminated this financial year.	17920286	1472380411966	1472380412082	e	69
34905	376990	More jobs are to be eliminated this financial year.	More jobs are to be eliminated this financial year.	17920289	1472380412094	1472380412194	 	32
34905	376990	More jobs are to be eliminated this financial year.	More jobs are to be eliminated this financial year.	17920307	1472380412414	1472380412530	e	69
34905	376990	More jobs are to be eliminated this financial year.	More jobs are to be eliminated this financial year.	17920309	1472380412558	1472380412682	l	76
34905	376990	More jobs are to be eliminated this financial year.	More jobs are to be eliminated this financial year.	17920311	1472380412978	1472380413106	i	73
34905	376990	More jobs are to be eliminated this financial year.	More jobs are to be eliminated this financial year.	17920313	1472380413242	1472380413362	m	77
34905	376990	More jobs are to be eliminated this financial year.	More jobs are to be eliminated this financial year.	17920315	1472380413459	1472380413554	i	73
34905	376990	More jobs are to be eliminated this financial year.	More jobs are to be eliminated this financial year.	17920338	1472380413567	1472380413723	n	78
34905	376990	More jobs are to be eliminated this financial year.	More jobs are to be eliminated this financial year.	17920339	1472380413801	1472380413889	a	65
34905	376990	More jobs are to be eliminated this financial year.	More jobs are to be eliminated this financial year.	17920340	1472380413915	1472380414091	t	84
34905	376990	More jobs are to be eliminated this financial year.	More jobs are to be eliminated this financial year.	17920341	1472380414027	1472380414192	e	69
34905	376990	More jobs are to be eliminated this financial year.	More jobs are to be eliminated this financial year.	17920342	1472380414334	1472380414462	d	68
34905	376990	More jobs are to be eliminated this financial year.	More jobs are to be eliminated this financial year.	17920343	1472380414482	1472380414610	 	32
34905	376990	More jobs are to be eliminated this financial year.	More jobs are to be eliminated this financial year.	17920344	1472380414661	1472380414800	t	84
34905	376990	More jobs are to be eliminated this financial year.	More jobs are to be eliminated this financial year.	17920345	1472380414733	1472380414853	h	72
34905	376990	More jobs are to be eliminated this financial year.	More jobs are to be eliminated this financial year.	17920347	1472380414785	1472380414881	i	73
34905	376990	More jobs are to be eliminated this financial year.	More jobs are to be eliminated this financial year.	17920349	1472380414958	1472380415074	s	83
34905	376990	More jobs are to be eliminated this financial year.	More jobs are to be eliminated this financial year.	17920364	1472380415106	1472380415198	 	32
34905	376990	More jobs are to be eliminated this financial year.	More jobs are to be eliminated this financial year.	17920366	1472380415257	1472380415392	f	70
34905	376990	More jobs are to be eliminated this financial year.	More jobs are to be eliminated this financial year.	17920369	1472380415337	1472380415464	i	73
34905	376990	More jobs are to be eliminated this financial year.	More jobs are to be eliminated this financial year.	17920372	1472380415421	1472380415541	n	78
34905	376990	More jobs are to be eliminated this financial year.	More jobs are to be eliminated this financial year.	17920375	1472380415644	1472380415768	a	65
34905	376990	More jobs are to be eliminated this financial year.	More jobs are to be eliminated this financial year.	17920393	1472380415805	1472380415913	n	78
34905	376990	More jobs are to be eliminated this financial year.	More jobs are to be eliminated this financial year.	17920395	1472380416168	1472380416284	c	67
34905	376990	More jobs are to be eliminated this financial year.	More jobs are to be eliminated this financial year.	17920398	1472380416292	1472380416392	i	73
34905	376990	More jobs are to be eliminated this financial year.	More jobs are to be eliminated this financial year.	17920401	1472380416454	1472380416558	a	65
34905	376990	More jobs are to be eliminated this financial year.	More jobs are to be eliminated this financial year.	17920404	1472380416618	1472380416758	l	76
34905	376990	More jobs are to be eliminated this financial year.	More jobs are to be eliminated this financial year.	17920406	1472380416824	1472380416936	 	32
34905	376990	More jobs are to be eliminated this financial year.	More jobs are to be eliminated this financial year.	17920407	1472380417084	1472380417236	y	89
34905	376990	More jobs are to be eliminated this financial year.	More jobs are to be eliminated this financial year.	17920430	1472380417244	1472380417439	e	69
34905	376990	More jobs are to be eliminated this financial year.	More jobs are to be eliminated this financial year.	17920409	1472380417352	1472380417424	a	65
34905	376990	More jobs are to be eliminated this financial year.	More jobs are to be eliminated this financial year.	17920432	1472380417384	1472380417540	r	82
34905	376990	More jobs are to be eliminated this financial year.	More jobs are to be eliminated this financial year.	17920434	1472380417563	1472380417707	.	190
34905	376995	It's not working very well.	It's not working very well.	17920511	1472380420476	1472380420711	SHIFT	16
34905	376995	It's not working very well.	It's not working very well.	17920513	1472380420648	1472380420759	I	73
34905	376995	It's not working very well.	It's not working very well.	17920515	1472380420764	1472380420900	t	84
34905	376995	It's not working very well.	It's not working very well.	17920517	1472380421226	1472380421365	'	222
34905	376995	It's not working very well.	It's not working very well.	17920519	1472380421411	1472380421522	s	83
34905	376995	It's not working very well.	It's not working very well.	17920526	1472380421511	1472380421639	 	32
34905	376995	It's not working very well.	It's not working very well.	17920527	1472380421694	1472380421837	n	78
34905	376995	It's not working very well.	It's not working very well.	17920528	1472380421790	1472380421914	o	79
34905	376995	It's not working very well.	It's not working very well.	17920529	1472380421968	1472380422111	t	84
34905	376995	It's not working very well.	It's not working very well.	17920530	1472380422088	1472380422191	 	32
34905	376995	It's not working very well.	It's not working very well.	17920531	1472380422221	1472380422360	w	87
34905	376995	It's not working very well.	It's not working very well.	17920544	1472380422341	1472380422437	o	79
34905	376995	It's not working very well.	It's not working very well.	17920546	1472380422421	1472380422552	r	82
34905	376995	It's not working very well.	It's not working very well.	17920548	1472380422565	1472380422649	k	75
34905	376995	It's not working very well.	It's not working very well.	17920550	1472380422775	1472380422910	i	73
34905	376995	It's not working very well.	It's not working very well.	17920553	1472380422859	1472380422962	n	78
34905	376995	It's not working very well.	It's not working very well.	17920555	1472380422981	1472380423100	g	71
34905	376995	It's not working very well.	It's not working very well.	17920579	1472380423088	1472380423204	 	32
34905	376995	It's not working very well.	It's not working very well.	17920581	1472380423278	1472380423418	v	86
34905	376995	It's not working very well.	It's not working very well.	17920583	1472380423464	1472380423631	e	69
34905	376995	It's not working very well.	It's not working very well.	17920584	1472380423576	1472380423719	r	82
34905	376995	It's not working very well.	It's not working very well.	17920585	1472380423660	1472380423791	y	89
34905	376995	It's not working very well.	It's not working very well.	17920586	1472380424043	1472380424162	 	32
34905	376995	It's not working very well.	It's not working very well.	17920606	1472380424236	1472380424379	w	87
34905	376995	It's not working very well.	It's not working very well.	17920607	1472380424308	1472380424435	e	69
34905	376995	It's not working very well.	It's not working very well.	17920608	1472380424440	1472380424515	l	76
34905	376995	It's not working very well.	It's not working very well.	17920609	1472380424607	1472380424666	l	76
34905	376995	It's not working very well.	It's not working very well.	17920610	1472380424760	1472380424895	.	190
34905	376999	I thought you were on 6.	I thought you were on 6.	17920653	1472380427047	1472380427267	SHIFT	16
34905	376999	I thought you were on 6.	I thought you were on 6.	17920656	1472380427180	1472380427331	I	73
34905	376999	I thought you were on 6.	I thought you were on 6.	17920660	1472380427284	1472380427399	 	32
34905	376999	I thought you were on 6.	I thought you were on 6.	17920664	1472380427599	1472380427723	t	84
34905	376999	I thought you were on 6.	I thought you were on 6.	17920668	1472380427692	1472380427835	h	72
34905	376999	I thought you were on 6.	I thought you were on 6.	17920681	1472380427804	1472380427939	o	79
34905	376999	I thought you were on 6.	I thought you were on 6.	17920682	1472380427848	1472380427957	u	85
34905	376999	I thought you were on 6.	I thought you were on 6.	17920683	1472380427956	1472380428063	g	71
34905	376999	I thought you were on 6.	I thought you were on 6.	17920684	1472380428081	1472380428188	h	72
34905	376999	I thought you were on 6.	I thought you were on 6.	17920685	1472380428177	1472380428320	t	84
34905	376999	I thought you were on 6.	I thought you were on 6.	17920687	1472380428376	1472380428483	 	32
34905	376999	I thought you were on 6.	I thought you were on 6.	17920710	1472380428858	1472380429021	y	89
34905	376999	I thought you were on 6.	I thought you were on 6.	17920712	1472380428934	1472380429065	o	79
34905	376999	I thought you were on 6.	I thought you were on 6.	17920714	1472380428998	1472380429129	u	85
34905	376999	I thought you were on 6.	I thought you were on 6.	17920716	1472380429441	1472380429544	 	32
34905	376999	I thought you were on 6.	I thought you were on 6.	17920718	1472380430080	1472380430227	w	87
34905	376999	I thought you were on 6.	I thought you were on 6.	17920727	1472380430244	1472380430355	e	69
34905	376999	I thought you were on 6.	I thought you were on 6.	17920728	1472380430340	1472380430483	r	82
34905	376999	I thought you were on 6.	I thought you were on 6.	17920729	1472380430424	1472380430559	e	69
34905	376999	I thought you were on 6.	I thought you were on 6.	17920730	1472380430602	1472380430709	 	32
34905	376999	I thought you were on 6.	I thought you were on 6.	17920732	1472380430799	1472380430934	o	79
34905	376999	I thought you were on 6.	I thought you were on 6.	17920756	1472380430891	1472380431014	n	78
34905	376999	I thought you were on 6.	I thought you were on 6.	17920758	1472380431022	1472380431118	 	32
34905	376999	I thought you were on 6.	I thought you were on 6.	17920759	1472380431642	1472380431774	6	54
34905	376999	I thought you were on 6.	I thought you were on 6.	17920760	1472380431791	1472380431926	.	190
34905	377002	Some had witnessed the fighting which erupted a week ago.	Some had witnessed the fighting which erupted a week ago.	17920812	1472380434269	1472380434645	SHIFT	16
34905	377002	Some had witnessed the fighting which erupted a week ago.	Some had witnessed the fighting which erupted a week ago.	17920813	1472380434566	1472380434673	S	83
34905	377002	Some had witnessed the fighting which erupted a week ago.	Some had witnessed the fighting which erupted a week ago.	17920814	1472380434710	1472380434869	o	79
34905	377002	Some had witnessed the fighting which erupted a week ago.	Some had witnessed the fighting which erupted a week ago.	17920815	1472380434774	1472380434901	m	77
34905	377002	Some had witnessed the fighting which erupted a week ago.	Some had witnessed the fighting which erupted a week ago.	17920817	1472380434898	1472380435026	e	69
34905	377002	Some had witnessed the fighting which erupted a week ago.	Some had witnessed the fighting which erupted a week ago.	17920832	1472380435021	1472380435141	 	32
34905	377002	Some had witnessed the fighting which erupted a week ago.	Some had witnessed the fighting which erupted a week ago.	17920834	1472380435176	1472380435291	h	72
34905	377002	Some had witnessed the fighting which erupted a week ago.	Some had witnessed the fighting which erupted a week ago.	17920837	1472380435352	1472380435508	a	65
34905	377002	Some had witnessed the fighting which erupted a week ago.	Some had witnessed the fighting which erupted a week ago.	17920840	1472380435477	1472380435612	d	68
34905	377002	Some had witnessed the fighting which erupted a week ago.	Some had witnessed the fighting which erupted a week ago.	17920842	1472380435886	1472380436023	 	32
34905	377002	Some had witnessed the fighting which erupted a week ago.	Some had witnessed the fighting which erupted a week ago.	17920844	1472380436169	1472380436305	w	87
34905	377002	Some had witnessed the fighting which erupted a week ago.	Some had witnessed the fighting which erupted a week ago.	17920873	1472380436382	1472380436481	i	73
34905	377002	Some had witnessed the fighting which erupted a week ago.	Some had witnessed the fighting which erupted a week ago.	17920876	1472380436549	1472380436680	t	84
34905	377002	Some had witnessed the fighting which erupted a week ago.	Some had witnessed the fighting which erupted a week ago.	17920877	1472380436705	1472380436837	n	78
34905	377002	Some had witnessed the fighting which erupted a week ago.	Some had witnessed the fighting which erupted a week ago.	17920880	1472380437312	1472380437443	e	69
34905	377002	Some had witnessed the fighting which erupted a week ago.	Some had witnessed the fighting which erupted a week ago.	17920882	1472380437567	1472380437623	s	83
34905	377002	Some had witnessed the fighting which erupted a week ago.	Some had witnessed the fighting which erupted a week ago.	17920895	1472380437706	1472380437818	s	83
34905	377002	Some had witnessed the fighting which erupted a week ago.	Some had witnessed the fighting which erupted a week ago.	17920896	1472380437859	1472380437998	e	69
34905	377002	Some had witnessed the fighting which erupted a week ago.	Some had witnessed the fighting which erupted a week ago.	17920897	1472380438115	1472380438199	d	68
34905	377002	Some had witnessed the fighting which erupted a week ago.	Some had witnessed the fighting which erupted a week ago.	17920899	1472380438304	1472380438420	 	32
34905	377002	Some had witnessed the fighting which erupted a week ago.	Some had witnessed the fighting which erupted a week ago.	17920902	1472380438459	1472380438571	t	84
34905	377002	Some had witnessed the fighting which erupted a week ago.	Some had witnessed the fighting which erupted a week ago.	17920949	1472380438531	1472380438631	h	72
34905	377002	Some had witnessed the fighting which erupted a week ago.	Some had witnessed the fighting which erupted a week ago.	17920950	1472380438715	1472380438815	e	69
34905	377002	Some had witnessed the fighting which erupted a week ago.	Some had witnessed the fighting which erupted a week ago.	17920951	1472380439095	1472380439231	 	32
34905	377002	Some had witnessed the fighting which erupted a week ago.	Some had witnessed the fighting which erupted a week ago.	17920952	1472380439338	1472380439474	f	70
34905	377002	Some had witnessed the fighting which erupted a week ago.	Some had witnessed the fighting which erupted a week ago.	17920953	1472380439482	1472380439582	i	73
34905	377002	Some had witnessed the fighting which erupted a week ago.	Some had witnessed the fighting which erupted a week ago.	17920954	1472380439998	1472380440122	g	71
34905	377002	Some had witnessed the fighting which erupted a week ago.	Some had witnessed the fighting which erupted a week ago.	17920977	1472380440118	1472380440222	h	72
34905	377002	Some had witnessed the fighting which erupted a week ago.	Some had witnessed the fighting which erupted a week ago.	17920980	1472380440240	1472380440360	t	84
34905	377002	Some had witnessed the fighting which erupted a week ago.	Some had witnessed the fighting which erupted a week ago.	17920984	1472380440407	1472380440519	i	73
34905	377002	Some had witnessed the fighting which erupted a week ago.	Some had witnessed the fighting which erupted a week ago.	17920986	1472380440471	1472380440585	n	78
34905	377002	Some had witnessed the fighting which erupted a week ago.	Some had witnessed the fighting which erupted a week ago.	17920988	1472380440583	1472380440711	g	71
34905	377002	Some had witnessed the fighting which erupted a week ago.	Some had witnessed the fighting which erupted a week ago.	17920990	1472380440756	1472380440864	 	32
34905	377002	Some had witnessed the fighting which erupted a week ago.	Some had witnessed the fighting which erupted a week ago.	17921003	1472380440910	1472380441050	w	87
34905	377002	Some had witnessed the fighting which erupted a week ago.	Some had witnessed the fighting which erupted a week ago.	17921005	1472380441123	1472380441239	h	72
34905	377002	Some had witnessed the fighting which erupted a week ago.	Some had witnessed the fighting which erupted a week ago.	17921007	1472380441243	1472380441347	i	73
34905	377002	Some had witnessed the fighting which erupted a week ago.	Some had witnessed the fighting which erupted a week ago.	17921009	1472380441376	1472380441488	c	67
34905	377002	Some had witnessed the fighting which erupted a week ago.	Some had witnessed the fighting which erupted a week ago.	17921044	1472380441472	1472380441632	h	72
34905	377002	Some had witnessed the fighting which erupted a week ago.	Some had witnessed the fighting which erupted a week ago.	17921045	1472380441576	1472380441736	 	32
34905	377002	Some had witnessed the fighting which erupted a week ago.	Some had witnessed the fighting which erupted a week ago.	17921046	1472380442043	1472380442167	e	69
34905	377002	Some had witnessed the fighting which erupted a week ago.	Some had witnessed the fighting which erupted a week ago.	17921048	1472380442439	1472380442547	r	82
34905	377002	Some had witnessed the fighting which erupted a week ago.	Some had witnessed the fighting which erupted a week ago.	17921050	1472380442808	1472380442944	u	85
34905	377002	Some had witnessed the fighting which erupted a week ago.	Some had witnessed the fighting which erupted a week ago.	17921052	1472380443211	1472380443331	p	80
34905	377002	Some had witnessed the fighting which erupted a week ago.	Some had witnessed the fighting which erupted a week ago.	17921084	1472380443431	1472380443567	t	84
34905	377002	Some had witnessed the fighting which erupted a week ago.	Some had witnessed the fighting which erupted a week ago.	17921085	1472380443686	1472380443870	e	69
34905	377002	Some had witnessed the fighting which erupted a week ago.	Some had witnessed the fighting which erupted a week ago.	17921086	1472380443802	1472380443930	d	68
34905	377002	Some had witnessed the fighting which erupted a week ago.	Some had witnessed the fighting which erupted a week ago.	17921087	1472380444041	1472380444172	 	32
34905	377002	Some had witnessed the fighting which erupted a week ago.	Some had witnessed the fighting which erupted a week ago.	17921088	1472380444398	1472380444534	a	65
34905	377002	Some had witnessed the fighting which erupted a week ago.	Some had witnessed the fighting which erupted a week ago.	17921110	1472380444570	1472380444682	 	32
34905	377002	Some had witnessed the fighting which erupted a week ago.	Some had witnessed the fighting which erupted a week ago.	17921112	1472380444991	1472380445119	w	87
34905	377002	Some had witnessed the fighting which erupted a week ago.	Some had witnessed the fighting which erupted a week ago.	17921114	1472380445087	1472380445183	e	69
34905	377002	Some had witnessed the fighting which erupted a week ago.	Some had witnessed the fighting which erupted a week ago.	17921117	1472380445239	1472380445335	e	69
34905	377002	Some had witnessed the fighting which erupted a week ago.	Some had witnessed the fighting which erupted a week ago.	17921119	1472380445376	1472380445496	k	75
34905	377002	Some had witnessed the fighting which erupted a week ago.	Some had witnessed the fighting which erupted a week ago.	17921139	1472380445558	1472380445670	 	32
34905	377002	Some had witnessed the fighting which erupted a week ago.	Some had witnessed the fighting which erupted a week ago.	17921141	1472380445767	1472380445899	a	65
34905	377002	Some had witnessed the fighting which erupted a week ago.	Some had witnessed the fighting which erupted a week ago.	17921144	1472380445963	1472380446091	g	71
34905	377002	Some had witnessed the fighting which erupted a week ago.	Some had witnessed the fighting which erupted a week ago.	17921148	1472380446067	1472380446179	o	79
34905	377002	Some had witnessed the fighting which erupted a week ago.	Some had witnessed the fighting which erupted a week ago.	17921151	1472380446355	1472380446471	.	190
34905	377010	Normally we just eat and run.	Normally we just eat and run.	17921231	1472380449025	1472380449518	SHIFT	16
34905	377010	Normally we just eat and run.	Normally we just eat and run.	17921230	1472380449394	1472380449502	N	78
34905	377010	Normally we just eat and run.	Normally we just eat and run.	17921232	1472380449584	1472380449680	o	79
34905	377010	Normally we just eat and run.	Normally we just eat and run.	17921233	1472380449698	1472380449834	r	82
34905	377010	Normally we just eat and run.	Normally we just eat and run.	17921234	1472380449814	1472380449914	m	77
34905	377010	Normally we just eat and run.	Normally we just eat and run.	17921236	1472380449963	1472380450063	a	65
34905	377010	Normally we just eat and run.	Normally we just eat and run.	17921252	1472380450111	1472380450163	l	76
34905	377010	Normally we just eat and run.	Normally we just eat and run.	17921254	1472380450239	1472380450323	l	76
34905	377010	Normally we just eat and run.	Normally we just eat and run.	17921256	1472380450418	1472380450545	y	89
34905	377010	Normally we just eat and run.	Normally we just eat and run.	17921257	1472380450530	1472380450650	 	32
34905	377010	Normally we just eat and run.	Normally we just eat and run.	17921258	1472380450707	1472380450867	w	87
34905	377010	Normally we just eat and run.	Normally we just eat and run.	17921260	1472380450795	1472380450927	e	69
34905	377010	Normally we just eat and run.	Normally we just eat and run.	17921261	1472380450972	1472380451084	 	32
34905	377010	Normally we just eat and run.	Normally we just eat and run.	17921266	1472380451188	1472380451361	j	74
34905	377010	Normally we just eat and run.	Normally we just eat and run.	17921263	1472380451256	1472380451342	u	85
34905	377010	Normally we just eat and run.	Normally we just eat and run.	17921269	1472380451340	1472380451484	s	83
34905	377010	Normally we just eat and run.	Normally we just eat and run.	17921285	1472380451428	1472380451588	t	84
34905	377010	Normally we just eat and run.	Normally we just eat and run.	17921286	1472380451588	1472380451700	 	32
34905	377010	Normally we just eat and run.	Normally we just eat and run.	17921287	1472380451879	1472380452086	e	69
34905	377010	Normally we just eat and run.	Normally we just eat and run.	17921288	1472380451967	1472380452115	a	65
34905	377010	Normally we just eat and run.	Normally we just eat and run.	17921289	1472380452115	1472380452283	t	84
34905	377010	Normally we just eat and run.	Normally we just eat and run.	17921290	1472380452295	1472380452403	 	32
34905	377010	Normally we just eat and run.	Normally we just eat and run.	17921305	1472380452450	1472380452581	a	65
34905	377010	Normally we just eat and run.	Normally we just eat and run.	17921307	1472380452574	1472380452678	n	78
34905	377010	Normally we just eat and run.	Normally we just eat and run.	17921309	1472380452717	1472380452836	d	68
34905	377010	Normally we just eat and run.	Normally we just eat and run.	17921311	1472380452821	1472380452904	 	32
34905	377010	Normally we just eat and run.	Normally we just eat and run.	17921313	1472380452971	1472380453103	r	82
34905	377010	Normally we just eat and run.	Normally we just eat and run.	17921330	1472380453075	1472380453223	u	85
34905	377010	Normally we just eat and run.	Normally we just eat and run.	17921331	1472380453163	1472380453283	n	78
34905	377010	Normally we just eat and run.	Normally we just eat and run.	17921334	1472380453403	1472380453519	.	190
34905	377016	I'm working on your other emails next.	I'm working on your other emials next	17921475	1472380455881	1472380456464	SHIFT	16
34905	377016	I'm working on your other emails next.	I'm working on your other emials next	17921472	1472380456321	1472380456432	I	73
34905	377016	I'm working on your other emails next.	I'm working on your other emials next	17921477	1472380457492	1472380457616	'	222
34905	377016	I'm working on your other emails next.	I'm working on your other emials next	17921478	1472380457814	1472380457961	m	77
34905	377016	I'm working on your other emails next.	I'm working on your other emials next	17921479	1472380458275	1472380458379	 	32
34905	377016	I'm working on your other emails next.	I'm working on your other emials next	17921480	1472380458773	1472380458872	w	87
34905	377016	I'm working on your other emails next.	I'm working on your other emials next	17921490	1472380458857	1472380458933	o	79
34905	377016	I'm working on your other emails next.	I'm working on your other emials next	17921491	1472380458954	1472380459073	r	82
34905	377016	I'm working on your other emails next.	I'm working on your other emials next	17921492	1472380459058	1472380459146	k	75
34905	377016	I'm working on your other emails next.	I'm working on your other emials next	17921494	1472380459258	1472380459353	i	73
34905	377016	I'm working on your other emails next.	I'm working on your other emials next	17921496	1472380459330	1472380459423	n	78
34905	377016	I'm working on your other emails next.	I'm working on your other emials next	17921516	1472380459422	1472380459533	g	71
34905	377016	I'm working on your other emails next.	I'm working on your other emials next	17921517	1472380459551	1472380459659	 	32
34905	377016	I'm working on your other emails next.	I'm working on your other emials next	17921519	1472380459712	1472380459831	o	79
34905	377016	I'm working on your other emails next.	I'm working on your other emials next	17921521	1472380459784	1472380459891	n	78
34905	377016	I'm working on your other emails next.	I'm working on your other emials next	17921523	1472380459927	1472380460022	 	32
34905	377016	I'm working on your other emails next.	I'm working on your other emials next	17921525	1472380460117	1472380460260	y	89
34905	377016	I'm working on your other emails next.	I'm working on your other emials next	17921535	1472380460201	1472380460288	o	79
34905	377016	I'm working on your other emails next.	I'm working on your other emials next	17921538	1472380460229	1472380460344	u	85
34905	377016	I'm working on your other emails next.	I'm working on your other emials next	17921543	1472380460395	1472380460522	r	82
34905	377016	I'm working on your other emails next.	I'm working on your other emials next	17921546	1472380460539	1472380460642	 	32
34905	377016	I'm working on your other emails next.	I'm working on your other emials next	17921548	1472380460703	1472380460758	o	79
34905	377016	I'm working on your other emails next.	I'm working on your other emials next	17921549	1472380460776	1472380460876	t	84
34905	377016	I'm working on your other emails next.	I'm working on your other emials next	17921555	1472380460872	1472380460968	h	72
34905	377016	I'm working on your other emails next.	I'm working on your other emials next	17921556	1472380460960	1472380461095	e	69
34905	377016	I'm working on your other emails next.	I'm working on your other emials next	17921557	1472380461036	1472380461175	r	82
34905	377016	I'm working on your other emails next.	I'm working on your other emials next	17921558	1472380461132	1472380461244	 	32
34905	377016	I'm working on your other emails next.	I'm working on your other emials next	17921559	1472380461337	1472380461448	e	69
34905	377016	I'm working on your other emails next.	I'm working on your other emials next	17921584	1472380461445	1472380461544	m	77
34905	377016	I'm working on your other emails next.	I'm working on your other emials next	17921586	1472380461572	1472380461691	i	73
34905	377016	I'm working on your other emails next.	I'm working on your other emials next	17921588	1472380461739	1472380461863	a	65
34905	377016	I'm working on your other emails next.	I'm working on your other emials next	17921591	1472380461836	1472380461943	l	76
34905	377016	I'm working on your other emails next.	I'm working on your other emials next	17921593	1472380462036	1472380462188	s	83
34905	377016	I'm working on your other emails next.	I'm working on your other emials next	17921595	1472380462304	1472380462356	.	190
34905	377016	I'm working on your other emails next.	I'm working on your other emials next	17921636	1472380462728	1472380462847	BKSP	8
34905	377016	I'm working on your other emails next.	I'm working on your other emials next	17921638	1472380462965	1472380463092	 	32
34905	377016	I'm working on your other emails next.	I'm working on your other emials next	17921640	1472380463695	1472380463830	n	78
34905	377016	I'm working on your other emails next.	I'm working on your other emials next	17921643	1472380463763	1472380463970	e	69
34905	377016	I'm working on your other emails next.	I'm working on your other emials next	17921649	1472380464146	1472380464353	x	88
34905	377016	I'm working on your other emails next.	I'm working on your other emials next	17921668	1472380464334	1472380464489	t	84
34905	377020	England star Paul Gascoigne was one of the recipients of the loans.	England star Paul Gascoigne was one of the recipients of the loans.	17921716	1472380466930	1472380467226	SHIFT	16
34905	377020	England star Paul Gascoigne was one of the recipients of the loans.	England star Paul Gascoigne was one of the recipients of the loans.	17921717	1472380467167	1472380467290	E	69
34905	377020	England star Paul Gascoigne was one of the recipients of the loans.	England star Paul Gascoigne was one of the recipients of the loans.	17921718	1472380467299	1472380467422	n	78
34905	377020	England star Paul Gascoigne was one of the recipients of the loans.	England star Paul Gascoigne was one of the recipients of the loans.	17921719	1472380467451	1472380467574	g	71
34905	377020	England star Paul Gascoigne was one of the recipients of the loans.	England star Paul Gascoigne was one of the recipients of the loans.	17921720	1472380467647	1472380467722	l	76
34905	377020	England star Paul Gascoigne was one of the recipients of the loans.	England star Paul Gascoigne was one of the recipients of the loans.	17921721	1472380467870	1472380467993	a	65
34905	377020	England star Paul Gascoigne was one of the recipients of the loans.	England star Paul Gascoigne was one of the recipients of the loans.	17921738	1472380467914	1472380468017	n	78
34905	377020	England star Paul Gascoigne was one of the recipients of the loans.	England star Paul Gascoigne was one of the recipients of the loans.	17921741	1472380468076	1472380468204	d	68
34905	377020	England star Paul Gascoigne was one of the recipients of the loans.	England star Paul Gascoigne was one of the recipients of the loans.	17921744	1472380468439	1472380468578	 	32
34905	377020	England star Paul Gascoigne was one of the recipients of the loans.	England star Paul Gascoigne was one of the recipients of the loans.	17921747	1472380468706	1472380468809	s	83
34905	377020	England star Paul Gascoigne was one of the recipients of the loans.	England star Paul Gascoigne was one of the recipients of the loans.	17921749	1472380468871	1472380469012	t	84
34905	377020	England star Paul Gascoigne was one of the recipients of the loans.	England star Paul Gascoigne was one of the recipients of the loans.	17921751	1472380469029	1472380469200	a	65
34905	377020	England star Paul Gascoigne was one of the recipients of the loans.	England star Paul Gascoigne was one of the recipients of the loans.	17921775	1472380469129	1472380469284	r	82
34905	377020	England star Paul Gascoigne was one of the recipients of the loans.	England star Paul Gascoigne was one of the recipients of the loans.	17921777	1472380469453	1472380469572	 	32
34905	377020	England star Paul Gascoigne was one of the recipients of the loans.	England star Paul Gascoigne was one of the recipients of the loans.	17921780	1472380469703	1472380469810	p	80
34905	377020	England star Paul Gascoigne was one of the recipients of the loans.	England star Paul Gascoigne was one of the recipients of the loans.	17921782	1472380470066	1472380470174	BKSP	8
34905	377020	England star Paul Gascoigne was one of the recipients of the loans.	England star Paul Gascoigne was one of the recipients of the loans.	17921784	1472380470232	1472380470640	SHIFT	16
34905	377020	England star Paul Gascoigne was one of the recipients of the loans.	England star Paul Gascoigne was one of the recipients of the loans.	17921786	1472380470557	1472380470672	P	80
34905	377020	England star Paul Gascoigne was one of the recipients of the loans.	England star Paul Gascoigne was one of the recipients of the loans.	17921789	1472380470894	1472380471018	a	65
34905	377020	England star Paul Gascoigne was one of the recipients of the loans.	England star Paul Gascoigne was one of the recipients of the loans.	17921792	1472380471039	1472380471158	u	73
34905	377020	England star Paul Gascoigne was one of the recipients of the loans.	England star Paul Gascoigne was one of the recipients of the loans.	17921845	1472380471277	1472380471389	l	76
34905	377020	England star Paul Gascoigne was one of the recipients of the loans.	England star Paul Gascoigne was one of the recipients of the loans.	17921846	1472380471590	1472380471678	BKSP	8
34905	377020	England star Paul Gascoigne was one of the recipients of the loans.	England star Paul Gascoigne was one of the recipients of the loans.	17921847	1472380471765	1472380471809	BKSP	8
34905	377020	England star Paul Gascoigne was one of the recipients of the loans.	England star Paul Gascoigne was one of the recipients of the loans.	17921848	1472380471914	1472380471974	BKSP	8
34905	377020	England star Paul Gascoigne was one of the recipients of the loans.	England star Paul Gascoigne was one of the recipients of the loans.	17921849	1472380472412	1472380472480	u	85
34905	377020	England star Paul Gascoigne was one of the recipients of the loans.	England star Paul Gascoigne was one of the recipients of the loans.	17921850	1472380472663	1472380472775	l	76
34905	377020	England star Paul Gascoigne was one of the recipients of the loans.	England star Paul Gascoigne was one of the recipients of the loans.	17921851	1472380472868	1472380472996	 	32
34905	377020	England star Paul Gascoigne was one of the recipients of the loans.	England star Paul Gascoigne was one of the recipients of the loans.	17921852	1472380473501	1472380474341	SHIFT	16
34905	377020	England star Paul Gascoigne was one of the recipients of the loans.	England star Paul Gascoigne was one of the recipients of the loans.	17921895	1472380474209	1472380474345	G	71
34905	377020	England star Paul Gascoigne was one of the recipients of the loans.	England star Paul Gascoigne was one of the recipients of the loans.	17921896	1472380474569	1472380474745	a	65
34905	377020	England star Paul Gascoigne was one of the recipients of the loans.	England star Paul Gascoigne was one of the recipients of the loans.	17921897	1472380474730	1472380474833	s	83
34905	377020	England star Paul Gascoigne was one of the recipients of the loans.	England star Paul Gascoigne was one of the recipients of the loans.	17921898	1472380474968	1472380475112	c	67
34905	377020	England star Paul Gascoigne was one of the recipients of the loans.	England star Paul Gascoigne was one of the recipients of the loans.	17921899	1472380475142	1472380475266	o	79
34905	377020	England star Paul Gascoigne was one of the recipients of the loans.	England star Paul Gascoigne was one of the recipients of the loans.	17921900	1472380476071	1472380476154	i	73
34905	377020	England star Paul Gascoigne was one of the recipients of the loans.	England star Paul Gascoigne was one of the recipients of the loans.	17921940	1472380476450	1472380476582	g	71
34905	377020	England star Paul Gascoigne was one of the recipients of the loans.	England star Paul Gascoigne was one of the recipients of the loans.	17921942	1472380476846	1472380476970	n	78
34905	377020	England star Paul Gascoigne was one of the recipients of the loans.	England star Paul Gascoigne was one of the recipients of the loans.	17921945	1472380476962	1472380477090	e	69
34905	377020	England star Paul Gascoigne was one of the recipients of the loans.	England star Paul Gascoigne was one of the recipients of the loans.	17921950	1472380477153	1472380477273	 	32
34905	377020	England star Paul Gascoigne was one of the recipients of the loans.	England star Paul Gascoigne was one of the recipients of the loans.	17921952	1472380477510	1472380477654	w	87
34905	377020	England star Paul Gascoigne was one of the recipients of the loans.	England star Paul Gascoigne was one of the recipients of the loans.	17921964	1472380477634	1472380477810	a	65
34905	377020	England star Paul Gascoigne was one of the recipients of the loans.	England star Paul Gascoigne was one of the recipients of the loans.	17921966	1472380477759	1472380477890	s	83
34905	377020	England star Paul Gascoigne was one of the recipients of the loans.	England star Paul Gascoigne was one of the recipients of the loans.	17921968	1472380477862	1472380477954	 	32
34905	377020	England star Paul Gascoigne was one of the recipients of the loans.	England star Paul Gascoigne was one of the recipients of the loans.	17921969	1472380478022	1472380478131	o	79
34905	377020	England star Paul Gascoigne was one of the recipients of the loans.	England star Paul Gascoigne was one of the recipients of the loans.	17921970	1472380478095	1472380478191	n	78
34905	377020	England star Paul Gascoigne was one of the recipients of the loans.	England star Paul Gascoigne was one of the recipients of the loans.	17921971	1472380478249	1472380478372	 	32
34905	377020	England star Paul Gascoigne was one of the recipients of the loans.	England star Paul Gascoigne was one of the recipients of the loans.	17921989	1472380478718	1472380478814	BKSP	8
34905	377020	England star Paul Gascoigne was one of the recipients of the loans.	England star Paul Gascoigne was one of the recipients of the loans.	17921991	1472380478841	1472380478962	e	69
34905	377020	England star Paul Gascoigne was one of the recipients of the loans.	England star Paul Gascoigne was one of the recipients of the loans.	17921993	1472380478957	1472380479045	 	32
34905	377020	England star Paul Gascoigne was one of the recipients of the loans.	England star Paul Gascoigne was one of the recipients of the loans.	17921995	1472380479120	1472380479212	o	79
34905	377020	England star Paul Gascoigne was one of the recipients of the loans.	England star Paul Gascoigne was one of the recipients of the loans.	17921997	1472380479256	1472380479320	f	70
34905	377020	England star Paul Gascoigne was one of the recipients of the loans.	England star Paul Gascoigne was one of the recipients of the loans.	17921999	1472380479337	1472380479421	 	32
34905	377020	England star Paul Gascoigne was one of the recipients of the loans.	England star Paul Gascoigne was one of the recipients of the loans.	17922013	1472380479446	1472380479562	t	84
34905	377020	England star Paul Gascoigne was one of the recipients of the loans.	England star Paul Gascoigne was one of the recipients of the loans.	17922015	1472380479538	1472380479614	h	72
34905	377020	England star Paul Gascoigne was one of the recipients of the loans.	England star Paul Gascoigne was one of the recipients of the loans.	17922019	1472380479665	1472380479773	e	69
34905	377020	England star Paul Gascoigne was one of the recipients of the loans.	England star Paul Gascoigne was one of the recipients of the loans.	17922023	1472380479741	1472380479833	 	32
34905	377020	England star Paul Gascoigne was one of the recipients of the loans.	England star Paul Gascoigne was one of the recipients of the loans.	17922027	1472380480090	1472380480234	r	82
34905	377020	England star Paul Gascoigne was one of the recipients of the loans.	England star Paul Gascoigne was one of the recipients of the loans.	17922067	1472380480194	1472380480350	e	69
34905	377020	England star Paul Gascoigne was one of the recipients of the loans.	England star Paul Gascoigne was one of the recipients of the loans.	17922068	1472380480800	1472380480908	c	67
34905	377020	England star Paul Gascoigne was one of the recipients of the loans.	England star Paul Gascoigne was one of the recipients of the loans.	17922069	1472380481011	1472380481142	i	73
34905	377020	England star Paul Gascoigne was one of the recipients of the loans.	England star Paul Gascoigne was one of the recipients of the loans.	17922070	1472380481325	1472380481453	p	80
34905	377020	England star Paul Gascoigne was one of the recipients of the loans.	England star Paul Gascoigne was one of the recipients of the loans.	17922071	1472380481563	1472380481671	i	73
34905	377020	England star Paul Gascoigne was one of the recipients of the loans.	England star Paul Gascoigne was one of the recipients of the loans.	17922072	1472380481801	1472380481937	e	69
34905	377020	England star Paul Gascoigne was one of the recipients of the loans.	England star Paul Gascoigne was one of the recipients of the loans.	17922089	1472380481901	1472380482025	n	78
34905	377020	England star Paul Gascoigne was one of the recipients of the loans.	England star Paul Gascoigne was one of the recipients of the loans.	17922091	1472380482059	1472380482211	t	84
34905	377020	England star Paul Gascoigne was one of the recipients of the loans.	England star Paul Gascoigne was one of the recipients of the loans.	17922095	1472380482215	1472380482363	s	83
34905	377020	England star Paul Gascoigne was one of the recipients of the loans.	England star Paul Gascoigne was one of the recipients of the loans.	17922100	1472380482528	1472380482664	 	32
34905	377020	England star Paul Gascoigne was one of the recipients of the loans.	England star Paul Gascoigne was one of the recipients of the loans.	17922105	1472380482727	1472380482839	o	79
34905	377020	England star Paul Gascoigne was one of the recipients of the loans.	England star Paul Gascoigne was one of the recipients of the loans.	17922112	1472380482855	1472380482959	f	70
34905	377020	England star Paul Gascoigne was one of the recipients of the loans.	England star Paul Gascoigne was one of the recipients of the loans.	17922124	1472380482975	1472380483071	 	32
34905	377020	England star Paul Gascoigne was one of the recipients of the loans.	England star Paul Gascoigne was one of the recipients of the loans.	17922125	1472380483087	1472380483239	t	84
34905	377020	England star Paul Gascoigne was one of the recipients of the loans.	England star Paul Gascoigne was one of the recipients of the loans.	17922126	1472380483199	1472380483307	h	72
34905	377020	England star Paul Gascoigne was one of the recipients of the loans.	England star Paul Gascoigne was one of the recipients of the loans.	17922127	1472380483350	1472380483450	e	69
34905	377020	England star Paul Gascoigne was one of the recipients of the loans.	England star Paul Gascoigne was one of the recipients of the loans.	17922154	1472380483414	1472380483506	 	32
34905	377020	England star Paul Gascoigne was one of the recipients of the loans.	England star Paul Gascoigne was one of the recipients of the loans.	17922155	1472380483722	1472380484026	SHIFT	16
34905	377020	England star Paul Gascoigne was one of the recipients of the loans.	England star Paul Gascoigne was one of the recipients of the loans.	17922156	1472380484300	1472380484380	l	76
34905	377020	England star Paul Gascoigne was one of the recipients of the loans.	England star Paul Gascoigne was one of the recipients of the loans.	17922157	1472380484526	1472380484610	o	79
34905	377020	England star Paul Gascoigne was one of the recipients of the loans.	England star Paul Gascoigne was one of the recipients of the loans.	17922158	1472380484660	1472380484772	a	65
34905	377020	England star Paul Gascoigne was one of the recipients of the loans.	England star Paul Gascoigne was one of the recipients of the loans.	17922159	1472380484756	1472380484876	n	78
34905	377020	England star Paul Gascoigne was one of the recipients of the loans.	England star Paul Gascoigne was one of the recipients of the loans.	17922160	1472380484943	1472380485090	s	83
34905	377020	England star Paul Gascoigne was one of the recipients of the loans.	England star Paul Gascoigne was one of the recipients of the loans.	17922163	1472380485181	1472380485301	.	190
34905	377041	Don't use him this week.	Don't use him this week.	17922709	1472380501752	1472380501964	SHIFT	16
34905	377041	Don't use him this week.	Don't use him this week.	17922711	1472380501881	1472380502016	D	68
34905	377041	Don't use him this week.	Don't use him this week.	17922715	1472380501976	1472380502092	o	79
34905	377041	Don't use him this week.	Don't use him this week.	17922716	1472380502041	1472380502144	n	78
34905	377041	Don't use him this week.	Don't use him this week.	17922718	1472380502234	1472380502342	'	222
34905	377041	Don't use him this week.	Don't use him this week.	17922720	1472380502387	1472380502503	t	84
34905	377041	Don't use him this week.	Don't use him this week.	17922750	1472380502471	1472380502559	 	32
34905	377041	Don't use him this week.	Don't use him this week.	17922752	1472380502594	1472380502682	u	85
34905	377041	Don't use him this week.	Don't use him this week.	17922754	1472380502716	1472380502907	s	83
34905	377041	Don't use him this week.	Don't use him this week.	17922756	1472380503082	1472380503190	e	69
34905	377041	Don't use him this week.	Don't use him this week.	17922758	1472380503304	1472380503431	 	32
34905	377041	Don't use him this week.	Don't use him this week.	17922761	1472380503782	1472380503910	h	72
34905	377041	Don't use him this week.	Don't use him this week.	17922785	1472380503906	1472380504078	i	73
34905	377041	Don't use him this week.	Don't use him this week.	17922788	1472380503990	1472380504102	m	77
34905	377041	Don't use him this week.	Don't use him this week.	17922793	1472380504248	1472380504303	 	32
34905	377041	Don't use him this week.	Don't use him this week.	17922796	1472380504469	1472380504593	h	72
34905	377041	Don't use him this week.	Don't use him this week.	17922798	1472380504885	1472380504973	BKSP	8
34905	377041	Don't use him this week.	Don't use him this week.	17922801	1472380505004	1472380505124	t	84
34905	377041	Don't use him this week.	Don't use him this week.	17922827	1472380505100	1472380505252	h	72
34905	377041	Don't use him this week.	Don't use him this week.	17922830	1472380505196	1472380505300	i	73
34905	377041	Don't use him this week.	Don't use him this week.	17922832	1472380505268	1472380505396	s	83
34905	377041	Don't use him this week.	Don't use him this week.	17922836	1472380505425	1472380505529	 	32
34905	377041	Don't use him this week.	Don't use him this week.	17922839	1472380505666	1472380505738	e	69
34905	377041	Don't use him this week.	Don't use him this week.	17922840	1472380506035	1472380506127	BKSP	8
34905	377041	Don't use him this week.	Don't use him this week.	17922841	1472380506192	1472380506324	w	87
34905	377041	Don't use him this week.	Don't use him this week.	17922862	1472380506296	1472380506364	e	69
34905	377041	Don't use him this week.	Don't use him this week.	17922863	1472380506416	1472380506520	e	69
34905	377041	Don't use him this week.	Don't use him this week.	17922864	1472380506657	1472380506789	k	75
34905	377041	Don't use him this week.	Don't use him this week.	17922865	1472380507270	1472380507390	.	190
34905	377044	She would hate to see us not get our expense reports paid.	She would hate to see us not get our expense reports paid.	17922929	1472380509915	1472380510535	SHIFT	16
34905	377044	She would hate to see us not get our expense reports paid.	She would hate to see us not get our expense reports paid.	17922930	1472380510435	1472380510539	S	83
34905	377044	She would hate to see us not get our expense reports paid.	She would hate to see us not get our expense reports paid.	17922931	1472380510551	1472380510676	h	72
34905	377044	She would hate to see us not get our expense reports paid.	She would hate to see us not get our expense reports paid.	17922932	1472380510671	1472380510795	e	69
34905	377044	She would hate to see us not get our expense reports paid.	She would hate to see us not get our expense reports paid.	17922934	1472380510803	1472380510903	 	32
34905	377044	She would hate to see us not get our expense reports paid.	She would hate to see us not get our expense reports paid.	17922936	1472380511090	1472380511210	w	87
34905	377044	She would hate to see us not get our expense reports paid.	She would hate to see us not get our expense reports paid.	17922942	1472380511202	1472380511326	o	79
34905	377044	She would hate to see us not get our expense reports paid.	She would hate to see us not get our expense reports paid.	17922944	1472380511238	1472380511358	u	85
34905	377044	She would hate to see us not get our expense reports paid.	She would hate to see us not get our expense reports paid.	17922946	1472380511439	1472380511538	l	76
34905	377044	She would hate to see us not get our expense reports paid.	She would hate to see us not get our expense reports paid.	17922948	1472380511585	1472380511713	d	68
34905	377044	She would hate to see us not get our expense reports paid.	She would hate to see us not get our expense reports paid.	17922950	1472380511705	1472380511821	 	32
34905	377044	She would hate to see us not get our expense reports paid.	She would hate to see us not get our expense reports paid.	17922951	1472380511895	1472380512026	h	72
34905	377044	She would hate to see us not get our expense reports paid.	She would hate to see us not get our expense reports paid.	17922974	1472380512025	1472380512146	a	65
34905	377044	She would hate to see us not get our expense reports paid.	She would hate to see us not get our expense reports paid.	17922977	1472380512143	1472380512291	t	84
34905	377044	She would hate to see us not get our expense reports paid.	She would hate to see us not get our expense reports paid.	17922980	1472380512215	1472380512327	e	69
34905	377044	She would hate to see us not get our expense reports paid.	She would hate to see us not get our expense reports paid.	17922984	1472380512381	1472380512469	 	32
34905	377044	She would hate to see us not get our expense reports paid.	She would hate to see us not get our expense reports paid.	17922986	1472380512533	1472380512641	t	84
34905	377044	She would hate to see us not get our expense reports paid.	She would hate to see us not get our expense reports paid.	17922987	1472380512695	1472380512859	o	79
34905	377044	She would hate to see us not get our expense reports paid.	She would hate to see us not get our expense reports paid.	17922993	1472380512811	1472380512951	 	32
34905	377044	She would hate to see us not get our expense reports paid.	She would hate to see us not get our expense reports paid.	17922994	1472380513132	1472380513272	s	83
34905	377044	She would hate to see us not get our expense reports paid.	She would hate to see us not get our expense reports paid.	17922995	1472380513224	1472380513312	e	69
34905	377044	She would hate to see us not get our expense reports paid.	She would hate to see us not get our expense reports paid.	17922996	1472380513379	1472380513475	e	69
34905	377044	She would hate to see us not get our expense reports paid.	She would hate to see us not get our expense reports paid.	17922997	1472380513502	1472380513617	 	32
34905	377044	She would hate to see us not get our expense reports paid.	She would hate to see us not get our expense reports paid.	17923012	1472380513614	1472380513698	u	85
34905	377044	She would hate to see us not get our expense reports paid.	She would hate to see us not get our expense reports paid.	17923014	1472380513762	1472380513882	s	83
34905	377044	She would hate to see us not get our expense reports paid.	She would hate to see us not get our expense reports paid.	17923016	1472380513866	1472380513970	 	32
34905	377044	She would hate to see us not get our expense reports paid.	She would hate to see us not get our expense reports paid.	17923020	1472380514093	1472380514237	o	78
34905	377044	She would hate to see us not get our expense reports paid.	She would hate to see us not get our expense reports paid.	17923021	1472380514481	1472380514593	t	84
34905	377044	She would hate to see us not get our expense reports paid.	She would hate to see us not get our expense reports paid.	17923026	1472380514643	1472380514723	 	32
34905	377044	She would hate to see us not get our expense reports paid.	She would hate to see us not get our expense reports paid.	17923029	1472380514932	1472380515091	g	71
34905	377044	She would hate to see us not get our expense reports paid.	She would hate to see us not get our expense reports paid.	17923031	1472380515088	1472380515184	e	69
34905	377044	She would hate to see us not get our expense reports paid.	She would hate to see us not get our expense reports paid.	17923032	1472380515172	1472380515312	t	84
34905	377044	She would hate to see us not get our expense reports paid.	She would hate to see us not get our expense reports paid.	17923033	1472380515344	1472380515448	 	32
34905	377044	She would hate to see us not get our expense reports paid.	She would hate to see us not get our expense reports paid.	17923055	1472380515570	1472380515734	o	79
34905	377044	She would hate to see us not get our expense reports paid.	She would hate to see us not get our expense reports paid.	17923056	1472380515638	1472380515754	u	85
34905	377044	She would hate to see us not get our expense reports paid.	She would hate to see us not get our expense reports paid.	17923057	1472380515842	1472380515974	r	82
34905	377044	She would hate to see us not get our expense reports paid.	She would hate to see us not get our expense reports paid.	17923058	1472380515982	1472380516090	 	32
34905	377044	She would hate to see us not get our expense reports paid.	She would hate to see us not get our expense reports paid.	17923059	1472380516132	1472380516288	e	69
34905	377044	She would hate to see us not get our expense reports paid.	She would hate to see us not get our expense reports paid.	17923082	1472380516289	1472380516416	x	88
34905	377044	She would hate to see us not get our expense reports paid.	She would hate to see us not get our expense reports paid.	17923084	1472380516461	1472380516581	p	80
34905	377044	She would hate to see us not get our expense reports paid.	She would hate to see us not get our expense reports paid.	17923086	1472380516612	1472380516728	e	69
34905	377044	She would hate to see us not get our expense reports paid.	She would hate to see us not get our expense reports paid.	17923088	1472380516688	1472380516796	n	78
34905	377044	She would hate to see us not get our expense reports paid.	She would hate to see us not get our expense reports paid.	17923090	1472380517134	1472380517270	s	83
34905	377044	She would hate to see us not get our expense reports paid.	She would hate to see us not get our expense reports paid.	17923103	1472380517210	1472380517346	e	69
34905	377044	She would hate to see us not get our expense reports paid.	She would hate to see us not get our expense reports paid.	17923106	1472380517406	1472380517526	 	32
34905	377044	She would hate to see us not get our expense reports paid.	She would hate to see us not get our expense reports paid.	17923108	1472380517634	1472380517782	r	82
34905	377044	She would hate to see us not get our expense reports paid.	She would hate to see us not get our expense reports paid.	17923110	1472380517710	1472380517806	e	69
34905	377044	She would hate to see us not get our expense reports paid.	She would hate to see us not get our expense reports paid.	17923112	1472380517880	1472380518056	p	80
34905	377044	She would hate to see us not get our expense reports paid.	She would hate to see us not get our expense reports paid.	17923117	1472380517964	1472380518071	o	79
34905	377044	She would hate to see us not get our expense reports paid.	She would hate to see us not get our expense reports paid.	17923118	1472380518057	1472380518200	r	82
34905	377044	She would hate to see us not get our expense reports paid.	She would hate to see us not get our expense reports paid.	17923119	1472380518120	1472380518304	t	84
34905	377044	She would hate to see us not get our expense reports paid.	She would hate to see us not get our expense reports paid.	17923120	1472380518328	1472380518488	s	83
34905	377044	She would hate to see us not get our expense reports paid.	She would hate to see us not get our expense reports paid.	17923121	1472380518496	1472380518600	 	32
34905	377044	She would hate to see us not get our expense reports paid.	She would hate to see us not get our expense reports paid.	17923122	1472380518647	1472380518750	p	80
34905	377044	She would hate to see us not get our expense reports paid.	She would hate to see us not get our expense reports paid.	17923178	1472380518747	1472380518910	a	65
34905	377044	She would hate to see us not get our expense reports paid.	She would hate to see us not get our expense reports paid.	17923180	1472380518887	1472380519063	r	82
34905	377044	She would hate to see us not get our expense reports paid.	She would hate to see us not get our expense reports paid.	17923183	1472380519476	1472380519580	BKSP	8
34905	377044	She would hate to see us not get our expense reports paid.	She would hate to see us not get our expense reports paid.	17923185	1472380519706	1472380519822	i	73
34905	377044	She would hate to see us not get our expense reports paid.	She would hate to see us not get our expense reports paid.	17923186	1472380519926	1472380520074	d	68
34905	377044	She would hate to see us not get our expense reports paid.	She would hate to see us not get our expense reports paid.	17923187	1472380520149	1472380520233	s	83
34905	377044	She would hate to see us not get our expense reports paid.	She would hate to see us not get our expense reports paid.	17923188	1472380520722	1472380520842	\	220
34905	377044	She would hate to see us not get our expense reports paid.	She would hate to see us not get our expense reports paid.	17923214	1472380520934	1472380521078	,	188
34905	377044	She would hate to see us not get our expense reports paid.	She would hate to see us not get our expense reports paid.	17923215	1472380521337	1472380521405	BKSP	8
34905	377044	She would hate to see us not get our expense reports paid.	She would hate to see us not get our expense reports paid.	17923216	1472380521484	1472380521548	BKSP	8
34905	377044	She would hate to see us not get our expense reports paid.	She would hate to see us not get our expense reports paid.	17923218	1472380521619	1472380521715	BKSP	8
34905	377044	She would hate to see us not get our expense reports paid.	She would hate to see us not get our expense reports paid.	17923221	1472380521931	1472380522075	.	190
