PARTICIPANT_ID	TEST_SECTION_ID	SENTENCE	USER_INPUT	KEYSTROKE_ID	PRESS_TIME	RELEASE_TIME	LETTER	KEYCODE
356075	3837468	Tried to call but couldn't reach you.	Tried to call bout couldn't reach you.	182315141	1476888693576	1476888693860	SHIFT	16
356075	3837468	Tried to call but couldn't reach you.	Tried to call bout couldn't reach you.	182315139	1476888693765	1476888693852	Y	84
356075	3837468	Tried to call but couldn't reach you.	Tried to call bout couldn't reach you.	182315143	1476888694324	1476888694396	BKSP	8
356075	3837468	Tried to call but couldn't reach you.	Tried to call bout couldn't reach you.	182315147	1476888694428	1476888694532	r	82
356075	3837468	Tried to call but couldn't reach you.	Tried to call bout couldn't reach you.	182315152	1476888694548	1476888694652	i	73
356075	3837468	Tried to call but couldn't reach you.	Tried to call bout couldn't reach you.	182315183	1476888694644	1476888694708	e	69
356075	3837468	Tried to call but couldn't reach you.	Tried to call bout couldn't reach you.	182315186	1476888694804	1476888694868	d	68
356075	3837468	Tried to call but couldn't reach you.	Tried to call bout couldn't reach you.	182315192	1476888694884	1476888694976	 	32
356075	3837468	Tried to call but couldn't reach you.	Tried to call bout couldn't reach you.	182315198	1476888695004	1476888695084	t	84
356075	3837468	Tried to call but couldn't reach you.	Tried to call bout couldn't reach you.	182315205	1476888695092	1476888695148	o	79
356075	3837468	Tried to call but couldn't reach you.	Tried to call bout couldn't reach you.	182315212	1476888695228	1476888695292	 	32
356075	3837468	Tried to call but couldn't reach you.	Tried to call bout couldn't reach you.	182315242	1476888695294	1476888695380	c	67
356075	3837468	Tried to call but couldn't reach you.	Tried to call bout couldn't reach you.	182315250	1476888695356	1476888695476	a	65
356075	3837468	Tried to call but couldn't reach you.	Tried to call bout couldn't reach you.	182315255	1476888695420	1476888695484	l	76
356075	3837468	Tried to call but couldn't reach you.	Tried to call bout couldn't reach you.	182315264	1476888695564	1476888695644	l	76
356075	3837468	Tried to call but couldn't reach you.	Tried to call bout couldn't reach you.	182315270	1476888695797	1476888695892	 	32
356075	3837468	Tried to call but couldn't reach you.	Tried to call bout couldn't reach you.	182315294	1476888696005	1476888696060	b	66
356075	3837468	Tried to call but couldn't reach you.	Tried to call bout couldn't reach you.	182315300	1476888696180	1476888696268	o	79
356075	3837468	Tried to call but couldn't reach you.	Tried to call bout couldn't reach you.	182315309	1476888696236	1476888696332	u	85
356075	3837468	Tried to call but couldn't reach you.	Tried to call bout couldn't reach you.	182315321	1476888696356	1476888696428	t	84
356075	3837468	Tried to call but couldn't reach you.	Tried to call bout couldn't reach you.	182315329	1476888696468	1476888696540	 	32
356075	3837468	Tried to call but couldn't reach you.	Tried to call bout couldn't reach you.	182315351	1476888696612	1476888696692	c	67
356075	3837468	Tried to call but couldn't reach you.	Tried to call bout couldn't reach you.	182315353	1476888696660	1476888696740	o	79
356075	3837468	Tried to call but couldn't reach you.	Tried to call bout couldn't reach you.	182315356	1476888696724	1476888696796	u	85
356075	3837468	Tried to call but couldn't reach you.	Tried to call bout couldn't reach you.	182315359	1476888696852	1476888696908	l	76
356075	3837468	Tried to call but couldn't reach you.	Tried to call bout couldn't reach you.	182315362	1476888696972	1476888697061	d	68
356075	3837468	Tried to call but couldn't reach you.	Tried to call bout couldn't reach you.	182315427	1476888697052	1476888697116	n	78
356075	3837468	Tried to call but couldn't reach you.	Tried to call bout couldn't reach you.	182315431	1476888697260	1476888697348	'	222
356075	3837468	Tried to call but couldn't reach you.	Tried to call bout couldn't reach you.	182315435	1476888697404	1476888697500	t	84
356075	3837468	Tried to call but couldn't reach you.	Tried to call bout couldn't reach you.	182315440	1476888697540	1476888697628	 	32
356075	3837468	Tried to call but couldn't reach you.	Tried to call bout couldn't reach you.	182315446	1476888697756	1476888697844	r	82
356075	3837468	Tried to call but couldn't reach you.	Tried to call bout couldn't reach you.	182315450	1476888698012	1476888698116	a	65
356075	3837468	Tried to call but couldn't reach you.	Tried to call bout couldn't reach you.	182315509	1476888698252	1476888698340	c	67
356075	3837468	Tried to call but couldn't reach you.	Tried to call bout couldn't reach you.	182315514	1476888698556	1476888698604	BKSP	8
356075	3837468	Tried to call but couldn't reach you.	Tried to call bout couldn't reach you.	182315521	1476888698692	1476888698764	BKSP	8
356075	3837468	Tried to call but couldn't reach you.	Tried to call bout couldn't reach you.	182315526	1476888698765	1476888698868	e	69
356075	3837468	Tried to call but couldn't reach you.	Tried to call bout couldn't reach you.	182315530	1476888698821	1476888698916	a	65
356075	3837468	Tried to call but couldn't reach you.	Tried to call bout couldn't reach you.	182315534	1476888698997	1476888699053	c	67
356075	3837468	Tried to call but couldn't reach you.	Tried to call bout couldn't reach you.	182315570	1476888699044	1476888699100	h	72
356075	3837468	Tried to call but couldn't reach you.	Tried to call bout couldn't reach you.	182315573	1476888699196	1476888699268	 	32
356075	3837468	Tried to call but couldn't reach you.	Tried to call bout couldn't reach you.	182315579	1476888699420	1476888699516	y	89
356075	3837468	Tried to call but couldn't reach you.	Tried to call bout couldn't reach you.	182315585	1476888699524	1476888699620	o	79
356075	3837468	Tried to call but couldn't reach you.	Tried to call bout couldn't reach you.	182315592	1476888699668	1476888699756	u	85
356075	3837468	Tried to call but couldn't reach you.	Tried to call bout couldn't reach you.	182315599	1476888699804	1476888699868	.	190
356075	3837480	It is definitely time to give up on the disappointing wideout.	It is definitely time to give up on the disappointing wideout.	182315890	1476888702964	1476888703348	SHIFT	16
356075	3837480	It is definitely time to give up on the disappointing wideout.	It is definitely time to give up on the disappointing wideout.	182315895	1476888703284	1476888703380	I	73
356075	3837480	It is definitely time to give up on the disappointing wideout.	It is definitely time to give up on the disappointing wideout.	182315901	1476888703404	1476888703468	t	84
356075	3837480	It is definitely time to give up on the disappointing wideout.	It is definitely time to give up on the disappointing wideout.	182315906	1476888703516	1476888703588	 	32
356075	3837480	It is definitely time to give up on the disappointing wideout.	It is definitely time to give up on the disappointing wideout.	182315911	1476888703685	1476888703756	i	73
356075	3837480	It is definitely time to give up on the disappointing wideout.	It is definitely time to give up on the disappointing wideout.	182315916	1476888703788	1476888703868	s	83
356075	3837480	It is definitely time to give up on the disappointing wideout.	It is definitely time to give up on the disappointing wideout.	182315972	1476888703884	1476888703980	 	32
356075	3837480	It is definitely time to give up on the disappointing wideout.	It is definitely time to give up on the disappointing wideout.	182315976	1476888704036	1476888704236	d	68
356075	3837480	It is definitely time to give up on the disappointing wideout.	It is definitely time to give up on the disappointing wideout.	182315980	1476888704484	1476888704580	e	69
356075	3837480	It is definitely time to give up on the disappointing wideout.	It is definitely time to give up on the disappointing wideout.	182315987	1476888704740	1476888704868	f	70
356075	3837480	It is definitely time to give up on the disappointing wideout.	It is definitely time to give up on the disappointing wideout.	182315994	1476888704924	1476888705076	i	73
356075	3837480	It is definitely time to give up on the disappointing wideout.	It is definitely time to give up on the disappointing wideout.	182316056	1476888705028	1476888705212	n	78
356075	3837480	It is definitely time to give up on the disappointing wideout.	It is definitely time to give up on the disappointing wideout.	182316059	1476888705165	1476888705316	i	73
356075	3837480	It is definitely time to give up on the disappointing wideout.	It is definitely time to give up on the disappointing wideout.	182316061	1476888705348	1476888705508	t	84
356075	3837480	It is definitely time to give up on the disappointing wideout.	It is definitely time to give up on the disappointing wideout.	182316067	1476888705436	1476888705596	e	69
356075	3837480	It is definitely time to give up on the disappointing wideout.	It is definitely time to give up on the disappointing wideout.	182316071	1476888705604	1476888705748	l	76
356075	3837480	It is definitely time to give up on the disappointing wideout.	It is definitely time to give up on the disappointing wideout.	182316076	1476888705964	1476888706116	y	89
356075	3837480	It is definitely time to give up on the disappointing wideout.	It is definitely time to give up on the disappointing wideout.	182316202	1476888706908	1476888706964	 	32
356075	3837480	It is definitely time to give up on the disappointing wideout.	It is definitely time to give up on the disappointing wideout.	182316209	1476888707092	1476888707180	t	84
356075	3837480	It is definitely time to give up on the disappointing wideout.	It is definitely time to give up on the disappointing wideout.	182316216	1476888707244	1476888707413	m	77
356075	3837480	It is definitely time to give up on the disappointing wideout.	It is definitely time to give up on the disappointing wideout.	182316220	1476888707717	1476888707797	BKSP	8
356075	3837480	It is definitely time to give up on the disappointing wideout.	It is definitely time to give up on the disappointing wideout.	182316225	1476888707933	1476888708045	i	73
356075	3837480	It is definitely time to give up on the disappointing wideout.	It is definitely time to give up on the disappointing wideout.	182316253	1476888707997	1476888708101	m	77
356075	3837480	It is definitely time to give up on the disappointing wideout.	It is definitely time to give up on the disappointing wideout.	182316257	1476888708093	1476888708181	e	69
356075	3837480	It is definitely time to give up on the disappointing wideout.	It is definitely time to give up on the disappointing wideout.	182316262	1476888708189	1476888708261	 	32
356075	3837480	It is definitely time to give up on the disappointing wideout.	It is definitely time to give up on the disappointing wideout.	182316266	1476888708293	1476888708374	t	84
356075	3837480	It is definitely time to give up on the disappointing wideout.	It is definitely time to give up on the disappointing wideout.	182316272	1476888708365	1476888708421	o	79
356075	3837480	It is definitely time to give up on the disappointing wideout.	It is definitely time to give up on the disappointing wideout.	182316277	1476888708517	1476888708597	 	32
356075	3837480	It is definitely time to give up on the disappointing wideout.	It is definitely time to give up on the disappointing wideout.	182316291	1476888708725	1476888708813	g	71
356075	3837480	It is definitely time to give up on the disappointing wideout.	It is definitely time to give up on the disappointing wideout.	182316295	1476888708853	1476888708917	i	73
356075	3837480	It is definitely time to give up on the disappointing wideout.	It is definitely time to give up on the disappointing wideout.	182316303	1476888708933	1476888709021	v	86
356075	3837480	It is definitely time to give up on the disappointing wideout.	It is definitely time to give up on the disappointing wideout.	182316310	1476888708997	1476888709110	e	69
356075	3837480	It is definitely time to give up on the disappointing wideout.	It is definitely time to give up on the disappointing wideout.	182316371	1476888709063	1476888709141	 	32
356075	3837480	It is definitely time to give up on the disappointing wideout.	It is definitely time to give up on the disappointing wideout.	182316375	1476888709261	1476888709389	u	85
356075	3837480	It is definitely time to give up on the disappointing wideout.	It is definitely time to give up on the disappointing wideout.	182316380	1476888709341	1476888709453	p	80
356075	3837480	It is definitely time to give up on the disappointing wideout.	It is definitely time to give up on the disappointing wideout.	182316384	1476888709599	1476888709709	 	32
356075	3837480	It is definitely time to give up on the disappointing wideout.	It is definitely time to give up on the disappointing wideout.	182316389	1476888709853	1476888709997	o	79
356075	3837480	It is definitely time to give up on the disappointing wideout.	It is definitely time to give up on the disappointing wideout.	182316422	1476888709949	1476888710037	n	78
356075	3837480	It is definitely time to give up on the disappointing wideout.	It is definitely time to give up on the disappointing wideout.	182316426	1476888710117	1476888710189	 	32
356075	3837480	It is definitely time to give up on the disappointing wideout.	It is definitely time to give up on the disappointing wideout.	182316432	1476888710197	1476888710293	t	84
356075	3837480	It is definitely time to give up on the disappointing wideout.	It is definitely time to give up on the disappointing wideout.	182316434	1476888710309	1476888710381	h	72
356075	3837480	It is definitely time to give up on the disappointing wideout.	It is definitely time to give up on the disappointing wideout.	182316436	1476888710413	1476888710485	e	69
356075	3837480	It is definitely time to give up on the disappointing wideout.	It is definitely time to give up on the disappointing wideout.	182316438	1476888710510	1476888710589	 	32
356075	3837480	It is definitely time to give up on the disappointing wideout.	It is definitely time to give up on the disappointing wideout.	182316471	1476888710710	1476888710821	d	68
356075	3837480	It is definitely time to give up on the disappointing wideout.	It is definitely time to give up on the disappointing wideout.	182316476	1476888710877	1476888710989	i	73
356075	3837480	It is definitely time to give up on the disappointing wideout.	It is definitely time to give up on the disappointing wideout.	182316480	1476888711013	1476888711077	s	83
356075	3837480	It is definitely time to give up on the disappointing wideout.	It is definitely time to give up on the disappointing wideout.	182316482	1476888711186	1476888711305	a	65
356075	3837480	It is definitely time to give up on the disappointing wideout.	It is definitely time to give up on the disappointing wideout.	182316486	1476888711305	1476888711334	p	80
356075	3837480	It is definitely time to give up on the disappointing wideout.	It is definitely time to give up on the disappointing wideout.	182316544	1476888711413	1476888711485	p	80
356075	3837480	It is definitely time to give up on the disappointing wideout.	It is definitely time to give up on the disappointing wideout.	182316547	1476888711581	1476888711677	o	79
356075	3837480	It is definitely time to give up on the disappointing wideout.	It is definitely time to give up on the disappointing wideout.	182316556	1476888711869	1476888712037	i	73
356075	3837480	It is definitely time to give up on the disappointing wideout.	It is definitely time to give up on the disappointing wideout.	182316561	1476888711994	1476888712101	n	78
356075	3837480	It is definitely time to give up on the disappointing wideout.	It is definitely time to give up on the disappointing wideout.	182316568	1476888712181	1476888712301	t	84
356075	3837480	It is definitely time to give up on the disappointing wideout.	It is definitely time to give up on the disappointing wideout.	182316669	1476888712406	1476888712597	i	73
356075	3837480	It is definitely time to give up on the disappointing wideout.	It is definitely time to give up on the disappointing wideout.	182316672	1476888712501	1476888712653	n	78
356075	3837480	It is definitely time to give up on the disappointing wideout.	It is definitely time to give up on the disappointing wideout.	182316674	1476888712709	1476888712773	g	71
356075	3837480	It is definitely time to give up on the disappointing wideout.	It is definitely time to give up on the disappointing wideout.	182316677	1476888713365	1476888713493	 	32
356075	3837480	It is definitely time to give up on the disappointing wideout.	It is definitely time to give up on the disappointing wideout.	182316680	1476888713782	1476888713869	w	87
356075	3837480	It is definitely time to give up on the disappointing wideout.	It is definitely time to give up on the disappointing wideout.	182316703	1476888713901	1476888713981	i	73
356075	3837480	It is definitely time to give up on the disappointing wideout.	It is definitely time to give up on the disappointing wideout.	182316706	1476888713997	1476888714149	d	68
356075	3837480	It is definitely time to give up on the disappointing wideout.	It is definitely time to give up on the disappointing wideout.	182316712	1476888714093	1476888714229	e	69
356075	3837480	It is definitely time to give up on the disappointing wideout.	It is definitely time to give up on the disappointing wideout.	182316717	1476888714230	1476888714357	o	79
356075	3837480	It is definitely time to give up on the disappointing wideout.	It is definitely time to give up on the disappointing wideout.	182316740	1476888714309	1476888714405	u	85
356075	3837480	It is definitely time to give up on the disappointing wideout.	It is definitely time to give up on the disappointing wideout.	182316744	1476888714429	1476888714501	t	84
356075	3837480	It is definitely time to give up on the disappointing wideout.	It is definitely time to give up on the disappointing wideout.	182316748	1476888714533	1476888714621	.	190
356075	3837502	I'll bug Holloway and let you know what he says.	I'll buy Holloway and let you know what he says.	182317020	1476888716261	1476888717461	SHIFT	16
356075	3837502	I'll bug Holloway and let you know what he says.	I'll buy Holloway and let you know what he says.	182317013	1476888717349	1476888717445	I	73
356075	3837502	I'll bug Holloway and let you know what he says.	I'll buy Holloway and let you know what he says.	182317025	1476888717613	1476888717685	;	222
356075	3837502	I'll bug Holloway and let you know what he says.	I'll buy Holloway and let you know what he says.	182317030	1476888718069	1476888718245	BKSP	8
356075	3837502	I'll bug Holloway and let you know what he says.	I'll buy Holloway and let you know what he says.	182317037	1476888718525	1476888718582	l	76
356075	3837502	I'll bug Holloway and let you know what he says.	I'll buy Holloway and let you know what he says.	182317043	1476888718669	1476888718733	l	76
356075	3837502	I'll bug Holloway and let you know what he says.	I'll buy Holloway and let you know what he says.	182317100	1476888718717	1476888718813	 	32
356075	3837502	I'll bug Holloway and let you know what he says.	I'll buy Holloway and let you know what he says.	182317103	1476888718893	1476888718973	b	66
356075	3837502	I'll bug Holloway and let you know what he says.	I'll buy Holloway and let you know what he says.	182317106	1476888719005	1476888719061	u	85
356075	3837502	I'll bug Holloway and let you know what he says.	I'll buy Holloway and let you know what he says.	182317113	1476888719125	1476888719213	y	89
356075	3837502	I'll bug Holloway and let you know what he says.	I'll buy Holloway and let you know what he says.	182317122	1476888719261	1476888719365	 	32
356075	3837502	I'll bug Holloway and let you know what he says.	I'll buy Holloway and let you know what he says.	182317133	1476888719757	1476888719997	SHIFT	16
356075	3837502	I'll bug Holloway and let you know what he says.	I'll buy Holloway and let you know what he says.	182317181	1476888719917	1476888719999	H	72
356075	3837502	I'll bug Holloway and let you know what he says.	I'll buy Holloway and let you know what he says.	182317184	1476888720109	1476888720270	o	79
356075	3837502	I'll bug Holloway and let you know what he says.	I'll buy Holloway and let you know what he says.	182317187	1476888720485	1476888720557	l	76
356075	3837502	I'll bug Holloway and let you know what he says.	I'll buy Holloway and let you know what he says.	182317189	1476888720645	1476888720757	l	76
356075	3837502	I'll bug Holloway and let you know what he says.	I'll buy Holloway and let you know what he says.	182317192	1476888720909	1476888721021	o	79
356075	3837502	I'll bug Holloway and let you know what he says.	I'll buy Holloway and let you know what he says.	182317196	1476888721077	1476888721254	w	87
356075	3837502	I'll bug Holloway and let you know what he says.	I'll buy Holloway and let you know what he says.	182317231	1476888721213	1476888721349	a	65
356075	3837502	I'll bug Holloway and let you know what he says.	I'll buy Holloway and let you know what he says.	182317236	1476888721301	1476888721429	y	89
356075	3837502	I'll bug Holloway and let you know what he says.	I'll buy Holloway and let you know what he says.	182317241	1476888721541	1476888721613	 	32
356075	3837502	I'll bug Holloway and let you know what he says.	I'll buy Holloway and let you know what he says.	182317249	1476888721614	1476888721709	a	65
356075	3837502	I'll bug Holloway and let you know what he says.	I'll buy Holloway and let you know what he says.	182317252	1476888721725	1476888721781	n	78
356075	3837502	I'll bug Holloway and let you know what he says.	I'll buy Holloway and let you know what he says.	182317257	1476888721821	1476888721894	d	68
356075	3837502	I'll bug Holloway and let you know what he says.	I'll buy Holloway and let you know what he says.	182317281	1476888721885	1476888721941	 	32
356075	3837502	I'll bug Holloway and let you know what he says.	I'll buy Holloway and let you know what he says.	182317283	1476888722045	1476888722117	l	76
356075	3837502	I'll bug Holloway and let you know what he says.	I'll buy Holloway and let you know what he says.	182317286	1476888722085	1476888722253	e	69
356075	3837502	I'll bug Holloway and let you know what he says.	I'll buy Holloway and let you know what he says.	182317291	1476888722221	1476888722333	t	84
356075	3837502	I'll bug Holloway and let you know what he says.	I'll buy Holloway and let you know what he says.	182317295	1476888722389	1476888722501	 	32
356075	3837502	I'll bug Holloway and let you know what he says.	I'll buy Holloway and let you know what he says.	182317300	1476888722749	1476888722813	y	89
356075	3837502	I'll bug Holloway and let you know what he says.	I'll buy Holloway and let you know what he says.	182317336	1476888722861	1476888722957	o	79
356075	3837502	I'll bug Holloway and let you know what he says.	I'll buy Holloway and let you know what he says.	182317339	1476888722933	1476888723013	u	85
356075	3837502	I'll bug Holloway and let you know what he says.	I'll buy Holloway and let you know what he says.	182317342	1476888723125	1476888723205	 	32
356075	3837502	I'll bug Holloway and let you know what he says.	I'll buy Holloway and let you know what he says.	182317344	1476888723341	1476888723453	k	75
356075	3837502	I'll bug Holloway and let you know what he says.	I'll buy Holloway and let you know what he says.	182317372	1476888723421	1476888723493	n	78
356075	3837502	I'll bug Holloway and let you know what he says.	I'll buy Holloway and let you know what he says.	182317374	1476888723557	1476888723613	o	79
356075	3837502	I'll bug Holloway and let you know what he says.	I'll buy Holloway and let you know what he says.	182317376	1476888723653	1476888723717	w	87
356075	3837502	I'll bug Holloway and let you know what he says.	I'll buy Holloway and let you know what he says.	182317378	1476888723709	1476888723781	 	32
356075	3837502	I'll bug Holloway and let you know what he says.	I'll buy Holloway and let you know what he says.	182317381	1476888723839	1476888723901	w	87
356075	3837502	I'll bug Holloway and let you know what he says.	I'll buy Holloway and let you know what he says.	182317383	1476888723910	1476888723965	h	72
356075	3837502	I'll bug Holloway and let you know what he says.	I'll buy Holloway and let you know what he says.	182317399	1476888723989	1476888724077	a	65
356075	3837502	I'll bug Holloway and let you know what he says.	I'll buy Holloway and let you know what he says.	182317404	1476888724150	1476888724213	t	84
356075	3837502	I'll bug Holloway and let you know what he says.	I'll buy Holloway and let you know what he says.	182317408	1476888724221	1476888724277	 	32
356075	3837502	I'll bug Holloway and let you know what he says.	I'll buy Holloway and let you know what he says.	182317412	1476888724381	1476888724437	e	72
356075	3837502	I'll bug Holloway and let you know what he says.	I'll buy Holloway and let you know what he says.	182317439	1476888724541	1476888724613	 	32
356075	3837502	I'll bug Holloway and let you know what he says.	I'll buy Holloway and let you know what he says.	182317445	1476888724621	1476888724733	s	83
356075	3837502	I'll bug Holloway and let you know what he says.	I'll buy Holloway and let you know what he says.	182317449	1476888724717	1476888724821	a	65
356075	3837502	I'll bug Holloway and let you know what he says.	I'll buy Holloway and let you know what he says.	182317453	1476888724757	1476888724837	y	89
356075	3837502	I'll bug Holloway and let you know what he says.	I'll buy Holloway and let you know what he says.	182317459	1476888724893	1476888725022	s	83
356075	3837502	I'll bug Holloway and let you know what he says.	I'll buy Holloway and let you know what he says.	182317454	1476888725013	1476888725109	.	190
356075	3837516	Board meeting running long.	Board meeting running long.	182317599	1476888726694	1476888726941	SHIFT	16
356075	3837516	Board meeting running long.	Board meeting running long.	182317602	1476888726902	1476888726965	B	66
356075	3837516	Board meeting running long.	Board meeting running long.	182317606	1476888727029	1476888727110	o	79
356075	3837516	Board meeting running long.	Board meeting running long.	182317609	1476888727101	1476888727213	a	65
356075	3837516	Board meeting running long.	Board meeting running long.	182317612	1476888727237	1476888727293	r	82
356075	3837516	Board meeting running long.	Board meeting running long.	182317614	1476888727397	1476888727485	d	68
356075	3837516	Board meeting running long.	Board meeting running long.	182317651	1476888727461	1476888727605	 	32
356075	3837516	Board meeting running long.	Board meeting running long.	182317654	1476888727717	1476888727805	m	77
356075	3837516	Board meeting running long.	Board meeting running long.	182317657	1476888727821	1476888727894	e	69
356075	3837516	Board meeting running long.	Board meeting running long.	182317659	1476888727965	1476888728045	e	69
356075	3837516	Board meeting running long.	Board meeting running long.	182317660	1476888728141	1476888728229	t	84
356075	3837516	Board meeting running long.	Board meeting running long.	182317661	1476888728269	1476888728381	i	73
356075	3837516	Board meeting running long.	Board meeting running long.	182317688	1476888728325	1476888728438	n	78
356075	3837516	Board meeting running long.	Board meeting running long.	182317694	1476888728445	1476888728533	g	71
356075	3837516	Board meeting running long.	Board meeting running long.	182317700	1476888728541	1476888728629	 	32
356075	3837516	Board meeting running long.	Board meeting running long.	182317707	1476888728997	1476888729069	r	82
356075	3837516	Board meeting running long.	Board meeting running long.	182317715	1476888729133	1476888729221	u	85
356075	3837516	Board meeting running long.	Board meeting running long.	182317727	1476888729301	1476888729349	n	78
356075	3837516	Board meeting running long.	Board meeting running long.	182317743	1476888729477	1476888729533	n	78
356075	3837516	Board meeting running long.	Board meeting running long.	182317745	1476888729509	1476888729686	i	73
356075	3837516	Board meeting running long.	Board meeting running long.	182317748	1476888729645	1476888729750	n	78
356075	3837516	Board meeting running long.	Board meeting running long.	182317752	1476888729798	1476888729854	g	71
356075	3837516	Board meeting running long.	Board meeting running long.	182317757	1476888729933	1476888730021	 	32
356075	3837516	Board meeting running long.	Board meeting running long.	182317773	1476888730125	1476888730181	l	76
356075	3837516	Board meeting running long.	Board meeting running long.	182317778	1476888730269	1476888730373	o	79
356075	3837516	Board meeting running long.	Board meeting running long.	182317783	1476888730341	1476888730413	n	78
356075	3837516	Board meeting running long.	Board meeting running long.	182317790	1476888730414	1476888730477	g	71
356075	3837516	Board meeting running long.	Board meeting running long.	182317795	1476888730517	1476888730597	.	190
356075	3837528	As for your second question, bench Mike Anderson.	As for your second question, bench Mike Anderson.	182317895	1476888732029	1476888732245	SHIFT	16
356075	3837528	As for your second question, bench Mike Anderson.	As for your second question, bench Mike Anderson.	182317892	1476888732117	1476888732213	A	65
356075	3837528	As for your second question, bench Mike Anderson.	As for your second question, bench Mike Anderson.	182317898	1476888732301	1476888732373	s	83
356075	3837528	As for your second question, bench Mike Anderson.	As for your second question, bench Mike Anderson.	182317901	1476888732429	1476888732509	 	32
356075	3837528	As for your second question, bench Mike Anderson.	As for your second question, bench Mike Anderson.	182317904	1476888732517	1476888732613	f	70
356075	3837528	As for your second question, bench Mike Anderson.	As for your second question, bench Mike Anderson.	182317907	1476888732645	1476888732717	o	79
356075	3837528	As for your second question, bench Mike Anderson.	As for your second question, bench Mike Anderson.	182317919	1476888732757	1476888732845	r	82
356075	3837528	As for your second question, bench Mike Anderson.	As for your second question, bench Mike Anderson.	182317921	1476888732846	1476888732917	 	32
356075	3837528	As for your second question, bench Mike Anderson.	As for your second question, bench Mike Anderson.	182317926	1476888733045	1476888733125	y	89
356075	3837528	As for your second question, bench Mike Anderson.	As for your second question, bench Mike Anderson.	182317929	1476888733174	1476888733294	o	79
356075	3837528	As for your second question, bench Mike Anderson.	As for your second question, bench Mike Anderson.	182317975	1476888733253	1476888733366	u	85
356075	3837528	As for your second question, bench Mike Anderson.	As for your second question, bench Mike Anderson.	182317977	1476888733373	1476888733485	r	82
356075	3837528	As for your second question, bench Mike Anderson.	As for your second question, bench Mike Anderson.	182317980	1476888733557	1476888733629	 	32
356075	3837528	As for your second question, bench Mike Anderson.	As for your second question, bench Mike Anderson.	182317983	1476888733653	1476888733733	s	83
356075	3837528	As for your second question, bench Mike Anderson.	As for your second question, bench Mike Anderson.	182317986	1476888733830	1476888733861	e	69
356075	3837528	As for your second question, bench Mike Anderson.	As for your second question, bench Mike Anderson.	182317989	1476888733974	1476888734045	c	67
356075	3837528	As for your second question, bench Mike Anderson.	As for your second question, bench Mike Anderson.	182318021	1476888734048	1476888734149	o	79
356075	3837528	As for your second question, bench Mike Anderson.	As for your second question, bench Mike Anderson.	182318028	1476888734101	1476888734189	n	78
356075	3837528	As for your second question, bench Mike Anderson.	As for your second question, bench Mike Anderson.	182318034	1476888734197	1476888734285	d	68
356075	3837528	As for your second question, bench Mike Anderson.	As for your second question, bench Mike Anderson.	182318039	1476888734293	1476888734373	 	32
356075	3837528	As for your second question, bench Mike Anderson.	As for your second question, bench Mike Anderson.	182318043	1476888734413	1476888734493	q	81
356075	3837528	As for your second question, bench Mike Anderson.	As for your second question, bench Mike Anderson.	182318053	1476888734549	1476888734613	u	85
356075	3837528	As for your second question, bench Mike Anderson.	As for your second question, bench Mike Anderson.	182318057	1476888734645	1476888734741	e	69
356075	3837528	As for your second question, bench Mike Anderson.	As for your second question, bench Mike Anderson.	182318062	1476888734710	1476888734789	s	83
356075	3837528	As for your second question, bench Mike Anderson.	As for your second question, bench Mike Anderson.	182318067	1476888734869	1476888734949	t	84
356075	3837528	As for your second question, bench Mike Anderson.	As for your second question, bench Mike Anderson.	182318121	1476888734933	1476888735029	i	73
356075	3837528	As for your second question, bench Mike Anderson.	As for your second question, bench Mike Anderson.	182318128	1476888734989	1476888735085	o	79
356075	3837528	As for your second question, bench Mike Anderson.	As for your second question, bench Mike Anderson.	182318136	1476888735173	1476888735261	n	78
356075	3837528	As for your second question, bench Mike Anderson.	As for your second question, bench Mike Anderson.	182318143	1476888735366	1476888735430	,	188
356075	3837528	As for your second question, bench Mike Anderson.	As for your second question, bench Mike Anderson.	182318148	1476888735461	1476888735589	 	32
356075	3837528	As for your second question, bench Mike Anderson.	As for your second question, bench Mike Anderson.	182318157	1476888735725	1476888735837	b	66
356075	3837528	As for your second question, bench Mike Anderson.	As for your second question, bench Mike Anderson.	182318205	1476888735941	1476888736069	e	69
356075	3837528	As for your second question, bench Mike Anderson.	As for your second question, bench Mike Anderson.	182318208	1476888736157	1476888736237	n	78
356075	3837528	As for your second question, bench Mike Anderson.	As for your second question, bench Mike Anderson.	182318214	1476888736301	1476888736397	c	67
356075	3837528	As for your second question, bench Mike Anderson.	As for your second question, bench Mike Anderson.	182318217	1476888736405	1476888736509	h	72
356075	3837528	As for your second question, bench Mike Anderson.	As for your second question, bench Mike Anderson.	182318222	1476888736606	1476888736693	 	32
356075	3837528	As for your second question, bench Mike Anderson.	As for your second question, bench Mike Anderson.	182318293	1476888736766	1476888736926	SHIFT	16
356075	3837528	As for your second question, bench Mike Anderson.	As for your second question, bench Mike Anderson.	182318300	1476888736845	1476888736949	M	77
356075	3837528	As for your second question, bench Mike Anderson.	As for your second question, bench Mike Anderson.	182318305	1476888737077	1476888737205	i	73
356075	3837528	As for your second question, bench Mike Anderson.	As for your second question, bench Mike Anderson.	182318311	1476888737397	1476888737517	k	75
356075	3837528	As for your second question, bench Mike Anderson.	As for your second question, bench Mike Anderson.	182318319	1476888737541	1476888737661	e	69
356075	3837528	As for your second question, bench Mike Anderson.	As for your second question, bench Mike Anderson.	182318327	1476888737685	1476888737765	 	32
356075	3837528	As for your second question, bench Mike Anderson.	As for your second question, bench Mike Anderson.	182318356	1476888737869	1476888738029	SHIFT	16
356075	3837528	As for your second question, bench Mike Anderson.	As for your second question, bench Mike Anderson.	182318359	1476888737965	1476888738045	A	65
356075	3837528	As for your second question, bench Mike Anderson.	As for your second question, bench Mike Anderson.	182318367	1476888738101	1476888738166	n	78
356075	3837528	As for your second question, bench Mike Anderson.	As for your second question, bench Mike Anderson.	182318372	1476888738174	1476888738277	d	68
356075	3837528	As for your second question, bench Mike Anderson.	As for your second question, bench Mike Anderson.	182318377	1476888738301	1476888738413	e	69
356075	3837528	As for your second question, bench Mike Anderson.	As for your second question, bench Mike Anderson.	182318402	1476888738389	1476888738461	r	82
356075	3837528	As for your second question, bench Mike Anderson.	As for your second question, bench Mike Anderson.	182318405	1476888738533	1476888738613	s	83
356075	3837528	As for your second question, bench Mike Anderson.	As for your second question, bench Mike Anderson.	182318412	1476888738573	1476888738661	o	79
356075	3837528	As for your second question, bench Mike Anderson.	As for your second question, bench Mike Anderson.	182318417	1476888738621	1476888738709	n	78
356075	3837528	As for your second question, bench Mike Anderson.	As for your second question, bench Mike Anderson.	182318421	1476888738805	1476888738909	.	190
356075	3837541	Might include proposals with respect to Alaska.	Might include proposals with respect to Alaska.	182318523	1476888740485	1476888740693	SHIFT	16
356075	3837541	Might include proposals with respect to Alaska.	Might include proposals with respect to Alaska.	182318527	1476888740613	1476888740701	M	77
356075	3837541	Might include proposals with respect to Alaska.	Might include proposals with respect to Alaska.	182318535	1476888740846	1476888740941	i	73
356075	3837541	Might include proposals with respect to Alaska.	Might include proposals with respect to Alaska.	182318542	1476888740949	1476888741069	g	71
356075	3837541	Might include proposals with respect to Alaska.	Might include proposals with respect to Alaska.	182318547	1476888741061	1476888741149	h	72
356075	3837541	Might include proposals with respect to Alaska.	Might include proposals with respect to Alaska.	182318551	1476888741213	1476888741341	t	84
356075	3837541	Might include proposals with respect to Alaska.	Might include proposals with respect to Alaska.	182318577	1476888741413	1476888741501	 	32
356075	3837541	Might include proposals with respect to Alaska.	Might include proposals with respect to Alaska.	182318583	1476888741605	1476888741758	i	73
356075	3837541	Might include proposals with respect to Alaska.	Might include proposals with respect to Alaska.	182318591	1476888741693	1476888741806	n	78
356075	3837541	Might include proposals with respect to Alaska.	Might include proposals with respect to Alaska.	182318596	1476888741798	1476888741909	c	67
356075	3837541	Might include proposals with respect to Alaska.	Might include proposals with respect to Alaska.	182318601	1476888741910	1476888742013	l	76
356075	3837541	Might include proposals with respect to Alaska.	Might include proposals with respect to Alaska.	182318651	1476888741989	1476888742093	u	85
356075	3837541	Might include proposals with respect to Alaska.	Might include proposals with respect to Alaska.	182318656	1476888742077	1476888742149	d	68
356075	3837541	Might include proposals with respect to Alaska.	Might include proposals with respect to Alaska.	182318661	1476888742245	1476888742301	e	69
356075	3837541	Might include proposals with respect to Alaska.	Might include proposals with respect to Alaska.	182318662	1476888742341	1476888742437	 	32
356075	3837541	Might include proposals with respect to Alaska.	Might include proposals with respect to Alaska.	182318665	1476888742557	1476888742637	p	80
356075	3837541	Might include proposals with respect to Alaska.	Might include proposals with respect to Alaska.	182318667	1476888742733	1476888742877	r	82
356075	3837541	Might include proposals with respect to Alaska.	Might include proposals with respect to Alaska.	182318690	1476888742917	1476888743013	o	79
356075	3837541	Might include proposals with respect to Alaska.	Might include proposals with respect to Alaska.	182318694	1476888743133	1476888743285	p	80
356075	3837541	Might include proposals with respect to Alaska.	Might include proposals with respect to Alaska.	182318699	1476888743254	1476888743406	o	79
356075	3837541	Might include proposals with respect to Alaska.	Might include proposals with respect to Alaska.	182318705	1476888743406	1476888743493	s	83
356075	3837541	Might include proposals with respect to Alaska.	Might include proposals with respect to Alaska.	182318710	1476888743557	1476888743662	a	65
356075	3837541	Might include proposals with respect to Alaska.	Might include proposals with respect to Alaska.	182318741	1476888743686	1476888743813	l	76
356075	3837541	Might include proposals with respect to Alaska.	Might include proposals with respect to Alaska.	182318745	1476888743853	1476888743949	s	83
356075	3837541	Might include proposals with respect to Alaska.	Might include proposals with respect to Alaska.	182318753	1476888743973	1476888744069	 	32
356075	3837541	Might include proposals with respect to Alaska.	Might include proposals with respect to Alaska.	182318758	1476888744102	1476888744189	w	87
356075	3837541	Might include proposals with respect to Alaska.	Might include proposals with respect to Alaska.	182318764	1476888744197	1476888744301	i	73
356075	3837541	Might include proposals with respect to Alaska.	Might include proposals with respect to Alaska.	182318807	1476888744333	1476888744421	t	84
356075	3837541	Might include proposals with respect to Alaska.	Might include proposals with respect to Alaska.	182318815	1476888744429	1476888744509	h	72
356075	3837541	Might include proposals with respect to Alaska.	Might include proposals with respect to Alaska.	182318820	1476888744613	1476888744741	 	32
356075	3837541	Might include proposals with respect to Alaska.	Might include proposals with respect to Alaska.	182318825	1476888744765	1476888744917	r	82
356075	3837541	Might include proposals with respect to Alaska.	Might include proposals with respect to Alaska.	182318884	1476888744869	1476888744965	e	69
356075	3837541	Might include proposals with respect to Alaska.	Might include proposals with respect to Alaska.	182318887	1476888745077	1476888745149	s	83
356075	3837541	Might include proposals with respect to Alaska.	Might include proposals with respect to Alaska.	182318893	1476888745125	1476888745334	p	80
356075	3837541	Might include proposals with respect to Alaska.	Might include proposals with respect to Alaska.	182318898	1476888745325	1476888745445	o	79
356075	3837541	Might include proposals with respect to Alaska.	Might include proposals with respect to Alaska.	182318903	1476888745549	1476888745646	e	69
356075	3837541	Might include proposals with respect to Alaska.	Might include proposals with respect to Alaska.	182318906	1476888745821	1476888745869	BKSP	8
356075	3837541	Might include proposals with respect to Alaska.	Might include proposals with respect to Alaska.	182318909	1476888745949	1476888746021	BKSP	8
356075	3837541	Might include proposals with respect to Alaska.	Might include proposals with respect to Alaska.	182318951	1476888745989	1476888746061	e	69
356075	3837541	Might include proposals with respect to Alaska.	Might include proposals with respect to Alaska.	182318958	1476888746165	1476888746229	c	67
356075	3837541	Might include proposals with respect to Alaska.	Might include proposals with respect to Alaska.	182318964	1476888746365	1476888746413	t	84
356075	3837541	Might include proposals with respect to Alaska.	Might include proposals with respect to Alaska.	182318973	1476888746461	1476888746549	 	32
356075	3837541	Might include proposals with respect to Alaska.	Might include proposals with respect to Alaska.	182318980	1476888746565	1476888746645	t	84
356075	3837541	Might include proposals with respect to Alaska.	Might include proposals with respect to Alaska.	182318985	1476888746653	1476888746709	o	79
356075	3837541	Might include proposals with respect to Alaska.	Might include proposals with respect to Alaska.	182319049	1476888746789	1476888746861	 	32
356075	3837541	Might include proposals with respect to Alaska.	Might include proposals with respect to Alaska.	182319055	1476888746901	1476888747045	SHIFT	16
356075	3837541	Might include proposals with respect to Alaska.	Might include proposals with respect to Alaska.	182319061	1476888747005	1476888747093	A	65
356075	3837541	Might include proposals with respect to Alaska.	Might include proposals with respect to Alaska.	182319064	1476888747453	1476888747573	l	76
356075	3837541	Might include proposals with respect to Alaska.	Might include proposals with respect to Alaska.	182319067	1476888747613	1476888747774	a	65
356075	3837541	Might include proposals with respect to Alaska.	Might include proposals with respect to Alaska.	182319098	1476888747741	1476888747870	s	83
356075	3837541	Might include proposals with respect to Alaska.	Might include proposals with respect to Alaska.	182319099	1476888747885	1476888747981	k	75
356075	3837541	Might include proposals with respect to Alaska.	Might include proposals with respect to Alaska.	182319100	1476888748005	1476888748117	a	65
356075	3837541	Might include proposals with respect to Alaska.	Might include proposals with respect to Alaska.	182319101	1476888748125	1476888748229	.	190
356075	3837560	I appreciate you moving so quickly on this.	I appreciate you moving so quickly on this.	182319205	1476888749765	1476888750205	SHIFT	16
356075	3837560	I appreciate you moving so quickly on this.	I appreciate you moving so quickly on this.	182319214	1476888750157	1476888750221	I	73
356075	3837560	I appreciate you moving so quickly on this.	I appreciate you moving so quickly on this.	182319220	1476888750357	1476888750413	 	32
356075	3837560	I appreciate you moving so quickly on this.	I appreciate you moving so quickly on this.	182319229	1476888750485	1476888750573	a	65
356075	3837560	I appreciate you moving so quickly on this.	I appreciate you moving so quickly on this.	182319239	1476888750557	1476888750605	p	80
356075	3837560	I appreciate you moving so quickly on this.	I appreciate you moving so quickly on this.	182319249	1476888750685	1476888750781	p	80
356075	3837560	I appreciate you moving so quickly on this.	I appreciate you moving so quickly on this.	182319264	1476888750925	1476888750997	r	82
356075	3837560	I appreciate you moving so quickly on this.	I appreciate you moving so quickly on this.	182319268	1476888751101	1476888751182	e	69
356075	3837560	I appreciate you moving so quickly on this.	I appreciate you moving so quickly on this.	182319270	1476888751301	1476888751365	c	67
356075	3837560	I appreciate you moving so quickly on this.	I appreciate you moving so quickly on this.	182319274	1476888751413	1476888751509	i	73
356075	3837560	I appreciate you moving so quickly on this.	I appreciate you moving so quickly on this.	182319352	1476888751493	1476888751565	a	65
356075	3837560	I appreciate you moving so quickly on this.	I appreciate you moving so quickly on this.	182319358	1476888751645	1476888751781	t	84
356075	3837560	I appreciate you moving so quickly on this.	I appreciate you moving so quickly on this.	182319362	1476888751741	1476888751933	e	69
356075	3837560	I appreciate you moving so quickly on this.	I appreciate you moving so quickly on this.	182319366	1476888752133	1476888752237	 	32
356075	3837560	I appreciate you moving so quickly on this.	I appreciate you moving so quickly on this.	182319369	1476888752421	1476888752517	y	89
356075	3837560	I appreciate you moving so quickly on this.	I appreciate you moving so quickly on this.	182319374	1476888752597	1476888752709	o	79
356075	3837560	I appreciate you moving so quickly on this.	I appreciate you moving so quickly on this.	182319413	1476888752653	1476888752757	u	85
356075	3837560	I appreciate you moving so quickly on this.	I appreciate you moving so quickly on this.	182319416	1476888752885	1476888752965	 	32
356075	3837560	I appreciate you moving so quickly on this.	I appreciate you moving so quickly on this.	182319418	1476888753069	1476888753173	m	77
356075	3837560	I appreciate you moving so quickly on this.	I appreciate you moving so quickly on this.	182319420	1476888753149	1476888753253	o	79
356075	3837560	I appreciate you moving so quickly on this.	I appreciate you moving so quickly on this.	182319422	1476888753301	1476888753365	b	66
356075	3837560	I appreciate you moving so quickly on this.	I appreciate you moving so quickly on this.	182319425	1476888753389	1476888753581	i	73
356075	3837560	I appreciate you moving so quickly on this.	I appreciate you moving so quickly on this.	182319554	1476888753477	1476888753670	n	78
356075	3837560	I appreciate you moving so quickly on this.	I appreciate you moving so quickly on this.	182319559	1476888753877	1476888754005	g	71
356075	3837560	I appreciate you moving so quickly on this.	I appreciate you moving so quickly on this.	182319567	1476888754158	1476888754214	BKSP	8
356075	3837560	I appreciate you moving so quickly on this.	I appreciate you moving so quickly on this.	182319572	1476888754301	1476888754357	BKSP	8
356075	3837560	I appreciate you moving so quickly on this.	I appreciate you moving so quickly on this.	182319577	1476888754445	1476888754525	BKSP	8
356075	3837560	I appreciate you moving so quickly on this.	I appreciate you moving so quickly on this.	182319581	1476888754605	1476888754725	BKSP	8
356075	3837560	I appreciate you moving so quickly on this.	I appreciate you moving so quickly on this.	182319584	1476888755213	1476888755285	v	86
356075	3837560	I appreciate you moving so quickly on this.	I appreciate you moving so quickly on this.	182319586	1476888755309	1476888755405	i	73
356075	3837560	I appreciate you moving so quickly on this.	I appreciate you moving so quickly on this.	182319587	1476888755358	1476888755462	n	78
356075	3837560	I appreciate you moving so quickly on this.	I appreciate you moving so quickly on this.	182319588	1476888755469	1476888755525	g	71
356075	3837560	I appreciate you moving so quickly on this.	I appreciate you moving so quickly on this.	182319592	1476888755557	1476888755637	 	32
356075	3837560	I appreciate you moving so quickly on this.	I appreciate you moving so quickly on this.	182319594	1476888755677	1476888755758	s	83
356075	3837560	I appreciate you moving so quickly on this.	I appreciate you moving so quickly on this.	182319596	1476888755749	1476888755797	o	79
356075	3837560	I appreciate you moving so quickly on this.	I appreciate you moving so quickly on this.	182319599	1476888755885	1476888755973	 	32
356075	3837560	I appreciate you moving so quickly on this.	I appreciate you moving so quickly on this.	182319605	1476888756013	1476888756085	q	81
356075	3837560	I appreciate you moving so quickly on this.	I appreciate you moving so quickly on this.	182319616	1476888756125	1476888756245	u	85
356075	3837560	I appreciate you moving so quickly on this.	I appreciate you moving so quickly on this.	182319622	1476888756213	1476888756309	i	73
356075	3837560	I appreciate you moving so quickly on this.	I appreciate you moving so quickly on this.	182319629	1476888756325	1476888756413	c	67
356075	3837560	I appreciate you moving so quickly on this.	I appreciate you moving so quickly on this.	182319776	1476888756437	1476888756493	j	75
356075	3837560	I appreciate you moving so quickly on this.	I appreciate you moving so quickly on this.	182319782	1476888756893	1476888756965	BKSP	8
356075	3837560	I appreciate you moving so quickly on this.	I appreciate you moving so quickly on this.	182319789	1476888757061	1476888757125	BKSP	8
356075	3837560	I appreciate you moving so quickly on this.	I appreciate you moving so quickly on this.	182319794	1476888757446	1476888757557	k	75
356075	3837560	I appreciate you moving so quickly on this.	I appreciate you moving so quickly on this.	182319798	1476888757621	1476888757701	l	76
356075	3837560	I appreciate you moving so quickly on this.	I appreciate you moving so quickly on this.	182319802	1476888757765	1476888757837	y	89
356075	3837560	I appreciate you moving so quickly on this.	I appreciate you moving so quickly on this.	182319806	1476888757829	1476888757909	 	32
356075	3837560	I appreciate you moving so quickly on this.	I appreciate you moving so quickly on this.	182319811	1476888757997	1476888758093	o	79
356075	3837560	I appreciate you moving so quickly on this.	I appreciate you moving so quickly on this.	182319823	1476888758061	1476888758133	n	78
356075	3837560	I appreciate you moving so quickly on this.	I appreciate you moving so quickly on this.	182319827	1476888758229	1476888758293	 	32
356075	3837560	I appreciate you moving so quickly on this.	I appreciate you moving so quickly on this.	182319833	1476888758301	1476888758365	t	84
356075	3837560	I appreciate you moving so quickly on this.	I appreciate you moving so quickly on this.	182319839	1476888758397	1476888758477	h	72
356075	3837560	I appreciate you moving so quickly on this.	I appreciate you moving so quickly on this.	182319849	1476888758445	1476888758541	i	73
356075	3837560	I appreciate you moving so quickly on this.	I appreciate you moving so quickly on this.	182319860	1476888758549	1476888758629	s	83
356075	3837577	The new radio minister was head of the propaganda department.	The new radio minister was head of the propaganda department.	182320035	1476888760085	1476888760278	SHIFT	16
356075	3837577	The new radio minister was head of the propaganda department.	The new radio minister was head of the propaganda department.	182320040	1476888760197	1476888760285	T	84
356075	3837577	The new radio minister was head of the propaganda department.	The new radio minister was head of the propaganda department.	182320046	1476888760325	1476888760389	h	72
356075	3837577	The new radio minister was head of the propaganda department.	The new radio minister was head of the propaganda department.	182320053	1476888760437	1476888760517	e	69
356075	3837577	The new radio minister was head of the propaganda department.	The new radio minister was head of the propaganda department.	182320061	1476888760533	1476888760621	 	32
356075	3837577	The new radio minister was head of the propaganda department.	The new radio minister was head of the propaganda department.	182320068	1476888760717	1476888760773	n	78
356075	3837577	The new radio minister was head of the propaganda department.	The new radio minister was head of the propaganda department.	182320092	1476888760789	1476888760910	e	69
356075	3837577	The new radio minister was head of the propaganda department.	The new radio minister was head of the propaganda department.	182320095	1476888760853	1476888760957	w	87
356075	3837577	The new radio minister was head of the propaganda department.	The new radio minister was head of the propaganda department.	182320099	1476888760934	1476888761037	 	32
356075	3837577	The new radio minister was head of the propaganda department.	The new radio minister was head of the propaganda department.	182320104	1476888761061	1476888761133	r	82
356075	3837577	The new radio minister was head of the propaganda department.	The new radio minister was head of the propaganda department.	182320110	1476888761173	1476888761301	a	65
356075	3837577	The new radio minister was head of the propaganda department.	The new radio minister was head of the propaganda department.	182320177	1476888761317	1476888761437	d	68
356075	3837577	The new radio minister was head of the propaganda department.	The new radio minister was head of the propaganda department.	182320182	1476888761373	1476888761509	i	73
356075	3837577	The new radio minister was head of the propaganda department.	The new radio minister was head of the propaganda department.	182320187	1476888761461	1476888761565	o	79
356075	3837577	The new radio minister was head of the propaganda department.	The new radio minister was head of the propaganda department.	182320192	1476888761677	1476888761773	 	32
356075	3837577	The new radio minister was head of the propaganda department.	The new radio minister was head of the propaganda department.	182320197	1476888761886	1476888762029	m	77
356075	3837577	The new radio minister was head of the propaganda department.	The new radio minister was head of the propaganda department.	182320245	1476888761981	1476888762173	i	73
356075	3837577	The new radio minister was head of the propaganda department.	The new radio minister was head of the propaganda department.	182320246	1476888762189	1476888762341	n	78
356075	3837577	The new radio minister was head of the propaganda department.	The new radio minister was head of the propaganda department.	182320249	1476888762293	1476888762429	i	73
356075	3837577	The new radio minister was head of the propaganda department.	The new radio minister was head of the propaganda department.	182320252	1476888762437	1476888762517	s	83
356075	3837577	The new radio minister was head of the propaganda department.	The new radio minister was head of the propaganda department.	182320256	1476888762605	1476888762686	t	84
356075	3837577	The new radio minister was head of the propaganda department.	The new radio minister was head of the propaganda department.	182320260	1476888762725	1476888762885	e	69
356075	3837577	The new radio minister was head of the propaganda department.	The new radio minister was head of the propaganda department.	182320316	1476888762838	1476888762957	r	82
356075	3837577	The new radio minister was head of the propaganda department.	The new radio minister was head of the propaganda department.	182320322	1476888762934	1476888763053	 	32
356075	3837577	The new radio minister was head of the propaganda department.	The new radio minister was head of the propaganda department.	182320328	1476888763157	1476888763301	w	87
356075	3837577	The new radio minister was head of the propaganda department.	The new radio minister was head of the propaganda department.	182320333	1476888763261	1476888763469	a	65
356075	3837577	The new radio minister was head of the propaganda department.	The new radio minister was head of the propaganda department.	182320338	1476888763429	1476888763565	s	83
356075	3837577	The new radio minister was head of the propaganda department.	The new radio minister was head of the propaganda department.	182320342	1476888763573	1476888763661	 	32
356075	3837577	The new radio minister was head of the propaganda department.	The new radio minister was head of the propaganda department.	182320379	1476888763773	1476888763878	h	72
356075	3837577	The new radio minister was head of the propaganda department.	The new radio minister was head of the propaganda department.	182320386	1476888763869	1476888763973	e	69
356075	3837577	The new radio minister was head of the propaganda department.	The new radio minister was head of the propaganda department.	182320398	1476888763941	1476888764109	a	65
356075	3837577	The new radio minister was head of the propaganda department.	The new radio minister was head of the propaganda department.	182320410	1476888764085	1476888764197	d	68
356075	3837577	The new radio minister was head of the propaganda department.	The new radio minister was head of the propaganda department.	182320444	1476888764174	1476888764253	 	32
356075	3837577	The new radio minister was head of the propaganda department.	The new radio minister was head of the propaganda department.	182320450	1476888764349	1476888764413	o	79
356075	3837577	The new radio minister was head of the propaganda department.	The new radio minister was head of the propaganda department.	182320459	1476888764429	1476888764509	f	70
356075	3837577	The new radio minister was head of the propaganda department.	The new radio minister was head of the propaganda department.	182320467	1476888764533	1476888764605	 	32
356075	3837577	The new radio minister was head of the propaganda department.	The new radio minister was head of the propaganda department.	182320474	1476888764645	1476888764725	t	84
356075	3837577	The new radio minister was head of the propaganda department.	The new radio minister was head of the propaganda department.	182320478	1476888764741	1476888764821	h	72
356075	3837577	The new radio minister was head of the propaganda department.	The new radio minister was head of the propaganda department.	182320506	1476888764853	1476888764941	e	69
356075	3837577	The new radio minister was head of the propaganda department.	The new radio minister was head of the propaganda department.	182320510	1476888764909	1476888764981	 	32
356075	3837577	The new radio minister was head of the propaganda department.	The new radio minister was head of the propaganda department.	182320513	1476888765109	1476888765174	p	80
356075	3837577	The new radio minister was head of the propaganda department.	The new radio minister was head of the propaganda department.	182320518	1476888765245	1476888765342	r	82
356075	3837577	The new radio minister was head of the propaganda department.	The new radio minister was head of the propaganda department.	182320522	1476888765373	1476888765509	o	79
356075	3837577	The new radio minister was head of the propaganda department.	The new radio minister was head of the propaganda department.	182320702	1476888766085	1476888766269	p	80
356075	3837577	The new radio minister was head of the propaganda department.	The new radio minister was head of the propaganda department.	182320704	1476888766469	1476888766589	a	65
356075	3837577	The new radio minister was head of the propaganda department.	The new radio minister was head of the propaganda department.	182320707	1476888766941	1476888767021	g	71
356075	3837577	The new radio minister was head of the propaganda department.	The new radio minister was head of the propaganda department.	182320710	1476888767133	1476888767213	a	65
356075	3837577	The new radio minister was head of the propaganda department.	The new radio minister was head of the propaganda department.	182320711	1476888767245	1476888767341	n	78
356075	3837577	The new radio minister was head of the propaganda department.	The new radio minister was head of the propaganda department.	182320754	1476888767413	1476888767557	d	68
356075	3837577	The new radio minister was head of the propaganda department.	The new radio minister was head of the propaganda department.	182320759	1476888767525	1476888767654	a	65
356075	3837577	The new radio minister was head of the propaganda department.	The new radio minister was head of the propaganda department.	182320764	1476888767661	1476888767781	 	32
356075	3837577	The new radio minister was head of the propaganda department.	The new radio minister was head of the propaganda department.	182320767	1476888767909	1476888768006	d	68
356075	3837577	The new radio minister was head of the propaganda department.	The new radio minister was head of the propaganda department.	182320771	1476888768069	1476888768142	e	69
356075	3837577	The new radio minister was head of the propaganda department.	The new radio minister was head of the propaganda department.	182320803	1476888768189	1476888768277	p	80
356075	3837577	The new radio minister was head of the propaganda department.	The new radio minister was head of the propaganda department.	182320809	1476888768301	1476888768373	a	65
356075	3837577	The new radio minister was head of the propaganda department.	The new radio minister was head of the propaganda department.	182320811	1476888768413	1476888768485	r	82
356075	3837577	The new radio minister was head of the propaganda department.	The new radio minister was head of the propaganda department.	182320817	1476888768565	1476888768629	t	84
356075	3837577	The new radio minister was head of the propaganda department.	The new radio minister was head of the propaganda department.	182320825	1476888768637	1476888768717	m	77
356075	3837577	The new radio minister was head of the propaganda department.	The new radio minister was head of the propaganda department.	182320848	1476888768733	1476888768805	e	69
356075	3837577	The new radio minister was head of the propaganda department.	The new radio minister was head of the propaganda department.	182320855	1476888768813	1476888768885	n	78
356075	3837577	The new radio minister was head of the propaganda department.	The new radio minister was head of the propaganda department.	182320862	1476888768917	1476888768981	t	84
356075	3837599	Did you ever hear anything?.	Did you ever hear anything?.	182321120	1476888770557	1476888770813	SHIFT	16
356075	3837599	Did you ever hear anything?.	Did you ever hear anything?.	182321117	1476888770734	1476888770797	F	68
356075	3837599	Did you ever hear anything?.	Did you ever hear anything?.	182321126	1476888771165	1476888771301	BKSP	8
356075	3837599	Did you ever hear anything?.	Did you ever hear anything?.	182321128	1476888771413	1476888771502	i	73
356075	3837599	Did you ever hear anything?.	Did you ever hear anything?.	182321131	1476888771493	1476888771597	d	68
356075	3837599	Did you ever hear anything?.	Did you ever hear anything?.	182321133	1476888771637	1476888771717	 	32
356075	3837599	Did you ever hear anything?.	Did you ever hear anything?.	182321192	1476888771853	1476888771933	y	89
356075	3837599	Did you ever hear anything?.	Did you ever hear anything?.	182321198	1476888772013	1476888772125	o	79
356075	3837599	Did you ever hear anything?.	Did you ever hear anything?.	182321204	1476888772085	1476888772197	u	85
356075	3837599	Did you ever hear anything?.	Did you ever hear anything?.	182321210	1476888772373	1476888772469	 	32
356075	3837599	Did you ever hear anything?.	Did you ever hear anything?.	182321215	1476888772534	1476888772613	e	69
356075	3837599	Did you ever hear anything?.	Did you ever hear anything?.	182321250	1476888772685	1476888772765	v	86
356075	3837599	Did you ever hear anything?.	Did you ever hear anything?.	182321254	1476888772845	1476888772973	e	69
356075	3837599	Did you ever hear anything?.	Did you ever hear anything?.	182321259	1476888772901	1476888773029	r	82
356075	3837599	Did you ever hear anything?.	Did you ever hear anything?.	182321264	1476888773007	1476888773077	 	32
356075	3837599	Did you ever hear anything?.	Did you ever hear anything?.	182321270	1476888773189	1476888773245	h	72
356075	3837599	Did you ever hear anything?.	Did you ever hear anything?.	182321282	1476888773229	1476888773349	e	69
356075	3837599	Did you ever hear anything?.	Did you ever hear anything?.	182321284	1476888773293	1476888773405	a	65
356075	3837599	Did you ever hear anything?.	Did you ever hear anything?.	182321289	1476888773445	1476888773517	r	82
356075	3837599	Did you ever hear anything?.	Did you ever hear anything?.	182321294	1476888773541	1476888773637	 	32
356075	3837599	Did you ever hear anything?.	Did you ever hear anything?.	182321298	1476888773670	1476888773749	a	65
356075	3837599	Did you ever hear anything?.	Did you ever hear anything?.	182321304	1476888773757	1476888773821	n	78
356075	3837599	Did you ever hear anything?.	Did you ever hear anything?.	182321319	1476888773886	1476888773949	y	89
356075	3837599	Did you ever hear anything?.	Did you ever hear anything?.	182321320	1476888774021	1476888774093	t	84
356075	3837599	Did you ever hear anything?.	Did you ever hear anything?.	182321325	1476888774053	1476888774125	h	72
356075	3837599	Did you ever hear anything?.	Did you ever hear anything?.	182321332	1476888774126	1476888774245	i	73
356075	3837599	Did you ever hear anything?.	Did you ever hear anything?.	182321405	1476888774214	1476888774293	n	78
356075	3837599	Did you ever hear anything?.	Did you ever hear anything?.	182321408	1476888774277	1476888774341	g	71
356075	3837599	Did you ever hear anything?.	Did you ever hear anything?.	182321413	1476888774421	1476888774773	SHIFT	16
356075	3837599	Did you ever hear anything?.	Did you ever hear anything?.	182321410	1476888774557	1476888774685	?	191
356075	3837608	Can you get me the Calger letter done?	Can you get me the Calger letter done?	182321594	1476888776717	1476888776941	SHIFT	16
356075	3837608	Can you get me the Calger letter done?	Can you get me the Calger letter done?	182321601	1476888776877	1476888776942	C	67
356075	3837608	Can you get me the Calger letter done?	Can you get me the Calger letter done?	182321604	1476888777029	1476888777110	a	65
356075	3837608	Can you get me the Calger letter done?	Can you get me the Calger letter done?	182321607	1476888777101	1476888777157	n	78
356075	3837608	Can you get me the Calger letter done?	Can you get me the Calger letter done?	182321609	1476888777253	1476888777325	 	32
356075	3837608	Can you get me the Calger letter done?	Can you get me the Calger letter done?	182321611	1476888777517	1476888777605	y	89
356075	3837608	Can you get me the Calger letter done?	Can you get me the Calger letter done?	182321627	1476888777685	1476888777773	o	79
356075	3837608	Can you get me the Calger letter done?	Can you get me the Calger letter done?	182321630	1476888777741	1476888777829	u	85
356075	3837608	Can you get me the Calger letter done?	Can you get me the Calger letter done?	182321632	1476888777949	1476888778029	 	32
356075	3837608	Can you get me the Calger letter done?	Can you get me the Calger letter done?	182321634	1476888778021	1476888778125	g	71
356075	3837608	Can you get me the Calger letter done?	Can you get me the Calger letter done?	182321667	1476888778110	1476888778293	e	69
356075	3837608	Can you get me the Calger letter done?	Can you get me the Calger letter done?	182321669	1476888778238	1476888778365	t	84
356075	3837608	Can you get me the Calger letter done?	Can you get me the Calger letter done?	182321672	1476888778333	1476888778413	 	32
356075	3837608	Can you get me the Calger letter done?	Can you get me the Calger letter done?	182321676	1476888778501	1476888778573	m	77
356075	3837608	Can you get me the Calger letter done?	Can you get me the Calger letter done?	182321680	1476888778581	1476888778677	e	69
356075	3837608	Can you get me the Calger letter done?	Can you get me the Calger letter done?	182321738	1476888778653	1476888778742	 	32
356075	3837608	Can you get me the Calger letter done?	Can you get me the Calger letter done?	182321746	1476888778798	1476888778933	t	84
356075	3837608	Can you get me the Calger letter done?	Can you get me the Calger letter done?	182321752	1476888778941	1476888779061	h	72
356075	3837608	Can you get me the Calger letter done?	Can you get me the Calger letter done?	182321757	1476888779101	1476888779197	e	69
356075	3837608	Can you get me the Calger letter done?	Can you get me the Calger letter done?	182321763	1476888779198	1476888779293	 	32
356075	3837608	Can you get me the Calger letter done?	Can you get me the Calger letter done?	182321765	1476888779341	1476888779477	SHIFT	16
356075	3837608	Can you get me the Calger letter done?	Can you get me the Calger letter done?	182321791	1476888779413	1476888779485	C	67
356075	3837608	Can you get me the Calger letter done?	Can you get me the Calger letter done?	182321793	1476888779549	1476888779638	a	65
356075	3837608	Can you get me the Calger letter done?	Can you get me the Calger letter done?	182321797	1476888779630	1476888779757	l	76
356075	3837608	Can you get me the Calger letter done?	Can you get me the Calger letter done?	182321802	1476888779781	1476888779869	g	71
356075	3837608	Can you get me the Calger letter done?	Can you get me the Calger letter done?	182321808	1476888780077	1476888780229	e	69
356075	3837608	Can you get me the Calger letter done?	Can you get me the Calger letter done?	182321874	1476888780165	1476888780310	r	82
356075	3837608	Can you get me the Calger letter done?	Can you get me the Calger letter done?	182321877	1476888780341	1476888780429	 	32
356075	3837608	Can you get me the Calger letter done?	Can you get me the Calger letter done?	182321878	1476888780533	1476888780621	l	76
356075	3837608	Can you get me the Calger letter done?	Can you get me the Calger letter done?	182321879	1476888780597	1476888780661	e	69
356075	3837608	Can you get me the Calger letter done?	Can you get me the Calger letter done?	182321880	1476888780717	1476888780789	t	84
356075	3837608	Can you get me the Calger letter done?	Can you get me the Calger letter done?	182321881	1476888780869	1476888780941	t	84
356075	3837608	Can you get me the Calger letter done?	Can you get me the Calger letter done?	182321956	1476888780997	1476888781141	e	69
356075	3837608	Can you get me the Calger letter done?	Can you get me the Calger letter done?	182321965	1476888781077	1476888781293	r	82
356075	3837608	Can you get me the Calger letter done?	Can you get me the Calger letter done?	182321971	1476888781318	1476888781429	 	32
356075	3837608	Can you get me the Calger letter done?	Can you get me the Calger letter done?	182321974	1476888781717	1476888781813	d	68
356075	3837608	Can you get me the Calger letter done?	Can you get me the Calger letter done?	182322006	1476888781789	1476888781925	o	79
356075	3837608	Can you get me the Calger letter done?	Can you get me the Calger letter done?	182322011	1476888781870	1476888781981	n	78
356075	3837608	Can you get me the Calger letter done?	Can you get me the Calger letter done?	182322017	1476888781941	1476888782077	e	69
356075	3837608	Can you get me the Calger letter done?	Can you get me the Calger letter done?	182322025	1476888782070	1476888782229	SHIFT	16
356075	3837608	Can you get me the Calger letter done?	Can you get me the Calger letter done?	182322032	1476888782173	1476888782269	?	191
356075	3837620	Next time ask Jim to call me.	Next time ask Jim to call me.	182322161	1476888783909	1476888784149	SHIFT	16
356075	3837620	Next time ask Jim to call me.	Next time ask Jim to call me.	182322166	1476888784062	1476888784157	N	78
356075	3837620	Next time ask Jim to call me.	Next time ask Jim to call me.	182322169	1476888784173	1476888784253	e	69
356075	3837620	Next time ask Jim to call me.	Next time ask Jim to call me.	182322175	1476888784358	1476888784421	x	88
356075	3837620	Next time ask Jim to call me.	Next time ask Jim to call me.	182322181	1476888784541	1476888784613	t	84
356075	3837620	Next time ask Jim to call me.	Next time ask Jim to call me.	182322186	1476888784621	1476888784701	 	32
356075	3837620	Next time ask Jim to call me.	Next time ask Jim to call me.	182322202	1476888784741	1476888784821	t	84
356075	3837620	Next time ask Jim to call me.	Next time ask Jim to call me.	182322207	1476888784813	1476888784917	i	73
356075	3837620	Next time ask Jim to call me.	Next time ask Jim to call me.	182322215	1476888784870	1476888784981	m	77
356075	3837620	Next time ask Jim to call me.	Next time ask Jim to call me.	182322222	1476888784966	1476888785045	e	69
356075	3837620	Next time ask Jim to call me.	Next time ask Jim to call me.	182322228	1476888785085	1476888785165	 	32
356075	3837620	Next time ask Jim to call me.	Next time ask Jim to call me.	182322254	1476888785174	1476888785310	a	65
356075	3837620	Next time ask Jim to call me.	Next time ask Jim to call me.	182322257	1476888785245	1476888785365	s	83
356075	3837620	Next time ask Jim to call me.	Next time ask Jim to call me.	182322266	1476888785302	1476888785413	k	75
356075	3837620	Next time ask Jim to call me.	Next time ask Jim to call me.	182322270	1476888785493	1476888785573	 	32
356075	3837620	Next time ask Jim to call me.	Next time ask Jim to call me.	182322274	1476888785629	1476888785949	SHIFT	16
356075	3837620	Next time ask Jim to call me.	Next time ask Jim to call me.	182322300	1476888785885	1476888785957	J	74
356075	3837620	Next time ask Jim to call me.	Next time ask Jim to call me.	182322308	1476888786061	1476888786149	i	73
356075	3837620	Next time ask Jim to call me.	Next time ask Jim to call me.	182322316	1476888786173	1476888786253	m	77
356075	3837620	Next time ask Jim to call me.	Next time ask Jim to call me.	182322327	1476888786261	1476888786333	 	32
356075	3837620	Next time ask Jim to call me.	Next time ask Jim to call me.	182322333	1476888786357	1476888786453	t	84
356075	3837620	Next time ask Jim to call me.	Next time ask Jim to call me.	182322350	1476888786437	1476888786501	o	79
356075	3837620	Next time ask Jim to call me.	Next time ask Jim to call me.	182322354	1476888786597	1476888786669	 	32
356075	3837620	Next time ask Jim to call me.	Next time ask Jim to call me.	182322357	1476888786645	1476888786734	c	67
356075	3837620	Next time ask Jim to call me.	Next time ask Jim to call me.	182322359	1476888786717	1476888786805	a	65
356075	3837620	Next time ask Jim to call me.	Next time ask Jim to call me.	182322364	1476888786781	1476888786845	l	76
356075	3837620	Next time ask Jim to call me.	Next time ask Jim to call me.	182322371	1476888786901	1476888786974	l	76
356075	3837620	Next time ask Jim to call me.	Next time ask Jim to call me.	182322380	1476888787021	1476888787117	 	32
356075	3837620	Next time ask Jim to call me.	Next time ask Jim to call me.	182322383	1476888787141	1476888787221	m	77
356075	3837620	Next time ask Jim to call me.	Next time ask Jim to call me.	182322385	1476888787237	1476888787301	e	69
356075	3837628	Ruth, here is an estimated November purchase.	Ruth, here is an estimated November purchase.	182322548	1476888788782	1476888789309	SHIFT	16
356075	3837628	Ruth, here is an estimated November purchase.	Ruth, here is an estimated November purchase.	182322552	1476888789270	1476888789333	R	82
356075	3837628	Ruth, here is an estimated November purchase.	Ruth, here is an estimated November purchase.	182322554	1476888789437	1476888789533	u	85
356075	3837628	Ruth, here is an estimated November purchase.	Ruth, here is an estimated November purchase.	182322558	1476888789573	1476888789669	t	84
356075	3837628	Ruth, here is an estimated November purchase.	Ruth, here is an estimated November purchase.	182322562	1476888789629	1476888789733	h	72
356075	3837628	Ruth, here is an estimated November purchase.	Ruth, here is an estimated November purchase.	182322564	1476888789845	1476888789941	,	188
356075	3837628	Ruth, here is an estimated November purchase.	Ruth, here is an estimated November purchase.	182322572	1476888789957	1476888790037	 	32
356075	3837628	Ruth, here is an estimated November purchase.	Ruth, here is an estimated November purchase.	182322575	1476888790069	1476888790133	h	72
356075	3837628	Ruth, here is an estimated November purchase.	Ruth, here is an estimated November purchase.	182322582	1476888790141	1476888790245	e	69
356075	3837628	Ruth, here is an estimated November purchase.	Ruth, here is an estimated November purchase.	182322585	1476888790205	1476888790349	r	82
356075	3837628	Ruth, here is an estimated November purchase.	Ruth, here is an estimated November purchase.	182322625	1476888790309	1476888790413	e	69
356075	3837628	Ruth, here is an estimated November purchase.	Ruth, here is an estimated November purchase.	182322628	1476888790357	1476888790429	 	32
356075	3837628	Ruth, here is an estimated November purchase.	Ruth, here is an estimated November purchase.	182322632	1476888790525	1476888790597	i	73
356075	3837628	Ruth, here is an estimated November purchase.	Ruth, here is an estimated November purchase.	182322634	1476888790581	1476888790693	s	83
356075	3837628	Ruth, here is an estimated November purchase.	Ruth, here is an estimated November purchase.	182322635	1476888790717	1476888790813	 	32
356075	3837628	Ruth, here is an estimated November purchase.	Ruth, here is an estimated November purchase.	182322637	1476888790837	1476888790973	a	65
356075	3837628	Ruth, here is an estimated November purchase.	Ruth, here is an estimated November purchase.	182322678	1476888791221	1476888791325	n	78
356075	3837628	Ruth, here is an estimated November purchase.	Ruth, here is an estimated November purchase.	182322679	1476888791429	1476888791541	 	32
356075	3837628	Ruth, here is an estimated November purchase.	Ruth, here is an estimated November purchase.	182322683	1476888791581	1476888791669	e	69
356075	3837628	Ruth, here is an estimated November purchase.	Ruth, here is an estimated November purchase.	182322686	1476888791766	1476888791813	s	83
356075	3837628	Ruth, here is an estimated November purchase.	Ruth, here is an estimated November purchase.	182322689	1476888791925	1476888792029	t	84
356075	3837628	Ruth, here is an estimated November purchase.	Ruth, here is an estimated November purchase.	182322707	1476888792038	1476888792158	i	73
356075	3837628	Ruth, here is an estimated November purchase.	Ruth, here is an estimated November purchase.	182322712	1476888792125	1476888792237	m	77
356075	3837628	Ruth, here is an estimated November purchase.	Ruth, here is an estimated November purchase.	182322716	1476888792206	1476888792293	a	65
356075	3837628	Ruth, here is an estimated November purchase.	Ruth, here is an estimated November purchase.	182322720	1476888792341	1476888792469	t	84
356075	3837628	Ruth, here is an estimated November purchase.	Ruth, here is an estimated November purchase.	182322769	1476888792446	1476888792517	e	69
356075	3837628	Ruth, here is an estimated November purchase.	Ruth, here is an estimated November purchase.	182322773	1476888792605	1476888792677	d	68
356075	3837628	Ruth, here is an estimated November purchase.	Ruth, here is an estimated November purchase.	182322778	1476888792685	1476888792773	 	32
356075	3837628	Ruth, here is an estimated November purchase.	Ruth, here is an estimated November purchase.	182322785	1476888792854	1476888793173	SHIFT	16
356075	3837628	Ruth, here is an estimated November purchase.	Ruth, here is an estimated November purchase.	182322791	1476888793101	1476888793174	N	78
356075	3837628	Ruth, here is an estimated November purchase.	Ruth, here is an estimated November purchase.	182322800	1476888793269	1476888793365	o	79
356075	3837628	Ruth, here is an estimated November purchase.	Ruth, here is an estimated November purchase.	182322804	1476888793389	1476888793461	v	86
356075	3837628	Ruth, here is an estimated November purchase.	Ruth, here is an estimated November purchase.	182322833	1476888793557	1476888793645	e	69
356075	3837628	Ruth, here is an estimated November purchase.	Ruth, here is an estimated November purchase.	182322835	1476888793677	1476888793757	m	77
356075	3837628	Ruth, here is an estimated November purchase.	Ruth, here is an estimated November purchase.	182322837	1476888793797	1476888793853	b	66
356075	3837628	Ruth, here is an estimated November purchase.	Ruth, here is an estimated November purchase.	182322839	1476888793941	1476888794045	e	69
356075	3837628	Ruth, here is an estimated November purchase.	Ruth, here is an estimated November purchase.	182322890	1476888794005	1476888794109	r	82
356075	3837628	Ruth, here is an estimated November purchase.	Ruth, here is an estimated November purchase.	182322895	1476888794069	1476888794149	 	32
356075	3837628	Ruth, here is an estimated November purchase.	Ruth, here is an estimated November purchase.	182322899	1476888794253	1476888794389	p	80
356075	3837628	Ruth, here is an estimated November purchase.	Ruth, here is an estimated November purchase.	182322901	1476888794374	1476888794469	u	85
356075	3837628	Ruth, here is an estimated November purchase.	Ruth, here is an estimated November purchase.	182322904	1476888794477	1476888794541	r	82
356075	3837628	Ruth, here is an estimated November purchase.	Ruth, here is an estimated November purchase.	182322908	1476888794813	1476888794893	c	67
356075	3837628	Ruth, here is an estimated November purchase.	Ruth, here is an estimated November purchase.	182322933	1476888794933	1476888794997	h	72
356075	3837628	Ruth, here is an estimated November purchase.	Ruth, here is an estimated November purchase.	182322938	1476888795037	1476888795165	a	65
356075	3837628	Ruth, here is an estimated November purchase.	Ruth, here is an estimated November purchase.	182322944	1476888795117	1476888795221	s	83
356075	3837628	Ruth, here is an estimated November purchase.	Ruth, here is an estimated November purchase.	182322951	1476888795285	1476888795397	e	69
356075	3837642	He disputed reports that Wheatley would be out four weeks.	He disputed reports that Wheatley would be out four weeks.	182323209	1476888797206	1476888797845	SHIFT	16
356075	3837642	He disputed reports that Wheatley would be out four weeks.	He disputed reports that Wheatley would be out four weeks.	182323204	1476888797693	1476888797813	H	72
356075	3837642	He disputed reports that Wheatley would be out four weeks.	He disputed reports that Wheatley would be out four weeks.	182323213	1476888798325	1476888798429	e	69
356075	3837642	He disputed reports that Wheatley would be out four weeks.	He disputed reports that Wheatley would be out four weeks.	182323221	1476888798461	1476888798581	 	32
356075	3837642	He disputed reports that Wheatley would be out four weeks.	He disputed reports that Wheatley would be out four weeks.	182323225	1476888798957	1476888799077	d	68
356075	3837642	He disputed reports that Wheatley would be out four weeks.	He disputed reports that Wheatley would be out four weeks.	182323236	1476888799117	1476888799197	i	73
356075	3837642	He disputed reports that Wheatley would be out four weeks.	He disputed reports that Wheatley would be out four weeks.	182323252	1476888799229	1476888799309	s	83
356075	3837642	He disputed reports that Wheatley would be out four weeks.	He disputed reports that Wheatley would be out four weeks.	182323254	1476888799325	1476888799469	p	80
356075	3837642	He disputed reports that Wheatley would be out four weeks.	He disputed reports that Wheatley would be out four weeks.	182323257	1476888799446	1476888799533	u	85
356075	3837642	He disputed reports that Wheatley would be out four weeks.	He disputed reports that Wheatley would be out four weeks.	182323260	1476888799557	1476888799694	t	84
356075	3837642	He disputed reports that Wheatley would be out four weeks.	He disputed reports that Wheatley would be out four weeks.	182323345	1476888799641	1476888799765	e	69
356075	3837642	He disputed reports that Wheatley would be out four weeks.	He disputed reports that Wheatley would be out four weeks.	182323347	1476888799846	1476888799941	d	68
356075	3837642	He disputed reports that Wheatley would be out four weeks.	He disputed reports that Wheatley would be out four weeks.	182323354	1476888799965	1476888800093	 	32
356075	3837642	He disputed reports that Wheatley would be out four weeks.	He disputed reports that Wheatley would be out four weeks.	182323361	1476888800190	1476888800221	r	82
356075	3837642	He disputed reports that Wheatley would be out four weeks.	He disputed reports that Wheatley would be out four weeks.	182323370	1476888800277	1476888800349	r	82
356075	3837642	He disputed reports that Wheatley would be out four weeks.	He disputed reports that Wheatley would be out four weeks.	182323381	1476888800677	1476888800781	BKSP	8
356075	3837642	He disputed reports that Wheatley would be out four weeks.	He disputed reports that Wheatley would be out four weeks.	182323388	1476888800845	1476888800958	e	69
356075	3837642	He disputed reports that Wheatley would be out four weeks.	He disputed reports that Wheatley would be out four weeks.	182323415	1476888800949	1476888801093	p	80
356075	3837642	He disputed reports that Wheatley would be out four weeks.	He disputed reports that Wheatley would be out four weeks.	182323416	1476888801045	1476888801174	o	79
356075	3837642	He disputed reports that Wheatley would be out four weeks.	He disputed reports that Wheatley would be out four weeks.	182323421	1476888801109	1476888801269	r	82
356075	3837642	He disputed reports that Wheatley would be out four weeks.	He disputed reports that Wheatley would be out four weeks.	182323423	1476888801213	1476888801341	t	84
356075	3837642	He disputed reports that Wheatley would be out four weeks.	He disputed reports that Wheatley would be out four weeks.	182323426	1476888801469	1476888801565	s	83
356075	3837642	He disputed reports that Wheatley would be out four weeks.	He disputed reports that Wheatley would be out four weeks.	182323429	1476888801589	1476888801701	 	32
356075	3837642	He disputed reports that Wheatley would be out four weeks.	He disputed reports that Wheatley would be out four weeks.	182323453	1476888801773	1476888801861	t	84
356075	3837642	He disputed reports that Wheatley would be out four weeks.	He disputed reports that Wheatley would be out four weeks.	182323458	1476888801885	1476888801965	h	72
356075	3837642	He disputed reports that Wheatley would be out four weeks.	He disputed reports that Wheatley would be out four weeks.	182323465	1476888802029	1476888802109	a	65
356075	3837642	He disputed reports that Wheatley would be out four weeks.	He disputed reports that Wheatley would be out four weeks.	182323473	1476888802165	1476888802237	t	84
356075	3837642	He disputed reports that Wheatley would be out four weeks.	He disputed reports that Wheatley would be out four weeks.	182323480	1476888802245	1476888802333	 	32
356075	3837642	He disputed reports that Wheatley would be out four weeks.	He disputed reports that Wheatley would be out four weeks.	182323539	1476888802389	1476888802621	SHIFT	16
356075	3837642	He disputed reports that Wheatley would be out four weeks.	He disputed reports that Wheatley would be out four weeks.	182323533	1476888802509	1476888802613	W	87
356075	3837642	He disputed reports that Wheatley would be out four weeks.	He disputed reports that Wheatley would be out four weeks.	182323546	1476888802701	1476888802773	h	72
356075	3837642	He disputed reports that Wheatley would be out four weeks.	He disputed reports that Wheatley would be out four weeks.	182323553	1476888803029	1476888803173	e	69
356075	3837642	He disputed reports that Wheatley would be out four weeks.	He disputed reports that Wheatley would be out four weeks.	182323558	1476888803134	1476888803238	a	65
356075	3837642	He disputed reports that Wheatley would be out four weeks.	He disputed reports that Wheatley would be out four weeks.	182323564	1476888803326	1476888803381	t	84
356075	3837642	He disputed reports that Wheatley would be out four weeks.	He disputed reports that Wheatley would be out four weeks.	182323668	1476888803429	1476888803565	l	76
356075	3837642	He disputed reports that Wheatley would be out four weeks.	He disputed reports that Wheatley would be out four weeks.	182323670	1476888803645	1476888803749	y	89
356075	3837642	He disputed reports that Wheatley would be out four weeks.	He disputed reports that Wheatley would be out four weeks.	182323676	1476888803806	1476888803909	 	32
356075	3837642	He disputed reports that Wheatley would be out four weeks.	He disputed reports that Wheatley would be out four weeks.	182323680	1476888804285	1476888804341	BKSP	8
356075	3837642	He disputed reports that Wheatley would be out four weeks.	He disputed reports that Wheatley would be out four weeks.	182323688	1476888804446	1476888804509	BKSP	8
356075	3837642	He disputed reports that Wheatley would be out four weeks.	He disputed reports that Wheatley would be out four weeks.	182323694	1476888804597	1476888804653	BKSP	8
356075	3837642	He disputed reports that Wheatley would be out four weeks.	He disputed reports that Wheatley would be out four weeks.	182323703	1476888805173	1476888805294	l	76
356075	3837642	He disputed reports that Wheatley would be out four weeks.	He disputed reports that Wheatley would be out four weeks.	182323754	1476888805285	1476888805373	e	69
356075	3837642	He disputed reports that Wheatley would be out four weeks.	He disputed reports that Wheatley would be out four weeks.	182323758	1476888805685	1476888805805	y	89
356075	3837642	He disputed reports that Wheatley would be out four weeks.	He disputed reports that Wheatley would be out four weeks.	182323764	1476888805909	1476888805997	 	32
356075	3837642	He disputed reports that Wheatley would be out four weeks.	He disputed reports that Wheatley would be out four weeks.	182323769	1476888806053	1476888806125	w	87
356075	3837642	He disputed reports that Wheatley would be out four weeks.	He disputed reports that Wheatley would be out four weeks.	182323775	1476888806109	1476888806229	o	79
356075	3837642	He disputed reports that Wheatley would be out four weeks.	He disputed reports that Wheatley would be out four weeks.	182323832	1476888806197	1476888806293	u	85
356075	3837642	He disputed reports that Wheatley would be out four weeks.	He disputed reports that Wheatley would be out four weeks.	182323839	1476888806341	1476888806429	l	76
356075	3837642	He disputed reports that Wheatley would be out four weeks.	He disputed reports that Wheatley would be out four weeks.	182323847	1476888806485	1476888806565	d	68
356075	3837642	He disputed reports that Wheatley would be out four weeks.	He disputed reports that Wheatley would be out four weeks.	182323853	1476888806581	1476888806701	 	32
356075	3837642	He disputed reports that Wheatley would be out four weeks.	He disputed reports that Wheatley would be out four weeks.	182323861	1476888806805	1476888806901	b	66
356075	3837642	He disputed reports that Wheatley would be out four weeks.	He disputed reports that Wheatley would be out four weeks.	182323867	1476888806990	1476888807093	e	69
356075	3837642	He disputed reports that Wheatley would be out four weeks.	He disputed reports that Wheatley would be out four weeks.	182323909	1476888807397	1476888807493	 	32
356075	3837642	He disputed reports that Wheatley would be out four weeks.	He disputed reports that Wheatley would be out four weeks.	182323913	1476888807605	1476888807757	o	79
356075	3837642	He disputed reports that Wheatley would be out four weeks.	He disputed reports that Wheatley would be out four weeks.	182323916	1476888807701	1476888807813	u	85
356075	3837642	He disputed reports that Wheatley would be out four weeks.	He disputed reports that Wheatley would be out four weeks.	182323919	1476888807861	1476888807997	t	84
356075	3837642	He disputed reports that Wheatley would be out four weeks.	He disputed reports that Wheatley would be out four weeks.	182323922	1476888808125	1476888808237	 	32
356075	3837642	He disputed reports that Wheatley would be out four weeks.	He disputed reports that Wheatley would be out four weeks.	182323966	1476888808293	1476888808405	f	70
356075	3837642	He disputed reports that Wheatley would be out four weeks.	He disputed reports that Wheatley would be out four weeks.	182323970	1476888808454	1476888808589	o	79
356075	3837642	He disputed reports that Wheatley would be out four weeks.	He disputed reports that Wheatley would be out four weeks.	182323973	1476888808621	1476888808725	r	82
356075	3837642	He disputed reports that Wheatley would be out four weeks.	He disputed reports that Wheatley would be out four weeks.	182323977	1476888808949	1476888809093	BKSP	8
356075	3837642	He disputed reports that Wheatley would be out four weeks.	He disputed reports that Wheatley would be out four weeks.	182323979	1476888809069	1476888809189	u	85
356075	3837642	He disputed reports that Wheatley would be out four weeks.	He disputed reports that Wheatley would be out four weeks.	182323980	1476888809221	1476888809301	r	82
356075	3837642	He disputed reports that Wheatley would be out four weeks.	He disputed reports that Wheatley would be out four weeks.	182323997	1476888809333	1476888809429	 	32
356075	3837642	He disputed reports that Wheatley would be out four weeks.	He disputed reports that Wheatley would be out four weeks.	182324002	1476888809493	1476888809573	w	87
356075	3837642	He disputed reports that Wheatley would be out four weeks.	He disputed reports that Wheatley would be out four weeks.	182324009	1476888809661	1476888809709	e	69
356075	3837642	He disputed reports that Wheatley would be out four weeks.	He disputed reports that Wheatley would be out four weeks.	182324014	1476888809789	1476888809869	e	69
356075	3837642	He disputed reports that Wheatley would be out four weeks.	He disputed reports that Wheatley would be out four weeks.	182324019	1476888809910	1476888810005	k	75
356075	3837642	He disputed reports that Wheatley would be out four weeks.	He disputed reports that Wheatley would be out four weeks.	182324020	1476888810030	1476888810118	s	83
356075	3837667	I wonder if RBS is another institution which could move quickly.	I wonder if RBS is another institution which could move quickly.	182324160	1476888811501	1476888811781	SHIFT	16
356075	3837667	I wonder if RBS is another institution which could move quickly.	I wonder if RBS is another institution which could move quickly.	182324156	1476888811653	1476888811749	I	73
356075	3837667	I wonder if RBS is another institution which could move quickly.	I wonder if RBS is another institution which could move quickly.	182324164	1476888811885	1476888811949	 	32
356075	3837667	I wonder if RBS is another institution which could move quickly.	I wonder if RBS is another institution which could move quickly.	182324169	1476888812013	1476888812126	w	87
356075	3837667	I wonder if RBS is another institution which could move quickly.	I wonder if RBS is another institution which could move quickly.	182324175	1476888812117	1476888812253	i	73
356075	3837667	I wonder if RBS is another institution which could move quickly.	I wonder if RBS is another institution which could move quickly.	182324229	1476888812205	1476888812269	n	78
356075	3837667	I wonder if RBS is another institution which could move quickly.	I wonder if RBS is another institution which could move quickly.	182324233	1476888812477	1476888812525	BKSP	8
356075	3837667	I wonder if RBS is another institution which could move quickly.	I wonder if RBS is another institution which could move quickly.	182324240	1476888812621	1476888812685	BKSP	8
356075	3837667	I wonder if RBS is another institution which could move quickly.	I wonder if RBS is another institution which could move quickly.	182324243	1476888812781	1476888812901	o	79
356075	3837667	I wonder if RBS is another institution which could move quickly.	I wonder if RBS is another institution which could move quickly.	182324246	1476888812861	1476888812973	n	78
356075	3837667	I wonder if RBS is another institution which could move quickly.	I wonder if RBS is another institution which could move quickly.	182324248	1476888812917	1476888813029	d	68
356075	3837667	I wonder if RBS is another institution which could move quickly.	I wonder if RBS is another institution which could move quickly.	182324252	1476888813021	1476888813173	e	69
356075	3837667	I wonder if RBS is another institution which could move quickly.	I wonder if RBS is another institution which could move quickly.	182324294	1476888813133	1476888813229	 	82
356075	3837667	I wonder if RBS is another institution which could move quickly.	I wonder if RBS is another institution which could move quickly.	182324298	1476888813357	1476888813469	i	73
356075	3837667	I wonder if RBS is another institution which could move quickly.	I wonder if RBS is another institution which could move quickly.	182324301	1476888813461	1476888813581	f	70
356075	3837667	I wonder if RBS is another institution which could move quickly.	I wonder if RBS is another institution which could move quickly.	182324304	1476888813589	1476888813669	 	32
356075	3837667	I wonder if RBS is another institution which could move quickly.	I wonder if RBS is another institution which could move quickly.	182324348	1476888813717	1476888814509	SHIFT	16
356075	3837667	I wonder if RBS is another institution which could move quickly.	I wonder if RBS is another institution which could move quickly.	182324308	1476888813854	1476888813973	R	82
356075	3837667	I wonder if RBS is another institution which could move quickly.	I wonder if RBS is another institution which could move quickly.	182324311	1476888814094	1476888814229	B	66
356075	3837667	I wonder if RBS is another institution which could move quickly.	I wonder if RBS is another institution which could move quickly.	182324345	1476888814341	1476888814453	S	83
356075	3837667	I wonder if RBS is another institution which could move quickly.	I wonder if RBS is another institution which could move quickly.	182324353	1476888814614	1476888814702	 	32
356075	3837667	I wonder if RBS is another institution which could move quickly.	I wonder if RBS is another institution which could move quickly.	182324358	1476888814805	1476888814885	i	73
356075	3837667	I wonder if RBS is another institution which could move quickly.	I wonder if RBS is another institution which could move quickly.	182324362	1476888814886	1476888814949	s	83
356075	3837667	I wonder if RBS is another institution which could move quickly.	I wonder if RBS is another institution which could move quickly.	182324365	1476888814981	1476888815045	 	32
356075	3837667	I wonder if RBS is another institution which could move quickly.	I wonder if RBS is another institution which could move quickly.	182324405	1476888815069	1476888815149	a	65
356075	3837667	I wonder if RBS is another institution which could move quickly.	I wonder if RBS is another institution which could move quickly.	182324409	1476888815157	1476888815221	n	78
356075	3837667	I wonder if RBS is another institution which could move quickly.	I wonder if RBS is another institution which could move quickly.	182324414	1476888815301	1476888815389	o	79
356075	3837667	I wonder if RBS is another institution which could move quickly.	I wonder if RBS is another institution which could move quickly.	182324416	1476888815397	1476888815485	t	84
356075	3837667	I wonder if RBS is another institution which could move quickly.	I wonder if RBS is another institution which could move quickly.	182324421	1476888815486	1476888815605	h	72
356075	3837667	I wonder if RBS is another institution which could move quickly.	I wonder if RBS is another institution which could move quickly.	182324485	1476888816013	1476888816141	e	69
356075	3837667	I wonder if RBS is another institution which could move quickly.	I wonder if RBS is another institution which could move quickly.	182324491	1476888816085	1476888816229	r	82
356075	3837667	I wonder if RBS is another institution which could move quickly.	I wonder if RBS is another institution which could move quickly.	182324500	1476888816221	1476888816309	 	32
356075	3837667	I wonder if RBS is another institution which could move quickly.	I wonder if RBS is another institution which could move quickly.	182324508	1476888816413	1476888816517	i	73
356075	3837667	I wonder if RBS is another institution which could move quickly.	I wonder if RBS is another institution which could move quickly.	182324571	1476888816485	1476888816597	n	78
356075	3837667	I wonder if RBS is another institution which could move quickly.	I wonder if RBS is another institution which could move quickly.	182324575	1476888816581	1476888816645	s	83
356075	3837667	I wonder if RBS is another institution which could move quickly.	I wonder if RBS is another institution which could move quickly.	182324577	1476888816757	1476888816837	t	84
356075	3837667	I wonder if RBS is another institution which could move quickly.	I wonder if RBS is another institution which could move quickly.	182324583	1476888816901	1476888817021	i	73
356075	3837667	I wonder if RBS is another institution which could move quickly.	I wonder if RBS is another institution which could move quickly.	182324591	1476888817341	1476888817461	t	84
356075	3837667	I wonder if RBS is another institution which could move quickly.	I wonder if RBS is another institution which could move quickly.	182324701	1476888817453	1476888817573	u	85
356075	3837667	I wonder if RBS is another institution which could move quickly.	I wonder if RBS is another institution which could move quickly.	182324705	1476888818142	1476888818285	t	84
356075	3837667	I wonder if RBS is another institution which could move quickly.	I wonder if RBS is another institution which could move quickly.	182324710	1476888818238	1476888818389	i	73
356075	3837667	I wonder if RBS is another institution which could move quickly.	I wonder if RBS is another institution which could move quickly.	182324715	1476888818325	1476888818437	o	79
356075	3837667	I wonder if RBS is another institution which could move quickly.	I wonder if RBS is another institution which could move quickly.	182324719	1476888818517	1476888818581	n	78
356075	3837667	I wonder if RBS is another institution which could move quickly.	I wonder if RBS is another institution which could move quickly.	182324724	1476888818669	1476888818749	 	32
356075	3837667	I wonder if RBS is another institution which could move quickly.	I wonder if RBS is another institution which could move quickly.	182324738	1476888818781	1476888818877	w	87
356075	3837667	I wonder if RBS is another institution which could move quickly.	I wonder if RBS is another institution which could move quickly.	182324741	1476888818869	1476888819013	h	72
356075	3837667	I wonder if RBS is another institution which could move quickly.	I wonder if RBS is another institution which could move quickly.	182324744	1476888818981	1476888819117	i	73
356075	3837667	I wonder if RBS is another institution which could move quickly.	I wonder if RBS is another institution which could move quickly.	182324747	1476888819109	1476888819223	c	67
356075	3837667	I wonder if RBS is another institution which could move quickly.	I wonder if RBS is another institution which could move quickly.	182324764	1476888819181	1476888819245	h	72
356075	3837667	I wonder if RBS is another institution which could move quickly.	I wonder if RBS is another institution which could move quickly.	182324769	1476888819333	1476888819413	 	32
356075	3837667	I wonder if RBS is another institution which could move quickly.	I wonder if RBS is another institution which could move quickly.	182324773	1476888819445	1476888819518	c	67
356075	3837667	I wonder if RBS is another institution which could move quickly.	I wonder if RBS is another institution which could move quickly.	182324780	1476888819509	1476888819608	o	79
356075	3837667	I wonder if RBS is another institution which could move quickly.	I wonder if RBS is another institution which could move quickly.	182324786	1476888819573	1476888819662	u	85
356075	3837667	I wonder if RBS is another institution which could move quickly.	I wonder if RBS is another institution which could move quickly.	182324793	1476888819709	1476888819781	l	76
356075	3837667	I wonder if RBS is another institution which could move quickly.	I wonder if RBS is another institution which could move quickly.	182324799	1476888819821	1476888819901	d	68
356075	3837667	I wonder if RBS is another institution which could move quickly.	I wonder if RBS is another institution which could move quickly.	182324802	1476888819893	1476888819965	 	32
356075	3837667	I wonder if RBS is another institution which could move quickly.	I wonder if RBS is another institution which could move quickly.	182324806	1476888820069	1476888820190	m	77
356075	3837667	I wonder if RBS is another institution which could move quickly.	I wonder if RBS is another institution which could move quickly.	182324830	1476888820141	1476888820245	o	79
356075	3837667	I wonder if RBS is another institution which could move quickly.	I wonder if RBS is another institution which could move quickly.	182324833	1476888820181	1476888820293	v	86
356075	3837667	I wonder if RBS is another institution which could move quickly.	I wonder if RBS is another institution which could move quickly.	182324836	1476888820269	1476888820365	e	69
356075	3837667	I wonder if RBS is another institution which could move quickly.	I wonder if RBS is another institution which could move quickly.	182324842	1476888820357	1476888820445	 	32
356075	3837667	I wonder if RBS is another institution which could move quickly.	I wonder if RBS is another institution which could move quickly.	182324852	1476888820525	1476888820597	q	81
356075	3837667	I wonder if RBS is another institution which could move quickly.	I wonder if RBS is another institution which could move quickly.	182324860	1476888820589	1476888820693	u	85
356075	3837667	I wonder if RBS is another institution which could move quickly.	I wonder if RBS is another institution which could move quickly.	182324935	1476888820653	1476888820757	i	73
356075	3837667	I wonder if RBS is another institution which could move quickly.	I wonder if RBS is another institution which could move quickly.	182324937	1476888820781	1476888820861	c	67
356075	3837667	I wonder if RBS is another institution which could move quickly.	I wonder if RBS is another institution which could move quickly.	182324942	1476888820869	1476888820917	k	75
356075	3837667	I wonder if RBS is another institution which could move quickly.	I wonder if RBS is another institution which could move quickly.	182324947	1476888821630	1476888821725	l	76
356075	3837667	I wonder if RBS is another institution which could move quickly.	I wonder if RBS is another institution which could move quickly.	182324951	1476888821758	1476888821813	y	89
356075	3837684	Russian foreign ministry sources said a ceasefire accord was agreed.	Russian foreign ministry sources said a ceasefire accord was agreed.	182325087	1476888823581	1476888824037	SHIFT	16
356075	3837684	Russian foreign ministry sources said a ceasefire accord was agreed.	Russian foreign ministry sources said a ceasefire accord was agreed.	182325090	1476888823989	1476888824077	R	82
356075	3837684	Russian foreign ministry sources said a ceasefire accord was agreed.	Russian foreign ministry sources said a ceasefire accord was agreed.	182325092	1476888824118	1476888824205	u	85
356075	3837684	Russian foreign ministry sources said a ceasefire accord was agreed.	Russian foreign ministry sources said a ceasefire accord was agreed.	182325095	1476888824245	1476888824333	s	83
356075	3837684	Russian foreign ministry sources said a ceasefire accord was agreed.	Russian foreign ministry sources said a ceasefire accord was agreed.	182325098	1476888824413	1476888824517	s	83
356075	3837684	Russian foreign ministry sources said a ceasefire accord was agreed.	Russian foreign ministry sources said a ceasefire accord was agreed.	182325100	1476888824557	1476888824677	i	73
356075	3837684	Russian foreign ministry sources said a ceasefire accord was agreed.	Russian foreign ministry sources said a ceasefire accord was agreed.	182325119	1476888824679	1476888824781	a	65
356075	3837684	Russian foreign ministry sources said a ceasefire accord was agreed.	Russian foreign ministry sources said a ceasefire accord was agreed.	182325121	1476888824797	1476888824877	n	78
356075	3837684	Russian foreign ministry sources said a ceasefire accord was agreed.	Russian foreign ministry sources said a ceasefire accord was agreed.	182325128	1476888824965	1476888825085	 	32
356075	3837684	Russian foreign ministry sources said a ceasefire accord was agreed.	Russian foreign ministry sources said a ceasefire accord was agreed.	182325134	1476888825269	1476888825389	f	70
356075	3837684	Russian foreign ministry sources said a ceasefire accord was agreed.	Russian foreign ministry sources said a ceasefire accord was agreed.	182325140	1476888825414	1476888825517	o	79
356075	3837684	Russian foreign ministry sources said a ceasefire accord was agreed.	Russian foreign ministry sources said a ceasefire accord was agreed.	182325177	1476888825550	1476888825677	r	82
356075	3837684	Russian foreign ministry sources said a ceasefire accord was agreed.	Russian foreign ministry sources said a ceasefire accord was agreed.	182325180	1476888825830	1476888825957	e	69
356075	3837684	Russian foreign ministry sources said a ceasefire accord was agreed.	Russian foreign ministry sources said a ceasefire accord was agreed.	182325187	1476888825981	1476888826077	i	73
356075	3837684	Russian foreign ministry sources said a ceasefire accord was agreed.	Russian foreign ministry sources said a ceasefire accord was agreed.	182325195	1476888826133	1476888826245	g	71
356075	3837684	Russian foreign ministry sources said a ceasefire accord was agreed.	Russian foreign ministry sources said a ceasefire accord was agreed.	182325200	1476888826261	1476888826357	n	78
356075	3837684	Russian foreign ministry sources said a ceasefire accord was agreed.	Russian foreign ministry sources said a ceasefire accord was agreed.	182325251	1476888826453	1476888826549	 	32
356075	3837684	Russian foreign ministry sources said a ceasefire accord was agreed.	Russian foreign ministry sources said a ceasefire accord was agreed.	182325255	1476888826661	1476888826773	m	77
356075	3837684	Russian foreign ministry sources said a ceasefire accord was agreed.	Russian foreign ministry sources said a ceasefire accord was agreed.	182325257	1476888826933	1476888827053	i	73
356075	3837684	Russian foreign ministry sources said a ceasefire accord was agreed.	Russian foreign ministry sources said a ceasefire accord was agreed.	182325260	1476888827061	1476888827221	n	78
356075	3837684	Russian foreign ministry sources said a ceasefire accord was agreed.	Russian foreign ministry sources said a ceasefire accord was agreed.	182325283	1476888827166	1476888827293	i	73
356075	3837684	Russian foreign ministry sources said a ceasefire accord was agreed.	Russian foreign ministry sources said a ceasefire accord was agreed.	182325288	1476888827333	1476888827406	s	83
356075	3837684	Russian foreign ministry sources said a ceasefire accord was agreed.	Russian foreign ministry sources said a ceasefire accord was agreed.	182325292	1476888827479	1476888827528	t	84
356075	3837684	Russian foreign ministry sources said a ceasefire accord was agreed.	Russian foreign ministry sources said a ceasefire accord was agreed.	182325296	1476888827623	1476888827703	r	82
356075	3837684	Russian foreign ministry sources said a ceasefire accord was agreed.	Russian foreign ministry sources said a ceasefire accord was agreed.	182325299	1476888827735	1476888827831	y	89
356075	3837684	Russian foreign ministry sources said a ceasefire accord was agreed.	Russian foreign ministry sources said a ceasefire accord was agreed.	182325302	1476888827895	1476888827967	 	32
356075	3837684	Russian foreign ministry sources said a ceasefire accord was agreed.	Russian foreign ministry sources said a ceasefire accord was agreed.	182325322	1476888828055	1476888828159	s	83
356075	3837684	Russian foreign ministry sources said a ceasefire accord was agreed.	Russian foreign ministry sources said a ceasefire accord was agreed.	182325324	1476888828119	1476888828263	o	79
356075	3837684	Russian foreign ministry sources said a ceasefire accord was agreed.	Russian foreign ministry sources said a ceasefire accord was agreed.	182325326	1476888828199	1476888828319	u	85
356075	3837684	Russian foreign ministry sources said a ceasefire accord was agreed.	Russian foreign ministry sources said a ceasefire accord was agreed.	182325328	1476888828335	1476888828423	r	82
356075	3837684	Russian foreign ministry sources said a ceasefire accord was agreed.	Russian foreign ministry sources said a ceasefire accord was agreed.	182325333	1476888828551	1476888828671	c	67
356075	3837684	Russian foreign ministry sources said a ceasefire accord was agreed.	Russian foreign ministry sources said a ceasefire accord was agreed.	182325361	1476888828631	1476888828759	e	69
356075	3837684	Russian foreign ministry sources said a ceasefire accord was agreed.	Russian foreign ministry sources said a ceasefire accord was agreed.	182325368	1476888828847	1476888828927	s	83
356075	3837684	Russian foreign ministry sources said a ceasefire accord was agreed.	Russian foreign ministry sources said a ceasefire accord was agreed.	182325375	1476888828959	1476888829063	 	32
356075	3837684	Russian foreign ministry sources said a ceasefire accord was agreed.	Russian foreign ministry sources said a ceasefire accord was agreed.	182325381	1476888829087	1476888829191	s	83
356075	3837684	Russian foreign ministry sources said a ceasefire accord was agreed.	Russian foreign ministry sources said a ceasefire accord was agreed.	182325387	1476888829167	1476888829295	a	65
356075	3837684	Russian foreign ministry sources said a ceasefire accord was agreed.	Russian foreign ministry sources said a ceasefire accord was agreed.	182325428	1476888829248	1476888829367	i	73
356075	3837684	Russian foreign ministry sources said a ceasefire accord was agreed.	Russian foreign ministry sources said a ceasefire accord was agreed.	182325432	1476888829392	1476888829487	d	68
356075	3837684	Russian foreign ministry sources said a ceasefire accord was agreed.	Russian foreign ministry sources said a ceasefire accord was agreed.	182325436	1476888829512	1476888829591	 	32
356075	3837684	Russian foreign ministry sources said a ceasefire accord was agreed.	Russian foreign ministry sources said a ceasefire accord was agreed.	182325441	1476888829623	1476888829727	a	65
356075	3837684	Russian foreign ministry sources said a ceasefire accord was agreed.	Russian foreign ministry sources said a ceasefire accord was agreed.	182325445	1476888829704	1476888829800	 	32
356075	3837684	Russian foreign ministry sources said a ceasefire accord was agreed.	Russian foreign ministry sources said a ceasefire accord was agreed.	182325453	1476888829999	1476888830079	c	67
356075	3837684	Russian foreign ministry sources said a ceasefire accord was agreed.	Russian foreign ministry sources said a ceasefire accord was agreed.	182325486	1476888830199	1476888830271	e	69
356075	3837684	Russian foreign ministry sources said a ceasefire accord was agreed.	Russian foreign ministry sources said a ceasefire accord was agreed.	182325492	1476888830367	1476888830511	a	65
356075	3837684	Russian foreign ministry sources said a ceasefire accord was agreed.	Russian foreign ministry sources said a ceasefire accord was agreed.	182325498	1476888830431	1476888830575	s	83
356075	3837684	Russian foreign ministry sources said a ceasefire accord was agreed.	Russian foreign ministry sources said a ceasefire accord was agreed.	182325503	1476888830655	1476888830727	e	69
356075	3837684	Russian foreign ministry sources said a ceasefire accord was agreed.	Russian foreign ministry sources said a ceasefire accord was agreed.	182325511	1476888830823	1476888830895	f	70
356075	3837684	Russian foreign ministry sources said a ceasefire accord was agreed.	Russian foreign ministry sources said a ceasefire accord was agreed.	182325553	1476888830943	1476888831032	i	73
356075	3837684	Russian foreign ministry sources said a ceasefire accord was agreed.	Russian foreign ministry sources said a ceasefire accord was agreed.	182325558	1476888831023	1476888831159	r	82
356075	3837684	Russian foreign ministry sources said a ceasefire accord was agreed.	Russian foreign ministry sources said a ceasefire accord was agreed.	182325562	1476888831111	1476888831215	e	69
356075	3837684	Russian foreign ministry sources said a ceasefire accord was agreed.	Russian foreign ministry sources said a ceasefire accord was agreed.	182325565	1476888831199	1476888831343	 	32
356075	3837684	Russian foreign ministry sources said a ceasefire accord was agreed.	Russian foreign ministry sources said a ceasefire accord was agreed.	182325568	1476888831448	1476888831527	a	65
356075	3837684	Russian foreign ministry sources said a ceasefire accord was agreed.	Russian foreign ministry sources said a ceasefire accord was agreed.	182325597	1476888831631	1476888831687	c	67
356075	3837684	Russian foreign ministry sources said a ceasefire accord was agreed.	Russian foreign ministry sources said a ceasefire accord was agreed.	182325600	1476888831767	1476888831831	c	67
356075	3837684	Russian foreign ministry sources said a ceasefire accord was agreed.	Russian foreign ministry sources said a ceasefire accord was agreed.	182325607	1476888831967	1476888832063	o	79
356075	3837684	Russian foreign ministry sources said a ceasefire accord was agreed.	Russian foreign ministry sources said a ceasefire accord was agreed.	182325614	1476888832087	1476888832151	r	82
356075	3837684	Russian foreign ministry sources said a ceasefire accord was agreed.	Russian foreign ministry sources said a ceasefire accord was agreed.	182325618	1476888832239	1476888832311	d	68
356075	3837684	Russian foreign ministry sources said a ceasefire accord was agreed.	Russian foreign ministry sources said a ceasefire accord was agreed.	182325657	1476888832343	1476888832479	 	32
356075	3837684	Russian foreign ministry sources said a ceasefire accord was agreed.	Russian foreign ministry sources said a ceasefire accord was agreed.	182325661	1476888832719	1476888832887	w	87
356075	3837684	Russian foreign ministry sources said a ceasefire accord was agreed.	Russian foreign ministry sources said a ceasefire accord was agreed.	182325665	1476888832975	1476888833128	a	65
356075	3837684	Russian foreign ministry sources said a ceasefire accord was agreed.	Russian foreign ministry sources said a ceasefire accord was agreed.	182325668	1476888833119	1476888833240	s	83
356075	3837684	Russian foreign ministry sources said a ceasefire accord was agreed.	Russian foreign ministry sources said a ceasefire accord was agreed.	182325676	1476888833272	1476888833383	 	32
356075	3837684	Russian foreign ministry sources said a ceasefire accord was agreed.	Russian foreign ministry sources said a ceasefire accord was agreed.	182325740	1476888833584	1476888833615	a	65
356075	3837684	Russian foreign ministry sources said a ceasefire accord was agreed.	Russian foreign ministry sources said a ceasefire accord was agreed.	182325744	1476888834119	1476888834199	g	71
356075	3837684	Russian foreign ministry sources said a ceasefire accord was agreed.	Russian foreign ministry sources said a ceasefire accord was agreed.	182325747	1476888834335	1476888834431	r	82
356075	3837684	Russian foreign ministry sources said a ceasefire accord was agreed.	Russian foreign ministry sources said a ceasefire accord was agreed.	182325750	1476888834511	1476888834583	e	69
356075	3837684	Russian foreign ministry sources said a ceasefire accord was agreed.	Russian foreign ministry sources said a ceasefire accord was agreed.	182325753	1476888834663	1476888834743	e	69
356075	3837684	Russian foreign ministry sources said a ceasefire accord was agreed.	Russian foreign ministry sources said a ceasefire accord was agreed.	182325765	1476888834832	1476888834895	d	68
356075	3837684	Russian foreign ministry sources said a ceasefire accord was agreed.	Russian foreign ministry sources said a ceasefire accord was agreed.	182325768	1476888834943	1476888835087	.	190
