PARTICIPANT_ID	TEST_SECTION_ID	SENTENCE	USER_INPUT	KEYSTROKE_ID	PRESS_TIME	RELEASE_TIME	LETTER	KEYCODE
359852	3879280	Reports said Clinton feels the same way.	Reports said Clinton feels the same way	184289429	1476921304075	1476921304188	CAPS_LOCK	20
359852	3879280	Reports said Clinton feels the same way.	Reports said Clinton feels the same way	184289431	1476921304288	1476921304408	R	82
359852	3879280	Reports said Clinton feels the same way.	Reports said Clinton feels the same way	184289433	1476921304378	1476921304555	CAPS_LOCK	20
359852	3879280	Reports said Clinton feels the same way.	Reports said Clinton feels the same way	184289438	1476921304531	1476921304684	e	69
359852	3879280	Reports said Clinton feels the same way.	Reports said Clinton feels the same way	184289442	1476921304684	1476921304848	p	80
359852	3879280	Reports said Clinton feels the same way.	Reports said Clinton feels the same way	184289445	1476921304780	1476921304868	o	79
359852	3879280	Reports said Clinton feels the same way.	Reports said Clinton feels the same way	184289447	1476921304868	1476921304924	r	82
359852	3879280	Reports said Clinton feels the same way.	Reports said Clinton feels the same way	184289460	1476921305015	1476921305115	t	84
359852	3879280	Reports said Clinton feels the same way.	Reports said Clinton feels the same way	184289462	1476921305115	1476921305214	s	83
359852	3879280	Reports said Clinton feels the same way.	Reports said Clinton feels the same way	184289467	1476921305236	1476921305334	 	32
359852	3879280	Reports said Clinton feels the same way.	Reports said Clinton feels the same way	184289470	1476921305344	1476921305415	h	72
359852	3879280	Reports said Clinton feels the same way.	Reports said Clinton feels the same way	184289474	1476921305415	1476921305532	a	65
359852	3879280	Reports said Clinton feels the same way.	Reports said Clinton feels the same way	184289511	1476921305744	1476921305835	s	83
359852	3879280	Reports said Clinton feels the same way.	Reports said Clinton feels the same way	184289514	1476921306124	1476921306259	BKSP	8
359852	3879280	Reports said Clinton feels the same way.	Reports said Clinton feels the same way	184289519	1476921306220	1476921306297	i	73
359852	3879280	Reports said Clinton feels the same way.	Reports said Clinton feels the same way	184289522	1476921306297	1476921306384	d	68
359852	3879280	Reports said Clinton feels the same way.	Reports said Clinton feels the same way	184289524	1476921306444	1476921306524	BKSP	8
359852	3879280	Reports said Clinton feels the same way.	Reports said Clinton feels the same way	184289526	1476921306595	1476921306651	BKSP	8
359852	3879280	Reports said Clinton feels the same way.	Reports said Clinton feels the same way	184289527	1476921306724	1476921306755	BKSP	8
359852	3879280	Reports said Clinton feels the same way.	Reports said Clinton feels the same way	184289528	1476921306843	1476921306905	BKSP	8
359852	3879280	Reports said Clinton feels the same way.	Reports said Clinton feels the same way	184289529	1476921306905	1476921307020	s	83
359852	3879280	Reports said Clinton feels the same way.	Reports said Clinton feels the same way	184289551	1476921306955	1476921307052	a	65
359852	3879280	Reports said Clinton feels the same way.	Reports said Clinton feels the same way	184289555	1476921307052	1476921307137	i	73
359852	3879280	Reports said Clinton feels the same way.	Reports said Clinton feels the same way	184289558	1476921307152	1476921307252	d	68
359852	3879280	Reports said Clinton feels the same way.	Reports said Clinton feels the same way	184289562	1476921307253	1476921307353	 	32
359852	3879280	Reports said Clinton feels the same way.	Reports said Clinton feels the same way	184289566	1476921307444	1476921307530	t	84
359852	3879280	Reports said Clinton feels the same way.	Reports said Clinton feels the same way	184289570	1476921307753	1476921307852	BKSP	8
359852	3879280	Reports said Clinton feels the same way.	Reports said Clinton feels the same way	184289574	1476921307885	1476921307980	CAPS_LOCK	20
359852	3879280	Reports said Clinton feels the same way.	Reports said Clinton feels the same way	184289577	1476921308161	1476921308285	C	67
359852	3879280	Reports said Clinton feels the same way.	Reports said Clinton feels the same way	184289594	1476921308285	1476921308420	CAPS_LOCK	20
359852	3879280	Reports said Clinton feels the same way.	Reports said Clinton feels the same way	184289598	1476921308380	1476921308460	l	76
359852	3879280	Reports said Clinton feels the same way.	Reports said Clinton feels the same way	184289602	1476921308511	1476921308637	i	73
359852	3879280	Reports said Clinton feels the same way.	Reports said Clinton feels the same way	184289605	1476921308622	1476921308703	n	78
359852	3879280	Reports said Clinton feels the same way.	Reports said Clinton feels the same way	184289609	1476921308752	1476921308820	t	84
359852	3879280	Reports said Clinton feels the same way.	Reports said Clinton feels the same way	184289614	1476921308855	1476921308972	o	79
359852	3879280	Reports said Clinton feels the same way.	Reports said Clinton feels the same way	184289625	1476921308921	1476921309004	n	78
359852	3879280	Reports said Clinton feels the same way.	Reports said Clinton feels the same way	184289630	1476921309036	1476921309132	 	32
359852	3879280	Reports said Clinton feels the same way.	Reports said Clinton feels the same way	184289633	1476921309164	1476921309230	h	72
359852	3879280	Reports said Clinton feels the same way.	Reports said Clinton feels the same way	184289638	1476921309416	1476921309516	BKSP	8
359852	3879280	Reports said Clinton feels the same way.	Reports said Clinton feels the same way	184289646	1476921309484	1476921309572	f	70
359852	3879280	Reports said Clinton feels the same way.	Reports said Clinton feels the same way	184289650	1476921309530	1476921309611	e	69
359852	3879280	Reports said Clinton feels the same way.	Reports said Clinton feels the same way	184289654	1476921309690	1476921309771	e	69
359852	3879280	Reports said Clinton feels the same way.	Reports said Clinton feels the same way	184289657	1476921309771	1476921309860	l	76
359852	3879280	Reports said Clinton feels the same way.	Reports said Clinton feels the same way	184289660	1476921309879	1476921309962	s	83
359852	3879280	Reports said Clinton feels the same way.	Reports said Clinton feels the same way	184289665	1476921309962	1476921310037	 	32
359852	3879280	Reports said Clinton feels the same way.	Reports said Clinton feels the same way	184289667	1476921310022	1476921310116	t	84
359852	3879280	Reports said Clinton feels the same way.	Reports said Clinton feels the same way	184289691	1476921310072	1476921310159	h	72
359852	3879280	Reports said Clinton feels the same way.	Reports said Clinton feels the same way	184289694	1476921310191	1476921310284	e	69
359852	3879280	Reports said Clinton feels the same way.	Reports said Clinton feels the same way	184289699	1476921310252	1476921310339	 	32
359852	3879280	Reports said Clinton feels the same way.	Reports said Clinton feels the same way	184289703	1476921310417	1476921310508	s	83
359852	3879280	Reports said Clinton feels the same way.	Reports said Clinton feels the same way	184289707	1476921310492	1476921310580	a	65
359852	3879280	Reports said Clinton feels the same way.	Reports said Clinton feels the same way	184289709	1476921310752	1476921310827	m	77
359852	3879280	Reports said Clinton feels the same way.	Reports said Clinton feels the same way	184289740	1476921311183	1476921311276	e	69
359852	3879280	Reports said Clinton feels the same way.	Reports said Clinton feels the same way	184289742	1476921311299	1476921311394	 	32
359852	3879280	Reports said Clinton feels the same way.	Reports said Clinton feels the same way	184289744	1476921311379	1476921311461	w	87
359852	3879280	Reports said Clinton feels the same way.	Reports said Clinton feels the same way	184289746	1476921311572	1476921311638	a	65
359852	3879280	Reports said Clinton feels the same way.	Reports said Clinton feels the same way	184289750	1476921311654	1476921311748	y	89
359852	3879286	He is recovering from a bruised left shoulder.	He is recovering from a bruised left shoulder	184289889	1476921314019	1476921314099	CAPS_LOCK	20
359852	3879286	He is recovering from a bruised left shoulder.	He is recovering from a bruised left shoulder	184289896	1476921314131	1476921314212	H	72
359852	3879286	He is recovering from a bruised left shoulder.	He is recovering from a bruised left shoulder	184289900	1476921314197	1476921314320	CAPS_LOCK	20
359852	3879286	He is recovering from a bruised left shoulder.	He is recovering from a bruised left shoulder	184289905	1476921314352	1476921314446	e	69
359852	3879286	He is recovering from a bruised left shoulder.	He is recovering from a bruised left shoulder	184289909	1476921314446	1476921314560	 	32
359852	3879286	He is recovering from a bruised left shoulder.	He is recovering from a bruised left shoulder	184289911	1476921314560	1476921314668	i	73
359852	3879286	He is recovering from a bruised left shoulder.	He is recovering from a bruised left shoulder	184289915	1476921314683	1476921314756	s	83
359852	3879286	He is recovering from a bruised left shoulder.	He is recovering from a bruised left shoulder	184289927	1476921314757	1476921314875	 	32
359852	3879286	He is recovering from a bruised left shoulder.	He is recovering from a bruised left shoulder	184289931	1476921314891	1476921314988	r	82
359852	3879286	He is recovering from a bruised left shoulder.	He is recovering from a bruised left shoulder	184289938	1476921314955	1476921315058	e	69
359852	3879286	He is recovering from a bruised left shoulder.	He is recovering from a bruised left shoulder	184289944	1476921315132	1476921315211	c	67
359852	3879286	He is recovering from a bruised left shoulder.	He is recovering from a bruised left shoulder	184289947	1476921315227	1476921315320	o	79
359852	3879286	He is recovering from a bruised left shoulder.	He is recovering from a bruised left shoulder	184289968	1476921315320	1476921315377	r	82
359852	3879286	He is recovering from a bruised left shoulder.	He is recovering from a bruised left shoulder	184289973	1476921315549	1476921315622	v	86
359852	3879286	He is recovering from a bruised left shoulder.	He is recovering from a bruised left shoulder	184289979	1476921315780	1476921315844	BKSP	8
359852	3879286	He is recovering from a bruised left shoulder.	He is recovering from a bruised left shoulder	184289988	1476921315914	1476921316056	BKSP	8
359852	3879286	He is recovering from a bruised left shoulder.	He is recovering from a bruised left shoulder	184289983	1476921316027	1476921316056	v	86
359852	3879286	He is recovering from a bruised left shoulder.	He is recovering from a bruised left shoulder	184289991	1476921316068	1476921316172	e	69
359852	3879286	He is recovering from a bruised left shoulder.	He is recovering from a bruised left shoulder	184290013	1476921316136	1476921316241	r	82
359852	3879286	He is recovering from a bruised left shoulder.	He is recovering from a bruised left shoulder	184290015	1476921316288	1476921316372	i	73
359852	3879286	He is recovering from a bruised left shoulder.	He is recovering from a bruised left shoulder	184290017	1476921316332	1476921316427	n	78
359852	3879286	He is recovering from a bruised left shoulder.	He is recovering from a bruised left shoulder	184290018	1476921316427	1476921316524	g	71
359852	3879286	He is recovering from a bruised left shoulder.	He is recovering from a bruised left shoulder	184290019	1476921316507	1476921316595	 	32
359852	3879286	He is recovering from a bruised left shoulder.	He is recovering from a bruised left shoulder	184290020	1476921316920	1476921316984	f	70
359852	3879286	He is recovering from a bruised left shoulder.	He is recovering from a bruised left shoulder	184290043	1476921317080	1476921317140	o	82
359852	3879286	He is recovering from a bruised left shoulder.	He is recovering from a bruised left shoulder	184290047	1476921317178	1476921317292	m	77
359852	3879286	He is recovering from a bruised left shoulder.	He is recovering from a bruised left shoulder	184290052	1476921317246	1476921317331	 	32
359852	3879286	He is recovering from a bruised left shoulder.	He is recovering from a bruised left shoulder	184290055	1476921317378	1476921317461	a	65
359852	3879286	He is recovering from a bruised left shoulder.	He is recovering from a bruised left shoulder	184290115	1476921317461	1476921317557	 	32
359852	3879286	He is recovering from a bruised left shoulder.	He is recovering from a bruised left shoulder	184290118	1476921317828	1476921317947	b	66
359852	3879286	He is recovering from a bruised left shoulder.	He is recovering from a bruised left shoulder	184290119	1476921317900	1476921318009	u	85
359852	3879286	He is recovering from a bruised left shoulder.	He is recovering from a bruised left shoulder	184290121	1476921318312	1476921318396	BKSP	8
359852	3879286	He is recovering from a bruised left shoulder.	He is recovering from a bruised left shoulder	184290123	1476921318396	1476921318494	r	82
359852	3879286	He is recovering from a bruised left shoulder.	He is recovering from a bruised left shoulder	184290124	1476921318548	1476921318678	u	85
359852	3879286	He is recovering from a bruised left shoulder.	He is recovering from a bruised left shoulder	184290157	1476921318612	1476921318694	i	73
359852	3879286	He is recovering from a bruised left shoulder.	He is recovering from a bruised left shoulder	184290160	1476921318742	1476921318868	s	83
359852	3879286	He is recovering from a bruised left shoulder.	He is recovering from a bruised left shoulder	184290162	1476921318894	1476921318995	e	69
359852	3879286	He is recovering from a bruised left shoulder.	He is recovering from a bruised left shoulder	184290164	1476921319073	1476921319177	d	68
359852	3879286	He is recovering from a bruised left shoulder.	He is recovering from a bruised left shoulder	184290166	1476921319257	1476921319395	 	32
359852	3879286	He is recovering from a bruised left shoulder.	He is recovering from a bruised left shoulder	184290169	1476921319551	1476921319604	f	70
359852	3879286	He is recovering from a bruised left shoulder.	He is recovering from a bruised left shoulder	184290184	1476921319620	1476921319703	l	76
359852	3879286	He is recovering from a bruised left shoulder.	He is recovering from a bruised left shoulder	184290186	1476921319840	1476921319900	BKSP	8
359852	3879286	He is recovering from a bruised left shoulder.	He is recovering from a bruised left shoulder	184290187	1476921319969	1476921320076	BKSP	8
359852	3879286	He is recovering from a bruised left shoulder.	He is recovering from a bruised left shoulder	184290190	1476921320036	1476921320140	l	76
359852	3879286	He is recovering from a bruised left shoulder.	He is recovering from a bruised left shoulder	184290193	1476921320104	1476921320238	e	69
359852	3879286	He is recovering from a bruised left shoulder.	He is recovering from a bruised left shoulder	184290197	1476921320172	1476921320238	f	70
359852	3879286	He is recovering from a bruised left shoulder.	He is recovering from a bruised left shoulder	184290202	1476921320333	1476921320411	t	84
359852	3879286	He is recovering from a bruised left shoulder.	He is recovering from a bruised left shoulder	184290199	1476921320411	1476921320509	 	32
359852	3879286	He is recovering from a bruised left shoulder.	He is recovering from a bruised left shoulder	184290204	1476921320493	1476921320604	s	83
359852	3879286	He is recovering from a bruised left shoulder.	He is recovering from a bruised left shoulder	184290208	1476921320571	1476921320684	h	72
359852	3879286	He is recovering from a bruised left shoulder.	He is recovering from a bruised left shoulder	184290220	1476921320652	1476921320738	o	79
359852	3879286	He is recovering from a bruised left shoulder.	He is recovering from a bruised left shoulder	184290211	1476921320684	1476921320738	u	85
359852	3879286	He is recovering from a bruised left shoulder.	He is recovering from a bruised left shoulder	184290224	1476921320833	1476921320944	l	76
359852	3879286	He is recovering from a bruised left shoulder.	He is recovering from a bruised left shoulder	184290227	1476921320944	1476921321052	d	68
359852	3879286	He is recovering from a bruised left shoulder.	He is recovering from a bruised left shoulder	184290230	1476921321052	1476921321148	e	69
359852	3879297	How long can you guys shop?	How long can you guys shop?	184290285	1476921322683	1476921322772	CAPS_LOCK	20
359852	3879297	How long can you guys shop?	How long can you guys shop?	184290287	1476921322772	1476921322825	H	72
359852	3879297	How long can you guys shop?	How long can you guys shop?	184290289	1476921322841	1476921322980	CAPS_LOCK	20
359852	3879297	How long can you guys shop?	How long can you guys shop?	184290291	1476921322919	1476921323027	o	79
359852	3879297	How long can you guys shop?	How long can you guys shop?	184290293	1476921323058	1476921323171	w	87
359852	3879297	How long can you guys shop?	How long can you guys shop?	184290295	1476921323121	1476921323252	 	32
359852	3879297	How long can you guys shop?	How long can you guys shop?	184290317	1476921323202	1476921323292	l	76
359852	3879297	How long can you guys shop?	How long can you guys shop?	184290319	1476921323268	1476921323353	o	79
359852	3879297	How long can you guys shop?	How long can you guys shop?	184290322	1476921323460	1476921323545	n	78
359852	3879297	How long can you guys shop?	How long can you guys shop?	184290325	1476921323644	1476921323743	g	71
359852	3879297	How long can you guys shop?	How long can you guys shop?	184290328	1476921323743	1476921323828	 	32
359852	3879297	How long can you guys shop?	How long can you guys shop?	184290332	1476921323895	1476921323996	c	67
359852	3879297	How long can you guys shop?	How long can you guys shop?	184290336	1476921323962	1476921324062	a	65
359852	3879297	How long can you guys shop?	How long can you guys shop?	184290339	1476921323996	1476921324062	n	78
359852	3879297	How long can you guys shop?	How long can you guys shop?	184290343	1476921324093	1476921324202	 	32
359852	3879297	How long can you guys shop?	How long can you guys shop?	184290345	1476921324186	1476921324284	y	89
359852	3879297	How long can you guys shop?	How long can you guys shop?	184290348	1476921324253	1476921324388	o	79
359852	3879297	How long can you guys shop?	How long can you guys shop?	184290360	1476921324321	1476921324420	u	85
359852	3879297	How long can you guys shop?	How long can you guys shop?	184290363	1476921324420	1476921324556	 	32
359852	3879297	How long can you guys shop?	How long can you guys shop?	184290365	1476921324500	1476921324611	g	71
359852	3879297	How long can you guys shop?	How long can you guys shop?	184290366	1476921324595	1476921324735	u	85
359852	3879297	How long can you guys shop?	How long can you guys shop?	184290367	1476921324652	1476921324735	y	89
359852	3879297	How long can you guys shop?	How long can you guys shop?	184290368	1476921324735	1476921324812	s	83
359852	3879297	How long can you guys shop?	How long can you guys shop?	184290410	1476921324780	1476921324900	 	32
359852	3879297	How long can you guys shop?	How long can you guys shop?	184290412	1476921325088	1476921325228	s	83
359852	3879297	How long can you guys shop?	How long can you guys shop?	184290413	1476921325172	1476921325244	h	72
359852	3879297	How long can you guys shop?	How long can you guys shop?	184290414	1476921325228	1476921325280	o	79
359852	3879297	How long can you guys shop?	How long can you guys shop?	184290416	1476921325390	1476921325436	o	79
359852	3879297	How long can you guys shop?	How long can you guys shop?	184290419	1476921325636	1476921325684	BKSP	8
359852	3879297	How long can you guys shop?	How long can you guys shop?	184290424	1476921325751	1476921325819	BKSP	8
359852	3879297	How long can you guys shop?	How long can you guys shop?	184290427	1476921325996	1476921326046	o	79
359852	3879297	How long can you guys shop?	How long can you guys shop?	184290440	1476921326204	1476921326254	p	80
359852	3879297	How long can you guys shop?	How long can you guys shop?	184290442	1476921326318	1476921326578	SHIFT	16
359852	3879297	How long can you guys shop?	How long can you guys shop?	184290444	1476921326412	1476921326578	?	191
359852	3879300	I wonder if RBS is another institution which could move quickly.	I wonder if RBS is another institution which could move quickly	184290484	1476921328184	1476921328277	CAPS_LOCK	20
359852	3879300	I wonder if RBS is another institution which could move quickly.	I wonder if RBS is another institution which could move quickly	184290486	1476921328262	1476921328328	I	73
359852	3879300	I wonder if RBS is another institution which could move quickly.	I wonder if RBS is another institution which could move quickly	184290490	1476921328343	1476921328524	CAPS_LOCK	20
359852	3879300	I wonder if RBS is another institution which could move quickly.	I wonder if RBS is another institution which could move quickly	184290488	1476921328390	1476921328501	 	32
359852	3879300	I wonder if RBS is another institution which could move quickly.	I wonder if RBS is another institution which could move quickly	184290492	1476921328485	1476921328596	w	87
359852	3879300	I wonder if RBS is another institution which could move quickly.	I wonder if RBS is another institution which could move quickly	184290494	1476921328546	1476921328646	o	79
359852	3879300	I wonder if RBS is another institution which could move quickly.	I wonder if RBS is another institution which could move quickly	184290501	1476921328596	1476921328662	n	78
359852	3879300	I wonder if RBS is another institution which could move quickly.	I wonder if RBS is another institution which could move quickly	184290503	1476921328679	1476921328780	d	68
359852	3879300	I wonder if RBS is another institution which could move quickly.	I wonder if RBS is another institution which could move quickly	184290506	1476921328820	1476921328908	e	69
359852	3879300	I wonder if RBS is another institution which could move quickly.	I wonder if RBS is another institution which could move quickly	184290513	1476921328953	1476921329028	 	32
359852	3879300	I wonder if RBS is another institution which could move quickly.	I wonder if RBS is another institution which could move quickly	184290515	1476921329044	1476921329124	i	73
359852	3879300	I wonder if RBS is another institution which could move quickly.	I wonder if RBS is another institution which could move quickly	184290516	1476921329128	1476921329228	f	70
359852	3879300	I wonder if RBS is another institution which could move quickly.	I wonder if RBS is another institution which could move quickly	184290578	1476921329196	1476921329272	 	32
359852	3879300	I wonder if RBS is another institution which could move quickly.	I wonder if RBS is another institution which could move quickly	184290579	1476921329366	1476921329500	CAPS_LOCK	20
359852	3879300	I wonder if RBS is another institution which could move quickly.	I wonder if RBS is another institution which could move quickly	184290581	1476921329516	1476921329604	R	82
359852	3879300	I wonder if RBS is another institution which could move quickly.	I wonder if RBS is another institution which could move quickly	184290584	1476921329638	1476921329704	B	66
359852	3879300	I wonder if RBS is another institution which could move quickly.	I wonder if RBS is another institution which could move quickly	184290587	1476921329772	1476921329860	S	83
359852	3879300	I wonder if RBS is another institution which could move quickly.	I wonder if RBS is another institution which could move quickly	184290590	1476921330326	1476921331028	BKSP	8
359852	3879300	I wonder if RBS is another institution which could move quickly.	I wonder if RBS is another institution which could move quickly	184290593	1476921331052	1476921331148	CAPS_LOCK	20
359852	3879300	I wonder if RBS is another institution which could move quickly.	I wonder if RBS is another institution which could move quickly	184290596	1476921331196	1476921331262	BKSP	8
359852	3879300	I wonder if RBS is another institution which could move quickly.	I wonder if RBS is another institution which could move quickly	184290599	1476921331580	1476921331707	d	68
359852	3879300	I wonder if RBS is another institution which could move quickly.	I wonder if RBS is another institution which could move quickly	184290602	1476921331915	1476921331956	BKSP	8
359852	3879300	I wonder if RBS is another institution which could move quickly.	I wonder if RBS is another institution which could move quickly	184290607	1476921332088	1476921332154	n	78
359852	3879300	I wonder if RBS is another institution which could move quickly.	I wonder if RBS is another institution which could move quickly	184290627	1476921332361	1476921332447	BKSP	8
359852	3879300	I wonder if RBS is another institution which could move quickly.	I wonder if RBS is another institution which could move quickly	184290628	1476921332447	1476921332544	d	68
359852	3879300	I wonder if RBS is another institution which could move quickly.	I wonder if RBS is another institution which could move quickly	184290629	1476921332544	1476921332651	e	69
359852	3879300	I wonder if RBS is another institution which could move quickly.	I wonder if RBS is another institution which could move quickly	184290630	1476921332636	1476921332718	r	82
359852	3879300	I wonder if RBS is another institution which could move quickly.	I wonder if RBS is another institution which could move quickly	184290631	1476921332749	1476921332871	 	32
359852	3879300	I wonder if RBS is another institution which could move quickly.	I wonder if RBS is another institution which could move quickly	184290633	1476921333042	1476921333135	i	73
359852	3879300	I wonder if RBS is another institution which could move quickly.	I wonder if RBS is another institution which could move quickly	184290662	1476921333167	1476921333276	f	70
359852	3879300	I wonder if RBS is another institution which could move quickly.	I wonder if RBS is another institution which could move quickly	184290664	1476921333243	1476921333346	 	32
359852	3879300	I wonder if RBS is another institution which could move quickly.	I wonder if RBS is another institution which could move quickly	184290665	1476921333392	1476921333548	CAPS_LOCK	20
359852	3879300	I wonder if RBS is another institution which could move quickly.	I wonder if RBS is another institution which could move quickly	184290666	1476921333612	1476921333680	B	66
359852	3879300	I wonder if RBS is another institution which could move quickly.	I wonder if RBS is another institution which could move quickly	184290667	1476921333868	1476921333944	BKSP	8
359852	3879300	I wonder if RBS is another institution which could move quickly.	I wonder if RBS is another institution which could move quickly	184290668	1476921333928	1476921334028	R	82
359852	3879300	I wonder if RBS is another institution which could move quickly.	I wonder if RBS is another institution which could move quickly	184290669	1476921334060	1476921334132	B	66
359852	3879300	I wonder if RBS is another institution which could move quickly.	I wonder if RBS is another institution which could move quickly	184290678	1476921334188	1476921334236	S	83
359852	3879300	I wonder if RBS is another institution which could move quickly.	I wonder if RBS is another institution which could move quickly	184290679	1476921334285	1476921334410	 	32
359852	3879300	I wonder if RBS is another institution which could move quickly.	I wonder if RBS is another institution which could move quickly	184290680	1476921334410	1476921334520	CAPS_LOCK	20
359852	3879300	I wonder if RBS is another institution which could move quickly.	I wonder if RBS is another institution which could move quickly	184290682	1476921334598	1476921334678	i	73
359852	3879300	I wonder if RBS is another institution which could move quickly.	I wonder if RBS is another institution which could move quickly	184290685	1476921334678	1476921334796	s	83
359852	3879300	I wonder if RBS is another institution which could move quickly.	I wonder if RBS is another institution which could move quickly	184290695	1476921334761	1476921334845	 	32
359852	3879300	I wonder if RBS is another institution which could move quickly.	I wonder if RBS is another institution which could move quickly	184290697	1476921335084	1476921335176	a	65
359852	3879300	I wonder if RBS is another institution which could move quickly.	I wonder if RBS is another institution which could move quickly	184290699	1476921335160	1476921335254	n	78
359852	3879300	I wonder if RBS is another institution which could move quickly.	I wonder if RBS is another institution which could move quickly	184290701	1476921335204	1476921335324	o	79
359852	3879300	I wonder if RBS is another institution which could move quickly.	I wonder if RBS is another institution which could move quickly	184290703	1476921335285	1476921335368	t	84
359852	3879300	I wonder if RBS is another institution which could move quickly.	I wonder if RBS is another institution which could move quickly	184290706	1476921335399	1476921335477	h	72
359852	3879300	I wonder if RBS is another institution which could move quickly.	I wonder if RBS is another institution which could move quickly	184290717	1476921335493	1476921335636	e	69
359852	3879300	I wonder if RBS is another institution which could move quickly.	I wonder if RBS is another institution which could move quickly	184290718	1476921335564	1476921335643	r	82
359852	3879300	I wonder if RBS is another institution which could move quickly.	I wonder if RBS is another institution which could move quickly	184290719	1476921335636	1476921335704	 	32
359852	3879300	I wonder if RBS is another institution which could move quickly.	I wonder if RBS is another institution which could move quickly	184290720	1476921336036	1476921336108	i	73
359852	3879300	I wonder if RBS is another institution which could move quickly.	I wonder if RBS is another institution which could move quickly	184290746	1476921336076	1476921336129	n	78
359852	3879300	I wonder if RBS is another institution which could move quickly.	I wonder if RBS is another institution which could move quickly	184290748	1476921336160	1476921336268	s	83
359852	3879300	I wonder if RBS is another institution which could move quickly.	I wonder if RBS is another institution which could move quickly	184290751	1476921336268	1476921336360	t	84
359852	3879300	I wonder if RBS is another institution which could move quickly.	I wonder if RBS is another institution which could move quickly	184290754	1476921336464	1476921336560	i	73
359852	3879300	I wonder if RBS is another institution which could move quickly.	I wonder if RBS is another institution which could move quickly	184290757	1476921337012	1476921337078	t	84
359852	3879300	I wonder if RBS is another institution which could move quickly.	I wonder if RBS is another institution which could move quickly	184290759	1476921337195	1476921337277	u	85
359852	3879300	I wonder if RBS is another institution which could move quickly.	I wonder if RBS is another institution which could move quickly	184290823	1476921337592	1476921337732	i	73
359852	3879300	I wonder if RBS is another institution which could move quickly.	I wonder if RBS is another institution which could move quickly	184290827	1476921337717	1476921337831	o	79
359852	3879300	I wonder if RBS is another institution which could move quickly.	I wonder if RBS is another institution which could move quickly	184290829	1476921338147	1476921338212	BKSP	8
359852	3879300	I wonder if RBS is another institution which could move quickly.	I wonder if RBS is another institution which could move quickly	184290831	1476921338307	1476921338372	BKSP	8
359852	3879300	I wonder if RBS is another institution which could move quickly.	I wonder if RBS is another institution which could move quickly	184290834	1476921338580	1476921338660	t	84
359852	3879300	I wonder if RBS is another institution which could move quickly.	I wonder if RBS is another institution which could move quickly	184290836	1476921338660	1476921338820	i	73
359852	3879300	I wonder if RBS is another institution which could move quickly.	I wonder if RBS is another institution which could move quickly	184290854	1476921338738	1476921338835	o	79
359852	3879300	I wonder if RBS is another institution which could move quickly.	I wonder if RBS is another institution which could move quickly	184290856	1476921338820	1476921338914	n	78
359852	3879300	I wonder if RBS is another institution which could move quickly.	I wonder if RBS is another institution which could move quickly	184290859	1476921339163	1476921339252	 	32
359852	3879300	I wonder if RBS is another institution which could move quickly.	I wonder if RBS is another institution which could move quickly	184290861	1476921339426	1476921339537	w	87
359852	3879300	I wonder if RBS is another institution which could move quickly.	I wonder if RBS is another institution which could move quickly	184290863	1476921339484	1476921339552	h	72
359852	3879300	I wonder if RBS is another institution which could move quickly.	I wonder if RBS is another institution which could move quickly	184290878	1476921339537	1476921339614	i	73
359852	3879300	I wonder if RBS is another institution which could move quickly.	I wonder if RBS is another institution which could move quickly	184290882	1476921339630	1476921339716	c	67
359852	3879300	I wonder if RBS is another institution which could move quickly.	I wonder if RBS is another institution which could move quickly	184290885	1476921339716	1476921339772	h	72
359852	3879300	I wonder if RBS is another institution which could move quickly.	I wonder if RBS is another institution which could move quickly	184290889	1476921339835	1476921339943	 	32
359852	3879300	I wonder if RBS is another institution which could move quickly.	I wonder if RBS is another institution which could move quickly	184290893	1476921339943	1476921340064	s	83
359852	3879300	I wonder if RBS is another institution which could move quickly.	I wonder if RBS is another institution which could move quickly	184290909	1476921340048	1476921340154	h	72
359852	3879300	I wonder if RBS is another institution which could move quickly.	I wonder if RBS is another institution which could move quickly	184290917	1476921340100	1476921340228	o	79
359852	3879300	I wonder if RBS is another institution which could move quickly.	I wonder if RBS is another institution which could move quickly	184290914	1476921340170	1476921340228	u	85
359852	3879300	I wonder if RBS is another institution which could move quickly.	I wonder if RBS is another institution which could move quickly	184290920	1476921340392	1476921340454	BKSP	8
359852	3879300	I wonder if RBS is another institution which could move quickly.	I wonder if RBS is another institution which could move quickly	184290923	1476921340518	1476921340580	BKSP	8
359852	3879300	I wonder if RBS is another institution which could move quickly.	I wonder if RBS is another institution which could move quickly	184290927	1476921340665	1476921340743	BKSP	8
359852	3879300	I wonder if RBS is another institution which could move quickly.	I wonder if RBS is another institution which could move quickly	184290930	1476921340790	1476921340885	c	67
359852	3879300	I wonder if RBS is another institution which could move quickly.	I wonder if RBS is another institution which could move quickly	184290945	1476921340885	1476921341029	o	79
359852	3879300	I wonder if RBS is another institution which could move quickly.	I wonder if RBS is another institution which could move quickly	184290932	1476921340999	1476921341028	u	85
359852	3879300	I wonder if RBS is another institution which could move quickly.	I wonder if RBS is another institution which could move quickly	184290946	1476921341159	1476921341220	BKSP	8
359852	3879300	I wonder if RBS is another institution which could move quickly.	I wonder if RBS is another institution which could move quickly	184290947	1476921341299	1476921341364	BKSP	8
359852	3879300	I wonder if RBS is another institution which could move quickly.	I wonder if RBS is another institution which could move quickly	184290948	1476921341427	1476921341476	BKSP	8
359852	3879300	I wonder if RBS is another institution which could move quickly.	I wonder if RBS is another institution which could move quickly	184290949	1476921341526	1476921341604	BKSP	8
359852	3879300	I wonder if RBS is another institution which could move quickly.	I wonder if RBS is another institution which could move quickly	184290951	1476921341668	1476921341751	c	67
359852	3879300	I wonder if RBS is another institution which could move quickly.	I wonder if RBS is another institution which could move quickly	184290952	1476921341767	1476921341904	o	79
359852	3879300	I wonder if RBS is another institution which could move quickly.	I wonder if RBS is another institution which could move quickly	184290954	1476921341852	1476921341935	u	85
359852	3879300	I wonder if RBS is another institution which could move quickly.	I wonder if RBS is another institution which could move quickly	184290955	1476921342046	1476921342143	l	76
359852	3879300	I wonder if RBS is another institution which could move quickly.	I wonder if RBS is another institution which could move quickly	184290957	1476921342158	1476921342268	d	68
359852	3879300	I wonder if RBS is another institution which could move quickly.	I wonder if RBS is another institution which could move quickly	184290963	1476921342220	1476921342336	 	32
359852	3879300	I wonder if RBS is another institution which could move quickly.	I wonder if RBS is another institution which could move quickly	184290964	1476921342336	1476921342420	m	77
359852	3879300	I wonder if RBS is another institution which could move quickly.	I wonder if RBS is another institution which could move quickly	184290965	1476921342372	1476921342507	o	79
359852	3879300	I wonder if RBS is another institution which could move quickly.	I wonder if RBS is another institution which could move quickly	184290967	1476921342507	1476921342624	v	86
359852	3879300	I wonder if RBS is another institution which could move quickly.	I wonder if RBS is another institution which could move quickly	184290968	1476921342609	1476921342700	e	69
359852	3879300	I wonder if RBS is another institution which could move quickly.	I wonder if RBS is another institution which could move quickly	184290975	1476921342684	1476921342803	 	32
359852	3879300	I wonder if RBS is another institution which could move quickly.	I wonder if RBS is another institution which could move quickly	184290978	1476921342868	1476921342969	q	81
359852	3879300	I wonder if RBS is another institution which could move quickly.	I wonder if RBS is another institution which could move quickly	184290980	1476921342985	1476921343076	u	85
359852	3879300	I wonder if RBS is another institution which could move quickly.	I wonder if RBS is another institution which could move quickly	184290984	1476921343020	1476921343116	i	73
359852	3879300	I wonder if RBS is another institution which could move quickly.	I wonder if RBS is another institution which could move quickly	184290988	1476921343172	1476921343284	c	67
359852	3879300	I wonder if RBS is another institution which could move quickly.	I wonder if RBS is another institution which could move quickly	184290997	1476921343268	1476921343351	k	75
359852	3879300	I wonder if RBS is another institution which could move quickly.	I wonder if RBS is another institution which could move quickly	184290999	1476921343510	1476921343585	l	76
359852	3879300	I wonder if RBS is another institution which could move quickly.	I wonder if RBS is another institution which could move quickly	184291001	1476921343632	1476921343710	y	89
359852	3879315	Jim please confirm to Vince you are happy.	Jim please confirm to Vince you are happy.	184291061	1476921345302	1476921345332	CAPS_LOCK	20
359852	3879315	Jim please confirm to Vince you are happy.	Jim please confirm to Vince you are happy.	184291063	1476921345446	1476921345514	J	74
359852	3879315	Jim please confirm to Vince you are happy.	Jim please confirm to Vince you are happy.	184291065	1476921345574	1476921345700	CAPS_LOCK	20
359852	3879315	Jim please confirm to Vince you are happy.	Jim please confirm to Vince you are happy.	184291069	1476921345692	1476921345779	i	73
359852	3879315	Jim please confirm to Vince you are happy.	Jim please confirm to Vince you are happy.	184291072	1476921345852	1476921345940	m	77
359852	3879315	Jim please confirm to Vince you are happy.	Jim please confirm to Vince you are happy.	184291073	1476921346012	1476921346122	 	32
359852	3879315	Jim please confirm to Vince you are happy.	Jim please confirm to Vince you are happy.	184291075	1476921346122	1476921346212	p	80
359852	3879315	Jim please confirm to Vince you are happy.	Jim please confirm to Vince you are happy.	184291101	1476921346164	1476921346269	l	76
359852	3879315	Jim please confirm to Vince you are happy.	Jim please confirm to Vince you are happy.	184291102	1476921346422	1476921346556	e	69
359852	3879315	Jim please confirm to Vince you are happy.	Jim please confirm to Vince you are happy.	184291103	1476921346868	1476921347017	a	65
359852	3879315	Jim please confirm to Vince you are happy.	Jim please confirm to Vince you are happy.	184291104	1476921347188	1476921347340	s	83
359852	3879315	Jim please confirm to Vince you are happy.	Jim please confirm to Vince you are happy.	184291105	1476921347305	1476921347382	e	69
359852	3879315	Jim please confirm to Vince you are happy.	Jim please confirm to Vince you are happy.	184291121	1476921347372	1476921347459	 	32
359852	3879315	Jim please confirm to Vince you are happy.	Jim please confirm to Vince you are happy.	184291125	1476921347500	1476921347608	c	67
359852	3879315	Jim please confirm to Vince you are happy.	Jim please confirm to Vince you are happy.	184291127	1476921347608	1476921347732	o	79
359852	3879315	Jim please confirm to Vince you are happy.	Jim please confirm to Vince you are happy.	184291131	1476921347690	1476921347755	n	78
359852	3879315	Jim please confirm to Vince you are happy.	Jim please confirm to Vince you are happy.	184291134	1476921347825	1476921347897	f	70
359852	3879315	Jim please confirm to Vince you are happy.	Jim please confirm to Vince you are happy.	184291136	1476921347907	1476921348012	i	73
359852	3879315	Jim please confirm to Vince you are happy.	Jim please confirm to Vince you are happy.	184291150	1476921348022	1476921348119	r	82
359852	3879315	Jim please confirm to Vince you are happy.	Jim please confirm to Vince you are happy.	184291152	1476921348156	1476921348222	m	77
359852	3879315	Jim please confirm to Vince you are happy.	Jim please confirm to Vince you are happy.	184291154	1476921348374	1476921348495	 	32
359852	3879315	Jim please confirm to Vince you are happy.	Jim please confirm to Vince you are happy.	184291156	1476921348594	1476921348675	t	84
359852	3879315	Jim please confirm to Vince you are happy.	Jim please confirm to Vince you are happy.	184291158	1476921348685	1476921348797	o	79
359852	3879315	Jim please confirm to Vince you are happy.	Jim please confirm to Vince you are happy.	184291173	1476921348797	1476921348883	 	32
359852	3879315	Jim please confirm to Vince you are happy.	Jim please confirm to Vince you are happy.	184291176	1476921348996	1476921349108	CAPS_LOCK	20
359852	3879315	Jim please confirm to Vince you are happy.	Jim please confirm to Vince you are happy.	184291178	1476921349316	1476921349436	V	86
359852	3879315	Jim please confirm to Vince you are happy.	Jim please confirm to Vince you are happy.	184291180	1476921349404	1476921349572	CAPS_LOCK	20
359852	3879315	Jim please confirm to Vince you are happy.	Jim please confirm to Vince you are happy.	184291181	1476921349572	1476921349652	i	73
359852	3879315	Jim please confirm to Vince you are happy.	Jim please confirm to Vince you are happy.	184291182	1476921349620	1476921349708	n	78
359852	3879315	Jim please confirm to Vince you are happy.	Jim please confirm to Vince you are happy.	184291183	1476921349708	1476921349844	c	67
359852	3879315	Jim please confirm to Vince you are happy.	Jim please confirm to Vince you are happy.	184291188	1476921349812	1476921349924	e	69
359852	3879315	Jim please confirm to Vince you are happy.	Jim please confirm to Vince you are happy.	184291190	1476921349900	1476921350036	 	32
359852	3879315	Jim please confirm to Vince you are happy.	Jim please confirm to Vince you are happy.	184291192	1476921350134	1476921350219	y	89
359852	3879315	Jim please confirm to Vince you are happy.	Jim please confirm to Vince you are happy.	184291195	1476921350219	1476921350356	o	79
359852	3879315	Jim please confirm to Vince you are happy.	Jim please confirm to Vince you are happy.	184291198	1476921350272	1476921350372	u	85
359852	3879315	Jim please confirm to Vince you are happy.	Jim please confirm to Vince you are happy.	184291201	1476921350408	1476921350490	 	32
359852	3879315	Jim please confirm to Vince you are happy.	Jim please confirm to Vince you are happy.	184291209	1476921350490	1476921350596	a	65
359852	3879315	Jim please confirm to Vince you are happy.	Jim please confirm to Vince you are happy.	184291211	1476921350586	1476921350737	r	82
359852	3879315	Jim please confirm to Vince you are happy.	Jim please confirm to Vince you are happy.	184291213	1476921350737	1476921350804	e	69
359852	3879315	Jim please confirm to Vince you are happy.	Jim please confirm to Vince you are happy.	184291215	1476921350804	1476921350912	 	32
359852	3879315	Jim please confirm to Vince you are happy.	Jim please confirm to Vince you are happy.	184291218	1476921350912	1476921350972	h	72
359852	3879315	Jim please confirm to Vince you are happy.	Jim please confirm to Vince you are happy.	184291227	1476921350996	1476921351118	a	65
359852	3879315	Jim please confirm to Vince you are happy.	Jim please confirm to Vince you are happy.	184291229	1476921351118	1476921351170	p	80
359852	3879315	Jim please confirm to Vince you are happy.	Jim please confirm to Vince you are happy.	184291231	1476921351240	1476921351325	p	80
359852	3879315	Jim please confirm to Vince you are happy.	Jim please confirm to Vince you are happy.	184291233	1476921351325	1476921351428	y	89
359852	3879323	They have capacity now.	They have capacity now.	184291354	1476921353558	1476921353644	CAPS_LOCK	20
359852	3879323	They have capacity now.	They have capacity now.	184291358	1476921353664	1476921353735	H	72
359852	3879323	They have capacity now.	They have capacity now.	184291361	1476921353755	1476921353836	CAPS_LOCK	20
359852	3879323	They have capacity now.	They have capacity now.	184291365	1476921353918	1476921353980	BKSP	8
359852	3879323	They have capacity now.	They have capacity now.	184291370	1476921354131	1476921354228	t	84
359852	3879323	They have capacity now.	They have capacity now.	184291374	1476921354248	1476921354374	CAPS_LOCK	20
359852	3879323	They have capacity now.	They have capacity now.	184291379	1476921354364	1476921354450	H	72
359852	3879323	They have capacity now.	They have capacity now.	184291382	1476921354694	1476921354805	BKSP	8
359852	3879323	They have capacity now.	They have capacity now.	184291385	1476921354825	1476921354906	T	84
359852	3879323	They have capacity now.	They have capacity now.	184291388	1476921354968	1476921355020	BKSP	8
359852	3879323	They have capacity now.	They have capacity now.	184291391	1476921355116	1476921355202	BKSP	8
359852	3879323	They have capacity now.	They have capacity now.	184291394	1476921355202	1476921355288	T	84
359852	3879323	They have capacity now.	They have capacity now.	184291389	1476921355309	1476921355420	CAPS_LOCK	20
359852	3879323	They have capacity now.	They have capacity now.	184291392	1476921355396	1476921355473	h	72
359852	3879323	They have capacity now.	They have capacity now.	184291396	1476921355524	1476921355616	e	69
359852	3879323	They have capacity now.	They have capacity now.	184291399	1476921355616	1476921355700	y	89
359852	3879323	They have capacity now.	They have capacity now.	184291402	1476921355700	1476921355763	 	32
359852	3879323	They have capacity now.	They have capacity now.	184291404	1476921355803	1476921355844	h	72
359852	3879323	They have capacity now.	They have capacity now.	184291414	1476921355860	1476921355996	a	65
359852	3879323	They have capacity now.	They have capacity now.	184291416	1476921355932	1476921356076	v	86
359852	3879323	They have capacity now.	They have capacity now.	184291419	1476921356060	1476921356140	e	69
359852	3879323	They have capacity now.	They have capacity now.	184291421	1476921356092	1476921356219	 	32
359852	3879323	They have capacity now.	They have capacity now.	184291425	1476921356404	1476921356436	 	67
359852	3879323	They have capacity now.	They have capacity now.	184291456	1476921356482	1476921356492	a	65
359852	3879323	They have capacity now.	They have capacity now.	184291457	1476921356804	1476921356872	BKSP	8
359852	3879323	They have capacity now.	They have capacity now.	184291458	1476921356947	1476921357023	BKSP	8
359852	3879323	They have capacity now.	They have capacity now.	184291459	1476921357055	1476921357124	a	65
359852	3879323	They have capacity now.	They have capacity now.	184291460	1476921357174	1476921357256	p	80
359852	3879323	They have capacity now.	They have capacity now.	184291462	1476921357256	1476921357382	a	65
359852	3879323	They have capacity now.	They have capacity now.	184291464	1476921357412	1476921357489	c	67
359852	3879323	They have capacity now.	They have capacity now.	184291473	1476921357604	1476921357702	i	73
359852	3879323	They have capacity now.	They have capacity now.	184291475	1476921357702	1476921357782	t	84
359852	3879323	They have capacity now.	They have capacity now.	184291479	1476921357834	1476921357896	y	89
359852	3879323	They have capacity now.	They have capacity now.	184291484	1476921358022	1476921358116	 	32
359852	3879323	They have capacity now.	They have capacity now.	184291488	1476921358224	1476921358300	n	78
359852	3879323	They have capacity now.	They have capacity now.	184291501	1476921358276	1476921358348	o	79
359852	3879323	They have capacity now.	They have capacity now.	184291504	1476921358378	1476921358478	w	87
359852	3879327	Their initial review indicates that the pricing seems low.	Their initial review indicates that the pricing seems low.	184291594	1476921360555	1476921360676	CAPS_LOCK	20
359852	3879327	Their initial review indicates that the pricing seems low.	Their initial review indicates that the pricing seems low.	184291595	1476921360718	1476921360822	T	84
359852	3879327	Their initial review indicates that the pricing seems low.	Their initial review indicates that the pricing seems low.	184291596	1476921360842	1476921360956	CAPS_LOCK	20
359852	3879327	Their initial review indicates that the pricing seems low.	Their initial review indicates that the pricing seems low.	184291598	1476921360914	1476921360994	h	72
359852	3879327	Their initial review indicates that the pricing seems low.	Their initial review indicates that the pricing seems low.	184291600	1476921361034	1476921361132	e	69
359852	3879327	Their initial review indicates that the pricing seems low.	Their initial review indicates that the pricing seems low.	184291602	1476921361153	1476921361260	i	73
359852	3879327	Their initial review indicates that the pricing seems low.	Their initial review indicates that the pricing seems low.	184291604	1476921361436	1476921361526	r	82
359852	3879327	Their initial review indicates that the pricing seems low.	Their initial review indicates that the pricing seems low.	184291625	1476921361812	1476921361894	 	32
359852	3879327	Their initial review indicates that the pricing seems low.	Their initial review indicates that the pricing seems low.	184291628	1476921362030	1476921362131	i	73
359852	3879327	Their initial review indicates that the pricing seems low.	Their initial review indicates that the pricing seems low.	184291632	1476921362095	1476921362171	n	78
359852	3879327	Their initial review indicates that the pricing seems low.	Their initial review indicates that the pricing seems low.	184291635	1476921362219	1476921362310	i	73
359852	3879327	Their initial review indicates that the pricing seems low.	Their initial review indicates that the pricing seems low.	184291638	1476921362310	1476921362417	t	84
359852	3879327	Their initial review indicates that the pricing seems low.	Their initial review indicates that the pricing seems low.	184291687	1476921362527	1476921362594	l	76
359852	3879327	Their initial review indicates that the pricing seems low.	Their initial review indicates that the pricing seems low.	184291690	1476921362625	1476921362714	a	65
359852	3879327	Their initial review indicates that the pricing seems low.	Their initial review indicates that the pricing seems low.	184291693	1476921362996	1476921363020	BKSP	8
359852	3879327	Their initial review indicates that the pricing seems low.	Their initial review indicates that the pricing seems low.	184291695	1476921363095	1476921363165	BKSP	8
359852	3879327	Their initial review indicates that the pricing seems low.	Their initial review indicates that the pricing seems low.	184291696	1476921363196	1476921363292	a	65
359852	3879327	Their initial review indicates that the pricing seems low.	Their initial review indicates that the pricing seems low.	184291699	1476921363277	1476921363359	l	76
359852	3879327	Their initial review indicates that the pricing seems low.	Their initial review indicates that the pricing seems low.	184291700	1476921363852	1476921363892	BKSP	8
359852	3879327	Their initial review indicates that the pricing seems low.	Their initial review indicates that the pricing seems low.	184291702	1476921363983	1476921364108	BKSP	8
359852	3879327	Their initial review indicates that the pricing seems low.	Their initial review indicates that the pricing seems low.	184291750	1476921364044	1476921364136	i	73
359852	3879327	Their initial review indicates that the pricing seems low.	Their initial review indicates that the pricing seems low.	184291754	1476921364432	1476921364478	BKSP	8
359852	3879327	Their initial review indicates that the pricing seems low.	Their initial review indicates that the pricing seems low.	184291759	1476921364572	1476921364652	BKSP	8
359852	3879327	Their initial review indicates that the pricing seems low.	Their initial review indicates that the pricing seems low.	184291765	1476921365156	1476921365257	t	84
359852	3879327	Their initial review indicates that the pricing seems low.	Their initial review indicates that the pricing seems low.	184291770	1476921365257	1476921365337	i	73
359852	3879327	Their initial review indicates that the pricing seems low.	Their initial review indicates that the pricing seems low.	184291775	1476921365624	1476921365716	a	65
359852	3879327	Their initial review indicates that the pricing seems low.	Their initial review indicates that the pricing seems low.	184291779	1476921365724	1476921365789	l	76
359852	3879327	Their initial review indicates that the pricing seems low.	Their initial review indicates that the pricing seems low.	184291782	1476921365869	1476921365967	 	32
359852	3879327	Their initial review indicates that the pricing seems low.	Their initial review indicates that the pricing seems low.	184291784	1476921366094	1476921366188	r	82
359852	3879327	Their initial review indicates that the pricing seems low.	Their initial review indicates that the pricing seems low.	184291786	1476921366196	1476921366308	e	69
359852	3879327	Their initial review indicates that the pricing seems low.	Their initial review indicates that the pricing seems low.	184291788	1476921366386	1476921366499	v	86
359852	3879327	Their initial review indicates that the pricing seems low.	Their initial review indicates that the pricing seems low.	184291791	1476921366515	1476921366626	i	73
359852	3879327	Their initial review indicates that the pricing seems low.	Their initial review indicates that the pricing seems low.	184291816	1476921366611	1476921366777	e	69
359852	3879327	Their initial review indicates that the pricing seems low.	Their initial review indicates that the pricing seems low.	184291820	1476921366696	1476921366834	w	87
359852	3879327	Their initial review indicates that the pricing seems low.	Their initial review indicates that the pricing seems low.	184291824	1476921366850	1476921366965	 	32
359852	3879327	Their initial review indicates that the pricing seems low.	Their initial review indicates that the pricing seems low.	184291828	1476921367027	1476921367116	i	73
359852	3879327	Their initial review indicates that the pricing seems low.	Their initial review indicates that the pricing seems low.	184291829	1476921367077	1476921367143	n	78
359852	3879327	Their initial review indicates that the pricing seems low.	Their initial review indicates that the pricing seems low.	184291833	1476921367342	1476921367404	i	73
359852	3879327	Their initial review indicates that the pricing seems low.	Their initial review indicates that the pricing seems low.	184291851	1476921367604	1476921367724	BKSP	8
359852	3879327	Their initial review indicates that the pricing seems low.	Their initial review indicates that the pricing seems low.	184291854	1476921367661	1476921367743	d	68
359852	3879327	Their initial review indicates that the pricing seems low.	Their initial review indicates that the pricing seems low.	184291857	1476921367759	1476921367902	i	73
359852	3879327	Their initial review indicates that the pricing seems low.	Their initial review indicates that the pricing seems low.	184291859	1476921367902	1476921367980	c	67
359852	3879327	Their initial review indicates that the pricing seems low.	Their initial review indicates that the pricing seems low.	184291860	1476921367980	1476921368068	a	65
359852	3879327	Their initial review indicates that the pricing seems low.	Their initial review indicates that the pricing seems low.	184291861	1476921368131	1476921368243	t	84
359852	3879327	Their initial review indicates that the pricing seems low.	Their initial review indicates that the pricing seems low.	184291879	1476921368259	1476921368412	e	69
359852	3879327	Their initial review indicates that the pricing seems low.	Their initial review indicates that the pricing seems low.	184291881	1476921368377	1476921368490	d	68
359852	3879327	Their initial review indicates that the pricing seems low.	Their initial review indicates that the pricing seems low.	184291883	1476921368712	1476921368828	BKSP	8
359852	3879327	Their initial review indicates that the pricing seems low.	Their initial review indicates that the pricing seems low.	184291886	1476921368804	1476921368892	s	83
359852	3879327	Their initial review indicates that the pricing seems low.	Their initial review indicates that the pricing seems low.	184291889	1476921368861	1476921368990	 	32
359852	3879327	Their initial review indicates that the pricing seems low.	Their initial review indicates that the pricing seems low.	184291892	1476921368990	1476921369076	t	84
359852	3879327	Their initial review indicates that the pricing seems low.	Their initial review indicates that the pricing seems low.	184291928	1476921369149	1476921369221	h	72
359852	3879327	Their initial review indicates that the pricing seems low.	Their initial review indicates that the pricing seems low.	184291930	1476921369932	1476921370076	a	65
359852	3879327	Their initial review indicates that the pricing seems low.	Their initial review indicates that the pricing seems low.	184291933	1476921370036	1476921370175	t	84
359852	3879327	Their initial review indicates that the pricing seems low.	Their initial review indicates that the pricing seems low.	184291936	1476921370175	1476921370267	 	32
359852	3879327	Their initial review indicates that the pricing seems low.	Their initial review indicates that the pricing seems low.	184291939	1476921370347	1476921370435	t	84
359852	3879327	Their initial review indicates that the pricing seems low.	Their initial review indicates that the pricing seems low.	184291953	1476921370411	1476921370490	h	72
359852	3879327	Their initial review indicates that the pricing seems low.	Their initial review indicates that the pricing seems low.	184291955	1476921370510	1476921370643	e	69
359852	3879327	Their initial review indicates that the pricing seems low.	Their initial review indicates that the pricing seems low.	184291957	1476921370591	1476921370675	 	32
359852	3879327	Their initial review indicates that the pricing seems low.	Their initial review indicates that the pricing seems low.	184291959	1476921370643	1476921370731	p	80
359852	3879327	Their initial review indicates that the pricing seems low.	Their initial review indicates that the pricing seems low.	184291961	1476921370747	1476921370822	r	82
359852	3879327	Their initial review indicates that the pricing seems low.	Their initial review indicates that the pricing seems low.	184291964	1476921370862	1476921370954	i	73
359852	3879327	Their initial review indicates that the pricing seems low.	Their initial review indicates that the pricing seems low.	184291983	1476921370975	1476921371099	c	67
359852	3879327	Their initial review indicates that the pricing seems low.	Their initial review indicates that the pricing seems low.	184291986	1476921371211	1476921371323	i	73
359852	3879327	Their initial review indicates that the pricing seems low.	Their initial review indicates that the pricing seems low.	184291990	1476921371275	1476921371379	n	78
359852	3879327	Their initial review indicates that the pricing seems low.	Their initial review indicates that the pricing seems low.	184291993	1476921371347	1476921371451	g	71
359852	3879327	Their initial review indicates that the pricing seems low.	Their initial review indicates that the pricing seems low.	184291994	1476921371451	1476921371551	 	32
359852	3879327	Their initial review indicates that the pricing seems low.	Their initial review indicates that the pricing seems low.	184292009	1476921371582	1476921371763	s	83
359852	3879327	Their initial review indicates that the pricing seems low.	Their initial review indicates that the pricing seems low.	184292010	1476921371707	1476921371795	e	69
359852	3879327	Their initial review indicates that the pricing seems low.	Their initial review indicates that the pricing seems low.	184292011	1476921371873	1476921371965	e	69
359852	3879327	Their initial review indicates that the pricing seems low.	Their initial review indicates that the pricing seems low.	184292012	1476921372017	1476921372087	m	77
359852	3879327	Their initial review indicates that the pricing seems low.	Their initial review indicates that the pricing seems low.	184292013	1476921372107	1476921372218	s	83
359852	3879327	Their initial review indicates that the pricing seems low.	Their initial review indicates that the pricing seems low.	184292047	1476921372208	1476921372304	 	32
359852	3879327	Their initial review indicates that the pricing seems low.	Their initial review indicates that the pricing seems low.	184292050	1476921372304	1476921372370	l	76
359852	3879327	Their initial review indicates that the pricing seems low.	Their initial review indicates that the pricing seems low.	184292053	1476921372420	1476921372513	o	79
359852	3879327	Their initial review indicates that the pricing seems low.	Their initial review indicates that the pricing seems low.	184292056	1476921372543	1476921372683	w	87
359852	3879337	Will follow up today.	Will follow up today.	184292142	1476921375210	1476921375323	CAPS_LOCK	20
359852	3879337	Will follow up today.	Will follow up today.	184292143	1476921375494	1476921375617	W	87
359852	3879337	Will follow up today.	Will follow up today.	184292145	1476921375659	1476921375803	CAPS_LOCK	20
359852	3879337	Will follow up today.	Will follow up today.	184292149	1476921375803	1476921375859	i	73
359852	3879337	Will follow up today.	Will follow up today.	184292152	1476921375962	1476921376019	l	76
359852	3879337	Will follow up today.	Will follow up today.	184292154	1476921376078	1476921376177	l	76
359852	3879337	Will follow up today.	Will follow up today.	184292156	1476921376177	1476921376289	 	32
359852	3879337	Will follow up today.	Will follow up today.	184292175	1476921376289	1476921376403	f	70
359852	3879337	Will follow up today.	Will follow up today.	184292179	1476921376403	1476921376491	o	79
359852	3879337	Will follow up today.	Will follow up today.	184292183	1476921376803	1476921376882	l	76
359852	3879337	Will follow up today.	Will follow up today.	184292185	1476921376987	1476921377059	l	76
359852	3879337	Will follow up today.	Will follow up today.	184292188	1476921377059	1476921377160	o	79
359852	3879337	Will follow up today.	Will follow up today.	184292198	1476921377191	1476921377323	w	87
359852	3879337	Will follow up today.	Will follow up today.	184292199	1476921377263	1476921377403	 	32
359852	3879337	Will follow up today.	Will follow up today.	184292200	1476921377413	1476921377510	u	85
359852	3879337	Will follow up today.	Will follow up today.	184292201	1476921377500	1476921377602	p	80
359852	3879337	Will follow up today.	Will follow up today.	184292204	1476921377602	1476921377707	 	32
359852	3879337	Will follow up today.	Will follow up today.	184292218	1476921377793	1476921377853	t	84
359852	3879337	Will follow up today.	Will follow up today.	184292221	1476921377873	1476921377939	o	79
359852	3879337	Will follow up today.	Will follow up today.	184292224	1476921378005	1476921378131	d	68
359852	3879337	Will follow up today.	Will follow up today.	184292231	1476921378083	1476921378207	a	65
359852	3879337	Will follow up today.	Will follow up today.	184292232	1476921378123	1476921378207	y	89
359852	3879337	Will follow up today.	Will follow up today.	184292234	1476921378659	1476921378747	.	110
359852	3879342	Throw it away and not let it touch your heart.	Throw it away and not let it touch your heart.	184292305	1476921380147	1476921380243	CAPS_LOCK	20
359852	3879342	Throw it away and not let it touch your heart.	Throw it away and not let it touch your heart.	184292308	1476921380374	1476921380426	T	84
359852	3879342	Throw it away and not let it touch your heart.	Throw it away and not let it touch your heart.	184292310	1476921380633	1476921380753	CAPS_LOCK	20
359852	3879342	Throw it away and not let it touch your heart.	Throw it away and not let it touch your heart.	184292312	1476921380835	1476921380923	h	72
359852	3879342	Throw it away and not let it touch your heart.	Throw it away and not let it touch your heart.	184292315	1476921380963	1476921381058	r	82
359852	3879342	Throw it away and not let it touch your heart.	Throw it away and not let it touch your heart.	184292317	1476921381099	1476921381207	o	79
359852	3879342	Throw it away and not let it touch your heart.	Throw it away and not let it touch your heart.	184292320	1476921381207	1476921381298	w	87
359852	3879342	Throw it away and not let it touch your heart.	Throw it away and not let it touch your heart.	184292326	1476921381298	1476921381395	 	32
359852	3879342	Throw it away and not let it touch your heart.	Throw it away and not let it touch your heart.	184292327	1476921381370	1476921381466	i	73
359852	3879342	Throw it away and not let it touch your heart.	Throw it away and not let it touch your heart.	184292328	1476921381506	1476921381611	t	84
359852	3879342	Throw it away and not let it touch your heart.	Throw it away and not let it touch your heart.	184292329	1476921381588	1476921381671	 	32
359852	3879342	Throw it away and not let it touch your heart.	Throw it away and not let it touch your heart.	184292330	1476921381691	1476921381771	w	87
359852	3879342	Throw it away and not let it touch your heart.	Throw it away and not let it touch your heart.	184292354	1476921381755	1476921381907	a	65
359852	3879342	Throw it away and not let it touch your heart.	Throw it away and not let it touch your heart.	184292357	1476921381907	1476921382003	w	87
359852	3879342	Throw it away and not let it touch your heart.	Throw it away and not let it touch your heart.	184292362	1476921382108	1476921382180	BKSP	8
359852	3879342	Throw it away and not let it touch your heart.	Throw it away and not let it touch your heart.	184292366	1476921382262	1476921382323	BKSP	8
359852	3879342	Throw it away and not let it touch your heart.	Throw it away and not let it touch your heart.	184292371	1476921382393	1476921382491	BKSP	8
359852	3879342	Throw it away and not let it touch your heart.	Throw it away and not let it touch your heart.	184292375	1476921382459	1476921382523	a	65
359852	3879342	Throw it away and not let it touch your heart.	Throw it away and not let it touch your heart.	184292379	1476921382499	1476921382651	w	87
359852	3879342	Throw it away and not let it touch your heart.	Throw it away and not let it touch your heart.	184292383	1476921382613	1476921382723	a	65
359852	3879342	Throw it away and not let it touch your heart.	Throw it away and not let it touch your heart.	184292388	1476921382713	1476921382770	y	89
359852	3879342	Throw it away and not let it touch your heart.	Throw it away and not let it touch your heart.	184292391	1476921382843	1476921382953	 	32
359852	3879342	Throw it away and not let it touch your heart.	Throw it away and not let it touch your heart.	184292392	1476921383261	1476921383355	a	65
359852	3879342	Throw it away and not let it touch your heart.	Throw it away and not let it touch your heart.	184292395	1476921383355	1476921383410	n	78
359852	3879342	Throw it away and not let it touch your heart.	Throw it away and not let it touch your heart.	184292396	1476921383460	1476921383541	d	68
359852	3879342	Throw it away and not let it touch your heart.	Throw it away and not let it touch your heart.	184292409	1476921383531	1476921383658	 	32
359852	3879342	Throw it away and not let it touch your heart.	Throw it away and not let it touch your heart.	184292410	1476921383658	1476921383739	n	78
359852	3879342	Throw it away and not let it touch your heart.	Throw it away and not let it touch your heart.	184292412	1476921383715	1476921383819	o	79
359852	3879342	Throw it away and not let it touch your heart.	Throw it away and not let it touch your heart.	184292415	1476921383796	1476921383931	t	84
359852	3879342	Throw it away and not let it touch your heart.	Throw it away and not let it touch your heart.	184292418	1476921383903	1476921383995	 	32
359852	3879342	Throw it away and not let it touch your heart.	Throw it away and not let it touch your heart.	184292420	1476921384003	1476921384091	l	76
359852	3879342	Throw it away and not let it touch your heart.	Throw it away and not let it touch your heart.	184292438	1476921384043	1476921384173	e	69
359852	3879342	Throw it away and not let it touch your heart.	Throw it away and not let it touch your heart.	184292442	1476921384173	1476921384267	t	84
359852	3879342	Throw it away and not let it touch your heart.	Throw it away and not let it touch your heart.	184292445	1476921384243	1476921384343	 	32
359852	3879342	Throw it away and not let it touch your heart.	Throw it away and not let it touch your heart.	184292446	1476921384363	1476921384435	i	73
359852	3879342	Throw it away and not let it touch your heart.	Throw it away and not let it touch your heart.	184292450	1476921384465	1476921384547	t	84
359852	3879342	Throw it away and not let it touch your heart.	Throw it away and not let it touch your heart.	184292453	1476921384563	1476921384699	 	32
359852	3879342	Throw it away and not let it touch your heart.	Throw it away and not let it touch your heart.	184292469	1476921384670	1476921384771	t	84
359852	3879342	Throw it away and not let it touch your heart.	Throw it away and not let it touch your heart.	184292474	1476921384795	1476921384931	o	79
359852	3879342	Throw it away and not let it touch your heart.	Throw it away and not let it touch your heart.	184292471	1476921384843	1476921384931	u	85
359852	3879342	Throw it away and not let it touch your heart.	Throw it away and not let it touch your heart.	184292476	1476921384971	1476921385051	c	67
359852	3879342	Throw it away and not let it touch your heart.	Throw it away and not let it touch your heart.	184292478	1476921385051	1476921385113	h	72
359852	3879342	Throw it away and not let it touch your heart.	Throw it away and not let it touch your heart.	184292480	1476921385153	1476921385244	 	32
359852	3879342	Throw it away and not let it touch your heart.	Throw it away and not let it touch your heart.	184292503	1476921385371	1476921385443	y	89
359852	3879342	Throw it away and not let it touch your heart.	Throw it away and not let it touch your heart.	184292505	1476921385443	1476921385579	o	79
359852	3879342	Throw it away and not let it touch your heart.	Throw it away and not let it touch your heart.	184292504	1476921385513	1476921385579	u	85
359852	3879342	Throw it away and not let it touch your heart.	Throw it away and not let it touch your heart.	184292506	1476921385595	1476921385693	r	82
359852	3879342	Throw it away and not let it touch your heart.	Throw it away and not let it touch your heart.	184292507	1476921385747	1476921385851	 	32
359852	3879342	Throw it away and not let it touch your heart.	Throw it away and not let it touch your heart.	184292531	1476921385994	1476921386059	h	72
359852	3879342	Throw it away and not let it touch your heart.	Throw it away and not let it touch your heart.	184292533	1476921386087	1476921386259	e	69
359852	3879342	Throw it away and not let it touch your heart.	Throw it away and not let it touch your heart.	184292535	1476921386171	1476921386283	a	65
359852	3879342	Throw it away and not let it touch your heart.	Throw it away and not let it touch your heart.	184292536	1476921386234	1476921386314	r	82
359852	3879342	Throw it away and not let it touch your heart.	Throw it away and not let it touch your heart.	184292538	1476921386419	1476921386491	t	84
359852	3879342	Throw it away and not let it touch your heart.	Throw it away and not let it touch your heart.	184292550	1476921386691	1476921386787	.	110
359852	3879348	Sure was good talking to you this AM.	Sure was good talking to you this AM.	184292612	1476921388283	1476921388403	CAPS_LOCK	20
359852	3879348	Sure was good talking to you this AM.	Sure was good talking to you this AM.	184292615	1476921388393	1476921388523	S	83
359852	3879348	Sure was good talking to you this AM.	Sure was good talking to you this AM.	184292618	1476921388483	1476921388613	CAPS_LOCK	20
359852	3879348	Sure was good talking to you this AM.	Sure was good talking to you this AM.	184292621	1476921388613	1476921388699	u	85
359852	3879348	Sure was good talking to you this AM.	Sure was good talking to you this AM.	184292623	1476921388719	1476921388843	r	82
359852	3879348	Sure was good talking to you this AM.	Sure was good talking to you this AM.	184292624	1476921388816	1476921388907	e	69
359852	3879348	Sure was good talking to you this AM.	Sure was good talking to you this AM.	184292638	1476921388887	1476921389023	 	32
359852	3879348	Sure was good talking to you this AM.	Sure was good talking to you this AM.	184292640	1476921389023	1476921389131	w	87
359852	3879348	Sure was good talking to you this AM.	Sure was good talking to you this AM.	184292644	1476921389091	1476921389251	a	65
359852	3879348	Sure was good talking to you this AM.	Sure was good talking to you this AM.	184292648	1476921389215	1476921389323	s	83
359852	3879348	Sure was good talking to you this AM.	Sure was good talking to you this AM.	184292652	1476921389291	1476921389398	 	32
359852	3879348	Sure was good talking to you this AM.	Sure was good talking to you this AM.	184292655	1476921389581	1476921389683	g	71
359852	3879348	Sure was good talking to you this AM.	Sure was good talking to you this AM.	184292664	1476921389714	1476921389771	o	79
359852	3879348	Sure was good talking to you this AM.	Sure was good talking to you this AM.	184292668	1476921389837	1476921389935	o	79
359852	3879348	Sure was good talking to you this AM.	Sure was good talking to you this AM.	184292674	1476921389935	1476921390011	d	68
359852	3879348	Sure was good talking to you this AM.	Sure was good talking to you this AM.	184292678	1476921390011	1476921390147	 	32
359852	3879348	Sure was good talking to you this AM.	Sure was good talking to you this AM.	184292682	1476921390147	1476921390275	t	84
359852	3879348	Sure was good talking to you this AM.	Sure was good talking to you this AM.	184292697	1476921390251	1476921390379	a	65
359852	3879348	Sure was good talking to you this AM.	Sure was good talking to you this AM.	184292701	1476921390291	1476921390387	l	76
359852	3879348	Sure was good talking to you this AM.	Sure was good talking to you this AM.	184292704	1476921390347	1476921390411	k	75
359852	3879348	Sure was good talking to you this AM.	Sure was good talking to you this AM.	184292705	1476921390491	1476921390619	i	73
359852	3879348	Sure was good talking to you this AM.	Sure was good talking to you this AM.	184292707	1476921390560	1476921390643	n	78
359852	3879348	Sure was good talking to you this AM.	Sure was good talking to you this AM.	184292715	1476921390619	1476921390699	g	71
359852	3879348	Sure was good talking to you this AM.	Sure was good talking to you this AM.	184292716	1476921390683	1476921390766	 	32
359852	3879348	Sure was good talking to you this AM.	Sure was good talking to you this AM.	184292718	1476921390843	1476921390909	t	84
359852	3879348	Sure was good talking to you this AM.	Sure was good talking to you this AM.	184292720	1476921390909	1476921391019	o	79
359852	3879348	Sure was good talking to you this AM.	Sure was good talking to you this AM.	184292722	1476921390979	1476921391075	 	32
359852	3879348	Sure was good talking to you this AM.	Sure was good talking to you this AM.	184292725	1476921391170	1476921391265	y	89
359852	3879348	Sure was good talking to you this AM.	Sure was good talking to you this AM.	184292747	1476921391265	1476921391427	o	79
359852	3879348	Sure was good talking to you this AM.	Sure was good talking to you this AM.	184292744	1476921391343	1476921391427	u	85
359852	3879348	Sure was good talking to you this AM.	Sure was good talking to you this AM.	184292750	1476921391441	1476921391540	 	32
359852	3879348	Sure was good talking to you this AM.	Sure was good talking to you this AM.	184292751	1476921391699	1476921391779	t	84
359852	3879348	Sure was good talking to you this AM.	Sure was good talking to you this AM.	184292778	1476921391755	1476921391859	h	72
359852	3879348	Sure was good talking to you this AM.	Sure was good talking to you this AM.	184292779	1476921391835	1476921391924	i	73
359852	3879348	Sure was good talking to you this AM.	Sure was good talking to you this AM.	184292780	1476921392002	1476921392128	 	32
359852	3879348	Sure was good talking to you this AM.	Sure was good talking to you this AM.	184292781	1476921392304	1476921392443	BKSP	8
359852	3879348	Sure was good talking to you this AM.	Sure was good talking to you this AM.	184292782	1476921392393	1476921392463	s	83
359852	3879348	Sure was good talking to you this AM.	Sure was good talking to you this AM.	184292783	1476921392463	1476921392589	 	32
359852	3879348	Sure was good talking to you this AM.	Sure was good talking to you this AM.	184292784	1476921392605	1476921392746	CAPS_LOCK	20
359852	3879348	Sure was good talking to you this AM.	Sure was good talking to you this AM.	184292785	1476921392811	1476921392922	A	65
359852	3879348	Sure was good talking to you this AM.	Sure was good talking to you this AM.	184292802	1476921392937	1476921392995	M	77
359852	3879348	Sure was good talking to you this AM.	Sure was good talking to you this AM.	184292804	1476921393114	1476921393195	CAPS_LOCK	20
359852	3879348	Sure was good talking to you this AM.	Sure was good talking to you this AM.	184292805	1476921393463	1476921393575	.	110
359852	3879354	Count me out for this round.	Count me out for this round.	184292882	1476921394815	1476921394915	CAPS_LOCK	20
359852	3879354	Count me out for this round.	Count me out for this round.	184292883	1476921394991	1476921395075	C	67
359852	3879354	Count me out for this round.	Count me out for this round.	184292884	1476921395067	1476921395194	CAPS_LOCK	20
359852	3879354	Count me out for this round.	Count me out for this round.	184292885	1476921395194	1476921395333	o	79
359852	3879354	Count me out for this round.	Count me out for this round.	184292887	1476921395251	1476921395387	u	85
359852	3879354	Count me out for this round.	Count me out for this round.	184292889	1476921395349	1476921395446	n	78
359852	3879354	Count me out for this round.	Count me out for this round.	184292892	1476921395524	1476921395613	t	84
359852	3879354	Count me out for this round.	Count me out for this round.	184292898	1476921395613	1476921395705	 	32
359852	3879354	Count me out for this round.	Count me out for this round.	184292900	1476921395783	1476921395881	m	77
359852	3879354	Count me out for this round.	Count me out for this round.	184292901	1476921395881	1476921395979	e	69
359852	3879354	Count me out for this round.	Count me out for this round.	184292903	1476921395963	1476921396048	 	32
359852	3879354	Count me out for this round.	Count me out for this round.	184292904	1476921396161	1476921396307	o	79
359852	3879354	Count me out for this round.	Count me out for this round.	184292928	1476921396243	1476921396319	u	85
359852	3879354	Count me out for this round.	Count me out for this round.	184292930	1476921396413	1476921396497	 	84
359852	3879354	Count me out for this round.	Count me out for this round.	184292933	1476921396887	1476921396994	f	70
359852	3879354	Count me out for this round.	Count me out for this round.	184292936	1476921396995	1476921397099	o	79
359852	3879354	Count me out for this round.	Count me out for this round.	184292937	1476921397099	1476921397163	r	82
359852	3879354	Count me out for this round.	Count me out for this round.	184292938	1476921397176	1476921397292	 	32
359852	3879354	Count me out for this round.	Count me out for this round.	184292939	1476921397242	1476921397347	t	84
359852	3879354	Count me out for this round.	Count me out for this round.	184292940	1476921397292	1476921397379	h	72
359852	3879354	Count me out for this round.	Count me out for this round.	184292941	1476921397363	1476921397425	i	73
359852	3879354	Count me out for this round.	Count me out for this round.	184292942	1476921397409	1476921397515	s	83
359852	3879354	Count me out for this round.	Count me out for this round.	184292943	1476921397480	1476921397558	 	32
359852	3879354	Count me out for this round.	Count me out for this round.	184292945	1476921397670	1476921397779	r	82
359852	3879354	Count me out for this round.	Count me out for this round.	184292949	1476921397737	1476921397857	o	79
359852	3879354	Count me out for this round.	Count me out for this round.	184292954	1476921397779	1476921397873	u	85
359852	3879354	Count me out for this round.	Count me out for this round.	184292981	1476921397857	1476921397909	n	78
359852	3879354	Count me out for this round.	Count me out for this round.	184292983	1476921397909	1476921398023	d	68
359852	3879357	What will happen to this project?	What will happen to this project?	184293047	1476921400163	1476921400273	CAPS_LOCK	20
359852	3879357	What will happen to this project?	What will happen to this project?	184293049	1476921400396	1476921400530	W	87
359852	3879357	What will happen to this project?	What will happen to this project?	184293053	1476921400465	1476921400608	CAPS_LOCK	20
359852	3879357	What will happen to this project?	What will happen to this project?	184293056	1476921400893	1476921400973	h	72
359852	3879357	What will happen to this project?	What will happen to this project?	184293058	1476921400973	1476921401083	a	65
359852	3879357	What will happen to this project?	What will happen to this project?	184293060	1476921401059	1476921401163	t	84
359852	3879357	What will happen to this project?	What will happen to this project?	184293089	1476921401127	1476921401228	 	32
359852	3879357	What will happen to this project?	What will happen to this project?	184293092	1476921401306	1476921401427	w	87
359852	3879357	What will happen to this project?	What will happen to this project?	184293095	1476921401427	1476921401475	i	73
359852	3879357	What will happen to this project?	What will happen to this project?	184293098	1476921401563	1476921401611	l	76
359852	3879357	What will happen to this project?	What will happen to this project?	184293100	1476921401682	1476921401731	l	76
359852	3879357	What will happen to this project?	What will happen to this project?	184293102	1476921401765	1476921401854	 	32
359852	3879357	What will happen to this project?	What will happen to this project?	184293120	1476921401854	1476921401915	h	72
359852	3879357	What will happen to this project?	What will happen to this project?	184293123	1476921401964	1476921402067	a	65
359852	3879357	What will happen to this project?	What will happen to this project?	184293125	1476921402026	1476921402126	p	80
359852	3879357	What will happen to this project?	What will happen to this project?	184293128	1476921402227	1476921402307	p	80
359852	3879357	What will happen to this project?	What will happen to this project?	184293130	1476921402385	1476921402466	e	69
359852	3879357	What will happen to this project?	What will happen to this project?	184293160	1476921402466	1476921402571	n	78
359852	3879357	What will happen to this project?	What will happen to this project?	184293162	1476921402613	1476921402723	 	32
359852	3879357	What will happen to this project?	What will happen to this project?	184293163	1476921402786	1476921402850	t	84
359852	3879357	What will happen to this project?	What will happen to this project?	184293164	1476921402850	1476921402916	o	79
359852	3879357	What will happen to this project?	What will happen to this project?	184293165	1476921402947	1476921403075	 	32
359852	3879357	What will happen to this project?	What will happen to this project?	184293171	1476921403016	1476921403099	t	84
359852	3879357	What will happen to this project?	What will happen to this project?	184293172	1476921403076	1476921403171	h	72
359852	3879357	What will happen to this project?	What will happen to this project?	184293174	1476921403123	1476921403192	i	73
359852	3879357	What will happen to this project?	What will happen to this project?	184293177	1476921403192	1476921403257	s	83
359852	3879357	What will happen to this project?	What will happen to this project?	184293179	1476921403257	1476921403333	 	32
359852	3879357	What will happen to this project?	What will happen to this project?	184293182	1476921403349	1476921403467	p	80
359852	3879357	What will happen to this project?	What will happen to this project?	184293201	1476921403468	1476921403526	r	82
359852	3879357	What will happen to this project?	What will happen to this project?	184293205	1476921403557	1476921403683	o	79
359852	3879357	What will happen to this project?	What will happen to this project?	184293207	1476921403635	1476921403723	j	74
359852	3879357	What will happen to this project?	What will happen to this project?	184293209	1476921403723	1476921403811	e	69
359852	3879357	What will happen to this project?	What will happen to this project?	184293212	1476921403838	1476921403943	c	67
359852	3879357	What will happen to this project?	What will happen to this project?	184293259	1476921404028	1476921404129	t	84
359852	3879357	What will happen to this project?	What will happen to this project?	184293269	1476921404568	1476921405640	SHIFT	16
359852	3879357	What will happen to this project?	What will happen to this project?	184293260	1476921404776	1476921404792	>	190
359852	3879357	What will happen to this project?	What will happen to this project?	184293262	1476921404840	1476921404908	?	191
359852	3879357	What will happen to this project?	What will happen to this project?	184293264	1476921405224	1476921405291	BKSP	8
359852	3879357	What will happen to this project?	What will happen to this project?	184293266	1476921405355	1476921405417	BKSP	8
359852	3879357	What will happen to this project?	What will happen to this project?	184293272	1476921405558	1476921405640	?	191
359852	3879362	Els rocketed to his first European Tour victory back.	Els rocketed to his first European Tour viktory back.	184293330	1476921407350	1476921407476	CAPS_LOCK	20
359852	3879362	Els rocketed to his first European Tour victory back.	Els rocketed to his first European Tour viktory back.	184293332	1476921407541	1476921407655	E	69
359852	3879362	Els rocketed to his first European Tour victory back.	Els rocketed to his first European Tour viktory back.	184293334	1476921407623	1476921407764	CAPS_LOCK	20
359852	3879362	Els rocketed to his first European Tour victory back.	Els rocketed to his first European Tour viktory back.	184293336	1476921407796	1476921407947	l	76
359852	3879362	Els rocketed to his first European Tour victory back.	Els rocketed to his first European Tour viktory back.	184293339	1476921407910	1476921408021	s	83
359852	3879362	Els rocketed to his first European Tour victory back.	Els rocketed to his first European Tour viktory back.	184293341	1476921408021	1476921408114	 	32
359852	3879362	Els rocketed to his first European Tour victory back.	Els rocketed to his first European Tour viktory back.	184293344	1476921408162	1476921408260	e	69
359852	3879362	Els rocketed to his first European Tour victory back.	Els rocketed to his first European Tour viktory back.	184293383	1476921408386	1476921408477	c	67
359852	3879362	Els rocketed to his first European Tour victory back.	Els rocketed to his first European Tour viktory back.	184293385	1476921408475	1476921408563	o	79
359852	3879362	Els rocketed to his first European Tour victory back.	Els rocketed to his first European Tour viktory back.	184293387	1476921408893	1476921408959	BKSP	8
359852	3879362	Els rocketed to his first European Tour victory back.	Els rocketed to his first European Tour viktory back.	184293389	1476921409052	1476921409117	BKSP	8
359852	3879362	Els rocketed to his first European Tour victory back.	Els rocketed to his first European Tour viktory back.	184293391	1476921409117	1476921409193	r	82
359852	3879362	Els rocketed to his first European Tour victory back.	Els rocketed to his first European Tour viktory back.	184293393	1476921409240	1476921409339	o	79
359852	3879362	Els rocketed to his first European Tour victory back.	Els rocketed to his first European Tour viktory back.	184293396	1476921409339	1476921409416	c	67
359852	3879362	Els rocketed to his first European Tour victory back.	Els rocketed to his first European Tour viktory back.	184293421	1476921409526	1476921409595	BKSP	8
359852	3879362	Els rocketed to his first European Tour victory back.	Els rocketed to his first European Tour viktory back.	184293423	1476921409675	1476921409723	BKSP	8
359852	3879362	Els rocketed to his first European Tour victory back.	Els rocketed to his first European Tour viktory back.	184293425	1476921409803	1476921409858	BKSP	8
359852	3879362	Els rocketed to his first European Tour victory back.	Els rocketed to his first European Tour viktory back.	184293427	1476921409909	1476921409987	BKSP	8
359852	3879362	Els rocketed to his first European Tour victory back.	Els rocketed to his first European Tour viktory back.	184293431	1476921409987	1476921410059	r	82
359852	3879362	Els rocketed to his first European Tour victory back.	Els rocketed to his first European Tour viktory back.	184293435	1476921410114	1476921410190	o	79
359852	3879362	Els rocketed to his first European Tour victory back.	Els rocketed to his first European Tour viktory back.	184293439	1476921410206	1476921410299	c	67
359852	3879362	Els rocketed to his first European Tour victory back.	Els rocketed to his first European Tour viktory back.	184293442	1476921410299	1476921410366	k	75
359852	3879362	Els rocketed to his first European Tour victory back.	Els rocketed to his first European Tour viktory back.	184293447	1476921410397	1476921410502	e	69
359852	3879362	Els rocketed to his first European Tour victory back.	Els rocketed to his first European Tour viktory back.	184293477	1476921410518	1476921410614	t	84
359852	3879362	Els rocketed to his first European Tour victory back.	Els rocketed to his first European Tour viktory back.	184293478	1476921410679	1476921410789	e	69
359852	3879362	Els rocketed to his first European Tour victory back.	Els rocketed to his first European Tour viktory back.	184293479	1476921410820	1476921410962	d	68
359852	3879362	Els rocketed to his first European Tour victory back.	Els rocketed to his first European Tour viktory back.	184293480	1476921411185	1476921411298	 	32
359852	3879362	Els rocketed to his first European Tour victory back.	Els rocketed to his first European Tour viktory back.	184293481	1476921411431	1476921411523	t	84
359852	3879362	Els rocketed to his first European Tour victory back.	Els rocketed to his first European Tour viktory back.	184293515	1476921411523	1476921411607	o	79
359852	3879362	Els rocketed to his first European Tour victory back.	Els rocketed to his first European Tour viktory back.	184293518	1476921411622	1476921411764	 	32
359852	3879362	Els rocketed to his first European Tour victory back.	Els rocketed to his first European Tour viktory back.	184293521	1476921411934	1476921412035	h	72
359852	3879362	Els rocketed to his first European Tour victory back.	Els rocketed to his first European Tour viktory back.	184293523	1476921412000	1476921412099	i	73
359852	3879362	Els rocketed to his first European Tour victory back.	Els rocketed to his first European Tour viktory back.	184293524	1476921412099	1476921412171	s	83
359852	3879362	Els rocketed to his first European Tour victory back.	Els rocketed to his first European Tour viktory back.	184293538	1476921412139	1476921412252	 	32
359852	3879362	Els rocketed to his first European Tour victory back.	Els rocketed to his first European Tour viktory back.	184293541	1476921412236	1476921412331	f	70
359852	3879362	Els rocketed to his first European Tour victory back.	Els rocketed to his first European Tour viktory back.	184293546	1476921412331	1476921412443	i	73
359852	3879362	Els rocketed to his first European Tour victory back.	Els rocketed to his first European Tour viktory back.	184293548	1476921412411	1476921412475	r	82
359852	3879362	Els rocketed to his first European Tour victory back.	Els rocketed to his first European Tour viktory back.	184293549	1476921412522	1476921412651	s	83
359852	3879362	Els rocketed to his first European Tour victory back.	Els rocketed to his first European Tour viktory back.	184293582	1476921412599	1476921412692	t	84
359852	3879362	Els rocketed to his first European Tour victory back.	Els rocketed to his first European Tour viktory back.	184293584	1476921412677	1476921412768	 	32
359852	3879362	Els rocketed to his first European Tour victory back.	Els rocketed to his first European Tour viktory back.	184293586	1476921412959	1476921413099	CAPS_LOCK	20
359852	3879362	Els rocketed to his first European Tour victory back.	Els rocketed to his first European Tour viktory back.	184293588	1476921413075	1476921413194	E	69
359852	3879362	Els rocketed to his first European Tour victory back.	Els rocketed to his first European Tour viktory back.	184293590	1476921413162	1476921413287	CAPS_LOCK	20
359852	3879362	Els rocketed to his first European Tour victory back.	Els rocketed to his first European Tour viktory back.	184293592	1476921413464	1476921413563	u	85
359852	3879362	Els rocketed to his first European Tour victory back.	Els rocketed to his first European Tour viktory back.	184293594	1476921413578	1476921413672	r	82
359852	3879362	Els rocketed to his first European Tour victory back.	Els rocketed to his first European Tour viktory back.	184293596	1476921413751	1476921413839	o	79
359852	3879362	Els rocketed to his first European Tour victory back.	Els rocketed to his first European Tour viktory back.	184293613	1476921414029	1476921414124	p	80
359852	3879362	Els rocketed to his first European Tour victory back.	Els rocketed to his first European Tour viktory back.	184293615	1476921414178	1476921414271	e	69
359852	3879362	Els rocketed to his first European Tour victory back.	Els rocketed to his first European Tour viktory back.	184293617	1476921414367	1476921414483	a	65
359852	3879362	Els rocketed to his first European Tour victory back.	Els rocketed to his first European Tour viktory back.	184293619	1476921414513	1476921414589	n	78
359852	3879362	Els rocketed to his first European Tour victory back.	Els rocketed to his first European Tour viktory back.	184293622	1476921414651	1476921414747	 	32
359852	3879362	Els rocketed to his first European Tour victory back.	Els rocketed to his first European Tour viktory back.	184293649	1476921414989	1476921415114	CAPS_LOCK	20
359852	3879362	Els rocketed to his first European Tour victory back.	Els rocketed to his first European Tour viktory back.	184293651	1476921415114	1476921415195	T	84
359852	3879362	Els rocketed to his first European Tour victory back.	Els rocketed to his first European Tour viktory back.	184293653	1476921415196	1476921415322	CAPS_LOCK	20
359852	3879362	Els rocketed to his first European Tour victory back.	Els rocketed to his first European Tour viktory back.	184293655	1476921415306	1476921415448	o	79
359852	3879362	Els rocketed to his first European Tour victory back.	Els rocketed to his first European Tour viktory back.	184293657	1476921415371	1476921415448	u	85
359852	3879362	Els rocketed to his first European Tour victory back.	Els rocketed to his first European Tour viktory back.	184293659	1476921415448	1476921415532	r	82
359852	3879362	Els rocketed to his first European Tour victory back.	Els rocketed to his first European Tour viktory back.	184293661	1476921415532	1476921415631	 	32
359852	3879362	Els rocketed to his first European Tour victory back.	Els rocketed to his first European Tour viktory back.	184293678	1476921415647	1476921415723	t	84
359852	3879362	Els rocketed to his first European Tour victory back.	Els rocketed to his first European Tour viktory back.	184293680	1476921416024	1476921416108	BKSP	8
359852	3879362	Els rocketed to his first European Tour victory back.	Els rocketed to his first European Tour viktory back.	184293682	1476921416124	1476921416194	v	86
359852	3879362	Els rocketed to his first European Tour victory back.	Els rocketed to his first European Tour viktory back.	184293685	1476921416210	1476921416355	i	73
359852	3879362	Els rocketed to his first European Tour victory back.	Els rocketed to his first European Tour viktory back.	184293688	1476921416294	1476921416419	k	75
359852	3879362	Els rocketed to his first European Tour victory back.	Els rocketed to his first European Tour viktory back.	184293691	1476921416421	1476921416483	t	84
359852	3879362	Els rocketed to his first European Tour victory back.	Els rocketed to his first European Tour viktory back.	184293699	1476921416515	1476921416611	o	79
359852	3879362	Els rocketed to his first European Tour victory back.	Els rocketed to his first European Tour viktory back.	184293700	1476921416611	1476921416690	r	82
359852	3879362	Els rocketed to his first European Tour victory back.	Els rocketed to his first European Tour viktory back.	184293701	1476921416755	1476921416812	y	89
359852	3879362	Els rocketed to his first European Tour victory back.	Els rocketed to his first European Tour viktory back.	184293704	1476921416908	1476921416991	 	32
359852	3879362	Els rocketed to his first European Tour victory back.	Els rocketed to his first European Tour viktory back.	184293707	1476921417117	1476921417181	CAPS_LOCK	20
359852	3879362	Els rocketed to his first European Tour victory back.	Els rocketed to his first European Tour viktory back.	184293710	1476921417376	1476921417483	CAPS_LOCK	20
359852	3879362	Els rocketed to his first European Tour victory back.	Els rocketed to his first European Tour viktory back.	184293713	1476921417663	1476921417755	b	66
359852	3879362	Els rocketed to his first European Tour victory back.	Els rocketed to his first European Tour viktory back.	184293727	1476921417771	1476921417911	a	65
359852	3879362	Els rocketed to his first European Tour victory back.	Els rocketed to his first European Tour viktory back.	184293729	1476921417896	1476921417958	c	67
359852	3879362	Els rocketed to his first European Tour victory back.	Els rocketed to his first European Tour viktory back.	184293731	1476921417942	1476921418013	k	75
359852	3879371	Martha Stewart will not be dining with us this Thanksgiving.	Martha Stewart will not be dining with us this Thanksgiving.	184293824	1476921420302	1476921420443	CAPS_LOCK	20
359852	3879371	Martha Stewart will not be dining with us this Thanksgiving.	Martha Stewart will not be dining with us this Thanksgiving.	184293825	1476921420572	1476921420665	M	77
359852	3879371	Martha Stewart will not be dining with us this Thanksgiving.	Martha Stewart will not be dining with us this Thanksgiving.	184293826	1476921420650	1476921420728	CAPS_LOCK	20
359852	3879371	Martha Stewart will not be dining with us this Thanksgiving.	Martha Stewart will not be dining with us this Thanksgiving.	184293827	1476921420823	1476921420971	a	65
359852	3879371	Martha Stewart will not be dining with us this Thanksgiving.	Martha Stewart will not be dining with us this Thanksgiving.	184293829	1476921420937	1476921421015	r	82
359852	3879371	Martha Stewart will not be dining with us this Thanksgiving.	Martha Stewart will not be dining with us this Thanksgiving.	184293831	1476921421114	1476921421213	t	84
359852	3879371	Martha Stewart will not be dining with us this Thanksgiving.	Martha Stewart will not be dining with us this Thanksgiving.	184293835	1476921421228	1476921421307	h	72
359852	3879371	Martha Stewart will not be dining with us this Thanksgiving.	Martha Stewart will not be dining with us this Thanksgiving.	184293862	1476921421322	1476921421422	a	65
359852	3879371	Martha Stewart will not be dining with us this Thanksgiving.	Martha Stewart will not be dining with us this Thanksgiving.	184293865	1476921421422	1476921421559	 	32
359852	3879371	Martha Stewart will not be dining with us this Thanksgiving.	Martha Stewart will not be dining with us this Thanksgiving.	184293868	1476921421733	1476921421875	CAPS_LOCK	20
359852	3879371	Martha Stewart will not be dining with us this Thanksgiving.	Martha Stewart will not be dining with us this Thanksgiving.	184293871	1476921421851	1476921421971	S	83
359852	3879371	Martha Stewart will not be dining with us this Thanksgiving.	Martha Stewart will not be dining with us this Thanksgiving.	184293873	1476921421940	1476921422067	CAPS_LOCK	20
359852	3879371	Martha Stewart will not be dining with us this Thanksgiving.	Martha Stewart will not be dining with us this Thanksgiving.	184293876	1476921422083	1476921422179	t	84
359852	3879371	Martha Stewart will not be dining with us this Thanksgiving.	Martha Stewart will not be dining with us this Thanksgiving.	184293880	1476921422251	1476921422378	e	69
359852	3879371	Martha Stewart will not be dining with us this Thanksgiving.	Martha Stewart will not be dining with us this Thanksgiving.	184293899	1476921422443	1476921422538	w	87
359852	3879371	Martha Stewart will not be dining with us this Thanksgiving.	Martha Stewart will not be dining with us this Thanksgiving.	184293901	1476921422797	1476921422930	a	65
359852	3879371	Martha Stewart will not be dining with us this Thanksgiving.	Martha Stewart will not be dining with us this Thanksgiving.	184293903	1476921422946	1476921423038	r	82
359852	3879371	Martha Stewart will not be dining with us this Thanksgiving.	Martha Stewart will not be dining with us this Thanksgiving.	184293905	1476921423613	1476921423704	t	84
359852	3879371	Martha Stewart will not be dining with us this Thanksgiving.	Martha Stewart will not be dining with us this Thanksgiving.	184293906	1476921423755	1476921423859	 	32
359852	3879371	Martha Stewart will not be dining with us this Thanksgiving.	Martha Stewart will not be dining with us this Thanksgiving.	184293929	1476921423939	1476921424022	w	87
359852	3879371	Martha Stewart will not be dining with us this Thanksgiving.	Martha Stewart will not be dining with us this Thanksgiving.	184293931	1476921424083	1476921424131	i	73
359852	3879371	Martha Stewart will not be dining with us this Thanksgiving.	Martha Stewart will not be dining with us this Thanksgiving.	184293933	1476921424223	1476921424283	l	76
359852	3879371	Martha Stewart will not be dining with us this Thanksgiving.	Martha Stewart will not be dining with us this Thanksgiving.	184293934	1476921424344	1476921424391	l	76
359852	3879371	Martha Stewart will not be dining with us this Thanksgiving.	Martha Stewart will not be dining with us this Thanksgiving.	184293935	1476921424422	1476921424529	 	32
359852	3879371	Martha Stewart will not be dining with us this Thanksgiving.	Martha Stewart will not be dining with us this Thanksgiving.	184293950	1476921424514	1476921424619	n	78
359852	3879371	Martha Stewart will not be dining with us this Thanksgiving.	Martha Stewart will not be dining with us this Thanksgiving.	184293953	1476921424563	1476921424675	o	79
359852	3879371	Martha Stewart will not be dining with us this Thanksgiving.	Martha Stewart will not be dining with us this Thanksgiving.	184293956	1476921424801	1476921424897	t	84
359852	3879371	Martha Stewart will not be dining with us this Thanksgiving.	Martha Stewart will not be dining with us this Thanksgiving.	184293958	1476921424915	1476921425027	 	32
359852	3879371	Martha Stewart will not be dining with us this Thanksgiving.	Martha Stewart will not be dining with us this Thanksgiving.	184293961	1476921425043	1476921425114	b	66
359852	3879371	Martha Stewart will not be dining with us this Thanksgiving.	Martha Stewart will not be dining with us this Thanksgiving.	184293963	1476921425129	1476921425243	e	69
359852	3879371	Martha Stewart will not be dining with us this Thanksgiving.	Martha Stewart will not be dining with us this Thanksgiving.	184293990	1476921425206	1476921425324	 	32
359852	3879371	Martha Stewart will not be dining with us this Thanksgiving.	Martha Stewart will not be dining with us this Thanksgiving.	184293993	1476921425490	1476921425563	i	73
359852	3879371	Martha Stewart will not be dining with us this Thanksgiving.	Martha Stewart will not be dining with us this Thanksgiving.	184293996	1476921425531	1476921425627	d	68
359852	3879371	Martha Stewart will not be dining with us this Thanksgiving.	Martha Stewart will not be dining with us this Thanksgiving.	184294001	1476921425788	1476921425849	BKSP	8
359852	3879371	Martha Stewart will not be dining with us this Thanksgiving.	Martha Stewart will not be dining with us this Thanksgiving.	184294003	1476921425928	1476921425977	BKSP	8
359852	3879371	Martha Stewart will not be dining with us this Thanksgiving.	Martha Stewart will not be dining with us this Thanksgiving.	184294005	1476921425993	1476921426111	d	68
359852	3879371	Martha Stewart will not be dining with us this Thanksgiving.	Martha Stewart will not be dining with us this Thanksgiving.	184294007	1476921426111	1476921426189	i	73
359852	3879371	Martha Stewart will not be dining with us this Thanksgiving.	Martha Stewart will not be dining with us this Thanksgiving.	184294031	1476921426174	1476921426288	n	78
359852	3879371	Martha Stewart will not be dining with us this Thanksgiving.	Martha Stewart will not be dining with us this Thanksgiving.	184294035	1476921426288	1476921426364	i	73
359852	3879371	Martha Stewart will not be dining with us this Thanksgiving.	Martha Stewart will not be dining with us this Thanksgiving.	184294038	1476921426429	1476921426537	g	71
359852	3879371	Martha Stewart will not be dining with us this Thanksgiving.	Martha Stewart will not be dining with us this Thanksgiving.	184294043	1476921426522	1476921426579	n	78
359852	3879371	Martha Stewart will not be dining with us this Thanksgiving.	Martha Stewart will not be dining with us this Thanksgiving.	184294045	1476921426768	1476921426833	BKSP	8
359852	3879371	Martha Stewart will not be dining with us this Thanksgiving.	Martha Stewart will not be dining with us this Thanksgiving.	184294047	1476921426911	1476921426992	BKSP	8
359852	3879371	Martha Stewart will not be dining with us this Thanksgiving.	Martha Stewart will not be dining with us this Thanksgiving.	184294049	1476921427075	1476921427141	n	78
359852	3879371	Martha Stewart will not be dining with us this Thanksgiving.	Martha Stewart will not be dining with us this Thanksgiving.	184294051	1476921427172	1476921427264	g	71
359852	3879371	Martha Stewart will not be dining with us this Thanksgiving.	Martha Stewart will not be dining with us this Thanksgiving.	184294052	1476921427363	1476921427483	 	32
359852	3879371	Martha Stewart will not be dining with us this Thanksgiving.	Martha Stewart will not be dining with us this Thanksgiving.	184294053	1476921427451	1476921427549	w	87
359852	3879371	Martha Stewart will not be dining with us this Thanksgiving.	Martha Stewart will not be dining with us this Thanksgiving.	184294055	1476921427483	1476921427564	i	73
359852	3879371	Martha Stewart will not be dining with us this Thanksgiving.	Martha Stewart will not be dining with us this Thanksgiving.	184294058	1476921427611	1476921427689	t	84
359852	3879371	Martha Stewart will not be dining with us this Thanksgiving.	Martha Stewart will not be dining with us this Thanksgiving.	184294080	1476921427674	1476921427727	h	72
359852	3879371	Martha Stewart will not be dining with us this Thanksgiving.	Martha Stewart will not be dining with us this Thanksgiving.	184294083	1476921427758	1476921427855	 	32
359852	3879371	Martha Stewart will not be dining with us this Thanksgiving.	Martha Stewart will not be dining with us this Thanksgiving.	184294088	1476921427839	1476921427930	u	85
359852	3879371	Martha Stewart will not be dining with us this Thanksgiving.	Martha Stewart will not be dining with us this Thanksgiving.	184294092	1476921427930	1476921428031	s	83
359852	3879371	Martha Stewart will not be dining with us this Thanksgiving.	Martha Stewart will not be dining with us this Thanksgiving.	184294095	1476921428015	1476921428130	 	32
359852	3879371	Martha Stewart will not be dining with us this Thanksgiving.	Martha Stewart will not be dining with us this Thanksgiving.	184294099	1476921428419	1476921428491	t	84
359852	3879371	Martha Stewart will not be dining with us this Thanksgiving.	Martha Stewart will not be dining with us this Thanksgiving.	184294125	1476921428467	1476921428547	h	72
359852	3879371	Martha Stewart will not be dining with us this Thanksgiving.	Martha Stewart will not be dining with us this Thanksgiving.	184294127	1476921428523	1476921428619	i	73
359852	3879371	Martha Stewart will not be dining with us this Thanksgiving.	Martha Stewart will not be dining with us this Thanksgiving.	184294132	1476921428575	1476921428671	s	83
359852	3879371	Martha Stewart will not be dining with us this Thanksgiving.	Martha Stewart will not be dining with us this Thanksgiving.	184294135	1476921428656	1476921428749	 	32
359852	3879371	Martha Stewart will not be dining with us this Thanksgiving.	Martha Stewart will not be dining with us this Thanksgiving.	184294140	1476921429052	1476921429163	CAPS_LOCK	20
359852	3879371	Martha Stewart will not be dining with us this Thanksgiving.	Martha Stewart will not be dining with us this Thanksgiving.	184294143	1476921429163	1476921429244	T	84
359852	3879371	Martha Stewart will not be dining with us this Thanksgiving.	Martha Stewart will not be dining with us this Thanksgiving.	184294144	1476921429228	1476921429338	CAPS_LOCK	20
359852	3879371	Martha Stewart will not be dining with us this Thanksgiving.	Martha Stewart will not be dining with us this Thanksgiving.	184294146	1476921429353	1476921429432	h	72
359852	3879371	Martha Stewart will not be dining with us this Thanksgiving.	Martha Stewart will not be dining with us this Thanksgiving.	184294157	1476921429448	1476921429546	a	65
359852	3879371	Martha Stewart will not be dining with us this Thanksgiving.	Martha Stewart will not be dining with us this Thanksgiving.	184294160	1476921429546	1476921429622	n	78
359852	3879371	Martha Stewart will not be dining with us this Thanksgiving.	Martha Stewart will not be dining with us this Thanksgiving.	184294163	1476921429606	1476921429707	k	75
359852	3879371	Martha Stewart will not be dining with us this Thanksgiving.	Martha Stewart will not be dining with us this Thanksgiving.	184294167	1476921429658	1476921429767	s	83
359852	3879371	Martha Stewart will not be dining with us this Thanksgiving.	Martha Stewart will not be dining with us this Thanksgiving.	184294173	1476921430180	1476921430252	g	71
359852	3879371	Martha Stewart will not be dining with us this Thanksgiving.	Martha Stewart will not be dining with us this Thanksgiving.	184294186	1476921430264	1476921430341	i	73
359852	3879371	Martha Stewart will not be dining with us this Thanksgiving.	Martha Stewart will not be dining with us this Thanksgiving.	184294189	1476921430372	1476921430467	v	86
359852	3879371	Martha Stewart will not be dining with us this Thanksgiving.	Martha Stewart will not be dining with us this Thanksgiving.	184294192	1476921430467	1476921430548	i	73
359852	3879371	Martha Stewart will not be dining with us this Thanksgiving.	Martha Stewart will not be dining with us this Thanksgiving.	184294195	1476921430508	1476921430575	n	78
359852	3879371	Martha Stewart will not be dining with us this Thanksgiving.	Martha Stewart will not be dining with us this Thanksgiving.	184294198	1476921430575	1476921430658	g	71
359852	3879371	Martha Stewart will not be dining with us this Thanksgiving.	Martha Stewart will not be dining with us this Thanksgiving.	184294211	1476921431044	1476921431115	.	110
359852	3879380	Still hustling to find dollars for the quarter end.	Still hustling to find dollars for the quarter end.	184294282	1476921432411	1476921432525	CAPS_LOCK	20
359852	3879380	Still hustling to find dollars for the quarter end.	Still hustling to find dollars for the quarter end.	184294284	1476921432525	1476921432639	S	83
359852	3879380	Still hustling to find dollars for the quarter end.	Still hustling to find dollars for the quarter end.	184294286	1476921432591	1476921432686	CAPS_LOCK	20
359852	3879380	Still hustling to find dollars for the quarter end.	Still hustling to find dollars for the quarter end.	184294287	1476921432702	1476921432798	t	84
359852	3879380	Still hustling to find dollars for the quarter end.	Still hustling to find dollars for the quarter end.	184294289	1476921432798	1476921432872	i	73
359852	3879380	Still hustling to find dollars for the quarter end.	Still hustling to find dollars for the quarter end.	184294290	1476921432950	1476921433029	l	76
359852	3879380	Still hustling to find dollars for the quarter end.	Still hustling to find dollars for the quarter end.	184294292	1476921433083	1476921433164	l	76
359852	3879380	Still hustling to find dollars for the quarter end.	Still hustling to find dollars for the quarter end.	184294331	1476921433196	1476921433289	 	32
359852	3879380	Still hustling to find dollars for the quarter end.	Still hustling to find dollars for the quarter end.	184294332	1476921433368	1476921433465	h	72
359852	3879380	Still hustling to find dollars for the quarter end.	Still hustling to find dollars for the quarter end.	184294333	1476921433511	1476921433587	s	83
359852	3879380	Still hustling to find dollars for the quarter end.	Still hustling to find dollars for the quarter end.	184294334	1476921433764	1476921433883	BKSP	8
359852	3879380	Still hustling to find dollars for the quarter end.	Still hustling to find dollars for the quarter end.	184294335	1476921433832	1476921433914	u	85
359852	3879380	Still hustling to find dollars for the quarter end.	Still hustling to find dollars for the quarter end.	184294336	1476921434254	1476921434396	s	83
359852	3879380	Still hustling to find dollars for the quarter end.	Still hustling to find dollars for the quarter end.	184294351	1476921434396	1476921434464	t	84
359852	3879380	Still hustling to find dollars for the quarter end.	Still hustling to find dollars for the quarter end.	184294354	1476921434526	1476921434607	l	76
359852	3879380	Still hustling to find dollars for the quarter end.	Still hustling to find dollars for the quarter end.	184294359	1476921434700	1476921434804	i	73
359852	3879380	Still hustling to find dollars for the quarter end.	Still hustling to find dollars for the quarter end.	184294364	1476921434782	1476921434849	n	78
359852	3879380	Still hustling to find dollars for the quarter end.	Still hustling to find dollars for the quarter end.	184294371	1476921434864	1476921434940	g	71
359852	3879380	Still hustling to find dollars for the quarter end.	Still hustling to find dollars for the quarter end.	184294398	1476921435019	1476921435130	 	32
359852	3879380	Still hustling to find dollars for the quarter end.	Still hustling to find dollars for the quarter end.	184294400	1476921435354	1476921435444	t	84
359852	3879380	Still hustling to find dollars for the quarter end.	Still hustling to find dollars for the quarter end.	184294402	1476921435468	1476921435556	o	79
359852	3879380	Still hustling to find dollars for the quarter end.	Still hustling to find dollars for the quarter end.	184294404	1476921435604	1476921435722	 	32
359852	3879380	Still hustling to find dollars for the quarter end.	Still hustling to find dollars for the quarter end.	184294406	1476921435722	1476921435830	f	70
359852	3879380	Still hustling to find dollars for the quarter end.	Still hustling to find dollars for the quarter end.	184294422	1476921435845	1476921435972	i	73
359852	3879380	Still hustling to find dollars for the quarter end.	Still hustling to find dollars for the quarter end.	184294426	1476921435924	1476921436006	n	78
359852	3879380	Still hustling to find dollars for the quarter end.	Still hustling to find dollars for the quarter end.	184294428	1476921436212	1476921436309	d	68
359852	3879380	Still hustling to find dollars for the quarter end.	Still hustling to find dollars for the quarter end.	184294432	1476921436309	1476921436436	 	32
359852	3879380	Still hustling to find dollars for the quarter end.	Still hustling to find dollars for the quarter end.	184294470	1476921436393	1476921436511	t	84
359852	3879380	Still hustling to find dollars for the quarter end.	Still hustling to find dollars for the quarter end.	184294472	1476921436770	1476921436857	BKSP	8
359852	3879380	Still hustling to find dollars for the quarter end.	Still hustling to find dollars for the quarter end.	184294474	1476921436888	1476921437004	d	68
359852	3879380	Still hustling to find dollars for the quarter end.	Still hustling to find dollars for the quarter end.	184294476	1476921436966	1476921437068	o	79
359852	3879380	Still hustling to find dollars for the quarter end.	Still hustling to find dollars for the quarter end.	184294477	1476921437028	1476921437099	l	76
359852	3879380	Still hustling to find dollars for the quarter end.	Still hustling to find dollars for the quarter end.	184294478	1476921437161	1476921437252	l	76
359852	3879380	Still hustling to find dollars for the quarter end.	Still hustling to find dollars for the quarter end.	184294479	1476921437260	1476921437324	a	65
359852	3879380	Still hustling to find dollars for the quarter end.	Still hustling to find dollars for the quarter end.	184294502	1476921437300	1476921437382	r	82
359852	3879380	Still hustling to find dollars for the quarter end.	Still hustling to find dollars for the quarter end.	184294505	1476921437422	1476921437540	s	83
359852	3879380	Still hustling to find dollars for the quarter end.	Still hustling to find dollars for the quarter end.	184294508	1476921437588	1476921437658	 	32
359852	3879380	Still hustling to find dollars for the quarter end.	Still hustling to find dollars for the quarter end.	184294511	1476921438040	1476921438139	f	70
359852	3879380	Still hustling to find dollars for the quarter end.	Still hustling to find dollars for the quarter end.	184294515	1476921438201	1476921438297	o	79
359852	3879380	Still hustling to find dollars for the quarter end.	Still hustling to find dollars for the quarter end.	184294518	1476921438297	1476921438404	r	82
359852	3879380	Still hustling to find dollars for the quarter end.	Still hustling to find dollars for the quarter end.	184294525	1476921438404	1476921438524	 	32
359852	3879380	Still hustling to find dollars for the quarter end.	Still hustling to find dollars for the quarter end.	184294527	1476921438487	1476921438572	t	84
359852	3879380	Still hustling to find dollars for the quarter end.	Still hustling to find dollars for the quarter end.	184294529	1476921438540	1476921438608	h	72
359852	3879380	Still hustling to find dollars for the quarter end.	Still hustling to find dollars for the quarter end.	184294533	1476921438624	1476921438706	e	69
359852	3879380	Still hustling to find dollars for the quarter end.	Still hustling to find dollars for the quarter end.	184294534	1476921438706	1476921438796	 	32
359852	3879380	Still hustling to find dollars for the quarter end.	Still hustling to find dollars for the quarter end.	184294556	1476921438885	1476921438981	q	81
359852	3879380	Still hustling to find dollars for the quarter end.	Still hustling to find dollars for the quarter end.	184294557	1476921439051	1476921439125	u	85
359852	3879380	Still hustling to find dollars for the quarter end.	Still hustling to find dollars for the quarter end.	184294558	1476921439140	1476921439260	a	65
359852	3879380	Still hustling to find dollars for the quarter end.	Still hustling to find dollars for the quarter end.	184294559	1476921439207	1476921439310	r	82
359852	3879380	Still hustling to find dollars for the quarter end.	Still hustling to find dollars for the quarter end.	184294560	1476921439427	1476921439476	t	84
359852	3879380	Still hustling to find dollars for the quarter end.	Still hustling to find dollars for the quarter end.	184294577	1476921439522	1476921439642	e	69
359852	3879380	Still hustling to find dollars for the quarter end.	Still hustling to find dollars for the quarter end.	184294578	1476921439588	1476921439689	r	82
359852	3879380	Still hustling to find dollars for the quarter end.	Still hustling to find dollars for the quarter end.	184294580	1476921439689	1476921439773	 	32
359852	3879380	Still hustling to find dollars for the quarter end.	Still hustling to find dollars for the quarter end.	184294583	1476921439888	1476921439981	e	69
359852	3879380	Still hustling to find dollars for the quarter end.	Still hustling to find dollars for the quarter end.	184294612	1476921439966	1476921440052	n	78
359852	3879380	Still hustling to find dollars for the quarter end.	Still hustling to find dollars for the quarter end.	184294614	1476921440068	1476921440172	d	68
359852	3879380	Still hustling to find dollars for the quarter end.	Still hustling to find dollars for the quarter end.	184294616	1476921440713	1476921440811	.	110
