PARTICIPANT_ID	TEST_SECTION_ID	SENTENCE	USER_INPUT	KEYSTROKE_ID	PRESS_TIME	RELEASE_TIME	LETTER	KEYCODE
359890	3879713	Might include proposals with respect to Alaska.	Might include propals in respect to Alaska.	184310920	1476922068159	1476922068357	SHIFT	16
359890	3879713	Might include proposals with respect to Alaska.	Might include propals in respect to Alaska.	184310923	1476922068270	1476922068365	M	77
359890	3879713	Might include proposals with respect to Alaska.	Might include propals in respect to Alaska.	184310927	1476922068477	1476922068589	i	73
359890	3879713	Might include proposals with respect to Alaska.	Might include propals in respect to Alaska.	184310931	1476922068581	1476922068677	g	71
359890	3879713	Might include proposals with respect to Alaska.	Might include propals in respect to Alaska.	184310934	1476922068653	1476922068742	h	72
359890	3879713	Might include proposals with respect to Alaska.	Might include propals in respect to Alaska.	184310937	1476922068758	1476922068874	t	84
359890	3879713	Might include proposals with respect to Alaska.	Might include propals in respect to Alaska.	184310943	1476922068854	1476922068990	 	32
359890	3879713	Might include proposals with respect to Alaska.	Might include propals in respect to Alaska.	184310946	1476922069158	1476922069317	i	73
359890	3879713	Might include proposals with respect to Alaska.	Might include propals in respect to Alaska.	184310951	1476922069246	1476922069357	n	78
359890	3879713	Might include proposals with respect to Alaska.	Might include propals in respect to Alaska.	184310954	1476922069349	1476922069453	c	67
359890	3879713	Might include proposals with respect to Alaska.	Might include propals in respect to Alaska.	184310959	1476922069429	1476922069509	l	76
359890	3879713	Might include proposals with respect to Alaska.	Might include propals in respect to Alaska.	184310965	1476922069613	1476922069709	u	85
359890	3879713	Might include proposals with respect to Alaska.	Might include propals in respect to Alaska.	184310991	1476922069701	1476922069854	d	68
359890	3879713	Might include proposals with respect to Alaska.	Might include propals in respect to Alaska.	184310993	1476922069798	1476922069910	e	69
359890	3879713	Might include proposals with respect to Alaska.	Might include propals in respect to Alaska.	184310994	1476922069862	1476922069958	 	32
359890	3879713	Might include proposals with respect to Alaska.	Might include propals in respect to Alaska.	184310995	1476922070086	1476922070238	p	80
359890	3879713	Might include proposals with respect to Alaska.	Might include propals in respect to Alaska.	184310999	1476922070389	1476922070493	r	82
359890	3879713	Might include proposals with respect to Alaska.	Might include propals in respect to Alaska.	184311003	1476922070509	1476922070621	o	79
359890	3879713	Might include proposals with respect to Alaska.	Might include propals in respect to Alaska.	184311059	1476922070582	1476922070717	p	80
359890	3879713	Might include proposals with respect to Alaska.	Might include propals in respect to Alaska.	184311060	1476922070862	1476922070990	a	65
359890	3879713	Might include proposals with respect to Alaska.	Might include propals in respect to Alaska.	184311061	1476922071006	1476922071150	l	76
359890	3879713	Might include proposals with respect to Alaska.	Might include propals in respect to Alaska.	184311062	1476922071334	1476922071501	s	83
359890	3879713	Might include proposals with respect to Alaska.	Might include propals in respect to Alaska.	184311063	1476922071741	1476922071869	 	32
359890	3879713	Might include proposals with respect to Alaska.	Might include propals in respect to Alaska.	184311064	1476922072238	1476922072389	i	73
359890	3879713	Might include proposals with respect to Alaska.	Might include propals in respect to Alaska.	184311084	1476922072334	1476922072405	n	78
359890	3879713	Might include proposals with respect to Alaska.	Might include propals in respect to Alaska.	184311085	1476922072477	1476922072605	 	32
359890	3879713	Might include proposals with respect to Alaska.	Might include propals in respect to Alaska.	184311086	1476922072645	1476922072749	r	82
359890	3879713	Might include proposals with respect to Alaska.	Might include propals in respect to Alaska.	184311087	1476922072709	1476922072781	e	69
359890	3879713	Might include proposals with respect to Alaska.	Might include propals in respect to Alaska.	184311088	1476922072821	1476922072917	s	83
359890	3879713	Might include proposals with respect to Alaska.	Might include propals in respect to Alaska.	184311090	1476922072942	1476922073078	p	80
359890	3879713	Might include proposals with respect to Alaska.	Might include propals in respect to Alaska.	184311099	1476922073014	1476922073126	e	69
359890	3879713	Might include proposals with respect to Alaska.	Might include propals in respect to Alaska.	184311101	1476922073190	1476922073278	c	67
359890	3879713	Might include proposals with respect to Alaska.	Might include propals in respect to Alaska.	184311105	1476922073374	1476922073461	t	84
359890	3879713	Might include proposals with respect to Alaska.	Might include propals in respect to Alaska.	184311110	1476922073429	1476922073525	 	32
359890	3879713	Might include proposals with respect to Alaska.	Might include propals in respect to Alaska.	184311114	1476922073581	1476922073677	t	84
359890	3879713	Might include proposals with respect to Alaska.	Might include propals in respect to Alaska.	184311131	1476922073637	1476922073717	o	79
359890	3879713	Might include proposals with respect to Alaska.	Might include propals in respect to Alaska.	184311135	1476922073773	1476922073877	 	32
359890	3879713	Might include proposals with respect to Alaska.	Might include propals in respect to Alaska.	184311137	1476922073885	1476922074126	SHIFT	16
359890	3879713	Might include proposals with respect to Alaska.	Might include propals in respect to Alaska.	184311136	1476922073925	1476922074014	A	65
359890	3879713	Might include proposals with respect to Alaska.	Might include propals in respect to Alaska.	184311139	1476922074222	1476922074350	l	76
359890	3879713	Might include proposals with respect to Alaska.	Might include propals in respect to Alaska.	184311141	1476922074342	1476922074454	a	65
359890	3879713	Might include proposals with respect to Alaska.	Might include propals in respect to Alaska.	184311143	1476922074533	1476922074637	k	75
359890	3879713	Might include proposals with respect to Alaska.	Might include propals in respect to Alaska.	184311152	1476922074821	1476922074909	BKSP	8
359890	3879713	Might include proposals with respect to Alaska.	Might include propals in respect to Alaska.	184311154	1476922074917	1476922074997	s	83
359890	3879713	Might include proposals with respect to Alaska.	Might include propals in respect to Alaska.	184311157	1476922075005	1476922075102	k	75
359890	3879713	Might include proposals with respect to Alaska.	Might include propals in respect to Alaska.	184311159	1476922075110	1476922075214	a	65
359890	3879713	Might include proposals with respect to Alaska.	Might include propals in respect to Alaska.	184311188	1476922075302	1476922075366	/	190
359890	3879713	Might include proposals with respect to Alaska.	Might include propals in respect to Alaska.	184311189	1476922075757	1476922075869	BKSP	8
359890	3879722	I am all over it.	I am all over it.	184311318	1476922079869	1476922080205	SHIFT	16
359890	3879722	I am all over it.	I am all over it.	184311325	1476922080117	1476922080237	I	73
359890	3879722	I am all over it.	I am all over it.	184311333	1476922080270	1476922080366	 	32
359890	3879722	I am all over it.	I am all over it.	184311341	1476922080390	1476922080550	a	65
359890	3879722	I am all over it.	I am all over it.	184311346	1476922080526	1476922080637	m	77
359890	3879722	I am all over it.	I am all over it.	184311352	1476922080661	1476922080757	 	32
359890	3879722	I am all over it.	I am all over it.	184311361	1476922080781	1476922080885	a	65
359890	3879722	I am all over it.	I am all over it.	184311362	1476922080869	1476922080933	l	76
359890	3879722	I am all over it.	I am all over it.	184311364	1476922080997	1476922081093	l	76
359890	3879722	I am all over it.	I am all over it.	184311365	1476922081037	1476922081125	 	32
359890	3879722	I am all over it.	I am all over it.	184311366	1476922081269	1476922081382	o	79
359890	3879722	I am all over it.	I am all over it.	184311376	1476922081414	1476922081502	v	86
359890	3879722	I am all over it.	I am all over it.	184311378	1476922081558	1476922081654	e	69
359890	3879722	I am all over it.	I am all over it.	184311381	1476922081630	1476922081750	r	82
359890	3879722	I am all over it.	I am all over it.	184311384	1476922081701	1476922081789	 	32
359890	3879722	I am all over it.	I am all over it.	184311386	1476922081869	1476922081949	i	73
359890	3879722	I am all over it.	I am all over it.	184311393	1476922081917	1476922082021	t	84
359890	3879722	I am all over it.	I am all over it.	184311395	1476922082085	1476922082181	.	190
359890	3879728	Let's have this meeting today or tonight.	Let's have this meeting today or tonight.	184311493	1476922083846	1476922084237	SHIFT	16
359890	3879728	Let's have this meeting today or tonight.	Let's have this meeting today or tonight.	184311489	1476922084077	1476922084205	L	76
359890	3879728	Let's have this meeting today or tonight.	Let's have this meeting today or tonight.	184311497	1476922084277	1476922084413	e	69
359890	3879728	Let's have this meeting today or tonight.	Let's have this meeting today or tonight.	184311502	1476922084534	1476922084638	t	84
359890	3879728	Let's have this meeting today or tonight.	Let's have this meeting today or tonight.	184311506	1476922084654	1476922084766	'	222
359890	3879728	Let's have this meeting today or tonight.	Let's have this meeting today or tonight.	184311509	1476922084781	1476922084894	s	83
359890	3879728	Let's have this meeting today or tonight.	Let's have this meeting today or tonight.	184311521	1476922084925	1476922084997	 	32
359890	3879728	Let's have this meeting today or tonight.	Let's have this meeting today or tonight.	184311523	1476922085093	1476922085213	h	72
359890	3879728	Let's have this meeting today or tonight.	Let's have this meeting today or tonight.	184311525	1476922085197	1476922085317	a	65
359890	3879728	Let's have this meeting today or tonight.	Let's have this meeting today or tonight.	184311528	1476922085325	1476922085413	v	86
359890	3879728	Let's have this meeting today or tonight.	Let's have this meeting today or tonight.	184311531	1476922085421	1476922085542	e	69
359890	3879728	Let's have this meeting today or tonight.	Let's have this meeting today or tonight.	184311552	1476922085526	1476922085614	 	32
359890	3879728	Let's have this meeting today or tonight.	Let's have this meeting today or tonight.	184311556	1476922085662	1476922085758	t	84
359890	3879728	Let's have this meeting today or tonight.	Let's have this meeting today or tonight.	184311558	1476922085765	1476922085901	h	72
359890	3879728	Let's have this meeting today or tonight.	Let's have this meeting today or tonight.	184311560	1476922085838	1476922085941	i	73
359890	3879728	Let's have this meeting today or tonight.	Let's have this meeting today or tonight.	184311562	1476922085893	1476922085997	s	83
359890	3879728	Let's have this meeting today or tonight.	Let's have this meeting today or tonight.	184311563	1476922086013	1476922086093	 	32
359890	3879728	Let's have this meeting today or tonight.	Let's have this meeting today or tonight.	184311578	1476922086173	1476922086261	m	77
359890	3879728	Let's have this meeting today or tonight.	Let's have this meeting today or tonight.	184311579	1476922086237	1476922086333	e	69
359890	3879728	Let's have this meeting today or tonight.	Let's have this meeting today or tonight.	184311583	1476922086421	1476922086525	e	69
359890	3879728	Let's have this meeting today or tonight.	Let's have this meeting today or tonight.	184311588	1476922086558	1476922086670	t	84
359890	3879728	Let's have this meeting today or tonight.	Let's have this meeting today or tonight.	184311599	1476922086638	1476922086790	i	73
359890	3879728	Let's have this meeting today or tonight.	Let's have this meeting today or tonight.	184311602	1476922086718	1476922086813	n	78
359890	3879728	Let's have this meeting today or tonight.	Let's have this meeting today or tonight.	184311606	1476922086821	1476922086894	g	71
359890	3879728	Let's have this meeting today or tonight.	Let's have this meeting today or tonight.	184311610	1476922086901	1476922087013	 	32
359890	3879728	Let's have this meeting today or tonight.	Let's have this meeting today or tonight.	184311613	1476922087045	1476922087149	t	84
359890	3879728	Let's have this meeting today or tonight.	Let's have this meeting today or tonight.	184311624	1476922087141	1476922087245	o	79
359890	3879728	Let's have this meeting today or tonight.	Let's have this meeting today or tonight.	184311626	1476922087285	1476922087429	d	68
359890	3879728	Let's have this meeting today or tonight.	Let's have this meeting today or tonight.	184311630	1476922087357	1476922087477	a	65
359890	3879728	Let's have this meeting today or tonight.	Let's have this meeting today or tonight.	184311632	1476922087413	1476922087485	y	89
359890	3879728	Let's have this meeting today or tonight.	Let's have this meeting today or tonight.	184311635	1476922087574	1476922087662	 	32
359890	3879728	Let's have this meeting today or tonight.	Let's have this meeting today or tonight.	184311639	1476922087726	1476922087838	o	79
359890	3879728	Let's have this meeting today or tonight.	Let's have this meeting today or tonight.	184311644	1476922087830	1476922087918	r	82
359890	3879728	Let's have this meeting today or tonight.	Let's have this meeting today or tonight.	184311646	1476922087933	1476922088037	 	32
359890	3879728	Let's have this meeting today or tonight.	Let's have this meeting today or tonight.	184311648	1476922088109	1476922088205	t	84
359890	3879728	Let's have this meeting today or tonight.	Let's have this meeting today or tonight.	184311650	1476922088253	1476922088309	o	73
359890	3879728	Let's have this meeting today or tonight.	Let's have this meeting today or tonight.	184311677	1476922088301	1476922088493	n	78
359890	3879728	Let's have this meeting today or tonight.	Let's have this meeting today or tonight.	184311678	1476922088469	1476922088573	i	73
359890	3879728	Let's have this meeting today or tonight.	Let's have this meeting today or tonight.	184311679	1476922088742	1476922088814	BKSP	8
359890	3879728	Let's have this meeting today or tonight.	Let's have this meeting today or tonight.	184311680	1476922088870	1476922088926	BKSP	8
359890	3879728	Let's have this meeting today or tonight.	Let's have this meeting today or tonight.	184311681	1476922088998	1476922089086	BKSP	8
359890	3879728	Let's have this meeting today or tonight.	Let's have this meeting today or tonight.	184311682	1476922089173	1476922089237	BKSP	8
359890	3879728	Let's have this meeting today or tonight.	Let's have this meeting today or tonight.	184311683	1476922089349	1476922089493	n	78
359890	3879728	Let's have this meeting today or tonight.	Let's have this meeting today or tonight.	184311684	1476922089461	1476922089557	o	79
359890	3879728	Let's have this meeting today or tonight.	Let's have this meeting today or tonight.	184311685	1476922089782	1476922089854	BKSP	8
359890	3879728	Let's have this meeting today or tonight.	Let's have this meeting today or tonight.	184311686	1476922089902	1476922089966	BKSP	8
359890	3879728	Let's have this meeting today or tonight.	Let's have this meeting today or tonight.	184311687	1476922090341	1476922090485	o	79
359890	3879728	Let's have this meeting today or tonight.	Let's have this meeting today or tonight.	184311693	1476922090437	1476922090525	n	78
359890	3879728	Let's have this meeting today or tonight.	Let's have this meeting today or tonight.	184311697	1476922090573	1476922090661	i	73
359890	3879728	Let's have this meeting today or tonight.	Let's have this meeting today or tonight.	184311698	1476922090645	1476922090726	g	71
359890	3879728	Let's have this meeting today or tonight.	Let's have this meeting today or tonight.	184311702	1476922090734	1476922090806	h	72
359890	3879728	Let's have this meeting today or tonight.	Let's have this meeting today or tonight.	184311705	1476922090814	1476922090886	t	84
359890	3879728	Let's have this meeting today or tonight.	Let's have this meeting today or tonight.	184311708	1476922090958	1476922091022	/	190
359890	3879728	Let's have this meeting today or tonight.	Let's have this meeting today or tonight.	184311709	1476922091309	1476922091405	BKSP	8
359890	3879739	Your fax was busy for a while.	Your fax was really busy fopr a while.	184311796	1476922093158	1476922093805	SHIFT	16
359890	3879739	Your fax was busy for a while.	Your fax was really busy fopr a while.	184311793	1476922093709	1476922093797	Y	89
359890	3879739	Your fax was busy for a while.	Your fax was really busy fopr a while.	184311800	1476922093941	1476922094069	o	79
359890	3879739	Your fax was busy for a while.	Your fax was really busy fopr a while.	184311806	1476922093997	1476922094093	u	85
359890	3879739	Your fax was busy for a while.	Your fax was really busy fopr a while.	184311810	1476922094076	1476922094141	r	82
359890	3879739	Your fax was busy for a while.	Your fax was really busy fopr a while.	184311814	1476922094204	1476922094324	 	32
359890	3879739	Your fax was busy for a while.	Your fax was really busy fopr a while.	184311836	1476922094285	1476922094420	f	70
359890	3879739	Your fax was busy for a while.	Your fax was really busy fopr a while.	184311838	1476922094396	1476922094548	a	65
359890	3879739	Your fax was busy for a while.	Your fax was really busy fopr a while.	184311840	1476922094588	1476922094684	x	88
359890	3879739	Your fax was busy for a while.	Your fax was really busy fopr a while.	184311842	1476922094692	1476922094820	 	32
359890	3879739	Your fax was busy for a while.	Your fax was really busy fopr a while.	184311844	1476922094941	1476922095061	w	87
359890	3879739	Your fax was busy for a while.	Your fax was really busy fopr a while.	184311870	1476922095053	1476922095189	a	65
359890	3879739	Your fax was busy for a while.	Your fax was really busy fopr a while.	184311871	1476922095165	1476922095300	s	83
359890	3879739	Your fax was busy for a while.	Your fax was really busy fopr a while.	184311874	1476922095285	1476922095428	 	32
359890	3879739	Your fax was busy for a while.	Your fax was really busy fopr a while.	184311879	1476922095644	1476922095748	r	82
359890	3879739	Your fax was busy for a while.	Your fax was really busy fopr a while.	184311884	1476922095780	1476922095884	e	69
359890	3879739	Your fax was busy for a while.	Your fax was really busy fopr a while.	184311889	1476922095916	1476922096029	a	65
359890	3879739	Your fax was busy for a while.	Your fax was really busy fopr a while.	184311904	1476922096005	1476922096061	l	76
359890	3879739	Your fax was busy for a while.	Your fax was really busy fopr a while.	184311907	1476922096117	1476922096197	l	76
359890	3879739	Your fax was busy for a while.	Your fax was really busy fopr a while.	184311911	1476922096173	1476922096244	y	89
359890	3879739	Your fax was busy for a while.	Your fax was really busy fopr a while.	184311915	1476922096268	1476922096380	 	32
359890	3879739	Your fax was busy for a while.	Your fax was really busy fopr a while.	184311917	1476922096540	1476922096612	b	66
359890	3879739	Your fax was busy for a while.	Your fax was really busy fopr a while.	184311920	1476922096692	1476922096796	u	85
359890	3879739	Your fax was busy for a while.	Your fax was really busy fopr a while.	184311952	1476922096788	1476922096900	s	83
359890	3879739	Your fax was busy for a while.	Your fax was really busy fopr a while.	184311956	1476922096900	1476922096964	y	89
359890	3879739	Your fax was busy for a while.	Your fax was really busy fopr a while.	184311960	1476922097061	1476922097181	 	32
359890	3879739	Your fax was busy for a while.	Your fax was really busy fopr a while.	184311963	1476922097716	1476922097836	f	70
359890	3879739	Your fax was busy for a while.	Your fax was really busy fopr a while.	184312010	1476922097820	1476922097932	p	79
359890	3879739	Your fax was busy for a while.	Your fax was really busy fopr a while.	184312018	1476922097940	1476922098044	r	82
359890	3879739	Your fax was busy for a while.	Your fax was really busy fopr a while.	184312023	1476922098020	1476922098141	 	32
359890	3879739	Your fax was busy for a while.	Your fax was really busy fopr a while.	184312027	1476922098133	1476922098237	a	65
359890	3879739	Your fax was busy for a while.	Your fax was really busy fopr a while.	184312029	1476922098796	1476922098900	 	32
359890	3879739	Your fax was busy for a while.	Your fax was really busy fopr a while.	184312031	1476922098940	1476922099068	w	87
359890	3879739	Your fax was busy for a while.	Your fax was really busy fopr a while.	184312073	1476922099020	1476922099165	h	72
359890	3879739	Your fax was busy for a while.	Your fax was really busy fopr a while.	184312074	1476922099109	1476922099197	i	73
359890	3879739	Your fax was busy for a while.	Your fax was really busy fopr a while.	184312075	1476922099277	1476922099357	l	76
359890	3879739	Your fax was busy for a while.	Your fax was really busy fopr a while.	184312076	1476922099364	1476922099469	e	69
359890	3879739	Your fax was busy for a while.	Your fax was really busy fopr a while.	184312077	1476922099453	1476922099532	/	191
359890	3879739	Your fax was busy for a while.	Your fax was really busy fopr a while.	184312078	1476922099892	1476922099964	BKSP	8
359890	3879739	Your fax was busy for a while.	Your fax was really busy fopr a while.	184312079	1476922100373	1476922100501	/	191
359890	3879739	Your fax was busy for a while.	Your fax was really busy fopr a while.	184312106	1476922100804	1476922100908	BKSP	8
359890	3879745	Once you do, you can never go back.	Once you do, uyou can never go bnack.	184312416	1476922101317	1476922108533	.	190
359890	3879745	Once you do, you can never go back.	Once you do, uyou can never go bnack.	184312177	1476922102876	1476922103284	SHIFT	16
359890	3879745	Once you do, you can never go back.	Once you do, uyou can never go bnack.	184312178	1476922103140	1476922103301	O	79
359890	3879745	Once you do, you can never go back.	Once you do, uyou can never go bnack.	184312180	1476922103413	1476922103508	n	78
359890	3879745	Once you do, you can never go back.	Once you do, uyou can never go bnack.	184312182	1476922103501	1476922103636	c	67
359890	3879745	Once you do, you can never go back.	Once you do, uyou can never go bnack.	184312184	1476922103589	1476922103708	e	69
359890	3879745	Once you do, you can never go back.	Once you do, uyou can never go bnack.	184312187	1476922103669	1476922103748	 	32
359890	3879745	Once you do, you can never go back.	Once you do, uyou can never go bnack.	184312190	1476922103820	1476922103924	y	89
359890	3879745	Once you do, you can never go back.	Once you do, uyou can never go bnack.	184312194	1476922103892	1476922104052	o	79
359890	3879745	Once you do, you can never go back.	Once you do, uyou can never go bnack.	184312199	1476922103964	1476922104084	u	85
359890	3879745	Once you do, you can never go back.	Once you do, uyou can never go bnack.	184312202	1476922104060	1476922104164	 	32
359890	3879745	Once you do, you can never go back.	Once you do, uyou can never go bnack.	184312205	1476922104172	1476922104300	d	68
359890	3879745	Once you do, you can never go back.	Once you do, uyou can never go bnack.	184312214	1476922104236	1476922104332	o	79
359890	3879745	Once you do, you can never go back.	Once you do, uyou can never go bnack.	184312215	1476922104437	1476922104541	,	188
359890	3879745	Once you do, you can never go back.	Once you do, uyou can never go bnack.	184312217	1476922104533	1476922104621	 	32
359890	3879745	Once you do, you can never go back.	Once you do, uyou can never go bnack.	184312219	1476922104740	1476922104788	y	85
359890	3879745	Once you do, you can never go back.	Once you do, uyou can never go bnack.	184312247	1476922104748	1476922104796	o	89
359890	3879745	Once you do, you can never go back.	Once you do, uyou can never go bnack.	184312249	1476922104820	1476922104948	u	85
359890	3879745	Once you do, you can never go back.	Once you do, uyou can never go bnack.	184312251	1476922105324	1476922105421	 	32
359890	3879745	Once you do, you can never go back.	Once you do, uyou can never go bnack.	184312253	1476922105461	1476922105589	c	67
359890	3879745	Once you do, you can never go back.	Once you do, uyou can never go bnack.	184312279	1476922105525	1476922105660	a	65
359890	3879745	Once you do, you can never go back.	Once you do, uyou can never go bnack.	184312275	1476922105573	1476922105652	n	78
359890	3879745	Once you do, you can never go back.	Once you do, uyou can never go bnack.	184312283	1476922105733	1476922105804	 	32
359890	3879745	Once you do, you can never go back.	Once you do, uyou can never go bnack.	184312287	1476922105892	1476922105996	n	78
359890	3879745	Once you do, you can never go back.	Once you do, uyou can never go bnack.	184312290	1476922105980	1476922106092	e	69
359890	3879745	Once you do, you can never go back.	Once you do, uyou can never go bnack.	184312293	1476922106132	1476922106204	v	86
359890	3879745	Once you do, you can never go back.	Once you do, uyou can never go bnack.	184312319	1476922106188	1476922106300	e	69
359890	3879745	Once you do, you can never go back.	Once you do, uyou can never go bnack.	184312320	1476922106252	1476922106332	r	82
359890	3879745	Once you do, you can never go back.	Once you do, uyou can never go bnack.	184312321	1476922106316	1476922106420	 	32
359890	3879745	Once you do, you can never go back.	Once you do, uyou can never go bnack.	184312323	1476922106469	1476922106517	g	71
359890	3879745	Once you do, you can never go back.	Once you do, uyou can never go bnack.	184312328	1476922106756	1476922106860	o	79
359890	3879745	Once you do, you can never go back.	Once you do, uyou can never go bnack.	184312333	1476922106956	1476922107060	 	32
359890	3879745	Once you do, you can never go back.	Once you do, uyou can never go bnack.	184312342	1476922107236	1476922107292	n	66
359890	3879745	Once you do, you can never go back.	Once you do, uyou can never go bnack.	184312344	1476922107300	1476922107412	a	65
359890	3879745	Once you do, you can never go back.	Once you do, uyou can never go bnack.	184312346	1476922107380	1476922107452	c	67
359890	3879745	Once you do, you can never go back.	Once you do, uyou can never go bnack.	184312406	1476922107444	1476922107525	k	75
359890	3879745	Once you do, you can never go back.	Once you do, uyou can never go bnack.	184312409	1476922107829	1476922107932	/	191
359890	3879745	Once you do, you can never go back.	Once you do, uyou can never go bnack.	184312413	1476922108284	1476922108340	BKSP	8
359890	3879749	Add a Star Trek convention and sports memorabilia show to the mix.	Add a Star Trek conversation and sports memoabilia show to the mix.	184312479	1476922110228	1476922110492	SHIFT	16
359890	3879749	Add a Star Trek convention and sports memorabilia show to the mix.	Add a Star Trek conversation and sports memoabilia show to the mix.	184312477	1476922110380	1476922110460	A	65
359890	3879749	Add a Star Trek convention and sports memorabilia show to the mix.	Add a Star Trek conversation and sports memoabilia show to the mix.	184312481	1476922110548	1476922110629	d	68
359890	3879749	Add a Star Trek convention and sports memorabilia show to the mix.	Add a Star Trek conversation and sports memoabilia show to the mix.	184312484	1476922110701	1476922110797	d	68
359890	3879749	Add a Star Trek convention and sports memorabilia show to the mix.	Add a Star Trek conversation and sports memoabilia show to the mix.	184312486	1476922110781	1476922110900	 	32
359890	3879749	Add a Star Trek convention and sports memorabilia show to the mix.	Add a Star Trek conversation and sports memoabilia show to the mix.	184312501	1476922110893	1476922111004	a	65
359890	3879749	Add a Star Trek convention and sports memorabilia show to the mix.	Add a Star Trek conversation and sports memoabilia show to the mix.	184312502	1476922110981	1476922111084	 	32
359890	3879749	Add a Star Trek convention and sports memorabilia show to the mix.	Add a Star Trek conversation and sports memoabilia show to the mix.	184312504	1476922111196	1476922111388	SHIFT	16
359890	3879749	Add a Star Trek convention and sports memorabilia show to the mix.	Add a Star Trek conversation and sports memoabilia show to the mix.	184312503	1476922111284	1476922111372	S	83
359890	3879749	Add a Star Trek convention and sports memorabilia show to the mix.	Add a Star Trek conversation and sports memoabilia show to the mix.	184312506	1476922111484	1476922111580	t	84
359890	3879749	Add a Star Trek convention and sports memorabilia show to the mix.	Add a Star Trek conversation and sports memoabilia show to the mix.	184312508	1476922111620	1476922111757	a	65
359890	3879749	Add a Star Trek convention and sports memorabilia show to the mix.	Add a Star Trek conversation and sports memoabilia show to the mix.	184312526	1476922111717	1476922111853	r	82
359890	3879749	Add a Star Trek convention and sports memorabilia show to the mix.	Add a Star Trek conversation and sports memoabilia show to the mix.	184312529	1476922111909	1476922112020	 	32
359890	3879749	Add a Star Trek convention and sports memorabilia show to the mix.	Add a Star Trek conversation and sports memoabilia show to the mix.	184312535	1476922111965	1476922112636	SHIFT	16
359890	3879749	Add a Star Trek convention and sports memorabilia show to the mix.	Add a Star Trek conversation and sports memoabilia show to the mix.	184312531	1476922112412	1476922112548	T	84
359890	3879749	Add a Star Trek convention and sports memorabilia show to the mix.	Add a Star Trek conversation and sports memoabilia show to the mix.	184312540	1476922112733	1476922112860	r	82
359890	3879749	Add a Star Trek convention and sports memorabilia show to the mix.	Add a Star Trek conversation and sports memoabilia show to the mix.	184312544	1476922112845	1476922112997	e	69
359890	3879749	Add a Star Trek convention and sports memorabilia show to the mix.	Add a Star Trek conversation and sports memoabilia show to the mix.	184312547	1476922113036	1476922113164	k	75
359890	3879749	Add a Star Trek convention and sports memorabilia show to the mix.	Add a Star Trek conversation and sports memoabilia show to the mix.	184312569	1476922113180	1476922113300	 	32
359890	3879749	Add a Star Trek convention and sports memorabilia show to the mix.	Add a Star Trek conversation and sports memoabilia show to the mix.	184312572	1476922113500	1476922113532	c	67
359890	3879749	Add a Star Trek convention and sports memorabilia show to the mix.	Add a Star Trek conversation and sports memoabilia show to the mix.	184312575	1476922113540	1476922113765	o	79
359890	3879749	Add a Star Trek convention and sports memorabilia show to the mix.	Add a Star Trek conversation and sports memoabilia show to the mix.	184312578	1476922113668	1476922113797	n	78
359890	3879749	Add a Star Trek convention and sports memorabilia show to the mix.	Add a Star Trek conversation and sports memoabilia show to the mix.	184312580	1476922113973	1476922114069	v	86
359890	3879749	Add a Star Trek convention and sports memorabilia show to the mix.	Add a Star Trek conversation and sports memoabilia show to the mix.	184312632	1476922114164	1476922114260	e	69
359890	3879749	Add a Star Trek convention and sports memorabilia show to the mix.	Add a Star Trek conversation and sports memoabilia show to the mix.	184312634	1476922114380	1476922114524	s	83
359890	3879749	Add a Star Trek convention and sports memorabilia show to the mix.	Add a Star Trek conversation and sports memoabilia show to the mix.	184312635	1476922114804	1476922114917	BKSP	8
359890	3879749	Add a Star Trek convention and sports memorabilia show to the mix.	Add a Star Trek conversation and sports memoabilia show to the mix.	184312637	1476922114973	1476922115069	r	82
359890	3879749	Add a Star Trek convention and sports memorabilia show to the mix.	Add a Star Trek conversation and sports memoabilia show to the mix.	184312638	1476922115236	1476922115340	s	83
359890	3879749	Add a Star Trek convention and sports memorabilia show to the mix.	Add a Star Trek conversation and sports memoabilia show to the mix.	184312640	1476922115404	1476922115508	a	65
359890	3879749	Add a Star Trek convention and sports memorabilia show to the mix.	Add a Star Trek conversation and sports memoabilia show to the mix.	184312660	1476922115572	1476922115668	t	84
359890	3879749	Add a Star Trek convention and sports memorabilia show to the mix.	Add a Star Trek conversation and sports memoabilia show to the mix.	184312661	1476922115660	1476922115820	i	73
359890	3879749	Add a Star Trek convention and sports memorabilia show to the mix.	Add a Star Trek conversation and sports memoabilia show to the mix.	184312663	1476922115756	1476922115877	o	79
359890	3879749	Add a Star Trek convention and sports memorabilia show to the mix.	Add a Star Trek conversation and sports memoabilia show to the mix.	184312664	1476922115981	1476922116053	n	78
359890	3879749	Add a Star Trek convention and sports memorabilia show to the mix.	Add a Star Trek conversation and sports memoabilia show to the mix.	184312665	1476922116324	1476922116444	 	32
359890	3879749	Add a Star Trek convention and sports memorabilia show to the mix.	Add a Star Trek conversation and sports memoabilia show to the mix.	184312674	1476922116436	1476922116556	a	65
359890	3879749	Add a Star Trek convention and sports memorabilia show to the mix.	Add a Star Trek conversation and sports memoabilia show to the mix.	184312675	1476922116548	1476922116620	n	78
359890	3879749	Add a Star Trek convention and sports memorabilia show to the mix.	Add a Star Trek conversation and sports memoabilia show to the mix.	184312677	1476922116612	1476922116708	d	68
359890	3879749	Add a Star Trek convention and sports memorabilia show to the mix.	Add a Star Trek conversation and sports memoabilia show to the mix.	184312679	1476922116700	1476922116788	 	32
359890	3879749	Add a Star Trek convention and sports memorabilia show to the mix.	Add a Star Trek conversation and sports memoabilia show to the mix.	184312680	1476922116820	1476922116941	s	83
359890	3879749	Add a Star Trek convention and sports memorabilia show to the mix.	Add a Star Trek conversation and sports memoabilia show to the mix.	184312682	1476922116941	1476922117077	p	80
359890	3879749	Add a Star Trek convention and sports memorabilia show to the mix.	Add a Star Trek conversation and sports memoabilia show to the mix.	184312697	1476922116989	1476922117125	o	79
359890	3879749	Add a Star Trek convention and sports memorabilia show to the mix.	Add a Star Trek conversation and sports memoabilia show to the mix.	184312700	1476922117085	1476922117172	r	82
359890	3879749	Add a Star Trek convention and sports memorabilia show to the mix.	Add a Star Trek conversation and sports memoabilia show to the mix.	184312702	1476922117252	1476922117364	t	84
359890	3879749	Add a Star Trek convention and sports memorabilia show to the mix.	Add a Star Trek conversation and sports memoabilia show to the mix.	184312705	1476922117316	1476922117452	s	83
359890	3879749	Add a Star Trek convention and sports memorabilia show to the mix.	Add a Star Trek conversation and sports memoabilia show to the mix.	184312707	1476922117404	1476922117492	 	32
359890	3879749	Add a Star Trek convention and sports memorabilia show to the mix.	Add a Star Trek conversation and sports memoabilia show to the mix.	184312708	1476922117588	1476922117700	m	77
359890	3879749	Add a Star Trek convention and sports memorabilia show to the mix.	Add a Star Trek conversation and sports memoabilia show to the mix.	184312739	1476922117732	1476922117844	e	69
359890	3879749	Add a Star Trek convention and sports memorabilia show to the mix.	Add a Star Trek conversation and sports memoabilia show to the mix.	184312741	1476922117860	1476922117997	m	77
359890	3879749	Add a Star Trek convention and sports memorabilia show to the mix.	Add a Star Trek conversation and sports memoabilia show to the mix.	184312742	1476922117940	1476922118125	o	79
359890	3879749	Add a Star Trek convention and sports memorabilia show to the mix.	Add a Star Trek conversation and sports memoabilia show to the mix.	184312743	1476922118468	1476922118604	a	65
359890	3879749	Add a Star Trek convention and sports memorabilia show to the mix.	Add a Star Trek conversation and sports memoabilia show to the mix.	184312744	1476922118876	1476922119005	b	66
359890	3879749	Add a Star Trek convention and sports memorabilia show to the mix.	Add a Star Trek conversation and sports memoabilia show to the mix.	184312767	1476922119021	1476922119125	i	73
359890	3879749	Add a Star Trek convention and sports memorabilia show to the mix.	Add a Star Trek conversation and sports memoabilia show to the mix.	184312769	1476922119229	1476922119276	l	76
359890	3879749	Add a Star Trek convention and sports memorabilia show to the mix.	Add a Star Trek conversation and sports memoabilia show to the mix.	184312772	1476922119356	1476922119420	l	76
359890	3879749	Add a Star Trek convention and sports memorabilia show to the mix.	Add a Star Trek conversation and sports memoabilia show to the mix.	184312775	1476922119524	1476922119612	i	73
359890	3879749	Add a Star Trek convention and sports memorabilia show to the mix.	Add a Star Trek conversation and sports memoabilia show to the mix.	184312779	1476922119780	1476922119844	BKSP	8
359890	3879749	Add a Star Trek convention and sports memorabilia show to the mix.	Add a Star Trek conversation and sports memoabilia show to the mix.	184312782	1476922119908	1476922119988	BKSP	8
359890	3879749	Add a Star Trek convention and sports memorabilia show to the mix.	Add a Star Trek conversation and sports memoabilia show to the mix.	184312785	1476922120125	1476922120237	i	73
359890	3879749	Add a Star Trek convention and sports memorabilia show to the mix.	Add a Star Trek conversation and sports memoabilia show to the mix.	184312805	1476922120269	1476922120412	a	65
359890	3879749	Add a Star Trek convention and sports memorabilia show to the mix.	Add a Star Trek conversation and sports memoabilia show to the mix.	184312807	1476922120493	1476922120604	 	32
359890	3879749	Add a Star Trek convention and sports memorabilia show to the mix.	Add a Star Trek conversation and sports memoabilia show to the mix.	184312811	1476922120660	1476922120764	s	83
359890	3879749	Add a Star Trek convention and sports memorabilia show to the mix.	Add a Star Trek conversation and sports memoabilia show to the mix.	184312814	1476922120852	1476922121052	h	72
359890	3879749	Add a Star Trek convention and sports memorabilia show to the mix.	Add a Star Trek conversation and sports memoabilia show to the mix.	184312835	1476922120940	1476922121125	o	79
359890	3879749	Add a Star Trek convention and sports memorabilia show to the mix.	Add a Star Trek conversation and sports memoabilia show to the mix.	184312837	1476922121189	1476922121229	w	87
359890	3879749	Add a Star Trek convention and sports memorabilia show to the mix.	Add a Star Trek conversation and sports memoabilia show to the mix.	184312839	1476922121572	1476922121676	 	32
359890	3879749	Add a Star Trek convention and sports memorabilia show to the mix.	Add a Star Trek conversation and sports memoabilia show to the mix.	184312840	1476922121756	1476922121860	t	84
359890	3879749	Add a Star Trek convention and sports memorabilia show to the mix.	Add a Star Trek conversation and sports memoabilia show to the mix.	184312841	1476922121820	1476922121940	o	79
359890	3879749	Add a Star Trek convention and sports memorabilia show to the mix.	Add a Star Trek conversation and sports memoabilia show to the mix.	184312842	1476922122060	1476922122173	 	32
359890	3879749	Add a Star Trek convention and sports memorabilia show to the mix.	Add a Star Trek conversation and sports memoabilia show to the mix.	184312856	1476922122253	1476922122341	t	84
359890	3879749	Add a Star Trek convention and sports memorabilia show to the mix.	Add a Star Trek conversation and sports memoabilia show to the mix.	184312858	1476922122333	1476922122444	h	72
359890	3879749	Add a Star Trek convention and sports memorabilia show to the mix.	Add a Star Trek conversation and sports memoabilia show to the mix.	184312861	1476922122468	1476922122588	e	69
359890	3879749	Add a Star Trek convention and sports memorabilia show to the mix.	Add a Star Trek conversation and sports memoabilia show to the mix.	184312864	1476922122557	1476922122644	 	32
359890	3879749	Add a Star Trek convention and sports memorabilia show to the mix.	Add a Star Trek conversation and sports memoabilia show to the mix.	184312868	1476922122748	1476922122876	m	77
359890	3879749	Add a Star Trek convention and sports memorabilia show to the mix.	Add a Star Trek conversation and sports memoabilia show to the mix.	184312916	1476922122820	1476922122948	i	73
359890	3879749	Add a Star Trek convention and sports memorabilia show to the mix.	Add a Star Trek conversation and sports memoabilia show to the mix.	184312918	1476922123052	1476922123180	x	88
359890	3879749	Add a Star Trek convention and sports memorabilia show to the mix.	Add a Star Trek conversation and sports memoabilia show to the mix.	184312920	1476922123189	1476922123285	/	191
359890	3879749	Add a Star Trek convention and sports memorabilia show to the mix.	Add a Star Trek conversation and sports memoabilia show to the mix.	184312921	1476922123564	1476922123620	BKSP	8
359890	3879749	Add a Star Trek convention and sports memorabilia show to the mix.	Add a Star Trek conversation and sports memoabilia show to the mix.	184312922	1476922123724	1476922123789	.	188
359890	3879749	Add a Star Trek convention and sports memorabilia show to the mix.	Add a Star Trek conversation and sports memoabilia show to the mix.	184312923	1476922124237	1476922124301	BKSP	8
359890	3879749	Add a Star Trek convention and sports memorabilia show to the mix.	Add a Star Trek conversation and sports memoabilia show to the mix.	184312924	1476922124349	1476922124421	BKSP	8
359890	3879749	Add a Star Trek convention and sports memorabilia show to the mix.	Add a Star Trek conversation and sports memoabilia show to the mix.	184312925	1476922124517	1476922124636	.	190
359890	3879763	Thus have nothing to destroy.	Thus have nothing to destroy.	184312978	1476922126748	1476922127124	SHIFT	16
359890	3879763	Thus have nothing to destroy.	Thus have nothing to destroy.	184312976	1476922127004	1476922127116	T	84
359890	3879763	Thus have nothing to destroy.	Thus have nothing to destroy.	184312980	1476922127284	1476922127461	h	72
359890	3879763	Thus have nothing to destroy.	Thus have nothing to destroy.	184312983	1476922127373	1476922127509	u	85
359890	3879763	Thus have nothing to destroy.	Thus have nothing to destroy.	184312985	1476922127492	1476922127596	s	83
359890	3879763	Thus have nothing to destroy.	Thus have nothing to destroy.	184312989	1476922127629	1476922127716	 	32
359890	3879763	Thus have nothing to destroy.	Thus have nothing to destroy.	184312996	1476922127788	1476922127884	h	72
359890	3879763	Thus have nothing to destroy.	Thus have nothing to destroy.	184312998	1476922127868	1476922127972	a	65
359890	3879763	Thus have nothing to destroy.	Thus have nothing to destroy.	184312999	1476922127964	1476922128060	v	86
359890	3879763	Thus have nothing to destroy.	Thus have nothing to destroy.	184313000	1476922128068	1476922128188	e	69
359890	3879763	Thus have nothing to destroy.	Thus have nothing to destroy.	184313008	1476922128132	1476922128220	 	32
359890	3879763	Thus have nothing to destroy.	Thus have nothing to destroy.	184313013	1476922128340	1476922128461	n	78
359890	3879763	Thus have nothing to destroy.	Thus have nothing to destroy.	184313017	1476922128437	1476922128541	o	79
359890	3879763	Thus have nothing to destroy.	Thus have nothing to destroy.	184313021	1476922128509	1476922128613	t	84
359890	3879763	Thus have nothing to destroy.	Thus have nothing to destroy.	184313023	1476922128565	1476922128692	h	72
359890	3879763	Thus have nothing to destroy.	Thus have nothing to destroy.	184313048	1476922128660	1476922128852	i	73
359890	3879763	Thus have nothing to destroy.	Thus have nothing to destroy.	184313051	1476922128772	1476922128884	n	78
359890	3879763	Thus have nothing to destroy.	Thus have nothing to destroy.	184313054	1476922128876	1476922128980	g	71
359890	3879763	Thus have nothing to destroy.	Thus have nothing to destroy.	184313055	1476922128956	1476922129068	 	32
359890	3879763	Thus have nothing to destroy.	Thus have nothing to destroy.	184313056	1476922129196	1476922129324	t	84
359890	3879763	Thus have nothing to destroy.	Thus have nothing to destroy.	184313057	1476922129428	1476922129597	o	79
359890	3879763	Thus have nothing to destroy.	Thus have nothing to destroy.	184313075	1476922129749	1476922129876	 	32
359890	3879763	Thus have nothing to destroy.	Thus have nothing to destroy.	184313077	1476922129924	1476922130044	d	68
359890	3879763	Thus have nothing to destroy.	Thus have nothing to destroy.	184313079	1476922129996	1476922130068	e	69
359890	3879763	Thus have nothing to destroy.	Thus have nothing to destroy.	184313082	1476922130092	1476922130196	s	83
359890	3879763	Thus have nothing to destroy.	Thus have nothing to destroy.	184313084	1476922130252	1476922130380	t	84
359890	3879763	Thus have nothing to destroy.	Thus have nothing to destroy.	184313110	1476922130340	1476922130476	r	82
359890	3879763	Thus have nothing to destroy.	Thus have nothing to destroy.	184313113	1476922130468	1476922130557	o	79
359890	3879763	Thus have nothing to destroy.	Thus have nothing to destroy.	184313114	1476922130565	1476922130645	y	89
359890	3879763	Thus have nothing to destroy.	Thus have nothing to destroy.	184313115	1476922130709	1476922130756	/	190
359890	3879763	Thus have nothing to destroy.	Thus have nothing to destroy.	184313116	1476922131204	1476922131284	BKSP	8
359890	3879765	I hope he is having a fantastic time.	I hgope he is having a fantastic time.	184313157	1476922132829	1476922133196	SHIFT	16
359890	3879765	I hope he is having a fantastic time.	I hgope he is having a fantastic time.	184313156	1476922133036	1476922133188	I	73
359890	3879765	I hope he is having a fantastic time.	I hgope he is having a fantastic time.	184313158	1476922133220	1476922133292	 	32
359890	3879765	I hope he is having a fantastic time.	I hgope he is having a fantastic time.	184313159	1476922133420	1476922133492	g	72
359890	3879765	I hope he is having a fantastic time.	I hgope he is having a fantastic time.	184313160	1476922133540	1476922133669	o	79
359890	3879765	I hope he is having a fantastic time.	I hgope he is having a fantastic time.	184313169	1476922133620	1476922133773	p	80
359890	3879765	I hope he is having a fantastic time.	I hgope he is having a fantastic time.	184313171	1476922133869	1476922134004	e	69
359890	3879765	I hope he is having a fantastic time.	I hgope he is having a fantastic time.	184313172	1476922134028	1476922134133	 	32
359890	3879765	I hope he is having a fantastic time.	I hgope he is having a fantastic time.	184313173	1476922134236	1476922134332	h	72
359890	3879765	I hope he is having a fantastic time.	I hgope he is having a fantastic time.	184313174	1476922134356	1476922134460	e	69
359890	3879765	I hope he is having a fantastic time.	I hgope he is having a fantastic time.	184313180	1476922134420	1476922134500	 	32
359890	3879765	I hope he is having a fantastic time.	I hgope he is having a fantastic time.	184313181	1476922134556	1476922134636	i	73
359890	3879765	I hope he is having a fantastic time.	I hgope he is having a fantastic time.	184313182	1476922134628	1476922134733	s	83
359890	3879765	I hope he is having a fantastic time.	I hgope he is having a fantastic time.	184313183	1476922134725	1476922134805	 	32
359890	3879765	I hope he is having a fantastic time.	I hgope he is having a fantastic time.	184313184	1476922134869	1476922134957	h	72
359890	3879765	I hope he is having a fantastic time.	I hgope he is having a fantastic time.	184313210	1476922134941	1476922135060	a	65
359890	3879765	I hope he is having a fantastic time.	I hgope he is having a fantastic time.	184313212	1476922135180	1476922135308	v	86
359890	3879765	I hope he is having a fantastic time.	I hgope he is having a fantastic time.	184313214	1476922135316	1476922135476	i	73
359890	3879765	I hope he is having a fantastic time.	I hgope he is having a fantastic time.	184313216	1476922135396	1476922135524	n	78
359890	3879765	I hope he is having a fantastic time.	I hgope he is having a fantastic time.	184313218	1476922135532	1476922135684	h	72
359890	3879765	I hope he is having a fantastic time.	I hgope he is having a fantastic time.	184313219	1476922136196	1476922136268	 	32
359890	3879765	I hope he is having a fantastic time.	I hgope he is having a fantastic time.	184313231	1476922136444	1476922136508	BKSP	8
359890	3879765	I hope he is having a fantastic time.	I hgope he is having a fantastic time.	184313232	1476922136564	1476922136652	BKSP	8
359890	3879765	I hope he is having a fantastic time.	I hgope he is having a fantastic time.	184313233	1476922136764	1476922136853	g	71
359890	3879765	I hope he is having a fantastic time.	I hgope he is having a fantastic time.	184313234	1476922136868	1476922136988	 	32
359890	3879765	I hope he is having a fantastic time.	I hgope he is having a fantastic time.	184313236	1476922136980	1476922137100	a	65
359890	3879765	I hope he is having a fantastic time.	I hgope he is having a fantastic time.	184313238	1476922137077	1476922137196	 	32
359890	3879765	I hope he is having a fantastic time.	I hgope he is having a fantastic time.	184313240	1476922137300	1476922137372	f	70
359890	3879765	I hope he is having a fantastic time.	I hgope he is having a fantastic time.	184313249	1476922137620	1476922137756	a	65
359890	3879765	I hope he is having a fantastic time.	I hgope he is having a fantastic time.	184313251	1476922137748	1476922137884	n	78
359890	3879765	I hope he is having a fantastic time.	I hgope he is having a fantastic time.	184313253	1476922137869	1476922137949	t	84
359890	3879765	I hope he is having a fantastic time.	I hgope he is having a fantastic time.	184313256	1476922137917	1476922138044	a	65
359890	3879765	I hope he is having a fantastic time.	I hgope he is having a fantastic time.	184313259	1476922138092	1476922138244	s	83
359890	3879765	I hope he is having a fantastic time.	I hgope he is having a fantastic time.	184313287	1476922138444	1476922138532	t	84
359890	3879765	I hope he is having a fantastic time.	I hgope he is having a fantastic time.	184313291	1476922138580	1476922138716	i	73
359890	3879765	I hope he is having a fantastic time.	I hgope he is having a fantastic time.	184313294	1476922138724	1476922138828	c	67
359890	3879765	I hope he is having a fantastic time.	I hgope he is having a fantastic time.	184313297	1476922138860	1476922138973	 	32
359890	3879765	I hope he is having a fantastic time.	I hgope he is having a fantastic time.	184313299	1476922139404	1476922139500	t	84
359890	3879765	I hope he is having a fantastic time.	I hgope he is having a fantastic time.	184313305	1476922139508	1476922139684	i	73
359890	3879765	I hope he is having a fantastic time.	I hgope he is having a fantastic time.	184313306	1476922139620	1476922139732	m	77
359890	3879765	I hope he is having a fantastic time.	I hgope he is having a fantastic time.	184313307	1476922139724	1476922139868	e	69
359890	3879765	I hope he is having a fantastic time.	I hgope he is having a fantastic time.	184313320	1476922139900	1476922139941	/	190
359890	3879765	I hope he is having a fantastic time.	I hgope he is having a fantastic time.	184313322	1476922140300	1476922140372	BKSP	8
359890	3879771	They launched a counter attack and retook positions they had lost.	They launched a counter attack and retook positions they had lost.	184313385	1476922142229	1476922142476	SHIFT	16
359890	3879771	They launched a counter attack and retook positions they had lost.	They launched a counter attack and retook positions they had lost.	184313387	1476922142388	1476922142508	T	84
359890	3879771	They launched a counter attack and retook positions they had lost.	They launched a counter attack and retook positions they had lost.	184313389	1476922142620	1476922142708	h	72
359890	3879771	They launched a counter attack and retook positions they had lost.	They launched a counter attack and retook positions they had lost.	184313392	1476922142716	1476922142844	e	69
359890	3879771	They launched a counter attack and retook positions they had lost.	They launched a counter attack and retook positions they had lost.	184313391	1476922142756	1476922142836	y	89
359890	3879771	They launched a counter attack and retook positions they had lost.	They launched a counter attack and retook positions they had lost.	184313393	1476922142900	1476922142988	 	32
359890	3879771	They launched a counter attack and retook positions they had lost.	They launched a counter attack and retook positions they had lost.	184313404	1476922143093	1476922143197	l	76
359890	3879771	They launched a counter attack and retook positions they had lost.	They launched a counter attack and retook positions they had lost.	184313406	1476922143212	1476922143340	a	65
359890	3879771	They launched a counter attack and retook positions they had lost.	They launched a counter attack and retook positions they had lost.	184313407	1476922143308	1476922143372	u	85
359890	3879771	They launched a counter attack and retook positions they had lost.	They launched a counter attack and retook positions they had lost.	184313409	1476922143436	1476922143540	n	78
359890	3879771	They launched a counter attack and retook positions they had lost.	They launched a counter attack and retook positions they had lost.	184313432	1476922143524	1476922143628	c	67
359890	3879771	They launched a counter attack and retook positions they had lost.	They launched a counter attack and retook positions they had lost.	184313433	1476922143636	1476922143748	h	72
359890	3879771	They launched a counter attack and retook positions they had lost.	They launched a counter attack and retook positions they had lost.	184313434	1476922143740	1476922143900	e	69
359890	3879771	They launched a counter attack and retook positions they had lost.	They launched a counter attack and retook positions they had lost.	184313435	1476922143844	1476922144004	d	68
359890	3879771	They launched a counter attack and retook positions they had lost.	They launched a counter attack and retook positions they had lost.	184313436	1476922143988	1476922144092	 	32
359890	3879771	They launched a counter attack and retook positions they had lost.	They launched a counter attack and retook positions they had lost.	184313447	1476922144084	1476922144173	a	65
359890	3879771	They launched a counter attack and retook positions they had lost.	They launched a counter attack and retook positions they had lost.	184313448	1476922144165	1476922144261	 	32
359890	3879771	They launched a counter attack and retook positions they had lost.	They launched a counter attack and retook positions they had lost.	184313449	1476922144268	1476922144388	c	67
359890	3879771	They launched a counter attack and retook positions they had lost.	They launched a counter attack and retook positions they had lost.	184313450	1476922144476	1476922144604	u	79
359890	3879771	They launched a counter attack and retook positions they had lost.	They launched a counter attack and retook positions they had lost.	184313471	1476922144908	1476922145012	 	78
359890	3879771	They launched a counter attack and retook positions they had lost.	They launched a counter attack and retook positions they had lost.	184313472	1476922145020	1476922145116	t	84
359890	3879771	They launched a counter attack and retook positions they had lost.	They launched a counter attack and retook positions they had lost.	184313474	1476922145140	1476922145349	e	69
359890	3879771	They launched a counter attack and retook positions they had lost.	They launched a counter attack and retook positions they had lost.	184313475	1476922145276	1476922145356	r	82
359890	3879771	They launched a counter attack and retook positions they had lost.	They launched a counter attack and retook positions they had lost.	184313476	1476922145468	1476922145524	BKSP	8
359890	3879771	They launched a counter attack and retook positions they had lost.	They launched a counter attack and retook positions they had lost.	184313477	1476922145588	1476922145660	BKSP	8
359890	3879771	They launched a counter attack and retook positions they had lost.	They launched a counter attack and retook positions they had lost.	184313478	1476922145716	1476922145796	BKSP	8
359890	3879771	They launched a counter attack and retook positions they had lost.	They launched a counter attack and retook positions they had lost.	184313479	1476922145860	1476922145924	BKSP	8
359890	3879771	They launched a counter attack and retook positions they had lost.	They launched a counter attack and retook positions they had lost.	184313482	1476922145932	1476922146012	t	84
359890	3879771	They launched a counter attack and retook positions they had lost.	They launched a counter attack and retook positions they had lost.	184313485	1476922146020	1476922146148	e	69
359890	3879771	They launched a counter attack and retook positions they had lost.	They launched a counter attack and retook positions they had lost.	184313495	1476922146108	1476922146221	r	82
359890	3879771	They launched a counter attack and retook positions they had lost.	They launched a counter attack and retook positions they had lost.	184313496	1476922146213	1476922146325	 	32
359890	3879771	They launched a counter attack and retook positions they had lost.	They launched a counter attack and retook positions they had lost.	184313497	1476922146388	1476922146484	a	65
359890	3879771	They launched a counter attack and retook positions they had lost.	They launched a counter attack and retook positions they had lost.	184313498	1476922146548	1476922146597	t	84
359890	3879771	They launched a counter attack and retook positions they had lost.	They launched a counter attack and retook positions they had lost.	184313499	1476922146676	1476922146756	t	84
359890	3879771	They launched a counter attack and retook positions they had lost.	They launched a counter attack and retook positions they had lost.	184313502	1476922146732	1476922146828	a	65
359890	3879771	They launched a counter attack and retook positions they had lost.	They launched a counter attack and retook positions they had lost.	184313504	1476922146900	1476922146980	c	67
359890	3879771	They launched a counter attack and retook positions they had lost.	They launched a counter attack and retook positions they had lost.	184313507	1476922147148	1476922147277	k	75
359890	3879771	They launched a counter attack and retook positions they had lost.	They launched a counter attack and retook positions they had lost.	184313510	1476922147484	1476922147588	 	32
359890	3879771	They launched a counter attack and retook positions they had lost.	They launched a counter attack and retook positions they had lost.	184313513	1476922147636	1476922147756	a	65
359890	3879771	They launched a counter attack and retook positions they had lost.	They launched a counter attack and retook positions they had lost.	184313534	1476922147748	1476922147852	n	78
359890	3879771	They launched a counter attack and retook positions they had lost.	They launched a counter attack and retook positions they had lost.	184313536	1476922147868	1476922147956	d	68
359890	3879771	They launched a counter attack and retook positions they had lost.	They launched a counter attack and retook positions they had lost.	184313540	1476922147948	1476922148084	 	32
359890	3879771	They launched a counter attack and retook positions they had lost.	They launched a counter attack and retook positions they had lost.	184313543	1476922148076	1476922148268	r	82
359890	3879771	They launched a counter attack and retook positions they had lost.	They launched a counter attack and retook positions they had lost.	184313546	1476922148196	1476922148357	e	69
359890	3879771	They launched a counter attack and retook positions they had lost.	They launched a counter attack and retook positions they had lost.	184313549	1476922148516	1476922148612	t	84
359890	3879771	They launched a counter attack and retook positions they had lost.	They launched a counter attack and retook positions they had lost.	184313569	1476922148628	1476922148684	o	79
359890	3879771	They launched a counter attack and retook positions they had lost.	They launched a counter attack and retook positions they had lost.	184313573	1476922148756	1476922148940	o	79
359890	3879771	They launched a counter attack and retook positions they had lost.	They launched a counter attack and retook positions they had lost.	184313576	1476922148868	1476922149012	k	75
359890	3879771	They launched a counter attack and retook positions they had lost.	They launched a counter attack and retook positions they had lost.	184313580	1476922149020	1476922149140	 	32
359890	3879771	They launched a counter attack and retook positions they had lost.	They launched a counter attack and retook positions they had lost.	184313582	1476922149292	1476922149500	p	80
359890	3879771	They launched a counter attack and retook positions they had lost.	They launched a counter attack and retook positions they had lost.	184313589	1476922149429	1476922149548	o	79
359890	3879771	They launched a counter attack and retook positions they had lost.	They launched a counter attack and retook positions they had lost.	184313591	1476922149532	1476922149660	s	83
359890	3879771	They launched a counter attack and retook positions they had lost.	They launched a counter attack and retook positions they had lost.	184313594	1476922149652	1476922149716	i	73
359890	3879771	They launched a counter attack and retook positions they had lost.	They launched a counter attack and retook positions they had lost.	184313596	1476922149724	1476922149828	t	84
359890	3879771	They launched a counter attack and retook positions they had lost.	They launched a counter attack and retook positions they had lost.	184313598	1476922149804	1476922149900	i	73
359890	3879771	They launched a counter attack and retook positions they had lost.	They launched a counter attack and retook positions they had lost.	184313602	1476922149868	1476922149988	o	79
359890	3879771	They launched a counter attack and retook positions they had lost.	They launched a counter attack and retook positions they had lost.	184313605	1476922150044	1476922150148	n	78
359890	3879771	They launched a counter attack and retook positions they had lost.	They launched a counter attack and retook positions they had lost.	184313608	1476922150164	1476922150244	s	83
359890	3879771	They launched a counter attack and retook positions they had lost.	They launched a counter attack and retook positions they had lost.	184313611	1476922150252	1476922150364	 	32
359890	3879771	They launched a counter attack and retook positions they had lost.	They launched a counter attack and retook positions they had lost.	184313614	1476922150356	1476922150445	t	84
359890	3879771	They launched a counter attack and retook positions they had lost.	They launched a counter attack and retook positions they had lost.	184313638	1476922150421	1476922150517	h	72
359890	3879771	They launched a counter attack and retook positions they had lost.	They launched a counter attack and retook positions they had lost.	184313639	1476922150524	1476922150636	e	69
359890	3879771	They launched a counter attack and retook positions they had lost.	They launched a counter attack and retook positions they had lost.	184313640	1476922150596	1476922150660	y	89
359890	3879771	They launched a counter attack and retook positions they had lost.	They launched a counter attack and retook positions they had lost.	184313641	1476922150724	1476922150836	 	32
359890	3879771	They launched a counter attack and retook positions they had lost.	They launched a counter attack and retook positions they had lost.	184313642	1476922150868	1476922151020	h	72
359890	3879771	They launched a counter attack and retook positions they had lost.	They launched a counter attack and retook positions they had lost.	184313643	1476922151052	1476922151204	a	65
359890	3879771	They launched a counter attack and retook positions they had lost.	They launched a counter attack and retook positions they had lost.	184313648	1476922151156	1476922151268	d	68
359890	3879771	They launched a counter attack and retook positions they had lost.	They launched a counter attack and retook positions they had lost.	184313649	1476922151228	1476922151332	 	32
359890	3879771	They launched a counter attack and retook positions they had lost.	They launched a counter attack and retook positions they had lost.	184313651	1476922151477	1476922151604	l	76
359890	3879771	They launched a counter attack and retook positions they had lost.	They launched a counter attack and retook positions they had lost.	184313655	1476922151589	1476922151708	o	79
359890	3879771	They launched a counter attack and retook positions they had lost.	They launched a counter attack and retook positions they had lost.	184313658	1476922151668	1476922151804	s	83
359890	3879771	They launched a counter attack and retook positions they had lost.	They launched a counter attack and retook positions they had lost.	184313667	1476922151764	1476922151876	t	84
359890	3879771	They launched a counter attack and retook positions they had lost.	They launched a counter attack and retook positions they had lost.	184313669	1476922151916	1476922151980	.	190
359890	3879777	I was runner-up three times.	I was runner-up three times/	184313723	1476922153892	1476922154228	SHIFT	16
359890	3879777	I was runner-up three times.	I was runner-up three times/	184313721	1476922154092	1476922154212	I	73
359890	3879777	I was runner-up three times.	I was runner-up three times/	184313725	1476922154236	1476922154388	 	32
359890	3879777	I was runner-up three times.	I was runner-up three times/	184313726	1476922154364	1476922154436	w	87
359890	3879777	I was runner-up three times.	I was runner-up three times/	184313727	1476922154404	1476922154588	a	65
359890	3879777	I was runner-up three times.	I was runner-up three times/	184313763	1476922154556	1476922154676	s	83
359890	3879777	I was runner-up three times.	I was runner-up three times/	184313766	1476922154669	1476922154772	 	32
359890	3879777	I was runner-up three times.	I was runner-up three times/	184313770	1476922154876	1476922154892	r	82
359890	3879777	I was runner-up three times.	I was runner-up three times/	184313774	1476922154900	1476922155004	u	85
359890	3879777	I was runner-up three times.	I was runner-up three times/	184313776	1476922155396	1476922155436	n	78
359890	3879777	I was runner-up three times.	I was runner-up three times/	184313778	1476922155508	1476922155612	n	78
359890	3879777	I was runner-up three times.	I was runner-up three times/	184313802	1476922155629	1476922155757	e	69
359890	3879777	I was runner-up three times.	I was runner-up three times/	184313803	1476922155701	1476922155844	r	82
359890	3879777	I was runner-up three times.	I was runner-up three times/	184313804	1476922155828	1476922155932	-	189
359890	3879777	I was runner-up three times.	I was runner-up three times/	184313805	1476922156540	1476922156628	i	73
359890	3879777	I was runner-up three times.	I was runner-up three times/	184313807	1476922156869	1476922156956	BKSP	8
359890	3879777	I was runner-up three times.	I was runner-up three times/	184313809	1476922157004	1476922157108	u	85
359890	3879777	I was runner-up three times.	I was runner-up three times/	184313815	1476922157125	1476922157228	p	80
359890	3879777	I was runner-up three times.	I was runner-up three times/	184313817	1476922157276	1476922157396	 	32
359890	3879777	I was runner-up three times.	I was runner-up three times/	184313819	1476922157476	1476922157556	t	84
359890	3879777	I was runner-up three times.	I was runner-up three times/	184313824	1476922157588	1476922157708	h	72
359890	3879777	I was runner-up three times.	I was runner-up three times/	184313844	1476922157700	1476922157837	r	82
359890	3879777	I was runner-up three times.	I was runner-up three times/	184313845	1476922157884	1476922157964	e	69
359890	3879777	I was runner-up three times.	I was runner-up three times/	184313846	1476922158036	1476922158156	e	69
359890	3879777	I was runner-up three times.	I was runner-up three times/	184313847	1476922158180	1476922158300	 	32
359890	3879777	I was runner-up three times.	I was runner-up three times/	184313848	1476922158396	1476922158484	t	84
359890	3879777	I was runner-up three times.	I was runner-up three times/	184313860	1476922158476	1476922158628	i	73
359890	3879777	I was runner-up three times.	I was runner-up three times/	184313863	1476922158564	1476922158660	m	77
359890	3879777	I was runner-up three times.	I was runner-up three times/	184313866	1476922158644	1476922158772	e	69
359890	3879777	I was runner-up three times.	I was runner-up three times/	184313868	1476922158716	1476922158821	s	83
359890	3879777	I was runner-up three times.	I was runner-up three times/	184313870	1476922158828	1476922158908	/	191
359890	3879781	Do you know if this has been done yet?	Do you know if this has been done yet?\	184313911	1476922160508	1476922160740	SHIFT	16
359890	3879781	Do you know if this has been done yet?	Do you know if this has been done yet?\	184313912	1476922160636	1476922160772	D	68
359890	3879781	Do you know if this has been done yet?	Do you know if this has been done yet?\	184313913	1476922160844	1476922160940	o	79
359890	3879781	Do you know if this has been done yet?	Do you know if this has been done yet?\	184313914	1476922160933	1476922161028	 	32
359890	3879781	Do you know if this has been done yet?	Do you know if this has been done yet?\	184313915	1476922161068	1476922161172	y	89
359890	3879781	Do you know if this has been done yet?	Do you know if this has been done yet?\	184313928	1476922161132	1476922161316	o	79
359890	3879781	Do you know if this has been done yet?	Do you know if this has been done yet?\	184313929	1476922161228	1476922161340	u	85
359890	3879781	Do you know if this has been done yet?	Do you know if this has been done yet?\	184313930	1476922161348	1476922161444	 	32
359890	3879781	Do you know if this has been done yet?	Do you know if this has been done yet?\	184313931	1476922161436	1476922161556	k	75
359890	3879781	Do you know if this has been done yet?	Do you know if this has been done yet?\	184313932	1476922161508	1476922161628	n	78
359890	3879781	Do you know if this has been done yet?	Do you know if this has been done yet?\	184313933	1476922161644	1476922161748	o	79
359890	3879781	Do you know if this has been done yet?	Do you know if this has been done yet?\	184313944	1476922161716	1476922161820	w	87
359890	3879781	Do you know if this has been done yet?	Do you know if this has been done yet?\	184313945	1476922161844	1476922161925	 	32
359890	3879781	Do you know if this has been done yet?	Do you know if this has been done yet?\	184313946	1476922161972	1476922162092	i	73
359890	3879781	Do you know if this has been done yet?	Do you know if this has been done yet?\	184313947	1476922162069	1476922162196	f	70
359890	3879781	Do you know if this has been done yet?	Do you know if this has been done yet?\	184313948	1476922162220	1476922162300	 	32
359890	3879781	Do you know if this has been done yet?	Do you know if this has been done yet?\	184313950	1476922162340	1476922162452	t	84
359890	3879781	Do you know if this has been done yet?	Do you know if this has been done yet?\	184313959	1476922162436	1476922162588	h	72
359890	3879781	Do you know if this has been done yet?	Do you know if this has been done yet?\	184313961	1476922162516	1476922162628	i	73
359890	3879781	Do you know if this has been done yet?	Do you know if this has been done yet?\	184313963	1476922162580	1476922162684	s	83
359890	3879781	Do you know if this has been done yet?	Do you know if this has been done yet?\	184313965	1476922162724	1476922162812	 	32
359890	3879781	Do you know if this has been done yet?	Do you know if this has been done yet?\	184313966	1476922162868	1476922162964	h	72
359890	3879781	Do you know if this has been done yet?	Do you know if this has been done yet?\	184313973	1476922162932	1476922163053	a	65
359890	3879781	Do you know if this has been done yet?	Do you know if this has been done yet?\	184313976	1476922163029	1476922163164	s	83
359890	3879781	Do you know if this has been done yet?	Do you know if this has been done yet?\	184313979	1476922163085	1476922163188	 	32
359890	3879781	Do you know if this has been done yet?	Do you know if this has been done yet?\	184313985	1476922163268	1476922163364	b	66
359890	3879781	Do you know if this has been done yet?	Do you know if this has been done yet?\	184313988	1476922163340	1476922163412	e	69
359890	3879781	Do you know if this has been done yet?	Do you know if this has been done yet?\	184313990	1476922163476	1476922163572	e	69
359890	3879781	Do you know if this has been done yet?	Do you know if this has been done yet?\	184313992	1476922163525	1476922163604	n	78
359890	3879781	Do you know if this has been done yet?	Do you know if this has been done yet?\	184313993	1476922163668	1476922163772	 	32
359890	3879781	Do you know if this has been done yet?	Do you know if this has been done yet?\	184313994	1476922163892	1476922164037	d	68
359890	3879781	Do you know if this has been done yet?	Do you know if this has been done yet?\	184313995	1476922163997	1476922164148	o	79
359890	3879781	Do you know if this has been done yet?	Do you know if this has been done yet?\	184314013	1476922164085	1476922164172	n	78
359890	3879781	Do you know if this has been done yet?	Do you know if this has been done yet?\	184314015	1476922164140	1476922164260	e	69
359890	3879781	Do you know if this has been done yet?	Do you know if this has been done yet?\	184314017	1476922164268	1476922164332	 	32
359890	3879781	Do you know if this has been done yet?	Do you know if this has been done yet?\	184314021	1476922164412	1476922164484	y	89
359890	3879781	Do you know if this has been done yet?	Do you know if this has been done yet?\	184314023	1476922164493	1476922164612	e	69
359890	3879781	Do you know if this has been done yet?	Do you know if this has been done yet?\	184314026	1476922164548	1476922164692	t	84
359890	3879781	Do you know if this has been done yet?	Do you know if this has been done yet?\	184314028	1476922164732	1476922164868	SHIFT	16
359890	3879781	Do you know if this has been done yet?	Do you know if this has been done yet?\	184314019	1476922164804	1476922164892	?	191
359890	3879785	The qualifying continues on the west side of town.	The qualifying conties on the west side of town.	184314090	1476922166668	1476922166948	SHIFT	16
359890	3879785	The qualifying continues on the west side of town.	The qualifying conties on the west side of town.	184314089	1476922166828	1476922166940	T	84
359890	3879785	The qualifying continues on the west side of town.	The qualifying conties on the west side of town.	184314091	1476922167060	1476922167165	h	72
359890	3879785	The qualifying continues on the west side of town.	The qualifying conties on the west side of town.	184314094	1476922167149	1476922167252	e	69
359890	3879785	The qualifying continues on the west side of town.	The qualifying conties on the west side of town.	184314097	1476922167276	1476922167388	 	32
359890	3879785	The qualifying continues on the west side of town.	The qualifying conties on the west side of town.	184314102	1476922167412	1476922167516	q	81
359890	3879785	The qualifying continues on the west side of town.	The qualifying conties on the west side of town.	184314116	1476922167572	1476922167700	u	85
359890	3879785	The qualifying continues on the west side of town.	The qualifying conties on the west side of town.	184314117	1476922167692	1476922167828	a	65
359890	3879785	The qualifying continues on the west side of town.	The qualifying conties on the west side of town.	184314118	1476922167844	1476922167948	l	76
359890	3879785	The qualifying continues on the west side of town.	The qualifying conties on the west side of town.	184314150	1476922168044	1476922168116	i	73
359890	3879785	The qualifying continues on the west side of town.	The qualifying conties on the west side of town.	184314121	1476922168068	1476922168084	o	79
359890	3879785	The qualifying continues on the west side of town.	The qualifying conties on the west side of town.	184314152	1476922168636	1476922168764	BKSP	8
359890	3879785	The qualifying continues on the west side of town.	The qualifying conties on the west side of town.	184314154	1476922168820	1476922168940	f	70
359890	3879785	The qualifying continues on the west side of town.	The qualifying conties on the west side of town.	184314156	1476922169076	1476922169172	y	89
359890	3879785	The qualifying continues on the west side of town.	The qualifying conties on the west side of town.	184314157	1476922169212	1476922169372	i	73
359890	3879785	The qualifying continues on the west side of town.	The qualifying conties on the west side of town.	184314176	1476922169293	1476922169388	n	78
359890	3879785	The qualifying continues on the west side of town.	The qualifying conties on the west side of town.	184314178	1476922169365	1476922169460	g	71
359890	3879785	The qualifying continues on the west side of town.	The qualifying conties on the west side of town.	184314180	1476922169500	1476922169620	 	32
359890	3879785	The qualifying continues on the west side of town.	The qualifying conties on the west side of town.	184314182	1476922169900	1476922169988	c	67
359890	3879785	The qualifying continues on the west side of town.	The qualifying conties on the west side of town.	184314183	1476922170020	1476922170084	o	79
359890	3879785	The qualifying continues on the west side of town.	The qualifying conties on the west side of town.	184314184	1476922170309	1476922170428	n	78
359890	3879785	The qualifying continues on the west side of town.	The qualifying conties on the west side of town.	184314185	1476922170444	1476922170556	t	84
359890	3879785	The qualifying continues on the west side of town.	The qualifying conties on the west side of town.	184314200	1476922170572	1476922170700	i	73
359890	3879785	The qualifying continues on the west side of town.	The qualifying conties on the west side of town.	184314201	1476922170828	1476922171036	e	69
359890	3879785	The qualifying continues on the west side of town.	The qualifying conties on the west side of town.	184314202	1476922170916	1476922171044	s	83
359890	3879785	The qualifying continues on the west side of town.	The qualifying conties on the west side of town.	184314204	1476922171068	1476922171164	 	32
359890	3879785	The qualifying continues on the west side of town.	The qualifying conties on the west side of town.	184314206	1476922171268	1476922171405	o	79
359890	3879785	The qualifying continues on the west side of town.	The qualifying conties on the west side of town.	184314214	1476922171356	1476922171436	n	78
359890	3879785	The qualifying continues on the west side of town.	The qualifying conties on the west side of town.	184314216	1476922171516	1476922171604	 	32
359890	3879785	The qualifying continues on the west side of town.	The qualifying conties on the west side of town.	184314218	1476922171596	1476922171692	t	84
359890	3879785	The qualifying continues on the west side of town.	The qualifying conties on the west side of town.	184314219	1476922171668	1476922171764	h	72
359890	3879785	The qualifying continues on the west side of town.	The qualifying conties on the west side of town.	184314221	1476922171756	1476922171844	e	69
359890	3879785	The qualifying continues on the west side of town.	The qualifying conties on the west side of town.	184314242	1476922171828	1476922171972	 	32
359890	3879785	The qualifying continues on the west side of town.	The qualifying conties on the west side of town.	184314243	1476922172140	1476922172316	w	87
359890	3879785	The qualifying continues on the west side of town.	The qualifying conties on the west side of town.	184314246	1476922172308	1476922172405	e	69
359890	3879785	The qualifying continues on the west side of town.	The qualifying conties on the west side of town.	184314249	1476922172485	1476922172628	s	83
359890	3879785	The qualifying continues on the west side of town.	The qualifying conties on the west side of town.	184314251	1476922172596	1476922172724	t	84
359890	3879785	The qualifying continues on the west side of town.	The qualifying conties on the west side of town.	184314253	1476922172732	1476922172844	 	32
359890	3879785	The qualifying continues on the west side of town.	The qualifying conties on the west side of town.	184314261	1476922173044	1476922173172	s	83
359890	3879785	The qualifying continues on the west side of town.	The qualifying conties on the west side of town.	184314264	1476922173180	1476922173284	i	73
359890	3879785	The qualifying continues on the west side of town.	The qualifying conties on the west side of town.	184314266	1476922173315	1476922173436	d	68
359890	3879785	The qualifying continues on the west side of town.	The qualifying conties on the west side of town.	184314291	1476922173396	1476922173485	e	69
359890	3879785	The qualifying continues on the west side of town.	The qualifying conties on the west side of town.	184314293	1476922173419	1476922173508	 	32
359890	3879785	The qualifying continues on the west side of town.	The qualifying conties on the west side of town.	184314296	1476922173596	1476922173660	p	79
359890	3879785	The qualifying continues on the west side of town.	The qualifying conties on the west side of town.	184314301	1476922173652	1476922173756	f	70
359890	3879785	The qualifying continues on the west side of town.	The qualifying conties on the west side of town.	184314304	1476922173740	1476922173828	 	32
359890	3879785	The qualifying continues on the west side of town.	The qualifying conties on the west side of town.	184314306	1476922174116	1476922174172	BKSP	8
359890	3879785	The qualifying continues on the west side of town.	The qualifying conties on the west side of town.	184314310	1476922174236	1476922174300	BKSP	8
359890	3879785	The qualifying continues on the west side of town.	The qualifying conties on the west side of town.	184314313	1476922174364	1476922174436	BKSP	8
359890	3879785	The qualifying continues on the west side of town.	The qualifying conties on the west side of town.	184314316	1476922174508	1476922174620	f	70
359890	3879785	The qualifying continues on the west side of town.	The qualifying conties on the west side of town.	184314342	1476922174644	1476922174732	 	32
359890	3879785	The qualifying continues on the west side of town.	The qualifying conties on the west side of town.	184314344	1476922175092	1476922175148	o	79
359890	3879785	The qualifying continues on the west side of town.	The qualifying conties on the west side of town.	184314345	1476922175316	1476922175396	BKSP	8
359890	3879785	The qualifying continues on the west side of town.	The qualifying conties on the west side of town.	184314346	1476922175396	1476922175508	t	84
359890	3879785	The qualifying continues on the west side of town.	The qualifying conties on the west side of town.	184314347	1476922175548	1476922175652	o	79
359890	3879785	The qualifying continues on the west side of town.	The qualifying conties on the west side of town.	184314381	1476922175629	1476922175780	w	87
359890	3879785	The qualifying continues on the west side of town.	The qualifying conties on the west side of town.	184314385	1476922175764	1476922175860	n	78
359890	3879785	The qualifying continues on the west side of town.	The qualifying conties on the west side of town.	184314389	1476922176012	1476922176108	/	191
359890	3879785	The qualifying continues on the west side of town.	The qualifying conties on the west side of town.	184314392	1476922176356	1476922176404	BKSP	8
359890	3879785	The qualifying continues on the west side of town.	The qualifying conties on the west side of town.	184314396	1476922176484	1476922176581	.	190
359890	3879794	Are you back in town?	Are you back in town?	184314462	1476922178260	1476922178500	SHIFT	16
359890	3879794	Are you back in town?	Are you back in town?	184314461	1476922178372	1476922178468	A	65
359890	3879794	Are you back in town?	Are you back in town?	184314463	1476922178556	1476922178684	r	82
359890	3879794	Are you back in town?	Are you back in town?	184314464	1476922178628	1476922178733	e	69
359890	3879794	Are you back in town?	Are you back in town?	184314465	1476922178700	1476922178796	 	32
359890	3879794	Are you back in town?	Are you back in town?	184314466	1476922178844	1476922178948	y	89
359890	3879794	Are you back in town?	Are you back in town?	184314478	1476922178932	1476922179060	o	79
359890	3879794	Are you back in town?	Are you back in town?	184314481	1476922178988	1476922179084	u	85
359890	3879794	Are you back in town?	Are you back in town?	184314486	1476922179068	1476922179172	 	32
359890	3879794	Are you back in town?	Are you back in town?	184314490	1476922179180	1476922179260	b	66
359890	3879794	Are you back in town?	Are you back in town?	184314492	1476922179252	1476922179372	a	65
359890	3879794	Are you back in town?	Are you back in town?	184314499	1476922179332	1476922179444	c	67
359890	3879794	Are you back in town?	Are you back in town?	184314501	1476922179364	1476922179460	k	75
359890	3879794	Are you back in town?	Are you back in town?	184314503	1476922179484	1476922179572	 	32
359890	3879794	Are you back in town?	Are you back in town?	184314506	1476922179620	1476922179749	i	73
359890	3879794	Are you back in town?	Are you back in town?	184314509	1476922179684	1476922179756	n	78
359890	3879794	Are you back in town?	Are you back in town?	184314512	1476922179828	1476922179916	 	32
359890	3879794	Are you back in town?	Are you back in town?	184314515	1476922179924	1476922180020	t	84
359890	3879794	Are you back in town?	Are you back in town?	184314535	1476922180012	1476922180108	o	79
359890	3879794	Are you back in town?	Are you back in town?	184314538	1476922180084	1476922180196	w	87
359890	3879794	Are you back in town?	Are you back in town?	184314541	1476922180172	1476922180252	n	78
359890	3879794	Are you back in town?	Are you back in town?	184314544	1476922180412	1476922180516	SHIFT	16
359890	3879794	Are you back in town?	Are you back in town?	184314546	1476922180460	1476922180540	?	191
359890	3879794	Are you back in town?	Are you back in town?	184314553	1476922181100	1476922181188	BKSP	8
359890	3879799	She is taking over Global Finance Legal.	She is taking over Global Fincance Legal.	184314598	1476922182949	1476922183124	SHIFT	16
359890	3879799	She is taking over Global Finance Legal.	She is taking over Global Fincance Legal.	184314600	1476922183076	1476922183196	S	83
359890	3879799	She is taking over Global Finance Legal.	She is taking over Global Fincance Legal.	184314602	1476922183284	1476922183356	h	72
359890	3879799	She is taking over Global Finance Legal.	She is taking over Global Fincance Legal.	184314604	1476922183436	1476922183540	e	69
359890	3879799	She is taking over Global Finance Legal.	She is taking over Global Fincance Legal.	184314607	1476922183484	1476922183564	 	32
359890	3879799	She is taking over Global Finance Legal.	She is taking over Global Fincance Legal.	184314610	1476922183636	1476922183724	i	73
359890	3879799	She is taking over Global Finance Legal.	She is taking over Global Fincance Legal.	184314637	1476922183692	1476922183811	s	83
359890	3879799	She is taking over Global Finance Legal.	She is taking over Global Fincance Legal.	184314638	1476922183804	1476922183925	 	32
359890	3879799	She is taking over Global Finance Legal.	She is taking over Global Fincance Legal.	184314639	1476922183933	1476922184028	t	84
359890	3879799	She is taking over Global Finance Legal.	She is taking over Global Fincance Legal.	184314641	1476922183989	1476922184108	a	65
359890	3879799	She is taking over Global Finance Legal.	She is taking over Global Fincance Legal.	184314640	1476922184036	1476922184100	k	75
359890	3879799	She is taking over Global Finance Legal.	She is taking over Global Fincance Legal.	184314642	1476922184196	1476922184388	i	73
359890	3879799	She is taking over Global Finance Legal.	She is taking over Global Fincance Legal.	184314677	1476922184292	1476922184420	n	78
359890	3879799	She is taking over Global Finance Legal.	She is taking over Global Fincance Legal.	184314678	1476922184724	1476922184812	g	71
359890	3879799	She is taking over Global Finance Legal.	She is taking over Global Fincance Legal.	184314680	1476922184828	1476922184932	 	32
359890	3879799	She is taking over Global Finance Legal.	She is taking over Global Fincance Legal.	184314684	1476922185180	1476922185292	o	79
359890	3879799	She is taking over Global Finance Legal.	She is taking over Global Fincance Legal.	184314688	1476922185284	1476922185380	v	86
359890	3879799	She is taking over Global Finance Legal.	She is taking over Global Fincance Legal.	184314694	1476922185492	1476922185652	e	69
359890	3879799	She is taking over Global Finance Legal.	She is taking over Global Fincance Legal.	184314740	1476922185588	1476922185716	r	82
359890	3879799	She is taking over Global Finance Legal.	She is taking over Global Fincance Legal.	184314743	1476922185660	1476922185764	 	32
359890	3879799	She is taking over Global Finance Legal.	She is taking over Global Fincance Legal.	184314744	1476922185852	1476922186388	SHIFT	16
359890	3879799	She is taking over Global Finance Legal.	She is taking over Global Fincance Legal.	184314747	1476922186308	1476922186404	G	71
359890	3879799	She is taking over Global Finance Legal.	She is taking over Global Fincance Legal.	184314751	1476922186516	1476922186668	l	76
359890	3879799	She is taking over Global Finance Legal.	She is taking over Global Fincance Legal.	184314752	1476922186724	1476922186900	o	79
359890	3879799	She is taking over Global Finance Legal.	She is taking over Global Fincance Legal.	184314753	1476922186980	1476922187108	b	66
359890	3879799	She is taking over Global Finance Legal.	She is taking over Global Fincance Legal.	184314778	1476922187020	1476922187180	a	65
359890	3879799	She is taking over Global Finance Legal.	She is taking over Global Fincance Legal.	184314780	1476922187188	1476922187364	l	76
359890	3879799	She is taking over Global Finance Legal.	She is taking over Global Fincance Legal.	184314783	1476922187412	1476922187548	 	32
359890	3879799	She is taking over Global Finance Legal.	She is taking over Global Fincance Legal.	184314785	1476922187956	1476922188132	SHIFT	16
359890	3879799	She is taking over Global Finance Legal.	She is taking over Global Fincance Legal.	184314786	1476922188060	1476922188148	F	70
359890	3879799	She is taking over Global Finance Legal.	She is taking over Global Fincance Legal.	184314787	1476922188284	1476922188516	i	73
359890	3879799	She is taking over Global Finance Legal.	She is taking over Global Fincance Legal.	184314805	1476922188404	1476922188564	n	78
359890	3879799	She is taking over Global Finance Legal.	She is taking over Global Fincance Legal.	184314807	1476922188764	1476922188844	c	67
359890	3879799	She is taking over Global Finance Legal.	She is taking over Global Fincance Legal.	184314809	1476922188836	1476922189036	a	65
359890	3879799	She is taking over Global Finance Legal.	She is taking over Global Fincance Legal.	184314811	1476922189052	1476922189212	n	78
359890	3879799	She is taking over Global Finance Legal.	She is taking over Global Fincance Legal.	184314812	1476922189276	1476922189364	c	67
359890	3879799	She is taking over Global Finance Legal.	She is taking over Global Fincance Legal.	184314814	1476922189516	1476922189644	e	69
359890	3879799	She is taking over Global Finance Legal.	She is taking over Global Fincance Legal.	184314858	1476922189836	1476922189940	 	32
359890	3879799	She is taking over Global Finance Legal.	She is taking over Global Fincance Legal.	184314861	1476922189947	1476922190324	SHIFT	16
359890	3879799	She is taking over Global Finance Legal.	She is taking over Global Fincance Legal.	184314859	1476922190140	1476922190300	L	76
359890	3879799	She is taking over Global Finance Legal.	She is taking over Global Fincance Legal.	184314864	1476922190364	1476922190468	e	69
359890	3879799	She is taking over Global Finance Legal.	She is taking over Global Fincance Legal.	184314867	1476922190572	1476922190620	f	70
359890	3879799	She is taking over Global Finance Legal.	She is taking over Global Fincance Legal.	184314870	1476922190988	1476922191052	BKSP	8
359890	3879799	She is taking over Global Finance Legal.	She is taking over Global Fincance Legal.	184314904	1476922191036	1476922191172	g	71
359890	3879799	She is taking over Global Finance Legal.	She is taking over Global Fincance Legal.	184314906	1476922191140	1476922191252	a	65
359890	3879799	She is taking over Global Finance Legal.	She is taking over Global Fincance Legal.	184314908	1476922191219	1476922191324	l	76
359890	3879799	She is taking over Global Finance Legal.	She is taking over Global Fincance Legal.	184314910	1476922191652	1476922191812	;	191
359890	3879799	She is taking over Global Finance Legal.	She is taking over Global Fincance Legal.	184314913	1476922192068	1476922192140	BKSP	8
359890	3879799	She is taking over Global Finance Legal.	She is taking over Global Fincance Legal.	184314916	1476922192236	1476922192316	BKSP	8
359890	3879799	She is taking over Global Finance Legal.	She is taking over Global Fincance Legal.	184314918	1476922192444	1476922192516	,	190
359890	3879799	She is taking over Global Finance Legal.	She is taking over Global Fincance Legal.	184314926	1476922192868	1476922192916	BKSP	8
359890	3879809	Okay I'll go for a ticket.	Okay I'll go for a ticket.	184315000	1476922194604	1476922195132	SHIFT	16
359890	3879809	Okay I'll go for a ticket.	Okay I'll go for a ticket.	184315002	1476922195068	1476922195140	O	79
359890	3879809	Okay I'll go for a ticket.	Okay I'll go for a ticket.	184315005	1476922195228	1476922195331	k	75
359890	3879809	Okay I'll go for a ticket.	Okay I'll go for a ticket.	184315012	1476922195324	1476922195436	a	65
359890	3879809	Okay I'll go for a ticket.	Okay I'll go for a ticket.	184315017	1476922195644	1476922195748	y	89
359890	3879809	Okay I'll go for a ticket.	Okay I'll go for a ticket.	184315024	1476922195844	1476922195948	 	32
359890	3879809	Okay I'll go for a ticket.	Okay I'll go for a ticket.	184315055	1476922195964	1476922196180	SHIFT	16
359890	3879809	Okay I'll go for a ticket.	Okay I'll go for a ticket.	184315058	1476922196084	1476922196188	I	73
359890	3879809	Okay I'll go for a ticket.	Okay I'll go for a ticket.	184315063	1476922196660	1476922196820	'	222
359890	3879809	Okay I'll go for a ticket.	Okay I'll go for a ticket.	184315067	1476922196956	1476922197036	l	76
359890	3879809	Okay I'll go for a ticket.	Okay I'll go for a ticket.	184315072	1476922197100	1476922197220	l	76
359890	3879809	Okay I'll go for a ticket.	Okay I'll go for a ticket.	184315112	1476922197196	1476922197316	 	32
359890	3879809	Okay I'll go for a ticket.	Okay I'll go for a ticket.	184315114	1476922197363	1476922197508	g	71
359890	3879809	Okay I'll go for a ticket.	Okay I'll go for a ticket.	184315117	1476922197548	1476922197692	o	79
359890	3879809	Okay I'll go for a ticket.	Okay I'll go for a ticket.	184315119	1476922197668	1476922197796	 	32
359890	3879809	Okay I'll go for a ticket.	Okay I'll go for a ticket.	184315121	1476922197828	1476922197964	d	68
359890	3879809	Okay I'll go for a ticket.	Okay I'll go for a ticket.	184315123	1476922198324	1476922198404	BKSP	8
359890	3879809	Okay I'll go for a ticket.	Okay I'll go for a ticket.	184315124	1476922198420	1476922198523	f	70
359890	3879809	Okay I'll go for a ticket.	Okay I'll go for a ticket.	184315126	1476922198532	1476922198628	o	79
359890	3879809	Okay I'll go for a ticket.	Okay I'll go for a ticket.	184315128	1476922198612	1476922198708	r	82
359890	3879809	Okay I'll go for a ticket.	Okay I'll go for a ticket.	184315132	1476922198724	1476922198812	 	32
359890	3879809	Okay I'll go for a ticket.	Okay I'll go for a ticket.	184315137	1476922198804	1476922198908	a	65
359890	3879809	Okay I'll go for a ticket.	Okay I'll go for a ticket.	184315153	1476922198876	1476922198980	 	32
359890	3879809	Okay I'll go for a ticket.	Okay I'll go for a ticket.	184315154	1476922198996	1476922199084	t	84
359890	3879809	Okay I'll go for a ticket.	Okay I'll go for a ticket.	184315155	1476922199100	1476922199188	i	73
359890	3879809	Okay I'll go for a ticket.	Okay I'll go for a ticket.	184315156	1476922199212	1476922199300	c	67
359890	3879809	Okay I'll go for a ticket.	Okay I'll go for a ticket.	184315157	1476922199292	1476922199388	k	75
359890	3879809	Okay I'll go for a ticket.	Okay I'll go for a ticket.	184315168	1476922199380	1476922199476	e	69
359890	3879809	Okay I'll go for a ticket.	Okay I'll go for a ticket.	184315172	1476922199507	1476922199620	t	84
359890	3879809	Okay I'll go for a ticket.	Okay I'll go for a ticket.	184315177	1476922199644	1476922199740	.	190
