PARTICIPANT_ID	TEST_SECTION_ID	SENTENCE	USER_INPUT	KEYSTROKE_ID	PRESS_TIME	RELEASE_TIME	LETTER	KEYCODE
363168	3915227	I think we should put a number on the table.	I think we should put a number on the table.	186004700	1476970148078	1476970148246	SHIFT	16
363168	3915227	I think we should put a number on the table.	I think we should put a number on the table.	186004702	1476970148180	1476970148281	I	73
363168	3915227	I think we should put a number on the table.	I think we should put a number on the table.	186004704	1476970148242	1476970148388	 	32
363168	3915227	I think we should put a number on the table.	I think we should put a number on the table.	186004707	1476970148366	1476970148467	t	84
363168	3915227	I think we should put a number on the table.	I think we should put a number on the table.	186004710	1476970148432	1476970148520	h	72
363168	3915227	I think we should put a number on the table.	I think we should put a number on the table.	186004724	1476970148512	1476970148591	i	73
363168	3915227	I think we should put a number on the table.	I think we should put a number on the table.	186004726	1476970148600	1476970148692	n	78
363168	3915227	I think we should put a number on the table.	I think we should put a number on the table.	186004731	1476970148679	1476970148770	k	75
363168	3915227	I think we should put a number on the table.	I think we should put a number on the table.	186004736	1476970148757	1476970148911	 	32
363168	3915227	I think we should put a number on the table.	I think we should put a number on the table.	186004742	1476970148921	1476970149022	w	87
363168	3915227	I think we should put a number on the table.	I think we should put a number on the table.	186004747	1476970149087	1476970149190	e	69
363168	3915227	I think we should put a number on the table.	I think we should put a number on the table.	186004766	1476970149187	1476970149314	 	32
363168	3915227	I think we should put a number on the table.	I think we should put a number on the table.	186004773	1476970149310	1476970149419	s	83
363168	3915227	I think we should put a number on the table.	I think we should put a number on the table.	186004781	1476970149381	1476970149478	h	72
363168	3915227	I think we should put a number on the table.	I think we should put a number on the table.	186004788	1476970149498	1476970149596	o	79
363168	3915227	I think we should put a number on the table.	I think we should put a number on the table.	186004794	1476970149559	1476970149651	u	85
363168	3915227	I think we should put a number on the table.	I think we should put a number on the table.	186004797	1476970149680	1476970149762	l	76
363168	3915227	I think we should put a number on the table.	I think we should put a number on the table.	186004813	1476970149772	1476970149870	d	68
363168	3915227	I think we should put a number on the table.	I think we should put a number on the table.	186004815	1476970149853	1476970149959	 	32
363168	3915227	I think we should put a number on the table.	I think we should put a number on the table.	186004818	1476970149968	1476970150033	p	80
363168	3915227	I think we should put a number on the table.	I think we should put a number on the table.	186004823	1476970150116	1476970150206	u	85
363168	3915227	I think we should put a number on the table.	I think we should put a number on the table.	186004824	1476970150239	1476970150346	t	84
363168	3915227	I think we should put a number on the table.	I think we should put a number on the table.	186004922	1476970150334	1476970150447	 	32
363168	3915227	I think we should put a number on the table.	I think we should put a number on the table.	186004926	1476970150428	1476970150569	a	65
363168	3915227	I think we should put a number on the table.	I think we should put a number on the table.	186004928	1476970150512	1476970150669	 	32
363168	3915227	I think we should put a number on the table.	I think we should put a number on the table.	186004932	1476970150881	1476970151025	n	78
363168	3915227	I think we should put a number on the table.	I think we should put a number on the table.	186004934	1476970151474	1476970151588	BKSP	8
363168	3915227	I think we should put a number on the table.	I think we should put a number on the table.	186004938	1476970152247	1476970152344	n	78
363168	3915227	I think we should put a number on the table.	I think we should put a number on the table.	186004939	1476970152377	1476970152481	u	85
363168	3915227	I think we should put a number on the table.	I think we should put a number on the table.	186004945	1476970152534	1476970152637	m	77
363168	3915227	I think we should put a number on the table.	I think we should put a number on the table.	186004949	1476970152687	1476970152764	b	66
363168	3915227	I think we should put a number on the table.	I think we should put a number on the table.	186004955	1476970152841	1476970152964	e	69
363168	3915227	I think we should put a number on the table.	I think we should put a number on the table.	186004963	1476970152904	1476970153002	r	82
363168	3915227	I think we should put a number on the table.	I think we should put a number on the table.	186004974	1476970152998	1476970153107	 	32
363168	3915227	I think we should put a number on the table.	I think we should put a number on the table.	186004976	1476970153081	1476970153172	o	79
363168	3915227	I think we should put a number on the table.	I think we should put a number on the table.	186004979	1476970153191	1476970153293	n	78
363168	3915227	I think we should put a number on the table.	I think we should put a number on the table.	186004985	1476970153254	1476970153384	 	32
363168	3915227	I think we should put a number on the table.	I think we should put a number on the table.	186004988	1476970153333	1476970153457	t	84
363168	3915227	I think we should put a number on the table.	I think we should put a number on the table.	186005016	1476970153416	1476970153512	h	72
363168	3915227	I think we should put a number on the table.	I think we should put a number on the table.	186005017	1476970153450	1476970153577	e	69
363168	3915227	I think we should put a number on the table.	I think we should put a number on the table.	186005019	1476970153583	1476970153704	 	32
363168	3915227	I think we should put a number on the table.	I think we should put a number on the table.	186005021	1476970153701	1476970153838	t	84
363168	3915227	I think we should put a number on the table.	I think we should put a number on the table.	186005023	1476970153770	1476970153936	a	65
363168	3915227	I think we should put a number on the table.	I think we should put a number on the table.	186005026	1476970153972	1476970154086	b	66
363168	3915227	I think we should put a number on the table.	I think we should put a number on the table.	186005029	1476970154141	1476970154236	l	76
363168	3915227	I think we should put a number on the table.	I think we should put a number on the table.	186005042	1476970154220	1476970154393	e	69
363168	3915227	I think we should put a number on the table.	I think we should put a number on the table.	186005045	1476970154576	1476970154684	.	190
363168	3915233	That's a fair trade off.	That's a fair trade off.	186005141	1476970155990	1476970156304	SHIFT	16
363168	3915233	That's a fair trade off.	That's a fair trade off.	186005142	1476970156258	1476970156372	T	84
363168	3915233	That's a fair trade off.	That's a fair trade off.	186005144	1476970156352	1476970156464	h	72
363168	3915233	That's a fair trade off.	That's a fair trade off.	186005146	1476970156437	1476970156581	a	65
363168	3915233	That's a fair trade off.	That's a fair trade off.	186005148	1476970156509	1476970156633	t	84
363168	3915233	That's a fair trade off.	That's a fair trade off.	186005151	1476970156718	1476970156825	'	222
363168	3915233	That's a fair trade off.	That's a fair trade off.	186005171	1476970156884	1476970157025	s	83
363168	3915233	That's a fair trade off.	That's a fair trade off.	186005173	1476970157015	1476970157149	 	32
363168	3915233	That's a fair trade off.	That's a fair trade off.	186005175	1476970157171	1476970157322	a	65
363168	3915233	That's a fair trade off.	That's a fair trade off.	186005177	1476970157330	1476970157463	 	32
363168	3915233	That's a fair trade off.	That's a fair trade off.	186005179	1476970157575	1476970157693	f	70
363168	3915233	That's a fair trade off.	That's a fair trade off.	186005226	1476970157683	1476970157836	a	65
363168	3915233	That's a fair trade off.	That's a fair trade off.	186005229	1476970157826	1476970157914	i	73
363168	3915233	That's a fair trade off.	That's a fair trade off.	186005232	1476970157940	1476970158064	r	82
363168	3915233	That's a fair trade off.	That's a fair trade off.	186005235	1476970158067	1476970158250	 	32
363168	3915233	That's a fair trade off.	That's a fair trade off.	186005237	1476970158293	1476970158380	t	84
363168	3915233	That's a fair trade off.	That's a fair trade off.	186005239	1476970158456	1476970158619	r	82
363168	3915233	That's a fair trade off.	That's a fair trade off.	186005251	1476970158559	1476970158710	a	65
363168	3915233	That's a fair trade off.	That's a fair trade off.	186005256	1476970158697	1476970158798	d	68
363168	3915233	That's a fair trade off.	That's a fair trade off.	186005260	1476970158853	1476970158971	e	69
363168	3915233	That's a fair trade off.	That's a fair trade off.	186005267	1476970158958	1476970159089	 	32
363168	3915233	That's a fair trade off.	That's a fair trade off.	186005269	1476970159067	1476970159160	o	79
363168	3915233	That's a fair trade off.	That's a fair trade off.	186005278	1476970159124	1476970159216	f	70
363168	3915233	That's a fair trade off.	That's a fair trade off.	186005279	1476970159278	1476970159370	f	70
363168	3915233	That's a fair trade off.	That's a fair trade off.	186005281	1476970159366	1476970159487	.	190
363168	3915238	Ava please put it on my calendar.	Ava please put it on my calendar.	186005357	1476970160903	1476970161164	SHIFT	16
363168	3915238	Ava please put it on my calendar.	Ava please put it on my calendar.	186005358	1476970161046	1476970161193	A	65
363168	3915238	Ava please put it on my calendar.	Ava please put it on my calendar.	186005360	1476970161248	1476970161379	v	86
363168	3915238	Ava please put it on my calendar.	Ava please put it on my calendar.	186005363	1476970161356	1476970161484	a	65
363168	3915238	Ava please put it on my calendar.	Ava please put it on my calendar.	186005366	1476970161503	1476970161679	 	32
363168	3915238	Ava please put it on my calendar.	Ava please put it on my calendar.	186005375	1476970161670	1476970161758	p	80
363168	3915238	Ava please put it on my calendar.	Ava please put it on my calendar.	186005376	1476970161809	1476970161924	l	76
363168	3915238	Ava please put it on my calendar.	Ava please put it on my calendar.	186005378	1476970161872	1476970162032	e	69
363168	3915238	Ava please put it on my calendar.	Ava please put it on my calendar.	186005380	1476970161937	1476970162103	a	65
363168	3915238	Ava please put it on my calendar.	Ava please put it on my calendar.	186005382	1476970162068	1476970162237	s	83
363168	3915238	Ava please put it on my calendar.	Ava please put it on my calendar.	186005443	1476970162165	1476970162260	e	69
363168	3915238	Ava please put it on my calendar.	Ava please put it on my calendar.	186005444	1476970162250	1476970162397	 	32
363168	3915238	Ava please put it on my calendar.	Ava please put it on my calendar.	186005445	1476970162452	1476970162557	u	85
363168	3915238	Ava please put it on my calendar.	Ava please put it on my calendar.	186005446	1476970162732	1476970162828	p	80
363168	3915238	Ava please put it on my calendar.	Ava please put it on my calendar.	186005447	1476970162933	1476970163018	BKSP	8
363168	3915238	Ava please put it on my calendar.	Ava please put it on my calendar.	186005448	1476970163057	1476970163142	BKSP	8
363168	3915238	Ava please put it on my calendar.	Ava please put it on my calendar.	186005449	1476970163217	1476970163269	o	79
363168	3915238	Ava please put it on my calendar.	Ava please put it on my calendar.	186005450	1476970163814	1476970163924	BKSP	8
363168	3915238	Ava please put it on my calendar.	Ava please put it on my calendar.	186005451	1476970163979	1476970164090	p	80
363168	3915238	Ava please put it on my calendar.	Ava please put it on my calendar.	186005485	1476970164175	1476970164270	u	85
363168	3915238	Ava please put it on my calendar.	Ava please put it on my calendar.	186005488	1476970164378	1476970164448	t	84
363168	3915238	Ava please put it on my calendar.	Ava please put it on my calendar.	186005490	1476970164414	1476970164558	 	32
363168	3915238	Ava please put it on my calendar.	Ava please put it on my calendar.	186005494	1476970165222	1476970165302	i	73
363168	3915238	Ava please put it on my calendar.	Ava please put it on my calendar.	186005498	1476970165331	1476970165423	t	84
363168	3915238	Ava please put it on my calendar.	Ava please put it on my calendar.	186005522	1476970165409	1476970165540	 	32
363168	3915238	Ava please put it on my calendar.	Ava please put it on my calendar.	186005524	1476970165564	1476970165658	o	79
363168	3915238	Ava please put it on my calendar.	Ava please put it on my calendar.	186005528	1476970165653	1476970165758	n	78
363168	3915238	Ava please put it on my calendar.	Ava please put it on my calendar.	186005532	1476970165738	1476970165857	 	32
363168	3915238	Ava please put it on my calendar.	Ava please put it on my calendar.	186005538	1476970165866	1476970165967	m	77
363168	3915238	Ava please put it on my calendar.	Ava please put it on my calendar.	186005543	1476970166002	1476970166091	y	89
363168	3915238	Ava please put it on my calendar.	Ava please put it on my calendar.	186005590	1476970166130	1476970166274	 	32
363168	3915238	Ava please put it on my calendar.	Ava please put it on my calendar.	186005593	1476970166353	1476970166503	c	67
363168	3915238	Ava please put it on my calendar.	Ava please put it on my calendar.	186005597	1476970166453	1476970166594	a	65
363168	3915238	Ava please put it on my calendar.	Ava please put it on my calendar.	186005601	1476970166617	1476970166705	l	76
363168	3915238	Ava please put it on my calendar.	Ava please put it on my calendar.	186005605	1476970166727	1476970166816	e	69
363168	3915238	Ava please put it on my calendar.	Ava please put it on my calendar.	186005617	1476970166863	1476970166944	n	78
363168	3915238	Ava please put it on my calendar.	Ava please put it on my calendar.	186005618	1476970166937	1476970167018	d	68
363168	3915238	Ava please put it on my calendar.	Ava please put it on my calendar.	186005620	1476970167102	1476970167247	a	65
363168	3915238	Ava please put it on my calendar.	Ava please put it on my calendar.	186005623	1476970167266	1476970167377	r	82
363168	3915249	I short paid the August invoice.	I short paid the August invoice.	186005701	1476970168984	1476970169144	SHIFT	16
363168	3915249	I short paid the August invoice.	I short paid the August invoice.	186005706	1476970169125	1476970169218	I	73
363168	3915249	I short paid the August invoice.	I short paid the August invoice.	186005710	1476970169212	1476970169356	 	32
363168	3915249	I short paid the August invoice.	I short paid the August invoice.	186005714	1476970169329	1476970169454	s	83
363168	3915249	I short paid the August invoice.	I short paid the August invoice.	186005719	1476970169414	1476970169490	h	72
363168	3915249	I short paid the August invoice.	I short paid the August invoice.	186005723	1476970169525	1476970169634	o	79
363168	3915249	I short paid the August invoice.	I short paid the August invoice.	186005752	1476970169623	1476970169725	r	82
363168	3915249	I short paid the August invoice.	I short paid the August invoice.	186005755	1476970169797	1476970169878	t	84
363168	3915249	I short paid the August invoice.	I short paid the August invoice.	186005760	1476970169912	1476970170061	 	32
363168	3915249	I short paid the August invoice.	I short paid the August invoice.	186005767	1476970170161	1476970170255	p	80
363168	3915249	I short paid the August invoice.	I short paid the August invoice.	186005773	1476970170242	1476970170385	a	65
363168	3915249	I short paid the August invoice.	I short paid the August invoice.	186005809	1476970170382	1476970170514	i	73
363168	3915249	I short paid the August invoice.	I short paid the August invoice.	186005812	1476970170499	1476970170598	d	68
363168	3915249	I short paid the August invoice.	I short paid the August invoice.	186005820	1476970170663	1476970170839	 	32
363168	3915249	I short paid the August invoice.	I short paid the August invoice.	186005825	1476970170901	1476970171025	t	84
363168	3915249	I short paid the August invoice.	I short paid the August invoice.	186005830	1476970171002	1476970171123	h	72
363168	3915249	I short paid the August invoice.	I short paid the August invoice.	186005869	1476970171103	1476970171204	e	69
363168	3915249	I short paid the August invoice.	I short paid the August invoice.	186005872	1476970171184	1476970171361	 	32
363168	3915249	I short paid the August invoice.	I short paid the August invoice.	186005876	1476970171321	1476970171400	a	65
363168	3915249	I short paid the August invoice.	I short paid the August invoice.	186005885	1476970171478	1476970171867	SHIFT	16
363168	3915249	I short paid the August invoice.	I short paid the August invoice.	186005880	1476970171681	1476970171798	BKSP	8
363168	3915249	I short paid the August invoice.	I short paid the August invoice.	186005889	1476970171769	1476970171916	A	65
363168	3915249	I short paid the August invoice.	I short paid the August invoice.	186005894	1476970172007	1476970172122	u	85
363168	3915249	I short paid the August invoice.	I short paid the August invoice.	186005897	1476970172273	1476970172384	g	71
363168	3915249	I short paid the August invoice.	I short paid the August invoice.	186005914	1476970172420	1476970172508	u	85
363168	3915249	I short paid the August invoice.	I short paid the August invoice.	186005916	1476970172521	1476970172704	s	83
363168	3915249	I short paid the August invoice.	I short paid the August invoice.	186005920	1476970172674	1476970172769	t	84
363168	3915249	I short paid the August invoice.	I short paid the August invoice.	186005923	1476970172820	1476970172988	 	32
363168	3915249	I short paid the August invoice.	I short paid the August invoice.	186005926	1476970172984	1476970173132	SHIFT	16
363168	3915249	I short paid the August invoice.	I short paid the August invoice.	186005928	1476970173263	1476970173362	i	73
363168	3915249	I short paid the August invoice.	I short paid the August invoice.	186005960	1476970173342	1476970173457	n	78
363168	3915249	I short paid the August invoice.	I short paid the August invoice.	186005963	1476970173437	1476970173565	v	86
363168	3915249	I short paid the August invoice.	I short paid the August invoice.	186005969	1476970173921	1476970174049	o	79
363168	3915249	I short paid the August invoice.	I short paid the August invoice.	186005976	1476970174101	1476970174212	i	73
363168	3915249	I short paid the August invoice.	I short paid the August invoice.	186005980	1476970174225	1476970174359	c	67
363168	3915249	I short paid the August invoice.	I short paid the August invoice.	186006005	1476970174296	1476970174401	e	69
363168	3915249	I short paid the August invoice.	I short paid the August invoice.	186006007	1476970174446	1476970174519	,	188
363168	3915249	I short paid the August invoice.	I short paid the August invoice.	186006009	1476970174853	1476970174927	BKSP	8
363168	3915255	Thanks so much for the message.	Thanks so much for the message.	186006092	1476970176411	1476970176821	SHIFT	16
363168	3915255	Thanks so much for the message.	Thanks so much for the message.	186006096	1476970176739	1476970176880	T	84
363168	3915255	Thanks so much for the message.	Thanks so much for the message.	186006100	1476970176851	1476970176965	h	72
363168	3915255	Thanks so much for the message.	Thanks so much for the message.	186006105	1476970176955	1476970177102	a	65
363168	3915255	Thanks so much for the message.	Thanks so much for the message.	186006109	1476970177042	1476970177164	n	78
363168	3915255	Thanks so much for the message.	Thanks so much for the message.	186006119	1476970177121	1476970177255	k	75
363168	3915255	Thanks so much for the message.	Thanks so much for the message.	186006123	1476970177225	1476970177327	s	83
363168	3915255	Thanks so much for the message.	Thanks so much for the message.	186006127	1476970177313	1476970177464	 	32
363168	3915255	Thanks so much for the message.	Thanks so much for the message.	186006130	1476970177473	1476970177601	s	83
363168	3915255	Thanks so much for the message.	Thanks so much for the message.	186006134	1476970177561	1476970177682	o	79
363168	3915255	Thanks so much for the message.	Thanks so much for the message.	186006150	1476970177653	1476970177790	 	32
363168	3915255	Thanks so much for the message.	Thanks so much for the message.	186006153	1476970177777	1476970177875	m	77
363168	3915255	Thanks so much for the message.	Thanks so much for the message.	186006157	1476970177921	1476970178019	u	85
363168	3915255	Thanks so much for the message.	Thanks so much for the message.	186006162	1476970178015	1476970178155	c	67
363168	3915255	Thanks so much for the message.	Thanks so much for the message.	186006166	1476970178136	1476970178250	h	72
363168	3915255	Thanks so much for the message.	Thanks so much for the message.	186006199	1476970178217	1476970178368	 	32
363168	3915255	Thanks so much for the message.	Thanks so much for the message.	186006201	1476970178350	1476970178465	f	70
363168	3915255	Thanks so much for the message.	Thanks so much for the message.	186006204	1476970178484	1476970178586	o	79
363168	3915255	Thanks so much for the message.	Thanks so much for the message.	186006206	1476970178543	1476970178665	r	82
363168	3915255	Thanks so much for the message.	Thanks so much for the message.	186006208	1476970178647	1476970178779	 	32
363168	3915255	Thanks so much for the message.	Thanks so much for the message.	186006213	1476970178735	1476970178856	t	84
363168	3915255	Thanks so much for the message.	Thanks so much for the message.	186006215	1476970178811	1476970178905	h	72
363168	3915255	Thanks so much for the message.	Thanks so much for the message.	186006217	1476970178846	1476970178987	e	69
363168	3915255	Thanks so much for the message.	Thanks so much for the message.	186006220	1476970178961	1476970179091	 	32
363168	3915255	Thanks so much for the message.	Thanks so much for the message.	186006222	1476970179065	1476970179206	m	77
363168	3915255	Thanks so much for the message.	Thanks so much for the message.	186006252	1476970179153	1476970179365	e	69
363168	3915255	Thanks so much for the message.	Thanks so much for the message.	186006254	1476970179335	1476970179454	s	83
363168	3915255	Thanks so much for the message.	Thanks so much for the message.	186006258	1476970179510	1476970179639	s	83
363168	3915255	Thanks so much for the message.	Thanks so much for the message.	186006260	1476970179621	1476970179757	a	65
363168	3915255	Thanks so much for the message.	Thanks so much for the message.	186006262	1476970179707	1476970179858	g	71
363168	3915255	Thanks so much for the message.	Thanks so much for the message.	186006263	1476970179809	1476970179916	e	69
363168	3915260	What is the status of the Pemex discussions?	What is the status of the Pemex discussions	186006357	1476970181365	1476970181597	SHIFT	16
363168	3915260	What is the status of the Pemex discussions?	What is the status of the Pemex discussions	186006362	1476970181515	1476970181656	W	87
363168	3915260	What is the status of the Pemex discussions?	What is the status of the Pemex discussions	186006366	1476970181708	1476970181838	a	65
363168	3915260	What is the status of the Pemex discussions?	What is the status of the Pemex discussions	186006372	1476970182070	1476970182138	BKSP	8
363168	3915260	What is the status of the Pemex discussions?	What is the status of the Pemex discussions	186006375	1476970182222	1476970182338	h	72
363168	3915260	What is the status of the Pemex discussions?	What is the status of the Pemex discussions	186006379	1476970182292	1476970182432	a	65
363168	3915260	What is the status of the Pemex discussions?	What is the status of the Pemex discussions	186006390	1476970182373	1476970182487	t	84
363168	3915260	What is the status of the Pemex discussions?	What is the status of the Pemex discussions	186006393	1476970182438	1476970182536	 	32
363168	3915260	What is the status of the Pemex discussions?	What is the status of the Pemex discussions	186006396	1476970182509	1476970182602	i	73
363168	3915260	What is the status of the Pemex discussions?	What is the status of the Pemex discussions	186006399	1476970182598	1476970182729	s	83
363168	3915260	What is the status of the Pemex discussions?	What is the status of the Pemex discussions	186006401	1476970182653	1476970182768	 	32
363168	3915260	What is the status of the Pemex discussions?	What is the status of the Pemex discussions	186006402	1476970182774	1476970182909	h	84
363168	3915260	What is the status of the Pemex discussions?	What is the status of the Pemex discussions	186006436	1476970182917	1476970183045	e	69
363168	3915260	What is the status of the Pemex discussions?	What is the status of the Pemex discussions	186006438	1476970183089	1476970183225	 	32
363168	3915260	What is the status of the Pemex discussions?	What is the status of the Pemex discussions	186006440	1476970183623	1476970183731	t	84
363168	3915260	What is the status of the Pemex discussions?	What is the status of the Pemex discussions	186006443	1476970183883	1476970183963	BKSP	8
363168	3915260	What is the status of the Pemex discussions?	What is the status of the Pemex discussions	186006446	1476970183922	1476970184112	s	83
363168	3915260	What is the status of the Pemex discussions?	What is the status of the Pemex discussions	186006457	1476970184033	1476970184153	t	84
363168	3915260	What is the status of the Pemex discussions?	What is the status of the Pemex discussions	186006460	1476970184119	1476970184280	a	65
363168	3915260	What is the status of the Pemex discussions?	What is the status of the Pemex discussions	186006463	1476970184326	1476970184443	t	84
363168	3915260	What is the status of the Pemex discussions?	What is the status of the Pemex discussions	186006466	1476970184426	1476970184540	u	85
363168	3915260	What is the status of the Pemex discussions?	What is the status of the Pemex discussions	186006469	1476970184537	1476970184678	s	83
363168	3915260	What is the status of the Pemex discussions?	What is the status of the Pemex discussions	186006474	1476970184659	1476970184792	 	32
363168	3915260	What is the status of the Pemex discussions?	What is the status of the Pemex discussions	186006477	1476970184773	1476970184886	o	79
363168	3915260	What is the status of the Pemex discussions?	What is the status of the Pemex discussions	186006480	1476970184870	1476970184958	f	70
363168	3915260	What is the status of the Pemex discussions?	What is the status of the Pemex discussions	186006483	1476970184926	1476970185057	 	32
363168	3915260	What is the status of the Pemex discussions?	What is the status of the Pemex discussions	186006488	1476970185050	1476970185141	t	84
363168	3915260	What is the status of the Pemex discussions?	What is the status of the Pemex discussions	186006512	1476970185104	1476970185229	h	72
363168	3915260	What is the status of the Pemex discussions?	What is the status of the Pemex discussions	186006515	1476970185189	1476970185314	e	69
363168	3915260	What is the status of the Pemex discussions?	What is the status of the Pemex discussions	186006518	1476970185290	1476970185435	 	32
363168	3915260	What is the status of the Pemex discussions?	What is the status of the Pemex discussions	186006521	1476970185486	1476970185640	SHIFT	16
363168	3915260	What is the status of the Pemex discussions?	What is the status of the Pemex discussions	186006526	1476970185562	1476970185656	P	80
363168	3915260	What is the status of the Pemex discussions?	What is the status of the Pemex discussions	186006529	1476970185715	1476970185834	e	69
363168	3915260	What is the status of the Pemex discussions?	What is the status of the Pemex discussions	186006574	1476970185826	1476970185944	m	77
363168	3915260	What is the status of the Pemex discussions?	What is the status of the Pemex discussions	186006578	1476970185956	1476970186042	e	69
363168	3915260	What is the status of the Pemex discussions?	What is the status of the Pemex discussions	186006582	1476970186151	1476970186288	x	88
363168	3915260	What is the status of the Pemex discussions?	What is the status of the Pemex discussions	186006587	1476970186395	1476970186556	 	32
363168	3915260	What is the status of the Pemex discussions?	What is the status of the Pemex discussions	186006591	1476970186683	1476970186834	d	68
363168	3915260	What is the status of the Pemex discussions?	What is the status of the Pemex discussions	186006593	1476970187034	1476970187148	i	73
363168	3915260	What is the status of the Pemex discussions?	What is the status of the Pemex discussions	186006622	1476970187397	1476970187513	s	83
363168	3915260	What is the status of the Pemex discussions?	What is the status of the Pemex discussions	186006627	1476970187796	1476970187874	c	67
363168	3915260	What is the status of the Pemex discussions?	What is the status of the Pemex discussions	186006634	1476970187998	1476970188104	u	85
363168	3915260	What is the status of the Pemex discussions?	What is the status of the Pemex discussions	186006638	1476970188199	1476970188343	s	83
363168	3915260	What is the status of the Pemex discussions?	What is the status of the Pemex discussions	186006643	1476970188378	1476970188552	s	83
363168	3915260	What is the status of the Pemex discussions?	What is the status of the Pemex discussions	186006660	1476970188509	1476970188620	i	73
363168	3915260	What is the status of the Pemex discussions?	What is the status of the Pemex discussions	186006662	1476970188574	1476970188689	o	79
363168	3915260	What is the status of the Pemex discussions?	What is the status of the Pemex discussions	186006665	1476970188702	1476970188807	n	78
363168	3915260	What is the status of the Pemex discussions?	What is the status of the Pemex discussions	186006670	1476970188796	1476970188911	s	83
363168	3915260	What is the status of the Pemex discussions?	What is the status of the Pemex discussions	186006676	1476970188985	1476970189143	SHIFT	16
363168	3915268	Sorry for the unfriendly greeting in the lobby.	Sorry of the unfriendly greeting in the lobby.	186006772	1476970191024	1476970191215	SHIFT	16
363168	3915268	Sorry for the unfriendly greeting in the lobby.	Sorry of the unfriendly greeting in the lobby.	186006774	1476970191135	1476970191293	S	83
363168	3915268	Sorry for the unfriendly greeting in the lobby.	Sorry of the unfriendly greeting in the lobby.	186006776	1476970191382	1476970191540	o	79
363168	3915268	Sorry for the unfriendly greeting in the lobby.	Sorry of the unfriendly greeting in the lobby.	186006778	1476970191512	1476970191595	r	82
363168	3915268	Sorry for the unfriendly greeting in the lobby.	Sorry of the unfriendly greeting in the lobby.	186006780	1476970191673	1476970191751	r	82
363168	3915268	Sorry for the unfriendly greeting in the lobby.	Sorry of the unfriendly greeting in the lobby.	186006785	1476970191841	1476970191935	y	89
363168	3915268	Sorry for the unfriendly greeting in the lobby.	Sorry of the unfriendly greeting in the lobby.	186006795	1476970191958	1476970192115	 	32
363168	3915268	Sorry for the unfriendly greeting in the lobby.	Sorry of the unfriendly greeting in the lobby.	186006799	1476970192072	1476970192177	o	79
363168	3915268	Sorry for the unfriendly greeting in the lobby.	Sorry of the unfriendly greeting in the lobby.	186006803	1476970192135	1476970192242	f	70
363168	3915268	Sorry for the unfriendly greeting in the lobby.	Sorry of the unfriendly greeting in the lobby.	186006806	1476970192278	1476970192437	 	32
363168	3915268	Sorry for the unfriendly greeting in the lobby.	Sorry of the unfriendly greeting in the lobby.	186006820	1476970192343	1476970192458	t	84
363168	3915268	Sorry for the unfriendly greeting in the lobby.	Sorry of the unfriendly greeting in the lobby.	186006823	1476970192451	1476970192578	h	72
363168	3915268	Sorry for the unfriendly greeting in the lobby.	Sorry of the unfriendly greeting in the lobby.	186006827	1476970192529	1476970192647	e	69
363168	3915268	Sorry for the unfriendly greeting in the lobby.	Sorry of the unfriendly greeting in the lobby.	186006830	1476970192627	1476970192775	 	32
363168	3915268	Sorry for the unfriendly greeting in the lobby.	Sorry of the unfriendly greeting in the lobby.	186006832	1476970192936	1476970193040	u	85
363168	3915268	Sorry for the unfriendly greeting in the lobby.	Sorry of the unfriendly greeting in the lobby.	186006856	1476970193021	1476970193152	n	78
363168	3915268	Sorry for the unfriendly greeting in the lobby.	Sorry of the unfriendly greeting in the lobby.	186006857	1476970193204	1476970193279	f	70
363168	3915268	Sorry for the unfriendly greeting in the lobby.	Sorry of the unfriendly greeting in the lobby.	186006858	1476970193414	1476970193533	r	82
363168	3915268	Sorry for the unfriendly greeting in the lobby.	Sorry of the unfriendly greeting in the lobby.	186006859	1476970193594	1476970193726	i	73
363168	3915268	Sorry for the unfriendly greeting in the lobby.	Sorry of the unfriendly greeting in the lobby.	186006860	1476970193722	1476970193842	e	69
363168	3915268	Sorry for the unfriendly greeting in the lobby.	Sorry of the unfriendly greeting in the lobby.	186006861	1476970193974	1476970194116	n	78
363168	3915268	Sorry for the unfriendly greeting in the lobby.	Sorry of the unfriendly greeting in the lobby.	186006907	1476970194126	1476970194283	d	68
363168	3915268	Sorry for the unfriendly greeting in the lobby.	Sorry of the unfriendly greeting in the lobby.	186006909	1476970194361	1476970194508	s	83
363168	3915268	Sorry for the unfriendly greeting in the lobby.	Sorry of the unfriendly greeting in the lobby.	186006913	1476970194554	1476970194599	l	76
363168	3915268	Sorry for the unfriendly greeting in the lobby.	Sorry of the unfriendly greeting in the lobby.	186006916	1476970194705	1476970194768	BKSP	8
363168	3915268	Sorry for the unfriendly greeting in the lobby.	Sorry of the unfriendly greeting in the lobby.	186006918	1476970194989	1476970195067	BKSP	8
363168	3915268	Sorry for the unfriendly greeting in the lobby.	Sorry of the unfriendly greeting in the lobby.	186006920	1476970195151	1476970195253	l	76
363168	3915268	Sorry for the unfriendly greeting in the lobby.	Sorry of the unfriendly greeting in the lobby.	186006945	1476970195229	1476970195311	y	89
363168	3915268	Sorry for the unfriendly greeting in the lobby.	Sorry of the unfriendly greeting in the lobby.	186006949	1476970195386	1476970195514	 	32
363168	3915268	Sorry for the unfriendly greeting in the lobby.	Sorry of the unfriendly greeting in the lobby.	186006952	1476970195803	1476970195891	g	71
363168	3915268	Sorry for the unfriendly greeting in the lobby.	Sorry of the unfriendly greeting in the lobby.	186006954	1476970195989	1476970196127	r	82
363168	3915268	Sorry for the unfriendly greeting in the lobby.	Sorry of the unfriendly greeting in the lobby.	186006956	1476970196055	1476970196163	e	69
363168	3915268	Sorry for the unfriendly greeting in the lobby.	Sorry of the unfriendly greeting in the lobby.	186006958	1476970196221	1476970196345	e	69
363168	3915268	Sorry for the unfriendly greeting in the lobby.	Sorry of the unfriendly greeting in the lobby.	186006970	1476970196458	1476970196573	t	84
363168	3915268	Sorry for the unfriendly greeting in the lobby.	Sorry of the unfriendly greeting in the lobby.	186006972	1476970196578	1476970196690	i	73
363168	3915268	Sorry for the unfriendly greeting in the lobby.	Sorry of the unfriendly greeting in the lobby.	186006973	1476970196657	1476970196772	n	78
363168	3915268	Sorry for the unfriendly greeting in the lobby.	Sorry of the unfriendly greeting in the lobby.	186006974	1476970196731	1476970196820	g	71
363168	3915268	Sorry for the unfriendly greeting in the lobby.	Sorry of the unfriendly greeting in the lobby.	186006987	1476970196797	1476970196920	 	32
363168	3915268	Sorry for the unfriendly greeting in the lobby.	Sorry of the unfriendly greeting in the lobby.	186006989	1476970196914	1476970197016	i	73
363168	3915268	Sorry for the unfriendly greeting in the lobby.	Sorry of the unfriendly greeting in the lobby.	186006991	1476970196970	1476970197111	n	78
363168	3915268	Sorry for the unfriendly greeting in the lobby.	Sorry of the unfriendly greeting in the lobby.	186006994	1476970197084	1476970197209	 	32
363168	3915268	Sorry for the unfriendly greeting in the lobby.	Sorry of the unfriendly greeting in the lobby.	186006997	1476970197108	1476970197219	t	84
363168	3915268	Sorry for the unfriendly greeting in the lobby.	Sorry of the unfriendly greeting in the lobby.	186007000	1476970197238	1476970197319	h	72
363168	3915268	Sorry for the unfriendly greeting in the lobby.	Sorry of the unfriendly greeting in the lobby.	186007025	1476970197295	1476970197431	e	69
363168	3915268	Sorry for the unfriendly greeting in the lobby.	Sorry of the unfriendly greeting in the lobby.	186007027	1476970197388	1476970197525	 	32
363168	3915268	Sorry for the unfriendly greeting in the lobby.	Sorry of the unfriendly greeting in the lobby.	186007030	1476970197538	1476970197630	l	76
363168	3915268	Sorry for the unfriendly greeting in the lobby.	Sorry of the unfriendly greeting in the lobby.	186007032	1476970197685	1476970197777	o	79
363168	3915268	Sorry for the unfriendly greeting in the lobby.	Sorry of the unfriendly greeting in the lobby.	186007036	1476970197822	1476970197923	b	66
363168	3915268	Sorry for the unfriendly greeting in the lobby.	Sorry of the unfriendly greeting in the lobby.	186007039	1476970198005	1476970198093	b	66
363168	3915268	Sorry for the unfriendly greeting in the lobby.	Sorry of the unfriendly greeting in the lobby.	186007049	1476970198190	1476970198290	y	89
363168	3915280	I was a bit rusty but I didn't want to miss the elections back home.	I was a bit rusty but I didn't want to miss the elections back home.	186007143	1476970200004	1476970200148	SHIFT	16
363168	3915280	I was a bit rusty but I didn't want to miss the elections back home.	I was a bit rusty but I didn't want to miss the elections back home.	186007144	1476970200092	1476970200225	I	73
363168	3915280	I was a bit rusty but I didn't want to miss the elections back home.	I was a bit rusty but I didn't want to miss the elections back home.	186007146	1476970200205	1476970200369	 	32
363168	3915280	I was a bit rusty but I didn't want to miss the elections back home.	I was a bit rusty but I didn't want to miss the elections back home.	186007148	1476970200379	1476970200480	w	87
363168	3915280	I was a bit rusty but I didn't want to miss the elections back home.	I was a bit rusty but I didn't want to miss the elections back home.	186007151	1476970200548	1476970200686	a	65
363168	3915280	I was a bit rusty but I didn't want to miss the elections back home.	I was a bit rusty but I didn't want to miss the elections back home.	186007180	1476970200621	1476970200775	s	83
363168	3915280	I was a bit rusty but I didn't want to miss the elections back home.	I was a bit rusty but I didn't want to miss the elections back home.	186007183	1476970200767	1476970200884	 	32
363168	3915280	I was a bit rusty but I didn't want to miss the elections back home.	I was a bit rusty but I didn't want to miss the elections back home.	186007186	1476970200844	1476970200970	a	65
363168	3915280	I was a bit rusty but I didn't want to miss the elections back home.	I was a bit rusty but I didn't want to miss the elections back home.	186007188	1476970201036	1476970201169	 	32
363168	3915280	I was a bit rusty but I didn't want to miss the elections back home.	I was a bit rusty but I didn't want to miss the elections back home.	186007190	1476970201119	1476970201240	b	66
363168	3915280	I was a bit rusty but I didn't want to miss the elections back home.	I was a bit rusty but I didn't want to miss the elections back home.	186007192	1476970201251	1476970201368	i	73
363168	3915280	I was a bit rusty but I didn't want to miss the elections back home.	I was a bit rusty but I didn't want to miss the elections back home.	186007235	1476970201391	1476970201478	t	84
363168	3915280	I was a bit rusty but I didn't want to miss the elections back home.	I was a bit rusty but I didn't want to miss the elections back home.	186007238	1476970201527	1476970201743	 	32
363168	3915280	I was a bit rusty but I didn't want to miss the elections back home.	I was a bit rusty but I didn't want to miss the elections back home.	186007243	1476970201866	1476970201988	r	82
363168	3915280	I was a bit rusty but I didn't want to miss the elections back home.	I was a bit rusty but I didn't want to miss the elections back home.	186007248	1476970201961	1476970202080	u	85
363168	3915280	I was a bit rusty but I didn't want to miss the elections back home.	I was a bit rusty but I didn't want to miss the elections back home.	186007275	1476970202049	1476970202217	s	83
363168	3915280	I was a bit rusty but I didn't want to miss the elections back home.	I was a bit rusty but I didn't want to miss the elections back home.	186007277	1476970202154	1476970202279	t	84
363168	3915280	I was a bit rusty but I didn't want to miss the elections back home.	I was a bit rusty but I didn't want to miss the elections back home.	186007279	1476970202390	1476970202475	y	89
363168	3915280	I was a bit rusty but I didn't want to miss the elections back home.	I was a bit rusty but I didn't want to miss the elections back home.	186007281	1476970202514	1476970202644	 	32
363168	3915280	I was a bit rusty but I didn't want to miss the elections back home.	I was a bit rusty but I didn't want to miss the elections back home.	186007282	1476970202767	1476970202873	b	66
363168	3915280	I was a bit rusty but I didn't want to miss the elections back home.	I was a bit rusty but I didn't want to miss the elections back home.	186007315	1476970202867	1476970202982	u	85
363168	3915280	I was a bit rusty but I didn't want to miss the elections back home.	I was a bit rusty but I didn't want to miss the elections back home.	186007317	1476970202976	1476970203101	t	84
363168	3915280	I was a bit rusty but I didn't want to miss the elections back home.	I was a bit rusty but I didn't want to miss the elections back home.	186007319	1476970203064	1476970203205	 	32
363168	3915280	I was a bit rusty but I didn't want to miss the elections back home.	I was a bit rusty but I didn't want to miss the elections back home.	186007324	1476970203254	1476970203401	SHIFT	16
363168	3915280	I was a bit rusty but I didn't want to miss the elections back home.	I was a bit rusty but I didn't want to miss the elections back home.	186007328	1476970203344	1476970203463	I	73
363168	3915280	I was a bit rusty but I didn't want to miss the elections back home.	I was a bit rusty but I didn't want to miss the elections back home.	186007334	1476970203416	1476970203594	 	32
363168	3915280	I was a bit rusty but I didn't want to miss the elections back home.	I was a bit rusty but I didn't want to miss the elections back home.	186007336	1476970203632	1476970203757	d	68
363168	3915280	I was a bit rusty but I didn't want to miss the elections back home.	I was a bit rusty but I didn't want to miss the elections back home.	186007378	1476970203764	1476970203877	i	73
363168	3915280	I was a bit rusty but I didn't want to miss the elections back home.	I was a bit rusty but I didn't want to miss the elections back home.	186007380	1476970203826	1476970203953	d	68
363168	3915280	I was a bit rusty but I didn't want to miss the elections back home.	I was a bit rusty but I didn't want to miss the elections back home.	186007385	1476970204014	1476970204116	n	78
363168	3915280	I was a bit rusty but I didn't want to miss the elections back home.	I was a bit rusty but I didn't want to miss the elections back home.	186007387	1476970204651	1476970204775	'	222
363168	3915280	I was a bit rusty but I didn't want to miss the elections back home.	I was a bit rusty but I didn't want to miss the elections back home.	186007414	1476970204773	1476970204898	t	84
363168	3915280	I was a bit rusty but I didn't want to miss the elections back home.	I was a bit rusty but I didn't want to miss the elections back home.	186007416	1476970204955	1476970205057	 	32
363168	3915280	I was a bit rusty but I didn't want to miss the elections back home.	I was a bit rusty but I didn't want to miss the elections back home.	186007418	1476970205255	1476970205374	w	87
363168	3915280	I was a bit rusty but I didn't want to miss the elections back home.	I was a bit rusty but I didn't want to miss the elections back home.	186007419	1476970205465	1476970205609	a	65
363168	3915280	I was a bit rusty but I didn't want to miss the elections back home.	I was a bit rusty but I didn't want to miss the elections back home.	186007420	1476970205612	1476970205714	n	78
363168	3915280	I was a bit rusty but I didn't want to miss the elections back home.	I was a bit rusty but I didn't want to miss the elections back home.	186007431	1476970205697	1476970205798	t	84
363168	3915280	I was a bit rusty but I didn't want to miss the elections back home.	I was a bit rusty but I didn't want to miss the elections back home.	186007433	1476970205773	1476970205903	 	32
363168	3915280	I was a bit rusty but I didn't want to miss the elections back home.	I was a bit rusty but I didn't want to miss the elections back home.	186007437	1476970205862	1476970205964	t	84
363168	3915280	I was a bit rusty but I didn't want to miss the elections back home.	I was a bit rusty but I didn't want to miss the elections back home.	186007441	1476970205947	1476970206066	o	79
363168	3915280	I was a bit rusty but I didn't want to miss the elections back home.	I was a bit rusty but I didn't want to miss the elections back home.	186007444	1476970206023	1476970206131	 	32
363168	3915280	I was a bit rusty but I didn't want to miss the elections back home.	I was a bit rusty but I didn't want to miss the elections back home.	186007460	1476970206127	1476970206229	m	77
363168	3915280	I was a bit rusty but I didn't want to miss the elections back home.	I was a bit rusty but I didn't want to miss the elections back home.	186007463	1476970206247	1476970206340	i	73
363168	3915280	I was a bit rusty but I didn't want to miss the elections back home.	I was a bit rusty but I didn't want to miss the elections back home.	186007466	1476970206277	1476970206395	s	83
363168	3915280	I was a bit rusty but I didn't want to miss the elections back home.	I was a bit rusty but I didn't want to miss the elections back home.	186007468	1476970206448	1476970206582	s	83
363168	3915280	I was a bit rusty but I didn't want to miss the elections back home.	I was a bit rusty but I didn't want to miss the elections back home.	186007470	1476970206540	1476970206689	 	32
363168	3915280	I was a bit rusty but I didn't want to miss the elections back home.	I was a bit rusty but I didn't want to miss the elections back home.	186007487	1476970206620	1476970206741	t	84
363168	3915280	I was a bit rusty but I didn't want to miss the elections back home.	I was a bit rusty but I didn't want to miss the elections back home.	186007489	1476970206724	1476970206842	h	72
363168	3915280	I was a bit rusty but I didn't want to miss the elections back home.	I was a bit rusty but I didn't want to miss the elections back home.	186007493	1476970206761	1476970206909	e	69
363168	3915280	I was a bit rusty but I didn't want to miss the elections back home.	I was a bit rusty but I didn't want to miss the elections back home.	186007498	1476970206901	1476970207045	 	32
363168	3915280	I was a bit rusty but I didn't want to miss the elections back home.	I was a bit rusty but I didn't want to miss the elections back home.	186007503	1476970206992	1476970207130	e	69
363168	3915280	I was a bit rusty but I didn't want to miss the elections back home.	I was a bit rusty but I didn't want to miss the elections back home.	186007507	1476970207142	1476970207261	l	76
363168	3915280	I was a bit rusty but I didn't want to miss the elections back home.	I was a bit rusty but I didn't want to miss the elections back home.	186007523	1476970207406	1476970207492	c	67
363168	3915280	I was a bit rusty but I didn't want to miss the elections back home.	I was a bit rusty but I didn't want to miss the elections back home.	186007526	1476970207686	1476970207785	BKSP	8
363168	3915280	I was a bit rusty but I didn't want to miss the elections back home.	I was a bit rusty but I didn't want to miss the elections back home.	186007529	1476970207742	1476970207877	e	69
363168	3915280	I was a bit rusty but I didn't want to miss the elections back home.	I was a bit rusty but I didn't want to miss the elections back home.	186007534	1476970207873	1476970207990	c	67
363168	3915280	I was a bit rusty but I didn't want to miss the elections back home.	I was a bit rusty but I didn't want to miss the elections back home.	186007538	1476970208069	1476970208197	t	84
363168	3915280	I was a bit rusty but I didn't want to miss the elections back home.	I was a bit rusty but I didn't want to miss the elections back home.	186007562	1476970208114	1476970208232	i	73
363168	3915280	I was a bit rusty but I didn't want to miss the elections back home.	I was a bit rusty but I didn't want to miss the elections back home.	186007565	1476970208185	1476970208290	o	79
363168	3915280	I was a bit rusty but I didn't want to miss the elections back home.	I was a bit rusty but I didn't want to miss the elections back home.	186007567	1476970208312	1476970208437	n	78
363168	3915280	I was a bit rusty but I didn't want to miss the elections back home.	I was a bit rusty but I didn't want to miss the elections back home.	186007569	1476970208414	1476970208581	s	83
363168	3915280	I was a bit rusty but I didn't want to miss the elections back home.	I was a bit rusty but I didn't want to miss the elections back home.	186007571	1476970208572	1476970208799	 	32
363168	3915280	I was a bit rusty but I didn't want to miss the elections back home.	I was a bit rusty but I didn't want to miss the elections back home.	186007573	1476970208969	1476970209041	b	66
363168	3915280	I was a bit rusty but I didn't want to miss the elections back home.	I was a bit rusty but I didn't want to miss the elections back home.	186007591	1476970209025	1476970209161	a	65
363168	3915280	I was a bit rusty but I didn't want to miss the elections back home.	I was a bit rusty but I didn't want to miss the elections back home.	186007593	1476970209206	1476970209341	c	67
363168	3915280	I was a bit rusty but I didn't want to miss the elections back home.	I was a bit rusty but I didn't want to miss the elections back home.	186007595	1476970209347	1476970209448	k	75
363168	3915280	I was a bit rusty but I didn't want to miss the elections back home.	I was a bit rusty but I didn't want to miss the elections back home.	186007596	1476970209402	1476970209592	 	32
363168	3915280	I was a bit rusty but I didn't want to miss the elections back home.	I was a bit rusty but I didn't want to miss the elections back home.	186007597	1476970209801	1476970209900	h	72
363168	3915280	I was a bit rusty but I didn't want to miss the elections back home.	I was a bit rusty but I didn't want to miss the elections back home.	186007603	1476970209894	1476970210012	o	79
363168	3915280	I was a bit rusty but I didn't want to miss the elections back home.	I was a bit rusty but I didn't want to miss the elections back home.	186007604	1476970209959	1476970210080	m	77
363168	3915280	I was a bit rusty but I didn't want to miss the elections back home.	I was a bit rusty but I didn't want to miss the elections back home.	186007605	1476970210057	1476970210164	e	69
363168	3915298	I have been in contact with him, and he is familiar with the issues.	I have been in contact with him, and he is familiar with the issues.	186008045	1476970219689	1476970219826	SHIFT	16
363168	3915298	I have been in contact with him, and he is familiar with the issues.	I have been in contact with him, and he is familiar with the issues.	186008046	1476970219768	1476970219878	I	73
363168	3915298	I have been in contact with him, and he is familiar with the issues.	I have been in contact with him, and he is familiar with the issues.	186008047	1476970219842	1476970219967	 	32
363168	3915298	I have been in contact with him, and he is familiar with the issues.	I have been in contact with him, and he is familiar with the issues.	186008048	1476970219986	1476970220110	h	72
363168	3915298	I have been in contact with him, and he is familiar with the issues.	I have been in contact with him, and he is familiar with the issues.	186008049	1476970220018	1476970220140	a	65
363168	3915298	I have been in contact with him, and he is familiar with the issues.	I have been in contact with him, and he is familiar with the issues.	186008069	1476970220136	1476970220270	v	86
363168	3915298	I have been in contact with him, and he is familiar with the issues.	I have been in contact with him, and he is familiar with the issues.	186008072	1476970220188	1476970220326	e	69
363168	3915298	I have been in contact with him, and he is familiar with the issues.	I have been in contact with him, and he is familiar with the issues.	186008077	1476970220302	1476970220466	 	32
363168	3915298	I have been in contact with him, and he is familiar with the issues.	I have been in contact with him, and he is familiar with the issues.	186008083	1476970220452	1476970220551	b	66
363168	3915298	I have been in contact with him, and he is familiar with the issues.	I have been in contact with him, and he is familiar with the issues.	186008086	1476970220603	1476970220707	e	69
363168	3915298	I have been in contact with him, and he is familiar with the issues.	I have been in contact with him, and he is familiar with the issues.	186008089	1476970220772	1476970220883	e	69
363168	3915298	I have been in contact with him, and he is familiar with the issues.	I have been in contact with him, and he is familiar with the issues.	186008106	1476970220865	1476970220978	n	78
363168	3915298	I have been in contact with him, and he is familiar with the issues.	I have been in contact with him, and he is familiar with the issues.	186008109	1476970220949	1476970221089	 	32
363168	3915298	I have been in contact with him, and he is familiar with the issues.	I have been in contact with him, and he is familiar with the issues.	186008113	1476970221062	1476970221206	i	73
363168	3915298	I have been in contact with him, and he is familiar with the issues.	I have been in contact with him, and he is familiar with the issues.	186008116	1476970221160	1476970221337	n	78
363168	3915298	I have been in contact with him, and he is familiar with the issues.	I have been in contact with him, and he is familiar with the issues.	186008121	1476970221304	1476970221458	 	32
363168	3915298	I have been in contact with him, and he is familiar with the issues.	I have been in contact with him, and he is familiar with the issues.	186008125	1476970221529	1476970221657	c	67
363168	3915298	I have been in contact with him, and he is familiar with the issues.	I have been in contact with him, and he is familiar with the issues.	186008144	1476970221646	1476970221753	o	79
363168	3915298	I have been in contact with him, and he is familiar with the issues.	I have been in contact with him, and he is familiar with the issues.	186008145	1476970221750	1476970221891	n	78
363168	3915298	I have been in contact with him, and he is familiar with the issues.	I have been in contact with him, and he is familiar with the issues.	186008147	1476970221872	1476970221993	t	84
363168	3915298	I have been in contact with him, and he is familiar with the issues.	I have been in contact with him, and he is familiar with the issues.	186008149	1476970221999	1476970222140	a	65
363168	3915298	I have been in contact with him, and he is familiar with the issues.	I have been in contact with him, and he is familiar with the issues.	186008151	1476970222211	1476970222286	c	67
363168	3915298	I have been in contact with him, and he is familiar with the issues.	I have been in contact with him, and he is familiar with the issues.	186008155	1476970222412	1476970222507	t	84
363168	3915298	I have been in contact with him, and he is familiar with the issues.	I have been in contact with him, and he is familiar with the issues.	186008161	1476970222516	1476970222668	 	32
363168	3915298	I have been in contact with him, and he is familiar with the issues.	I have been in contact with him, and he is familiar with the issues.	186008166	1476970222664	1476970222775	w	87
363168	3915298	I have been in contact with him, and he is familiar with the issues.	I have been in contact with him, and he is familiar with the issues.	186008170	1476970222736	1476970222869	i	73
363168	3915298	I have been in contact with him, and he is familiar with the issues.	I have been in contact with him, and he is familiar with the issues.	186008176	1476970222938	1476970223055	t	84
363168	3915298	I have been in contact with him, and he is familiar with the issues.	I have been in contact with him, and he is familiar with the issues.	186008212	1476970222993	1476970223124	h	72
363168	3915298	I have been in contact with him, and he is familiar with the issues.	I have been in contact with him, and he is familiar with the issues.	186008214	1476970223084	1476970223267	 	32
363168	3915298	I have been in contact with him, and he is familiar with the issues.	I have been in contact with him, and he is familiar with the issues.	186008216	1476970223346	1476970223479	t	84
363168	3915298	I have been in contact with him, and he is familiar with the issues.	I have been in contact with him, and he is familiar with the issues.	186008218	1476970223422	1476970223521	h	72
363168	3915298	I have been in contact with him, and he is familiar with the issues.	I have been in contact with him, and he is familiar with the issues.	186008220	1476970223505	1476970223593	i	73
363168	3915298	I have been in contact with him, and he is familiar with the issues.	I have been in contact with him, and he is familiar with the issues.	186008222	1476970223701	1476970223760	BKSP	8
363168	3915298	I have been in contact with him, and he is familiar with the issues.	I have been in contact with him, and he is familiar with the issues.	186008224	1476970223808	1476970223904	BKSP	8
363168	3915298	I have been in contact with him, and he is familiar with the issues.	I have been in contact with him, and he is familiar with the issues.	186008228	1476970223992	1476970224110	h	72
363168	3915298	I have been in contact with him, and he is familiar with the issues.	I have been in contact with him, and he is familiar with the issues.	186008254	1476970224256	1476970224338	BKSP	8
363168	3915298	I have been in contact with him, and he is familiar with the issues.	I have been in contact with him, and he is familiar with the issues.	186008257	1476970224387	1476970224494	BKSP	8
363168	3915298	I have been in contact with him, and he is familiar with the issues.	I have been in contact with him, and he is familiar with the issues.	186008260	1476970224550	1476970224664	h	72
363168	3915298	I have been in contact with him, and he is familiar with the issues.	I have been in contact with him, and he is familiar with the issues.	186008261	1476970224651	1476970224808	i	73
363168	3915298	I have been in contact with him, and he is familiar with the issues.	I have been in contact with him, and he is familiar with the issues.	186008262	1476970224771	1476970224870	m	77
363168	3915298	I have been in contact with him, and he is familiar with the issues.	I have been in contact with him, and he is familiar with the issues.	186008263	1476970224999	1476970225107	,	188
363168	3915298	I have been in contact with him, and he is familiar with the issues.	I have been in contact with him, and he is familiar with the issues.	186008270	1476970225072	1476970225217	 	32
363168	3915298	I have been in contact with him, and he is familiar with the issues.	I have been in contact with him, and he is familiar with the issues.	186008271	1476970225207	1476970225326	a	65
363168	3915298	I have been in contact with him, and he is familiar with the issues.	I have been in contact with him, and he is familiar with the issues.	186008273	1476970225303	1476970225417	n	78
363168	3915298	I have been in contact with him, and he is familiar with the issues.	I have been in contact with him, and he is familiar with the issues.	186008275	1476970225370	1476970225518	d	68
363168	3915298	I have been in contact with him, and he is familiar with the issues.	I have been in contact with him, and he is familiar with the issues.	186008278	1476970225455	1476970225596	 	32
363168	3915298	I have been in contact with him, and he is familiar with the issues.	I have been in contact with him, and he is familiar with the issues.	186008281	1476970225655	1476970225740	h	72
363168	3915298	I have been in contact with him, and he is familiar with the issues.	I have been in contact with him, and he is familiar with the issues.	186008307	1476970225726	1476970225865	e	69
363168	3915298	I have been in contact with him, and he is familiar with the issues.	I have been in contact with him, and he is familiar with the issues.	186008312	1476970225861	1476970225974	 	32
363168	3915298	I have been in contact with him, and he is familiar with the issues.	I have been in contact with him, and he is familiar with the issues.	186008316	1476970225964	1476970226059	i	73
363168	3915298	I have been in contact with him, and he is familiar with the issues.	I have been in contact with him, and he is familiar with the issues.	186008320	1476970226035	1476970226173	s	83
363168	3915298	I have been in contact with him, and he is familiar with the issues.	I have been in contact with him, and he is familiar with the issues.	186008322	1476970226153	1476970226295	 	32
363168	3915298	I have been in contact with him, and he is familiar with the issues.	I have been in contact with him, and he is familiar with the issues.	186008324	1476970226320	1476970226457	f	70
363168	3915298	I have been in contact with him, and he is familiar with the issues.	I have been in contact with him, and he is familiar with the issues.	186008359	1476970226408	1476970226548	a	65
363168	3915298	I have been in contact with him, and he is familiar with the issues.	I have been in contact with him, and he is familiar with the issues.	186008362	1476970226523	1476970226621	n	78
363168	3915298	I have been in contact with him, and he is familiar with the issues.	I have been in contact with him, and he is familiar with the issues.	186008363	1476970226839	1476970226917	BKSP	8
363168	3915298	I have been in contact with him, and he is familiar with the issues.	I have been in contact with him, and he is familiar with the issues.	186008365	1476970226966	1476970227071	m	77
363168	3915298	I have been in contact with him, and he is familiar with the issues.	I have been in contact with him, and he is familiar with the issues.	186008367	1476970227113	1476970227224	i	73
363168	3915298	I have been in contact with him, and he is familiar with the issues.	I have been in contact with him, and he is familiar with the issues.	186008368	1476970227292	1476970227374	l	76
363168	3915298	I have been in contact with him, and he is familiar with the issues.	I have been in contact with him, and he is familiar with the issues.	186008369	1476970227442	1476970227586	i	73
363168	3915298	I have been in contact with him, and he is familiar with the issues.	I have been in contact with him, and he is familiar with the issues.	186008408	1476970227569	1476970227726	a	65
363168	3915298	I have been in contact with him, and he is familiar with the issues.	I have been in contact with him, and he is familiar with the issues.	186008410	1476970227716	1476970227846	r	82
363168	3915298	I have been in contact with him, and he is familiar with the issues.	I have been in contact with him, and he is familiar with the issues.	186008411	1476970227830	1476970228030	 	32
363168	3915298	I have been in contact with him, and he is familiar with the issues.	I have been in contact with him, and he is familiar with the issues.	186008414	1476970228039	1476970228167	w	87
363168	3915298	I have been in contact with him, and he is familiar with the issues.	I have been in contact with him, and he is familiar with the issues.	186008416	1476970228284	1476970228420	i	73
363168	3915298	I have been in contact with him, and he is familiar with the issues.	I have been in contact with him, and he is familiar with the issues.	186008418	1476970228469	1476970228593	t	84
363168	3915298	I have been in contact with him, and he is familiar with the issues.	I have been in contact with him, and he is familiar with the issues.	186008428	1476970228551	1476970228684	h	72
363168	3915298	I have been in contact with him, and he is familiar with the issues.	I have been in contact with him, and he is familiar with the issues.	186008429	1476970228665	1476970228851	 	32
363168	3915298	I have been in contact with him, and he is familiar with the issues.	I have been in contact with him, and he is familiar with the issues.	186008431	1476970228788	1476970228913	t	84
363168	3915298	I have been in contact with him, and he is familiar with the issues.	I have been in contact with him, and he is familiar with the issues.	186008435	1476970228879	1476970228996	h	72
363168	3915298	I have been in contact with him, and he is familiar with the issues.	I have been in contact with him, and he is familiar with the issues.	186008437	1476970228987	1476970229112	e	69
363168	3915298	I have been in contact with him, and he is familiar with the issues.	I have been in contact with him, and he is familiar with the issues.	186008481	1476970229082	1476970229223	 	32
363168	3915298	I have been in contact with him, and he is familiar with the issues.	I have been in contact with him, and he is familiar with the issues.	186008486	1476970229511	1476970229626	i	73
363168	3915298	I have been in contact with him, and he is familiar with the issues.	I have been in contact with him, and he is familiar with the issues.	186008490	1476970229618	1476970229690	s	83
363168	3915298	I have been in contact with him, and he is familiar with the issues.	I have been in contact with him, and he is familiar with the issues.	186008494	1476970229761	1476970229867	s	83
363168	3915298	I have been in contact with him, and he is familiar with the issues.	I have been in contact with him, and he is familiar with the issues.	186008498	1476970229906	1476970229994	u	85
363168	3915298	I have been in contact with him, and he is familiar with the issues.	I have been in contact with him, and he is familiar with the issues.	186008499	1476970230093	1476970230292	e	69
363168	3915298	I have been in contact with him, and he is familiar with the issues.	I have been in contact with him, and he is familiar with the issues.	186008496	1476970230217	1476970230371	s	83
363168	3915308	Hey TK, how are you doing?	Hey TK, how are you doing?	186008634	1476970232831	1476970232985	SHIFT	16
363168	3915308	Hey TK, how are you doing?	Hey TK, how are you doing?	186008637	1476970232981	1476970233066	H	72
363168	3915308	Hey TK, how are you doing?	Hey TK, how are you doing?	186008640	1476970233061	1476970233182	w	87
363168	3915308	Hey TK, how are you doing?	Hey TK, how are you doing?	186008643	1476970233466	1476970233565	BKSP	8
363168	3915308	Hey TK, how are you doing?	Hey TK, how are you doing?	186008645	1476970233587	1476970233715	e	69
363168	3915308	Hey TK, how are you doing?	Hey TK, how are you doing?	186008647	1476970233753	1476970233855	y	89
363168	3915308	Hey TK, how are you doing?	Hey TK, how are you doing?	186008649	1476970234177	1476970234277	,	188
363168	3915308	Hey TK, how are you doing?	Hey TK, how are you doing?	186008669	1476970234418	1476970234502	BKSP	8
363168	3915308	Hey TK, how are you doing?	Hey TK, how are you doing?	186008672	1476970234525	1476970234720	 	32
363168	3915308	Hey TK, how are you doing?	Hey TK, how are you doing?	186008684	1476970234626	1476970235253	SHIFT	16
363168	3915308	Hey TK, how are you doing?	Hey TK, how are you doing?	186008676	1476970234976	1476970235067	T	84
363168	3915308	Hey TK, how are you doing?	Hey TK, how are you doing?	186008680	1476970235079	1476970235197	K	75
363168	3915308	Hey TK, how are you doing?	Hey TK, how are you doing?	186008688	1476970235409	1476970235506	,	188
363168	3915308	Hey TK, how are you doing?	Hey TK, how are you doing?	186008710	1476970235471	1476970235621	 	32
363168	3915308	Hey TK, how are you doing?	Hey TK, how are you doing?	186008714	1476970235762	1476970235854	h	72
363168	3915308	Hey TK, how are you doing?	Hey TK, how are you doing?	186008720	1476970235936	1476970236031	o	79
363168	3915308	Hey TK, how are you doing?	Hey TK, how are you doing?	186008725	1476970236028	1476970236161	w	87
363168	3915308	Hey TK, how are you doing?	Hey TK, how are you doing?	186008729	1476970236410	1476970236590	 	32
363168	3915308	Hey TK, how are you doing?	Hey TK, how are you doing?	186008734	1476970236554	1476970236687	a	65
363168	3915308	Hey TK, how are you doing?	Hey TK, how are you doing?	186008735	1476970236674	1476970236811	r	82
363168	3915308	Hey TK, how are you doing?	Hey TK, how are you doing?	186008737	1476970236729	1476970236873	e	69
363168	3915308	Hey TK, how are you doing?	Hey TK, how are you doing?	186008739	1476970236808	1476970237000	 	32
363168	3915308	Hey TK, how are you doing?	Hey TK, how are you doing?	186008741	1476970237016	1476970237101	y	89
363168	3915308	Hey TK, how are you doing?	Hey TK, how are you doing?	186008776	1476970237065	1476970237196	o	79
363168	3915308	Hey TK, how are you doing?	Hey TK, how are you doing?	186008778	1476970237150	1476970237241	u	85
363168	3915308	Hey TK, how are you doing?	Hey TK, how are you doing?	186008784	1476970237200	1476970237356	 	32
363168	3915308	Hey TK, how are you doing?	Hey TK, how are you doing?	186008790	1476970237301	1476970237438	d	68
363168	3915308	Hey TK, how are you doing?	Hey TK, how are you doing?	186008792	1476970237590	1476970237695	o	79
363168	3915308	Hey TK, how are you doing?	Hey TK, how are you doing?	186008799	1476970237753	1476970237848	i	73
363168	3915308	Hey TK, how are you doing?	Hey TK, how are you doing?	186008822	1476970237867	1476970237986	n	78
363168	3915308	Hey TK, how are you doing?	Hey TK, how are you doing?	186008823	1476970237982	1476970238109	g	71
363168	3915308	Hey TK, how are you doing?	Hey TK, how are you doing?	186008826	1476970238257	1476970238541	SHIFT	16
363168	3915308	Hey TK, how are you doing?	Hey TK, how are you doing?	186008824	1476970238417	1476970238493	?	191
363168	3915313	Watch for more details, coming soon.	Watch for more details, coming soon.	186009014	1476970240238	1476970240353	SHIFT	16
363168	3915313	Watch for more details, coming soon.	Watch for more details, coming soon.	186009018	1476970240442	1476970240566	w	87
363168	3915313	Watch for more details, coming soon.	Watch for more details, coming soon.	186009026	1476970240795	1476970241029	SHIFT	16
363168	3915313	Watch for more details, coming soon.	Watch for more details, coming soon.	186009022	1476970240807	1476970240922	BKSP	8
363168	3915313	Watch for more details, coming soon.	Watch for more details, coming soon.	186009030	1476970240928	1476970241088	W	87
363168	3915313	Watch for more details, coming soon.	Watch for more details, coming soon.	186009035	1476970241127	1476970241274	a	65
363168	3915313	Watch for more details, coming soon.	Watch for more details, coming soon.	186009042	1476970241351	1476970241463	t	84
363168	3915313	Watch for more details, coming soon.	Watch for more details, coming soon.	186009047	1476970242054	1476970242175	c	67
363168	3915313	Watch for more details, coming soon.	Watch for more details, coming soon.	186009038	1476970242165	1476970242283	h	72
363168	3915313	Watch for more details, coming soon.	Watch for more details, coming soon.	186009044	1476970242220	1476970242394	 	32
363168	3915313	Watch for more details, coming soon.	Watch for more details, coming soon.	186009046	1476970242361	1476970242478	f	70
363168	3915313	Watch for more details, coming soon.	Watch for more details, coming soon.	186009049	1476970242465	1476970242605	o	79
363168	3915313	Watch for more details, coming soon.	Watch for more details, coming soon.	186009051	1476970242574	1476970242684	r	82
363168	3915313	Watch for more details, coming soon.	Watch for more details, coming soon.	186009074	1476970242642	1476970242808	 	32
363168	3915313	Watch for more details, coming soon.	Watch for more details, coming soon.	186009076	1476970242756	1476970242847	t	84
363168	3915313	Watch for more details, coming soon.	Watch for more details, coming soon.	186009077	1476970243021	1476970243106	BKSP	8
363168	3915313	Watch for more details, coming soon.	Watch for more details, coming soon.	186009078	1476970243148	1476970243256	m	77
363168	3915313	Watch for more details, coming soon.	Watch for more details, coming soon.	186009080	1476970243268	1476970243364	o	79
363168	3915313	Watch for more details, coming soon.	Watch for more details, coming soon.	186009082	1476970243379	1476970243549	r	82
363168	3915313	Watch for more details, coming soon.	Watch for more details, coming soon.	186009115	1476970243438	1476970243576	e	69
363168	3915313	Watch for more details, coming soon.	Watch for more details, coming soon.	186009121	1476970243543	1476970243700	 	32
363168	3915313	Watch for more details, coming soon.	Watch for more details, coming soon.	186009126	1476970243667	1476970243752	d	68
363168	3915313	Watch for more details, coming soon.	Watch for more details, coming soon.	186009132	1476970243808	1476970243942	e	69
363168	3915313	Watch for more details, coming soon.	Watch for more details, coming soon.	186009135	1476970243928	1476970244059	t	84
363168	3915313	Watch for more details, coming soon.	Watch for more details, coming soon.	186009138	1476970244032	1476970244170	a	65
363168	3915313	Watch for more details, coming soon.	Watch for more details, coming soon.	186009141	1476970244283	1476970244398	i	73
363168	3915313	Watch for more details, coming soon.	Watch for more details, coming soon.	186009172	1476970244486	1476970244564	l	76
363168	3915313	Watch for more details, coming soon.	Watch for more details, coming soon.	186009174	1476970244764	1476970244892	,	188
363168	3915313	Watch for more details, coming soon.	Watch for more details, coming soon.	186009176	1476970244846	1476970244954	 	32
363168	3915313	Watch for more details, coming soon.	Watch for more details, coming soon.	186009179	1476970245107	1476970245199	BKSP	8
363168	3915313	Watch for more details, coming soon.	Watch for more details, coming soon.	186009182	1476970245388	1476970245522	BKSP	8
363168	3915313	Watch for more details, coming soon.	Watch for more details, coming soon.	186009185	1476970245514	1476970245649	s	83
363168	3915313	Watch for more details, coming soon.	Watch for more details, coming soon.	186009206	1476970245645	1476970245743	,	188
363168	3915313	Watch for more details, coming soon.	Watch for more details, coming soon.	186009209	1476970245693	1476970245821	 	32
363168	3915313	Watch for more details, coming soon.	Watch for more details, coming soon.	186009212	1476970246051	1476970246206	 	32
363168	3915313	Watch for more details, coming soon.	Watch for more details, coming soon.	186009216	1476970246346	1476970246438	BKSP	8
363168	3915313	Watch for more details, coming soon.	Watch for more details, coming soon.	186009220	1476970246466	1476970246601	c	67
363168	3915313	Watch for more details, coming soon.	Watch for more details, coming soon.	186009223	1476970246564	1476970246682	o	79
363168	3915313	Watch for more details, coming soon.	Watch for more details, coming soon.	186009237	1476970246626	1476970246770	m	77
363168	3915313	Watch for more details, coming soon.	Watch for more details, coming soon.	186009239	1476970246819	1476970246901	i	73
363168	3915313	Watch for more details, coming soon.	Watch for more details, coming soon.	186009241	1476970246867	1476970247006	n	78
363168	3915313	Watch for more details, coming soon.	Watch for more details, coming soon.	186009243	1476970246969	1476970247077	g	71
363168	3915313	Watch for more details, coming soon.	Watch for more details, coming soon.	186009245	1476970247051	1476970247234	 	32
363168	3915313	Watch for more details, coming soon.	Watch for more details, coming soon.	186009256	1476970247162	1476970247309	s	83
363168	3915313	Watch for more details, coming soon.	Watch for more details, coming soon.	186009257	1476970247296	1476970247371	o	79
363168	3915313	Watch for more details, coming soon.	Watch for more details, coming soon.	186009258	1476970247436	1476970247540	o	79
363168	3915313	Watch for more details, coming soon.	Watch for more details, coming soon.	186009259	1476970247586	1476970247681	n	78
363168	3915322	Police and the alleged bank robbers exchanged fire.	Police and the alleged bank robbers exchanged fire.	186009437	1476970249256	1476970249519	SHIFT	16
363168	3915322	Police and the alleged bank robbers exchanged fire.	Police and the alleged bank robbers exchanged fire.	186009439	1476970249432	1476970249548	P	80
363168	3915322	Police and the alleged bank robbers exchanged fire.	Police and the alleged bank robbers exchanged fire.	186009442	1476970249620	1476970249757	i	73
363168	3915322	Police and the alleged bank robbers exchanged fire.	Police and the alleged bank robbers exchanged fire.	186009445	1476970249854	1476970249971	l	76
363168	3915322	Police and the alleged bank robbers exchanged fire.	Police and the alleged bank robbers exchanged fire.	186009447	1476970250080	1476970250184	i	73
363168	3915322	Police and the alleged bank robbers exchanged fire.	Police and the alleged bank robbers exchanged fire.	186009449	1476970250361	1476970250427	BKSP	8
363168	3915322	Police and the alleged bank robbers exchanged fire.	Police and the alleged bank robbers exchanged fire.	186009452	1476970250482	1476970250571	BKSP	8
363168	3915322	Police and the alleged bank robbers exchanged fire.	Police and the alleged bank robbers exchanged fire.	186009455	1476970250625	1476970250727	BKSP	8
363168	3915322	Police and the alleged bank robbers exchanged fire.	Police and the alleged bank robbers exchanged fire.	186009457	1476970250805	1476970250910	o	79
363168	3915322	Police and the alleged bank robbers exchanged fire.	Police and the alleged bank robbers exchanged fire.	186009450	1476970250978	1476970251073	l	76
363168	3915322	Police and the alleged bank robbers exchanged fire.	Police and the alleged bank robbers exchanged fire.	186009453	1476970251180	1476970251286	i	73
363168	3915322	Police and the alleged bank robbers exchanged fire.	Police and the alleged bank robbers exchanged fire.	186009454	1476970251318	1476970251472	c	67
363168	3915322	Police and the alleged bank robbers exchanged fire.	Police and the alleged bank robbers exchanged fire.	186009456	1476970251373	1476970251542	e	69
363168	3915322	Police and the alleged bank robbers exchanged fire.	Police and the alleged bank robbers exchanged fire.	186009482	1476970251539	1476970251677	 	32
363168	3915322	Police and the alleged bank robbers exchanged fire.	Police and the alleged bank robbers exchanged fire.	186009485	1476970251755	1476970251860	a	65
363168	3915322	Police and the alleged bank robbers exchanged fire.	Police and the alleged bank robbers exchanged fire.	186009488	1476970251993	1476970252133	n	78
363168	3915322	Police and the alleged bank robbers exchanged fire.	Police and the alleged bank robbers exchanged fire.	186009490	1476970252104	1476970252228	d	68
363168	3915322	Police and the alleged bank robbers exchanged fire.	Police and the alleged bank robbers exchanged fire.	186009492	1476970252205	1476970252356	 	32
363168	3915322	Police and the alleged bank robbers exchanged fire.	Police and the alleged bank robbers exchanged fire.	186009508	1476970252349	1476970252463	t	84
363168	3915322	Police and the alleged bank robbers exchanged fire.	Police and the alleged bank robbers exchanged fire.	186009511	1476970252403	1476970252521	h	72
363168	3915322	Police and the alleged bank robbers exchanged fire.	Police and the alleged bank robbers exchanged fire.	186009515	1476970252505	1476970252649	e	69
363168	3915322	Police and the alleged bank robbers exchanged fire.	Police and the alleged bank robbers exchanged fire.	186009518	1476970252602	1476970252731	 	32
363168	3915322	Police and the alleged bank robbers exchanged fire.	Police and the alleged bank robbers exchanged fire.	186009520	1476970252718	1476970252854	a	65
363168	3915322	Police and the alleged bank robbers exchanged fire.	Police and the alleged bank robbers exchanged fire.	186009522	1476970252944	1476970253039	l	76
363168	3915322	Police and the alleged bank robbers exchanged fire.	Police and the alleged bank robbers exchanged fire.	186009553	1476970253097	1476970253228	l	76
363168	3915322	Police and the alleged bank robbers exchanged fire.	Police and the alleged bank robbers exchanged fire.	186009558	1476970253175	1476970253303	e	69
363168	3915322	Police and the alleged bank robbers exchanged fire.	Police and the alleged bank robbers exchanged fire.	186009563	1476970253371	1476970253511	g	71
363168	3915322	Police and the alleged bank robbers exchanged fire.	Police and the alleged bank robbers exchanged fire.	186009567	1476970253508	1476970253606	e	69
363168	3915322	Police and the alleged bank robbers exchanged fire.	Police and the alleged bank robbers exchanged fire.	186009573	1476970253665	1476970253766	d	68
363168	3915322	Police and the alleged bank robbers exchanged fire.	Police and the alleged bank robbers exchanged fire.	186009595	1476970253795	1476970253952	 	32
363168	3915322	Police and the alleged bank robbers exchanged fire.	Police and the alleged bank robbers exchanged fire.	186009598	1476970253929	1476970254017	b	66
363168	3915322	Police and the alleged bank robbers exchanged fire.	Police and the alleged bank robbers exchanged fire.	186009603	1476970254082	1476970254203	a	65
363168	3915322	Police and the alleged bank robbers exchanged fire.	Police and the alleged bank robbers exchanged fire.	186009608	1476970254198	1476970254298	n	78
363168	3915322	Police and the alleged bank robbers exchanged fire.	Police and the alleged bank robbers exchanged fire.	186009613	1476970254328	1476970254461	k	75
363168	3915322	Police and the alleged bank robbers exchanged fire.	Police and the alleged bank robbers exchanged fire.	186009665	1476970254500	1476970254647	 	32
363168	3915322	Police and the alleged bank robbers exchanged fire.	Police and the alleged bank robbers exchanged fire.	186009667	1476970254856	1476970254924	r	82
363168	3915322	Police and the alleged bank robbers exchanged fire.	Police and the alleged bank robbers exchanged fire.	186009671	1476970255278	1476970255382	BKSP	8
363168	3915322	Police and the alleged bank robbers exchanged fire.	Police and the alleged bank robbers exchanged fire.	186009674	1476970255519	1476970255625	r	82
363168	3915322	Police and the alleged bank robbers exchanged fire.	Police and the alleged bank robbers exchanged fire.	186009676	1476970255586	1476970255714	o	79
363168	3915322	Police and the alleged bank robbers exchanged fire.	Police and the alleged bank robbers exchanged fire.	186009679	1476970255772	1476970255854	b	66
363168	3915322	Police and the alleged bank robbers exchanged fire.	Police and the alleged bank robbers exchanged fire.	186009707	1476970255940	1476970256073	b	66
363168	3915322	Police and the alleged bank robbers exchanged fire.	Police and the alleged bank robbers exchanged fire.	186009710	1476970256225	1476970256376	e	69
363168	3915322	Police and the alleged bank robbers exchanged fire.	Police and the alleged bank robbers exchanged fire.	186009714	1476970256330	1476970256487	r	82
363168	3915322	Police and the alleged bank robbers exchanged fire.	Police and the alleged bank robbers exchanged fire.	186009719	1476970256437	1476970256565	s	83
363168	3915322	Police and the alleged bank robbers exchanged fire.	Police and the alleged bank robbers exchanged fire.	186009723	1476970256578	1476970256712	 	32
363168	3915322	Police and the alleged bank robbers exchanged fire.	Police and the alleged bank robbers exchanged fire.	186009799	1476970256910	1476970257008	e	69
363168	3915322	Police and the alleged bank robbers exchanged fire.	Police and the alleged bank robbers exchanged fire.	186009801	1476970257108	1476970257244	x	88
363168	3915322	Police and the alleged bank robbers exchanged fire.	Police and the alleged bank robbers exchanged fire.	186009804	1476970257606	1476970257735	h	72
363168	3915322	Police and the alleged bank robbers exchanged fire.	Police and the alleged bank robbers exchanged fire.	186009807	1476970258693	1476970258814	BKSP	8
363168	3915322	Police and the alleged bank robbers exchanged fire.	Police and the alleged bank robbers exchanged fire.	186009810	1476970258805	1476970258947	c	67
363168	3915322	Police and the alleged bank robbers exchanged fire.	Police and the alleged bank robbers exchanged fire.	186009844	1476970258915	1476970259026	h	72
363168	3915322	Police and the alleged bank robbers exchanged fire.	Police and the alleged bank robbers exchanged fire.	186009847	1476970259045	1476970259176	a	65
363168	3915322	Police and the alleged bank robbers exchanged fire.	Police and the alleged bank robbers exchanged fire.	186009849	1476970259189	1476970259314	n	78
363168	3915322	Police and the alleged bank robbers exchanged fire.	Police and the alleged bank robbers exchanged fire.	186009851	1476970259264	1476970259323	d	68
363168	3915322	Police and the alleged bank robbers exchanged fire.	Police and the alleged bank robbers exchanged fire.	186009853	1476970259519	1476970259609	BKSP	8
363168	3915322	Police and the alleged bank robbers exchanged fire.	Police and the alleged bank robbers exchanged fire.	186009854	1476970259604	1476970259681	g	71
363168	3915322	Police and the alleged bank robbers exchanged fire.	Police and the alleged bank robbers exchanged fire.	186009855	1476970259851	1476970259994	e	69
363168	3915322	Police and the alleged bank robbers exchanged fire.	Police and the alleged bank robbers exchanged fire.	186009867	1476970260065	1476970260182	d	68
363168	3915322	Police and the alleged bank robbers exchanged fire.	Police and the alleged bank robbers exchanged fire.	186009868	1476970260216	1476970260367	 	32
363168	3915322	Police and the alleged bank robbers exchanged fire.	Police and the alleged bank robbers exchanged fire.	186009869	1476970260362	1476970260482	f	70
363168	3915322	Police and the alleged bank robbers exchanged fire.	Police and the alleged bank robbers exchanged fire.	186009870	1476970260461	1476970260567	i	73
363168	3915322	Police and the alleged bank robbers exchanged fire.	Police and the alleged bank robbers exchanged fire.	186009871	1476970260617	1476970260746	r	82
363168	3915322	Police and the alleged bank robbers exchanged fire.	Police and the alleged bank robbers exchanged fire.	186009872	1476970260687	1476970260814	e	69
363168	3915322	Police and the alleged bank robbers exchanged fire.	Police and the alleged bank robbers exchanged fire.	186009874	1476970260795	1476970260922	.	190
363168	3915335	I think that will help.	I think that will help.	186009938	1476970262426	1476970262700	SHIFT	16
363168	3915335	I think that will help.	I think that will help.	186009939	1476970262658	1476970262772	I	73
363168	3915335	I think that will help.	I think that will help.	186009941	1476970262742	1476970262909	 	32
363168	3915335	I think that will help.	I think that will help.	186009943	1476970262899	1476970262987	t	84
363168	3915335	I think that will help.	I think that will help.	186009945	1476970262934	1476970263056	h	72
363168	3915335	I think that will help.	I think that will help.	186009960	1476970263025	1476970263121	i	73
363168	3915335	I think that will help.	I think that will help.	186009962	1476970263118	1476970263238	n	78
363168	3915335	I think that will help.	I think that will help.	186009965	1476970263195	1476970263346	k	75
363168	3915335	I think that will help.	I think that will help.	186009967	1476970263287	1476970263486	 	32
363168	3915335	I think that will help.	I think that will help.	186009969	1476970263463	1476970263597	t	84
363168	3915335	I think that will help.	I think that will help.	186009977	1476970263548	1476970263709	h	72
363168	3915335	I think that will help.	I think that will help.	186009979	1476970263655	1476970263832	a	65
363168	3915335	I think that will help.	I think that will help.	186009981	1476970263756	1476970263895	t	84
363168	3915335	I think that will help.	I think that will help.	186009983	1476970263817	1476970263999	 	32
363168	3915335	I think that will help.	I think that will help.	186009985	1476970264027	1476970264156	w	87
363168	3915335	I think that will help.	I think that will help.	186009991	1476970264142	1476970264247	i	73
363168	3915335	I think that will help.	I think that will help.	186009992	1476970264308	1476970264390	l	76
363168	3915335	I think that will help.	I think that will help.	186009993	1476970264442	1476970264530	l	76
363168	3915335	I think that will help.	I think that will help.	186009995	1476970264488	1476970264629	 	32
363168	3915335	I think that will help.	I think that will help.	186009997	1476970264626	1476970264749	h	72
363168	3915335	I think that will help.	I think that will help.	186010021	1476970264719	1476970264886	e	69
363168	3915335	I think that will help.	I think that will help.	186010024	1476970264849	1476970264948	l	76
363168	3915335	I think that will help.	I think that will help.	186010026	1476970264987	1476970265124	p	80
363168	3915341	It's all about making the whole story public.	It's all about making the whole story public.	186010140	1476970266729	1476970266874	SHIFT	16
363168	3915341	It's all about making the whole story public.	It's all about making the whole story public.	186010141	1476970266845	1476970266966	I	73
363168	3915341	It's all about making the whole story public.	It's all about making the whole story public.	186010142	1476970266949	1476970267002	 	32
363168	3915341	It's all about making the whole story public.	It's all about making the whole story public.	186010143	1476970267261	1476970267395	BKSP	8
363168	3915341	It's all about making the whole story public.	It's all about making the whole story public.	186010145	1476970267408	1476970267539	t	84
363168	3915341	It's all about making the whole story public.	It's all about making the whole story public.	186010147	1476970267804	1476970267897	'	222
363168	3915341	It's all about making the whole story public.	It's all about making the whole story public.	186010149	1476970267932	1476970268094	s	83
363168	3915341	It's all about making the whole story public.	It's all about making the whole story public.	186010170	1476970268086	1476970268233	 	32
363168	3915341	It's all about making the whole story public.	It's all about making the whole story public.	186010173	1476970268249	1476970268376	a	65
363168	3915341	It's all about making the whole story public.	It's all about making the whole story public.	186010177	1476970268372	1476970268455	l	76
363168	3915341	It's all about making the whole story public.	It's all about making the whole story public.	186010180	1476970268491	1476970268614	l	76
363168	3915341	It's all about making the whole story public.	It's all about making the whole story public.	186010181	1476970268569	1476970268749	 	32
363168	3915341	It's all about making the whole story public.	It's all about making the whole story public.	186010197	1476970268693	1476970268836	a	65
363168	3915341	It's all about making the whole story public.	It's all about making the whole story public.	186010201	1476970268794	1476970268928	b	66
363168	3915341	It's all about making the whole story public.	It's all about making the whole story public.	186010205	1476970268872	1476970269029	o	79
363168	3915341	It's all about making the whole story public.	It's all about making the whole story public.	186010210	1476970268969	1476970269091	u	85
363168	3915341	It's all about making the whole story public.	It's all about making the whole story public.	186010214	1476970269081	1476970269185	t	84
363168	3915341	It's all about making the whole story public.	It's all about making the whole story public.	186010217	1476970269232	1476970269382	 	32
363168	3915341	It's all about making the whole story public.	It's all about making the whole story public.	186010221	1476970269394	1476970269518	m	77
363168	3915341	It's all about making the whole story public.	It's all about making the whole story public.	186010223	1476970269574	1476970269711	a	65
363168	3915341	It's all about making the whole story public.	It's all about making the whole story public.	186010225	1476970269728	1476970269806	k	75
363168	3915341	It's all about making the whole story public.	It's all about making the whole story public.	186010228	1476970269850	1476970269933	i	73
363168	3915341	It's all about making the whole story public.	It's all about making the whole story public.	186010251	1476970269921	1476970270064	n	78
363168	3915341	It's all about making the whole story public.	It's all about making the whole story public.	186010253	1476970270041	1476970270164	 	71
363168	3915341	It's all about making the whole story public.	It's all about making the whole story public.	186010255	1476970270255	1476970270370	h	72
363168	3915341	It's all about making the whole story public.	It's all about making the whole story public.	186010257	1476970270280	1476970270419	t	84
363168	3915341	It's all about making the whole story public.	It's all about making the whole story public.	186010260	1476970270444	1476970270562	e	69
363168	3915341	It's all about making the whole story public.	It's all about making the whole story public.	186010324	1476970270597	1476970270774	 	32
363168	3915341	It's all about making the whole story public.	It's all about making the whole story public.	186010326	1476970270760	1476970270911	w	87
363168	3915341	It's all about making the whole story public.	It's all about making the whole story public.	186010329	1476970270849	1476970270947	h	72
363168	3915341	It's all about making the whole story public.	It's all about making the whole story public.	186010332	1476970270966	1476970271078	o	79
363168	3915341	It's all about making the whole story public.	It's all about making the whole story public.	186010336	1476970271185	1476970271267	BKSP	8
363168	3915341	It's all about making the whole story public.	It's all about making the whole story public.	186010343	1476970271318	1476970271433	BKSP	8
363168	3915341	It's all about making the whole story public.	It's all about making the whole story public.	186010346	1476970271469	1476970271577	BKSP	8
363168	3915341	It's all about making the whole story public.	It's all about making the whole story public.	186010352	1476970271625	1476970271711	BKSP	8
363168	3915341	It's all about making the whole story public.	It's all about making the whole story public.	186010357	1476970271763	1476970271860	BKSP	8
363168	3915341	It's all about making the whole story public.	It's all about making the whole story public.	186010363	1476970271925	1476970272004	BKSP	8
363168	3915341	It's all about making the whole story public.	It's all about making the whole story public.	186010366	1476970272062	1476970272158	BKSP	8
363168	3915341	It's all about making the whole story public.	It's all about making the whole story public.	186010381	1476970272150	1476970272265	t	84
363168	3915341	It's all about making the whole story public.	It's all about making the whole story public.	186010384	1476970272274	1476970272372	h	72
363168	3915341	It's all about making the whole story public.	It's all about making the whole story public.	186010387	1476970272394	1476970272520	e	69
363168	3915341	It's all about making the whole story public.	It's all about making the whole story public.	186010392	1476970272558	1476970272683	 	32
363168	3915341	It's all about making the whole story public.	It's all about making the whole story public.	186010397	1476970272829	1476970272920	h	72
363168	3915341	It's all about making the whole story public.	It's all about making the whole story public.	186010401	1476970273106	1476970273184	BKSP	8
363168	3915341	It's all about making the whole story public.	It's all about making the whole story public.	186010446	1476970273144	1476970273275	w	87
363168	3915341	It's all about making the whole story public.	It's all about making the whole story public.	186010448	1476970273254	1476970273360	h	72
363168	3915341	It's all about making the whole story public.	It's all about making the whole story public.	186010452	1476970273379	1476970273491	o	79
363168	3915341	It's all about making the whole story public.	It's all about making the whole story public.	186010455	1476970273574	1476970273699	l	76
363168	3915341	It's all about making the whole story public.	It's all about making the whole story public.	186010457	1476970273809	1476970273924	e	69
363168	3915341	It's all about making the whole story public.	It's all about making the whole story public.	186010459	1476970273985	1476970274168	 	32
363168	3915341	It's all about making the whole story public.	It's all about making the whole story public.	186010486	1476970274093	1476970274282	s	83
363168	3915341	It's all about making the whole story public.	It's all about making the whole story public.	186010491	1476970274268	1476970274380	t	84
363168	3915341	It's all about making the whole story public.	It's all about making the whole story public.	186010495	1476970274402	1476970274560	o	79
363168	3915341	It's all about making the whole story public.	It's all about making the whole story public.	186010499	1476970274481	1476970274569	r	82
363168	3915341	It's all about making the whole story public.	It's all about making the whole story public.	186010504	1476970274661	1476970274745	y	89
363168	3915341	It's all about making the whole story public.	It's all about making the whole story public.	186010509	1476970274771	1476970274941	 	32
363168	3915341	It's all about making the whole story public.	It's all about making the whole story public.	186010516	1476970274973	1476970275061	p	80
363168	3915341	It's all about making the whole story public.	It's all about making the whole story public.	186010520	1476970275145	1476970275262	u	85
363168	3915341	It's all about making the whole story public.	It's all about making the whole story public.	186010523	1476970275250	1476970275343	b	66
363168	3915341	It's all about making the whole story public.	It's all about making the whole story public.	186010525	1476970275364	1476970275453	l	76
363168	3915341	It's all about making the whole story public.	It's all about making the whole story public.	186010528	1476970275504	1476970275621	i	73
363168	3915341	It's all about making the whole story public.	It's all about making the whole story public.	186010529	1476970275618	1476970275739	c	67
363168	3915520	Weather is bad here.	Weather is bad here.	186018308	1476970436030	1476970436493	SHIFT	16
363168	3915520	Weather is bad here.	Weather is bad here.	186018316	1476970436421	1476970436591	W	87
363168	3915520	Weather is bad here.	Weather is bad here.	186018325	1476970436595	1476970436648	h	72
363168	3915520	Weather is bad here.	Weather is bad here.	186018333	1476970436677	1476970436789	e	69
363168	3915520	Weather is bad here.	Weather is bad here.	186018342	1476970436922	1476970436987	BKSP	8
363168	3915520	Weather is bad here.	Weather is bad here.	186018345	1476970437022	1476970437129	BKSP	8
363168	3915520	Weather is bad here.	Weather is bad here.	186018351	1476970437125	1476970437288	e	69
363168	3915520	Weather is bad here.	Weather is bad here.	186018354	1476970437205	1476970437346	a	65
363168	3915520	Weather is bad here.	Weather is bad here.	186018356	1476970437394	1476970437515	t	84
363168	3915520	Weather is bad here.	Weather is bad here.	186018357	1476970437486	1476970437575	h	72
363168	3915520	Weather is bad here.	Weather is bad here.	186018358	1476970437571	1476970437688	e	69
363168	3915520	Weather is bad here.	Weather is bad here.	186018376	1476970437653	1476970437740	r	82
363168	3915520	Weather is bad here.	Weather is bad here.	186018380	1476970437673	1476970437806	 	32
363168	3915520	Weather is bad here.	Weather is bad here.	186018384	1476970437788	1476970437893	i	73
363168	3915520	Weather is bad here.	Weather is bad here.	186018388	1476970437869	1476970438001	s	83
363168	3915520	Weather is bad here.	Weather is bad here.	186018392	1476970437951	1476970438083	 	32
363168	3915520	Weather is bad here.	Weather is bad here.	186018397	1476970438111	1476970438214	b	66
363168	3915520	Weather is bad here.	Weather is bad here.	186018437	1476970438195	1476970438311	a	65
363168	3915520	Weather is bad here.	Weather is bad here.	186018440	1476970438301	1476970438390	d	68
363168	3915520	Weather is bad here.	Weather is bad here.	186018443	1476970438542	1476970438703	 	32
363168	3915520	Weather is bad here.	Weather is bad here.	186018450	1476970438771	1476970438883	h	72
363168	3915520	Weather is bad here.	Weather is bad here.	186018455	1476970438876	1476970439055	e	69
363168	3915520	Weather is bad here.	Weather is bad here.	186018472	1476970439010	1476970439205	r	82
363168	3915520	Weather is bad here.	Weather is bad here.	186018475	1476970439133	1476970439260	e	69
363168	3915520	Weather is bad here.	Weather is bad here.	186018480	1476970439282	1476970439378	.	190
