PARTICIPANT_ID	TEST_SECTION_ID	SENTENCE	USER_INPUT	KEYSTROKE_ID	PRESS_TIME	RELEASE_TIME	LETTER	KEYCODE
363667	3920441	Please call me if you see any problems.	Please call me if you see any problems	186253636	1476974320921	1476974321451	SHIFT	16
363667	3920441	Please call me if you see any problems.	Please call me if you see any problems	186253631	1476974321352	1476974321432	P	80
363667	3920441	Please call me if you see any problems.	Please call me if you see any problems	186253639	1476974321499	1476974321603	l	76
363667	3920441	Please call me if you see any problems.	Please call me if you see any problems	186253641	1476974321567	1476974321658	e	69
363667	3920441	Please call me if you see any problems.	Please call me if you see any problems	186253644	1476974321743	1476974321873	a	65
363667	3920441	Please call me if you see any problems.	Please call me if you see any problems	186253647	1476974321874	1476974321973	s	83
363667	3920441	Please call me if you see any problems.	Please call me if you see any problems	186253668	1476974322052	1476974322133	e	69
363667	3920441	Please call me if you see any problems.	Please call me if you see any problems	186253672	1476974322127	1476974322221	 	32
363667	3920441	Please call me if you see any problems.	Please call me if you see any problems	186253676	1476974322247	1476974322338	c	67
363667	3920441	Please call me if you see any problems.	Please call me if you see any problems	186253679	1476974322403	1476974322493	a	65
363667	3920441	Please call me if you see any problems.	Please call me if you see any problems	186253702	1476974322477	1476974322553	l	76
363667	3920441	Please call me if you see any problems.	Please call me if you see any problems	186253706	1476974322595	1476974322679	l	76
363667	3920441	Please call me if you see any problems.	Please call me if you see any problems	186253711	1476974322696	1476974322784	 	32
363667	3920441	Please call me if you see any problems.	Please call me if you see any problems	186253715	1476974322803	1476974322898	m	77
363667	3920441	Please call me if you see any problems.	Please call me if you see any problems	186253722	1476974322930	1476974323008	e	69
363667	3920441	Please call me if you see any problems.	Please call me if you see any problems	186253730	1476974323011	1476974323102	 	32
363667	3920441	Please call me if you see any problems.	Please call me if you see any problems	186253758	1476974323215	1476974323301	i	73
363667	3920441	Please call me if you see any problems.	Please call me if you see any problems	186253761	1476974323282	1476974323362	f	70
363667	3920441	Please call me if you see any problems.	Please call me if you see any problems	186253766	1476974323402	1476974323497	 	32
363667	3920441	Please call me if you see any problems.	Please call me if you see any problems	186253771	1476974323516	1476974323604	y	89
363667	3920441	Please call me if you see any problems.	Please call me if you see any problems	186253777	1476974323614	1476974323688	o	79
363667	3920441	Please call me if you see any problems.	Please call me if you see any problems	186253800	1476974323759	1476974323842	u	85
363667	3920441	Please call me if you see any problems.	Please call me if you see any problems	186253802	1476974323831	1476974323918	 	32
363667	3920441	Please call me if you see any problems.	Please call me if you see any problems	186253805	1476974324036	1476974324128	s	83
363667	3920441	Please call me if you see any problems.	Please call me if you see any problems	186253809	1476974324199	1476974324278	e	69
363667	3920441	Please call me if you see any problems.	Please call me if you see any problems	186253812	1476974324330	1476974324421	e	69
363667	3920441	Please call me if you see any problems.	Please call me if you see any problems	186253848	1476974324447	1476974324547	 	32
363667	3920441	Please call me if you see any problems.	Please call me if you see any problems	186253850	1476974324573	1476974324661	a	65
363667	3920441	Please call me if you see any problems.	Please call me if you see any problems	186253853	1476974324668	1476974324753	n	78
363667	3920441	Please call me if you see any problems.	Please call me if you see any problems	186253857	1476974324837	1476974324921	y	89
363667	3920441	Please call me if you see any problems.	Please call me if you see any problems	186253861	1476974324935	1476974325019	 	32
363667	3920441	Please call me if you see any problems.	Please call me if you see any problems	186253902	1476974325102	1476974325193	p	80
363667	3920441	Please call me if you see any problems.	Please call me if you see any problems	186253905	1476974325223	1476974325300	r	82
363667	3920441	Please call me if you see any problems.	Please call me if you see any problems	186253908	1476974325294	1476974325389	o	79
363667	3920441	Please call me if you see any problems.	Please call me if you see any problems	186253911	1476974325544	1476974325638	b	66
363667	3920441	Please call me if you see any problems.	Please call me if you see any problems	186253918	1476974325774	1476974325867	l	76
363667	3920441	Please call me if you see any problems.	Please call me if you see any problems	186253952	1476974325873	1476974325958	e	69
363667	3920441	Please call me if you see any problems.	Please call me if you see any problems	186253956	1476974325978	1476974326066	m	77
363667	3920441	Please call me if you see any problems.	Please call me if you see any problems	186253962	1476974326170	1476974326255	s	83
363667	3920453	She said it would probably be after Jan.	She said it would probably be after Jan. 	186254114	1476974328201	1476974328553	SHIFT	16
363667	3920453	She said it would probably be after Jan.	She said it would probably be after Jan. 	186254117	1476974328485	1476974328596	S	83
363667	3920453	She said it would probably be after Jan.	She said it would probably be after Jan. 	186254121	1476974328592	1476974328686	h	72
363667	3920453	She said it would probably be after Jan.	She said it would probably be after Jan. 	186254125	1476974328699	1476974328780	e	69
363667	3920453	She said it would probably be after Jan.	She said it would probably be after Jan. 	186254129	1476974328787	1476974328891	 	32
363667	3920453	She said it would probably be after Jan.	She said it would probably be after Jan. 	186254136	1476974328983	1476974329091	s	83
363667	3920453	She said it would probably be after Jan.	She said it would probably be after Jan. 	186254177	1476974329123	1476974329217	a	65
363667	3920453	She said it would probably be after Jan.	She said it would probably be after Jan. 	186254181	1476974329218	1476974329311	i	73
363667	3920453	She said it would probably be after Jan.	She said it would probably be after Jan. 	186254186	1476974329320	1476974329412	d	68
363667	3920453	She said it would probably be after Jan.	She said it would probably be after Jan. 	186254191	1476974329439	1476974329536	 	32
363667	3920453	She said it would probably be after Jan.	She said it would probably be after Jan. 	186254196	1476974329671	1476974329759	i	73
363667	3920453	She said it would probably be after Jan.	She said it would probably be after Jan. 	186254262	1476974329765	1476974329841	t	84
363667	3920453	She said it would probably be after Jan.	She said it would probably be after Jan. 	186254265	1476974329886	1476974329980	 	32
363667	3920453	She said it would probably be after Jan.	She said it would probably be after Jan. 	186254269	1476974330861	1476974330968	w	87
363667	3920453	She said it would probably be after Jan.	She said it would probably be after Jan. 	186254274	1476974330949	1476974331037	o	79
363667	3920453	She said it would probably be after Jan.	She said it would probably be after Jan. 	186254279	1476974331122	1476974331209	u	85
363667	3920453	She said it would probably be after Jan.	She said it would probably be after Jan. 	186254331	1476974331321	1476974331411	l	76
363667	3920453	She said it would probably be after Jan.	She said it would probably be after Jan. 	186254332	1476974331423	1476974331495	d	68
363667	3920453	She said it would probably be after Jan.	She said it would probably be after Jan. 	186254335	1476974331541	1476974331629	 	32
363667	3920453	She said it would probably be after Jan.	She said it would probably be after Jan. 	186254338	1476974332057	1476974332142	p	80
363667	3920453	She said it would probably be after Jan.	She said it would probably be after Jan. 	186254341	1476974332192	1476974332269	r	82
363667	3920453	She said it would probably be after Jan.	She said it would probably be after Jan. 	186254382	1476974332261	1476974332348	o	79
363667	3920453	She said it would probably be after Jan.	She said it would probably be after Jan. 	186254385	1476974332486	1476974332578	b	66
363667	3920453	She said it would probably be after Jan.	She said it would probably be after Jan. 	186254393	1476974332574	1476974332667	a	65
363667	3920453	She said it would probably be after Jan.	She said it would probably be after Jan. 	186254403	1476974332645	1476974332733	b	66
363667	3920453	She said it would probably be after Jan.	She said it would probably be after Jan. 	186254407	1476974332848	1476974332946	l	76
363667	3920453	She said it would probably be after Jan.	She said it would probably be after Jan. 	186254414	1476974332958	1476974333035	y	89
363667	3920453	She said it would probably be after Jan.	She said it would probably be after Jan. 	186254430	1476974333060	1476974333141	 	32
363667	3920453	She said it would probably be after Jan.	She said it would probably be after Jan. 	186254432	1476974333200	1476974333291	b	66
363667	3920453	She said it would probably be after Jan.	She said it would probably be after Jan. 	186254435	1476974333272	1476974333369	e	69
363667	3920453	She said it would probably be after Jan.	She said it would probably be after Jan. 	186254441	1476974333379	1476974333483	 	32
363667	3920453	She said it would probably be after Jan.	She said it would probably be after Jan. 	186254443	1476974333499	1476974333593	a	65
363667	3920453	She said it would probably be after Jan.	She said it would probably be after Jan. 	186254485	1476974333685	1476974333759	f	70
363667	3920453	She said it would probably be after Jan.	She said it would probably be after Jan. 	186254488	1476974333858	1476974333942	t	84
363667	3920453	She said it would probably be after Jan.	She said it would probably be after Jan. 	186254491	1476974334021	1476974334152	e	69
363667	3920453	She said it would probably be after Jan.	She said it would probably be after Jan. 	186254494	1476974334129	1476974334228	r	82
363667	3920453	She said it would probably be after Jan.	She said it would probably be after Jan. 	186254499	1476974334231	1476974334339	 	32
363667	3920453	She said it would probably be after Jan.	She said it would probably be after Jan. 	186254550	1476974334394	1476974334582	SHIFT	16
363667	3920453	She said it would probably be after Jan.	She said it would probably be after Jan. 	186254553	1476974334505	1476974334605	J	74
363667	3920453	She said it would probably be after Jan.	She said it would probably be after Jan. 	186254556	1476974334619	1476974334700	a	65
363667	3920453	She said it would probably be after Jan.	She said it would probably be after Jan. 	186254564	1476974334703	1476974334785	n	78
363667	3920453	She said it would probably be after Jan.	She said it would probably be after Jan. 	186254569	1476974334919	1476974335007	.	190
363667	3920453	She said it would probably be after Jan.	She said it would probably be after Jan. 	186254576	1476974335010	1476974335095	 	32
363667	3920461	However, Jeffers is too risky to start from a Fantasy perspective.	However, Jeffers is too risky to start from a Fantasy perspective	186254761	1476974337072	1476974337394	SHIFT	16
363667	3920461	However, Jeffers is too risky to start from a Fantasy perspective.	However, Jeffers is too risky to start from a Fantasy perspective	186254758	1476974337280	1476974337357	H	72
363667	3920461	However, Jeffers is too risky to start from a Fantasy perspective.	However, Jeffers is too risky to start from a Fantasy perspective	186254764	1476974337474	1476974337562	o	79
363667	3920461	However, Jeffers is too risky to start from a Fantasy perspective.	However, Jeffers is too risky to start from a Fantasy perspective	186254768	1476974337963	1476974338061	w	87
363667	3920461	However, Jeffers is too risky to start from a Fantasy perspective.	However, Jeffers is too risky to start from a Fantasy perspective	186254772	1476974338237	1476974338331	e	69
363667	3920461	However, Jeffers is too risky to start from a Fantasy perspective.	However, Jeffers is too risky to start from a Fantasy perspective	186254775	1476974338458	1476974338557	v	86
363667	3920461	However, Jeffers is too risky to start from a Fantasy perspective.	However, Jeffers is too risky to start from a Fantasy perspective	186254814	1476974338574	1476974338720	e	69
363667	3920461	However, Jeffers is too risky to start from a Fantasy perspective.	However, Jeffers is too risky to start from a Fantasy perspective	186254816	1476974338674	1476974338785	r	82
363667	3920461	However, Jeffers is too risky to start from a Fantasy perspective.	However, Jeffers is too risky to start from a Fantasy perspective	186254820	1476974338844	1476974338945	,	188
363667	3920461	However, Jeffers is too risky to start from a Fantasy perspective.	However, Jeffers is too risky to start from a Fantasy perspective	186254823	1476974339038	1476974339133	 	32
363667	3920461	However, Jeffers is too risky to start from a Fantasy perspective.	However, Jeffers is too risky to start from a Fantasy perspective	186254825	1476974339293	1476974339632	SHIFT	16
363667	3920461	However, Jeffers is too risky to start from a Fantasy perspective.	However, Jeffers is too risky to start from a Fantasy perspective	186254871	1476974339518	1476974339636	J	74
363667	3920461	However, Jeffers is too risky to start from a Fantasy perspective.	However, Jeffers is too risky to start from a Fantasy perspective	186254873	1476974339750	1476974339797	e	69
363667	3920461	However, Jeffers is too risky to start from a Fantasy perspective.	However, Jeffers is too risky to start from a Fantasy perspective	186254876	1476974340091	1476974340173	f	70
363667	3920461	However, Jeffers is too risky to start from a Fantasy perspective.	However, Jeffers is too risky to start from a Fantasy perspective	186254878	1476974340224	1476974340316	f	70
363667	3920461	However, Jeffers is too risky to start from a Fantasy perspective.	However, Jeffers is too risky to start from a Fantasy perspective	186254880	1476974340424	1476974340529	e	69
363667	3920461	However, Jeffers is too risky to start from a Fantasy perspective.	However, Jeffers is too risky to start from a Fantasy perspective	186254889	1476974340504	1476974340607	r	82
363667	3920461	However, Jeffers is too risky to start from a Fantasy perspective.	However, Jeffers is too risky to start from a Fantasy perspective	186254893	1476974340676	1476974340786	s	83
363667	3920461	However, Jeffers is too risky to start from a Fantasy perspective.	However, Jeffers is too risky to start from a Fantasy perspective	186254901	1476974340787	1476974340893	 	32
363667	3920461	However, Jeffers is too risky to start from a Fantasy perspective.	However, Jeffers is too risky to start from a Fantasy perspective	186254907	1476974340992	1476974341088	i	73
363667	3920461	However, Jeffers is too risky to start from a Fantasy perspective.	However, Jeffers is too risky to start from a Fantasy perspective	186254912	1476974341084	1476974341169	s	83
363667	3920461	However, Jeffers is too risky to start from a Fantasy perspective.	However, Jeffers is too risky to start from a Fantasy perspective	186254918	1476974341199	1476974341302	 	32
363667	3920461	However, Jeffers is too risky to start from a Fantasy perspective.	However, Jeffers is too risky to start from a Fantasy perspective	186254929	1476974341329	1476974341413	t	84
363667	3920461	However, Jeffers is too risky to start from a Fantasy perspective.	However, Jeffers is too risky to start from a Fantasy perspective	186254933	1476974341436	1476974341517	o	79
363667	3920461	However, Jeffers is too risky to start from a Fantasy perspective.	However, Jeffers is too risky to start from a Fantasy perspective	186254937	1476974341570	1476974341670	o	79
363667	3920461	However, Jeffers is too risky to start from a Fantasy perspective.	However, Jeffers is too risky to start from a Fantasy perspective	186254939	1476974341654	1476974341735	 	32
363667	3920461	However, Jeffers is too risky to start from a Fantasy perspective.	However, Jeffers is too risky to start from a Fantasy perspective	186254943	1476974341911	1476974341992	r	82
363667	3920461	However, Jeffers is too risky to start from a Fantasy perspective.	However, Jeffers is too risky to start from a Fantasy perspective	186254998	1476974341998	1476974342089	i	73
363667	3920461	However, Jeffers is too risky to start from a Fantasy perspective.	However, Jeffers is too risky to start from a Fantasy perspective	186255001	1476974342135	1476974342227	s	83
363667	3920461	However, Jeffers is too risky to start from a Fantasy perspective.	However, Jeffers is too risky to start from a Fantasy perspective	186255005	1476974342228	1476974342313	h	72
363667	3920461	However, Jeffers is too risky to start from a Fantasy perspective.	However, Jeffers is too risky to start from a Fantasy perspective	186255009	1476974342359	1476974342440	 	32
363667	3920461	However, Jeffers is too risky to start from a Fantasy perspective.	However, Jeffers is too risky to start from a Fantasy perspective	186255013	1476974343169	1476974343265	BKSP	8
363667	3920461	However, Jeffers is too risky to start from a Fantasy perspective.	However, Jeffers is too risky to start from a Fantasy perspective	186255017	1476974343315	1476974343413	BKSP	8
363667	3920461	However, Jeffers is too risky to start from a Fantasy perspective.	However, Jeffers is too risky to start from a Fantasy perspective	186255019	1476974343568	1476974343645	s	83
363667	3920461	However, Jeffers is too risky to start from a Fantasy perspective.	However, Jeffers is too risky to start from a Fantasy perspective	186255061	1476974343637	1476974343731	k	75
363667	3920461	However, Jeffers is too risky to start from a Fantasy perspective.	However, Jeffers is too risky to start from a Fantasy perspective	186255065	1476974343916	1476974344017	BKSP	8
363667	3920461	However, Jeffers is too risky to start from a Fantasy perspective.	However, Jeffers is too risky to start from a Fantasy perspective	186255069	1476974344066	1476974344155	BKSP	8
363667	3920461	However, Jeffers is too risky to start from a Fantasy perspective.	However, Jeffers is too risky to start from a Fantasy perspective	186255073	1476974344272	1476974344369	k	75
363667	3920461	However, Jeffers is too risky to start from a Fantasy perspective.	However, Jeffers is too risky to start from a Fantasy perspective	186255076	1476974344485	1476974344566	y	89
363667	3920461	However, Jeffers is too risky to start from a Fantasy perspective.	However, Jeffers is too risky to start from a Fantasy perspective	186255079	1476974344613	1476974344713	 	32
363667	3920461	However, Jeffers is too risky to start from a Fantasy perspective.	However, Jeffers is too risky to start from a Fantasy perspective	186255083	1476974344830	1476974344914	t	84
363667	3920461	However, Jeffers is too risky to start from a Fantasy perspective.	However, Jeffers is too risky to start from a Fantasy perspective	186255087	1476974344916	1476974344999	o	79
363667	3920461	However, Jeffers is too risky to start from a Fantasy perspective.	However, Jeffers is too risky to start from a Fantasy perspective	186255097	1476974345034	1476974345135	 	32
363667	3920461	However, Jeffers is too risky to start from a Fantasy perspective.	However, Jeffers is too risky to start from a Fantasy perspective	186255100	1476974345251	1476974345347	s	83
363667	3920461	However, Jeffers is too risky to start from a Fantasy perspective.	However, Jeffers is too risky to start from a Fantasy perspective	186255104	1476974345335	1476974345432	t	84
363667	3920461	However, Jeffers is too risky to start from a Fantasy perspective.	However, Jeffers is too risky to start from a Fantasy perspective	186255111	1476974345435	1476974345527	a	65
363667	3920461	However, Jeffers is too risky to start from a Fantasy perspective.	However, Jeffers is too risky to start from a Fantasy perspective	186255115	1476974345533	1476974345608	r	82
363667	3920461	However, Jeffers is too risky to start from a Fantasy perspective.	However, Jeffers is too risky to start from a Fantasy perspective	186255140	1476974345670	1476974345761	t	84
363667	3920461	However, Jeffers is too risky to start from a Fantasy perspective.	However, Jeffers is too risky to start from a Fantasy perspective	186255141	1476974345762	1476974345849	 	32
363667	3920461	However, Jeffers is too risky to start from a Fantasy perspective.	However, Jeffers is too risky to start from a Fantasy perspective	186255144	1476974345972	1476974346076	f	70
363667	3920461	However, Jeffers is too risky to start from a Fantasy perspective.	However, Jeffers is too risky to start from a Fantasy perspective	186255148	1476974346085	1476974346186	r	82
363667	3920461	However, Jeffers is too risky to start from a Fantasy perspective.	However, Jeffers is too risky to start from a Fantasy perspective	186255152	1476974346192	1476974346293	o	79
363667	3920461	However, Jeffers is too risky to start from a Fantasy perspective.	However, Jeffers is too risky to start from a Fantasy perspective	186255194	1476974346375	1476974346495	m	77
363667	3920461	However, Jeffers is too risky to start from a Fantasy perspective.	However, Jeffers is too risky to start from a Fantasy perspective	186255199	1476974346463	1476974346560	 	32
363667	3920461	However, Jeffers is too risky to start from a Fantasy perspective.	However, Jeffers is too risky to start from a Fantasy perspective	186255204	1476974346664	1476974346755	a	65
363667	3920461	However, Jeffers is too risky to start from a Fantasy perspective.	However, Jeffers is too risky to start from a Fantasy perspective	186255208	1476974346746	1476974346833	 	32
363667	3920461	However, Jeffers is too risky to start from a Fantasy perspective.	However, Jeffers is too risky to start from a Fantasy perspective	186255212	1476974346991	1476974347337	SHIFT	16
363667	3920461	However, Jeffers is too risky to start from a Fantasy perspective.	However, Jeffers is too risky to start from a Fantasy perspective	186255263	1476974347246	1476974347365	F	70
363667	3920461	However, Jeffers is too risky to start from a Fantasy perspective.	However, Jeffers is too risky to start from a Fantasy perspective	186255267	1476974347448	1476974347545	a	65
363667	3920461	However, Jeffers is too risky to start from a Fantasy perspective.	However, Jeffers is too risky to start from a Fantasy perspective	186255273	1476974347559	1476974347651	n	78
363667	3920461	However, Jeffers is too risky to start from a Fantasy perspective.	However, Jeffers is too risky to start from a Fantasy perspective	186255278	1476974348152	1476974348244	t	84
363667	3920461	However, Jeffers is too risky to start from a Fantasy perspective.	However, Jeffers is too risky to start from a Fantasy perspective	186255283	1476974348209	1476974348358	a	65
363667	3920461	However, Jeffers is too risky to start from a Fantasy perspective.	However, Jeffers is too risky to start from a Fantasy perspective	186255308	1476974348317	1476974348423	s	83
363667	3920461	However, Jeffers is too risky to start from a Fantasy perspective.	However, Jeffers is too risky to start from a Fantasy perspective	186255311	1476974348427	1476974348515	y	89
363667	3920461	However, Jeffers is too risky to start from a Fantasy perspective.	However, Jeffers is too risky to start from a Fantasy perspective	186255314	1476974348564	1476974348658	 	32
363667	3920461	However, Jeffers is too risky to start from a Fantasy perspective.	However, Jeffers is too risky to start from a Fantasy perspective	186255319	1476974348745	1476974348830	p	80
363667	3920461	However, Jeffers is too risky to start from a Fantasy perspective.	However, Jeffers is too risky to start from a Fantasy perspective	186255324	1476974348861	1476974349017	e	69
363667	3920461	However, Jeffers is too risky to start from a Fantasy perspective.	However, Jeffers is too risky to start from a Fantasy perspective	186255373	1476974348976	1476974349096	r	82
363667	3920461	However, Jeffers is too risky to start from a Fantasy perspective.	However, Jeffers is too risky to start from a Fantasy perspective	186255375	1476974349239	1476974349331	s	83
363667	3920461	However, Jeffers is too risky to start from a Fantasy perspective.	However, Jeffers is too risky to start from a Fantasy perspective	186255376	1476974349385	1476974349453	p	80
363667	3920461	However, Jeffers is too risky to start from a Fantasy perspective.	However, Jeffers is too risky to start from a Fantasy perspective	186255378	1476974349464	1476974349545	e	69
363667	3920461	However, Jeffers is too risky to start from a Fantasy perspective.	However, Jeffers is too risky to start from a Fantasy perspective	186255379	1476974349656	1476974349763	c	67
363667	3920461	However, Jeffers is too risky to start from a Fantasy perspective.	However, Jeffers is too risky to start from a Fantasy perspective	186255381	1476974349883	1476974349970	t	84
363667	3920461	However, Jeffers is too risky to start from a Fantasy perspective.	However, Jeffers is too risky to start from a Fantasy perspective	186255404	1476974350039	1476974350141	i	73
363667	3920461	However, Jeffers is too risky to start from a Fantasy perspective.	However, Jeffers is too risky to start from a Fantasy perspective	186255407	1476974350130	1476974350229	v	86
363667	3920478	That's a lot of dollars.	That? a lot of dollars.	186255549	1476974352139	1476974352517	SHIFT	16
363667	3920478	That's a lot of dollars.	That? a lot of dollars.	186255547	1476974352417	1476974352500	T	84
363667	3920478	That's a lot of dollars.	That? a lot of dollars.	186255554	1476974352572	1476974352682	h	72
363667	3920478	That's a lot of dollars.	That? a lot of dollars.	186255558	1476974352664	1476974352760	a	65
363667	3920478	That's a lot of dollars.	That? a lot of dollars.	186255565	1476974352776	1476974352858	t	84
363667	3920478	That's a lot of dollars.	That? a lot of dollars.	186255569	1476974352940	1476974353053	s	83
363667	3920478	That's a lot of dollars.	That? a lot of dollars.	186255621	1476974353311	1476974353419	BKSP	8
363667	3920478	That's a lot of dollars.	That? a lot of dollars.	186255623	1476974353607	1476974353698	?	83
363667	3920478	That's a lot of dollars.	That? a lot of dollars.	186255624	1476974353750	1476974353843	 	32
363667	3920478	That's a lot of dollars.	That? a lot of dollars.	186255625	1476974353828	1476974353922	a	65
363667	3920478	That's a lot of dollars.	That? a lot of dollars.	186255626	1476974353928	1476974354017	 	32
363667	3920478	That's a lot of dollars.	That? a lot of dollars.	186255627	1476974354126	1476974354217	l	76
363667	3920478	That's a lot of dollars.	That? a lot of dollars.	186255648	1476974354259	1476974354345	o	79
363667	3920478	That's a lot of dollars.	That? a lot of dollars.	186255651	1476974354368	1476974354453	t	84
363667	3920478	That's a lot of dollars.	That? a lot of dollars.	186255655	1476974354466	1476974354554	 	32
363667	3920478	That's a lot of dollars.	That? a lot of dollars.	186255658	1476974354653	1476974354745	o	79
363667	3920478	That's a lot of dollars.	That? a lot of dollars.	186255686	1476974354734	1476974354823	f	70
363667	3920478	That's a lot of dollars.	That? a lot of dollars.	186255688	1476974354859	1476974354956	 	32
363667	3920478	That's a lot of dollars.	That? a lot of dollars.	186255692	1476974355136	1476974355224	d	68
363667	3920478	That's a lot of dollars.	That? a lot of dollars.	186255698	1476974355230	1476974355308	o	79
363667	3920478	That's a lot of dollars.	That? a lot of dollars.	186255702	1476974355393	1476974355481	l	76
363667	3920478	That's a lot of dollars.	That? a lot of dollars.	186255707	1476974355510	1476974355591	l	76
363667	3920478	That's a lot of dollars.	That? a lot of dollars.	186255724	1476974355601	1476974355741	a	65
363667	3920478	That's a lot of dollars.	That? a lot of dollars.	186255726	1476974355816	1476974355923	r	82
363667	3920478	That's a lot of dollars.	That? a lot of dollars.	186255727	1476974355984	1476974356102	s	83
363667	3920478	That's a lot of dollars.	That? a lot of dollars.	186255728	1476974356103	1476974356196	.	190
363667	3920485	The phones should be on now.	Te phones should be on now.	186255864	1476974357953	1476974358279	SHIFT	16
363667	3920485	The phones should be on now.	Te phones should be on now.	186255866	1476974358195	1476974358281	T	84
363667	3920485	The phones should be on now.	Te phones should be on now.	186255868	1476974358358	1476974358450	h	72
363667	3920485	The phones should be on now.	Te phones should be on now.	186255880	1476974358551	1476974358631	 	32
363667	3920485	The phones should be on now.	Te phones should be on now.	186255885	1476974358786	1476974358890	p	80
363667	3920485	The phones should be on now.	Te phones should be on now.	186255890	1476974358945	1476974359034	h	72
363667	3920485	The phones should be on now.	Te phones should be on now.	186255908	1476974359014	1476974359108	o	79
363667	3920485	The phones should be on now.	Te phones should be on now.	186255912	1476974359205	1476974359310	n	78
363667	3920485	The phones should be on now.	Te phones should be on now.	186255918	1476974359305	1476974359461	e	69
363667	3920485	The phones should be on now.	Te phones should be on now.	186255920	1476974359425	1476974359574	s	83
363667	3920485	The phones should be on now.	Te phones should be on now.	186255926	1476974359562	1476974359649	 	32
363667	3920485	The phones should be on now.	Te phones should be on now.	186255929	1476974359813	1476974359904	s	83
363667	3920485	The phones should be on now.	Te phones should be on now.	186255942	1476974359910	1476974359991	h	72
363667	3920485	The phones should be on now.	Te phones should be on now.	186255945	1476974360086	1476974360184	o	79
363667	3920485	The phones should be on now.	Te phones should be on now.	186255948	1476974360269	1476974360360	u	85
363667	3920485	The phones should be on now.	Te phones should be on now.	186255950	1476974360445	1476974360559	l	76
363667	3920485	The phones should be on now.	Te phones should be on now.	186255952	1476974360572	1476974360676	d	68
363667	3920485	The phones should be on now.	Te phones should be on now.	186255975	1476974360663	1476974360751	 	32
363667	3920485	The phones should be on now.	Te phones should be on now.	186255976	1476974360813	1476974360897	b	66
363667	3920485	The phones should be on now.	Te phones should be on now.	186255977	1476974360917	1476974361016	e	69
363667	3920485	The phones should be on now.	Te phones should be on now.	186255978	1476974361005	1476974361100	 	32
363667	3920485	The phones should be on now.	Te phones should be on now.	186255979	1476974361199	1476974361287	o	79
363667	3920485	The phones should be on now.	Te phones should be on now.	186255980	1476974361384	1476974361475	n	78
363667	3920485	The phones should be on now.	Te phones should be on now.	186256005	1476974361456	1476974361543	 	32
363667	3920485	The phones should be on now.	Te phones should be on now.	186256009	1476974361585	1476974361667	n	78
363667	3920485	The phones should be on now.	Te phones should be on now.	186256014	1476974361761	1476974361842	o	79
363667	3920485	The phones should be on now.	Te phones should be on now.	186256018	1476974361848	1476974361942	w	87
363667	3920485	The phones should be on now.	Te phones should be on now.	186256026	1476974361988	1476974362080	.	190
363667	3920493	Edwards said Chrebet passed the various tests and scans he was given.	Edwards said Cherbet passes the various tests and scans he was given.	186256145	1476974363220	1476974363360	SHIFT	16
363667	3920493	Edwards said Chrebet passed the various tests and scans he was given.	Edwards said Cherbet passes the various tests and scans he was given.	186256148	1476974363925	1476974364300	SHIFT	16
363667	3920493	Edwards said Chrebet passed the various tests and scans he was given.	Edwards said Cherbet passes the various tests and scans he was given.	186256151	1476974364237	1476974364348	E	69
363667	3920493	Edwards said Chrebet passed the various tests and scans he was given.	Edwards said Cherbet passes the various tests and scans he was given.	186256155	1476974364437	1476974364531	d	68
363667	3920493	Edwards said Chrebet passed the various tests and scans he was given.	Edwards said Cherbet passes the various tests and scans he was given.	186256159	1476974364640	1476974364713	w	87
363667	3920493	Edwards said Chrebet passed the various tests and scans he was given.	Edwards said Cherbet passes the various tests and scans he was given.	186256162	1476974364766	1476974364885	a	65
363667	3920493	Edwards said Chrebet passed the various tests and scans he was given.	Edwards said Cherbet passes the various tests and scans he was given.	186256165	1476974364983	1476974365070	r	82
363667	3920493	Edwards said Chrebet passed the various tests and scans he was given.	Edwards said Cherbet passes the various tests and scans he was given.	186256177	1476974365161	1476974365258	d	68
363667	3920493	Edwards said Chrebet passed the various tests and scans he was given.	Edwards said Cherbet passes the various tests and scans he was given.	186256178	1476974365274	1476974365382	s	83
363667	3920493	Edwards said Chrebet passed the various tests and scans he was given.	Edwards said Cherbet passes the various tests and scans he was given.	186256181	1476974365412	1476974365503	 	32
363667	3920493	Edwards said Chrebet passed the various tests and scans he was given.	Edwards said Cherbet passes the various tests and scans he was given.	186256183	1476974365505	1476974365610	s	83
363667	3920493	Edwards said Chrebet passed the various tests and scans he was given.	Edwards said Cherbet passes the various tests and scans he was given.	186256249	1476974365604	1476974365723	a	65
363667	3920493	Edwards said Chrebet passed the various tests and scans he was given.	Edwards said Cherbet passes the various tests and scans he was given.	186256256	1476974365740	1476974365845	i	73
363667	3920493	Edwards said Chrebet passed the various tests and scans he was given.	Edwards said Cherbet passes the various tests and scans he was given.	186256265	1476974365831	1476974365915	d	68
363667	3920493	Edwards said Chrebet passed the various tests and scans he was given.	Edwards said Cherbet passes the various tests and scans he was given.	186256273	1476974365964	1476974366065	 	32
363667	3920493	Edwards said Chrebet passed the various tests and scans he was given.	Edwards said Cherbet passes the various tests and scans he was given.	186256282	1476974366456	1476974366737	SHIFT	16
363667	3920493	Edwards said Chrebet passed the various tests and scans he was given.	Edwards said Cherbet passes the various tests and scans he was given.	186256288	1476974366648	1476974366781	C	67
363667	3920493	Edwards said Chrebet passed the various tests and scans he was given.	Edwards said Cherbet passes the various tests and scans he was given.	186256291	1476974366839	1476974366951	h	72
363667	3920493	Edwards said Chrebet passed the various tests and scans he was given.	Edwards said Cherbet passes the various tests and scans he was given.	186256322	1476974366979	1476974367165	e	69
363667	3920493	Edwards said Chrebet passed the various tests and scans he was given.	Edwards said Cherbet passes the various tests and scans he was given.	186256326	1476974367113	1476974367233	r	82
363667	3920493	Edwards said Chrebet passed the various tests and scans he was given.	Edwards said Cherbet passes the various tests and scans he was given.	186256330	1476974367365	1476974367459	b	66
363667	3920493	Edwards said Chrebet passed the various tests and scans he was given.	Edwards said Cherbet passes the various tests and scans he was given.	186256332	1476974367541	1476974367704	e	69
363667	3920493	Edwards said Chrebet passed the various tests and scans he was given.	Edwards said Cherbet passes the various tests and scans he was given.	186256335	1476974367733	1476974367831	t	84
363667	3920493	Edwards said Chrebet passed the various tests and scans he was given.	Edwards said Cherbet passes the various tests and scans he was given.	186256383	1476974367853	1476974367941	 	32
363667	3920493	Edwards said Chrebet passed the various tests and scans he was given.	Edwards said Cherbet passes the various tests and scans he was given.	186256388	1476974368073	1476974368172	p	80
363667	3920493	Edwards said Chrebet passed the various tests and scans he was given.	Edwards said Cherbet passes the various tests and scans he was given.	186256393	1476974368141	1476974368293	a	65
363667	3920493	Edwards said Chrebet passed the various tests and scans he was given.	Edwards said Cherbet passes the various tests and scans he was given.	186256400	1476974368568	1476974368670	s	83
363667	3920493	Edwards said Chrebet passed the various tests and scans he was given.	Edwards said Cherbet passes the various tests and scans he was given.	186256402	1476974368763	1476974368848	e	69
363667	3920493	Edwards said Chrebet passed the various tests and scans he was given.	Edwards said Cherbet passes the various tests and scans he was given.	186256444	1476974369102	1476974369221	BKSP	8
363667	3920493	Edwards said Chrebet passed the various tests and scans he was given.	Edwards said Cherbet passes the various tests and scans he was given.	186256446	1476974369213	1476974369294	s	83
363667	3920493	Edwards said Chrebet passed the various tests and scans he was given.	Edwards said Cherbet passes the various tests and scans he was given.	186256451	1476974369362	1476974369446	e	69
363667	3920493	Edwards said Chrebet passed the various tests and scans he was given.	Edwards said Cherbet passes the various tests and scans he was given.	186256455	1476974369528	1476974369612	s	83
363667	3920493	Edwards said Chrebet passed the various tests and scans he was given.	Edwards said Cherbet passes the various tests and scans he was given.	186256465	1476974369613	1476974369710	 	32
363667	3920493	Edwards said Chrebet passed the various tests and scans he was given.	Edwards said Cherbet passes the various tests and scans he was given.	186256472	1476974369778	1476974369869	t	84
363667	3920493	Edwards said Chrebet passed the various tests and scans he was given.	Edwards said Cherbet passes the various tests and scans he was given.	186256506	1476974369834	1476974369931	h	72
363667	3920493	Edwards said Chrebet passed the various tests and scans he was given.	Edwards said Cherbet passes the various tests and scans he was given.	186256511	1476974369970	1476974370061	e	69
363667	3920493	Edwards said Chrebet passed the various tests and scans he was given.	Edwards said Cherbet passes the various tests and scans he was given.	186256516	1476974370055	1476974370158	 	32
363667	3920493	Edwards said Chrebet passed the various tests and scans he was given.	Edwards said Cherbet passes the various tests and scans he was given.	186256522	1476974370240	1476974370334	v	86
363667	3920493	Edwards said Chrebet passed the various tests and scans he was given.	Edwards said Cherbet passes the various tests and scans he was given.	186256527	1476974370449	1476974370527	a	65
363667	3920493	Edwards said Chrebet passed the various tests and scans he was given.	Edwards said Cherbet passes the various tests and scans he was given.	186256529	1476974370620	1476974370707	r	82
363667	3920493	Edwards said Chrebet passed the various tests and scans he was given.	Edwards said Cherbet passes the various tests and scans he was given.	186256540	1476974370724	1476974370809	i	73
363667	3920493	Edwards said Chrebet passed the various tests and scans he was given.	Edwards said Cherbet passes the various tests and scans he was given.	186256542	1476974370887	1476974370981	o	79
363667	3920493	Edwards said Chrebet passed the various tests and scans he was given.	Edwards said Cherbet passes the various tests and scans he was given.	186256544	1476974371054	1476974371155	u	85
363667	3920493	Edwards said Chrebet passed the various tests and scans he was given.	Edwards said Cherbet passes the various tests and scans he was given.	186256546	1476974371150	1476974371241	s	83
363667	3920493	Edwards said Chrebet passed the various tests and scans he was given.	Edwards said Cherbet passes the various tests and scans he was given.	186256549	1476974371274	1476974371384	 	32
363667	3920493	Edwards said Chrebet passed the various tests and scans he was given.	Edwards said Cherbet passes the various tests and scans he was given.	186256605	1476974371488	1476974371573	t	84
363667	3920493	Edwards said Chrebet passed the various tests and scans he was given.	Edwards said Cherbet passes the various tests and scans he was given.	186256607	1476974371663	1476974371757	e	69
363667	3920493	Edwards said Chrebet passed the various tests and scans he was given.	Edwards said Cherbet passes the various tests and scans he was given.	186256609	1476974371890	1476974371981	s	83
363667	3920493	Edwards said Chrebet passed the various tests and scans he was given.	Edwards said Cherbet passes the various tests and scans he was given.	186256614	1476974372120	1476974372204	t	84
363667	3920493	Edwards said Chrebet passed the various tests and scans he was given.	Edwards said Cherbet passes the various tests and scans he was given.	186256619	1476974372356	1476974372460	s	83
363667	3920493	Edwards said Chrebet passed the various tests and scans he was given.	Edwards said Cherbet passes the various tests and scans he was given.	186256634	1476974372486	1476974372570	 	32
363667	3920493	Edwards said Chrebet passed the various tests and scans he was given.	Edwards said Cherbet passes the various tests and scans he was given.	186256636	1476974372648	1476974372706	a	65
363667	3920493	Edwards said Chrebet passed the various tests and scans he was given.	Edwards said Cherbet passes the various tests and scans he was given.	186256638	1476974372746	1476974372834	n	78
363667	3920493	Edwards said Chrebet passed the various tests and scans he was given.	Edwards said Cherbet passes the various tests and scans he was given.	186256639	1476974372837	1476974372916	d	68
363667	3920493	Edwards said Chrebet passed the various tests and scans he was given.	Edwards said Cherbet passes the various tests and scans he was given.	186256640	1476974372941	1476974373032	 	32
363667	3920493	Edwards said Chrebet passed the various tests and scans he was given.	Edwards said Cherbet passes the various tests and scans he was given.	186256674	1476974373130	1476974373211	s	83
363667	3920493	Edwards said Chrebet passed the various tests and scans he was given.	Edwards said Cherbet passes the various tests and scans he was given.	186256677	1476974373316	1476974373409	c	67
363667	3920493	Edwards said Chrebet passed the various tests and scans he was given.	Edwards said Cherbet passes the various tests and scans he was given.	186256682	1476974373507	1476974373604	a	65
363667	3920493	Edwards said Chrebet passed the various tests and scans he was given.	Edwards said Cherbet passes the various tests and scans he was given.	186256684	1476974373960	1476974374034	n	78
363667	3920493	Edwards said Chrebet passed the various tests and scans he was given.	Edwards said Cherbet passes the various tests and scans he was given.	186256687	1476974374103	1476974374183	s	83
363667	3920493	Edwards said Chrebet passed the various tests and scans he was given.	Edwards said Cherbet passes the various tests and scans he was given.	186256703	1476974374190	1476974374288	 	32
363667	3920493	Edwards said Chrebet passed the various tests and scans he was given.	Edwards said Cherbet passes the various tests and scans he was given.	186256705	1476974374490	1476974374570	h	72
363667	3920493	Edwards said Chrebet passed the various tests and scans he was given.	Edwards said Cherbet passes the various tests and scans he was given.	186256706	1476974374580	1476974374661	e	69
363667	3920493	Edwards said Chrebet passed the various tests and scans he was given.	Edwards said Cherbet passes the various tests and scans he was given.	186256708	1476974374681	1476974374802	 	32
363667	3920493	Edwards said Chrebet passed the various tests and scans he was given.	Edwards said Cherbet passes the various tests and scans he was given.	186256728	1476974374782	1476974374859	w	87
363667	3920493	Edwards said Chrebet passed the various tests and scans he was given.	Edwards said Cherbet passes the various tests and scans he was given.	186256730	1476974374905	1476974375031	a	65
363667	3920493	Edwards said Chrebet passed the various tests and scans he was given.	Edwards said Cherbet passes the various tests and scans he was given.	186256733	1476974374993	1476974375087	s	83
363667	3920493	Edwards said Chrebet passed the various tests and scans he was given.	Edwards said Cherbet passes the various tests and scans he was given.	186256736	1476974375103	1476974375194	 	32
363667	3920493	Edwards said Chrebet passed the various tests and scans he was given.	Edwards said Cherbet passes the various tests and scans he was given.	186256737	1476974375250	1476974375325	g	71
363667	3920493	Edwards said Chrebet passed the various tests and scans he was given.	Edwards said Cherbet passes the various tests and scans he was given.	186256739	1476974375351	1476974375448	i	73
363667	3920493	Edwards said Chrebet passed the various tests and scans he was given.	Edwards said Cherbet passes the various tests and scans he was given.	186256824	1476974375461	1476974375556	v	86
363667	3920493	Edwards said Chrebet passed the various tests and scans he was given.	Edwards said Cherbet passes the various tests and scans he was given.	186256827	1476974375638	1476974375754	e	69
363667	3920493	Edwards said Chrebet passed the various tests and scans he was given.	Edwards said Cherbet passes the various tests and scans he was given.	186256830	1476974375848	1476974375935	n	78
363667	3920493	Edwards said Chrebet passed the various tests and scans he was given.	Edwards said Cherbet passes the various tests and scans he was given.	186256835	1476974376486	1476974376574	.	190
363667	3920508	Megan, I'm a little too quick for myself.	Megan, I? a little too quick for myself.	186257006	1476974378901	1476974379218	SHIFT	16
363667	3920508	Megan, I'm a little too quick for myself.	Megan, I? a little too quick for myself.	186257004	1476974379107	1476974379218	M	77
363667	3920508	Megan, I'm a little too quick for myself.	Megan, I? a little too quick for myself.	186257010	1476974379360	1476974379441	e	69
363667	3920508	Megan, I'm a little too quick for myself.	Megan, I? a little too quick for myself.	186257012	1476974379491	1476974379565	g	71
363667	3920508	Megan, I'm a little too quick for myself.	Megan, I? a little too quick for myself.	186257015	1476974379575	1476974379665	a	65
363667	3920508	Megan, I'm a little too quick for myself.	Megan, I? a little too quick for myself.	186257018	1476974379702	1476974379795	n	78
363667	3920508	Megan, I'm a little too quick for myself.	Megan, I? a little too quick for myself.	186257089	1476974380197	1476974380297	,	188
363667	3920508	Megan, I'm a little too quick for myself.	Megan, I? a little too quick for myself.	186257092	1476974380310	1476974380392	 	32
363667	3920508	Megan, I'm a little too quick for myself.	Megan, I? a little too quick for myself.	186257095	1476974380518	1476974380831	SHIFT	16
363667	3920508	Megan, I'm a little too quick for myself.	Megan, I? a little too quick for myself.	186257094	1476974380651	1476974380748	I	73
363667	3920508	Megan, I'm a little too quick for myself.	Megan, I? a little too quick for myself.	186257098	1476974381397	1476974381500	?	77
363667	3920508	Megan, I'm a little too quick for myself.	Megan, I? a little too quick for myself.	186257130	1476974381488	1476974381578	 	32
363667	3920508	Megan, I'm a little too quick for myself.	Megan, I? a little too quick for myself.	186257132	1476974381671	1476974381772	a	65
363667	3920508	Megan, I'm a little too quick for myself.	Megan, I? a little too quick for myself.	186257134	1476974381753	1476974381837	 	32
363667	3920508	Megan, I'm a little too quick for myself.	Megan, I? a little too quick for myself.	186257136	1476974381954	1476974382036	l	76
363667	3920508	Megan, I'm a little too quick for myself.	Megan, I? a little too quick for myself.	186257140	1476974382108	1476974382195	i	73
363667	3920508	Megan, I'm a little too quick for myself.	Megan, I? a little too quick for myself.	186257144	1476974382202	1476974382283	t	84
363667	3920508	Megan, I'm a little too quick for myself.	Megan, I? a little too quick for myself.	186257171	1476974382335	1476974382419	t	84
363667	3920508	Megan, I'm a little too quick for myself.	Megan, I? a little too quick for myself.	186257176	1476974382407	1476974382501	l	76
363667	3920508	Megan, I'm a little too quick for myself.	Megan, I? a little too quick for myself.	186257180	1476974382534	1476974382631	e	69
363667	3920508	Megan, I'm a little too quick for myself.	Megan, I? a little too quick for myself.	186257186	1476974382638	1476974382736	 	32
363667	3920508	Megan, I'm a little too quick for myself.	Megan, I? a little too quick for myself.	186257189	1476974382752	1476974382843	t	84
363667	3920508	Megan, I'm a little too quick for myself.	Megan, I? a little too quick for myself.	186257237	1476974382900	1476974382980	o	79
363667	3920508	Megan, I'm a little too quick for myself.	Megan, I? a little too quick for myself.	186257242	1476974383025	1476974383123	o	79
363667	3920508	Megan, I'm a little too quick for myself.	Megan, I? a little too quick for myself.	186257248	1476974383307	1476974383401	 	32
363667	3920508	Megan, I'm a little too quick for myself.	Megan, I? a little too quick for myself.	186257256	1476974384097	1476974384198	q	81
363667	3920508	Megan, I'm a little too quick for myself.	Megan, I? a little too quick for myself.	186257263	1476974384257	1476974384335	u	85
363667	3920508	Megan, I'm a little too quick for myself.	Megan, I? a little too quick for myself.	186257317	1476974384416	1476974384514	i	73
363667	3920508	Megan, I'm a little too quick for myself.	Megan, I? a little too quick for myself.	186257319	1476974385098	1476974385176	c	67
363667	3920508	Megan, I'm a little too quick for myself.	Megan, I? a little too quick for myself.	186257321	1476974385154	1476974385251	k	75
363667	3920508	Megan, I'm a little too quick for myself.	Megan, I? a little too quick for myself.	186257323	1476974385287	1476974385388	 	32
363667	3920508	Megan, I'm a little too quick for myself.	Megan, I? a little too quick for myself.	186257326	1476974385496	1476974385589	f	70
363667	3920508	Megan, I'm a little too quick for myself.	Megan, I? a little too quick for myself.	186257342	1476974385624	1476974385722	o	79
363667	3920508	Megan, I'm a little too quick for myself.	Megan, I? a little too quick for myself.	186257345	1476974385716	1476974385803	r	82
363667	3920508	Megan, I'm a little too quick for myself.	Megan, I? a little too quick for myself.	186257349	1476974385833	1476974385927	 	32
363667	3920508	Megan, I'm a little too quick for myself.	Megan, I? a little too quick for myself.	186257351	1476974386011	1476974386090	m	77
363667	3920508	Megan, I'm a little too quick for myself.	Megan, I? a little too quick for myself.	186257353	1476974386180	1476974386264	y	89
363667	3920508	Megan, I'm a little too quick for myself.	Megan, I? a little too quick for myself.	186257372	1476974386279	1476974386358	s	83
363667	3920508	Megan, I'm a little too quick for myself.	Megan, I? a little too quick for myself.	186257374	1476974386411	1476974386502	e	69
363667	3920508	Megan, I'm a little too quick for myself.	Megan, I? a little too quick for myself.	186257377	1476974386522	1476974386622	l	76
363667	3920508	Megan, I'm a little too quick for myself.	Megan, I? a little too quick for myself.	186257379	1476974386632	1476974386726	f	70
363667	3920508	Megan, I'm a little too quick for myself.	Megan, I? a little too quick for myself.	186257382	1476974386766	1476974386863	.	190
363667	3920521	We have been consistent and we have a good balance.	We have been consistent and we have a good balance. 	186257489	1476974388726	1476974389032	SHIFT	16
363667	3920521	We have been consistent and we have a good balance.	We have been consistent and we have a good balance. 	186257491	1476974388952	1476974389067	W	87
363667	3920521	We have been consistent and we have a good balance.	We have been consistent and we have a good balance. 	186257494	1476974389125	1476974389248	e	69
363667	3920521	We have been consistent and we have a good balance.	We have been consistent and we have a good balance. 	186257496	1476974389243	1476974389337	 	32
363667	3920521	We have been consistent and we have a good balance.	We have been consistent and we have a good balance. 	186257498	1476974389437	1476974389532	h	72
363667	3920521	We have been consistent and we have a good balance.	We have been consistent and we have a good balance. 	186257526	1476974389525	1476974389631	a	65
363667	3920521	We have been consistent and we have a good balance.	We have been consistent and we have a good balance. 	186257528	1476974389648	1476974389755	v	86
363667	3920521	We have been consistent and we have a good balance.	We have been consistent and we have a good balance. 	186257532	1476974389781	1476974389879	e	69
363667	3920521	We have been consistent and we have a good balance.	We have been consistent and we have a good balance. 	186257536	1476974389891	1476974389989	 	32
363667	3920521	We have been consistent and we have a good balance.	We have been consistent and we have a good balance. 	186257540	1476974390180	1476974390278	b	66
363667	3920521	We have been consistent and we have a good balance.	We have been consistent and we have a good balance. 	186257554	1476974390261	1476974390342	e	69
363667	3920521	We have been consistent and we have a good balance.	We have been consistent and we have a good balance. 	186257555	1476974390388	1476974390479	e	69
363667	3920521	We have been consistent and we have a good balance.	We have been consistent and we have a good balance. 	186257557	1476974390515	1476974390606	n	78
363667	3920521	We have been consistent and we have a good balance.	We have been consistent and we have a good balance. 	186257559	1476974390607	1476974390707	 	32
363667	3920521	We have been consistent and we have a good balance.	We have been consistent and we have a good balance. 	186257561	1476974390795	1476974390879	c	67
363667	3920521	We have been consistent and we have a good balance.	We have been consistent and we have a good balance. 	186257636	1476974390867	1476974390954	o	79
363667	3920521	We have been consistent and we have a good balance.	We have been consistent and we have a good balance. 	186257639	1476974391070	1476974391161	n	78
363667	3920521	We have been consistent and we have a good balance.	We have been consistent and we have a good balance. 	186257643	1476974391207	1476974391301	s	83
363667	3920521	We have been consistent and we have a good balance.	We have been consistent and we have a good balance. 	186257646	1476974391362	1476974391454	i	73
363667	3920521	We have been consistent and we have a good balance.	We have been consistent and we have a good balance. 	186257647	1476974391473	1476974391570	s	83
363667	3920521	We have been consistent and we have a good balance.	We have been consistent and we have a good balance. 	186257648	1476974392578	1476974392668	t	84
363667	3920521	We have been consistent and we have a good balance.	We have been consistent and we have a good balance. 	186257673	1476974392747	1476974392831	e	69
363667	3920521	We have been consistent and we have a good balance.	We have been consistent and we have a good balance. 	186257674	1476974392838	1476974392935	n	78
363667	3920521	We have been consistent and we have a good balance.	We have been consistent and we have a good balance. 	186257675	1476974392975	1476974393053	t	84
363667	3920521	We have been consistent and we have a good balance.	We have been consistent and we have a good balance. 	186257677	1476974393102	1476974393203	 	32
363667	3920521	We have been consistent and we have a good balance.	We have been consistent and we have a good balance. 	186257680	1476974393389	1476974393482	a	65
363667	3920521	We have been consistent and we have a good balance.	We have been consistent and we have a good balance. 	186257705	1476974393470	1476974393569	n	78
363667	3920521	We have been consistent and we have a good balance.	We have been consistent and we have a good balance. 	186257707	1476974393558	1476974393642	d	68
363667	3920521	We have been consistent and we have a good balance.	We have been consistent and we have a good balance. 	186257708	1476974393661	1476974393769	 	32
363667	3920521	We have been consistent and we have a good balance.	We have been consistent and we have a good balance. 	186257709	1476974393775	1476974393908	w	87
363667	3920521	We have been consistent and we have a good balance.	We have been consistent and we have a good balance. 	186257711	1476974393866	1476974393963	e	69
363667	3920521	We have been consistent and we have a good balance.	We have been consistent and we have a good balance. 	186257729	1476974393945	1476974394039	 	32
363667	3920521	We have been consistent and we have a good balance.	We have been consistent and we have a good balance. 	186257731	1476974394137	1476974394224	h	72
363667	3920521	We have been consistent and we have a good balance.	We have been consistent and we have a good balance. 	186257733	1476974394198	1476974394299	a	65
363667	3920521	We have been consistent and we have a good balance.	We have been consistent and we have a good balance. 	186257735	1476974394325	1476974394423	v	86
363667	3920521	We have been consistent and we have a good balance.	We have been consistent and we have a good balance. 	186257736	1476974394429	1476974394526	e	69
363667	3920521	We have been consistent and we have a good balance.	We have been consistent and we have a good balance. 	186257782	1476974394517	1476974394627	 	32
363667	3920521	We have been consistent and we have a good balance.	We have been consistent and we have a good balance. 	186257786	1476974395021	1476974395130	a	65
363667	3920521	We have been consistent and we have a good balance.	We have been consistent and we have a good balance. 	186257789	1476974395126	1476974395191	 	32
363667	3920521	We have been consistent and we have a good balance.	We have been consistent and we have a good balance. 	186257791	1476974395360	1476974395432	g	71
363667	3920521	We have been consistent and we have a good balance.	We have been consistent and we have a good balance. 	186257794	1476974395433	1476974395510	o	79
363667	3920521	We have been consistent and we have a good balance.	We have been consistent and we have a good balance. 	186257796	1476974395543	1476974395644	o	79
363667	3920521	We have been consistent and we have a good balance.	We have been consistent and we have a good balance. 	186257820	1476974395718	1476974395810	d	68
363667	3920521	We have been consistent and we have a good balance.	We have been consistent and we have a good balance. 	186257823	1476974395849	1476974395950	 	32
363667	3920521	We have been consistent and we have a good balance.	We have been consistent and we have a good balance. 	186257825	1476974396165	1476974396260	b	66
363667	3920521	We have been consistent and we have a good balance.	We have been consistent and we have a good balance. 	186257826	1476974396282	1476974396364	a	65
363667	3920521	We have been consistent and we have a good balance.	We have been consistent and we have a good balance. 	186257827	1476974396456	1476974396560	l	76
363667	3920521	We have been consistent and we have a good balance.	We have been consistent and we have a good balance. 	186257852	1476974396623	1476974396720	a	65
363667	3920521	We have been consistent and we have a good balance.	We have been consistent and we have a good balance. 	186257854	1476974396752	1476974396850	n	78
363667	3920521	We have been consistent and we have a good balance.	We have been consistent and we have a good balance. 	186257855	1476974396867	1476974396973	c	67
363667	3920521	We have been consistent and we have a good balance.	We have been consistent and we have a good balance. 	186257856	1476974397042	1476974397130	e	69
363667	3920521	We have been consistent and we have a good balance.	We have been consistent and we have a good balance. 	186257857	1476974397313	1476974397414	.	190
363667	3920521	We have been consistent and we have a good balance.	We have been consistent and we have a good balance. 	186257859	1476974397479	1476974397573	 	32
363667	3920530	More jobs are to be eliminated this financial year.	More jobs are to be eliminated this finacial year. 	186257975	1476974399344	1476974399607	SHIFT	16
363667	3920530	More jobs are to be eliminated this financial year.	More jobs are to be eliminated this finacial year. 	186257976	1476974399519	1476974399615	M	77
363667	3920530	More jobs are to be eliminated this financial year.	More jobs are to be eliminated this finacial year. 	186257977	1476974399732	1476974399813	o	79
363667	3920530	More jobs are to be eliminated this financial year.	More jobs are to be eliminated this finacial year. 	186257979	1476974399798	1476974399934	r	82
363667	3920530	More jobs are to be eliminated this financial year.	More jobs are to be eliminated this finacial year. 	186257981	1476974399895	1476974400048	e	69
363667	3920530	More jobs are to be eliminated this financial year.	More jobs are to be eliminated this finacial year. 	186257983	1476974400051	1476974400146	 	32
363667	3920530	More jobs are to be eliminated this financial year.	More jobs are to be eliminated this finacial year. 	186258000	1476974400512	1476974400593	j	74
363667	3920530	More jobs are to be eliminated this financial year.	More jobs are to be eliminated this finacial year. 	186258004	1476974400689	1476974400773	o	79
363667	3920530	More jobs are to be eliminated this financial year.	More jobs are to be eliminated this finacial year. 	186258007	1476974400890	1476974400983	b	66
363667	3920530	More jobs are to be eliminated this financial year.	More jobs are to be eliminated this finacial year. 	186258011	1476974400993	1476974401091	s	83
363667	3920530	More jobs are to be eliminated this financial year.	More jobs are to be eliminated this finacial year. 	186258014	1476974401114	1476974401211	 	32
363667	3920530	More jobs are to be eliminated this financial year.	More jobs are to be eliminated this finacial year. 	186258047	1476974401297	1476974401427	a	65
363667	3920530	More jobs are to be eliminated this financial year.	More jobs are to be eliminated this finacial year. 	186258050	1476974401508	1476974401642	r	82
363667	3920530	More jobs are to be eliminated this financial year.	More jobs are to be eliminated this finacial year. 	186258053	1476974401635	1476974401739	e	69
363667	3920530	More jobs are to be eliminated this financial year.	More jobs are to be eliminated this finacial year. 	186258056	1476974401723	1476974401808	 	32
363667	3920530	More jobs are to be eliminated this financial year.	More jobs are to be eliminated this finacial year. 	186258058	1476974401883	1476974401957	t	84
363667	3920530	More jobs are to be eliminated this financial year.	More jobs are to be eliminated this finacial year. 	186258081	1476974401969	1476974402048	o	79
363667	3920530	More jobs are to be eliminated this financial year.	More jobs are to be eliminated this finacial year. 	186258084	1476974402097	1476974402198	 	32
363667	3920530	More jobs are to be eliminated this financial year.	More jobs are to be eliminated this finacial year. 	186258087	1476974402328	1476974402422	b	66
363667	3920530	More jobs are to be eliminated this financial year.	More jobs are to be eliminated this finacial year. 	186258090	1476974402441	1476974402525	e	69
363667	3920530	More jobs are to be eliminated this financial year.	More jobs are to be eliminated this finacial year. 	186258095	1476974402542	1476974402630	 	32
363667	3920530	More jobs are to be eliminated this financial year.	More jobs are to be eliminated this finacial year. 	186258203	1476974403003	1476974403083	e	69
363667	3920530	More jobs are to be eliminated this financial year.	More jobs are to be eliminated this finacial year. 	186258207	1476974403058	1476974403135	l	76
363667	3920530	More jobs are to be eliminated this financial year.	More jobs are to be eliminated this finacial year. 	186258212	1476974403700	1476974403791	i	73
363667	3920530	More jobs are to be eliminated this financial year.	More jobs are to be eliminated this finacial year. 	186258215	1476974403913	1476974404000	n	78
363667	3920530	More jobs are to be eliminated this financial year.	More jobs are to be eliminated this finacial year. 	186258217	1476974404490	1476974404609	BKSP	8
363667	3920530	More jobs are to be eliminated this financial year.	More jobs are to be eliminated this finacial year. 	186258220	1476974404725	1476974404822	m	77
363667	3920530	More jobs are to be eliminated this financial year.	More jobs are to be eliminated this finacial year. 	186258245	1476974404901	1476974404984	i	73
363667	3920530	More jobs are to be eliminated this financial year.	More jobs are to be eliminated this finacial year. 	186258249	1476974405091	1476974405186	n	78
363667	3920530	More jobs are to be eliminated this financial year.	More jobs are to be eliminated this finacial year. 	186258253	1476974405339	1476974405429	a	65
363667	3920530	More jobs are to be eliminated this financial year.	More jobs are to be eliminated this finacial year. 	186258256	1476974405497	1476974405592	t	84
363667	3920530	More jobs are to be eliminated this financial year.	More jobs are to be eliminated this finacial year. 	186258258	1476974405631	1476974405722	e	69
363667	3920530	More jobs are to be eliminated this financial year.	More jobs are to be eliminated this finacial year. 	186258301	1476974405795	1476974405891	d	68
363667	3920530	More jobs are to be eliminated this financial year.	More jobs are to be eliminated this finacial year. 	186258307	1476974405908	1476974406008	 	32
363667	3920530	More jobs are to be eliminated this financial year.	More jobs are to be eliminated this finacial year. 	186258312	1476974406239	1476974406330	h	72
363667	3920530	More jobs are to be eliminated this financial year.	More jobs are to be eliminated this finacial year. 	186258318	1476974406528	1476974406652	BKSP	8
363667	3920530	More jobs are to be eliminated this financial year.	More jobs are to be eliminated this finacial year. 	186258323	1476974406637	1476974406724	t	84
363667	3920530	More jobs are to be eliminated this financial year.	More jobs are to be eliminated this finacial year. 	186258326	1476974406757	1476974406851	h	72
363667	3920530	More jobs are to be eliminated this financial year.	More jobs are to be eliminated this finacial year. 	186258334	1476974406952	1476974407052	i	73
363667	3920530	More jobs are to be eliminated this financial year.	More jobs are to be eliminated this finacial year. 	186258336	1476974407035	1476974407108	s	83
363667	3920530	More jobs are to be eliminated this financial year.	More jobs are to be eliminated this finacial year. 	186258339	1476974407155	1476974407260	 	32
363667	3920530	More jobs are to be eliminated this financial year.	More jobs are to be eliminated this finacial year. 	186258344	1476974407400	1476974407484	f	70
363667	3920530	More jobs are to be eliminated this financial year.	More jobs are to be eliminated this finacial year. 	186258437	1476974407461	1476974407543	i	73
363667	3920530	More jobs are to be eliminated this financial year.	More jobs are to be eliminated this finacial year. 	186258443	1476974407644	1476974407753	n	78
363667	3920530	More jobs are to be eliminated this financial year.	More jobs are to be eliminated this finacial year. 	186258448	1476974407746	1476974407846	a	65
363667	3920530	More jobs are to be eliminated this financial year.	More jobs are to be eliminated this finacial year. 	186258451	1476974408062	1476974408177	c	67
363667	3920530	More jobs are to be eliminated this financial year.	More jobs are to be eliminated this finacial year. 	186258454	1476974409800	1476974409903	i	73
363667	3920530	More jobs are to be eliminated this financial year.	More jobs are to be eliminated this finacial year. 	186258456	1476974409919	1476974410013	a	65
363667	3920530	More jobs are to be eliminated this financial year.	More jobs are to be eliminated this finacial year. 	186258481	1476974410003	1476974410123	l	76
363667	3920530	More jobs are to be eliminated this financial year.	More jobs are to be eliminated this finacial year. 	186258484	1476974410130	1476974410240	 	32
363667	3920530	More jobs are to be eliminated this financial year.	More jobs are to be eliminated this finacial year. 	186258488	1476974410410	1476974410550	y	89
363667	3920530	More jobs are to be eliminated this financial year.	More jobs are to be eliminated this finacial year. 	186258491	1476974410546	1476974410597	e	69
363667	3920530	More jobs are to be eliminated this financial year.	More jobs are to be eliminated this finacial year. 	186258494	1476974410669	1476974410764	a	65
363667	3920530	More jobs are to be eliminated this financial year.	More jobs are to be eliminated this finacial year. 	186258538	1476974410734	1476974410816	r	82
363667	3920530	More jobs are to be eliminated this financial year.	More jobs are to be eliminated this finacial year. 	186258541	1476974411047	1476974411164	.	190
363667	3920530	More jobs are to be eliminated this financial year.	More jobs are to be eliminated this finacial year. 	186258546	1476974411243	1476974411326	 	32
363667	3920545	Will call later to explain.	Will call later to explain.	186258675	1476974413133	1476974413475	SHIFT	16
363667	3920545	Will call later to explain.	Will call later to explain.	186258678	1476974413399	1476974413518	W	87
363667	3920545	Will call later to explain.	Will call later to explain.	186258681	1476974413510	1476974413594	i	73
363667	3920545	Will call later to explain.	Will call later to explain.	186258684	1476974413685	1476974413770	l	76
363667	3920545	Will call later to explain.	Will call later to explain.	186258688	1476974413812	1476974413907	l	76
363667	3920545	Will call later to explain.	Will call later to explain.	186258710	1476974413894	1476974413987	 	32
363667	3920545	Will call later to explain.	Will call later to explain.	186258718	1476974414063	1476974414156	c	67
363667	3920545	Will call later to explain.	Will call later to explain.	186258725	1476974414254	1476974414357	a	65
363667	3920545	Will call later to explain.	Will call later to explain.	186258731	1476974414349	1476974414430	l	76
363667	3920545	Will call later to explain.	Will call later to explain.	186258736	1476974414462	1476974414553	l	76
363667	3920545	Will call later to explain.	Will call later to explain.	186258757	1476974414537	1476974414639	 	32
363667	3920545	Will call later to explain.	Will call later to explain.	186258760	1476974414694	1476974414791	l	76
363667	3920545	Will call later to explain.	Will call later to explain.	186258764	1476974414807	1476974414909	a	65
363667	3920545	Will call later to explain.	Will call later to explain.	186258770	1476974414967	1476974415058	t	84
363667	3920545	Will call later to explain.	Will call later to explain.	186258775	1476974415087	1476974415265	e	69
363667	3920545	Will call later to explain.	Will call later to explain.	186258809	1476974415257	1476974415362	r	82
363667	3920545	Will call later to explain.	Will call later to explain.	186258811	1476974415348	1476974415433	 	32
363667	3920545	Will call later to explain.	Will call later to explain.	186258813	1476974415610	1476974415697	t	84
363667	3920545	Will call later to explain.	Will call later to explain.	186258815	1476974415685	1476974415769	o	79
363667	3920545	Will call later to explain.	Will call later to explain.	186258818	1476974415853	1476974415954	 	32
363667	3920545	Will call later to explain.	Will call later to explain.	186258822	1476974416106	1476974416193	e	69
363667	3920545	Will call later to explain.	Will call later to explain.	186258834	1476974416278	1476974416374	x	88
363667	3920545	Will call later to explain.	Will call later to explain.	186258836	1476974416346	1476974416440	p	80
363667	3920545	Will call later to explain.	Will call later to explain.	186258841	1476974416526	1476974416632	l	76
363667	3920545	Will call later to explain.	Will call later to explain.	186258845	1476974416627	1476974416728	a	65
363667	3920545	Will call later to explain.	Will call later to explain.	186258848	1476974416741	1476974416825	i	73
363667	3920545	Will call later to explain.	Will call later to explain.	186258871	1476974416939	1476974417029	n	78
363667	3920545	Will call later to explain.	Will call later to explain.	186258874	1476974417211	1476974417305	.	190
363667	3920555	Ben could tell him about Pompano.	Ben could tell him about Pompano.	186258964	1476974418866	1476974419931	SHIFT	16
363667	3920555	Ben could tell him about Pompano.	Ben could tell him about Pompano.	186258962	1476974419797	1476974419907	B	66
363667	3920555	Ben could tell him about Pompano.	Ben could tell him about Pompano.	186258968	1476974419943	1476974420033	e	69
363667	3920555	Ben could tell him about Pompano.	Ben could tell him about Pompano.	186258973	1476974420047	1476974420134	n	78
363667	3920555	Ben could tell him about Pompano.	Ben could tell him about Pompano.	186258979	1476974420170	1476974420271	 	32
363667	3920555	Ben could tell him about Pompano.	Ben could tell him about Pompano.	186258989	1476974420358	1476974420440	c	67
363667	3920555	Ben could tell him about Pompano.	Ben could tell him about Pompano.	186259036	1476974420405	1476974420486	o	79
363667	3920555	Ben could tell him about Pompano.	Ben could tell him about Pompano.	186259042	1476974420592	1476974420676	u	85
363667	3920555	Ben could tell him about Pompano.	Ben could tell him about Pompano.	186259047	1476974420777	1476974420886	l	76
363667	3920555	Ben could tell him about Pompano.	Ben could tell him about Pompano.	186259050	1476974420867	1476974420945	d	68
363667	3920555	Ben could tell him about Pompano.	Ben could tell him about Pompano.	186259053	1476974420988	1476974421085	 	32
363667	3920555	Ben could tell him about Pompano.	Ben could tell him about Pompano.	186259091	1476974421072	1476974421167	t	84
363667	3920555	Ben could tell him about Pompano.	Ben could tell him about Pompano.	186259094	1476974421235	1476974421336	e	69
363667	3920555	Ben could tell him about Pompano.	Ben could tell him about Pompano.	186259097	1476974421303	1476974421382	l	76
363667	3920555	Ben could tell him about Pompano.	Ben could tell him about Pompano.	186259099	1476974421431	1476974421517	l	76
363667	3920555	Ben could tell him about Pompano.	Ben could tell him about Pompano.	186259101	1476974421502	1476974421606	 	32
363667	3920555	Ben could tell him about Pompano.	Ben could tell him about Pompano.	186259103	1476974421764	1476974421848	h	72
363667	3920555	Ben could tell him about Pompano.	Ben could tell him about Pompano.	186259132	1476974421937	1476974422029	i	73
363667	3920555	Ben could tell him about Pompano.	Ben could tell him about Pompano.	186259135	1476974422112	1476974422231	m	77
363667	3920555	Ben could tell him about Pompano.	Ben could tell him about Pompano.	186259143	1476974422215	1476974422305	 	32
363667	3920555	Ben could tell him about Pompano.	Ben could tell him about Pompano.	186259153	1476974422399	1476974422499	a	65
363667	3920555	Ben could tell him about Pompano.	Ben could tell him about Pompano.	186259203	1476974422467	1476974422547	b	66
363667	3920555	Ben could tell him about Pompano.	Ben could tell him about Pompano.	186259207	1476974422659	1476974422753	o	79
363667	3920555	Ben could tell him about Pompano.	Ben could tell him about Pompano.	186259213	1476974422835	1476974422921	u	85
363667	3920555	Ben could tell him about Pompano.	Ben could tell him about Pompano.	186259215	1476974422916	1476974423004	t	84
363667	3920555	Ben could tell him about Pompano.	Ben could tell him about Pompano.	186259218	1476974423050	1476974423153	 	32
363667	3920555	Ben could tell him about Pompano.	Ben could tell him about Pompano.	186259221	1476974423219	1476974423438	SHIFT	16
363667	3920555	Ben could tell him about Pompano.	Ben could tell him about Pompano.	186259284	1476974423379	1476974423472	P	80
363667	3920555	Ben could tell him about Pompano.	Ben could tell him about Pompano.	186259288	1476974423830	1476974423922	o	79
363667	3920555	Ben could tell him about Pompano.	Ben could tell him about Pompano.	186259291	1476974424032	1476974424133	m	77
363667	3920555	Ben could tell him about Pompano.	Ben could tell him about Pompano.	186259294	1476974424309	1476974424405	p	80
363667	3920555	Ben could tell him about Pompano.	Ben could tell him about Pompano.	186259298	1476974424441	1476974424542	a	65
363667	3920555	Ben could tell him about Pompano.	Ben could tell him about Pompano.	186259300	1476974424585	1476974424675	n	78
363667	3920555	Ben could tell him about Pompano.	Ben could tell him about Pompano.	186259345	1476974424801	1476974424889	o	79
363667	3920555	Ben could tell him about Pompano.	Ben could tell him about Pompano.	186259348	1476974425059	1476974425143	/	191
363667	3920555	Ben could tell him about Pompano.	Ben could tell him about Pompano.	186259352	1476974425476	1476974425566	BKSP	8
363667	3920555	Ben could tell him about Pompano.	Ben could tell him about Pompano.	186259355	1476974425678	1476974425774	.	190
363667	3920566	He also suggested it would send a conflicting message to Geneva.	He also suggested it would sen a conflicting message to Geneva. 	186259555	1476974427901	1476974428786	SHIFT	16
363667	3920566	He also suggested it would send a conflicting message to Geneva.	He also suggested it would sen a conflicting message to Geneva. 	186259559	1476974428714	1476974428816	H	72
363667	3920566	He also suggested it would send a conflicting message to Geneva.	He also suggested it would sen a conflicting message to Geneva. 	186259564	1476974428812	1476974428909	e	69
363667	3920566	He also suggested it would send a conflicting message to Geneva.	He also suggested it would sen a conflicting message to Geneva. 	186259569	1476974428915	1476974429012	 	32
363667	3920566	He also suggested it would send a conflicting message to Geneva.	He also suggested it would sen a conflicting message to Geneva. 	186259575	1476974429052	1476974429143	w	87
363667	3920566	He also suggested it would send a conflicting message to Geneva.	He also suggested it would sen a conflicting message to Geneva. 	186259581	1476974429405	1476974429519	BKSP	8
363667	3920566	He also suggested it would send a conflicting message to Geneva.	He also suggested it would sen a conflicting message to Geneva. 	186259583	1476974429548	1476974429649	a	65
363667	3920566	He also suggested it would send a conflicting message to Geneva.	He also suggested it would sen a conflicting message to Geneva. 	186259613	1476974429633	1476974429731	l	76
363667	3920566	He also suggested it would send a conflicting message to Geneva.	He also suggested it would sen a conflicting message to Geneva. 	186259615	1476974429726	1476974429817	s	83
363667	3920566	He also suggested it would send a conflicting message to Geneva.	He also suggested it would sen a conflicting message to Geneva. 	186259617	1476974429820	1476974429905	o	79
363667	3920566	He also suggested it would send a conflicting message to Geneva.	He also suggested it would sen a conflicting message to Geneva. 	186259620	1476974429949	1476974430042	 	32
363667	3920566	He also suggested it would send a conflicting message to Geneva.	He also suggested it would sen a conflicting message to Geneva. 	186259623	1476974430191	1476974430278	s	83
363667	3920566	He also suggested it would send a conflicting message to Geneva.	He also suggested it would sen a conflicting message to Geneva. 	186259625	1476974430343	1476974430431	u	85
363667	3920566	He also suggested it would send a conflicting message to Geneva.	He also suggested it would sen a conflicting message to Geneva. 	186259663	1476974430532	1476974430610	g	71
363667	3920566	He also suggested it would send a conflicting message to Geneva.	He also suggested it would sen a conflicting message to Geneva. 	186259666	1476974430669	1476974430739	g	71
363667	3920566	He also suggested it would send a conflicting message to Geneva.	He also suggested it would sen a conflicting message to Geneva. 	186259669	1476974430963	1476974431047	e	69
363667	3920566	He also suggested it would send a conflicting message to Geneva.	He also suggested it would sen a conflicting message to Geneva. 	186259673	1476974431237	1476974431331	s	83
363667	3920566	He also suggested it would send a conflicting message to Geneva.	He also suggested it would sen a conflicting message to Geneva. 	186259678	1476974431357	1476974431454	t	84
363667	3920566	He also suggested it would send a conflicting message to Geneva.	He also suggested it would sen a conflicting message to Geneva. 	186259718	1476974431536	1476974431630	e	69
363667	3920566	He also suggested it would send a conflicting message to Geneva.	He also suggested it would sen a conflicting message to Geneva. 	186259720	1476974431672	1476974431760	d	68
363667	3920566	He also suggested it would send a conflicting message to Geneva.	He also suggested it would sen a conflicting message to Geneva. 	186259722	1476974431786	1476974431887	 	32
363667	3920566	He also suggested it would send a conflicting message to Geneva.	He also suggested it would sen a conflicting message to Geneva. 	186259725	1476974432300	1476974432414	i	73
363667	3920566	He also suggested it would send a conflicting message to Geneva.	He also suggested it would sen a conflicting message to Geneva. 	186259730	1476974432486	1476974432567	t	84
363667	3920566	He also suggested it would send a conflicting message to Geneva.	He also suggested it would sen a conflicting message to Geneva. 	186259770	1476974432596	1476974432694	 	32
363667	3920566	He also suggested it would send a conflicting message to Geneva.	He also suggested it would sen a conflicting message to Geneva. 	186259774	1476974432782	1476974432872	w	87
363667	3920566	He also suggested it would send a conflicting message to Geneva.	He also suggested it would sen a conflicting message to Geneva. 	186259778	1476974432837	1476974432921	o	79
363667	3920566	He also suggested it would send a conflicting message to Geneva.	He also suggested it would sen a conflicting message to Geneva. 	186259780	1476974432999	1476974433090	u	85
363667	3920566	He also suggested it would send a conflicting message to Geneva.	He also suggested it would sen a conflicting message to Geneva. 	186259782	1476974433186	1476974433286	l	76
363667	3920566	He also suggested it would send a conflicting message to Geneva.	He also suggested it would sen a conflicting message to Geneva. 	186259806	1476974433305	1476974433391	d	68
363667	3920566	He also suggested it would send a conflicting message to Geneva.	He also suggested it would sen a conflicting message to Geneva. 	186259811	1476974433392	1476974433485	 	32
363667	3920566	He also suggested it would send a conflicting message to Geneva.	He also suggested it would sen a conflicting message to Geneva. 	186259817	1476974433534	1476974433651	s	83
363667	3920566	He also suggested it would send a conflicting message to Geneva.	He also suggested it would sen a conflicting message to Geneva. 	186259822	1476974433703	1476974433793	e	69
363667	3920566	He also suggested it would send a conflicting message to Geneva.	He also suggested it would sen a conflicting message to Geneva. 	186259877	1476974433774	1476974433868	n	78
363667	3920566	He also suggested it would send a conflicting message to Geneva.	He also suggested it would sen a conflicting message to Geneva. 	186259880	1476974433930	1476974434025	 	32
363667	3920566	He also suggested it would send a conflicting message to Geneva.	He also suggested it would sen a conflicting message to Geneva. 	186259883	1476974434130	1476974434220	a	65
363667	3920566	He also suggested it would send a conflicting message to Geneva.	He also suggested it would sen a conflicting message to Geneva. 	186259885	1476974434211	1476974434299	 	32
363667	3920566	He also suggested it would send a conflicting message to Geneva.	He also suggested it would sen a conflicting message to Geneva. 	186259889	1476974434457	1476974434550	c	67
363667	3920566	He also suggested it would send a conflicting message to Geneva.	He also suggested it would sen a conflicting message to Geneva. 	186259958	1476974434535	1476974434622	o	79
363667	3920566	He also suggested it would send a conflicting message to Geneva.	He also suggested it would sen a conflicting message to Geneva. 	186259960	1476974434710	1476974434805	n	78
363667	3920566	He also suggested it would send a conflicting message to Geneva.	He also suggested it would sen a conflicting message to Geneva. 	186259965	1476974435193	1476974435276	f	70
363667	3920566	He also suggested it would send a conflicting message to Geneva.	He also suggested it would sen a conflicting message to Geneva. 	186259970	1476974435248	1476974435332	l	76
363667	3920566	He also suggested it would send a conflicting message to Geneva.	He also suggested it would sen a conflicting message to Geneva. 	186259975	1476974435401	1476974435492	i	73
363667	3920566	He also suggested it would send a conflicting message to Geneva.	He also suggested it would sen a conflicting message to Geneva. 	186259985	1476974435501	1476974435595	c	67
363667	3920566	He also suggested it would send a conflicting message to Geneva.	He also suggested it would sen a conflicting message to Geneva. 	186260063	1476974435724	1476974435815	t	84
363667	3920566	He also suggested it would send a conflicting message to Geneva.	He also suggested it would sen a conflicting message to Geneva. 	186260067	1476974436191	1476974436285	i	73
363667	3920566	He also suggested it would send a conflicting message to Geneva.	He also suggested it would sen a conflicting message to Geneva. 	186260070	1476974436374	1476974436468	n	78
363667	3920566	He also suggested it would send a conflicting message to Geneva.	He also suggested it would sen a conflicting message to Geneva. 	186260073	1476974436472	1476974436562	g	71
363667	3920566	He also suggested it would send a conflicting message to Geneva.	He also suggested it would sen a conflicting message to Geneva. 	186260077	1476974436569	1476974436659	 	32
363667	3920566	He also suggested it would send a conflicting message to Geneva.	He also suggested it would sen a conflicting message to Geneva. 	186260123	1476974436749	1476974436847	m	77
363667	3920566	He also suggested it would send a conflicting message to Geneva.	He also suggested it would sen a conflicting message to Geneva. 	186260127	1476974436833	1476974436925	e	69
363667	3920566	He also suggested it would send a conflicting message to Geneva.	He also suggested it would sen a conflicting message to Geneva. 	186260131	1476974437008	1476974437107	s	83
363667	3920566	He also suggested it would send a conflicting message to Geneva.	He also suggested it would sen a conflicting message to Geneva. 	186260134	1476974437165	1476974437262	s	83
363667	3920566	He also suggested it would send a conflicting message to Geneva.	He also suggested it would sen a conflicting message to Geneva. 	186260138	1476974437415	1476974437519	a	65
363667	3920566	He also suggested it would send a conflicting message to Geneva.	He also suggested it would sen a conflicting message to Geneva. 	186260192	1476974437536	1476974437629	g	71
363667	3920566	He also suggested it would send a conflicting message to Geneva.	He also suggested it would sen a conflicting message to Geneva. 	186260195	1476974437672	1476974437753	e	69
363667	3920566	He also suggested it would send a conflicting message to Geneva.	He also suggested it would sen a conflicting message to Geneva. 	186260200	1476974437766	1476974437868	 	32
363667	3920566	He also suggested it would send a conflicting message to Geneva.	He also suggested it would sen a conflicting message to Geneva. 	186260202	1476974438019	1476974438099	t	84
363667	3920566	He also suggested it would send a conflicting message to Geneva.	He also suggested it would sen a conflicting message to Geneva. 	186260206	1476974438119	1476974438223	o	79
363667	3920566	He also suggested it would send a conflicting message to Geneva.	He also suggested it would sen a conflicting message to Geneva. 	186260343	1476974438256	1476974438360	 	32
363667	3920566	He also suggested it would send a conflicting message to Geneva.	He also suggested it would sen a conflicting message to Geneva. 	186260346	1476974438535	1476974438663	SHIFT	16
363667	3920566	He also suggested it would send a conflicting message to Geneva.	He also suggested it would sen a conflicting message to Geneva. 	186260350	1476974438856	1476974439699	SHIFT	16
363667	3920566	He also suggested it would send a conflicting message to Geneva.	He also suggested it would sen a conflicting message to Geneva. 	186260354	1476974439598	1476974439714	G	71
363667	3920566	He also suggested it would send a conflicting message to Geneva.	He also suggested it would sen a conflicting message to Geneva. 	186260357	1476974439824	1476974439908	e	69
363667	3920566	He also suggested it would send a conflicting message to Geneva.	He also suggested it would sen a conflicting message to Geneva. 	186260359	1476974439909	1476974440013	n	78
363667	3920566	He also suggested it would send a conflicting message to Geneva.	He also suggested it would sen a conflicting message to Geneva. 	186260362	1476974440559	1476974440634	e	69
363667	3920566	He also suggested it would send a conflicting message to Geneva.	He also suggested it would sen a conflicting message to Geneva. 	186260405	1476974440740	1476974440841	v	86
363667	3920566	He also suggested it would send a conflicting message to Geneva.	He also suggested it would sen a conflicting message to Geneva. 	186260410	1476974440884	1476974440975	a	65
363667	3920566	He also suggested it would send a conflicting message to Geneva.	He also suggested it would sen a conflicting message to Geneva. 	186260416	1476974441095	1476974441207	.	190
363667	3920566	He also suggested it would send a conflicting message to Geneva.	He also suggested it would sen a conflicting message to Geneva. 	186260421	1476974441266	1476974441364	 	32
363667	3920589	Can you help me here?	Can you help me here?	186260550	1476974442432	1476974443230	SHIFT	16
363667	3920589	Can you help me here?	Can you help me here?	186260554	1476974443138	1476974443268	C	67
363667	3920589	Can you help me here?	Can you help me here?	186260559	1476974443347	1476974443446	a	65
363667	3920589	Can you help me here?	Can you help me here?	186260564	1476974443434	1476974443534	n	78
363667	3920589	Can you help me here?	Can you help me here?	186260566	1476974443554	1476974443665	 	32
363667	3920589	Can you help me here?	Can you help me here?	186260571	1476974443873	1476974443957	y	89
363667	3920589	Can you help me here?	Can you help me here?	186260615	1476974443924	1476974444018	o	79
363667	3920589	Can you help me here?	Can you help me here?	186260617	1476974444126	1476974444217	u	85
363667	3920589	Can you help me here?	Can you help me here?	186260620	1476974444204	1476974444305	 	32
363667	3920589	Can you help me here?	Can you help me here?	186260622	1476974444360	1476974444463	h	72
363667	3920589	Can you help me here?	Can you help me here?	186260623	1476974444455	1476974444549	e	69
363667	3920589	Can you help me here?	Can you help me here?	186260625	1476974444582	1476974444672	l	76
363667	3920589	Can you help me here?	Can you help me here?	186260634	1476974444728	1476974444819	p	80
363667	3920589	Can you help me here?	Can you help me here?	186260636	1476974444851	1476974444962	 	32
363667	3920589	Can you help me here?	Can you help me here?	186260640	1476974444953	1476974445053	m	77
363667	3920589	Can you help me here?	Can you help me here?	186260646	1476974445076	1476974445157	e	69
363667	3920589	Can you help me here?	Can you help me here?	186260654	1476974445158	1476974445229	 	32
363667	3920589	Can you help me here?	Can you help me here?	186260709	1476974445297	1476974445379	h	72
363667	3920589	Can you help me here?	Can you help me here?	186260711	1476974445362	1476974445476	e	69
363667	3920589	Can you help me here?	Can you help me here?	186260714	1476974445470	1476974445594	r	82
363667	3920589	Can you help me here?	Can you help me here?	186260717	1476974445584	1476974445677	e	69
363667	3920589	Can you help me here?	Can you help me here?	186260721	1476974445995	1476974446086	?	191
363667	3920599	Can you call me at home?	Can you call me at home?	186260940	1476974448177	1476974448313	C	67
363667	3920599	Can you call me at home?	Can you call me at home?	186260944	1476974448395	1476974448486	a	65
363667	3920599	Can you call me at home?	Can you call me at home?	186260947	1476974448505	1476974448580	n	78
363667	3920599	Can you call me at home?	Can you call me at home?	186260951	1476974448613	1476974448710	 	32
363667	3920599	Can you call me at home?	Can you call me at home?	186260955	1476974448850	1476974448936	y	89
363667	3920599	Can you call me at home?	Can you call me at home?	186261001	1476974448931	1476974449009	o	79
363667	3920599	Can you call me at home?	Can you call me at home?	186261003	1476974449093	1476974449180	u	85
363667	3920599	Can you call me at home?	Can you call me at home?	186261015	1476974449206	1476974449281	 	32
363667	3920599	Can you call me at home?	Can you call me at home?	186261022	1476974449373	1476974449454	c	67
363667	3920599	Can you call me at home?	Can you call me at home?	186261025	1476974449536	1476974449631	a	65
363667	3920599	Can you call me at home?	Can you call me at home?	186261080	1476974449616	1476974449702	l	76
363667	3920599	Can you call me at home?	Can you call me at home?	186261084	1476974449738	1476974449838	l	76
363667	3920599	Can you call me at home?	Can you call me at home?	186261089	1476974449823	1476974449914	 	32
363667	3920599	Can you call me at home?	Can you call me at home?	186261093	1476974449973	1476974450060	m	77
363667	3920599	Can you call me at home?	Can you call me at home?	186261097	1476974450073	1476974450154	e	69
363667	3920599	Can you call me at home?	Can you call me at home?	186261102	1476974450177	1476974450276	 	32
363667	3920599	Can you call me at home?	Can you call me at home?	186261159	1476974450269	1476974450347	a	65
363667	3920599	Can you call me at home?	Can you call me at home?	186261166	1476974450488	1476974450562	t	84
363667	3920599	Can you call me at home?	Can you call me at home?	186261173	1476974450570	1476974450653	 	32
363667	3920599	Can you call me at home?	Can you call me at home?	186261180	1476974450715	1476974450799	h	72
363667	3920599	Can you call me at home?	Can you call me at home?	186261184	1476974450899	1476974450983	o	79
363667	3920599	Can you call me at home?	Can you call me at home?	186261189	1476974451065	1476974451161	m	77
363667	3920599	Can you call me at home?	Can you call me at home?	186261195	1476974451145	1476974451224	e	69
363667	3920599	Can you call me at home?	Can you call me at home?	186261199	1476974451408	1476974451489	?	191
363667	3920609	Please call me if you have any questions.	Please call me if you have any questions.	186261338	1476974453490	1476974453569	O	79
363667	3920609	Please call me if you have any questions.	Please call me if you have any questions.	186261348	1476974453646	1476974453737	l	76
363667	3920609	Please call me if you have any questions.	Please call me if you have any questions.	186261353	1476974453766	1476974453848	e	69
363667	3920609	Please call me if you have any questions.	Please call me if you have any questions.	186261357	1476974453946	1476974454076	a	65
363667	3920609	Please call me if you have any questions.	Please call me if you have any questions.	186261505	1476974454072	1476974454179	s	83
363667	3920609	Please call me if you have any questions.	Please call me if you have any questions.	186261507	1476974454242	1476974454326	e	69
363667	3920609	Please call me if you have any questions.	Please call me if you have any questions.	186261510	1476974454329	1476974454420	 	32
363667	3920609	Please call me if you have any questions.	Please call me if you have any questions.	186261513	1476974454585	1476974454665	BKSP	8
363667	3920609	Please call me if you have any questions.	Please call me if you have any questions.	186261515	1476974454702	1476974454793	BKSP	8
363667	3920609	Please call me if you have any questions.	Please call me if you have any questions.	186261518	1476974454819	1476974454907	BKSP	8
363667	3920609	Please call me if you have any questions.	Please call me if you have any questions.	186261525	1476974454930	1476974455021	BKSP	8
363667	3920609	Please call me if you have any questions.	Please call me if you have any questions.	186261533	1476974455070	1476974455148	BKSP	8
363667	3920609	Please call me if you have any questions.	Please call me if you have any questions.	186261539	1476974455197	1476974455242	BKSP	8
363667	3920609	Please call me if you have any questions.	Please call me if you have any questions.	186261543	1476974455288	1476974455375	BKSP	8
363667	3920609	Please call me if you have any questions.	Please call me if you have any questions.	186261552	1476974455499	1476974455777	SHIFT	16
363667	3920609	Please call me if you have any questions.	Please call me if you have any questions.	186261548	1476974455653	1476974455733	P	80
363667	3920609	Please call me if you have any questions.	Please call me if you have any questions.	186261554	1476974455818	1476974455912	l	76
363667	3920609	Please call me if you have any questions.	Please call me if you have any questions.	186261556	1476974455883	1476974455961	e	69
363667	3920609	Please call me if you have any questions.	Please call me if you have any questions.	186261558	1476974456046	1476974456184	a	65
363667	3920609	Please call me if you have any questions.	Please call me if you have any questions.	186261561	1476974456159	1476974456270	s	83
363667	3920609	Please call me if you have any questions.	Please call me if you have any questions.	186261566	1476974456332	1476974456409	e	69
363667	3920609	Please call me if you have any questions.	Please call me if you have any questions.	186261569	1476974456419	1476974456518	 	32
363667	3920609	Please call me if you have any questions.	Please call me if you have any questions.	186261572	1476974456533	1476974456618	c	67
363667	3920609	Please call me if you have any questions.	Please call me if you have any questions.	186261584	1476974456693	1476974456780	a	65
363667	3920609	Please call me if you have any questions.	Please call me if you have any questions.	186261586	1476974456755	1476974456870	l	76
363667	3920609	Please call me if you have any questions.	Please call me if you have any questions.	186261590	1476974456871	1476974456959	l	76
363667	3920609	Please call me if you have any questions.	Please call me if you have any questions.	186261593	1476974456949	1476974457037	 	32
363667	3920609	Please call me if you have any questions.	Please call me if you have any questions.	186261597	1476974457083	1476974457171	m	77
363667	3920609	Please call me if you have any questions.	Please call me if you have any questions.	186261629	1476974457161	1476974457252	e	69
363667	3920609	Please call me if you have any questions.	Please call me if you have any questions.	186261633	1476974457272	1476974457363	 	32
363667	3920609	Please call me if you have any questions.	Please call me if you have any questions.	186261640	1476974457467	1476974457554	i	73
363667	3920609	Please call me if you have any questions.	Please call me if you have any questions.	186261644	1476974457515	1476974457593	f	70
363667	3920609	Please call me if you have any questions.	Please call me if you have any questions.	186261650	1476974457658	1476974457764	 	32
363667	3920609	Please call me if you have any questions.	Please call me if you have any questions.	186261687	1476974457753	1476974457844	y	89
363667	3920609	Please call me if you have any questions.	Please call me if you have any questions.	186261693	1476974457863	1476974457941	o	79
363667	3920609	Please call me if you have any questions.	Please call me if you have any questions.	186261702	1476974458003	1476974458097	u	85
363667	3920609	Please call me if you have any questions.	Please call me if you have any questions.	186261707	1476974458082	1476974458169	 	32
363667	3920609	Please call me if you have any questions.	Please call me if you have any questions.	186261716	1476974458195	1476974458295	h	72
363667	3920609	Please call me if you have any questions.	Please call me if you have any questions.	186261722	1476974458312	1476974458422	a	65
363667	3920609	Please call me if you have any questions.	Please call me if you have any questions.	186261756	1476974458394	1476974458488	v	86
363667	3920609	Please call me if you have any questions.	Please call me if you have any questions.	186261762	1476974458517	1476974458605	e	69
363667	3920609	Please call me if you have any questions.	Please call me if you have any questions.	186261766	1476974458579	1476974458683	 	32
363667	3920609	Please call me if you have any questions.	Please call me if you have any questions.	186261771	1476974458716	1476974458810	a	65
363667	3920609	Please call me if you have any questions.	Please call me if you have any questions.	186261776	1476974458778	1476974458862	n	78
363667	3920609	Please call me if you have any questions.	Please call me if you have any questions.	186261780	1476974458930	1476974459025	y	89
363667	3920609	Please call me if you have any questions.	Please call me if you have any questions.	186261829	1476974459032	1476974459119	 	32
363667	3920609	Please call me if you have any questions.	Please call me if you have any questions.	186261833	1476974459244	1476974459347	q	81
363667	3920609	Please call me if you have any questions.	Please call me if you have any questions.	186261835	1476974459329	1476974459407	u	85
363667	3920609	Please call me if you have any questions.	Please call me if you have any questions.	186261837	1476974459452	1476974459534	e	69
363667	3920609	Please call me if you have any questions.	Please call me if you have any questions.	186261839	1476974459753	1476974459841	s	83
363667	3920609	Please call me if you have any questions.	Please call me if you have any questions.	186261885	1476974459979	1476974460061	t	84
363667	3920609	Please call me if you have any questions.	Please call me if you have any questions.	186261888	1476974460039	1476974460134	i	73
363667	3920609	Please call me if you have any questions.	Please call me if you have any questions.	186261892	1476974460212	1476974460296	o	79
363667	3920609	Please call me if you have any questions.	Please call me if you have any questions.	186261898	1476974460401	1476974460486	n	78
363667	3920609	Please call me if you have any questions.	Please call me if you have any questions.	186261904	1476974460498	1476974460590	s	83
363667	3920609	Please call me if you have any questions.	Please call me if you have any questions.	186261933	1476974460706	1476974460796	.	190
