PARTICIPANT_ID	TEST_SECTION_ID	SENTENCE	USER_INPUT	KEYSTROKE_ID	PRESS_TIME	RELEASE_TIME	LETTER	KEYCODE
365939	3945678	See client Help for more information.	SEe client help for more information. 	187448290	1476992076658	1476992076960	SHIFT	16
365939	3945678	See client Help for more information.	SEe client help for more information. 	187448292	1476992076808	1476992076960	S	83
365939	3945678	See client Help for more information.	SEe client help for more information. 	187448295	1476992076911	1476992076983	E	69
365939	3945678	See client Help for more information.	SEe client help for more information. 	187448298	1476992077087	1476992077191	e	69
365939	3945678	See client Help for more information.	SEe client help for more information. 	187448304	1476992077192	1476992077319	 	32
365939	3945678	See client Help for more information.	SEe client help for more information. 	187448363	1476992077295	1476992077399	c	67
365939	3945678	See client Help for more information.	SEe client help for more information. 	187448366	1476992077400	1476992077536	l	76
365939	3945678	See client Help for more information.	SEe client help for more information. 	187448368	1476992077479	1476992077575	i	73
365939	3945678	See client Help for more information.	SEe client help for more information. 	187448372	1476992077536	1476992077639	e	69
365939	3945678	See client Help for more information.	SEe client help for more information. 	187448376	1476992077743	1476992077879	n	78
365939	3945678	See client Help for more information.	SEe client help for more information. 	187448381	1476992078087	1476992078223	t	84
365939	3945678	See client Help for more information.	SEe client help for more information. 	187448402	1476992078226	1476992078311	 	32
365939	3945678	See client Help for more information.	SEe client help for more information. 	187448408	1476992078375	1476992078455	h	72
365939	3945678	See client Help for more information.	SEe client help for more information. 	187448414	1476992078479	1476992078591	e	69
365939	3945678	See client Help for more information.	SEe client help for more information. 	187448422	1476992078551	1476992078631	l	76
365939	3945678	See client Help for more information.	SEe client help for more information. 	187448430	1476992078687	1476992078783	p	80
365939	3945678	See client Help for more information.	SEe client help for more information. 	187448463	1476992078785	1476992078944	 	32
365939	3945678	See client Help for more information.	SEe client help for more information. 	187448466	1476992078911	1476992079015	f	70
365939	3945678	See client Help for more information.	SEe client help for more information. 	187448470	1476992079071	1476992079159	o	79
365939	3945678	See client Help for more information.	SEe client help for more information. 	187448474	1476992079207	1476992079375	r	82
365939	3945678	See client Help for more information.	SEe client help for more information. 	187448479	1476992079376	1476992079455	 	32
365939	3945678	See client Help for more information.	SEe client help for more information. 	187448515	1476992079567	1476992079767	m	77
365939	3945678	See client Help for more information.	SEe client help for more information. 	187448519	1476992079687	1476992079823	o	79
365939	3945678	See client Help for more information.	SEe client help for more information. 	187448521	1476992079799	1476992079967	r	82
365939	3945678	See client Help for more information.	SEe client help for more information. 	187448523	1476992079887	1476992080007	e	69
365939	3945678	See client Help for more information.	SEe client help for more information. 	187448554	1476992079968	1476992080079	 	32
365939	3945678	See client Help for more information.	SEe client help for more information. 	187448561	1476992080031	1476992080143	i	73
365939	3945678	See client Help for more information.	SEe client help for more information. 	187448567	1476992080111	1476992080207	n	78
365939	3945678	See client Help for more information.	SEe client help for more information. 	187448573	1476992080208	1476992080287	f	70
365939	3945678	See client Help for more information.	SEe client help for more information. 	187448581	1476992080288	1476992080367	o	79
365939	3945678	See client Help for more information.	SEe client help for more information. 	187448591	1476992080399	1476992080503	r	82
365939	3945678	See client Help for more information.	SEe client help for more information. 	187448630	1476992080959	1476992081055	m	77
365939	3945678	See client Help for more information.	SEe client help for more information. 	187448636	1476992081056	1476992081199	a	65
365939	3945678	See client Help for more information.	SEe client help for more information. 	187448641	1476992081119	1476992081239	t	84
365939	3945678	See client Help for more information.	SEe client help for more information. 	187448644	1476992081200	1476992081351	i	73
365939	3945678	See client Help for more information.	SEe client help for more information. 	187448721	1476992081288	1476992081399	o	79
365939	3945678	See client Help for more information.	SEe client help for more information. 	187448726	1476992081319	1476992081431	n	78
365939	3945678	See client Help for more information.	SEe client help for more information. 	187448734	1476992081519	1476992081639	.	190
365939	3945678	See client Help for more information.	SEe client help for more information. 	187448739	1476992081639	1476992081735	 	32
365939	3945687	We have been consistent and we have a good balance.	We have been consisten and we have a good balance.	187449101	1476992087487	1476992087710	SHIFT	16
365939	3945687	We have been consistent and we have a good balance.	We have been consisten and we have a good balance.	187449098	1476992087567	1476992087695	W	87
365939	3945687	We have been consistent and we have a good balance.	We have been consisten and we have a good balance.	187449103	1476992087735	1476992087871	e	69
365939	3945687	We have been consistent and we have a good balance.	We have been consisten and we have a good balance.	187449105	1476992087871	1476992087964	 	32
365939	3945687	We have been consistent and we have a good balance.	We have been consisten and we have a good balance.	187449107	1476992087965	1476992088040	h	72
365939	3945687	We have been consistent and we have a good balance.	We have been consisten and we have a good balance.	187449138	1476992088020	1476992088147	a	65
365939	3945687	We have been consistent and we have a good balance.	We have been consisten and we have a good balance.	187449141	1476992088100	1476992088220	v	86
365939	3945687	We have been consistent and we have a good balance.	We have been consisten and we have a good balance.	187449146	1476992088220	1476992088300	e	69
365939	3945687	We have been consistent and we have a good balance.	We have been consisten and we have a good balance.	187449151	1476992088260	1476992088425	 	32
365939	3945687	We have been consistent and we have a good balance.	We have been consisten and we have a good balance.	187449157	1476992088404	1476992088459	b	66
365939	3945687	We have been consistent and we have a good balance.	We have been consisten and we have a good balance.	187449163	1476992088556	1476992088603	e	69
365939	3945687	We have been consistent and we have a good balance.	We have been consisten and we have a good balance.	187449171	1476992088692	1476992088788	e	69
365939	3945687	We have been consistent and we have a good balance.	We have been consisten and we have a good balance.	187449175	1476992088788	1476992088884	n	78
365939	3945687	We have been consistent and we have a good balance.	We have been consisten and we have a good balance.	187449180	1476992088852	1476992088987	 	32
365939	3945687	We have been consistent and we have a good balance.	We have been consisten and we have a good balance.	187449184	1476992088956	1476992089049	c	67
365939	3945687	We have been consistent and we have a good balance.	We have been consisten and we have a good balance.	187449198	1476992089028	1476992089131	o	79
365939	3945687	We have been consistent and we have a good balance.	We have been consisten and we have a good balance.	187449201	1476992089108	1476992089204	n	78
365939	3945687	We have been consistent and we have a good balance.	We have been consisten and we have a good balance.	187449207	1476992089204	1476992089244	s	83
365939	3945687	We have been consistent and we have a good balance.	We have been consisten and we have a good balance.	187449211	1476992089300	1476992089372	i	73
365939	3945687	We have been consistent and we have a good balance.	We have been consisten and we have a good balance.	187449214	1476992089372	1476992089480	s	83
365939	3945687	We have been consistent and we have a good balance.	We have been consisten and we have a good balance.	187449256	1476992089460	1476992089579	t	84
365939	3945687	We have been consistent and we have a good balance.	We have been consisten and we have a good balance.	187449261	1476992089532	1476992089643	e	69
365939	3945687	We have been consistent and we have a good balance.	We have been consisten and we have a good balance.	187449266	1476992089668	1476992089755	n	78
365939	3945687	We have been consistent and we have a good balance.	We have been consisten and we have a good balance.	187449268	1476992089853	1476992089932	 	32
365939	3945687	We have been consistent and we have a good balance.	We have been consisten and we have a good balance.	187449272	1476992089949	1476992090061	a	65
365939	3945687	We have been consistent and we have a good balance.	We have been consisten and we have a good balance.	187449275	1476992090061	1476992090140	n	78
365939	3945687	We have been consistent and we have a good balance.	We have been consisten and we have a good balance.	187449290	1476992090109	1476992090197	d	68
365939	3945687	We have been consistent and we have a good balance.	We have been consisten and we have a good balance.	187449295	1476992090197	1476992090279	 	32
365939	3945687	We have been consistent and we have a good balance.	We have been consisten and we have a good balance.	187449300	1476992090260	1476992090397	w	87
365939	3945687	We have been consistent and we have a good balance.	We have been consisten and we have a good balance.	187449304	1476992090349	1476992090468	e	69
365939	3945687	We have been consistent and we have a good balance.	We have been consisten and we have a good balance.	187449307	1476992090397	1476992090508	 	32
365939	3945687	We have been consistent and we have a good balance.	We have been consisten and we have a good balance.	187449330	1476992090468	1476992090565	h	72
365939	3945687	We have been consistent and we have a good balance.	We have been consisten and we have a good balance.	187449336	1476992090565	1476992090668	a	65
365939	3945687	We have been consistent and we have a good balance.	We have been consisten and we have a good balance.	187449344	1476992090620	1476992090725	v	86
365939	3945687	We have been consistent and we have a good balance.	We have been consisten and we have a good balance.	187449350	1476992090725	1476992090812	e	69
365939	3945687	We have been consistent and we have a good balance.	We have been consisten and we have a good balance.	187449355	1476992090781	1476992090852	 	32
365939	3945687	We have been consistent and we have a good balance.	We have been consisten and we have a good balance.	187449361	1476992090853	1476992090982	a	65
365939	3945687	We have been consistent and we have a good balance.	We have been consisten and we have a good balance.	187449402	1476992090956	1476992091060	 	32
365939	3945687	We have been consistent and we have a good balance.	We have been consisten and we have a good balance.	187449406	1476992091012	1476992091133	g	71
365939	3945687	We have been consistent and we have a good balance.	We have been consisten and we have a good balance.	187449411	1476992091133	1476992091181	o	79
365939	3945687	We have been consistent and we have a good balance.	We have been consisten and we have a good balance.	187449413	1476992091252	1476992091332	o	79
365939	3945687	We have been consistent and we have a good balance.	We have been consisten and we have a good balance.	187449416	1476992091285	1476992091365	d	68
365939	3945687	We have been consistent and we have a good balance.	We have been consisten and we have a good balance.	187449418	1476992091365	1476992091484	 	32
365939	3945687	We have been consistent and we have a good balance.	We have been consisten and we have a good balance.	187449435	1476992091460	1476992091532	b	66
365939	3945687	We have been consistent and we have a good balance.	We have been consisten and we have a good balance.	187449440	1476992091565	1476992091644	a	65
365939	3945687	We have been consistent and we have a good balance.	We have been consisten and we have a good balance.	187449446	1476992091620	1476992091692	l	76
365939	3945687	We have been consistent and we have a good balance.	We have been consisten and we have a good balance.	187449457	1476992091756	1476992091822	a	65
365939	3945687	We have been consistent and we have a good balance.	We have been consisten and we have a good balance.	187449462	1476992091845	1476992091924	n	78
365939	3945687	We have been consistent and we have a good balance.	We have been consisten and we have a good balance.	187449471	1476992091956	1476992092076	c	67
365939	3945687	We have been consistent and we have a good balance.	We have been consisten and we have a good balance.	187449484	1476992092044	1476992092136	e	69
365939	3945687	We have been consistent and we have a good balance.	We have been consisten and we have a good balance.	187449491	1476992092164	1476992092260	.	190
365939	3945705	For those of you that have not signed up, please join us for the Walk.	For those of you that have not signed up, please join us for the Walk.	187449721	1476992094836	1476992095212	SHIFT	16
365939	3945705	For those of you that have not signed up, please join us for the Walk.	For those of you that have not signed up, please join us for the Walk.	187449725	1476992095132	1476992095213	F	70
365939	3945705	For those of you that have not signed up, please join us for the Walk.	For those of you that have not signed up, please join us for the Walk.	187449727	1476992095252	1476992095324	o	79
365939	3945705	For those of you that have not signed up, please join us for the Walk.	For those of you that have not signed up, please join us for the Walk.	187449729	1476992095325	1476992095372	r	82
365939	3945705	For those of you that have not signed up, please join us for the Walk.	For those of you that have not signed up, please join us for the Walk.	187449732	1476992095724	1476992095836	 	32
365939	3945705	For those of you that have not signed up, please join us for the Walk.	For those of you that have not signed up, please join us for the Walk.	187449745	1476992095812	1476992095892	t	84
365939	3945705	For those of you that have not signed up, please join us for the Walk.	For those of you that have not signed up, please join us for the Walk.	187449751	1476992095908	1476992096052	h	72
365939	3945705	For those of you that have not signed up, please join us for the Walk.	For those of you that have not signed up, please join us for the Walk.	187449754	1476992095988	1476992096077	o	79
365939	3945705	For those of you that have not signed up, please join us for the Walk.	For those of you that have not signed up, please join us for the Walk.	187449760	1476992096053	1476992096188	s	83
365939	3945705	For those of you that have not signed up, please join us for the Walk.	For those of you that have not signed up, please join us for the Walk.	187449765	1476992096157	1476992096252	e	69
365939	3945705	For those of you that have not signed up, please join us for the Walk.	For those of you that have not signed up, please join us for the Walk.	187449775	1476992096212	1476992096308	 	32
365939	3945705	For those of you that have not signed up, please join us for the Walk.	For those of you that have not signed up, please join us for the Walk.	187449778	1476992096309	1476992096380	o	79
365939	3945705	For those of you that have not signed up, please join us for the Walk.	For those of you that have not signed up, please join us for the Walk.	187449782	1476992096381	1476992096516	f	70
365939	3945705	For those of you that have not signed up, please join us for the Walk.	For those of you that have not signed up, please join us for the Walk.	187449787	1476992096452	1476992096548	 	32
365939	3945705	For those of you that have not signed up, please join us for the Walk.	For those of you that have not signed up, please join us for the Walk.	187449792	1476992096517	1476992096596	y	89
365939	3945705	For those of you that have not signed up, please join us for the Walk.	For those of you that have not signed up, please join us for the Walk.	187449797	1476992096597	1476992096708	o	79
365939	3945705	For those of you that have not signed up, please join us for the Walk.	For those of you that have not signed up, please join us for the Walk.	187449809	1476992096684	1476992096773	u	85
365939	3945705	For those of you that have not signed up, please join us for the Walk.	For those of you that have not signed up, please join us for the Walk.	187449810	1476992096748	1476992096868	 	32
365939	3945705	For those of you that have not signed up, please join us for the Walk.	For those of you that have not signed up, please join us for the Walk.	187449812	1476992096836	1476992096908	t	84
365939	3945705	For those of you that have not signed up, please join us for the Walk.	For those of you that have not signed up, please join us for the Walk.	187449815	1476992096908	1476992096996	h	72
365939	3945705	For those of you that have not signed up, please join us for the Walk.	For those of you that have not signed up, please join us for the Walk.	187449818	1476992097036	1476992097182	a	65
365939	3945705	For those of you that have not signed up, please join us for the Walk.	For those of you that have not signed up, please join us for the Walk.	187449843	1476992097100	1476992097228	t	84
365939	3945705	For those of you that have not signed up, please join us for the Walk.	For those of you that have not signed up, please join us for the Walk.	187449848	1476992097184	1476992097260	 	32
365939	3945705	For those of you that have not signed up, please join us for the Walk.	For those of you that have not signed up, please join us for the Walk.	187449851	1476992097228	1476992097317	h	72
365939	3945705	For those of you that have not signed up, please join us for the Walk.	For those of you that have not signed up, please join us for the Walk.	187449855	1476992097300	1476992097407	a	65
365939	3945705	For those of you that have not signed up, please join us for the Walk.	For those of you that have not signed up, please join us for the Walk.	187449860	1476992097380	1476992097500	v	86
365939	3945705	For those of you that have not signed up, please join us for the Walk.	For those of you that have not signed up, please join us for the Walk.	187449864	1476992097501	1476992097620	e	69
365939	3945705	For those of you that have not signed up, please join us for the Walk.	For those of you that have not signed up, please join us for the Walk.	187449927	1476992097564	1476992097716	 	32
365939	3945705	For those of you that have not signed up, please join us for the Walk.	For those of you that have not signed up, please join us for the Walk.	187449935	1476992098292	1476992098452	n	78
365939	3945705	For those of you that have not signed up, please join us for the Walk.	For those of you that have not signed up, please join us for the Walk.	187449941	1476992098429	1476992098540	o	79
365939	3945705	For those of you that have not signed up, please join us for the Walk.	For those of you that have not signed up, please join us for the Walk.	187449950	1476992098541	1476992098660	t	84
365939	3945705	For those of you that have not signed up, please join us for the Walk.	For those of you that have not signed up, please join us for the Walk.	187449959	1476992098612	1476992098700	 	32
365939	3945705	For those of you that have not signed up, please join us for the Walk.	For those of you that have not signed up, please join us for the Walk.	187449968	1476992098756	1476992098776	s	83
365939	3945705	For those of you that have not signed up, please join us for the Walk.	For those of you that have not signed up, please join us for the Walk.	187450004	1476992099196	1476992099252	i	73
365939	3945705	For those of you that have not signed up, please join us for the Walk.	For those of you that have not signed up, please join us for the Walk.	187450007	1476992099276	1476992099340	g	71
365939	3945705	For those of you that have not signed up, please join us for the Walk.	For those of you that have not signed up, please join us for the Walk.	187450009	1476992099374	1476992099468	n	78
365939	3945705	For those of you that have not signed up, please join us for the Walk.	For those of you that have not signed up, please join us for the Walk.	187450010	1476992099420	1476992099484	e	69
365939	3945705	For those of you that have not signed up, please join us for the Walk.	For those of you that have not signed up, please join us for the Walk.	187450011	1476992099580	1476992099660	d	68
365939	3945705	For those of you that have not signed up, please join us for the Walk.	For those of you that have not signed up, please join us for the Walk.	187450041	1476992099636	1476992099756	 	32
365939	3945705	For those of you that have not signed up, please join us for the Walk.	For those of you that have not signed up, please join us for the Walk.	187450047	1476992099708	1476992099836	u	85
365939	3945705	For those of you that have not signed up, please join us for the Walk.	For those of you that have not signed up, please join us for the Walk.	187450053	1476992099788	1476992099860	p	80
365939	3945705	For those of you that have not signed up, please join us for the Walk.	For those of you that have not signed up, please join us for the Walk.	187450059	1476992100004	1476992100076	,	188
365939	3945705	For those of you that have not signed up, please join us for the Walk.	For those of you that have not signed up, please join us for the Walk.	187450063	1476992100052	1476992100165	 	32
365939	3945705	For those of you that have not signed up, please join us for the Walk.	For those of you that have not signed up, please join us for the Walk.	187450067	1476992100165	1476992100236	p	80
365939	3945705	For those of you that have not signed up, please join us for the Walk.	For those of you that have not signed up, please join us for the Walk.	187450071	1476992100332	1476992100436	l	76
365939	3945705	For those of you that have not signed up, please join us for the Walk.	For those of you that have not signed up, please join us for the Walk.	187450073	1476992100396	1476992100476	e	69
365939	3945705	For those of you that have not signed up, please join us for the Walk.	For those of you that have not signed up, please join us for the Walk.	187450110	1476992100476	1476992100652	a	65
365939	3945705	For those of you that have not signed up, please join us for the Walk.	For those of you that have not signed up, please join us for the Walk.	187450078	1476992100556	1476992100636	s	83
365939	3945705	For those of you that have not signed up, please join us for the Walk.	For those of you that have not signed up, please join us for the Walk.	187450115	1476992100604	1476992100700	e	69
365939	3945705	For those of you that have not signed up, please join us for the Walk.	For those of you that have not signed up, please join us for the Walk.	187450117	1476992100652	1476992100772	 	32
365939	3945705	For those of you that have not signed up, please join us for the Walk.	For those of you that have not signed up, please join us for the Walk.	187450122	1476992100740	1476992100876	j	74
365939	3945705	For those of you that have not signed up, please join us for the Walk.	For those of you that have not signed up, please join us for the Walk.	187450125	1476992100828	1476992101044	o	79
365939	3945705	For those of you that have not signed up, please join us for the Walk.	For those of you that have not signed up, please join us for the Walk.	187450130	1476992100940	1476992101084	i	73
365939	3945705	For those of you that have not signed up, please join us for the Walk.	For those of you that have not signed up, please join us for the Walk.	187450148	1476992101045	1476992101156	n	78
365939	3945705	For those of you that have not signed up, please join us for the Walk.	For those of you that have not signed up, please join us for the Walk.	187450150	1476992101156	1476992101252	 	32
365939	3945705	For those of you that have not signed up, please join us for the Walk.	For those of you that have not signed up, please join us for the Walk.	187450152	1476992101300	1476992101380	u	85
365939	3945705	For those of you that have not signed up, please join us for the Walk.	For those of you that have not signed up, please join us for the Walk.	187450153	1476992101420	1476992101508	s	83
365939	3945705	For those of you that have not signed up, please join us for the Walk.	For those of you that have not signed up, please join us for the Walk.	187450154	1476992101500	1476992101612	 	32
365939	3945705	For those of you that have not signed up, please join us for the Walk.	For those of you that have not signed up, please join us for the Walk.	187450171	1476992101580	1476992101660	f	70
365939	3945705	For those of you that have not signed up, please join us for the Walk.	For those of you that have not signed up, please join us for the Walk.	187450174	1476992101700	1476992101772	o	79
365939	3945705	For those of you that have not signed up, please join us for the Walk.	For those of you that have not signed up, please join us for the Walk.	187450178	1476992101772	1476992101844	r	82
365939	3945705	For those of you that have not signed up, please join us for the Walk.	For those of you that have not signed up, please join us for the Walk.	187450182	1476992101845	1476992101956	 	32
365939	3945705	For those of you that have not signed up, please join us for the Walk.	For those of you that have not signed up, please join us for the Walk.	187450187	1476992101932	1476992102012	t	84
365939	3945705	For those of you that have not signed up, please join us for the Walk.	For those of you that have not signed up, please join us for the Walk.	187450193	1476992102044	1476992102140	h	72
365939	3945705	For those of you that have not signed up, please join us for the Walk.	For those of you that have not signed up, please join us for the Walk.	187450233	1476992102142	1476992102252	e	69
365939	3945705	For those of you that have not signed up, please join us for the Walk.	For those of you that have not signed up, please join us for the Walk.	187450237	1476992102252	1476992102389	 	32
365939	3945705	For those of you that have not signed up, please join us for the Walk.	For those of you that have not signed up, please join us for the Walk.	187450242	1476992102412	1476992102684	SHIFT	16
365939	3945705	For those of you that have not signed up, please join us for the Walk.	For those of you that have not signed up, please join us for the Walk.	187450247	1476992102596	1476992102684	W	87
365939	3945705	For those of you that have not signed up, please join us for the Walk.	For those of you that have not signed up, please join us for the Walk.	187450253	1476992102788	1476992102884	a	65
365939	3945705	For those of you that have not signed up, please join us for the Walk.	For those of you that have not signed up, please join us for the Walk.	187450258	1476992102924	1476992103044	l	76
365939	3945705	For those of you that have not signed up, please join us for the Walk.	For those of you that have not signed up, please join us for the Walk.	187450266	1476992103004	1476992103140	k	75
365939	3945705	For those of you that have not signed up, please join us for the Walk.	For those of you that have not signed up, please join us for the Walk.	187450272	1476992103156	1476992103276	.	190
365939	3945721	Feel free to use Robinson if he doesn't suffer a setback.	Fell free to use Robinson if he doesn't suffer a setback.	187450544	1476992107693	1476992107868	SHIFT	16
365939	3945721	Feel free to use Robinson if he doesn't suffer a setback.	Fell free to use Robinson if he doesn't suffer a setback.	187450550	1476992107773	1476992107917	F	70
365939	3945721	Feel free to use Robinson if he doesn't suffer a setback.	Fell free to use Robinson if he doesn't suffer a setback.	187450556	1476992107901	1476992108013	e	69
365939	3945721	Feel free to use Robinson if he doesn't suffer a setback.	Fell free to use Robinson if he doesn't suffer a setback.	187450560	1476992108013	1476992108052	l	76
365939	3945721	Feel free to use Robinson if he doesn't suffer a setback.	Fell free to use Robinson if he doesn't suffer a setback.	187450566	1476992108165	1476992108244	l	76
365939	3945721	Feel free to use Robinson if he doesn't suffer a setback.	Fell free to use Robinson if he doesn't suffer a setback.	187450586	1476992108212	1476992108316	 	32
365939	3945721	Feel free to use Robinson if he doesn't suffer a setback.	Fell free to use Robinson if he doesn't suffer a setback.	187450590	1476992108285	1476992108340	f	70
365939	3945721	Feel free to use Robinson if he doesn't suffer a setback.	Fell free to use Robinson if he doesn't suffer a setback.	187450595	1476992108445	1476992108532	r	82
365939	3945721	Feel free to use Robinson if he doesn't suffer a setback.	Fell free to use Robinson if he doesn't suffer a setback.	187450598	1476992108493	1476992108564	e	69
365939	3945721	Feel free to use Robinson if he doesn't suffer a setback.	Fell free to use Robinson if he doesn't suffer a setback.	187450601	1476992108645	1476992108772	e	69
365939	3945721	Feel free to use Robinson if he doesn't suffer a setback.	Fell free to use Robinson if he doesn't suffer a setback.	187450615	1476992108716	1476992108820	 	32
365939	3945721	Feel free to use Robinson if he doesn't suffer a setback.	Fell free to use Robinson if he doesn't suffer a setback.	187450620	1476992108820	1476992108956	t	84
365939	3945721	Feel free to use Robinson if he doesn't suffer a setback.	Fell free to use Robinson if he doesn't suffer a setback.	187450617	1476992108876	1476992108924	o	79
365939	3945721	Feel free to use Robinson if he doesn't suffer a setback.	Fell free to use Robinson if he doesn't suffer a setback.	187450624	1476992108972	1476992109052	 	32
365939	3945721	Feel free to use Robinson if he doesn't suffer a setback.	Fell free to use Robinson if he doesn't suffer a setback.	187450628	1476992109053	1476992109124	u	85
365939	3945721	Feel free to use Robinson if he doesn't suffer a setback.	Fell free to use Robinson if he doesn't suffer a setback.	187450632	1476992109156	1476992109285	s	83
365939	3945721	Feel free to use Robinson if he doesn't suffer a setback.	Fell free to use Robinson if he doesn't suffer a setback.	187450649	1476992109229	1476992109308	e	69
365939	3945721	Feel free to use Robinson if he doesn't suffer a setback.	Fell free to use Robinson if he doesn't suffer a setback.	187450652	1476992109286	1476992109388	 	32
365939	3945721	Feel free to use Robinson if he doesn't suffer a setback.	Fell free to use Robinson if he doesn't suffer a setback.	187450653	1476992109340	1476992109532	SHIFT	16
365939	3945721	Feel free to use Robinson if he doesn't suffer a setback.	Fell free to use Robinson if he doesn't suffer a setback.	187450654	1476992109429	1476992109533	R	82
365939	3945721	Feel free to use Robinson if he doesn't suffer a setback.	Fell free to use Robinson if he doesn't suffer a setback.	187450655	1476992109556	1476992109636	o	79
365939	3945721	Feel free to use Robinson if he doesn't suffer a setback.	Fell free to use Robinson if he doesn't suffer a setback.	187450656	1476992109676	1476992109740	b	66
365939	3945721	Feel free to use Robinson if he doesn't suffer a setback.	Fell free to use Robinson if he doesn't suffer a setback.	187450659	1476992109812	1476992109932	i	73
365939	3945721	Feel free to use Robinson if he doesn't suffer a setback.	Fell free to use Robinson if he doesn't suffer a setback.	187450697	1476992109900	1476992110028	n	78
365939	3945721	Feel free to use Robinson if he doesn't suffer a setback.	Fell free to use Robinson if he doesn't suffer a setback.	187450703	1476992110052	1476992110108	s	83
365939	3945721	Feel free to use Robinson if he doesn't suffer a setback.	Fell free to use Robinson if he doesn't suffer a setback.	187450707	1476992110172	1476992110284	o	79
365939	3945721	Feel free to use Robinson if he doesn't suffer a setback.	Fell free to use Robinson if he doesn't suffer a setback.	187450713	1476992110252	1476992110364	n	78
365939	3945721	Feel free to use Robinson if he doesn't suffer a setback.	Fell free to use Robinson if he doesn't suffer a setback.	187450716	1476992110332	1476992110404	 	32
365939	3945721	Feel free to use Robinson if he doesn't suffer a setback.	Fell free to use Robinson if he doesn't suffer a setback.	187450723	1476992110476	1476992110532	i	73
365939	3945721	Feel free to use Robinson if he doesn't suffer a setback.	Fell free to use Robinson if he doesn't suffer a setback.	187450731	1476992110535	1476992110644	f	70
365939	3945721	Feel free to use Robinson if he doesn't suffer a setback.	Fell free to use Robinson if he doesn't suffer a setback.	187450734	1476992110588	1476992110668	 	32
365939	3945721	Feel free to use Robinson if he doesn't suffer a setback.	Fell free to use Robinson if he doesn't suffer a setback.	187450737	1476992110684	1476992110788	h	72
365939	3945721	Feel free to use Robinson if he doesn't suffer a setback.	Fell free to use Robinson if he doesn't suffer a setback.	187450739	1476992110764	1476992110836	e	69
365939	3945721	Feel free to use Robinson if he doesn't suffer a setback.	Fell free to use Robinson if he doesn't suffer a setback.	187450741	1476992110852	1476992110956	 	32
365939	3945721	Feel free to use Robinson if he doesn't suffer a setback.	Fell free to use Robinson if he doesn't suffer a setback.	187450759	1476992110957	1476992111012	d	68
365939	3945721	Feel free to use Robinson if he doesn't suffer a setback.	Fell free to use Robinson if he doesn't suffer a setback.	187450766	1476992111044	1476992111132	o	79
365939	3945721	Feel free to use Robinson if he doesn't suffer a setback.	Fell free to use Robinson if he doesn't suffer a setback.	187450778	1476992111133	1476992111236	e	69
365939	3945721	Feel free to use Robinson if he doesn't suffer a setback.	Fell free to use Robinson if he doesn't suffer a setback.	187450789	1476992111197	1476992111308	s	83
365939	3945721	Feel free to use Robinson if he doesn't suffer a setback.	Fell free to use Robinson if he doesn't suffer a setback.	187450808	1476992111268	1476992111412	n	78
365939	3945721	Feel free to use Robinson if he doesn't suffer a setback.	Fell free to use Robinson if he doesn't suffer a setback.	187450809	1476992111348	1476992111474	'	222
365939	3945721	Feel free to use Robinson if he doesn't suffer a setback.	Fell free to use Robinson if he doesn't suffer a setback.	187450811	1476992111453	1476992111596	t	84
365939	3945721	Feel free to use Robinson if he doesn't suffer a setback.	Fell free to use Robinson if he doesn't suffer a setback.	187450815	1476992111540	1476992111644	 	32
365939	3945721	Feel free to use Robinson if he doesn't suffer a setback.	Fell free to use Robinson if he doesn't suffer a setback.	187450820	1476992111645	1476992111740	s	83
365939	3945721	Feel free to use Robinson if he doesn't suffer a setback.	Fell free to use Robinson if he doesn't suffer a setback.	187450826	1476992111756	1476992111828	u	85
365939	3945721	Feel free to use Robinson if he doesn't suffer a setback.	Fell free to use Robinson if he doesn't suffer a setback.	187450847	1476992111860	1476992111924	f	70
365939	3945721	Feel free to use Robinson if he doesn't suffer a setback.	Fell free to use Robinson if he doesn't suffer a setback.	187450851	1476992111996	1476992112060	f	70
365939	3945721	Feel free to use Robinson if he doesn't suffer a setback.	Fell free to use Robinson if he doesn't suffer a setback.	187450856	1476992112100	1476992112212	e	69
365939	3945721	Feel free to use Robinson if he doesn't suffer a setback.	Fell free to use Robinson if he doesn't suffer a setback.	187450862	1476992112213	1476992112332	r	82
365939	3945721	Feel free to use Robinson if he doesn't suffer a setback.	Fell free to use Robinson if he doesn't suffer a setback.	187450919	1476992112260	1476992112436	 	32
365939	3945721	Feel free to use Robinson if he doesn't suffer a setback.	Fell free to use Robinson if he doesn't suffer a setback.	187450923	1476992112508	1476992112628	a	65
365939	3945721	Feel free to use Robinson if he doesn't suffer a setback.	Fell free to use Robinson if he doesn't suffer a setback.	187450927	1476992112668	1476992112708	 	32
365939	3945721	Feel free to use Robinson if he doesn't suffer a setback.	Fell free to use Robinson if he doesn't suffer a setback.	187450930	1476992113116	1476992113276	s	83
365939	3945721	Feel free to use Robinson if he doesn't suffer a setback.	Fell free to use Robinson if he doesn't suffer a setback.	187450933	1476992113188	1476992113372	e	69
365939	3945721	Feel free to use Robinson if he doesn't suffer a setback.	Fell free to use Robinson if he doesn't suffer a setback.	187450961	1476992113324	1476992113404	t	84
365939	3945721	Feel free to use Robinson if he doesn't suffer a setback.	Fell free to use Robinson if he doesn't suffer a setback.	187450970	1476992113524	1476992113588	b	66
365939	3945721	Feel free to use Robinson if he doesn't suffer a setback.	Fell free to use Robinson if he doesn't suffer a setback.	187450976	1476992113636	1476992113772	a	65
365939	3945721	Feel free to use Robinson if he doesn't suffer a setback.	Fell free to use Robinson if he doesn't suffer a setback.	187450985	1476992113748	1476992113844	c	67
365939	3945721	Feel free to use Robinson if he doesn't suffer a setback.	Fell free to use Robinson if he doesn't suffer a setback.	187450993	1476992113845	1476992114012	k	75
365939	3945721	Feel free to use Robinson if he doesn't suffer a setback.	Fell free to use Robinson if he doesn't suffer a setback.	187450987	1476992113940	1476992114076	.	190
365939	3945740	Are you sure I don't need to be there?	Are you sure I don't need to be there?	187451248	1476992116668	1476992117428	SHIFT	16
365939	3945740	Are you sure I don't need to be there?	Are you sure I don't need to be there?	187451235	1476992116772	1476992116868	I	73
365939	3945740	Are you sure I don't need to be there?	Are you sure I don't need to be there?	187451241	1476992117220	1476992117284	BKSP	8
365939	3945740	Are you sure I don't need to be there?	Are you sure I don't need to be there?	187451246	1476992117316	1476992117396	A	65
365939	3945740	Are you sure I don't need to be there?	Are you sure I don't need to be there?	187451254	1476992117508	1476992117684	r	82
365939	3945740	Are you sure I don't need to be there?	Are you sure I don't need to be there?	187451261	1476992117612	1476992117732	e	69
365939	3945740	Are you sure I don't need to be there?	Are you sure I don't need to be there?	187451289	1476992117684	1476992117796	 	32
365939	3945740	Are you sure I don't need to be there?	Are you sure I don't need to be there?	187451291	1476992117820	1476992117908	y	89
365939	3945740	Are you sure I don't need to be there?	Are you sure I don't need to be there?	187451297	1476992117908	1476992118028	o	79
365939	3945740	Are you sure I don't need to be there?	Are you sure I don't need to be there?	187451300	1476992117996	1476992118084	u	85
365939	3945740	Are you sure I don't need to be there?	Are you sure I don't need to be there?	187451303	1476992118084	1476992118180	 	32
365939	3945740	Are you sure I don't need to be there?	Are you sure I don't need to be there?	187451363	1476992118148	1476992118228	s	83
365939	3945740	Are you sure I don't need to be there?	Are you sure I don't need to be there?	187451372	1476992118229	1476992118332	u	85
365939	3945740	Are you sure I don't need to be there?	Are you sure I don't need to be there?	187451382	1476992118348	1476992118468	r	82
365939	3945740	Are you sure I don't need to be there?	Are you sure I don't need to be there?	187451393	1476992118372	1476992118500	e	69
365939	3945740	Are you sure I don't need to be there?	Are you sure I don't need to be there?	187451398	1476992118444	1476992118540	 	32
365939	3945740	Are you sure I don't need to be there?	Are you sure I don't need to be there?	187451422	1476992118844	1476992118980	SHIFT	16
365939	3945740	Are you sure I don't need to be there?	Are you sure I don't need to be there?	187451405	1476992118898	1476992118956	I	73
365939	3945740	Are you sure I don't need to be there?	Are you sure I don't need to be there?	187451425	1476992118957	1476992119052	 	32
365939	3945740	Are you sure I don't need to be there?	Are you sure I don't need to be there?	187451430	1476992119116	1476992119212	d	68
365939	3945740	Are you sure I don't need to be there?	Are you sure I don't need to be there?	187451435	1476992119180	1476992119276	o	79
365939	3945740	Are you sure I don't need to be there?	Are you sure I don't need to be there?	187451444	1476992119212	1476992119428	n	78
365939	3945740	Are you sure I don't need to be there?	Are you sure I don't need to be there?	187451475	1476992119340	1476992119450	'	222
365939	3945740	Are you sure I don't need to be there?	Are you sure I don't need to be there?	187451479	1476992119430	1476992119523	t	84
365939	3945740	Are you sure I don't need to be there?	Are you sure I don't need to be there?	187451483	1476992119475	1476992119580	 	32
365939	3945740	Are you sure I don't need to be there?	Are you sure I don't need to be there?	187451485	1476992119596	1476992119688	n	78
365939	3945740	Are you sure I don't need to be there?	Are you sure I don't need to be there?	187451488	1476992119668	1476992119724	e	69
365939	3945740	Are you sure I don't need to be there?	Are you sure I don't need to be there?	187451490	1476992119804	1476992119852	e	69
365939	3945740	Are you sure I don't need to be there?	Are you sure I don't need to be there?	187451500	1476992119948	1476992120052	d	68
365939	3945740	Are you sure I don't need to be there?	Are you sure I don't need to be there?	187451510	1476992120020	1476992120124	 	32
365939	3945740	Are you sure I don't need to be there?	Are you sure I don't need to be there?	187451517	1476992120100	1476992120188	t	84
365939	3945740	Are you sure I don't need to be there?	Are you sure I don't need to be there?	187451528	1476992120220	1476992120300	o	79
365939	3945740	Are you sure I don't need to be there?	Are you sure I don't need to be there?	187451603	1476992120268	1476992120398	 	32
365939	3945740	Are you sure I don't need to be there?	Are you sure I don't need to be there?	187451606	1476992120372	1476992120427	b	66
365939	3945740	Are you sure I don't need to be there?	Are you sure I don't need to be there?	187451612	1476992120556	1476992120788	 	32
365939	3945740	Are you sure I don't need to be there?	Are you sure I don't need to be there?	187451621	1476992120996	1476992121060	BKSP	8
365939	3945740	Are you sure I don't need to be there?	Are you sure I don't need to be there?	187451630	1476992121060	1476992121148	e	69
365939	3945740	Are you sure I don't need to be there?	Are you sure I don't need to be there?	187451639	1476992121148	1476992121284	 	32
365939	3945740	Are you sure I don't need to be there?	Are you sure I don't need to be there?	187451657	1476992121252	1476992121340	t	84
365939	3945740	Are you sure I don't need to be there?	Are you sure I don't need to be there?	187451662	1476992121356	1476992121427	h	72
365939	3945740	Are you sure I don't need to be there?	Are you sure I don't need to be there?	187451667	1476992121388	1476992121468	e	69
365939	3945740	Are you sure I don't need to be there?	Are you sure I don't need to be there?	187451674	1476992121468	1476992121588	r	82
365939	3945740	Are you sure I don't need to be there?	Are you sure I don't need to be there?	187451677	1476992121556	1476992121652	e	69
365939	3945740	Are you sure I don't need to be there?	Are you sure I don't need to be there?	187451669	1476992121652	1476992121804	?	16
365939	3945748	Opposition leaders have urged him to call off the visit.	Opposition leaders have urged him to call off the visit. 	187451850	1476992123500	1476992123724	SHIFT	16
365939	3945748	Opposition leaders have urged him to call off the visit.	Opposition leaders have urged him to call off the visit. 	187451856	1476992123636	1476992123724	O	79
365939	3945748	Opposition leaders have urged him to call off the visit.	Opposition leaders have urged him to call off the visit. 	187451861	1476992123852	1476992123900	p	80
365939	3945748	Opposition leaders have urged him to call off the visit.	Opposition leaders have urged him to call off the visit. 	187451867	1476992124004	1476992124028	p	80
365939	3945748	Opposition leaders have urged him to call off the visit.	Opposition leaders have urged him to call off the visit. 	187451870	1476992124244	1476992124308	o	79
365939	3945748	Opposition leaders have urged him to call off the visit.	Opposition leaders have urged him to call off the visit. 	187451873	1476992124347	1476992124411	s	83
365939	3945748	Opposition leaders have urged him to call off the visit.	Opposition leaders have urged him to call off the visit. 	187451875	1476992124468	1476992124507	i	73
365939	3945748	Opposition leaders have urged him to call off the visit.	Opposition leaders have urged him to call off the visit. 	187451877	1476992124572	1476992124627	t	84
365939	3945748	Opposition leaders have urged him to call off the visit.	Opposition leaders have urged him to call off the visit. 	187451879	1476992124596	1476992124731	i	73
365939	3945748	Opposition leaders have urged him to call off the visit.	Opposition leaders have urged him to call off the visit. 	187451882	1476992124700	1476992124826	n	78
365939	3945748	Opposition leaders have urged him to call off the visit.	Opposition leaders have urged him to call off the visit. 	187452088	1476992124805	1476992124908	 	32
365939	3945748	Opposition leaders have urged him to call off the visit.	Opposition leaders have urged him to call off the visit. 	187452089	1476992124941	1476992125004	l	76
365939	3945748	Opposition leaders have urged him to call off the visit.	Opposition leaders have urged him to call off the visit. 	187452092	1476992125269	1476992125332	BKSP	8
365939	3945748	Opposition leaders have urged him to call off the visit.	Opposition leaders have urged him to call off the visit. 	187452096	1476992125381	1476992125460	BKSP	8
365939	3945748	Opposition leaders have urged him to call off the visit.	Opposition leaders have urged him to call off the visit. 	187452100	1476992125605	1476992125660	BKSP	8
365939	3945748	Opposition leaders have urged him to call off the visit.	Opposition leaders have urged him to call off the visit. 	187452105	1476992125741	1476992125820	BKSP	8
365939	3945748	Opposition leaders have urged him to call off the visit.	Opposition leaders have urged him to call off the visit. 	187452108	1476992125972	1476992126044	BKSP	8
365939	3945748	Opposition leaders have urged him to call off the visit.	Opposition leaders have urged him to call off the visit. 	187452110	1476992127908	1476992127972	t	84
365939	3945748	Opposition leaders have urged him to call off the visit.	Opposition leaders have urged him to call off the visit. 	187452113	1476992128029	1476992128148	i	73
365939	3945748	Opposition leaders have urged him to call off the visit.	Opposition leaders have urged him to call off the visit. 	187452115	1476992128108	1476992128260	o	79
365939	3945748	Opposition leaders have urged him to call off the visit.	Opposition leaders have urged him to call off the visit. 	187452119	1476992128261	1476992128388	n	78
365939	3945748	Opposition leaders have urged him to call off the visit.	Opposition leaders have urged him to call off the visit. 	187452079	1476992128390	1476992128476	 	32
365939	3945748	Opposition leaders have urged him to call off the visit.	Opposition leaders have urged him to call off the visit. 	187452081	1476992128492	1476992128604	l	76
365939	3945748	Opposition leaders have urged him to call off the visit.	Opposition leaders have urged him to call off the visit. 	187452084	1476992128548	1476992128660	e	69
365939	3945748	Opposition leaders have urged him to call off the visit.	Opposition leaders have urged him to call off the visit. 	187452086	1476992128661	1476992128812	a	65
365939	3945748	Opposition leaders have urged him to call off the visit.	Opposition leaders have urged him to call off the visit. 	187452114	1476992128788	1476992128836	d	68
365939	3945748	Opposition leaders have urged him to call off the visit.	Opposition leaders have urged him to call off the visit. 	187452118	1476992128956	1476992129116	e	69
365939	3945748	Opposition leaders have urged him to call off the visit.	Opposition leaders have urged him to call off the visit. 	187452121	1476992129020	1476992129148	r	82
365939	3945748	Opposition leaders have urged him to call off the visit.	Opposition leaders have urged him to call off the visit. 	187452127	1476992129084	1476992129220	s	83
365939	3945748	Opposition leaders have urged him to call off the visit.	Opposition leaders have urged him to call off the visit. 	187452132	1476992129196	1476992129292	 	32
365939	3945748	Opposition leaders have urged him to call off the visit.	Opposition leaders have urged him to call off the visit. 	187452140	1476992129332	1476992129444	h	72
365939	3945748	Opposition leaders have urged him to call off the visit.	Opposition leaders have urged him to call off the visit. 	187452174	1476992129396	1476992129588	a	65
365939	3945748	Opposition leaders have urged him to call off the visit.	Opposition leaders have urged him to call off the visit. 	187452179	1476992129540	1476992129676	v	86
365939	3945748	Opposition leaders have urged him to call off the visit.	Opposition leaders have urged him to call off the visit. 	187452182	1476992129677	1476992129804	e	69
365939	3945748	Opposition leaders have urged him to call off the visit.	Opposition leaders have urged him to call off the visit. 	187452187	1476992129805	1476992129908	 	32
365939	3945748	Opposition leaders have urged him to call off the visit.	Opposition leaders have urged him to call off the visit. 	187452190	1476992129940	1476992130028	u	85
365939	3945748	Opposition leaders have urged him to call off the visit.	Opposition leaders have urged him to call off the visit. 	187452191	1476992130068	1476992130164	r	82
365939	3945748	Opposition leaders have urged him to call off the visit.	Opposition leaders have urged him to call off the visit. 	187452214	1476992130276	1476992130420	g	71
365939	3945748	Opposition leaders have urged him to call off the visit.	Opposition leaders have urged him to call off the visit. 	187452217	1476992130420	1476992130509	e	69
365939	3945748	Opposition leaders have urged him to call off the visit.	Opposition leaders have urged him to call off the visit. 	187452220	1476992130612	1476992130724	d	68
365939	3945748	Opposition leaders have urged him to call off the visit.	Opposition leaders have urged him to call off the visit. 	187452224	1476992130692	1476992130796	 	32
365939	3945748	Opposition leaders have urged him to call off the visit.	Opposition leaders have urged him to call off the visit. 	187452225	1476992130836	1476992130948	h	72
365939	3945748	Opposition leaders have urged him to call off the visit.	Opposition leaders have urged him to call off the visit. 	187452239	1476992130950	1476992131148	i	73
365939	3945748	Opposition leaders have urged him to call off the visit.	Opposition leaders have urged him to call off the visit. 	187452243	1476992131092	1476992131228	m	77
365939	3945748	Opposition leaders have urged him to call off the visit.	Opposition leaders have urged him to call off the visit. 	187452246	1476992131172	1476992131281	 	32
365939	3945748	Opposition leaders have urged him to call off the visit.	Opposition leaders have urged him to call off the visit. 	187452251	1476992131260	1476992131373	t	84
365939	3945748	Opposition leaders have urged him to call off the visit.	Opposition leaders have urged him to call off the visit. 	187452278	1476992131348	1476992131444	o	79
365939	3945748	Opposition leaders have urged him to call off the visit.	Opposition leaders have urged him to call off the visit. 	187452282	1476992131445	1476992131572	 	32
365939	3945748	Opposition leaders have urged him to call off the visit.	Opposition leaders have urged him to call off the visit. 	187452288	1476992131525	1476992131628	c	67
365939	3945748	Opposition leaders have urged him to call off the visit.	Opposition leaders have urged him to call off the visit. 	187452295	1476992131604	1476992131732	a	65
365939	3945748	Opposition leaders have urged him to call off the visit.	Opposition leaders have urged him to call off the visit. 	187452301	1476992131668	1476992131733	l	76
365939	3945748	Opposition leaders have urged him to call off the visit.	Opposition leaders have urged him to call off the visit. 	187452306	1476992131757	1476992131868	l	76
365939	3945748	Opposition leaders have urged him to call off the visit.	Opposition leaders have urged him to call off the visit. 	187452351	1476992131870	1476992131948	 	32
365939	3945748	Opposition leaders have urged him to call off the visit.	Opposition leaders have urged him to call off the visit. 	187452354	1476992131988	1476992132076	o	79
365939	3945748	Opposition leaders have urged him to call off the visit.	Opposition leaders have urged him to call off the visit. 	187452359	1476992132044	1476992132124	f	70
365939	3945748	Opposition leaders have urged him to call off the visit.	Opposition leaders have urged him to call off the visit. 	187452363	1476992132140	1476992132252	 	32
365939	3945748	Opposition leaders have urged him to call off the visit.	Opposition leaders have urged him to call off the visit. 	187452371	1476992132532	1476992132596	BKSP	8
365939	3945748	Opposition leaders have urged him to call off the visit.	Opposition leaders have urged him to call off the visit. 	187452379	1476992132597	1476992132684	f	70
365939	3945748	Opposition leaders have urged him to call off the visit.	Opposition leaders have urged him to call off the visit. 	187452388	1476992132686	1476992132812	 	32
365939	3945748	Opposition leaders have urged him to call off the visit.	Opposition leaders have urged him to call off the visit. 	187452392	1476992132780	1476992132852	t	84
365939	3945748	Opposition leaders have urged him to call off the visit.	Opposition leaders have urged him to call off the visit. 	187452395	1476992132853	1476992132932	h	72
365939	3945748	Opposition leaders have urged him to call off the visit.	Opposition leaders have urged him to call off the visit. 	187452400	1476992132908	1476992133004	e	69
365939	3945748	Opposition leaders have urged him to call off the visit.	Opposition leaders have urged him to call off the visit. 	187452405	1476992133005	1476992133060	 	32
365939	3945748	Opposition leaders have urged him to call off the visit.	Opposition leaders have urged him to call off the visit. 	187452431	1476992133108	1476992133188	v	86
365939	3945748	Opposition leaders have urged him to call off the visit.	Opposition leaders have urged him to call off the visit. 	187452435	1476992133220	1476992133268	i	73
365939	3945748	Opposition leaders have urged him to call off the visit.	Opposition leaders have urged him to call off the visit. 	187452438	1476992133300	1476992133380	s	83
365939	3945748	Opposition leaders have urged him to call off the visit.	Opposition leaders have urged him to call off the visit. 	187452442	1476992133404	1476992133468	i	73
365939	3945748	Opposition leaders have urged him to call off the visit.	Opposition leaders have urged him to call off the visit. 	187452446	1476992133500	1476992133556	t	84
365939	3945748	Opposition leaders have urged him to call off the visit.	Opposition leaders have urged him to call off the visit. 	187452459	1476992133604	1476992133706	.	190
365939	3945748	Opposition leaders have urged him to call off the visit.	Opposition leaders have urged him to call off the visit. 	187452461	1476992133684	1476992133740	 	32
365939	3945766	England star Paul Gascoigne was one of the recipients of the loans.	England star Paul Gascoigne was one of the recipents of the loans.	187452713	1476992136228	1476992136404	SHIFT	16
365939	3945766	England star Paul Gascoigne was one of the recipients of the loans.	England star Paul Gascoigne was one of the recipents of the loans.	187452718	1476992136316	1476992136444	E	69
365939	3945766	England star Paul Gascoigne was one of the recipients of the loans.	England star Paul Gascoigne was one of the recipents of the loans.	187452722	1476992136492	1476992136604	n	78
365939	3945766	England star Paul Gascoigne was one of the recipients of the loans.	England star Paul Gascoigne was one of the recipents of the loans.	187452727	1476992136605	1476992136676	g	71
365939	3945766	England star Paul Gascoigne was one of the recipients of the loans.	England star Paul Gascoigne was one of the recipents of the loans.	187452731	1476992136804	1476992136892	l	76
365939	3945766	England star Paul Gascoigne was one of the recipients of the loans.	England star Paul Gascoigne was one of the recipents of the loans.	187452734	1476992136964	1476992137076	a	65
365939	3945766	England star Paul Gascoigne was one of the recipients of the loans.	England star Paul Gascoigne was one of the recipents of the loans.	187452753	1476992137108	1476992137212	n	78
365939	3945766	England star Paul Gascoigne was one of the recipients of the loans.	England star Paul Gascoigne was one of the recipents of the loans.	187452758	1476992137284	1476992137404	d	68
365939	3945766	England star Paul Gascoigne was one of the recipients of the loans.	England star Paul Gascoigne was one of the recipents of the loans.	187452761	1476992137405	1476992137532	 	32
365939	3945766	England star Paul Gascoigne was one of the recipients of the loans.	England star Paul Gascoigne was one of the recipents of the loans.	187452763	1476992137452	1476992137628	SHIFT	16
365939	3945766	England star Paul Gascoigne was one of the recipients of the loans.	England star Paul Gascoigne was one of the recipents of the loans.	187452767	1476992137532	1476992137660	S	83
365939	3945766	England star Paul Gascoigne was one of the recipients of the loans.	England star Paul Gascoigne was one of the recipents of the loans.	187452769	1476992137660	1476992137740	t	84
365939	3945766	England star Paul Gascoigne was one of the recipients of the loans.	England star Paul Gascoigne was one of the recipents of the loans.	187452907	1476992137804	1476992137924	a	65
365939	3945766	England star Paul Gascoigne was one of the recipients of the loans.	England star Paul Gascoigne was one of the recipents of the loans.	187452914	1476992137884	1476992137972	r	82
365939	3945766	England star Paul Gascoigne was one of the recipients of the loans.	England star Paul Gascoigne was one of the recipents of the loans.	187452920	1476992138684	1476992138740	BKSP	8
365939	3945766	England star Paul Gascoigne was one of the recipients of the loans.	England star Paul Gascoigne was one of the recipents of the loans.	187452925	1476992138804	1476992138876	BKSP	8
365939	3945766	England star Paul Gascoigne was one of the recipients of the loans.	England star Paul Gascoigne was one of the recipents of the loans.	187452930	1476992138956	1476992139004	BKSP	8
365939	3945766	England star Paul Gascoigne was one of the recipients of the loans.	England star Paul Gascoigne was one of the recipents of the loans.	187452934	1476992139076	1476992139148	BKSP	8
365939	3945766	England star Paul Gascoigne was one of the recipients of the loans.	England star Paul Gascoigne was one of the recipents of the loans.	187452941	1476992139196	1476992139285	s	83
365939	3945766	England star Paul Gascoigne was one of the recipients of the loans.	England star Paul Gascoigne was one of the recipents of the loans.	187452945	1476992139260	1476992139356	t	84
365939	3945766	England star Paul Gascoigne was one of the recipients of the loans.	England star Paul Gascoigne was one of the recipents of the loans.	187452950	1476992139388	1476992139500	a	65
365939	3945766	England star Paul Gascoigne was one of the recipients of the loans.	England star Paul Gascoigne was one of the recipents of the loans.	187452991	1476992139476	1476992139548	r	82
365939	3945766	England star Paul Gascoigne was one of the recipients of the loans.	England star Paul Gascoigne was one of the recipents of the loans.	187452996	1476992139612	1476992139724	 	32
365939	3945766	England star Paul Gascoigne was one of the recipients of the loans.	England star Paul Gascoigne was one of the recipents of the loans.	187453002	1476992139684	1476992139836	SHIFT	16
365939	3945766	England star Paul Gascoigne was one of the recipients of the loans.	England star Paul Gascoigne was one of the recipents of the loans.	187453008	1476992139764	1476992139836	P	80
365939	3945766	England star Paul Gascoigne was one of the recipients of the loans.	England star Paul Gascoigne was one of the recipents of the loans.	187453015	1476992139948	1476992140048	a	65
365939	3945766	England star Paul Gascoigne was one of the recipients of the loans.	England star Paul Gascoigne was one of the recipents of the loans.	187453019	1476992140028	1476992140084	u	85
365939	3945766	England star Paul Gascoigne was one of the recipients of the loans.	England star Paul Gascoigne was one of the recipents of the loans.	187453023	1476992140188	1476992140284	l	76
365939	3945766	England star Paul Gascoigne was one of the recipients of the loans.	England star Paul Gascoigne was one of the recipents of the loans.	187453075	1476992140236	1476992140412	 	32
365939	3945766	England star Paul Gascoigne was one of the recipients of the loans.	England star Paul Gascoigne was one of the recipents of the loans.	187453080	1476992140286	1476992140492	SHIFT	16
365939	3945766	England star Paul Gascoigne was one of the recipients of the loans.	England star Paul Gascoigne was one of the recipents of the loans.	187453085	1476992140412	1476992140492	G	71
365939	3945766	England star Paul Gascoigne was one of the recipients of the loans.	England star Paul Gascoigne was one of the recipents of the loans.	187453089	1476992140636	1476992140755	a	65
365939	3945766	England star Paul Gascoigne was one of the recipients of the loans.	England star Paul Gascoigne was one of the recipents of the loans.	187453096	1476992140812	1476992140915	s	83
365939	3945766	England star Paul Gascoigne was one of the recipients of the loans.	England star Paul Gascoigne was one of the recipents of the loans.	187453102	1476992141012	1476992141115	c	67
365939	3945766	England star Paul Gascoigne was one of the recipients of the loans.	England star Paul Gascoigne was one of the recipents of the loans.	187453106	1476992141196	1476992141291	o	79
365939	3945766	England star Paul Gascoigne was one of the recipients of the loans.	England star Paul Gascoigne was one of the recipents of the loans.	187453134	1476992141404	1476992141475	i	73
365939	3945766	England star Paul Gascoigne was one of the recipients of the loans.	England star Paul Gascoigne was one of the recipents of the loans.	187453138	1476992141637	1476992141707	g	71
365939	3945766	England star Paul Gascoigne was one of the recipients of the loans.	England star Paul Gascoigne was one of the recipents of the loans.	187453144	1476992141835	1476992141932	n	78
365939	3945766	England star Paul Gascoigne was one of the recipients of the loans.	England star Paul Gascoigne was one of the recipents of the loans.	187453151	1476992141932	1476992142066	e	69
365939	3945766	England star Paul Gascoigne was one of the recipients of the loans.	England star Paul Gascoigne was one of the recipents of the loans.	187453181	1476992142044	1476992142196	 	32
365939	3945766	England star Paul Gascoigne was one of the recipients of the loans.	England star Paul Gascoigne was one of the recipents of the loans.	187453185	1476992142196	1476992142301	w	87
365939	3945766	England star Paul Gascoigne was one of the recipients of the loans.	England star Paul Gascoigne was one of the recipents of the loans.	187453193	1476992142301	1476992142508	a	65
365939	3945766	England star Paul Gascoigne was one of the recipients of the loans.	England star Paul Gascoigne was one of the recipents of the loans.	187453199	1476992142397	1476992142508	s	83
365939	3945766	England star Paul Gascoigne was one of the recipients of the loans.	England star Paul Gascoigne was one of the recipents of the loans.	187453205	1476992142462	1476992142556	 	32
365939	3945766	England star Paul Gascoigne was one of the recipients of the loans.	England star Paul Gascoigne was one of the recipents of the loans.	187453211	1476992142597	1476992142708	o	79
365939	3945766	England star Paul Gascoigne was one of the recipients of the loans.	England star Paul Gascoigne was one of the recipents of the loans.	187453245	1476992142685	1476992142813	n	78
365939	3945766	England star Paul Gascoigne was one of the recipients of the loans.	England star Paul Gascoigne was one of the recipents of the loans.	187453248	1476992142757	1476992142900	e	69
365939	3945766	England star Paul Gascoigne was one of the recipients of the loans.	England star Paul Gascoigne was one of the recipents of the loans.	187453250	1476992142868	1476992142965	 	32
365939	3945766	England star Paul Gascoigne was one of the recipients of the loans.	England star Paul Gascoigne was one of the recipents of the loans.	187453253	1476992142965	1476992143060	o	79
365939	3945766	England star Paul Gascoigne was one of the recipients of the loans.	England star Paul Gascoigne was one of the recipents of the loans.	187453256	1476992143061	1476992143149	f	70
365939	3945766	England star Paul Gascoigne was one of the recipients of the loans.	England star Paul Gascoigne was one of the recipents of the loans.	187453259	1476992143149	1476992143284	 	32
365939	3945766	England star Paul Gascoigne was one of the recipients of the loans.	England star Paul Gascoigne was one of the recipents of the loans.	187453274	1476992143252	1476992143372	t	84
365939	3945766	England star Paul Gascoigne was one of the recipients of the loans.	England star Paul Gascoigne was one of the recipents of the loans.	187453278	1476992143332	1476992143420	h	72
365939	3945766	England star Paul Gascoigne was one of the recipients of the loans.	England star Paul Gascoigne was one of the recipents of the loans.	187453283	1476992143373	1476992143516	e	69
365939	3945766	England star Paul Gascoigne was one of the recipients of the loans.	England star Paul Gascoigne was one of the recipents of the loans.	187453289	1476992143476	1476992143604	 	32
365939	3945766	England star Paul Gascoigne was one of the recipients of the loans.	England star Paul Gascoigne was one of the recipents of the loans.	187453295	1476992143572	1476992143708	r	82
365939	3945766	England star Paul Gascoigne was one of the recipients of the loans.	England star Paul Gascoigne was one of the recipents of the loans.	187453386	1476992143652	1476992143756	e	69
365939	3945766	England star Paul Gascoigne was one of the recipients of the loans.	England star Paul Gascoigne was one of the recipents of the loans.	187453391	1476992143892	1476992143988	c	67
365939	3945766	England star Paul Gascoigne was one of the recipients of the loans.	England star Paul Gascoigne was one of the recipents of the loans.	187453397	1476992144460	1476992144540	i	73
365939	3945766	England star Paul Gascoigne was one of the recipients of the loans.	England star Paul Gascoigne was one of the recipents of the loans.	187453407	1476992144700	1476992144780	p	80
365939	3945766	England star Paul Gascoigne was one of the recipients of the loans.	England star Paul Gascoigne was one of the recipents of the loans.	187453413	1476992144796	1476992144860	e	69
365939	3945766	England star Paul Gascoigne was one of the recipients of the loans.	England star Paul Gascoigne was one of the recipents of the loans.	187453420	1476992145004	1476992145108	n	78
365939	3945766	England star Paul Gascoigne was one of the recipients of the loans.	England star Paul Gascoigne was one of the recipents of the loans.	187453454	1476992145140	1476992145285	t	84
365939	3945766	England star Paul Gascoigne was one of the recipients of the loans.	England star Paul Gascoigne was one of the recipents of the loans.	187453460	1476992145285	1476992145390	s	83
365939	3945766	England star Paul Gascoigne was one of the recipients of the loans.	England star Paul Gascoigne was one of the recipents of the loans.	187453465	1476992145356	1476992145452	 	32
365939	3945766	England star Paul Gascoigne was one of the recipients of the loans.	England star Paul Gascoigne was one of the recipents of the loans.	187453467	1476992145516	1476992145620	o	79
365939	3945766	England star Paul Gascoigne was one of the recipients of the loans.	England star Paul Gascoigne was one of the recipents of the loans.	187453473	1476992145621	1476992145692	f	70
365939	3945766	England star Paul Gascoigne was one of the recipients of the loans.	England star Paul Gascoigne was one of the recipents of the loans.	187453484	1476992145694	1476992145810	 	32
365939	3945766	England star Paul Gascoigne was one of the recipients of the loans.	England star Paul Gascoigne was one of the recipents of the loans.	187453487	1476992145788	1476992145882	t	84
365939	3945766	England star Paul Gascoigne was one of the recipients of the loans.	England star Paul Gascoigne was one of the recipents of the loans.	187453492	1476992145860	1476992145940	h	72
365939	3945766	England star Paul Gascoigne was one of the recipients of the loans.	England star Paul Gascoigne was one of the recipents of the loans.	187453496	1476992145941	1476992146060	e	69
365939	3945766	England star Paul Gascoigne was one of the recipients of the loans.	England star Paul Gascoigne was one of the recipents of the loans.	187453546	1476992146029	1476992146140	 	32
365939	3945766	England star Paul Gascoigne was one of the recipients of the loans.	England star Paul Gascoigne was one of the recipents of the loans.	187453548	1476992146116	1476992146212	l	76
365939	3945766	England star Paul Gascoigne was one of the recipients of the loans.	England star Paul Gascoigne was one of the recipents of the loans.	187453550	1476992146324	1476992146396	o	79
365939	3945766	England star Paul Gascoigne was one of the recipients of the loans.	England star Paul Gascoigne was one of the recipents of the loans.	187453553	1476992146420	1476992146532	a	65
365939	3945766	England star Paul Gascoigne was one of the recipients of the loans.	England star Paul Gascoigne was one of the recipents of the loans.	187453558	1476992146572	1476992146668	n	78
365939	3945766	England star Paul Gascoigne was one of the recipients of the loans.	England star Paul Gascoigne was one of the recipents of the loans.	187453564	1476992146669	1476992146764	d	68
365939	3945766	England star Paul Gascoigne was one of the recipients of the loans.	England star Paul Gascoigne was one of the recipents of the loans.	187453628	1476992146766	1476992146812	s	83
365939	3945766	England star Paul Gascoigne was one of the recipients of the loans.	England star Paul Gascoigne was one of the recipents of the loans.	187453632	1476992147013	1476992147092	BKSP	8
365939	3945766	England star Paul Gascoigne was one of the recipients of the loans.	England star Paul Gascoigne was one of the recipents of the loans.	187453637	1476992147169	1476992147245	BKSP	8
365939	3945766	England star Paul Gascoigne was one of the recipients of the loans.	England star Paul Gascoigne was one of the recipents of the loans.	187453640	1476992147276	1476992147356	s	83
365939	3945766	England star Paul Gascoigne was one of the recipients of the loans.	England star Paul Gascoigne was one of the recipents of the loans.	187453641	1476992147388	1476992147476	.	190
365939	3945784	ITT owns the Sheraton hotel chain.	ITT owns the Sheraton hotel chain. 	187453827	1476992149168	1476992150032	SHIFT	16
365939	3945784	ITT owns the Sheraton hotel chain.	ITT owns the Sheraton hotel chain. 	187453812	1476992149544	1476992149640	I	73
365939	3945784	ITT owns the Sheraton hotel chain.	ITT owns the Sheraton hotel chain. 	187453816	1476992149696	1476992149752	T	84
365939	3945784	ITT owns the Sheraton hotel chain.	ITT owns the Sheraton hotel chain. 	187453821	1476992149840	1476992149952	T	84
365939	3945784	ITT owns the Sheraton hotel chain.	ITT owns the Sheraton hotel chain. 	187453830	1476992149920	1476992150033	 	32
365939	3945784	ITT owns the Sheraton hotel chain.	ITT owns the Sheraton hotel chain. 	187453835	1476992150112	1476992150224	o	79
365939	3945784	ITT owns the Sheraton hotel chain.	ITT owns the Sheraton hotel chain. 	187453857	1476992150264	1476992150376	w	87
365939	3945784	ITT owns the Sheraton hotel chain.	ITT owns the Sheraton hotel chain. 	187453861	1476992150504	1476992150608	n	78
365939	3945784	ITT owns the Sheraton hotel chain.	ITT owns the Sheraton hotel chain. 	187453865	1476992150584	1476992150680	s	83
365939	3945784	ITT owns the Sheraton hotel chain.	ITT owns the Sheraton hotel chain. 	187453870	1476992150681	1476992150792	 	32
365939	3945784	ITT owns the Sheraton hotel chain.	ITT owns the Sheraton hotel chain. 	187453933	1476992150768	1476992150864	t	84
365939	3945784	ITT owns the Sheraton hotel chain.	ITT owns the Sheraton hotel chain. 	187453934	1476992150888	1476992150968	h	72
365939	3945784	ITT owns the Sheraton hotel chain.	ITT owns the Sheraton hotel chain. 	187453936	1476992150912	1476992151080	e	69
365939	3945784	ITT owns the Sheraton hotel chain.	ITT owns the Sheraton hotel chain. 	187453940	1476992151081	1476992151176	 	32
365939	3945784	ITT owns the Sheraton hotel chain.	ITT owns the Sheraton hotel chain. 	187453943	1476992151424	1476992151504	s	83
365939	3945784	ITT owns the Sheraton hotel chain.	ITT owns the Sheraton hotel chain. 	187453947	1476992151801	1476992151864	BKSP	8
365939	3945784	ITT owns the Sheraton hotel chain.	ITT owns the Sheraton hotel chain. 	187453954	1476992151840	1476992152008	SHIFT	16
365939	3945784	ITT owns the Sheraton hotel chain.	ITT owns the Sheraton hotel chain. 	187454007	1476992151912	1476992152010	S	83
365939	3945784	ITT owns the Sheraton hotel chain.	ITT owns the Sheraton hotel chain. 	187454009	1476992152032	1476992152128	h	72
365939	3945784	ITT owns the Sheraton hotel chain.	ITT owns the Sheraton hotel chain. 	187454013	1476992152344	1476992152456	e	69
365939	3945784	ITT owns the Sheraton hotel chain.	ITT owns the Sheraton hotel chain. 	187454021	1476992152520	1476992152640	r	82
365939	3945784	ITT owns the Sheraton hotel chain.	ITT owns the Sheraton hotel chain. 	187454026	1476992152672	1476992152800	a	65
365939	3945784	ITT owns the Sheraton hotel chain.	ITT owns the Sheraton hotel chain. 	187454030	1476992152832	1476992152937	t	84
365939	3945784	ITT owns the Sheraton hotel chain.	ITT owns the Sheraton hotel chain. 	187454050	1476992152984	1476992153136	o	79
365939	3945784	ITT owns the Sheraton hotel chain.	ITT owns the Sheraton hotel chain. 	187454055	1476992153096	1476992153222	n	78
365939	3945784	ITT owns the Sheraton hotel chain.	ITT owns the Sheraton hotel chain. 	187454060	1476992153200	1476992153328	 	32
365939	3945784	ITT owns the Sheraton hotel chain.	ITT owns the Sheraton hotel chain. 	187454065	1476992153352	1476992153512	h	72
365939	3945784	ITT owns the Sheraton hotel chain.	ITT owns the Sheraton hotel chain. 	187454087	1476992153440	1476992153536	o	79
365939	3945784	ITT owns the Sheraton hotel chain.	ITT owns the Sheraton hotel chain. 	187454091	1476992153514	1476992153656	t	84
365939	3945784	ITT owns the Sheraton hotel chain.	ITT owns the Sheraton hotel chain. 	187454095	1476992153592	1476992153720	e	69
365939	3945784	ITT owns the Sheraton hotel chain.	ITT owns the Sheraton hotel chain. 	187454100	1476992153696	1476992153784	l	76
365939	3945784	ITT owns the Sheraton hotel chain.	ITT owns the Sheraton hotel chain. 	187454104	1476992153800	1476992153880	 	32
365939	3945784	ITT owns the Sheraton hotel chain.	ITT owns the Sheraton hotel chain. 	187454107	1476992154056	1476992154120	c	67
365939	3945784	ITT owns the Sheraton hotel chain.	ITT owns the Sheraton hotel chain. 	187454119	1476992154160	1476992154264	h	72
365939	3945784	ITT owns the Sheraton hotel chain.	ITT owns the Sheraton hotel chain. 	187454121	1476992154240	1476992154357	a	65
365939	3945784	ITT owns the Sheraton hotel chain.	ITT owns the Sheraton hotel chain. 	187454123	1476992154336	1476992154488	i	73
365939	3945784	ITT owns the Sheraton hotel chain.	ITT owns the Sheraton hotel chain. 	187454126	1476992154440	1476992154544	n	78
365939	3945784	ITT owns the Sheraton hotel chain.	ITT owns the Sheraton hotel chain. 	187454129	1476992154616	1476992154743	.	190
365939	3945784	ITT owns the Sheraton hotel chain.	ITT owns the Sheraton hotel chain. 	187454139	1476992154704	1476992154808	 	32
365939	3945798	I am freaking out!	I am freaking out!	187454286	1476992156368	1476992156544	SHIFT	16
365939	3945798	I am freaking out!	I am freaking out!	187454292	1476992156456	1476992156544	I	73
365939	3945798	I am freaking out!	I am freaking out!	187454299	1476992156545	1476992156600	 	32
365939	3945798	I am freaking out!	I am freaking out!	187454305	1476992156640	1476992156736	a	65
365939	3945798	I am freaking out!	I am freaking out!	187454310	1476992156736	1476992156824	m	77
365939	3945798	I am freaking out!	I am freaking out!	187454348	1476992156776	1476992156880	 	32
365939	3945798	I am freaking out!	I am freaking out!	187454351	1476992156992	1476992157056	f	70
365939	3945798	I am freaking out!	I am freaking out!	187454354	1476992157168	1476992157288	r	82
365939	3945798	I am freaking out!	I am freaking out!	187454360	1476992157215	1476992157344	e	69
365939	3945798	I am freaking out!	I am freaking out!	187454366	1476992157288	1476992157408	a	65
365939	3945798	I am freaking out!	I am freaking out!	187454406	1476992157344	1476992157440	k	75
365939	3945798	I am freaking out!	I am freaking out!	187454411	1476992157528	1476992157664	i	73
365939	3945798	I am freaking out!	I am freaking out!	187454415	1476992157600	1476992157727	n	78
365939	3945798	I am freaking out!	I am freaking out!	187454422	1476992157704	1476992157800	g	71
365939	3945798	I am freaking out!	I am freaking out!	187454429	1476992157760	1476992157824	 	32
365939	3945798	I am freaking out!	I am freaking out!	187454437	1476992157857	1476992157967	o	79
365939	3945798	I am freaking out!	I am freaking out!	187454448	1476992157920	1476992158024	u	85
365939	3945798	I am freaking out!	I am freaking out!	187454449	1476992157943	1476992158024	t	84
365939	3945798	I am freaking out!	I am freaking out!	187454451	1476992158025	1476992158247	SHIFT	16
365939	3945798	I am freaking out!	I am freaking out!	187454450	1476992158136	1476992158224	!	49
365939	3945800	However, he's no better than waiver wire fodder in Fantasy Football.	However, he's no better than waiver wire fodder in Fantasy Football.	187454594	1476992159921	1476992160096	SHIFT	16
365939	3945800	However, he's no better than waiver wire fodder in Fantasy Football.	However, he's no better than waiver wire fodder in Fantasy Football.	187454598	1476992160025	1476992160144	H	72
365939	3945800	However, he's no better than waiver wire fodder in Fantasy Football.	However, he's no better than waiver wire fodder in Fantasy Football.	187454605	1476992160121	1476992160232	o	79
365939	3945800	However, he's no better than waiver wire fodder in Fantasy Football.	However, he's no better than waiver wire fodder in Fantasy Football.	187454612	1476992160201	1476992160326	w	87
365939	3945800	However, he's no better than waiver wire fodder in Fantasy Football.	However, he's no better than waiver wire fodder in Fantasy Football.	187454618	1476992160304	1476992160408	e	69
365939	3945800	However, he's no better than waiver wire fodder in Fantasy Football.	However, he's no better than waiver wire fodder in Fantasy Football.	187454625	1476992160465	1476992160544	v	86
365939	3945800	However, he's no better than waiver wire fodder in Fantasy Football.	However, he's no better than waiver wire fodder in Fantasy Football.	187454640	1476992160593	1476992160728	e	69
365939	3945800	However, he's no better than waiver wire fodder in Fantasy Football.	However, he's no better than waiver wire fodder in Fantasy Football.	187454645	1476992160681	1476992160800	r	82
365939	3945800	However, he's no better than waiver wire fodder in Fantasy Football.	However, he's no better than waiver wire fodder in Fantasy Football.	187454649	1476992160744	1476992160848	,	188
365939	3945800	However, he's no better than waiver wire fodder in Fantasy Football.	However, he's no better than waiver wire fodder in Fantasy Football.	187454652	1476992160849	1476992160928	 	32
365939	3945800	However, he's no better than waiver wire fodder in Fantasy Football.	However, he's no better than waiver wire fodder in Fantasy Football.	187454655	1476992161001	1476992161065	h	72
365939	3945800	However, he's no better than waiver wire fodder in Fantasy Football.	However, he's no better than waiver wire fodder in Fantasy Football.	187454680	1476992161066	1476992161160	e	69
365939	3945800	However, he's no better than waiver wire fodder in Fantasy Football.	However, he's no better than waiver wire fodder in Fantasy Football.	187454686	1476992161216	1476992161304	'	222
365939	3945800	However, he's no better than waiver wire fodder in Fantasy Football.	However, he's no better than waiver wire fodder in Fantasy Football.	187454693	1476992161305	1476992161401	s	83
365939	3945800	However, he's no better than waiver wire fodder in Fantasy Football.	However, he's no better than waiver wire fodder in Fantasy Football.	187454699	1476992161377	1476992161492	 	32
365939	3945800	However, he's no better than waiver wire fodder in Fantasy Football.	However, he's no better than waiver wire fodder in Fantasy Football.	187454703	1476992161492	1476992161592	n	78
365939	3945800	However, he's no better than waiver wire fodder in Fantasy Football.	However, he's no better than waiver wire fodder in Fantasy Football.	187454730	1476992161536	1476992161641	o	79
365939	3945800	However, he's no better than waiver wire fodder in Fantasy Football.	However, he's no better than waiver wire fodder in Fantasy Football.	187454731	1476992161641	1476992161720	 	32
365939	3945800	However, he's no better than waiver wire fodder in Fantasy Football.	However, he's no better than waiver wire fodder in Fantasy Football.	187454732	1476992161801	1476992161856	b	66
365939	3945800	However, he's no better than waiver wire fodder in Fantasy Football.	However, he's no better than waiver wire fodder in Fantasy Football.	187454734	1476992161945	1476992162104	e	69
365939	3945800	However, he's no better than waiver wire fodder in Fantasy Football.	However, he's no better than waiver wire fodder in Fantasy Football.	187454739	1476992162072	1476992162120	t	84
365939	3945800	However, he's no better than waiver wire fodder in Fantasy Football.	However, he's no better than waiver wire fodder in Fantasy Football.	187454745	1476992162200	1476992162272	t	84
365939	3945800	However, he's no better than waiver wire fodder in Fantasy Football.	However, he's no better than waiver wire fodder in Fantasy Football.	187454768	1476992162288	1476992162441	e	69
365939	3945800	However, he's no better than waiver wire fodder in Fantasy Football.	However, he's no better than waiver wire fodder in Fantasy Football.	187454774	1476992162385	1476992162441	r	82
365939	3945800	However, he's no better than waiver wire fodder in Fantasy Football.	However, he's no better than waiver wire fodder in Fantasy Football.	187454778	1476992162442	1476992162576	 	32
365939	3945800	However, he's no better than waiver wire fodder in Fantasy Football.	However, he's no better than waiver wire fodder in Fantasy Football.	187454786	1476992162544	1476992162616	t	84
365939	3945800	However, he's no better than waiver wire fodder in Fantasy Football.	However, he's no better than waiver wire fodder in Fantasy Football.	187454792	1476992162672	1476992162728	h	72
365939	3945800	However, he's no better than waiver wire fodder in Fantasy Football.	However, he's no better than waiver wire fodder in Fantasy Football.	187454821	1476992162744	1476992162872	a	65
365939	3945800	However, he's no better than waiver wire fodder in Fantasy Football.	However, he's no better than waiver wire fodder in Fantasy Football.	187454829	1476992162873	1476992162949	n	78
365939	3945800	However, he's no better than waiver wire fodder in Fantasy Football.	However, he's no better than waiver wire fodder in Fantasy Football.	187454837	1476992162928	1476992163077	 	32
365939	3945800	However, he's no better than waiver wire fodder in Fantasy Football.	However, he's no better than waiver wire fodder in Fantasy Football.	187454841	1476992163056	1476992163184	w	87
365939	3945800	However, he's no better than waiver wire fodder in Fantasy Football.	However, he's no better than waiver wire fodder in Fantasy Football.	187454882	1476992163136	1476992163264	a	65
365939	3945800	However, he's no better than waiver wire fodder in Fantasy Football.	However, he's no better than waiver wire fodder in Fantasy Football.	187454887	1476992163265	1476992163352	i	73
365939	3945800	However, he's no better than waiver wire fodder in Fantasy Football.	However, he's no better than waiver wire fodder in Fantasy Football.	187454892	1476992163353	1476992163424	v	86
365939	3945800	However, he's no better than waiver wire fodder in Fantasy Football.	However, he's no better than waiver wire fodder in Fantasy Football.	187454898	1476992163504	1476992163640	e	69
365939	3945800	However, he's no better than waiver wire fodder in Fantasy Football.	However, he's no better than waiver wire fodder in Fantasy Football.	187454900	1476992163584	1476992163712	r	82
365939	3945800	However, he's no better than waiver wire fodder in Fantasy Football.	However, he's no better than waiver wire fodder in Fantasy Football.	187454907	1476992163656	1476992163784	 	32
365939	3945800	However, he's no better than waiver wire fodder in Fantasy Football.	However, he's no better than waiver wire fodder in Fantasy Football.	187454910	1476992163744	1476992163872	w	87
365939	3945800	However, he's no better than waiver wire fodder in Fantasy Football.	However, he's no better than waiver wire fodder in Fantasy Football.	187454915	1476992163873	1476992163960	i	73
365939	3945800	However, he's no better than waiver wire fodder in Fantasy Football.	However, he's no better than waiver wire fodder in Fantasy Football.	187454917	1476992163992	1476992164168	r	82
365939	3945800	However, he's no better than waiver wire fodder in Fantasy Football.	However, he's no better than waiver wire fodder in Fantasy Football.	187454922	1476992164088	1476992164217	e	69
365939	3945800	However, he's no better than waiver wire fodder in Fantasy Football.	However, he's no better than waiver wire fodder in Fantasy Football.	187454973	1476992164192	1476992164328	 	32
365939	3945800	However, he's no better than waiver wire fodder in Fantasy Football.	However, he's no better than waiver wire fodder in Fantasy Football.	187454977	1476992164329	1476992164448	f	70
365939	3945800	However, he's no better than waiver wire fodder in Fantasy Football.	However, he's no better than waiver wire fodder in Fantasy Football.	187454980	1476992164449	1476992164504	o	79
365939	3945800	However, he's no better than waiver wire fodder in Fantasy Football.	However, he's no better than waiver wire fodder in Fantasy Football.	187454984	1476992164568	1476992164624	d	68
365939	3945800	However, he's no better than waiver wire fodder in Fantasy Football.	However, he's no better than waiver wire fodder in Fantasy Football.	187454986	1476992164688	1476992164752	d	68
365939	3945800	However, he's no better than waiver wire fodder in Fantasy Football.	However, he's no better than waiver wire fodder in Fantasy Football.	187454990	1476992164872	1476992165008	e	69
365939	3945800	However, he's no better than waiver wire fodder in Fantasy Football.	However, he's no better than waiver wire fodder in Fantasy Football.	187455012	1476992164936	1476992165040	r	82
365939	3945800	However, he's no better than waiver wire fodder in Fantasy Football.	However, he's no better than waiver wire fodder in Fantasy Football.	187455016	1476992165010	1476992165096	 	32
365939	3945800	However, he's no better than waiver wire fodder in Fantasy Football.	However, he's no better than waiver wire fodder in Fantasy Football.	187455019	1476992165120	1476992165256	i	73
365939	3945800	However, he's no better than waiver wire fodder in Fantasy Football.	However, he's no better than waiver wire fodder in Fantasy Football.	187455020	1476992165192	1476992165312	n	78
365939	3945800	However, he's no better than waiver wire fodder in Fantasy Football.	However, he's no better than waiver wire fodder in Fantasy Football.	187455024	1476992165257	1476992165376	 	32
365939	3945800	However, he's no better than waiver wire fodder in Fantasy Football.	However, he's no better than waiver wire fodder in Fantasy Football.	187455065	1476992165377	1476992165592	SHIFT	16
365939	3945800	However, he's no better than waiver wire fodder in Fantasy Football.	However, he's no better than waiver wire fodder in Fantasy Football.	187455028	1476992165488	1476992165560	F	70
365939	3945800	However, he's no better than waiver wire fodder in Fantasy Football.	However, he's no better than waiver wire fodder in Fantasy Football.	187455069	1476992165713	1476992165816	a	65
365939	3945800	However, he's no better than waiver wire fodder in Fantasy Football.	However, he's no better than waiver wire fodder in Fantasy Football.	187455073	1476992165817	1476992165912	n	78
365939	3945800	However, he's no better than waiver wire fodder in Fantasy Football.	However, he's no better than waiver wire fodder in Fantasy Football.	187455078	1476992166056	1476992166120	t	84
365939	3945800	However, he's no better than waiver wire fodder in Fantasy Football.	However, he's no better than waiver wire fodder in Fantasy Football.	187455082	1476992166280	1476992166376	a	65
365939	3945800	However, he's no better than waiver wire fodder in Fantasy Football.	However, he's no better than waiver wire fodder in Fantasy Football.	187455085	1476992166528	1476992166616	s	83
365939	3945800	However, he's no better than waiver wire fodder in Fantasy Football.	However, he's no better than waiver wire fodder in Fantasy Football.	187455118	1476992166704	1476992166768	y	89
365939	3945800	However, he's no better than waiver wire fodder in Fantasy Football.	However, he's no better than waiver wire fodder in Fantasy Football.	187455124	1476992166808	1476992166888	 	32
365939	3945800	However, he's no better than waiver wire fodder in Fantasy Football.	However, he's no better than waiver wire fodder in Fantasy Football.	187455129	1476992166912	1476992167072	SHIFT	16
365939	3945800	However, he's no better than waiver wire fodder in Fantasy Football.	However, he's no better than waiver wire fodder in Fantasy Football.	187455134	1476992167024	1476992167106	F	70
365939	3945800	However, he's no better than waiver wire fodder in Fantasy Football.	However, he's no better than waiver wire fodder in Fantasy Football.	187455139	1476992167137	1476992167176	o	79
365939	3945800	However, he's no better than waiver wire fodder in Fantasy Football.	However, he's no better than waiver wire fodder in Fantasy Football.	187455146	1476992167272	1476992167304	o	79
365939	3945800	However, he's no better than waiver wire fodder in Fantasy Football.	However, he's no better than waiver wire fodder in Fantasy Football.	187455200	1476992167840	1476992167880	t	84
365939	3945800	However, he's no better than waiver wire fodder in Fantasy Football.	However, he's no better than waiver wire fodder in Fantasy Football.	187455206	1476992168008	1476992168072	b	66
365939	3945800	However, he's no better than waiver wire fodder in Fantasy Football.	However, he's no better than waiver wire fodder in Fantasy Football.	187455213	1476992168120	1476992168216	a	65
365939	3945800	However, he's no better than waiver wire fodder in Fantasy Football.	However, he's no better than waiver wire fodder in Fantasy Football.	187455221	1476992168192	1476992168240	l	76
365939	3945800	However, he's no better than waiver wire fodder in Fantasy Football.	However, he's no better than waiver wire fodder in Fantasy Football.	187455228	1476992168320	1476992168376	l	76
365939	3945800	However, he's no better than waiver wire fodder in Fantasy Football.	However, he's no better than waiver wire fodder in Fantasy Football.	187455233	1476992168440	1476992168552	.	190
365939	3945819	Crestone won't have final measurement until next week.	Crestone won't have final measurement until next week.	187455411	1476992170256	1476992170440	SHIFT	16
365939	3945819	Crestone won't have final measurement until next week.	Crestone won't have final measurement until next week.	187455406	1476992170360	1476992170416	C	67
365939	3945819	Crestone won't have final measurement until next week.	Crestone won't have final measurement until next week.	187455417	1476992170560	1476992170696	r	82
365939	3945819	Crestone won't have final measurement until next week.	Crestone won't have final measurement until next week.	187455424	1476992170632	1476992170768	e	69
365939	3945819	Crestone won't have final measurement until next week.	Crestone won't have final measurement until next week.	187455427	1476992170720	1476992170880	s	83
365939	3945819	Crestone won't have final measurement until next week.	Crestone won't have final measurement until next week.	187455437	1476992170840	1476992170944	t	84
365939	3945819	Crestone won't have final measurement until next week.	Crestone won't have final measurement until next week.	187455440	1476992170945	1476992171104	o	79
365939	3945819	Crestone won't have final measurement until next week.	Crestone won't have final measurement until next week.	187455445	1476992171040	1476992171160	n	78
365939	3945819	Crestone won't have final measurement until next week.	Crestone won't have final measurement until next week.	187455449	1476992171120	1476992171232	e	69
365939	3945819	Crestone won't have final measurement until next week.	Crestone won't have final measurement until next week.	187455452	1476992171200	1476992171320	 	32
365939	3945819	Crestone won't have final measurement until next week.	Crestone won't have final measurement until next week.	187455466	1476992171288	1476992171391	w	87
365939	3945819	Crestone won't have final measurement until next week.	Crestone won't have final measurement until next week.	187455471	1476992171368	1476992171472	o	79
365939	3945819	Crestone won't have final measurement until next week.	Crestone won't have final measurement until next week.	187455479	1476992171448	1476992171608	n	78
365939	3945819	Crestone won't have final measurement until next week.	Crestone won't have final measurement until next week.	187455485	1476992171609	1476992171747	'	222
365939	3945819	Crestone won't have final measurement until next week.	Crestone won't have final measurement until next week.	187455492	1476992171704	1476992171799	t	84
365939	3945819	Crestone won't have final measurement until next week.	Crestone won't have final measurement until next week.	187455511	1476992171767	1476992171880	 	32
365939	3945819	Crestone won't have final measurement until next week.	Crestone won't have final measurement until next week.	187455516	1476992171881	1476992171984	h	72
365939	3945819	Crestone won't have final measurement until next week.	Crestone won't have final measurement until next week.	187455521	1476992171953	1476992172088	a	65
365939	3945819	Crestone won't have final measurement until next week.	Crestone won't have final measurement until next week.	187455528	1476992172064	1476992172224	v	86
365939	3945819	Crestone won't have final measurement until next week.	Crestone won't have final measurement until next week.	187455536	1476992172200	1476992172302	e	69
365939	3945819	Crestone won't have final measurement until next week.	Crestone won't have final measurement until next week.	187455571	1476992172280	1476992172392	 	32
365939	3945819	Crestone won't have final measurement until next week.	Crestone won't have final measurement until next week.	187455576	1476992172464	1476992172576	f	70
365939	3945819	Crestone won't have final measurement until next week.	Crestone won't have final measurement until next week.	187455581	1476992172576	1476992172680	i	73
365939	3945819	Crestone won't have final measurement until next week.	Crestone won't have final measurement until next week.	187455585	1476992172648	1476992172736	n	78
365939	3945819	Crestone won't have final measurement until next week.	Crestone won't have final measurement until next week.	187455589	1476992172760	1476992172872	a	65
365939	3945819	Crestone won't have final measurement until next week.	Crestone won't have final measurement until next week.	187455592	1476992172872	1476992172960	l	76
365939	3945819	Crestone won't have final measurement until next week.	Crestone won't have final measurement until next week.	187455607	1476992172962	1476992173048	 	32
365939	3945819	Crestone won't have final measurement until next week.	Crestone won't have final measurement until next week.	187455610	1476992173096	1476992173232	m	77
365939	3945819	Crestone won't have final measurement until next week.	Crestone won't have final measurement until next week.	187455614	1476992173176	1476992173272	e	69
365939	3945819	Crestone won't have final measurement until next week.	Crestone won't have final measurement until next week.	187455651	1476992173288	1476992173488	a	65
365939	3945819	Crestone won't have final measurement until next week.	Crestone won't have final measurement until next week.	187455619	1476992173384	1476992173456	s	83
365939	3945819	Crestone won't have final measurement until next week.	Crestone won't have final measurement until next week.	187455653	1476992173488	1476992173552	u	85
365939	3945819	Crestone won't have final measurement until next week.	Crestone won't have final measurement until next week.	187455655	1476992173600	1476992173760	r	82
365939	3945819	Crestone won't have final measurement until next week.	Crestone won't have final measurement until next week.	187455657	1476992173728	1476992173800	e	69
365939	3945819	Crestone won't have final measurement until next week.	Crestone won't have final measurement until next week.	187455660	1476992173800	1476992173898	m	77
365939	3945819	Crestone won't have final measurement until next week.	Crestone won't have final measurement until next week.	187455665	1476992173903	1476992173992	e	69
365939	3945819	Crestone won't have final measurement until next week.	Crestone won't have final measurement until next week.	187455684	1476992173994	1476992174072	n	78
365939	3945819	Crestone won't have final measurement until next week.	Crestone won't have final measurement until next week.	187455688	1476992174072	1476992174200	t	84
365939	3945819	Crestone won't have final measurement until next week.	Crestone won't have final measurement until next week.	187455695	1476992174152	1476992174232	 	32
365939	3945819	Crestone won't have final measurement until next week.	Crestone won't have final measurement until next week.	187455702	1476992174280	1476992174320	u	85
365939	3945819	Crestone won't have final measurement until next week.	Crestone won't have final measurement until next week.	187455708	1476992174448	1476992174520	n	78
365939	3945819	Crestone won't have final measurement until next week.	Crestone won't have final measurement until next week.	187455735	1476992174522	1476992174576	t	84
365939	3945819	Crestone won't have final measurement until next week.	Crestone won't have final measurement until next week.	187455739	1476992174624	1476992174744	i	73
365939	3945819	Crestone won't have final measurement until next week.	Crestone won't have final measurement until next week.	187455744	1476992174688	1476992174784	l	76
365939	3945819	Crestone won't have final measurement until next week.	Crestone won't have final measurement until next week.	187455749	1476992174784	1476992174864	 	32
365939	3945819	Crestone won't have final measurement until next week.	Crestone won't have final measurement until next week.	187455757	1476992174936	1476992175056	n	78
365939	3945819	Crestone won't have final measurement until next week.	Crestone won't have final measurement until next week.	187455795	1476992175008	1476992175058	e	69
365939	3945819	Crestone won't have final measurement until next week.	Crestone won't have final measurement until next week.	187455800	1476992175184	1476992175248	x	88
365939	3945819	Crestone won't have final measurement until next week.	Crestone won't have final measurement until next week.	187455807	1476992175536	1476992175703	t	84
365939	3945819	Crestone won't have final measurement until next week.	Crestone won't have final measurement until next week.	187455813	1476992175672	1476992175800	 	32
365939	3945819	Crestone won't have final measurement until next week.	Crestone won't have final measurement until next week.	187455818	1476992175816	1476992175963	w	87
365939	3945819	Crestone won't have final measurement until next week.	Crestone won't have final measurement until next week.	187455847	1476992175920	1476992175991	e	69
365939	3945819	Crestone won't have final measurement until next week.	Crestone won't have final measurement until next week.	187455849	1476992176072	1476992176152	e	69
365939	3945819	Crestone won't have final measurement until next week.	Crestone won't have final measurement until next week.	187455851	1476992176184	1476992176343	k	75
365939	3945819	Crestone won't have final measurement until next week.	Crestone won't have final measurement until next week.	187455854	1476992176280	1476992176416	.	190
365939	3945827	However, he warrants no real Fantasy consideration at this point.	However, he warrants no real Fantasy consideration at this point. 	187456023	1476992178265	1476992178464	SHIFT	16
365939	3945827	However, he warrants no real Fantasy consideration at this point.	However, he warrants no real Fantasy consideration at this point. 	187456030	1476992178393	1476992178544	H	72
365939	3945827	However, he warrants no real Fantasy consideration at this point.	However, he warrants no real Fantasy consideration at this point. 	187456039	1476992178488	1476992178625	o	79
365939	3945827	However, he warrants no real Fantasy consideration at this point.	However, he warrants no real Fantasy consideration at this point. 	187456045	1476992178625	1476992178738	w	87
365939	3945827	However, he warrants no real Fantasy consideration at this point.	However, he warrants no real Fantasy consideration at this point. 	187456055	1476992178696	1476992178768	e	69
365939	3945827	However, he warrants no real Fantasy consideration at this point.	However, he warrants no real Fantasy consideration at this point. 	187456061	1476992178793	1476992178904	v	86
365939	3945827	However, he warrants no real Fantasy consideration at this point.	However, he warrants no real Fantasy consideration at this point. 	187456065	1476992178952	1476992179080	e	69
365939	3945827	However, he warrants no real Fantasy consideration at this point.	However, he warrants no real Fantasy consideration at this point. 	187456069	1476992179024	1476992179168	r	82
365939	3945827	However, he warrants no real Fantasy consideration at this point.	However, he warrants no real Fantasy consideration at this point. 	187456073	1476992179096	1476992179189	,	188
365939	3945827	However, he warrants no real Fantasy consideration at this point.	However, he warrants no real Fantasy consideration at this point. 	187456077	1476992179169	1476992179288	 	32
365939	3945827	However, he warrants no real Fantasy consideration at this point.	However, he warrants no real Fantasy consideration at this point. 	187456081	1476992179320	1476992179408	h	72
365939	3945827	However, he warrants no real Fantasy consideration at this point.	However, he warrants no real Fantasy consideration at this point. 	187456128	1476992179368	1476992179472	e	69
365939	3945827	However, he warrants no real Fantasy consideration at this point.	However, he warrants no real Fantasy consideration at this point. 	187456130	1476992179473	1476992179584	 	32
365939	3945827	However, he warrants no real Fantasy consideration at this point.	However, he warrants no real Fantasy consideration at this point. 	187456136	1476992179536	1476992179648	w	87
365939	3945827	However, he warrants no real Fantasy consideration at this point.	However, he warrants no real Fantasy consideration at this point. 	187456145	1476992179616	1476992179752	a	65
365939	3945827	However, he warrants no real Fantasy consideration at this point.	However, he warrants no real Fantasy consideration at this point. 	187456150	1476992180248	1476992180312	r	82
365939	3945827	However, he warrants no real Fantasy consideration at this point.	However, he warrants no real Fantasy consideration at this point. 	187456157	1476992180393	1476992180464	r	82
365939	3945827	However, he warrants no real Fantasy consideration at this point.	However, he warrants no real Fantasy consideration at this point. 	187456173	1476992180496	1476992180608	a	65
365939	3945827	However, he warrants no real Fantasy consideration at this point.	However, he warrants no real Fantasy consideration at this point. 	187456175	1476992180640	1476992180752	n	78
365939	3945827	However, he warrants no real Fantasy consideration at this point.	However, he warrants no real Fantasy consideration at this point. 	187456179	1476992180753	1476992180832	t	84
365939	3945827	However, he warrants no real Fantasy consideration at this point.	However, he warrants no real Fantasy consideration at this point. 	187456184	1476992180952	1476992181064	s	83
365939	3945827	However, he warrants no real Fantasy consideration at this point.	However, he warrants no real Fantasy consideration at this point. 	187456188	1476992181065	1476992181144	 	32
365939	3945827	However, he warrants no real Fantasy consideration at this point.	However, he warrants no real Fantasy consideration at this point. 	187456204	1476992181184	1476992181320	n	78
365939	3945827	However, he warrants no real Fantasy consideration at this point.	However, he warrants no real Fantasy consideration at this point. 	187456207	1476992181280	1476992181373	o	79
365939	3945827	However, he warrants no real Fantasy consideration at this point.	However, he warrants no real Fantasy consideration at this point. 	187456212	1476992181352	1476992181488	 	32
365939	3945827	However, he warrants no real Fantasy consideration at this point.	However, he warrants no real Fantasy consideration at this point. 	187456220	1476992181489	1476992181600	r	82
365939	3945827	However, he warrants no real Fantasy consideration at this point.	However, he warrants no real Fantasy consideration at this point. 	187456265	1476992181536	1476992181664	e	69
365939	3945827	However, he warrants no real Fantasy consideration at this point.	However, he warrants no real Fantasy consideration at this point. 	187456268	1476992181640	1476992181760	a	65
365939	3945827	However, he warrants no real Fantasy consideration at this point.	However, he warrants no real Fantasy consideration at this point. 	187456272	1476992181761	1476992181856	l	76
365939	3945827	However, he warrants no real Fantasy consideration at this point.	However, he warrants no real Fantasy consideration at this point. 	187456275	1476992181857	1476992181984	 	32
365939	3945827	However, he warrants no real Fantasy consideration at this point.	However, he warrants no real Fantasy consideration at this point. 	187456278	1476992181944	1476992182128	SHIFT	16
365939	3945827	However, he warrants no real Fantasy consideration at this point.	However, he warrants no real Fantasy consideration at this point. 	187456281	1476992182041	1476992182160	F	70
365939	3945827	However, he warrants no real Fantasy consideration at this point.	However, he warrants no real Fantasy consideration at this point. 	187456285	1476992182240	1476992182320	a	65
365939	3945827	However, he warrants no real Fantasy consideration at this point.	However, he warrants no real Fantasy consideration at this point. 	187456319	1476992182321	1476992182440	n	78
365939	3945827	However, he warrants no real Fantasy consideration at this point.	However, he warrants no real Fantasy consideration at this point. 	187456326	1476992182441	1476992182576	t	84
365939	3945827	However, he warrants no real Fantasy consideration at this point.	However, he warrants no real Fantasy consideration at this point. 	187456330	1476992182577	1476992182720	a	65
365939	3945827	However, he warrants no real Fantasy consideration at this point.	However, he warrants no real Fantasy consideration at this point. 	187456336	1476992182721	1476992182840	s	83
365939	3945827	However, he warrants no real Fantasy consideration at this point.	However, he warrants no real Fantasy consideration at this point. 	187456339	1476992182904	1476992182968	y	89
365939	3945827	However, he warrants no real Fantasy consideration at this point.	However, he warrants no real Fantasy consideration at this point. 	187456379	1476992182992	1476992183080	 	32
365939	3945827	However, he warrants no real Fantasy consideration at this point.	However, he warrants no real Fantasy consideration at this point. 	187456385	1476992183056	1476992183168	SHIFT	16
365939	3945827	However, he warrants no real Fantasy consideration at this point.	However, he warrants no real Fantasy consideration at this point. 	187456391	1476992183488	1476992183544	c	67
365939	3945827	However, he warrants no real Fantasy consideration at this point.	However, he warrants no real Fantasy consideration at this point. 	187456396	1476992183546	1476992183664	o	79
365939	3945827	However, he warrants no real Fantasy consideration at this point.	However, he warrants no real Fantasy consideration at this point. 	187456401	1476992183617	1476992183744	n	78
365939	3945827	However, he warrants no real Fantasy consideration at this point.	However, he warrants no real Fantasy consideration at this point. 	187456454	1476992183720	1476992183792	s	83
365939	3945827	However, he warrants no real Fantasy consideration at this point.	However, he warrants no real Fantasy consideration at this point. 	187456463	1476992183872	1476992183960	i	73
365939	3945827	However, he warrants no real Fantasy consideration at this point.	However, he warrants no real Fantasy consideration at this point. 	187456467	1476992184000	1476992184048	d	68
365939	3945827	However, he warrants no real Fantasy consideration at this point.	However, he warrants no real Fantasy consideration at this point. 	187456472	1476992184160	1476992184256	e	69
365939	3945827	However, he warrants no real Fantasy consideration at this point.	However, he warrants no real Fantasy consideration at this point. 	187456474	1476992184232	1476992184296	r	82
365939	3945827	However, he warrants no real Fantasy consideration at this point.	However, he warrants no real Fantasy consideration at this point. 	187456478	1476992184344	1476992184528	a	65
365939	3945827	However, he warrants no real Fantasy consideration at this point.	However, he warrants no real Fantasy consideration at this point. 	187456490	1476992184432	1476992184530	t	84
365939	3945827	However, he warrants no real Fantasy consideration at this point.	However, he warrants no real Fantasy consideration at this point. 	187456493	1476992184530	1476992184656	i	73
365939	3945827	However, he warrants no real Fantasy consideration at this point.	However, he warrants no real Fantasy consideration at this point. 	187456501	1476992184592	1476992184720	o	79
365939	3945827	However, he warrants no real Fantasy consideration at this point.	However, he warrants no real Fantasy consideration at this point. 	187456505	1476992184657	1476992184773	n	78
365939	3945827	However, he warrants no real Fantasy consideration at this point.	However, he warrants no real Fantasy consideration at this point. 	187456512	1476992184752	1476992184824	 	32
365939	3945827	However, he warrants no real Fantasy consideration at this point.	However, he warrants no real Fantasy consideration at this point. 	187456518	1476992184872	1476992185008	a	65
365939	3945827	However, he warrants no real Fantasy consideration at this point.	However, he warrants no real Fantasy consideration at this point. 	187456525	1476992184944	1476992185011	t	84
365939	3945827	However, he warrants no real Fantasy consideration at this point.	However, he warrants no real Fantasy consideration at this point. 	187456528	1476992185032	1476992185128	 	32
365939	3945827	However, he warrants no real Fantasy consideration at this point.	However, he warrants no real Fantasy consideration at this point. 	187456529	1476992185096	1476992185192	t	84
365939	3945827	However, he warrants no real Fantasy consideration at this point.	However, he warrants no real Fantasy consideration at this point. 	187456532	1476992185152	1476992185296	h	72
365939	3945827	However, he warrants no real Fantasy consideration at this point.	However, he warrants no real Fantasy consideration at this point. 	187456534	1476992185224	1476992185320	i	73
365939	3945827	However, he warrants no real Fantasy consideration at this point.	However, he warrants no real Fantasy consideration at this point. 	187456553	1476992185297	1476992185400	s	83
365939	3945827	However, he warrants no real Fantasy consideration at this point.	However, he warrants no real Fantasy consideration at this point. 	187456559	1476992185352	1476992185472	 	32
365939	3945827	However, he warrants no real Fantasy consideration at this point.	However, he warrants no real Fantasy consideration at this point. 	187456565	1476992185473	1476992185624	p	80
365939	3945827	However, he warrants no real Fantasy consideration at this point.	However, he warrants no real Fantasy consideration at this point. 	187456569	1476992185568	1476992185736	o	79
365939	3945827	However, he warrants no real Fantasy consideration at this point.	However, he warrants no real Fantasy consideration at this point. 	187456596	1476992185600	1476992185776	i	73
365939	3945827	However, he warrants no real Fantasy consideration at this point.	However, he warrants no real Fantasy consideration at this point. 	187456606	1476992185704	1476992185808	n	78
365939	3945827	However, he warrants no real Fantasy consideration at this point.	However, he warrants no real Fantasy consideration at this point. 	187456612	1476992185777	1476992185872	t	84
365939	3945827	However, he warrants no real Fantasy consideration at this point.	However, he warrants no real Fantasy consideration at this point. 	187456619	1476992185904	1476992186032	.	190
365939	3945827	However, he warrants no real Fantasy consideration at this point.	However, he warrants no real Fantasy consideration at this point. 	187456624	1476992185976	1476992186136	 	32
365939	3945847	The hospital was hit by electricity cuts.	The hospital was hit by electricity cuts.	187456808	1476992187808	1476992188016	SHIFT	16
365939	3945847	The hospital was hit by electricity cuts.	The hospital was hit by electricity cuts.	187456813	1476992187920	1476992188017	T	84
365939	3945847	The hospital was hit by electricity cuts.	The hospital was hit by electricity cuts.	187456816	1476992188017	1476992188120	h	72
365939	3945847	The hospital was hit by electricity cuts.	The hospital was hit by electricity cuts.	187456817	1476992188096	1476992188224	e	69
365939	3945847	The hospital was hit by electricity cuts.	The hospital was hit by electricity cuts.	187456820	1476992188225	1476992188304	 	32
365939	3945847	The hospital was hit by electricity cuts.	The hospital was hit by electricity cuts.	187456823	1476992188328	1476992188464	h	72
365939	3945847	The hospital was hit by electricity cuts.	The hospital was hit by electricity cuts.	187456874	1476992188608	1476992188688	o	79
365939	3945847	The hospital was hit by electricity cuts.	The hospital was hit by electricity cuts.	187456876	1476992188760	1476992188840	s	83
365939	3945847	The hospital was hit by electricity cuts.	The hospital was hit by electricity cuts.	187456880	1476992188872	1476992188920	p	80
365939	3945847	The hospital was hit by electricity cuts.	The hospital was hit by electricity cuts.	187456884	1476992189032	1476992189096	i	73
365939	3945847	The hospital was hit by electricity cuts.	The hospital was hit by electricity cuts.	187456888	1476992189097	1476992189192	t	84
365939	3945847	The hospital was hit by electricity cuts.	The hospital was hit by electricity cuts.	187456932	1476992189208	1476992189320	a	65
365939	3945847	The hospital was hit by electricity cuts.	The hospital was hit by electricity cuts.	187456941	1476992189368	1476992189472	l	76
365939	3945847	The hospital was hit by electricity cuts.	The hospital was hit by electricity cuts.	187456951	1476992189473	1476992189568	 	32
365939	3945847	The hospital was hit by electricity cuts.	The hospital was hit by electricity cuts.	187456957	1476992189664	1476992189752	w	87
365939	3945847	The hospital was hit by electricity cuts.	The hospital was hit by electricity cuts.	187456962	1476992189753	1476992189976	a	65
365939	3945847	The hospital was hit by electricity cuts.	The hospital was hit by electricity cuts.	187456986	1476992189904	1476992190008	s	83
365939	3945847	The hospital was hit by electricity cuts.	The hospital was hit by electricity cuts.	187456989	1476992189936	1476992190056	 	32
365939	3945847	The hospital was hit by electricity cuts.	The hospital was hit by electricity cuts.	187456993	1476992190128	1476992190280	h	72
365939	3945847	The hospital was hit by electricity cuts.	The hospital was hit by electricity cuts.	187456999	1476992190208	1476992190320	i	73
365939	3945847	The hospital was hit by electricity cuts.	The hospital was hit by electricity cuts.	187457006	1476992190321	1476992190407	t	84
365939	3945847	The hospital was hit by electricity cuts.	The hospital was hit by electricity cuts.	187457012	1476992190376	1476992190472	 	32
365939	3945847	The hospital was hit by electricity cuts.	The hospital was hit by electricity cuts.	187457019	1476992190544	1476992190640	b	66
365939	3945847	The hospital was hit by electricity cuts.	The hospital was hit by electricity cuts.	187457030	1476992190664	1476992190744	y	89
365939	3945847	The hospital was hit by electricity cuts.	The hospital was hit by electricity cuts.	187457036	1476992190745	1476992190864	 	32
365939	3945847	The hospital was hit by electricity cuts.	The hospital was hit by electricity cuts.	187457044	1476992190896	1476992190960	e	69
365939	3945847	The hospital was hit by electricity cuts.	The hospital was hit by electricity cuts.	187457049	1476992191000	1476992191096	l	76
365939	3945847	The hospital was hit by electricity cuts.	The hospital was hit by electricity cuts.	187457079	1476992191055	1476992191192	e	69
365939	3945847	The hospital was hit by electricity cuts.	The hospital was hit by electricity cuts.	187457083	1476992191193	1476992191240	c	67
365939	3945847	The hospital was hit by electricity cuts.	The hospital was hit by electricity cuts.	187457087	1476992191400	1476992191464	t	84
365939	3945847	The hospital was hit by electricity cuts.	The hospital was hit by electricity cuts.	187457095	1476992191544	1476992191616	r	82
365939	3945847	The hospital was hit by electricity cuts.	The hospital was hit by electricity cuts.	187457099	1476992191664	1476992191720	i	73
365939	3945847	The hospital was hit by electricity cuts.	The hospital was hit by electricity cuts.	187457103	1476992191770	1476992191807	c	67
365939	3945847	The hospital was hit by electricity cuts.	The hospital was hit by electricity cuts.	187457122	1476992191856	1476992191904	i	73
365939	3945847	The hospital was hit by electricity cuts.	The hospital was hit by electricity cuts.	187457127	1476992191960	1476992192024	t	84
365939	3945847	The hospital was hit by electricity cuts.	The hospital was hit by electricity cuts.	187457136	1476992192088	1476992192160	y	89
365939	3945847	The hospital was hit by electricity cuts.	The hospital was hit by electricity cuts.	187457142	1476992192184	1476992192295	 	32
365939	3945847	The hospital was hit by electricity cuts.	The hospital was hit by electricity cuts.	187457149	1476992192312	1476992192384	c	67
365939	3945847	The hospital was hit by electricity cuts.	The hospital was hit by electricity cuts.	187457177	1476992192424	1476992192504	u	85
365939	3945847	The hospital was hit by electricity cuts.	The hospital was hit by electricity cuts.	187457180	1476992192544	1476992192648	t	84
365939	3945847	The hospital was hit by electricity cuts.	The hospital was hit by electricity cuts.	187457184	1476992192649	1476992192760	s	83
365939	3945847	The hospital was hit by electricity cuts.	The hospital was hit by electricity cuts.	187457188	1476992192728	1476992192831	.	190
365939	3945859	Did you get this?	Did you get this?	187457271	1476992194600	1476992194841	SHIFT	16
365939	3945859	Did you get this?	Did you get this?	187457273	1476992194753	1476992194841	D	68
365939	3945859	Did you get this?	Did you get this?	187457275	1476992194865	1476992194929	i	73
365939	3945859	Did you get this?	Did you get this?	187457279	1476992194929	1476992195037	d	68
365939	3945859	Did you get this?	Did you get this?	187457281	1476992195017	1476992195122	 	32
365939	3945859	Did you get this?	Did you get this?	187457283	1476992195122	1476992195209	y	89
365939	3945859	Did you get this?	Did you get this?	187457290	1476992195211	1476992195345	o	79
365939	3945859	Did you get this?	Did you get this?	187457292	1476992195281	1476992195416	u	85
365939	3945859	Did you get this?	Did you get this?	187457295	1476992195345	1476992195488	 	32
365939	3945859	Did you get this?	Did you get this?	187457299	1476992195424	1476992195489	g	71
365939	3945859	Did you get this?	Did you get this?	187457302	1476992195529	1476992195657	e	69
365939	3945859	Did you get this?	Did you get this?	187457378	1476992195658	1476992195784	 	32
365939	3945859	Did you get this?	Did you get this?	187457382	1476992195728	1476992195840	t	84
365939	3945859	Did you get this?	Did you get this?	187457387	1476992195912	1476992196024	h	72
365939	3945859	Did you get this?	Did you get this?	187457393	1476992195952	1476992196025	i	73
365939	3945859	Did you get this?	Did you get this?	187457398	1476992196224	1476992196296	BKSP	8
365939	3945859	Did you get this?	Did you get this?	187457403	1476992196352	1476992196424	BKSP	8
365939	3945859	Did you get this?	Did you get this?	187457411	1476992196488	1476992196528	BKSP	8
365939	3945859	Did you get this?	Did you get this?	187457420	1476992196601	1476992196688	BKSP	8
365939	3945859	Did you get this?	Did you get this?	187457430	1476992196728	1476992196793	t	84
365939	3945859	Did you get this?	Did you get this?	187457440	1476992196795	1476992196920	 	32
365939	3945859	Did you get this?	Did you get this?	187457446	1476992196881	1476992196977	t	84
365939	3945859	Did you get this?	Did you get this?	187457451	1476992196977	1476992197105	h	72
365939	3945859	Did you get this?	Did you get this?	187457453	1476992197024	1476992197105	i	73
365939	3945859	Did you get this?	Did you get this?	187457456	1476992197106	1476992197192	s	83
365939	3945859	Did you get this?	Did you get this?	187457459	1476992197216	1476992197320	?	191
365939	3945866	Hope that you have a great TG.	Hope that you have a great TG. 	187457603	1476992199032	1476992199152	H	72
365939	3945866	Hope that you have a great TG.	Hope that you have a great TG. 	187457607	1476992199153	1476992199312	o	79
365939	3945866	Hope that you have a great TG.	Hope that you have a great TG. 	187457612	1476992199232	1476992199392	p	80
365939	3945866	Hope that you have a great TG.	Hope that you have a great TG. 	187457619	1476992199360	1476992199464	e	69
365939	3945866	Hope that you have a great TG.	Hope that you have a great TG. 	187457655	1476992199444	1476992199584	 	32
365939	3945866	Hope that you have a great TG.	Hope that you have a great TG. 	187457659	1476992199536	1476992199624	t	84
365939	3945866	Hope that you have a great TG.	Hope that you have a great TG. 	187457664	1476992199664	1476992199760	h	72
365939	3945866	Hope that you have a great TG.	Hope that you have a great TG. 	187457667	1476992199728	1476992199864	a	65
365939	3945866	Hope that you have a great TG.	Hope that you have a great TG. 	187457670	1476992199800	1476992199952	t	84
365939	3945866	Hope that you have a great TG.	Hope that you have a great TG. 	187457700	1476992199880	1476992199976	 	32
365939	3945866	Hope that you have a great TG.	Hope that you have a great TG. 	187457702	1476992199954	1476992200072	y	89
365939	3945866	Hope that you have a great TG.	Hope that you have a great TG. 	187457709	1476992200073	1476992200192	o	79
365939	3945866	Hope that you have a great TG.	Hope that you have a great TG. 	187457716	1476992200144	1476992200232	u	85
365939	3945866	Hope that you have a great TG.	Hope that you have a great TG. 	187457721	1476992200193	1476992200312	 	32
365939	3945866	Hope that you have a great TG.	Hope that you have a great TG. 	187457727	1476992200344	1476992200468	h	72
365939	3945866	Hope that you have a great TG.	Hope that you have a great TG. 	187457787	1476992200408	1476992200528	a	65
365939	3945866	Hope that you have a great TG.	Hope that you have a great TG. 	187457793	1476992200496	1476992200656	v	86
365939	3945866	Hope that you have a great TG.	Hope that you have a great TG. 	187457802	1476992200688	1476992200840	 	32
365939	3945866	Hope that you have a great TG.	Hope that you have a great TG. 	187457805	1476992201152	1476992201216	BKSP	8
365939	3945866	Hope that you have a great TG.	Hope that you have a great TG. 	187457811	1476992201217	1476992201320	e	69
365939	3945866	Hope that you have a great TG.	Hope that you have a great TG. 	187457817	1476992201280	1476992201360	 	32
365939	3945866	Hope that you have a great TG.	Hope that you have a great TG. 	187457822	1476992201416	1476992201536	a	65
365939	3945866	Hope that you have a great TG.	Hope that you have a great TG. 	187457834	1476992201538	1476992201664	 	32
365939	3945866	Hope that you have a great TG.	Hope that you have a great TG. 	187457838	1476992201632	1476992201704	g	71
365939	3945866	Hope that you have a great TG.	Hope that you have a great TG. 	187457844	1476992201808	1476992201912	r	82
365939	3945866	Hope that you have a great TG.	Hope that you have a great TG. 	187457850	1476992201872	1476992202040	e	69
365939	3945866	Hope that you have a great TG.	Hope that you have a great TG. 	187457921	1476992201992	1476992202104	a	65
365939	3945866	Hope that you have a great TG.	Hope that you have a great TG. 	187457924	1476992202056	1476992202184	t	84
365939	3945866	Hope that you have a great TG.	Hope that you have a great TG. 	187457927	1476992202161	1476992202272	 	32
365939	3945866	Hope that you have a great TG.	Hope that you have a great TG. 	187457937	1476992202273	1476992202920	SHIFT	16
365939	3945866	Hope that you have a great TG.	Hope that you have a great TG. 	187457930	1476992202448	1476992202536	T	84
365939	3945866	Hope that you have a great TG.	Hope that you have a great TG. 	187457933	1476992202672	1476992202768	G	71
365939	3945866	Hope that you have a great TG.	Hope that you have a great TG. 	187457941	1476992202984	1476992203136	.	190
365939	3945866	Hope that you have a great TG.	Hope that you have a great TG. 	187457935	1476992203138	1476992203224	 	32
