PARTICIPANT_ID	TEST_SECTION_ID	SENTENCE	USER_INPUT	KEYSTROKE_ID	PRESS_TIME	RELEASE_TIME	LETTER	KEYCODE
368681	3976024	This year I can walk and it's so much better.	This year I can walk and it's so much better.	188879242	1477024993124	1477024993315	SHIFT	16
368681	3976024	This year I can walk and it's so much better.	This year I can walk and it's so much better.	188879243	1477024993259	1477024993386	T	84
368681	3976024	This year I can walk and it's so much better.	This year I can walk and it's so much better.	188879245	1477024993346	1477024993468	h	72
368681	3976024	This year I can walk and it's so much better.	This year I can walk and it's so much better.	188879247	1477024993443	1477024993562	i	73
368681	3976024	This year I can walk and it's so much better.	This year I can walk and it's so much better.	188879249	1477024993530	1477024993660	s	83
368681	3976024	This year I can walk and it's so much better.	This year I can walk and it's so much better.	188879251	1477024993634	1477024993738	 	32
368681	3976024	This year I can walk and it's so much better.	This year I can walk and it's so much better.	188879253	1477024993731	1477024993850	y	89
368681	3976024	This year I can walk and it's so much better.	This year I can walk and it's so much better.	188879254	1477024993802	1477024993994	e	69
368681	3976024	This year I can walk and it's so much better.	This year I can walk and it's so much better.	188879255	1477024993882	1477024994002	a	65
368681	3976024	This year I can walk and it's so much better.	This year I can walk and it's so much better.	188879256	1477024993938	1477024994050	r	82
368681	3976024	This year I can walk and it's so much better.	This year I can walk and it's so much better.	188879264	1477024994034	1477024994138	 	32
368681	3976024	This year I can walk and it's so much better.	This year I can walk and it's so much better.	188879266	1477024994130	1477024994234	SHIFT	16
368681	3976024	This year I can walk and it's so much better.	This year I can walk and it's so much better.	188879268	1477024994163	1477024994266	I	73
368681	3976024	This year I can walk and it's so much better.	This year I can walk and it's so much better.	188879270	1477024994235	1477024994363	 	32
368681	3976024	This year I can walk and it's so much better.	This year I can walk and it's so much better.	188879274	1477024994338	1477024994434	c	67
368681	3976024	This year I can walk and it's so much better.	This year I can walk and it's so much better.	188879278	1477024994491	1477024994586	a	65
368681	3976024	This year I can walk and it's so much better.	This year I can walk and it's so much better.	188879287	1477024994579	1477024994634	n	78
368681	3976024	This year I can walk and it's so much better.	This year I can walk and it's so much better.	188879288	1477024994674	1477024994818	 	32
368681	3976024	This year I can walk and it's so much better.	This year I can walk and it's so much better.	188879289	1477024994803	1477024994930	w	87
368681	3976024	This year I can walk and it's so much better.	This year I can walk and it's so much better.	188879290	1477024994882	1477024994994	a	65
368681	3976024	This year I can walk and it's so much better.	This year I can walk and it's so much better.	188879291	1477024994938	1477024995066	l	76
368681	3976024	This year I can walk and it's so much better.	This year I can walk and it's so much better.	188879298	1477024995019	1477024995162	k	75
368681	3976024	This year I can walk and it's so much better.	This year I can walk and it's so much better.	188879300	1477024995163	1477024995250	 	32
368681	3976024	This year I can walk and it's so much better.	This year I can walk and it's so much better.	188879301	1477024995258	1477024995355	a	65
368681	3976024	This year I can walk and it's so much better.	This year I can walk and it's so much better.	188879303	1477024995339	1477024995412	n	78
368681	3976024	This year I can walk and it's so much better.	This year I can walk and it's so much better.	188879304	1477024995411	1477024995530	d	68
368681	3976024	This year I can walk and it's so much better.	This year I can walk and it's so much better.	188879334	1477024995467	1477024995554	 	32
368681	3976024	This year I can walk and it's so much better.	This year I can walk and it's so much better.	188879336	1477024995522	1477024995634	i	73
368681	3976024	This year I can walk and it's so much better.	This year I can walk and it's so much better.	188879338	1477024995618	1477024995714	t	84
368681	3976024	This year I can walk and it's so much better.	This year I can walk and it's so much better.	188879340	1477024995722	1477024995829	'	222
368681	3976024	This year I can walk and it's so much better.	This year I can walk and it's so much better.	188879342	1477024995802	1477024995914	s	83
368681	3976024	This year I can walk and it's so much better.	This year I can walk and it's so much better.	188879344	1477024995866	1477024995986	 	32
368681	3976024	This year I can walk and it's so much better.	This year I can walk and it's so much better.	188879346	1477024996019	1477024996178	s	83
368681	3976024	This year I can walk and it's so much better.	This year I can walk and it's so much better.	188879372	1477024996186	1477024996306	o	79
368681	3976024	This year I can walk and it's so much better.	This year I can walk and it's so much better.	188879376	1477024996258	1477024996354	 	32
368681	3976024	This year I can walk and it's so much better.	This year I can walk and it's so much better.	188879382	1477024996450	1477024996506	m	77
368681	3976024	This year I can walk and it's so much better.	This year I can walk and it's so much better.	188879385	1477024996642	1477024996722	u	85
368681	3976024	This year I can walk and it's so much better.	This year I can walk and it's so much better.	188879389	1477024996955	1477024997010	h	72
368681	3976024	This year I can walk and it's so much better.	This year I can walk and it's so much better.	188879412	1477024997235	1477024997282	BKSP	8
368681	3976024	This year I can walk and it's so much better.	This year I can walk and it's so much better.	188879414	1477024997363	1477024997458	c	67
368681	3976024	This year I can walk and it's so much better.	This year I can walk and it's so much better.	188879417	1477024997426	1477024997506	h	72
368681	3976024	This year I can walk and it's so much better.	This year I can walk and it's so much better.	188879421	1477024997531	1477024997634	 	32
368681	3976024	This year I can walk and it's so much better.	This year I can walk and it's so much better.	188879423	1477024997586	1477024997658	b	66
368681	3976024	This year I can walk and it's so much better.	This year I can walk and it's so much better.	188879424	1477024997755	1477024997842	e	69
368681	3976024	This year I can walk and it's so much better.	This year I can walk and it's so much better.	188879434	1477024997915	1477024997978	t	84
368681	3976024	This year I can walk and it's so much better.	This year I can walk and it's so much better.	188879437	1477024998058	1477024998122	t	84
368681	3976024	This year I can walk and it's so much better.	This year I can walk and it's so much better.	188879441	1477024998179	1477024998314	e	69
368681	3976024	This year I can walk and it's so much better.	This year I can walk and it's so much better.	188879443	1477024998266	1477024998354	r	82
368681	3976024	This year I can walk and it's so much better.	This year I can walk and it's so much better.	188879446	1477024998322	1477024998458	.	190
368681	3976031	Is that enough for this week?	Is that enough for this week?	188879487	1477025000578	1477025000714	SHIFT	16
368681	3976031	Is that enough for this week?	Is that enough for this week?	188879489	1477025000659	1477025000762	I	73
368681	3976031	Is that enough for this week?	Is that enough for this week?	188879491	1477025000802	1477025000922	s	83
368681	3976031	Is that enough for this week?	Is that enough for this week?	188879493	1477025000955	1477025001050	 	32
368681	3976031	Is that enough for this week?	Is that enough for this week?	188879494	1477025001074	1477025001162	t	84
368681	3976031	Is that enough for this week?	Is that enough for this week?	188879496	1477025001146	1477025001250	h	72
368681	3976031	Is that enough for this week?	Is that enough for this week?	188879497	1477025001203	1477025001314	a	65
368681	3976031	Is that enough for this week?	Is that enough for this week?	188879498	1477025001274	1477025001378	t	84
368681	3976031	Is that enough for this week?	Is that enough for this week?	188879499	1477025001332	1477025001433	 	32
368681	3976031	Is that enough for this week?	Is that enough for this week?	188879500	1477025001426	1477025001570	e	69
368681	3976031	Is that enough for this week?	Is that enough for this week?	188879507	1477025001514	1477025001571	n	78
368681	3976031	Is that enough for this week?	Is that enough for this week?	188879511	1477025001626	1477025001786	o	79
368681	3976031	Is that enough for this week?	Is that enough for this week?	188879509	1477025001690	1477025001777	u	85
368681	3976031	Is that enough for this week?	Is that enough for this week?	188879513	1477025001770	1477025001858	g	71
368681	3976031	Is that enough for this week?	Is that enough for this week?	188879515	1477025001882	1477025001962	h	72
368681	3976031	Is that enough for this week?	Is that enough for this week?	188879517	1477025001994	1477025002114	 	32
368681	3976031	Is that enough for this week?	Is that enough for this week?	188879520	1477025002098	1477025002162	f	70
368681	3976031	Is that enough for this week?	Is that enough for this week?	188879522	1477025002178	1477025002314	o	79
368681	3976031	Is that enough for this week?	Is that enough for this week?	188879524	1477025002266	1477025002346	r	82
368681	3976031	Is that enough for this week?	Is that enough for this week?	188879526	1477025002386	1477025002474	 	32
368681	3976031	Is that enough for this week?	Is that enough for this week?	188879528	1477025002450	1477025002546	t	84
368681	3976031	Is that enough for this week?	Is that enough for this week?	188879533	1477025002499	1477025002633	h	72
368681	3976031	Is that enough for this week?	Is that enough for this week?	188879536	1477025002602	1477025002682	i	73
368681	3976031	Is that enough for this week?	Is that enough for this week?	188879540	1477025002626	1477025002714	s	83
368681	3976031	Is that enough for this week?	Is that enough for this week?	188879542	1477025002754	1477025002873	 	32
368681	3976031	Is that enough for this week?	Is that enough for this week?	188879544	1477025002866	1477025002946	w	87
368681	3976031	Is that enough for this week?	Is that enough for this week?	188879546	1477025003010	1477025003066	e	69
368681	3976031	Is that enough for this week?	Is that enough for this week?	188879554	1477025003138	1477025003242	e	69
368681	3976031	Is that enough for this week?	Is that enough for this week?	188879557	1477025003186	1477025003266	k	75
368681	3976031	Is that enough for this week?	Is that enough for this week?	188879558	1477025003418	1477025003586	SHIFT	16
368681	3976031	Is that enough for this week?	Is that enough for this week?	188879559	1477025003522	1477025003634	?	191
368681	3976036	Can you please review and get back to Tim?	Can you please review and get back to Tim?	188879616	1477025005378	1477025005497	SHIFT	16
368681	3976036	Can you please review and get back to Tim?	Can you please review and get back to Tim?	188879619	1477025005490	1477025005578	C	67
368681	3976036	Can you please review and get back to Tim?	Can you please review and get back to Tim?	188879622	1477025005650	1477025005756	a	65
368681	3976036	Can you please review and get back to Tim?	Can you please review and get back to Tim?	188879625	1477025005730	1477025005778	n	78
368681	3976036	Can you please review and get back to Tim?	Can you please review and get back to Tim?	188879627	1477025005842	1477025005930	 	32
368681	3976036	Can you please review and get back to Tim?	Can you please review and get back to Tim?	188879631	1477025005914	1477025006010	y	89
368681	3976036	Can you please review and get back to Tim?	Can you please review and get back to Tim?	188879633	1477025006074	1477025006178	o	79
368681	3976036	Can you please review and get back to Tim?	Can you please review and get back to Tim?	188879635	1477025006130	1477025006258	u	85
368681	3976036	Can you please review and get back to Tim?	Can you please review and get back to Tim?	188879637	1477025006202	1477025006322	 	32
368681	3976036	Can you please review and get back to Tim?	Can you please review and get back to Tim?	188879639	1477025006266	1477025006346	p	80
368681	3976036	Can you please review and get back to Tim?	Can you please review and get back to Tim?	188879641	1477025006443	1477025006554	l	76
368681	3976036	Can you please review and get back to Tim?	Can you please review and get back to Tim?	188879658	1477025006498	1477025006577	e	69
368681	3976036	Can you please review and get back to Tim?	Can you please review and get back to Tim?	188879661	1477025006563	1477025006666	a	65
368681	3976036	Can you please review and get back to Tim?	Can you please review and get back to Tim?	188879667	1477025006698	1477025006866	s	83
368681	3976036	Can you please review and get back to Tim?	Can you please review and get back to Tim?	188879665	1477025006722	1477025006802	e	69
368681	3976036	Can you please review and get back to Tim?	Can you please review and get back to Tim?	188879669	1477025007098	1477025007242	 	32
368681	3976036	Can you please review and get back to Tim?	Can you please review and get back to Tim?	188879681	1477025007226	1477025007353	r	82
368681	3976036	Can you please review and get back to Tim?	Can you please review and get back to Tim?	188879682	1477025007338	1477025007418	e	69
368681	3976036	Can you please review and get back to Tim?	Can you please review and get back to Tim?	188879683	1477025007482	1477025007562	v	86
368681	3976036	Can you please review and get back to Tim?	Can you please review and get back to Tim?	188879684	1477025007586	1477025007706	i	73
368681	3976036	Can you please review and get back to Tim?	Can you please review and get back to Tim?	188879685	1477025007674	1477025007794	e	69
368681	3976036	Can you please review and get back to Tim?	Can you please review and get back to Tim?	188879691	1477025007738	1477025007851	w	87
368681	3976036	Can you please review and get back to Tim?	Can you please review and get back to Tim?	188879693	1477025007834	1477025007922	 	32
368681	3976036	Can you please review and get back to Tim?	Can you please review and get back to Tim?	188879695	1477025008066	1477025008201	a	65
368681	3976036	Can you please review and get back to Tim?	Can you please review and get back to Tim?	188879697	1477025008194	1477025008289	n	78
368681	3976036	Can you please review and get back to Tim?	Can you please review and get back to Tim?	188879699	1477025008282	1477025008377	d	68
368681	3976036	Can you please review and get back to Tim?	Can you please review and get back to Tim?	188879707	1477025008370	1477025008498	 	32
368681	3976036	Can you please review and get back to Tim?	Can you please review and get back to Tim?	188879709	1477025008450	1477025008530	g	71
368681	3976036	Can you please review and get back to Tim?	Can you please review and get back to Tim?	188879712	1477025008570	1477025008746	e	69
368681	3976036	Can you please review and get back to Tim?	Can you please review and get back to Tim?	188879715	1477025008666	1477025008754	t	84
368681	3976036	Can you please review and get back to Tim?	Can you please review and get back to Tim?	188879720	1477025008770	1477025008866	 	32
368681	3976036	Can you please review and get back to Tim?	Can you please review and get back to Tim?	188879723	1477025008882	1477025008978	b	66
368681	3976036	Can you please review and get back to Tim?	Can you please review and get back to Tim?	188879734	1477025008963	1477025009034	a	65
368681	3976036	Can you please review and get back to Tim?	Can you please review and get back to Tim?	188879738	1477025009114	1477025009185	c	67
368681	3976036	Can you please review and get back to Tim?	Can you please review and get back to Tim?	188879741	1477025009170	1477025009234	k	75
368681	3976036	Can you please review and get back to Tim?	Can you please review and get back to Tim?	188879745	1477025009282	1477025009369	 	32
368681	3976036	Can you please review and get back to Tim?	Can you please review and get back to Tim?	188879748	1477025009362	1477025009458	t	84
368681	3976036	Can you please review and get back to Tim?	Can you please review and get back to Tim?	188879773	1477025009442	1477025009561	o	79
368681	3976036	Can you please review and get back to Tim?	Can you please review and get back to Tim?	188879776	1477025009482	1477025009618	 	32
368681	3976036	Can you please review and get back to Tim?	Can you please review and get back to Tim?	188879779	1477025009626	1477025009761	SHIFT	16
368681	3976036	Can you please review and get back to Tim?	Can you please review and get back to Tim?	188879785	1477025009730	1477025009826	T	84
368681	3976036	Can you please review and get back to Tim?	Can you please review and get back to Tim?	188879782	1477025009762	1477025009817	i	73
368681	3976036	Can you please review and get back to Tim?	Can you please review and get back to Tim?	188879787	1477025009930	1477025009994	m	77
368681	3976036	Can you please review and get back to Tim?	Can you please review and get back to Tim?	188879791	1477025010217	1477025010369	SHIFT	16
368681	3976036	Can you please review and get back to Tim?	Can you please review and get back to Tim?	188879784	1477025010314	1477025010426	?	191
368681	3976040	Sounds good to me.	Sounds good to me.	188879861	1477025012115	1477025012303	SHIFT	16
368681	3976040	Sounds good to me.	Sounds good to me.	188879863	1477025012234	1477025012313	S	83
368681	3976040	Sounds good to me.	Sounds good to me.	188879867	1477025012274	1477025012330	O	79
368681	3976040	Sounds good to me.	Sounds good to me.	188879869	1477025012602	1477025012657	u	85
368681	3976040	Sounds good to me.	Sounds good to me.	188879872	1477025012858	1477025012889	BKSP	8
368681	3976040	Sounds good to me.	Sounds good to me.	188879877	1477025012962	1477025013010	BKSP	8
368681	3976040	Sounds good to me.	Sounds good to me.	188879880	1477025013146	1477025013266	o	79
368681	3976040	Sounds good to me.	Sounds good to me.	188879888	1477025013226	1477025013273	u	85
368681	3976040	Sounds good to me.	Sounds good to me.	188879892	1477025013386	1477025013457	n	78
368681	3976040	Sounds good to me.	Sounds good to me.	188879896	1477025013450	1477025013594	d	68
368681	3976040	Sounds good to me.	Sounds good to me.	188879899	1477025013514	1477025013626	s	83
368681	3976040	Sounds good to me.	Sounds good to me.	188879901	1477025013650	1477025013723	 	32
368681	3976040	Sounds good to me.	Sounds good to me.	188879904	1477025013722	1477025013818	g	71
368681	3976040	Sounds good to me.	Sounds good to me.	188879905	1477025013770	1477025013834	o	79
368681	3976040	Sounds good to me.	Sounds good to me.	188879906	1477025013906	1477025014018	o	79
368681	3976040	Sounds good to me.	Sounds good to me.	188879907	1477025013962	1477025014057	d	68
368681	3976040	Sounds good to me.	Sounds good to me.	188879908	1477025014050	1477025014161	 	32
368681	3976040	Sounds good to me.	Sounds good to me.	188879910	1477025014154	1477025014265	t	84
368681	3976040	Sounds good to me.	Sounds good to me.	188879912	1477025014186	1477025014281	o	79
368681	3976040	Sounds good to me.	Sounds good to me.	188879914	1477025014258	1477025014322	 	32
368681	3976040	Sounds good to me.	Sounds good to me.	188879916	1477025014410	1477025014473	m	77
368681	3976040	Sounds good to me.	Sounds good to me.	188879919	1477025014482	1477025014602	e	69
368681	3976040	Sounds good to me.	Sounds good to me.	188879922	1477025014594	1477025014689	.	190
368681	3976043	No obligation to pay.	No obligation to pay.	188880008	1477025016466	1477025016642	SHIFT	16
368681	3976043	No obligation to pay.	No obligation to pay.	188880010	1477025016578	1477025016666	N	78
368681	3976043	No obligation to pay.	No obligation to pay.	188880014	1477025016698	1477025016769	o	79
368681	3976043	No obligation to pay.	No obligation to pay.	188880019	1477025016787	1477025016913	 	32
368681	3976043	No obligation to pay.	No obligation to pay.	188880022	1477025016890	1477025016994	o	79
368681	3976043	No obligation to pay.	No obligation to pay.	188880025	1477025017035	1477025017138	b	66
368681	3976043	No obligation to pay.	No obligation to pay.	188880039	1477025017290	1477025017393	l	76
368681	3976043	No obligation to pay.	No obligation to pay.	188880040	1477025017419	1477025017499	i	73
368681	3976043	No obligation to pay.	No obligation to pay.	188880042	1477025017569	1477025017650	g	71
368681	3976043	No obligation to pay.	No obligation to pay.	188880044	1477025017658	1477025017785	a	65
368681	3976043	No obligation to pay.	No obligation to pay.	188880053	1477025017778	1477025017914	t	84
368681	3976043	No obligation to pay.	No obligation to pay.	188880056	1477025017818	1477025017953	i	73
368681	3976043	No obligation to pay.	No obligation to pay.	188880057	1477025017874	1477025017986	o	79
368681	3976043	No obligation to pay.	No obligation to pay.	188880059	1477025017970	1477025018065	n	78
368681	3976043	No obligation to pay.	No obligation to pay.	188880060	1477025018098	1477025018178	 	32
368681	3976043	No obligation to pay.	No obligation to pay.	188880062	1477025018186	1477025018233	o	79
368681	3976043	No obligation to pay.	No obligation to pay.	188880098	1477025018466	1477025018529	BKSP	8
368681	3976043	No obligation to pay.	No obligation to pay.	188880100	1477025018698	1477025018809	t	84
368681	3976043	No obligation to pay.	No obligation to pay.	188880102	1477025018762	1477025018873	o	79
368681	3976043	No obligation to pay.	No obligation to pay.	188880104	1477025018873	1477025018993	 	32
368681	3976043	No obligation to pay.	No obligation to pay.	188880105	1477025018946	1477025019089	p	80
368681	3976043	No obligation to pay.	No obligation to pay.	188880115	1477025019050	1477025019162	a	65
368681	3976043	No obligation to pay.	No obligation to pay.	188880118	1477025019098	1477025019193	y	89
368681	3976043	No obligation to pay.	No obligation to pay.	188880124	1477025019337	1477025019393	.	190
368681	3976047	I was a bit rusty but I didn't want to miss the elections back home.	I was a bit rusty but I didn't want to miss the elections back home.	188880225	1477025021314	1477025021465	SHIFT	16
368681	3976047	I was a bit rusty but I didn't want to miss the elections back home.	I was a bit rusty but I didn't want to miss the elections back home.	188880229	1477025021370	1477025021466	I	73
368681	3976047	I was a bit rusty but I didn't want to miss the elections back home.	I was a bit rusty but I didn't want to miss the elections back home.	188880233	1477025021522	1477025021665	 	32
368681	3976047	I was a bit rusty but I didn't want to miss the elections back home.	I was a bit rusty but I didn't want to miss the elections back home.	188880237	1477025021714	1477025021801	w	87
368681	3976047	I was a bit rusty but I didn't want to miss the elections back home.	I was a bit rusty but I didn't want to miss the elections back home.	188880240	1477025021754	1477025021849	a	65
368681	3976047	I was a bit rusty but I didn't want to miss the elections back home.	I was a bit rusty but I didn't want to miss the elections back home.	188880242	1477025021914	1477025022009	s	83
368681	3976047	I was a bit rusty but I didn't want to miss the elections back home.	I was a bit rusty but I didn't want to miss the elections back home.	188880253	1477025021986	1477025022049	 	32
368681	3976047	I was a bit rusty but I didn't want to miss the elections back home.	I was a bit rusty but I didn't want to miss the elections back home.	188880255	1477025022074	1477025022169	a	65
368681	3976047	I was a bit rusty but I didn't want to miss the elections back home.	I was a bit rusty but I didn't want to miss the elections back home.	188880256	1477025022155	1477025022257	 	32
368681	3976047	I was a bit rusty but I didn't want to miss the elections back home.	I was a bit rusty but I didn't want to miss the elections back home.	188880257	1477025022234	1477025022313	b	66
368681	3976047	I was a bit rusty but I didn't want to miss the elections back home.	I was a bit rusty but I didn't want to miss the elections back home.	188880259	1477025022338	1477025022401	i	73
368681	3976047	I was a bit rusty but I didn't want to miss the elections back home.	I was a bit rusty but I didn't want to miss the elections back home.	188880261	1477025022426	1477025022505	t	84
368681	3976047	I was a bit rusty but I didn't want to miss the elections back home.	I was a bit rusty but I didn't want to miss the elections back home.	188880285	1477025022521	1477025022633	 	32
368681	3976047	I was a bit rusty but I didn't want to miss the elections back home.	I was a bit rusty but I didn't want to miss the elections back home.	188880289	1477025022794	1477025022921	r	82
368681	3976047	I was a bit rusty but I didn't want to miss the elections back home.	I was a bit rusty but I didn't want to miss the elections back home.	188880292	1477025022970	1477025023089	u	85
368681	3976047	I was a bit rusty but I didn't want to miss the elections back home.	I was a bit rusty but I didn't want to miss the elections back home.	188880294	1477025023098	1477025023225	s	83
368681	3976047	I was a bit rusty but I didn't want to miss the elections back home.	I was a bit rusty but I didn't want to miss the elections back home.	188880319	1477025023186	1477025023297	t	84
368681	3976047	I was a bit rusty but I didn't want to miss the elections back home.	I was a bit rusty but I didn't want to miss the elections back home.	188880323	1477025023289	1477025023377	y	89
368681	3976047	I was a bit rusty but I didn't want to miss the elections back home.	I was a bit rusty but I didn't want to miss the elections back home.	188880327	1477025023386	1477025023489	 	32
368681	3976047	I was a bit rusty but I didn't want to miss the elections back home.	I was a bit rusty but I didn't want to miss the elections back home.	188880330	1477025023538	1477025023617	b	66
368681	3976047	I was a bit rusty but I didn't want to miss the elections back home.	I was a bit rusty but I didn't want to miss the elections back home.	188880333	1477025023634	1477025023721	u	85
368681	3976047	I was a bit rusty but I didn't want to miss the elections back home.	I was a bit rusty but I didn't want to miss the elections back home.	188880335	1477025023746	1477025023841	t	84
368681	3976047	I was a bit rusty but I didn't want to miss the elections back home.	I was a bit rusty but I didn't want to miss the elections back home.	188880348	1477025023802	1477025023913	 	32
368681	3976047	I was a bit rusty but I didn't want to miss the elections back home.	I was a bit rusty but I didn't want to miss the elections back home.	188880351	1477025023945	1477025024065	SHIFT	16
368681	3976047	I was a bit rusty but I didn't want to miss the elections back home.	I was a bit rusty but I didn't want to miss the elections back home.	188880354	1477025023978	1477025024073	I	73
368681	3976047	I was a bit rusty but I didn't want to miss the elections back home.	I was a bit rusty but I didn't want to miss the elections back home.	188880357	1477025024058	1477025024169	 	32
368681	3976047	I was a bit rusty but I didn't want to miss the elections back home.	I was a bit rusty but I didn't want to miss the elections back home.	188880360	1477025024138	1477025024225	d	68
368681	3976047	I was a bit rusty but I didn't want to miss the elections back home.	I was a bit rusty but I didn't want to miss the elections back home.	188880362	1477025024186	1477025024281	i	73
368681	3976047	I was a bit rusty but I didn't want to miss the elections back home.	I was a bit rusty but I didn't want to miss the elections back home.	188880366	1477025024298	1477025024401	d	68
368681	3976047	I was a bit rusty but I didn't want to miss the elections back home.	I was a bit rusty but I didn't want to miss the elections back home.	188880375	1477025024394	1477025024521	n	78
368681	3976047	I was a bit rusty but I didn't want to miss the elections back home.	I was a bit rusty but I didn't want to miss the elections back home.	188880378	1477025024529	1477025024665	'	222
368681	3976047	I was a bit rusty but I didn't want to miss the elections back home.	I was a bit rusty but I didn't want to miss the elections back home.	188880380	1477025024754	1477025024841	t	84
368681	3976047	I was a bit rusty but I didn't want to miss the elections back home.	I was a bit rusty but I didn't want to miss the elections back home.	188880382	1477025024881	1477025025001	 	32
368681	3976047	I was a bit rusty but I didn't want to miss the elections back home.	I was a bit rusty but I didn't want to miss the elections back home.	188880385	1477025024978	1477025025145	w	87
368681	3976047	I was a bit rusty but I didn't want to miss the elections back home.	I was a bit rusty but I didn't want to miss the elections back home.	188880395	1477025025057	1477025025185	a	65
368681	3976047	I was a bit rusty but I didn't want to miss the elections back home.	I was a bit rusty but I didn't want to miss the elections back home.	188880397	1477025025161	1477025025241	n	78
368681	3976047	I was a bit rusty but I didn't want to miss the elections back home.	I was a bit rusty but I didn't want to miss the elections back home.	188880399	1477025025250	1477025025321	t	84
368681	3976047	I was a bit rusty but I didn't want to miss the elections back home.	I was a bit rusty but I didn't want to miss the elections back home.	188880400	1477025025337	1477025025417	 	32
368681	3976047	I was a bit rusty but I didn't want to miss the elections back home.	I was a bit rusty but I didn't want to miss the elections back home.	188880401	1477025025402	1477025025513	t	84
368681	3976047	I was a bit rusty but I didn't want to miss the elections back home.	I was a bit rusty but I didn't want to miss the elections back home.	188880419	1477025025427	1477025025529	o	79
368681	3976047	I was a bit rusty but I didn't want to miss the elections back home.	I was a bit rusty but I didn't want to miss the elections back home.	188880420	1477025025498	1477025025561	 	32
368681	3976047	I was a bit rusty but I didn't want to miss the elections back home.	I was a bit rusty but I didn't want to miss the elections back home.	188880421	1477025025649	1477025025706	m	77
368681	3976047	I was a bit rusty but I didn't want to miss the elections back home.	I was a bit rusty but I didn't want to miss the elections back home.	188880422	1477025025818	1477025025897	i	73
368681	3976047	I was a bit rusty but I didn't want to miss the elections back home.	I was a bit rusty but I didn't want to miss the elections back home.	188880424	1477025025865	1477025025937	s	83
368681	3976047	I was a bit rusty but I didn't want to miss the elections back home.	I was a bit rusty but I didn't want to miss the elections back home.	188880427	1477025026001	1477025026129	s	83
368681	3976047	I was a bit rusty but I didn't want to miss the elections back home.	I was a bit rusty but I didn't want to miss the elections back home.	188880428	1477025026161	1477025026241	 	32
368681	3976047	I was a bit rusty but I didn't want to miss the elections back home.	I was a bit rusty but I didn't want to miss the elections back home.	188880450	1477025026233	1477025026322	t	84
368681	3976047	I was a bit rusty but I didn't want to miss the elections back home.	I was a bit rusty but I didn't want to miss the elections back home.	188880452	1477025026329	1477025026401	h	72
368681	3976047	I was a bit rusty but I didn't want to miss the elections back home.	I was a bit rusty but I didn't want to miss the elections back home.	188880456	1477025026386	1477025026505	e	69
368681	3976047	I was a bit rusty but I didn't want to miss the elections back home.	I was a bit rusty but I didn't want to miss the elections back home.	188880458	1477025026497	1477025026617	 	32
368681	3976047	I was a bit rusty but I didn't want to miss the elections back home.	I was a bit rusty but I didn't want to miss the elections back home.	188880460	1477025026593	1477025026729	e	69
368681	3976047	I was a bit rusty but I didn't want to miss the elections back home.	I was a bit rusty but I didn't want to miss the elections back home.	188880462	1477025026778	1477025026905	l	76
368681	3976047	I was a bit rusty but I didn't want to miss the elections back home.	I was a bit rusty but I didn't want to miss the elections back home.	188880483	1477025027066	1477025027145	c	67
368681	3976047	I was a bit rusty but I didn't want to miss the elections back home.	I was a bit rusty but I didn't want to miss the elections back home.	188880484	1477025027353	1477025027441	BKSP	8
368681	3976047	I was a bit rusty but I didn't want to miss the elections back home.	I was a bit rusty but I didn't want to miss the elections back home.	188880488	1477025027449	1477025027521	e	69
368681	3976047	I was a bit rusty but I didn't want to miss the elections back home.	I was a bit rusty but I didn't want to miss the elections back home.	188880492	1477025027658	1477025027705	c	67
368681	3976047	I was a bit rusty but I didn't want to miss the elections back home.	I was a bit rusty but I didn't want to miss the elections back home.	188880496	1477025027833	1477025027953	t	84
368681	3976047	I was a bit rusty but I didn't want to miss the elections back home.	I was a bit rusty but I didn't want to miss the elections back home.	188880505	1477025027890	1477025028034	o	73
368681	3976047	I was a bit rusty but I didn't want to miss the elections back home.	I was a bit rusty but I didn't want to miss the elections back home.	188880506	1477025028025	1477025028113	n	78
368681	3976047	I was a bit rusty but I didn't want to miss the elections back home.	I was a bit rusty but I didn't want to miss the elections back home.	188880507	1477025028081	1477025028169	s	83
368681	3976047	I was a bit rusty but I didn't want to miss the elections back home.	I was a bit rusty but I didn't want to miss the elections back home.	188880508	1477025028193	1477025028321	 	32
368681	3976047	I was a bit rusty but I didn't want to miss the elections back home.	I was a bit rusty but I didn't want to miss the elections back home.	188880509	1477025028282	1477025028345	b	66
368681	3976047	I was a bit rusty but I didn't want to miss the elections back home.	I was a bit rusty but I didn't want to miss the elections back home.	188880520	1477025028329	1477025028417	a	65
368681	3976047	I was a bit rusty but I didn't want to miss the elections back home.	I was a bit rusty but I didn't want to miss the elections back home.	188880522	1477025028498	1477025028609	c	67
368681	3976047	I was a bit rusty but I didn't want to miss the elections back home.	I was a bit rusty but I didn't want to miss the elections back home.	188880524	1477025028569	1477025028665	k	75
368681	3976047	I was a bit rusty but I didn't want to miss the elections back home.	I was a bit rusty but I didn't want to miss the elections back home.	188880526	1477025028706	1477025028793	 	32
368681	3976047	I was a bit rusty but I didn't want to miss the elections back home.	I was a bit rusty but I didn't want to miss the elections back home.	188880528	1477025028769	1477025028905	h	72
368681	3976047	I was a bit rusty but I didn't want to miss the elections back home.	I was a bit rusty but I didn't want to miss the elections back home.	188880545	1477025028842	1477025028945	o	79
368681	3976047	I was a bit rusty but I didn't want to miss the elections back home.	I was a bit rusty but I didn't want to miss the elections back home.	188880548	1477025029033	1477025029107	m	77
368681	3976047	I was a bit rusty but I didn't want to miss the elections back home.	I was a bit rusty but I didn't want to miss the elections back home.	188880550	1477025029105	1477025029217	e	69
368681	3976047	I was a bit rusty but I didn't want to miss the elections back home.	I was a bit rusty but I didn't want to miss the elections back home.	188880551	1477025029225	1477025029336	.	190
368681	3976055	Last week Ballesteros had 16 pars and two birdies in his final round.	Las week Ballesteros had 16 pars and two birdies in his final round.	188880611	1477025031129	1477025031273	SHIFT	16
368681	3976055	Last week Ballesteros had 16 pars and two birdies in his final round.	Las week Ballesteros had 16 pars and two birdies in his final round.	188880615	1477025031249	1477025031353	L	76
368681	3976055	Last week Ballesteros had 16 pars and two birdies in his final round.	Las week Ballesteros had 16 pars and two birdies in his final round.	188880619	1477025031393	1477025031528	a	65
368681	3976055	Last week Ballesteros had 16 pars and two birdies in his final round.	Las week Ballesteros had 16 pars and two birdies in his final round.	188880621	1477025031513	1477025031625	s	83
368681	3976055	Last week Ballesteros had 16 pars and two birdies in his final round.	Las week Ballesteros had 16 pars and two birdies in his final round.	188880624	1477025031650	1477025031761	 	32
368681	3976055	Last week Ballesteros had 16 pars and two birdies in his final round.	Las week Ballesteros had 16 pars and two birdies in his final round.	188880635	1477025031745	1477025031817	w	87
368681	3976055	Last week Ballesteros had 16 pars and two birdies in his final round.	Las week Ballesteros had 16 pars and two birdies in his final round.	188880637	1477025031905	1477025031945	e	69
368681	3976055	Last week Ballesteros had 16 pars and two birdies in his final round.	Las week Ballesteros had 16 pars and two birdies in his final round.	188880639	1477025032002	1477025032120	e	69
368681	3976055	Last week Ballesteros had 16 pars and two birdies in his final round.	Las week Ballesteros had 16 pars and two birdies in his final round.	188880641	1477025032113	1477025032185	k	75
368681	3976055	Last week Ballesteros had 16 pars and two birdies in his final round.	Las week Ballesteros had 16 pars and two birdies in his final round.	188880642	1477025032242	1477025032361	 	32
368681	3976055	Last week Ballesteros had 16 pars and two birdies in his final round.	Las week Ballesteros had 16 pars and two birdies in his final round.	188880643	1477025032337	1477025032521	SHIFT	16
368681	3976055	Last week Ballesteros had 16 pars and two birdies in his final round.	Las week Ballesteros had 16 pars and two birdies in his final round.	188880653	1477025032481	1477025032561	B	66
368681	3976055	Last week Ballesteros had 16 pars and two birdies in his final round.	Las week Ballesteros had 16 pars and two birdies in his final round.	188880657	1477025032641	1477025032761	a	65
368681	3976055	Last week Ballesteros had 16 pars and two birdies in his final round.	Las week Ballesteros had 16 pars and two birdies in his final round.	188880662	1477025032793	1477025032865	l	76
368681	3976055	Last week Ballesteros had 16 pars and two birdies in his final round.	Las week Ballesteros had 16 pars and two birdies in his final round.	188880667	1477025032946	1477025033049	l	76
368681	3976055	Last week Ballesteros had 16 pars and two birdies in his final round.	Las week Ballesteros had 16 pars and two birdies in his final round.	188880671	1477025033001	1477025033169	e	69
368681	3976055	Last week Ballesteros had 16 pars and two birdies in his final round.	Las week Ballesteros had 16 pars and two birdies in his final round.	188880687	1477025033089	1477025033241	s	83
368681	3976055	Last week Ballesteros had 16 pars and two birdies in his final round.	Las week Ballesteros had 16 pars and two birdies in his final round.	188880690	1477025033201	1477025033273	t	84
368681	3976055	Last week Ballesteros had 16 pars and two birdies in his final round.	Las week Ballesteros had 16 pars and two birdies in his final round.	188880692	1477025033473	1477025033585	e	69
368681	3976055	Last week Ballesteros had 16 pars and two birdies in his final round.	Las week Ballesteros had 16 pars and two birdies in his final round.	188880694	1477025033561	1477025033675	r	82
368681	3976055	Last week Ballesteros had 16 pars and two birdies in his final round.	Las week Ballesteros had 16 pars and two birdies in his final round.	188880695	1477025033674	1477025033801	o	79
368681	3976055	Last week Ballesteros had 16 pars and two birdies in his final round.	Las week Ballesteros had 16 pars and two birdies in his final round.	188880700	1477025033785	1477025033888	s	83
368681	3976055	Last week Ballesteros had 16 pars and two birdies in his final round.	Las week Ballesteros had 16 pars and two birdies in his final round.	188880702	1477025033881	1477025033993	 	32
368681	3976055	Last week Ballesteros had 16 pars and two birdies in his final round.	Las week Ballesteros had 16 pars and two birdies in his final round.	188880706	1477025033969	1477025034081	h	72
368681	3976055	Last week Ballesteros had 16 pars and two birdies in his final round.	Las week Ballesteros had 16 pars and two birdies in his final round.	188880711	1477025034025	1477025034154	a	65
368681	3976055	Last week Ballesteros had 16 pars and two birdies in his final round.	Las week Ballesteros had 16 pars and two birdies in his final round.	188880716	1477025034137	1477025034249	d	68
368681	3976055	Last week Ballesteros had 16 pars and two birdies in his final round.	Las week Ballesteros had 16 pars and two birdies in his final round.	188880748	1477025034233	1477025034345	 	32
368681	3976055	Last week Ballesteros had 16 pars and two birdies in his final round.	Las week Ballesteros had 16 pars and two birdies in his final round.	188880754	1477025034409	1477025034521	1	49
368681	3976055	Last week Ballesteros had 16 pars and two birdies in his final round.	Las week Ballesteros had 16 pars and two birdies in his final round.	188880758	1477025034561	1477025034648	6	54
368681	3976055	Last week Ballesteros had 16 pars and two birdies in his final round.	Las week Ballesteros had 16 pars and two birdies in his final round.	188880762	1477025034641	1477025034761	 	32
368681	3976055	Last week Ballesteros had 16 pars and two birdies in his final round.	Las week Ballesteros had 16 pars and two birdies in his final round.	188880766	1477025034953	1477025035105	p	80
368681	3976055	Last week Ballesteros had 16 pars and two birdies in his final round.	Las week Ballesteros had 16 pars and two birdies in his final round.	188880768	1477025035330	1477025035529	r	82
368681	3976055	Last week Ballesteros had 16 pars and two birdies in his final round.	Las week Ballesteros had 16 pars and two birdies in his final round.	188880774	1477025035489	1477025035569	s	83
368681	3976055	Last week Ballesteros had 16 pars and two birdies in his final round.	Las week Ballesteros had 16 pars and two birdies in his final round.	188880778	1477025035705	1477025035753	BKSP	8
368681	3976055	Last week Ballesteros had 16 pars and two birdies in his final round.	Las week Ballesteros had 16 pars and two birdies in his final round.	188880782	1477025035825	1477025035921	BKSP	8
368681	3976055	Last week Ballesteros had 16 pars and two birdies in his final round.	Las week Ballesteros had 16 pars and two birdies in his final round.	188880784	1477025035889	1477025035985	a	65
368681	3976055	Last week Ballesteros had 16 pars and two birdies in his final round.	Las week Ballesteros had 16 pars and two birdies in his final round.	188880786	1477025035945	1477025036073	r	82
368681	3976055	Last week Ballesteros had 16 pars and two birdies in his final round.	Las week Ballesteros had 16 pars and two birdies in his final round.	188880789	1477025036161	1477025036265	s	83
368681	3976055	Last week Ballesteros had 16 pars and two birdies in his final round.	Las week Ballesteros had 16 pars and two birdies in his final round.	188880792	1477025036273	1477025036355	 	32
368681	3976055	Last week Ballesteros had 16 pars and two birdies in his final round.	Las week Ballesteros had 16 pars and two birdies in his final round.	188880800	1477025036353	1477025036441	a	65
368681	3976055	Last week Ballesteros had 16 pars and two birdies in his final round.	Las week Ballesteros had 16 pars and two birdies in his final round.	188880803	1477025036465	1477025036537	n	78
368681	3976055	Last week Ballesteros had 16 pars and two birdies in his final round.	Las week Ballesteros had 16 pars and two birdies in his final round.	188880805	1477025036497	1477025036601	d	68
368681	3976055	Last week Ballesteros had 16 pars and two birdies in his final round.	Las week Ballesteros had 16 pars and two birdies in his final round.	188880808	1477025036633	1477025036729	 	32
368681	3976055	Last week Ballesteros had 16 pars and two birdies in his final round.	Las week Ballesteros had 16 pars and two birdies in his final round.	188880812	1477025036681	1477025036809	t	84
368681	3976055	Last week Ballesteros had 16 pars and two birdies in his final round.	Las week Ballesteros had 16 pars and two birdies in his final round.	188880835	1477025036745	1477025036856	w	87
368681	3976055	Last week Ballesteros had 16 pars and two birdies in his final round.	Las week Ballesteros had 16 pars and two birdies in his final round.	188880839	1477025036793	1477025036897	o	79
368681	3976055	Last week Ballesteros had 16 pars and two birdies in his final round.	Las week Ballesteros had 16 pars and two birdies in his final round.	188880842	1477025036849	1477025036976	 	32
368681	3976055	Last week Ballesteros had 16 pars and two birdies in his final round.	Las week Ballesteros had 16 pars and two birdies in his final round.	188880848	1477025036969	1477025037040	b	66
368681	3976055	Last week Ballesteros had 16 pars and two birdies in his final round.	Las week Ballesteros had 16 pars and two birdies in his final round.	188880852	1477025037081	1477025037161	i	73
368681	3976055	Last week Ballesteros had 16 pars and two birdies in his final round.	Las week Ballesteros had 16 pars and two birdies in his final round.	188880856	1477025037169	1477025037265	r	82
368681	3976055	Last week Ballesteros had 16 pars and two birdies in his final round.	Las week Ballesteros had 16 pars and two birdies in his final round.	188880858	1477025037281	1477025037385	i	73
368681	3976055	Last week Ballesteros had 16 pars and two birdies in his final round.	Las week Ballesteros had 16 pars and two birdies in his final round.	188880866	1477025037409	1477025037489	d	68
368681	3976055	Last week Ballesteros had 16 pars and two birdies in his final round.	Las week Ballesteros had 16 pars and two birdies in his final round.	188880868	1477025037513	1477025037577	i	73
368681	3976055	Last week Ballesteros had 16 pars and two birdies in his final round.	Las week Ballesteros had 16 pars and two birdies in his final round.	188880869	1477025037705	1477025037881	e	69
368681	3976055	Last week Ballesteros had 16 pars and two birdies in his final round.	Las week Ballesteros had 16 pars and two birdies in his final round.	188880870	1477025037825	1477025037921	s	83
368681	3976055	Last week Ballesteros had 16 pars and two birdies in his final round.	Las week Ballesteros had 16 pars and two birdies in his final round.	188880871	1477025037945	1477025038073	 	32
368681	3976055	Last week Ballesteros had 16 pars and two birdies in his final round.	Las week Ballesteros had 16 pars and two birdies in his final round.	188880925	1477025038129	1477025038201	i	73
368681	3976055	Last week Ballesteros had 16 pars and two birdies in his final round.	Las week Ballesteros had 16 pars and two birdies in his final round.	188880927	1477025038273	1477025038336	n	78
368681	3976055	Last week Ballesteros had 16 pars and two birdies in his final round.	Las week Ballesteros had 16 pars and two birdies in his final round.	188880930	1477025038409	1477025038496	 	32
368681	3976055	Last week Ballesteros had 16 pars and two birdies in his final round.	Las week Ballesteros had 16 pars and two birdies in his final round.	188880933	1477025038489	1477025038545	h	72
368681	3976055	Last week Ballesteros had 16 pars and two birdies in his final round.	Las week Ballesteros had 16 pars and two birdies in his final round.	188880935	1477025038689	1477025038753	BKSP	8
368681	3976055	Last week Ballesteros had 16 pars and two birdies in his final round.	Las week Ballesteros had 16 pars and two birdies in his final round.	188880937	1477025038825	1477025039984	BKSP	8
368681	3976055	Last week Ballesteros had 16 pars and two birdies in his final round.	Las week Ballesteros had 16 pars and two birdies in his final round.	188880943	1477025040177	1477025040265	d	68
368681	3976055	Last week Ballesteros had 16 pars and two birdies in his final round.	Las week Ballesteros had 16 pars and two birdies in his final round.	188880941	1477025040272	1477025040400	i	73
368681	3976055	Last week Ballesteros had 16 pars and two birdies in his final round.	Las week Ballesteros had 16 pars and two birdies in his final round.	188880944	1477025040417	1477025040536	e	69
368681	3976055	Last week Ballesteros had 16 pars and two birdies in his final round.	Las week Ballesteros had 16 pars and two birdies in his final round.	188880947	1477025040489	1477025040576	s	83
368681	3976055	Last week Ballesteros had 16 pars and two birdies in his final round.	Las week Ballesteros had 16 pars and two birdies in his final round.	188880950	1477025040544	1477025040617	 	32
368681	3976055	Last week Ballesteros had 16 pars and two birdies in his final round.	Las week Ballesteros had 16 pars and two birdies in his final round.	188880966	1477025040585	1477025040665	i	73
368681	3976055	Last week Ballesteros had 16 pars and two birdies in his final round.	Las week Ballesteros had 16 pars and two birdies in his final round.	188880967	1477025040721	1477025040777	n	78
368681	3976055	Last week Ballesteros had 16 pars and two birdies in his final round.	Las week Ballesteros had 16 pars and two birdies in his final round.	188880968	1477025040825	1477025040912	 	32
368681	3976055	Last week Ballesteros had 16 pars and two birdies in his final round.	Las week Ballesteros had 16 pars and two birdies in his final round.	188880969	1477025040897	1477025041025	h	72
368681	3976055	Last week Ballesteros had 16 pars and two birdies in his final round.	Las week Ballesteros had 16 pars and two birdies in his final round.	188880970	1477025040994	1477025041065	i	73
368681	3976055	Last week Ballesteros had 16 pars and two birdies in his final round.	Las week Ballesteros had 16 pars and two birdies in his final round.	188880978	1477025041049	1477025041113	s	83
368681	3976055	Last week Ballesteros had 16 pars and two birdies in his final round.	Las week Ballesteros had 16 pars and two birdies in his final round.	188880980	1477025041177	1477025041321	 	32
368681	3976055	Last week Ballesteros had 16 pars and two birdies in his final round.	Las week Ballesteros had 16 pars and two birdies in his final round.	188880982	1477025041305	1477025041416	f	70
368681	3976055	Last week Ballesteros had 16 pars and two birdies in his final round.	Las week Ballesteros had 16 pars and two birdies in his final round.	188880984	1477025041353	1477025041433	i	73
368681	3976055	Last week Ballesteros had 16 pars and two birdies in his final round.	Las week Ballesteros had 16 pars and two birdies in his final round.	188880987	1477025041481	1477025041553	a	78
368681	3976055	Last week Ballesteros had 16 pars and two birdies in his final round.	Las week Ballesteros had 16 pars and two birdies in his final round.	188880993	1477025041649	1477025041745	l	76
368681	3976055	Last week Ballesteros had 16 pars and two birdies in his final round.	Las week Ballesteros had 16 pars and two birdies in his final round.	188880995	1477025041753	1477025041881	 	32
368681	3976055	Last week Ballesteros had 16 pars and two birdies in his final round.	Las week Ballesteros had 16 pars and two birdies in his final round.	188880997	1477025041809	1477025041904	r	82
368681	3976055	Last week Ballesteros had 16 pars and two birdies in his final round.	Las week Ballesteros had 16 pars and two birdies in his final round.	188881001	1477025041897	1477025042033	o	79
368681	3976055	Last week Ballesteros had 16 pars and two birdies in his final round.	Las week Ballesteros had 16 pars and two birdies in his final round.	188881012	1477025041977	1477025042073	u	85
368681	3976055	Last week Ballesteros had 16 pars and two birdies in his final round.	Las week Ballesteros had 16 pars and two birdies in his final round.	188881014	1477025042169	1477025042289	n	78
368681	3976055	Last week Ballesteros had 16 pars and two birdies in his final round.	Las week Ballesteros had 16 pars and two birdies in his final round.	188881017	1477025042306	1477025042376	d	68
368681	3976055	Last week Ballesteros had 16 pars and two birdies in his final round.	Las week Ballesteros had 16 pars and two birdies in his final round.	188881019	1477025042417	1477025042496	.	190
368681	3976064	I want to finish the rest of the year.	I want to finish the rest of the year.	188881087	1477025044265	1477025044400	SHIFT	16
368681	3976064	I want to finish the rest of the year.	I want to finish the rest of the year.	188881089	1477025044329	1477025044417	I	73
368681	3976064	I want to finish the rest of the year.	I want to finish the rest of the year.	188881091	1477025044433	1477025044537	 	32
368681	3976064	I want to finish the rest of the year.	I want to finish the rest of the year.	188881093	1477025044553	1477025044664	w	87
368681	3976064	I want to finish the rest of the year.	I want to finish the rest of the year.	188881095	1477025044593	1477025044736	a	65
368681	3976064	I want to finish the rest of the year.	I want to finish the rest of the year.	188881108	1477025044729	1477025044785	n	78
368681	3976064	I want to finish the rest of the year.	I want to finish the rest of the year.	188881112	1477025044833	1477025044897	t	84
368681	3976064	I want to finish the rest of the year.	I want to finish the rest of the year.	188881120	1477025044913	1477025045000	 	32
368681	3976064	I want to finish the rest of the year.	I want to finish the rest of the year.	188881123	1477025044969	1477025045081	t	84
368681	3976064	I want to finish the rest of the year.	I want to finish the rest of the year.	188881125	1477025045033	1477025045160	o	79
368681	3976064	I want to finish the rest of the year.	I want to finish the rest of the year.	188881130	1477025045105	1477025045217	 	32
368681	3976064	I want to finish the rest of the year.	I want to finish the rest of the year.	188881132	1477025045225	1477025045336	i	70
368681	3976064	I want to finish the rest of the year.	I want to finish the rest of the year.	188881133	1477025045361	1477025045425	n	78
368681	3976064	I want to finish the rest of the year.	I want to finish the rest of the year.	188881134	1477025045473	1477025045552	i	73
368681	3976064	I want to finish the rest of the year.	I want to finish the rest of the year.	188881135	1477025045553	1477025045664	s	83
368681	3976064	I want to finish the rest of the year.	I want to finish the rest of the year.	188881137	1477025045641	1477025045713	h	72
368681	3976064	I want to finish the rest of the year.	I want to finish the rest of the year.	188881140	1477025045769	1477025045880	 	32
368681	3976064	I want to finish the rest of the year.	I want to finish the rest of the year.	188881143	1477025045937	1477025046064	t	84
368681	3976064	I want to finish the rest of the year.	I want to finish the rest of the year.	188881147	1477025046049	1477025046145	h	72
368681	3976064	I want to finish the rest of the year.	I want to finish the rest of the year.	188881149	1477025046153	1477025046248	e	69
368681	3976064	I want to finish the rest of the year.	I want to finish the rest of the year.	188881160	1477025046241	1477025046369	 	32
368681	3976064	I want to finish the rest of the year.	I want to finish the rest of the year.	188881162	1477025046321	1477025046465	r	82
368681	3976064	I want to finish the rest of the year.	I want to finish the rest of the year.	188881165	1477025046425	1477025046552	e	69
368681	3976064	I want to finish the rest of the year.	I want to finish the rest of the year.	188881168	1477025046473	1477025046608	s	83
368681	3976064	I want to finish the rest of the year.	I want to finish the rest of the year.	188881172	1477025046585	1477025046672	t	84
368681	3976064	I want to finish the rest of the year.	I want to finish the rest of the year.	188881182	1477025046665	1477025046752	 	32
368681	3976064	I want to finish the rest of the year.	I want to finish the rest of the year.	188881183	1477025046729	1477025046913	o	79
368681	3976064	I want to finish the rest of the year.	I want to finish the rest of the year.	188881184	1477025046857	1477025046936	f	70
368681	3976064	I want to finish the rest of the year.	I want to finish the rest of the year.	188881185	1477025046929	1477025047008	 	32
368681	3976064	I want to finish the rest of the year.	I want to finish the rest of the year.	188881187	1477025047033	1477025047137	t	84
368681	3976064	I want to finish the rest of the year.	I want to finish the rest of the year.	188881204	1477025047113	1477025047177	h	72
368681	3976064	I want to finish the rest of the year.	I want to finish the rest of the year.	188881206	1477025047201	1477025047288	e	69
368681	3976064	I want to finish the rest of the year.	I want to finish the rest of the year.	188881209	1477025047257	1477025047360	 	32
368681	3976064	I want to finish the rest of the year.	I want to finish the rest of the year.	188881211	1477025047345	1477025047457	y	89
368681	3976064	I want to finish the rest of the year.	I want to finish the rest of the year.	188881213	1477025047409	1477025047592	e	69
368681	3976064	I want to finish the rest of the year.	I want to finish the rest of the year.	188881216	1477025047489	1477025047600	a	65
368681	3976064	I want to finish the rest of the year.	I want to finish the rest of the year.	188881219	1477025047520	1477025047656	r	82
368681	3976064	I want to finish the rest of the year.	I want to finish the rest of the year.	188881222	1477025047673	1477025047760	.	190
368681	3976068	The deal was nominated and cut to zero.	The deal was nominated and cut to zero.	188881313	1477025049688	1477025049904	SHIFT	16
368681	3976068	The deal was nominated and cut to zero.	The deal was nominated and cut to zero.	188881315	1477025049873	1477025049992	T	84
368681	3976068	The deal was nominated and cut to zero.	The deal was nominated and cut to zero.	188881320	1477025049961	1477025050048	h	72
368681	3976068	The deal was nominated and cut to zero.	The deal was nominated and cut to zero.	188881324	1477025050057	1477025050136	e	69
368681	3976068	The deal was nominated and cut to zero.	The deal was nominated and cut to zero.	188881329	1477025050129	1477025050272	 	32
368681	3976068	The deal was nominated and cut to zero.	The deal was nominated and cut to zero.	188881334	1477025050313	1477025050392	d	68
368681	3976068	The deal was nominated and cut to zero.	The deal was nominated and cut to zero.	188881342	1477025050473	1477025050616	e	69
368681	3976068	The deal was nominated and cut to zero.	The deal was nominated and cut to zero.	188881343	1477025050537	1477025050672	a	65
368681	3976068	The deal was nominated and cut to zero.	The deal was nominated and cut to zero.	188881344	1477025050657	1477025050761	l	76
368681	3976068	The deal was nominated and cut to zero.	The deal was nominated and cut to zero.	188881345	1477025050745	1477025050872	 	32
368681	3976068	The deal was nominated and cut to zero.	The deal was nominated and cut to zero.	188881370	1477025050817	1477025050953	w	87
368681	3976068	The deal was nominated and cut to zero.	The deal was nominated and cut to zero.	188881374	1477025050897	1477025050992	a	65
368681	3976068	The deal was nominated and cut to zero.	The deal was nominated and cut to zero.	188881377	1477025051065	1477025051176	s	83
368681	3976068	The deal was nominated and cut to zero.	The deal was nominated and cut to zero.	188881379	1477025051113	1477025051224	 	32
368681	3976068	The deal was nominated and cut to zero.	The deal was nominated and cut to zero.	188881381	1477025051209	1477025051314	n	78
368681	3976068	The deal was nominated and cut to zero.	The deal was nominated and cut to zero.	188881401	1477025051289	1477025051400	o	79
368681	3976068	The deal was nominated and cut to zero.	The deal was nominated and cut to zero.	188881402	1477025051497	1477025051561	m	77
368681	3976068	The deal was nominated and cut to zero.	The deal was nominated and cut to zero.	188881403	1477025051657	1477025051704	i	73
368681	3976068	The deal was nominated and cut to zero.	The deal was nominated and cut to zero.	188881404	1477025051761	1477025051880	n	78
368681	3976068	The deal was nominated and cut to zero.	The deal was nominated and cut to zero.	188881406	1477025051817	1477025051936	a	65
368681	3976068	The deal was nominated and cut to zero.	The deal was nominated and cut to zero.	188881444	1477025051897	1477025052056	t	84
368681	3976068	The deal was nominated and cut to zero.	The deal was nominated and cut to zero.	188881446	1477025052008	1477025052120	e	69
368681	3976068	The deal was nominated and cut to zero.	The deal was nominated and cut to zero.	188881450	1477025052160	1477025052274	 	32
368681	3976068	The deal was nominated and cut to zero.	The deal was nominated and cut to zero.	188881454	1477025052273	1477025052360	a	65
368681	3976068	The deal was nominated and cut to zero.	The deal was nominated and cut to zero.	188881457	1477025052586	1477025052640	BKSP	8
368681	3976068	The deal was nominated and cut to zero.	The deal was nominated and cut to zero.	188881459	1477025052721	1477025052816	BKSP	8
368681	3976068	The deal was nominated and cut to zero.	The deal was nominated and cut to zero.	188881460	1477025052848	1477025052936	d	68
368681	3976068	The deal was nominated and cut to zero.	The deal was nominated and cut to zero.	188881461	1477025052992	1477025053088	 	32
368681	3976068	The deal was nominated and cut to zero.	The deal was nominated and cut to zero.	188881464	1477025053113	1477025053216	a	65
368681	3976068	The deal was nominated and cut to zero.	The deal was nominated and cut to zero.	188881466	1477025053217	1477025053272	n	78
368681	3976068	The deal was nominated and cut to zero.	The deal was nominated and cut to zero.	188881467	1477025053280	1477025053344	d	68
368681	3976068	The deal was nominated and cut to zero.	The deal was nominated and cut to zero.	188881469	1477025053361	1477025053464	 	32
368681	3976068	The deal was nominated and cut to zero.	The deal was nominated and cut to zero.	188881470	1477025053497	1477025053560	c	67
368681	3976068	The deal was nominated and cut to zero.	The deal was nominated and cut to zero.	188881471	1477025053568	1477025053656	u	85
368681	3976068	The deal was nominated and cut to zero.	The deal was nominated and cut to zero.	188881473	1477025053696	1477025053744	t	84
368681	3976068	The deal was nominated and cut to zero.	The deal was nominated and cut to zero.	188881475	1477025053729	1477025053832	 	32
368681	3976068	The deal was nominated and cut to zero.	The deal was nominated and cut to zero.	188881480	1477025053809	1477025053904	t	84
368681	3976068	The deal was nominated and cut to zero.	The deal was nominated and cut to zero.	188881491	1477025053873	1477025053976	o	79
368681	3976068	The deal was nominated and cut to zero.	The deal was nominated and cut to zero.	188881494	1477025053944	1477025054064	 	32
368681	3976068	The deal was nominated and cut to zero.	The deal was nominated and cut to zero.	188881497	1477025054033	1477025054144	z	90
368681	3976068	The deal was nominated and cut to zero.	The deal was nominated and cut to zero.	188881498	1477025054225	1477025054368	e	69
368681	3976068	The deal was nominated and cut to zero.	The deal was nominated and cut to zero.	188881505	1477025054288	1477025054416	r	82
368681	3976068	The deal was nominated and cut to zero.	The deal was nominated and cut to zero.	188881508	1477025054337	1477025054440	o	79
368681	3976068	The deal was nominated and cut to zero.	The deal was nominated and cut to zero.	188881511	1477025054561	1477025054632	.	190
368681	3976071	He should still be able to play in the team's next game.	He should still be able to play in the team's next game.	188881598	1477025056472	1477025056616	SHIFT	16
368681	3976071	He should still be able to play in the team's next game.	He should still be able to play in the team's next game.	188881600	1477025056561	1477025056664	H	72
368681	3976071	He should still be able to play in the team's next game.	He should still be able to play in the team's next game.	188881603	1477025056688	1477025056800	e	69
368681	3976071	He should still be able to play in the team's next game.	He should still be able to play in the team's next game.	188881605	1477025056793	1477025056880	 	32
368681	3976071	He should still be able to play in the team's next game.	He should still be able to play in the team's next game.	188881606	1477025056953	1477025057064	s	83
368681	3976071	He should still be able to play in the team's next game.	He should still be able to play in the team's next game.	188881607	1477025057113	1477025057184	h	72
368681	3976071	He should still be able to play in the team's next game.	He should still be able to play in the team's next game.	188881611	1477025057225	1477025057336	o	79
368681	3976071	He should still be able to play in the team's next game.	He should still be able to play in the team's next game.	188881613	1477025057305	1477025057393	u	85
368681	3976071	He should still be able to play in the team's next game.	He should still be able to play in the team's next game.	188881615	1477025057473	1477025057544	l	76
368681	3976071	He should still be able to play in the team's next game.	He should still be able to play in the team's next game.	188881618	1477025057520	1477025057616	d	68
368681	3976071	He should still be able to play in the team's next game.	He should still be able to play in the team's next game.	188881627	1477025057600	1477025057728	 	32
368681	3976071	He should still be able to play in the team's next game.	He should still be able to play in the team's next game.	188881628	1477025057689	1477025057783	s	83
368681	3976071	He should still be able to play in the team's next game.	He should still be able to play in the team's next game.	188881629	1477025057752	1477025057880	i	84
368681	3976071	He should still be able to play in the team's next game.	He should still be able to play in the team's next game.	188881630	1477025057921	1477025057976	l	76
368681	3976071	He should still be able to play in the team's next game.	He should still be able to play in the team's next game.	188881631	1477025058048	1477025058120	l	76
368681	3976071	He should still be able to play in the team's next game.	He should still be able to play in the team's next game.	188881647	1477025058136	1477025058264	 	32
368681	3976071	He should still be able to play in the team's next game.	He should still be able to play in the team's next game.	188881648	1477025058289	1477025058368	b	66
368681	3976071	He should still be able to play in the team's next game.	He should still be able to play in the team's next game.	188881649	1477025058449	1477025058563	e	69
368681	3976071	He should still be able to play in the team's next game.	He should still be able to play in the team's next game.	188881650	1477025058545	1477025058640	 	32
368681	3976071	He should still be able to play in the team's next game.	He should still be able to play in the team's next game.	188881666	1477025058576	1477025058704	a	65
368681	3976071	He should still be able to play in the team's next game.	He should still be able to play in the team's next game.	188881670	1477025058665	1477025058760	b	66
368681	3976071	He should still be able to play in the team's next game.	He should still be able to play in the team's next game.	188881675	1477025058793	1477025058912	l	76
368681	3976071	He should still be able to play in the team's next game.	He should still be able to play in the team's next game.	188881678	1477025058889	1477025058984	e	69
368681	3976071	He should still be able to play in the team's next game.	He should still be able to play in the team's next game.	188881680	1477025058984	1477025059096	 	32
368681	3976071	He should still be able to play in the team's next game.	He should still be able to play in the team's next game.	188881686	1477025059041	1477025059176	t	84
368681	3976071	He should still be able to play in the team's next game.	He should still be able to play in the team's next game.	188881688	1477025059136	1477025059208	o	79
368681	3976071	He should still be able to play in the team's next game.	He should still be able to play in the team's next game.	188881690	1477025059208	1477025059296	 	32
368681	3976071	He should still be able to play in the team's next game.	He should still be able to play in the team's next game.	188881692	1477025059289	1477025059360	p	80
368681	3976071	He should still be able to play in the team's next game.	He should still be able to play in the team's next game.	188881693	1477025059456	1477025059536	l	76
368681	3976071	He should still be able to play in the team's next game.	He should still be able to play in the team's next game.	188881709	1477025059520	1477025059632	a	65
368681	3976071	He should still be able to play in the team's next game.	He should still be able to play in the team's next game.	188881712	1477025059648	1477025059728	y	89
368681	3976071	He should still be able to play in the team's next game.	He should still be able to play in the team's next game.	188881716	1477025059712	1477025059808	 	32
368681	3976071	He should still be able to play in the team's next game.	He should still be able to play in the team's next game.	188881720	1477025059848	1477025059912	i	73
368681	3976071	He should still be able to play in the team's next game.	He should still be able to play in the team's next game.	188881725	1477025059993	1477025060048	n	78
368681	3976071	He should still be able to play in the team's next game.	He should still be able to play in the team's next game.	188881730	1477025060161	1477025060224	 	32
368681	3976071	He should still be able to play in the team's next game.	He should still be able to play in the team's next game.	188881738	1477025060217	1477025060312	t	84
368681	3976071	He should still be able to play in the team's next game.	He should still be able to play in the team's next game.	188881740	1477025060296	1477025060376	h	72
368681	3976071	He should still be able to play in the team's next game.	He should still be able to play in the team's next game.	188881742	1477025060553	1477025060680	e	69
368681	3976071	He should still be able to play in the team's next game.	He should still be able to play in the team's next game.	188881745	1477025060712	1477025060808	 	32
368681	3976071	He should still be able to play in the team's next game.	He should still be able to play in the team's next game.	188881746	1477025060833	1477025060904	t	84
368681	3976071	He should still be able to play in the team's next game.	He should still be able to play in the team's next game.	188881757	1477025060897	1477025061048	e	69
368681	3976071	He should still be able to play in the team's next game.	He should still be able to play in the team's next game.	188881760	1477025060984	1477025061120	a	65
368681	3976071	He should still be able to play in the team's next game.	He should still be able to play in the team's next game.	188881762	1477025061081	1477025061144	m	77
368681	3976071	He should still be able to play in the team's next game.	He should still be able to play in the team's next game.	188881764	1477025061256	1477025061375	'	222
368681	3976071	He should still be able to play in the team's next game.	He should still be able to play in the team's next game.	188881766	1477025061369	1477025061488	s	83
368681	3976071	He should still be able to play in the team's next game.	He should still be able to play in the team's next game.	188881783	1477025061448	1477025061552	 	32
368681	3976071	He should still be able to play in the team's next game.	He should still be able to play in the team's next game.	188881786	1477025061561	1477025061672	n	78
368681	3976071	He should still be able to play in the team's next game.	He should still be able to play in the team's next game.	188881785	1477025061609	1477025061664	e	69
368681	3976071	He should still be able to play in the team's next game.	He should still be able to play in the team's next game.	188881788	1477025061793	1477025061848	x	88
368681	3976071	He should still be able to play in the team's next game.	He should still be able to play in the team's next game.	188881790	1477025061945	1477025062040	t	84
368681	3976071	He should still be able to play in the team's next game.	He should still be able to play in the team's next game.	188881794	1477025062057	1477025062154	 	32
368681	3976071	He should still be able to play in the team's next game.	He should still be able to play in the team's next game.	188881819	1477025062152	1477025062288	g	71
368681	3976071	He should still be able to play in the team's next game.	He should still be able to play in the team's next game.	188881821	1477025062209	1477025062338	a	65
368681	3976071	He should still be able to play in the team's next game.	He should still be able to play in the team's next game.	188881823	1477025062312	1477025062376	m	77
368681	3976071	He should still be able to play in the team's next game.	He should still be able to play in the team's next game.	188881825	1477025062408	1477025062528	e	69
368681	3976071	He should still be able to play in the team's next game.	He should still be able to play in the team's next game.	188881828	1477025062536	1477025062624	.	190
368681	3976076	What do you think about Tracy and Jim?	What do you think about Tracy and Jim?	188881939	1477025065160	1477025065648	SHIFT	16
368681	3976076	What do you think about Tracy and Jim?	What do you think about Tracy and Jim?	188881940	1477025066000	1477025066151	W	87
368681	3976076	What do you think about Tracy and Jim?	What do you think about Tracy and Jim?	188881941	1477025066304	1477025066440	h	72
368681	3976076	What do you think about Tracy and Jim?	What do you think about Tracy and Jim?	188881942	1477025066416	1477025066536	a	65
368681	3976076	What do you think about Tracy and Jim?	What do you think about Tracy and Jim?	188881943	1477025066504	1477025066615	t	84
368681	3976076	What do you think about Tracy and Jim?	What do you think about Tracy and Jim?	188881957	1477025066608	1477025066728	 	32
368681	3976076	What do you think about Tracy and Jim?	What do you think about Tracy and Jim?	188881958	1477025066856	1477025066935	d	68
368681	3976076	What do you think about Tracy and Jim?	What do you think about Tracy and Jim?	188881960	1477025066920	1477025067008	o	79
368681	3976076	What do you think about Tracy and Jim?	What do you think about Tracy and Jim?	188881962	1477025067024	1477025067136	 	32
368681	3976076	What do you think about Tracy and Jim?	What do you think about Tracy and Jim?	188881964	1477025067112	1477025067159	y	89
368681	3976076	What do you think about Tracy and Jim?	What do you think about Tracy and Jim?	188881968	1477025067208	1477025067344	o	79
368681	3976076	What do you think about Tracy and Jim?	What do you think about Tracy and Jim?	188881982	1477025067296	1477025067368	 	85
368681	3976076	What do you think about Tracy and Jim?	What do you think about Tracy and Jim?	188881984	1477025067440	1477025067575	t	84
368681	3976076	What do you think about Tracy and Jim?	What do you think about Tracy and Jim?	188881986	1477025067520	1477025067647	h	72
368681	3976076	What do you think about Tracy and Jim?	What do you think about Tracy and Jim?	188881987	1477025067624	1477025067712	i	73
368681	3976076	What do you think about Tracy and Jim?	What do you think about Tracy and Jim?	188881988	1477025067752	1477025067879	n	78
368681	3976076	What do you think about Tracy and Jim?	What do you think about Tracy and Jim?	188881989	1477025067824	1477025067903	k	75
368681	3976076	What do you think about Tracy and Jim?	What do you think about Tracy and Jim?	188881990	1477025067984	1477025068095	 	32
368681	3976076	What do you think about Tracy and Jim?	What do you think about Tracy and Jim?	188881991	1477025068056	1477025068184	a	65
368681	3976076	What do you think about Tracy and Jim?	What do you think about Tracy and Jim?	188881992	1477025068136	1477025068199	b	66
368681	3976076	What do you think about Tracy and Jim?	What do you think about Tracy and Jim?	188881993	1477025068185	1477025068304	o	79
368681	3976076	What do you think about Tracy and Jim?	What do you think about Tracy and Jim?	188882000	1477025068256	1477025068359	u	85
368681	3976076	What do you think about Tracy and Jim?	What do you think about Tracy and Jim?	188882002	1477025068344	1477025068448	t	84
368681	3976076	What do you think about Tracy and Jim?	What do you think about Tracy and Jim?	188882004	1477025068384	1477025068528	 	32
368681	3976076	What do you think about Tracy and Jim?	What do you think about Tracy and Jim?	188882008	1477025068567	1477025068736	SHIFT	16
368681	3976076	What do you think about Tracy and Jim?	What do you think about Tracy and Jim?	188882012	1477025068688	1477025068792	T	84
368681	3976076	What do you think about Tracy and Jim?	What do you think about Tracy and Jim?	188882017	1477025068888	1477025069000	r	82
368681	3976076	What do you think about Tracy and Jim?	What do you think about Tracy and Jim?	188882036	1477025068960	1477025069039	a	65
368681	3976076	What do you think about Tracy and Jim?	What do you think about Tracy and Jim?	188882038	1477025069136	1477025069224	c	67
368681	3976076	What do you think about Tracy and Jim?	What do you think about Tracy and Jim?	188882040	1477025069248	1477025069303	y	89
368681	3976076	What do you think about Tracy and Jim?	What do you think about Tracy and Jim?	188882042	1477025069296	1477025069685	 	32
368681	3976076	What do you think about Tracy and Jim?	What do you think about Tracy and Jim?	188882044	1477025069369	1477025069686	a	65
368681	3976076	What do you think about Tracy and Jim?	What do you think about Tracy and Jim?	188882046	1477025069687	1477025069690	d	78
368681	3976076	What do you think about Tracy and Jim?	What do you think about Tracy and Jim?	188882073	1477025069719	1477025069887	SHIFT	16
368681	3976076	What do you think about Tracy and Jim?	What do you think about Tracy and Jim?	188882075	1477025069800	1477025069927	J	74
368681	3976076	What do you think about Tracy and Jim?	What do you think about Tracy and Jim?	188882079	1477025069880	1477025069983	I	73
368681	3976076	What do you think about Tracy and Jim?	What do you think about Tracy and Jim?	188882083	1477025070112	1477025070468	m	77
368681	3976076	What do you think about Tracy and Jim?	What do you think about Tracy and Jim?	188882085	1477025070720	1477025070799	BKSP	8
368681	3976076	What do you think about Tracy and Jim?	What do you think about Tracy and Jim?	188882086	1477025070848	1477025070928	BKSP	8
368681	3976076	What do you think about Tracy and Jim?	What do you think about Tracy and Jim?	188882087	1477025071088	1477025071168	i	73
368681	3976076	What do you think about Tracy and Jim?	What do you think about Tracy and Jim?	188882097	1477025071288	1477025071391	m	77
368681	3976076	What do you think about Tracy and Jim?	What do you think about Tracy and Jim?	188882099	1477025071584	1477025071759	SHIFT	16
368681	3976076	What do you think about Tracy and Jim?	What do you think about Tracy and Jim?	188882104	1477025071680	1477025071791	?	191
368681	3976080	Go for the dollars.	Go for the dollars.	188882162	1477025073657	1477025073832	SHIFT	16
368681	3976080	Go for the dollars.	Go for the dollars.	188882164	1477025073776	1477025073887	G	71
368681	3976080	Go for the dollars.	Go for the dollars.	188882166	1477025073912	1477025074015	o	79
368681	3976080	Go for the dollars.	Go for the dollars.	188882169	1477025074000	1477025074151	 	32
368681	3976080	Go for the dollars.	Go for the dollars.	188882171	1477025074104	1477025074167	f	70
368681	3976080	Go for the dollars.	Go for the dollars.	188882175	1477025074329	1477025074432	r	82
368681	3976080	Go for the dollars.	Go for the dollars.	188882198	1477025074488	1477025074615	o	79
368681	3976080	Go for the dollars.	Go for the dollars.	188882199	1477025074888	1477025074928	BKSP	8
368681	3976080	Go for the dollars.	Go for the dollars.	188882200	1477025075008	1477025075055	BKSP	8
368681	3976080	Go for the dollars.	Go for the dollars.	188882201	1477025075192	1477025075327	o	79
368681	3976080	Go for the dollars.	Go for the dollars.	188882202	1477025075288	1477025075343	r	82
368681	3976080	Go for the dollars.	Go for the dollars.	188882203	1477025075424	1477025075456	 	32
368681	3976080	Go for the dollars.	Go for the dollars.	188882204	1477025075487	1477025075552	t	84
368681	3976080	Go for the dollars.	Go for the dollars.	188882219	1477025075616	1477025075743	h	72
368681	3976080	Go for the dollars.	Go for the dollars.	188882221	1477025075768	1477025075855	e	69
368681	3976080	Go for the dollars.	Go for the dollars.	188882224	1477025075864	1477025075975	 	32
368681	3976080	Go for the dollars.	Go for the dollars.	188882240	1477025076032	1477025076087	o	79
368681	3976080	Go for the dollars.	Go for the dollars.	188882242	1477025076202	1477025076239	l	76
368681	3976080	Go for the dollars.	Go for the dollars.	188882244	1477025076304	1477025076383	l	76
368681	3976080	Go for the dollars.	Go for the dollars.	188882246	1477025076352	1477025076456	a	65
368681	3976080	Go for the dollars.	Go for the dollars.	188882248	1477025076392	1477025076496	r	82
368681	3976080	Go for the dollars.	Go for the dollars.	188882250	1477025076528	1477025076631	s	83
368681	3976080	Go for the dollars.	Go for the dollars.	188882251	1477025076616	1477025076704	.	190
368681	3976081	His status for the Week 11 game against Atlanta is unclear.	His status for the Week 11 game against Atlanta is unclear.	188882315	1477025078912	1477025079103	SHIFT	16
368681	3976081	His status for the Week 11 game against Atlanta is unclear.	His status for the Week 11 game against Atlanta is unclear.	188882317	1477025079032	1477025079112	H	72
368681	3976081	His status for the Week 11 game against Atlanta is unclear.	His status for the Week 11 game against Atlanta is unclear.	188882319	1477025079160	1477025079264	i	73
368681	3976081	His status for the Week 11 game against Atlanta is unclear.	His status for the Week 11 game against Atlanta is unclear.	188882322	1477025079248	1477025079359	s	83
368681	3976081	His status for the Week 11 game against Atlanta is unclear.	His status for the Week 11 game against Atlanta is unclear.	188882324	1477025079320	1477025079487	 	32
368681	3976081	His status for the Week 11 game against Atlanta is unclear.	His status for the Week 11 game against Atlanta is unclear.	188882329	1477025079448	1477025079599	s	83
368681	3976081	His status for the Week 11 game against Atlanta is unclear.	His status for the Week 11 game against Atlanta is unclear.	188882331	1477025079600	1477025079631	a	84
368681	3976081	His status for the Week 11 game against Atlanta is unclear.	His status for the Week 11 game against Atlanta is unclear.	188882333	1477025079744	1477025079847	t	84
368681	3976081	His status for the Week 11 game against Atlanta is unclear.	His status for the Week 11 game against Atlanta is unclear.	188882336	1477025079831	1477025079959	u	85
368681	3976081	His status for the Week 11 game against Atlanta is unclear.	His status for the Week 11 game against Atlanta is unclear.	188882339	1477025079920	1477025080031	s	83
368681	3976081	His status for the Week 11 game against Atlanta is unclear.	His status for the Week 11 game against Atlanta is unclear.	188882341	1477025080008	1477025080135	 	32
368681	3976081	His status for the Week 11 game against Atlanta is unclear.	His status for the Week 11 game against Atlanta is unclear.	188882343	1477025080080	1477025080159	f	70
368681	3976081	His status for the Week 11 game against Atlanta is unclear.	His status for the Week 11 game against Atlanta is unclear.	188882345	1477025080184	1477025080311	o	79
368681	3976081	His status for the Week 11 game against Atlanta is unclear.	His status for the Week 11 game against Atlanta is unclear.	188882347	1477025080248	1477025080343	r	82
368681	3976081	His status for the Week 11 game against Atlanta is unclear.	His status for the Week 11 game against Atlanta is unclear.	188882349	1477025080400	1477025080487	 	32
368681	3976081	His status for the Week 11 game against Atlanta is unclear.	His status for the Week 11 game against Atlanta is unclear.	188882366	1477025080720	1477025080951	SHIFT	16
368681	3976081	His status for the Week 11 game against Atlanta is unclear.	His status for the Week 11 game against Atlanta is unclear.	188882367	1477025081136	1477025081242	t	84
368681	3976081	His status for the Week 11 game against Atlanta is unclear.	His status for the Week 11 game against Atlanta is unclear.	188882370	1477025081224	1477025081327	h	72
368681	3976081	His status for the Week 11 game against Atlanta is unclear.	His status for the Week 11 game against Atlanta is unclear.	188882373	1477025081312	1477025081439	e	69
368681	3976081	His status for the Week 11 game against Atlanta is unclear.	His status for the Week 11 game against Atlanta is unclear.	188882376	1477025081552	1477025081679	 	32
368681	3976081	His status for the Week 11 game against Atlanta is unclear.	His status for the Week 11 game against Atlanta is unclear.	188882401	1477025081775	1477025082135	SHIFT	16
368681	3976081	His status for the Week 11 game against Atlanta is unclear.	His status for the Week 11 game against Atlanta is unclear.	188882379	1477025081879	1477025081983	W	87
368681	3976081	His status for the Week 11 game against Atlanta is unclear.	His status for the Week 11 game against Atlanta is unclear.	188882400	1477025082040	1477025082112	E	69
368681	3976081	His status for the Week 11 game against Atlanta is unclear.	His status for the Week 11 game against Atlanta is unclear.	188882402	1477025082192	1477025082335	e	69
368681	3976081	His status for the Week 11 game against Atlanta is unclear.	His status for the Week 11 game against Atlanta is unclear.	188882403	1477025082312	1477025082415	k	75
368681	3976081	His status for the Week 11 game against Atlanta is unclear.	His status for the Week 11 game against Atlanta is unclear.	188882404	1477025082672	1477025082711	BKSP	8
368681	3976081	His status for the Week 11 game against Atlanta is unclear.	His status for the Week 11 game against Atlanta is unclear.	188882405	1477025082800	1477025082839	BKSP	8
368681	3976081	His status for the Week 11 game against Atlanta is unclear.	His status for the Week 11 game against Atlanta is unclear.	188882406	1477025082919	1477025082999	BKSP	8
368681	3976081	His status for the Week 11 game against Atlanta is unclear.	His status for the Week 11 game against Atlanta is unclear.	188882407	1477025083048	1477025083111	e	69
368681	3976081	His status for the Week 11 game against Atlanta is unclear.	His status for the Week 11 game against Atlanta is unclear.	188882408	1477025083192	1477025083279	e	69
368681	3976081	His status for the Week 11 game against Atlanta is unclear.	His status for the Week 11 game against Atlanta is unclear.	188882409	1477025083272	1477025083343	k	75
368681	3976081	His status for the Week 11 game against Atlanta is unclear.	His status for the Week 11 game against Atlanta is unclear.	188882410	1477025083383	1477025083495	 	32
368681	3976081	His status for the Week 11 game against Atlanta is unclear.	His status for the Week 11 game against Atlanta is unclear.	188882411	1477025083504	1477025083583	1	49
368681	3976081	His status for the Week 11 game against Atlanta is unclear.	His status for the Week 11 game against Atlanta is unclear.	188882412	1477025083673	1477025083751	1	49
368681	3976081	His status for the Week 11 game against Atlanta is unclear.	His status for the Week 11 game against Atlanta is unclear.	188882414	1477025083807	1477025083943	 	32
368681	3976081	His status for the Week 11 game against Atlanta is unclear.	His status for the Week 11 game against Atlanta is unclear.	188882425	1477025083896	1477025084047	g	71
368681	3976081	His status for the Week 11 game against Atlanta is unclear.	His status for the Week 11 game against Atlanta is unclear.	188882427	1477025083975	1477025084127	a	65
368681	3976081	His status for the Week 11 game against Atlanta is unclear.	His status for the Week 11 game against Atlanta is unclear.	188882430	1477025084112	1477025084191	m	77
368681	3976081	His status for the Week 11 game against Atlanta is unclear.	His status for the Week 11 game against Atlanta is unclear.	188882433	1477025084184	1477025084311	e	69
368681	3976081	His status for the Week 11 game against Atlanta is unclear.	His status for the Week 11 game against Atlanta is unclear.	188882437	1477025084288	1477025084416	 	32
368681	3976081	His status for the Week 11 game against Atlanta is unclear.	His status for the Week 11 game against Atlanta is unclear.	188882452	1477025084360	1477025084447	a	65
368681	3976081	His status for the Week 11 game against Atlanta is unclear.	His status for the Week 11 game against Atlanta is unclear.	188882454	1477025084439	1477025084567	g	71
368681	3976081	His status for the Week 11 game against Atlanta is unclear.	His status for the Week 11 game against Atlanta is unclear.	188882457	1477025084535	1477025084651	a	65
368681	3976081	His status for the Week 11 game against Atlanta is unclear.	His status for the Week 11 game against Atlanta is unclear.	188882461	1477025084624	1477025084687	i	73
368681	3976081	His status for the Week 11 game against Atlanta is unclear.	His status for the Week 11 game against Atlanta is unclear.	188882464	1477025084752	1477025084855	n	78
368681	3976081	His status for the Week 11 game against Atlanta is unclear.	His status for the Week 11 game against Atlanta is unclear.	188882479	1477025084831	1477025084943	s	83
368681	3976081	His status for the Week 11 game against Atlanta is unclear.	His status for the Week 11 game against Atlanta is unclear.	188882482	1477025084896	1477025085000	t	84
368681	3976081	His status for the Week 11 game against Atlanta is unclear.	His status for the Week 11 game against Atlanta is unclear.	188882486	1477025084983	1477025085135	 	32
368681	3976081	His status for the Week 11 game against Atlanta is unclear.	His status for the Week 11 game against Atlanta is unclear.	188882490	1477025085087	1477025085215	SHIFT	16
368681	3976081	His status for the Week 11 game against Atlanta is unclear.	His status for the Week 11 game against Atlanta is unclear.	188882492	1477025085152	1477025085255	A	65
368681	3976081	His status for the Week 11 game against Atlanta is unclear.	His status for the Week 11 game against Atlanta is unclear.	188882495	1477025085368	1477025085449	t	84
368681	3976081	His status for the Week 11 game against Atlanta is unclear.	His status for the Week 11 game against Atlanta is unclear.	188882505	1477025085424	1477025085527	l	76
368681	3976081	His status for the Week 11 game against Atlanta is unclear.	His status for the Week 11 game against Atlanta is unclear.	188882506	1477025085511	1477025085632	a	65
368681	3976081	His status for the Week 11 game against Atlanta is unclear.	His status for the Week 11 game against Atlanta is unclear.	188882507	1477025085615	1477025085719	n	78
368681	3976081	His status for the Week 11 game against Atlanta is unclear.	His status for the Week 11 game against Atlanta is unclear.	188882508	1477025085776	1477025085799	a	84
368681	3976081	His status for the Week 11 game against Atlanta is unclear.	His status for the Week 11 game against Atlanta is unclear.	188882509	1477025085975	1477025086071	 	32
368681	3976081	His status for the Week 11 game against Atlanta is unclear.	His status for the Week 11 game against Atlanta is unclear.	188882522	1477025086040	1477025086135	i	73
368681	3976081	His status for the Week 11 game against Atlanta is unclear.	His status for the Week 11 game against Atlanta is unclear.	188882525	1477025086128	1477025086223	s	83
368681	3976081	His status for the Week 11 game against Atlanta is unclear.	His status for the Week 11 game against Atlanta is unclear.	188882529	1477025086231	1477025086335	 	32
368681	3976081	His status for the Week 11 game against Atlanta is unclear.	His status for the Week 11 game against Atlanta is unclear.	188882531	1477025086495	1477025086551	u	85
368681	3976081	His status for the Week 11 game against Atlanta is unclear.	His status for the Week 11 game against Atlanta is unclear.	188882534	1477025086647	1477025086719	n	78
368681	3976081	His status for the Week 11 game against Atlanta is unclear.	His status for the Week 11 game against Atlanta is unclear.	188882536	1477025086808	1477025086879	c	67
368681	3976081	His status for the Week 11 game against Atlanta is unclear.	His status for the Week 11 game against Atlanta is unclear.	188882549	1477025086920	1477025087007	l	76
368681	3976081	His status for the Week 11 game against Atlanta is unclear.	His status for the Week 11 game against Atlanta is unclear.	188882559	1477025087031	1477025087263	e	69
368681	3976081	His status for the Week 11 game against Atlanta is unclear.	His status for the Week 11 game against Atlanta is unclear.	188882553	1477025087120	1477025087231	a	65
368681	3976081	His status for the Week 11 game against Atlanta is unclear.	His status for the Week 11 game against Atlanta is unclear.	188882562	1477025087216	1477025087343	r	82
368681	3976081	His status for the Week 11 game against Atlanta is unclear.	His status for the Week 11 game against Atlanta is unclear.	188882565	1477025087335	1477025087439	.	190
368681	3976087	The speedway is faced with some very tough choices.	The speedway is faced with some very tough choices.	188882634	1477025089423	1477025089663	SHIFT	16
368681	3976087	The speedway is faced with some very tough choices.	The speedway is faced with some very tough choices.	188882635	1477025089616	1477025089737	T	84
368681	3976087	The speedway is faced with some very tough choices.	The speedway is faced with some very tough choices.	188882636	1477025089736	1477025089815	h	72
368681	3976087	The speedway is faced with some very tough choices.	The speedway is faced with some very tough choices.	188882637	1477025089800	1477025089911	e	69
368681	3976087	The speedway is faced with some very tough choices.	The speedway is faced with some very tough choices.	188882639	1477025089896	1477025090023	 	32
368681	3976087	The speedway is faced with some very tough choices.	The speedway is faced with some very tough choices.	188882641	1477025090040	1477025090119	s	83
368681	3976087	The speedway is faced with some very tough choices.	The speedway is faced with some very tough choices.	188882650	1477025090143	1477025090263	p	80
368681	3976087	The speedway is faced with some very tough choices.	The speedway is faced with some very tough choices.	188882651	1477025090215	1477025090279	e	69
368681	3976087	The speedway is faced with some very tough choices.	The speedway is faced with some very tough choices.	188882652	1477025090360	1477025090415	e	69
368681	3976087	The speedway is faced with some very tough choices.	The speedway is faced with some very tough choices.	188882698	1477025090536	1477025092071	d	68
368681	3976087	The speedway is faced with some very tough choices.	The speedway is faced with some very tough choices.	188882656	1477025090728	1477025090887	w	87
368681	3976087	The speedway is faced with some very tough choices.	The speedway is faced with some very tough choices.	188882660	1477025090832	1477025090951	a	65
368681	3976087	The speedway is faced with some very tough choices.	The speedway is faced with some very tough choices.	188882661	1477025090919	1477025091015	y	89
368681	3976087	The speedway is faced with some very tough choices.	The speedway is faced with some very tough choices.	188882662	1477025090991	1477025091103	 	32
368681	3976087	The speedway is faced with some very tough choices.	The speedway is faced with some very tough choices.	188882663	1477025091128	1477025091247	i	73
368681	3976087	The speedway is faced with some very tough choices.	The speedway is faced with some very tough choices.	188882664	1477025091208	1477025091295	s	83
368681	3976087	The speedway is faced with some very tough choices.	The speedway is faced with some very tough choices.	188882685	1477025091279	1477025091423	 	32
368681	3976087	The speedway is faced with some very tough choices.	The speedway is faced with some very tough choices.	188882687	1477025091352	1477025091455	f	70
368681	3976087	The speedway is faced with some very tough choices.	The speedway is faced with some very tough choices.	188882689	1477025091407	1477025091495	a	65
368681	3976087	The speedway is faced with some very tough choices.	The speedway is faced with some very tough choices.	188882691	1477025091608	1477025091663	c	67
368681	3976087	The speedway is faced with some very tough choices.	The speedway is faced with some very tough choices.	188882695	1477025091791	1477025091887	e	69
368681	3976087	The speedway is faced with some very tough choices.	The speedway is faced with some very tough choices.	188882703	1477025092119	1477025092223	 	32
368681	3976087	The speedway is faced with some very tough choices.	The speedway is faced with some very tough choices.	188882705	1477025092207	1477025092287	w	87
368681	3976087	The speedway is faced with some very tough choices.	The speedway is faced with some very tough choices.	188882707	1477025092304	1477025092367	i	73
368681	3976087	The speedway is faced with some very tough choices.	The speedway is faced with some very tough choices.	188882709	1477025092391	1477025092487	t	84
368681	3976087	The speedway is faced with some very tough choices.	The speedway is faced with some very tough choices.	188882738	1477025092447	1477025092551	h	72
368681	3976087	The speedway is faced with some very tough choices.	The speedway is faced with some very tough choices.	188882740	1477025092543	1477025092687	 	32
368681	3976087	The speedway is faced with some very tough choices.	The speedway is faced with some very tough choices.	188882744	1477025092615	1477025092695	s	83
368681	3976087	The speedway is faced with some very tough choices.	The speedway is faced with some very tough choices.	188882747	1477025092704	1477025092799	o	79
368681	3976087	The speedway is faced with some very tough choices.	The speedway is faced with some very tough choices.	188882749	1477025092920	1477025092991	m	77
368681	3976087	The speedway is faced with some very tough choices.	The speedway is faced with some very tough choices.	188882752	1477025093047	1477025093167	e	69
368681	3976087	The speedway is faced with some very tough choices.	The speedway is faced with some very tough choices.	188882761	1477025093255	1477025093399	 	32
368681	3976087	The speedway is faced with some very tough choices.	The speedway is faced with some very tough choices.	188882762	1477025093328	1477025093422	v	86
368681	3976087	The speedway is faced with some very tough choices.	The speedway is faced with some very tough choices.	188882763	1477025093528	1477025093663	e	69
368681	3976087	The speedway is faced with some very tough choices.	The speedway is faced with some very tough choices.	188882773	1477025093591	1477025093679	r	82
368681	3976087	The speedway is faced with some very tough choices.	The speedway is faced with some very tough choices.	188882776	1477025093639	1477025093751	y	89
368681	3976087	The speedway is faced with some very tough choices.	The speedway is faced with some very tough choices.	188882780	1477025093720	1477025093823	 	32
368681	3976087	The speedway is faced with some very tough choices.	The speedway is faced with some very tough choices.	188882783	1477025093783	1477025093903	t	84
368681	3976087	The speedway is faced with some very tough choices.	The speedway is faced with some very tough choices.	188882786	1477025093871	1477025093999	o	79
368681	3976087	The speedway is faced with some very tough choices.	The speedway is faced with some very tough choices.	188882789	1477025093920	1477025094007	u	85
368681	3976087	The speedway is faced with some very tough choices.	The speedway is faced with some very tough choices.	188882791	1477025094055	1477025094151	g	71
368681	3976087	The speedway is faced with some very tough choices.	The speedway is faced with some very tough choices.	188882796	1477025094135	1477025094215	h	72
368681	3976087	The speedway is faced with some very tough choices.	The speedway is faced with some very tough choices.	188882797	1477025094271	1477025094415	 	32
368681	3976087	The speedway is faced with some very tough choices.	The speedway is faced with some very tough choices.	188882798	1477025094471	1477025094567	c	67
368681	3976087	The speedway is faced with some very tough choices.	The speedway is faced with some very tough choices.	188882799	1477025094511	1477025094615	h	72
368681	3976087	The speedway is faced with some very tough choices.	The speedway is faced with some very tough choices.	188882803	1477025094583	1477025094727	o	79
368681	3976087	The speedway is faced with some very tough choices.	The speedway is faced with some very tough choices.	188882836	1477025094663	1477025094799	c	73
368681	3976087	The speedway is faced with some very tough choices.	The speedway is faced with some very tough choices.	188882838	1477025094911	1477025095143	e	69
368681	3976087	The speedway is faced with some very tough choices.	The speedway is faced with some very tough choices.	188882840	1477025095103	1477025095215	s	83
368681	3976087	The speedway is faced with some very tough choices.	The speedway is faced with some very tough choices.	188882841	1477025095263	1477025095351	.	190
368681	3976091	I'm on a plane.	I'm on a plane.	188882914	1477025097159	1477025097327	SHIFT	16
368681	3976091	I'm on a plane.	I'm on a plane.	188882909	1477025097223	1477025097311	I	73
368681	3976091	I'm on a plane.	I'm on a plane.	188882917	1477025097391	1477025097479	'	222
368681	3976091	I'm on a plane.	I'm on a plane.	188882920	1477025097567	1477025097630	m	77
368681	3976091	I'm on a plane.	I'm on a plane.	188882922	1477025097711	1477025097799	 	32
368681	3976091	I'm on a plane.	I'm on a plane.	188882924	1477025097775	1477025097903	o	79
368681	3976091	I'm on a plane.	I'm on a plane.	188882925	1477025097887	1477025097959	n	78
368681	3976091	I'm on a plane.	I'm on a plane.	188882926	1477025098015	1477025098110	 	32
368681	3976091	I'm on a plane.	I'm on a plane.	188882927	1477025098103	1477025098215	a	65
368681	3976091	I'm on a plane.	I'm on a plane.	188882928	1477025098207	1477025098295	 	32
368681	3976091	I'm on a plane.	I'm on a plane.	188882933	1477025098279	1477025098359	p	80
368681	3976091	I'm on a plane.	I'm on a plane.	188882934	1477025098455	1477025098542	l	76
368681	3976091	I'm on a plane.	I'm on a plane.	188882935	1477025098535	1477025098639	a	65
368681	3976091	I'm on a plane.	I'm on a plane.	188882936	1477025098592	1477025098687	n	78
368681	3976091	I'm on a plane.	I'm on a plane.	188882938	1477025098727	1477025098838	e	69
368681	3976091	I'm on a plane.	I'm on a plane.	188882940	1477025098807	1477025098902	.	190
