PARTICIPANT_ID	TEST_SECTION_ID	SENTENCE	USER_INPUT	KEYSTROKE_ID	PRESS_TIME	RELEASE_TIME	LETTER	KEYCODE
371977	4009407	He was playing only his third event on the European Tour.	He was playing only his third event on the European Tour	190464088	1477067294760	1477067295267	CAPS_LOCK	20
371977	4009407	He was playing only his third event on the European Tour.	He was playing only his third event on the European Tour	190464085	1477067294810	1477067294907	H	72
371977	4009407	He was playing only his third event on the European Tour.	He was playing only his third event on the European Tour	190464093	1477067295297	1477067295380	E	69
371977	4009407	He was playing only his third event on the European Tour.	He was playing only his third event on the European Tour	190464097	1477067295560	1477067295697	 	32
371977	4009407	He was playing only his third event on the European Tour.	He was playing only his third event on the European Tour	190464104	1477067295784	1477067295868	BKSP	8
371977	4009407	He was playing only his third event on the European Tour.	He was playing only his third event on the European Tour	190464109	1477067295928	1477067296016	BKSP	8
371977	4009407	He was playing only his third event on the European Tour.	He was playing only his third event on the European Tour	190464112	1477067296016	1477067296177	E	69
371977	4009407	He was playing only his third event on the European Tour.	He was playing only his third event on the European Tour	190464115	1477067296177	1477067296284	 	32
371977	4009407	He was playing only his third event on the European Tour.	He was playing only his third event on the European Tour	190464197	1477067296455	1477067296533	BKSP	8
371977	4009407	He was playing only his third event on the European Tour.	He was playing only his third event on the European Tour	190464201	1477067296583	1477067296677	BKSP	8
371977	4009407	He was playing only his third event on the European Tour.	He was playing only his third event on the European Tour	190464203	1477067296633	1477067296737	CAPS_LOCK	20
371977	4009407	He was playing only his third event on the European Tour.	He was playing only his third event on the European Tour	190464206	1477067296757	1477067296873	e	69
371977	4009407	He was playing only his third event on the European Tour.	He was playing only his third event on the European Tour	190464210	1477067297013	1477067297125	 	32
371977	4009407	He was playing only his third event on the European Tour.	He was playing only his third event on the European Tour	190464214	1477067297195	1477067297329	w	87
371977	4009407	He was playing only his third event on the European Tour.	He was playing only his third event on the European Tour	190464220	1477067297273	1477067297405	a	65
371977	4009407	He was playing only his third event on the European Tour.	He was playing only his third event on the European Tour	190464227	1477067297425	1477067297567	s	83
371977	4009407	He was playing only his third event on the European Tour.	He was playing only his third event on the European Tour	190464348	1477067297567	1477067297649	 	32
371977	4009407	He was playing only his third event on the European Tour.	He was playing only his third event on the European Tour	190464356	1477067297679	1477067297776	p	80
371977	4009407	He was playing only his third event on the European Tour.	He was playing only his third event on the European Tour	190464365	1477067298209	1477067298320	l	76
371977	4009407	He was playing only his third event on the European Tour.	He was playing only his third event on the European Tour	190464373	1477067298290	1477067298412	a	65
371977	4009407	He was playing only his third event on the European Tour.	He was playing only his third event on the European Tour	190464380	1477067298813	1477067298919	y	89
371977	4009407	He was playing only his third event on the European Tour.	He was playing only his third event on the European Tour	190464483	1477067298909	1477067298969	i	73
371977	4009407	He was playing only his third event on the European Tour.	He was playing only his third event on the European Tour	190464489	1477067299041	1477067299133	n	78
371977	4009407	He was playing only his third event on the European Tour.	He was playing only his third event on the European Tour	190464494	1477067299193	1477067299285	g	71
371977	4009407	He was playing only his third event on the European Tour.	He was playing only his third event on the European Tour	190464499	1477067299315	1477067299420	 	32
371977	4009407	He was playing only his third event on the European Tour.	He was playing only his third event on the European Tour	190464502	1477067299899	1477067299995	o	79
371977	4009407	He was playing only his third event on the European Tour.	He was playing only his third event on the European Tour	190464506	1477067300095	1477067300167	n	78
371977	4009407	He was playing only his third event on the European Tour.	He was playing only his third event on the European Tour	190464600	1477067300278	1477067300382	l	76
371977	4009407	He was playing only his third event on the European Tour.	He was playing only his third event on the European Tour	190464608	1477067300359	1477067300450	y	89
371977	4009407	He was playing only his third event on the European Tour.	He was playing only his third event on the European Tour	190464618	1477067300520	1477067300642	 	32
371977	4009407	He was playing only his third event on the European Tour.	He was playing only his third event on the European Tour	190464627	1477067301053	1477067301135	h	72
371977	4009407	He was playing only his third event on the European Tour.	He was playing only his third event on the European Tour	190464634	1477067301155	1477067301262	i	73
371977	4009407	He was playing only his third event on the European Tour.	He was playing only his third event on the European Tour	190464727	1477067301391	1477067301553	s	83
371977	4009407	He was playing only his third event on the European Tour.	He was playing only his third event on the European Tour	190464729	1477067301563	1477067301670	 	32
371977	4009407	He was playing only his third event on the European Tour.	He was playing only his third event on the European Tour	190464732	1477067302170	1477067302269	t	84
371977	4009407	He was playing only his third event on the European Tour.	He was playing only his third event on the European Tour	190464735	1477067302259	1477067302359	i	73
371977	4009407	He was playing only his third event on the European Tour.	He was playing only his third event on the European Tour	190464738	1477067302379	1477067302493	r	82
371977	4009407	He was playing only his third event on the European Tour.	He was playing only his third event on the European Tour	190464860	1477067302865	1477067302947	BKSP	8
371977	4009407	He was playing only his third event on the European Tour.	He was playing only his third event on the European Tour	190464862	1477067303007	1477067303099	BKSP	8
371977	4009407	He was playing only his third event on the European Tour.	He was playing only his third event on the European Tour	190464865	1477067303129	1477067303261	h	72
371977	4009407	He was playing only his third event on the European Tour.	He was playing only his third event on the European Tour	190464869	1477067303241	1477067303333	i	73
371977	4009407	He was playing only his third event on the European Tour.	He was playing only his third event on the European Tour	190464875	1477067303373	1477067303486	t	84
371977	4009407	He was playing only his third event on the European Tour.	He was playing only his third event on the European Tour	190464880	1477067303677	1477067303757	d	68
371977	4009407	He was playing only his third event on the European Tour.	He was playing only his third event on the European Tour	190464886	1477067303867	1477067303935	BKSP	8
371977	4009407	He was playing only his third event on the European Tour.	He was playing only his third event on the European Tour	190464891	1477067303993	1477067304091	BKSP	8
371977	4009407	He was playing only his third event on the European Tour.	He was playing only his third event on the European Tour	190464931	1477067304050	1477067304134	r	82
371977	4009407	He was playing only his third event on the European Tour.	He was playing only his third event on the European Tour	190464937	1477067304214	1477067304310	d	68
371977	4009407	He was playing only his third event on the European Tour.	He was playing only his third event on the European Tour	190464940	1477067304400	1477067304520	 	32
371977	4009407	He was playing only his third event on the European Tour.	He was playing only his third event on the European Tour	190464945	1477067304800	1477067304932	e	69
371977	4009407	He was playing only his third event on the European Tour.	He was playing only his third event on the European Tour	190464948	1477067305013	1477067305103	v	86
371977	4009407	He was playing only his third event on the European Tour.	He was playing only his third event on the European Tour	190465002	1477067305069	1477067305203	e	69
371977	4009407	He was playing only his third event on the European Tour.	He was playing only his third event on the European Tour	190465006	1477067305169	1477067305249	n	78
371977	4009407	He was playing only his third event on the European Tour.	He was playing only his third event on the European Tour	190465010	1477067305309	1477067305429	t	84
371977	4009407	He was playing only his third event on the European Tour.	He was playing only his third event on the European Tour	190465017	1477067305429	1477067305526	 	32
371977	4009407	He was playing only his third event on the European Tour.	He was playing only his third event on the European Tour	190465023	1477067305596	1477067305654	o	79
371977	4009407	He was playing only his third event on the European Tour.	He was playing only his third event on the European Tour	190465028	1477067305782	1477067305872	n	78
371977	4009407	He was playing only his third event on the European Tour.	He was playing only his third event on the European Tour	190465042	1477067305893	1477067305991	 	32
371977	4009407	He was playing only his third event on the European Tour.	He was playing only his third event on the European Tour	190465047	1477067305972	1477067306076	t	84
371977	4009407	He was playing only his third event on the European Tour.	He was playing only his third event on the European Tour	190465053	1477067306076	1477067306143	h	72
371977	4009407	He was playing only his third event on the European Tour.	He was playing only his third event on the European Tour	190465058	1477067306143	1477067306279	e	69
371977	4009407	He was playing only his third event on the European Tour.	He was playing only his third event on the European Tour	190465188	1477067306232	1477067306304	 	32
371977	4009407	He was playing only his third event on the European Tour.	He was playing only his third event on the European Tour	190465194	1477067306504	1477067306633	CAPS_LOCK	20
371977	4009407	He was playing only his third event on the European Tour.	He was playing only his third event on the European Tour	190465197	1477067306604	1477067306735	E	69
371977	4009407	He was playing only his third event on the European Tour.	He was playing only his third event on the European Tour	190465200	1477067306695	1477067306805	CAPS_LOCK	20
371977	4009407	He was playing only his third event on the European Tour.	He was playing only his third event on the European Tour	190465202	1477067307146	1477067307212	u	85
371977	4009407	He was playing only his third event on the European Tour.	He was playing only his third event on the European Tour	190465209	1477067307304	1477067307402	r	82
371977	4009407	He was playing only his third event on the European Tour.	He was playing only his third event on the European Tour	190465215	1477067307482	1477067307582	o	79
371977	4009407	He was playing only his third event on the European Tour.	He was playing only his third event on the European Tour	190465221	1477067307693	1477067307802	p	80
371977	4009407	He was playing only his third event on the European Tour.	He was playing only his third event on the European Tour	190465305	1477067307782	1477067307882	e	69
371977	4009407	He was playing only his third event on the European Tour.	He was playing only his third event on the European Tour	190465309	1477067308052	1477067308152	a	65
371977	4009407	He was playing only his third event on the European Tour.	He was playing only his third event on the European Tour	190465316	1477067308172	1477067308275	n	78
371977	4009407	He was playing only his third event on the European Tour.	He was playing only his third event on the European Tour	190465324	1477067308327	1477067308415	 	32
371977	4009407	He was playing only his third event on the European Tour.	He was playing only his third event on the European Tour	190465332	1477067308645	1477067308749	CAPS_LOCK	20
371977	4009407	He was playing only his third event on the European Tour.	He was playing only his third event on the European Tour	190465336	1477067308809	1477067308879	T	84
371977	4009407	He was playing only his third event on the European Tour.	He was playing only his third event on the European Tour	190465341	1477067308909	1477067309055	CAPS_LOCK	20
371977	4009407	He was playing only his third event on the European Tour.	He was playing only his third event on the European Tour	190465359	1477067308989	1477067309065	o	79
371977	4009407	He was playing only his third event on the European Tour.	He was playing only his third event on the European Tour	190465363	1477067309136	1477067309221	u	85
371977	4009407	He was playing only his third event on the European Tour.	He was playing only his third event on the European Tour	190465365	1477067309194	1477067309282	r	82
371977	4009442	Couldn't risk the uncertainty.	Couldn´t risk the uncertainty	190465673	1477067311239	1477067311349	CAPS_LOCK	20
371977	4009442	Couldn't risk the uncertainty.	Couldn´t risk the uncertainty	190465679	1477067311349	1477067311473	C	67
371977	4009442	Couldn't risk the uncertainty.	Couldn´t risk the uncertainty	190465684	1477067311433	1477067311548	CAPS_LOCK	20
371977	4009442	Couldn't risk the uncertainty.	Couldn´t risk the uncertainty	190465687	1477067311513	1477067311595	o	79
371977	4009442	Couldn't risk the uncertainty.	Couldn´t risk the uncertainty	190465690	1477067311795	1477067311892	BKSP	8
371977	4009442	Couldn't risk the uncertainty.	Couldn´t risk the uncertainty	190465693	1477067312072	1477067312169	o	79
371977	4009442	Couldn't risk the uncertainty.	Couldn´t risk the uncertainty	190465698	1477067312601	1477067312643	u	85
371977	4009442	Couldn't risk the uncertainty.	Couldn´t risk the uncertainty	190465702	1477067313043	1477067313142	l	76
371977	4009442	Couldn't risk the uncertainty.	Couldn´t risk the uncertainty	190465771	1477067313213	1477067313267	d	68
371977	4009442	Couldn't risk the uncertainty.	Couldn´t risk the uncertainty	190465774	1477067313508	1477067313599	n	78
371977	4009442	Couldn't risk the uncertainty.	Couldn´t risk the uncertainty	190465779	1477067314115	1477067314205	t	84
371977	4009442	Couldn't risk the uncertainty.	Couldn´t risk the uncertainty	190465782	1477067314235	1477067314345	 	32
371977	4009442	Couldn't risk the uncertainty.	Couldn´t risk the uncertainty	190465869	1477067314918	1477067315020	r	82
371977	4009442	Couldn't risk the uncertainty.	Couldn´t risk the uncertainty	190465870	1477067314988	1477067315075	i	73
371977	4009442	Couldn't risk the uncertainty.	Couldn´t risk the uncertainty	190465873	1477067315145	1477067315252	k	75
371977	4009442	Couldn't risk the uncertainty.	Couldn´t risk the uncertainty	190465877	1477067315252	1477067315362	t	84
371977	4009442	Couldn't risk the uncertainty.	Couldn´t risk the uncertainty	190465882	1477067315532	1477067315632	BKSP	8
371977	4009442	Couldn't risk the uncertainty.	Couldn´t risk the uncertainty	190465886	1477067315642	1477067315752	s	83
371977	4009442	Couldn't risk the uncertainty.	Couldn´t risk the uncertainty	190466118	1477067315883	1477067315962	BKSP	8
371977	4009442	Couldn't risk the uncertainty.	Couldn´t risk the uncertainty	190466122	1477067316226	1477067316335	s	83
371977	4009442	Couldn't risk the uncertainty.	Couldn´t risk the uncertainty	190466126	1477067317028	1477067317142	 	32
371977	4009442	Couldn't risk the uncertainty.	Couldn´t risk the uncertainty	190466133	1477067317534	1477067317606	BKSP	8
371977	4009442	Couldn't risk the uncertainty.	Couldn´t risk the uncertainty	190466138	1477067317686	1477067317752	BKSP	8
371977	4009442	Couldn't risk the uncertainty.	Couldn´t risk the uncertainty	190466142	1477067317822	1477067317908	BKSP	8
371977	4009442	Couldn't risk the uncertainty.	Couldn´t risk the uncertainty	190466146	1477067317978	1477067318075	s	83
371977	4009442	Couldn't risk the uncertainty.	Couldn´t risk the uncertainty	190466152	1477067318135	1477067318235	k	75
371977	4009442	Couldn't risk the uncertainty.	Couldn´t risk the uncertainty	190466157	1477067318526	1477067318638	 	32
371977	4009442	Couldn't risk the uncertainty.	Couldn´t risk the uncertainty	190466212	1477067318869	1477067318973	t	84
371977	4009442	Couldn't risk the uncertainty.	Couldn´t risk the uncertainty	190466216	1477067318948	1477067319042	h	72
371977	4009442	Couldn't risk the uncertainty.	Couldn´t risk the uncertainty	190466221	1477067319052	1477067319195	e	69
371977	4009442	Couldn't risk the uncertainty.	Couldn´t risk the uncertainty	190466226	1477067319122	1477067319225	 	32
371977	4009442	Couldn't risk the uncertainty.	Couldn´t risk the uncertainty	190466232	1477067319693	1477067319772	u	85
371977	4009442	Couldn't risk the uncertainty.	Couldn´t risk the uncertainty	190466318	1477067319862	1477067319965	n	78
371977	4009442	Couldn't risk the uncertainty.	Couldn´t risk the uncertainty	190466322	1477067320035	1477067320181	c	67
371977	4009442	Couldn't risk the uncertainty.	Couldn´t risk the uncertainty	190466325	1477067320145	1477067320269	e	69
371977	4009442	Couldn't risk the uncertainty.	Couldn´t risk the uncertainty	190466329	1477067320479	1477067320585	r	82
371977	4009442	Couldn't risk the uncertainty.	Couldn´t risk the uncertainty	190466334	1477067320785	1477067320895	t	84
371977	4009442	Couldn't risk the uncertainty.	Couldn´t risk the uncertainty	190466429	1477067320872	1477067320996	a	65
371977	4009442	Couldn't risk the uncertainty.	Couldn´t risk the uncertainty	190466439	1477067321006	1477067321098	i	73
371977	4009442	Couldn't risk the uncertainty.	Couldn´t risk the uncertainty	190466445	1477067321459	1477067321559	n	78
371977	4009442	Couldn't risk the uncertainty.	Couldn´t risk the uncertainty	190466454	1477067321899	1477067321988	t	84
371977	4009442	Couldn't risk the uncertainty.	Couldn´t risk the uncertainty	190466460	1477067322068	1477067322175	y	89
371977	4009466	Never mind, I already deleted it.	Never mind, I already deleted it	190466664	1477067323839	1477067323953	CAPS_LOCK	20
371977	4009466	Never mind, I already deleted it.	Never mind, I already deleted it	190466666	1477067323918	1477067324018	N	78
371977	4009466	Never mind, I already deleted it.	Never mind, I already deleted it	190466669	1477067323998	1477067324108	CAPS_LOCK	20
371977	4009466	Never mind, I already deleted it.	Never mind, I already deleted it	190466673	1477067324158	1477067324308	e	69
371977	4009466	Never mind, I already deleted it.	Never mind, I already deleted it	190466678	1477067324344	1477067324435	v	86
371977	4009466	Never mind, I already deleted it.	Never mind, I already deleted it	190466686	1477067324455	1477067324594	e	69
371977	4009466	Never mind, I already deleted it.	Never mind, I already deleted it	190466743	1477067324551	1477067324673	r	82
371977	4009466	Never mind, I already deleted it.	Never mind, I already deleted it	190466749	1477067324663	1477067324745	 	32
371977	4009466	Never mind, I already deleted it.	Never mind, I already deleted it	190466760	1477067324785	1477067324847	m	77
371977	4009466	Never mind, I already deleted it.	Never mind, I already deleted it	190466769	1477067324967	1477067325039	i	73
371977	4009466	Never mind, I already deleted it.	Never mind, I already deleted it	190466776	1477067325129	1477067325205	n	78
371977	4009466	Never mind, I already deleted it.	Never mind, I already deleted it	190466780	1477067325225	1477067325333	d	68
371977	4009466	Never mind, I already deleted it.	Never mind, I already deleted it	190466876	1477067325544	1477067325661	,	188
371977	4009466	Never mind, I already deleted it.	Never mind, I already deleted it	190466879	1477067325821	1477067325963	 	32
371977	4009466	Never mind, I already deleted it.	Never mind, I already deleted it	190466884	1477067326043	1477067326151	CAPS_LOCK	20
371977	4009466	Never mind, I already deleted it.	Never mind, I already deleted it	190466890	1477067326113	1477067326205	I	73
371977	4009466	Never mind, I already deleted it.	Never mind, I already deleted it	190466899	1477067326215	1477067326335	CAPS_LOCK	20
371977	4009466	Never mind, I already deleted it.	Never mind, I already deleted it	190466906	1477067326426	1477067326568	 	32
371977	4009466	Never mind, I already deleted it.	Never mind, I already deleted it	190466912	1477067326660	1477067326774	a	65
371977	4009466	Never mind, I already deleted it.	Never mind, I already deleted it	190467016	1477067326728	1477067326825	l	76
371977	4009466	Never mind, I already deleted it.	Never mind, I already deleted it	190467020	1477067327321	1477067327409	r	82
371977	4009466	Never mind, I already deleted it.	Never mind, I already deleted it	190467025	1477067327368	1477067327455	e	69
371977	4009466	Never mind, I already deleted it.	Never mind, I already deleted it	190467028	1477067327515	1477067327655	a	65
371977	4009466	Never mind, I already deleted it.	Never mind, I already deleted it	190467033	1477067327777	1477067327905	d	68
371977	4009466	Never mind, I already deleted it.	Never mind, I already deleted it	190467041	1477067327925	1477067328025	y	89
371977	4009466	Never mind, I already deleted it.	Never mind, I already deleted it	190467099	1477067328065	1477067328175	 	32
371977	4009466	Never mind, I already deleted it.	Never mind, I already deleted it	190467104	1477067328623	1477067328731	d	68
371977	4009466	Never mind, I already deleted it.	Never mind, I already deleted it	190467109	1477067328685	1477067328800	e	69
371977	4009466	Never mind, I already deleted it.	Never mind, I already deleted it	190467114	1477067328751	1477067328873	l	76
371977	4009466	Never mind, I already deleted it.	Never mind, I already deleted it	190467168	1477067328843	1477067328956	e	69
371977	4009466	Never mind, I already deleted it.	Never mind, I already deleted it	190467171	1477067329046	1477067329108	t	84
371977	4009466	Never mind, I already deleted it.	Never mind, I already deleted it	190467173	1477067329399	1477067329538	e	69
371977	4009466	Never mind, I already deleted it.	Never mind, I already deleted it	190467177	1477067329511	1477067329673	d	68
371977	4009466	Never mind, I already deleted it.	Never mind, I already deleted it	190467181	1477067329613	1477067329728	 	32
371977	4009466	Never mind, I already deleted it.	Never mind, I already deleted it	190467185	1477067329788	1477067329890	i	73
371977	4009466	Never mind, I already deleted it.	Never mind, I already deleted it	190467205	1477067329855	1477067329969	t	84
371977	4009482	The move was a further twist in the long-running dispute.	The move was a further twist in the long-running dispute.	190467418	1477067331669	1477067331789	CAPS_LOCK	20
371977	4009482	The move was a further twist in the long-running dispute.	The move was a further twist in the long-running dispute.	190467421	1477067331979	1477067332054	T	84
371977	4009482	The move was a further twist in the long-running dispute.	The move was a further twist in the long-running dispute.	190467423	1477067332105	1477067332214	CAPS_LOCK	20
371977	4009482	The move was a further twist in the long-running dispute.	The move was a further twist in the long-running dispute.	190467425	1477067332524	1477067332615	h	72
371977	4009482	The move was a further twist in the long-running dispute.	The move was a further twist in the long-running dispute.	190467427	1477067332615	1477067332765	e	69
371977	4009482	The move was a further twist in the long-running dispute.	The move was a further twist in the long-running dispute.	190467429	1477067332745	1477067332849	 	32
371977	4009482	The move was a further twist in the long-running dispute.	The move was a further twist in the long-running dispute.	190467432	1477067332899	1477067332971	m	77
371977	4009482	The move was a further twist in the long-running dispute.	The move was a further twist in the long-running dispute.	190467497	1477067333064	1477067333187	o	79
371977	4009482	The move was a further twist in the long-running dispute.	The move was a further twist in the long-running dispute.	190467500	1477067333177	1477067333275	v	86
371977	4009482	The move was a further twist in the long-running dispute.	The move was a further twist in the long-running dispute.	190467503	1477067333234	1477067333376	e	69
371977	4009482	The move was a further twist in the long-running dispute.	The move was a further twist in the long-running dispute.	190467507	1477067333322	1477067333414	 	32
371977	4009482	The move was a further twist in the long-running dispute.	The move was a further twist in the long-running dispute.	190467511	1477067333638	1477067333784	a	65
371977	4009482	The move was a further twist in the long-running dispute.	The move was a further twist in the long-running dispute.	190467629	1477067334145	1477067334249	BKSP	8
371977	4009482	The move was a further twist in the long-running dispute.	The move was a further twist in the long-running dispute.	190467636	1477067334219	1477067334337	w	87
371977	4009482	The move was a further twist in the long-running dispute.	The move was a further twist in the long-running dispute.	190467642	1477067334288	1477067334412	a	65
371977	4009482	The move was a further twist in the long-running dispute.	The move was a further twist in the long-running dispute.	190467648	1477067334492	1477067334572	s	83
371977	4009482	The move was a further twist in the long-running dispute.	The move was a further twist in the long-running dispute.	190467653	1477067334592	1477067334690	 	32
371977	4009482	The move was a further twist in the long-running dispute.	The move was a further twist in the long-running dispute.	190467659	1477067334710	1477067334848	a	65
371977	4009482	The move was a further twist in the long-running dispute.	The move was a further twist in the long-running dispute.	190467746	1477067334828	1477067334942	 	32
371977	4009482	The move was a further twist in the long-running dispute.	The move was a further twist in the long-running dispute.	190467750	1477067335172	1477067335268	f	70
371977	4009482	The move was a further twist in the long-running dispute.	The move was a further twist in the long-running dispute.	190467759	1477067335339	1477067335454	u	85
371977	4009482	The move was a further twist in the long-running dispute.	The move was a further twist in the long-running dispute.	190467767	1477067335474	1477067335564	r	82
371977	4009482	The move was a further twist in the long-running dispute.	The move was a further twist in the long-running dispute.	190467776	1477067335736	1477067335813	t	84
371977	4009482	The move was a further twist in the long-running dispute.	The move was a further twist in the long-running dispute.	190467783	1477067335963	1477067336058	h	72
371977	4009482	The move was a further twist in the long-running dispute.	The move was a further twist in the long-running dispute.	190467856	1477067336079	1477067336198	e	69
371977	4009482	The move was a further twist in the long-running dispute.	The move was a further twist in the long-running dispute.	190467857	1477067336151	1477067336298	r	82
371977	4009482	The move was a further twist in the long-running dispute.	The move was a further twist in the long-running dispute.	190467860	1477067336338	1477067336483	 	32
371977	4009482	The move was a further twist in the long-running dispute.	The move was a further twist in the long-running dispute.	190467865	1477067336703	1477067336837	w	87
371977	4009482	The move was a further twist in the long-running dispute.	The move was a further twist in the long-running dispute.	190467872	1477067336987	1477067337093	BKSP	8
371977	4009482	The move was a further twist in the long-running dispute.	The move was a further twist in the long-running dispute.	190467933	1477067337073	1477067337189	t	84
371977	4009482	The move was a further twist in the long-running dispute.	The move was a further twist in the long-running dispute.	190467936	1477067337165	1477067337276	w	87
371977	4009482	The move was a further twist in the long-running dispute.	The move was a further twist in the long-running dispute.	190467939	1477067337247	1477067337349	i	73
371977	4009482	The move was a further twist in the long-running dispute.	The move was a further twist in the long-running dispute.	190467943	1477067337379	1477067337464	s	83
371977	4009482	The move was a further twist in the long-running dispute.	The move was a further twist in the long-running dispute.	190467948	1477067337544	1477067337632	t	84
371977	4009482	The move was a further twist in the long-running dispute.	The move was a further twist in the long-running dispute.	190467953	1477067337712	1477067337828	 	32
371977	4009482	The move was a further twist in the long-running dispute.	The move was a further twist in the long-running dispute.	190468035	1477067338321	1477067338377	o	79
371977	4009482	The move was a further twist in the long-running dispute.	The move was a further twist in the long-running dispute.	190468039	1477067338517	1477067338615	BKSP	8
371977	4009482	The move was a further twist in the long-running dispute.	The move was a further twist in the long-running dispute.	190468042	1477067338685	1477067338767	i	73
371977	4009482	The move was a further twist in the long-running dispute.	The move was a further twist in the long-running dispute.	190468050	1477067338918	1477067339010	n	78
371977	4009482	The move was a further twist in the long-running dispute.	The move was a further twist in the long-running dispute.	190468055	1477067339050	1477067339142	 	32
371977	4009482	The move was a further twist in the long-running dispute.	The move was a further twist in the long-running dispute.	190468062	1477067339192	1477067339300	t	84
371977	4009482	The move was a further twist in the long-running dispute.	The move was a further twist in the long-running dispute.	190468128	1477067339310	1477067339412	h	72
371977	4009482	The move was a further twist in the long-running dispute.	The move was a further twist in the long-running dispute.	190468133	1477067339452	1477067339570	e	69
371977	4009482	The move was a further twist in the long-running dispute.	The move was a further twist in the long-running dispute.	190468139	1477067339610	1477067339702	 	32
371977	4009482	The move was a further twist in the long-running dispute.	The move was a further twist in the long-running dispute.	190468144	1477067339712	1477067339814	l	76
371977	4009482	The move was a further twist in the long-running dispute.	The move was a further twist in the long-running dispute.	190468153	1477067339904	1477067340000	o	79
371977	4009482	The move was a further twist in the long-running dispute.	The move was a further twist in the long-running dispute.	190468257	1477067340120	1477067340216	n	78
371977	4009482	The move was a further twist in the long-running dispute.	The move was a further twist in the long-running dispute.	190468259	1477067340356	1477067340448	g	71
371977	4009482	The move was a further twist in the long-running dispute.	The move was a further twist in the long-running dispute.	190468263	1477067340892	1477067340977	-	189
371977	4009482	The move was a further twist in the long-running dispute.	The move was a further twist in the long-running dispute.	190468266	1477067341267	1477067341349	r	82
371977	4009482	The move was a further twist in the long-running dispute.	The move was a further twist in the long-running dispute.	190468274	1477067341379	1477067341412	u	85
371977	4009482	The move was a further twist in the long-running dispute.	The move was a further twist in the long-running dispute.	190468334	1477067341591	1477067341693	n	78
371977	4009482	The move was a further twist in the long-running dispute.	The move was a further twist in the long-running dispute.	190468338	1477067341773	1477067341844	n	78
371977	4009482	The move was a further twist in the long-running dispute.	The move was a further twist in the long-running dispute.	190468344	1477067341956	1477067342058	i	73
371977	4009482	The move was a further twist in the long-running dispute.	The move was a further twist in the long-running dispute.	190468350	1477067342148	1477067342230	n	78
371977	4009482	The move was a further twist in the long-running dispute.	The move was a further twist in the long-running dispute.	190468353	1477067342250	1477067342375	g	71
371977	4009482	The move was a further twist in the long-running dispute.	The move was a further twist in the long-running dispute.	190468461	1477067342385	1477067342539	 	32
371977	4009482	The move was a further twist in the long-running dispute.	The move was a further twist in the long-running dispute.	190468467	1477067342870	1477067342977	d	68
371977	4009482	The move was a further twist in the long-running dispute.	The move was a further twist in the long-running dispute.	190468475	1477067342978	1477067343093	u	85
371977	4009482	The move was a further twist in the long-running dispute.	The move was a further twist in the long-running dispute.	190468482	1477067343253	1477067343357	BKSP	8
371977	4009482	The move was a further twist in the long-running dispute.	The move was a further twist in the long-running dispute.	190468487	1477067343417	1477067343504	i	73
371977	4009482	The move was a further twist in the long-running dispute.	The move was a further twist in the long-running dispute.	190468493	1477067343524	1477067343638	s	83
371977	4009482	The move was a further twist in the long-running dispute.	The move was a further twist in the long-running dispute.	190468537	1477067343603	1477067343707	p	80
371977	4009482	The move was a further twist in the long-running dispute.	The move was a further twist in the long-running dispute.	190468542	1477067343910	1477067344010	u	85
371977	4009482	The move was a further twist in the long-running dispute.	The move was a further twist in the long-running dispute.	190468548	1477067344082	1477067344206	t	84
371977	4009482	The move was a further twist in the long-running dispute.	The move was a further twist in the long-running dispute.	190468554	1477067344155	1477067344297	e	69
371977	4009482	The move was a further twist in the long-running dispute.	The move was a further twist in the long-running dispute.	190468560	1477067344407	1477067344497	.	190
371977	4009517	Seifert said he didn't know if Weinke would practice Thursday.	Seifert said he didn´t know if Weinke would practice Thursday.	190468874	1477067346504	1477067346664	CAPS_LOCK	20
371977	4009517	Seifert said he didn't know if Weinke would practice Thursday.	Seifert said he didn´t know if Weinke would practice Thursday.	190468878	1477067346654	1477067346810	S	83
371977	4009517	Seifert said he didn't know if Weinke would practice Thursday.	Seifert said he didn´t know if Weinke would practice Thursday.	190468888	1477067346809	1477067346867	CAPS_LOCK	20
371977	4009517	Seifert said he didn't know if Weinke would practice Thursday.	Seifert said he didn´t know if Weinke would practice Thursday.	190468894	1477067347110	1477067347121	w	69
371977	4009517	Seifert said he didn't know if Weinke would practice Thursday.	Seifert said he didn´t know if Weinke would practice Thursday.	190468901	1477067347582	1477067347694	BKSP	8
371977	4009517	Seifert said he didn't know if Weinke would practice Thursday.	Seifert said he didn´t know if Weinke would practice Thursday.	190468910	1477067347822	1477067347956	i	73
371977	4009517	Seifert said he didn't know if Weinke would practice Thursday.	Seifert said he didn´t know if Weinke would practice Thursday.	190468917	1477067348136	1477067348210	f	70
371977	4009517	Seifert said he didn't know if Weinke would practice Thursday.	Seifert said he didn´t know if Weinke would practice Thursday.	190468987	1477067348251	1477067348407	e	69
371977	4009517	Seifert said he didn't know if Weinke would practice Thursday.	Seifert said he didn´t know if Weinke would practice Thursday.	190468996	1477067348437	1477067348530	r	82
371977	4009517	Seifert said he didn't know if Weinke would practice Thursday.	Seifert said he didn´t know if Weinke would practice Thursday.	190469005	1477067348640	1477067348750	t	84
371977	4009517	Seifert said he didn't know if Weinke would practice Thursday.	Seifert said he didn´t know if Weinke would practice Thursday.	190469015	1477067348770	1477067348904	 	32
371977	4009517	Seifert said he didn't know if Weinke would practice Thursday.	Seifert said he didn´t know if Weinke would practice Thursday.	190469024	1477067349210	1477067349286	s	83
371977	4009517	Seifert said he didn't know if Weinke would practice Thursday.	Seifert said he didn´t know if Weinke would practice Thursday.	190469093	1477067349456	1477067349567	a	65
371977	4009517	Seifert said he didn't know if Weinke would practice Thursday.	Seifert said he didn´t know if Weinke would practice Thursday.	190469096	1477067349567	1477067349669	i	73
371977	4009517	Seifert said he didn't know if Weinke would practice Thursday.	Seifert said he didn´t know if Weinke would practice Thursday.	190469101	1477067349679	1477067349814	s	83
371977	4009517	Seifert said he didn't know if Weinke would practice Thursday.	Seifert said he didn´t know if Weinke would practice Thursday.	190469106	1477067349894	1477067349959	 	32
371977	4009517	Seifert said he didn't know if Weinke would practice Thursday.	Seifert said he didn´t know if Weinke would practice Thursday.	190469112	1477067350089	1477067350180	BKSP	8
371977	4009517	Seifert said he didn't know if Weinke would practice Thursday.	Seifert said he didn´t know if Weinke would practice Thursday.	190469120	1477067350240	1477067350330	BKSP	8
371977	4009517	Seifert said he didn't know if Weinke would practice Thursday.	Seifert said he didn´t know if Weinke would practice Thursday.	190469226	1477067350320	1477067350424	d	68
371977	4009517	Seifert said he didn't know if Weinke would practice Thursday.	Seifert said he didn´t know if Weinke would practice Thursday.	190469231	1477067350424	1477067350514	 	32
371977	4009517	Seifert said he didn't know if Weinke would practice Thursday.	Seifert said he didn´t know if Weinke would practice Thursday.	190469237	1477067351279	1477067351383	h	72
371977	4009517	Seifert said he didn't know if Weinke would practice Thursday.	Seifert said he didn´t know if Weinke would practice Thursday.	190469244	1477067351350	1477067351487	e	69
371977	4009517	Seifert said he didn't know if Weinke would practice Thursday.	Seifert said he didn´t know if Weinke would practice Thursday.	190469248	1477067351467	1477067351564	 	32
371977	4009517	Seifert said he didn't know if Weinke would practice Thursday.	Seifert said he didn´t know if Weinke would practice Thursday.	190469254	1477067351644	1477067351729	d	68
371977	4009517	Seifert said he didn't know if Weinke would practice Thursday.	Seifert said he didn´t know if Weinke would practice Thursday.	190469336	1477067351739	1477067351820	i	73
371977	4009517	Seifert said he didn't know if Weinke would practice Thursday.	Seifert said he didn´t know if Weinke would practice Thursday.	190469340	1477067351851	1477067351929	d	68
371977	4009517	Seifert said he didn't know if Weinke would practice Thursday.	Seifert said he didn´t know if Weinke would practice Thursday.	190469343	1477067352110	1477067352196	n	78
371977	4009517	Seifert said he didn't know if Weinke would practice Thursday.	Seifert said he didn´t know if Weinke would practice Thursday.	190469345	1477067352720	1477067352810	t	84
371977	4009517	Seifert said he didn't know if Weinke would practice Thursday.	Seifert said he didn´t know if Weinke would practice Thursday.	190469448	1477067352861	1477067352967	 	32
371977	4009517	Seifert said he didn't know if Weinke would practice Thursday.	Seifert said he didn´t know if Weinke would practice Thursday.	190469453	1477067353288	1477067353358	k	75
371977	4009517	Seifert said he didn't know if Weinke would practice Thursday.	Seifert said he didn´t know if Weinke would practice Thursday.	190469460	1477067353312	1477067353377	n	78
371977	4009517	Seifert said he didn't know if Weinke would practice Thursday.	Seifert said he didn´t know if Weinke would practice Thursday.	190469466	1477067353950	1477067354052	o	79
371977	4009517	Seifert said he didn't know if Weinke would practice Thursday.	Seifert said he didn´t know if Weinke would practice Thursday.	190469537	1477067354032	1477067354144	w	87
371977	4009517	Seifert said he didn't know if Weinke would practice Thursday.	Seifert said he didn´t know if Weinke would practice Thursday.	190469538	1477067354224	1477067354316	 	32
371977	4009517	Seifert said he didn't know if Weinke would practice Thursday.	Seifert said he didn´t know if Weinke would practice Thursday.	190469539	1477067354596	1477067354698	i	73
371977	4009517	Seifert said he didn't know if Weinke would practice Thursday.	Seifert said he didn´t know if Weinke would practice Thursday.	190469543	1477067354738	1477067354890	f	70
371977	4009517	Seifert said he didn't know if Weinke would practice Thursday.	Seifert said he didn´t know if Weinke would practice Thursday.	190469547	1477067354930	1477067355044	 	32
371977	4009517	Seifert said he didn't know if Weinke would practice Thursday.	Seifert said he didn´t know if Weinke would practice Thursday.	190469551	1477067355144	1477067355304	CAPS_LOCK	20
371977	4009517	Seifert said he didn't know if Weinke would practice Thursday.	Seifert said he didn´t know if Weinke would practice Thursday.	190469554	1477067355354	1477067355469	W	87
371977	4009517	Seifert said he didn't know if Weinke would practice Thursday.	Seifert said he didn´t know if Weinke would practice Thursday.	190469634	1477067355449	1477067355570	CAPS_LOCK	20
371977	4009517	Seifert said he didn't know if Weinke would practice Thursday.	Seifert said he didn´t know if Weinke would practice Thursday.	190469635	1477067355720	1477067355854	e	69
371977	4009517	Seifert said he didn't know if Weinke would practice Thursday.	Seifert said he didn´t know if Weinke would practice Thursday.	190469639	1477067355844	1477067355938	i	73
371977	4009517	Seifert said he didn't know if Weinke would practice Thursday.	Seifert said he didn´t know if Weinke would practice Thursday.	190469643	1477067356078	1477067356180	k	75
371977	4009517	Seifert said he didn't know if Weinke would practice Thursday.	Seifert said he didn´t know if Weinke would practice Thursday.	190469646	1477067356492	1477067356599	n	78
371977	4009517	Seifert said he didn't know if Weinke would practice Thursday.	Seifert said he didn´t know if Weinke would practice Thursday.	190469650	1477067356609	1477067356753	e	69
371977	4009517	Seifert said he didn't know if Weinke would practice Thursday.	Seifert said he didn´t know if Weinke would practice Thursday.	190469780	1477067356853	1477067356987	 	32
371977	4009517	Seifert said he didn't know if Weinke would practice Thursday.	Seifert said he didn´t know if Weinke would practice Thursday.	190469785	1477067357059	1477067357131	BKSP	8
371977	4009517	Seifert said he didn't know if Weinke would practice Thursday.	Seifert said he didn´t know if Weinke would practice Thursday.	190469791	1477067357211	1477067357272	BKSP	8
371977	4009517	Seifert said he didn't know if Weinke would practice Thursday.	Seifert said he didn´t know if Weinke would practice Thursday.	190469796	1477067357333	1477067357425	BKSP	8
371977	4009517	Seifert said he didn't know if Weinke would practice Thursday.	Seifert said he didn´t know if Weinke would practice Thursday.	190469799	1477067357816	1477067357886	BKSP	8
371977	4009517	Seifert said he didn't know if Weinke would practice Thursday.	Seifert said he didn´t know if Weinke would practice Thursday.	190469805	1477067357986	1477067358062	n	78
371977	4009517	Seifert said he didn't know if Weinke would practice Thursday.	Seifert said he didn´t know if Weinke would practice Thursday.	190469810	1477067358172	1477067358273	k	75
371977	4009517	Seifert said he didn't know if Weinke would practice Thursday.	Seifert said he didn´t know if Weinke would practice Thursday.	190469815	1477067358283	1477067358442	e	69
371977	4009517	Seifert said he didn't know if Weinke would practice Thursday.	Seifert said he didn´t know if Weinke would practice Thursday.	190469902	1477067358422	1477067358534	 	32
371977	4009517	Seifert said he didn't know if Weinke would practice Thursday.	Seifert said he didn´t know if Weinke would practice Thursday.	190469907	1477067358855	1477067358963	w	87
371977	4009517	Seifert said he didn't know if Weinke would practice Thursday.	Seifert said he didn´t know if Weinke would practice Thursday.	190469911	1477067358937	1477067359022	o	79
371977	4009517	Seifert said he didn't know if Weinke would practice Thursday.	Seifert said he didn´t know if Weinke would practice Thursday.	190469921	1477067359142	1477067359220	u	85
371977	4009517	Seifert said he didn't know if Weinke would practice Thursday.	Seifert said he didn´t know if Weinke would practice Thursday.	190469925	1477067359370	1477067359466	l	76
371977	4009517	Seifert said he didn't know if Weinke would practice Thursday.	Seifert said he didn´t know if Weinke would practice Thursday.	190469930	1477067359526	1477067359653	d	68
371977	4009517	Seifert said he didn't know if Weinke would practice Thursday.	Seifert said he didn´t know if Weinke would practice Thursday.	190469972	1477067359684	1477067359842	 	32
371977	4009517	Seifert said he didn't know if Weinke would practice Thursday.	Seifert said he didn´t know if Weinke would practice Thursday.	190469979	1477067359942	1477067360071	p	80
371977	4009517	Seifert said he didn't know if Weinke would practice Thursday.	Seifert said he didn´t know if Weinke would practice Thursday.	190469983	1477067360029	1477067360150	r	82
371977	4009517	Seifert said he didn't know if Weinke would practice Thursday.	Seifert said he didn´t know if Weinke would practice Thursday.	190469987	1477067360130	1477067360272	a	65
371977	4009517	Seifert said he didn't know if Weinke would practice Thursday.	Seifert said he didn´t know if Weinke would practice Thursday.	190469992	1477067360292	1477067360379	t	84
371977	4009517	Seifert said he didn't know if Weinke would practice Thursday.	Seifert said he didn´t know if Weinke would practice Thursday.	190470090	1477067360781	1477067360883	BKSP	8
371977	4009517	Seifert said he didn't know if Weinke would practice Thursday.	Seifert said he didn´t know if Weinke would practice Thursday.	190470093	1477067360883	1477067360955	c	67
371977	4009517	Seifert said he didn't know if Weinke would practice Thursday.	Seifert said he didn´t know if Weinke would practice Thursday.	190470095	1477067361077	1477067361167	t	84
371977	4009517	Seifert said he didn't know if Weinke would practice Thursday.	Seifert said he didn´t know if Weinke would practice Thursday.	190470097	1477067361119	1477067361213	i	73
371977	4009517	Seifert said he didn't know if Weinke would practice Thursday.	Seifert said he didn´t know if Weinke would practice Thursday.	190470099	1477067361533	1477067361662	c	67
371977	4009517	Seifert said he didn't know if Weinke would practice Thursday.	Seifert said he didn´t know if Weinke would practice Thursday.	190470204	1477067361612	1477067361773	e	69
371977	4009517	Seifert said he didn't know if Weinke would practice Thursday.	Seifert said he didn´t know if Weinke would practice Thursday.	190470209	1477067361903	1477067362037	 	32
371977	4009517	Seifert said he didn't know if Weinke would practice Thursday.	Seifert said he didn´t know if Weinke would practice Thursday.	190470214	1477067362037	1477067362191	CAPS_LOCK	20
371977	4009517	Seifert said he didn't know if Weinke would practice Thursday.	Seifert said he didn´t know if Weinke would practice Thursday.	190470219	1477067362341	1477067362429	T	84
371977	4009517	Seifert said he didn't know if Weinke would practice Thursday.	Seifert said he didn´t know if Weinke would practice Thursday.	190470224	1477067362470	1477067362600	CAPS_LOCK	20
371977	4009517	Seifert said he didn't know if Weinke would practice Thursday.	Seifert said he didn´t know if Weinke would practice Thursday.	190470231	1477067362610	1477067362696	h	72
371977	4009517	Seifert said he didn't know if Weinke would practice Thursday.	Seifert said he didn´t know if Weinke would practice Thursday.	190470237	1477067362956	1477067363068	r	82
371977	4009517	Seifert said he didn't know if Weinke would practice Thursday.	Seifert said he didn´t know if Weinke would practice Thursday.	190470396	1477067363058	1477067363163	u	85
371977	4009517	Seifert said he didn't know if Weinke would practice Thursday.	Seifert said he didn´t know if Weinke would practice Thursday.	190470401	1477067363406	1477067363519	s	83
371977	4009517	Seifert said he didn't know if Weinke would practice Thursday.	Seifert said he didn´t know if Weinke would practice Thursday.	190470406	1477067363549	1477067363609	BKSP	8
371977	4009517	Seifert said he didn't know if Weinke would practice Thursday.	Seifert said he didn´t know if Weinke would practice Thursday.	190470408	1477067363679	1477067363743	BKSP	8
371977	4009517	Seifert said he didn't know if Weinke would practice Thursday.	Seifert said he didn´t know if Weinke would practice Thursday.	190470409	1477067363801	1477067363889	BKSP	8
371977	4009517	Seifert said he didn't know if Weinke would practice Thursday.	Seifert said he didn´t know if Weinke would practice Thursday.	190470410	1477067363970	1477067364072	u	85
371977	4009517	Seifert said he didn't know if Weinke would practice Thursday.	Seifert said he didn´t know if Weinke would practice Thursday.	190470413	1477067364052	1477067364157	r	82
371977	4009517	Seifert said he didn't know if Weinke would practice Thursday.	Seifert said he didn´t know if Weinke would practice Thursday.	190470418	1477067364147	1477067364259	s	83
371977	4009517	Seifert said he didn't know if Weinke would practice Thursday.	Seifert said he didn´t know if Weinke would practice Thursday.	190470424	1477067364796	1477067364908	d	68
371977	4009517	Seifert said he didn't know if Weinke would practice Thursday.	Seifert said he didn´t know if Weinke would practice Thursday.	190470545	1477067364886	1477067364998	a	65
371977	4009517	Seifert said he didn't know if Weinke would practice Thursday.	Seifert said he didn´t know if Weinke would practice Thursday.	190470549	1477067365038	1477067365160	y	89
371977	4009517	Seifert said he didn't know if Weinke would practice Thursday.	Seifert said he didn´t know if Weinke would practice Thursday.	190470556	1477067365500	1477067365612	.	190
371977	4009564	They are more efficiently pooled.	They are more efficiently pooled.	190470805	1477067367935	1477067368055	CAPS_LOCK	20
371977	4009564	They are more efficiently pooled.	They are more efficiently pooled.	190470810	1477067368205	1477067368296	T	84
371977	4009564	They are more efficiently pooled.	They are more efficiently pooled.	190470816	1477067368336	1477067368466	CAPS_LOCK	20
371977	4009564	They are more efficiently pooled.	They are more efficiently pooled.	190470822	1477067368496	1477067368586	h	72
371977	4009564	They are more efficiently pooled.	They are more efficiently pooled.	190470827	1477067368586	1477067368700	e	69
371977	4009564	They are more efficiently pooled.	They are more efficiently pooled.	190470832	1477067368700	1477067368806	y	89
371977	4009564	They are more efficiently pooled.	They are more efficiently pooled.	190470840	1477067368856	1477067368975	 	32
371977	4009564	They are more efficiently pooled.	They are more efficiently pooled.	190470863	1477067369046	1477067369160	a	65
371977	4009564	They are more efficiently pooled.	They are more efficiently pooled.	190470871	1477067369140	1477067369265	r	82
371977	4009564	They are more efficiently pooled.	They are more efficiently pooled.	190470879	1477067369232	1477067369370	e	69
371977	4009564	They are more efficiently pooled.	They are more efficiently pooled.	190470888	1477067369290	1477067369400	 	32
371977	4009564	They are more efficiently pooled.	They are more efficiently pooled.	190470901	1477067369480	1477067369560	m	77
371977	4009564	They are more efficiently pooled.	They are more efficiently pooled.	190470955	1477067369682	1477067369758	o	79
371977	4009564	They are more efficiently pooled.	They are more efficiently pooled.	190470957	1477067369713	1477067369786	r	82
371977	4009564	They are more efficiently pooled.	They are more efficiently pooled.	190470962	1477067369746	1477067369890	e	69
371977	4009564	They are more efficiently pooled.	They are more efficiently pooled.	190470965	1477067369859	1477067369985	 	32
371977	4009564	They are more efficiently pooled.	They are more efficiently pooled.	190470968	1477067370195	1477067370303	e	69
371977	4009564	They are more efficiently pooled.	They are more efficiently pooled.	190471074	1477067370363	1477067370463	f	70
371977	4009564	They are more efficiently pooled.	They are more efficiently pooled.	190471081	1477067370754	1477067370856	f	70
371977	4009564	They are more efficiently pooled.	They are more efficiently pooled.	190471087	1477067370896	1477067370996	i	73
371977	4009564	They are more efficiently pooled.	They are more efficiently pooled.	190471095	1477067371306	1477067371385	c	67
371977	4009564	They are more efficiently pooled.	They are more efficiently pooled.	190471101	1477067371586	1477067371682	i	73
371977	4009564	They are more efficiently pooled.	They are more efficiently pooled.	190471255	1477067371843	1477067371903	e	69
371977	4009564	They are more efficiently pooled.	They are more efficiently pooled.	190471264	1477067372085	1477067372170	n	78
371977	4009564	They are more efficiently pooled.	They are more efficiently pooled.	190471272	1477067373083	1477067373165	t	84
371977	4009564	They are more efficiently pooled.	They are more efficiently pooled.	190471281	1477067373175	1477067373282	l	76
371977	4009564	They are more efficiently pooled.	They are more efficiently pooled.	190471293	1477067373282	1477067373354	y	89
371977	4009564	They are more efficiently pooled.	They are more efficiently pooled.	190471423	1477067373436	1477067373522	 	32
371977	4009564	They are more efficiently pooled.	They are more efficiently pooled.	190471434	1477067373996	1477067374068	p	80
371977	4009564	They are more efficiently pooled.	They are more efficiently pooled.	190471443	1477067374170	1477067374242	o	79
371977	4009564	They are more efficiently pooled.	They are more efficiently pooled.	190471455	1477067374312	1477067374386	o	79
371977	4009564	They are more efficiently pooled.	They are more efficiently pooled.	190471467	1477067374466	1477067374574	l	76
371977	4009564	They are more efficiently pooled.	They are more efficiently pooled.	190471577	1477067374533	1477067374642	e	69
371977	4009564	They are more efficiently pooled.	They are more efficiently pooled.	190471580	1477067374619	1477067374725	r	82
371977	4009564	They are more efficiently pooled.	They are more efficiently pooled.	190471588	1477067374755	1477067374812	.	190
371977	4009564	They are more efficiently pooled.	They are more efficiently pooled.	190471595	1477067375016	1477067375075	BKSP	8
371977	4009564	They are more efficiently pooled.	They are more efficiently pooled.	190471600	1477067375145	1477067375229	BKSP	8
371977	4009564	They are more efficiently pooled.	They are more efficiently pooled.	190471607	1477067375379	1477067375459	d	68
371977	4009564	They are more efficiently pooled.	They are more efficiently pooled.	190471612	1477067375499	1477067375561	.	190
371977	4009588	Could you please let me know as soon as possible.	Could you please let me know as soon as possible	190471832	1477067377306	1477067377436	CAPS_LOCK	20
371977	4009588	Could you please let me know as soon as possible.	Could you please let me know as soon as possible	190471837	1477067377768	1477067377893	C	67
371977	4009588	Could you please let me know as soon as possible.	Could you please let me know as soon as possible	190471845	1477067377893	1477067378023	CAPS_LOCK	20
371977	4009588	Could you please let me know as soon as possible.	Could you please let me know as soon as possible	190471851	1477067378003	1477067378096	o	79
371977	4009588	Could you please let me know as soon as possible.	Could you please let me know as soon as possible	190471856	1477067378196	1477067378278	u	85
371977	4009588	Could you please let me know as soon as possible.	Could you please let me know as soon as possible	190471862	1477067378398	1477067378500	l	76
371977	4009588	Could you please let me know as soon as possible.	Could you please let me know as soon as possible	190471867	1477067378530	1477067378662	d	68
371977	4009588	Could you please let me know as soon as possible.	Could you please let me know as soon as possible	190471904	1477067378662	1477067378793	 	32
371977	4009588	Could you please let me know as soon as possible.	Could you please let me know as soon as possible	190471910	1477067378823	1477067378933	u	85
371977	4009588	Could you please let me know as soon as possible.	Could you please let me know as soon as possible	190471915	1477067378963	1477067379055	 	32
371977	4009588	Could you please let me know as soon as possible.	Could you please let me know as soon as possible	190471919	1477067379136	1477067379199	BKSP	8
371977	4009588	Could you please let me know as soon as possible.	Could you please let me know as soon as possible	190471923	1477067379269	1477067379341	BKSP	8
371977	4009588	Could you please let me know as soon as possible.	Could you please let me know as soon as possible	190471928	1477067379431	1477067379550	y	89
371977	4009588	Could you please let me know as soon as possible.	Could you please let me know as soon as possible	190471972	1477067379502	1477067379576	o	79
371977	4009588	Could you please let me know as soon as possible.	Could you please let me know as soon as possible	190471979	1477067379691	1477067379779	u	85
371977	4009588	Could you please let me know as soon as possible.	Could you please let me know as soon as possible	190471987	1477067379820	1477067379915	 	32
371977	4009588	Could you please let me know as soon as possible.	Could you please let me know as soon as possible	190471991	1477067379985	1477067380074	p	80
371977	4009588	Could you please let me know as soon as possible.	Could you please let me know as soon as possible	190472000	1477067380154	1477067380256	l	76
371977	4009588	Could you please let me know as soon as possible.	Could you please let me know as soon as possible	190472007	1477067380286	1477067380361	e	69
371977	4009588	Could you please let me know as soon as possible.	Could you please let me know as soon as possible	190472063	1477067380655	1477067380813	a	65
371977	4009588	Could you please let me know as soon as possible.	Could you please let me know as soon as possible	190472070	1477067380776	1477067380882	s	83
371977	4009588	Could you please let me know as soon as possible.	Could you please let me know as soon as possible	190472078	1477067380952	1477067381078	e	69
371977	4009588	Could you please let me know as soon as possible.	Could you please let me know as soon as possible	190472087	1477067381078	1477067381159	 	32
371977	4009588	Could you please let me know as soon as possible.	Could you please let me know as soon as possible	190472099	1477067381219	1477067381325	l	76
371977	4009588	Could you please let me know as soon as possible.	Could you please let me know as soon as possible	190472151	1477067381305	1477067381425	e	69
371977	4009588	Could you please let me know as soon as possible.	Could you please let me know as soon as possible	190472154	1477067381485	1477067381598	t	84
371977	4009588	Could you please let me know as soon as possible.	Could you please let me know as soon as possible	190472158	1477067381628	1477067381725	 	32
371977	4009588	Could you please let me know as soon as possible.	Could you please let me know as soon as possible	190472162	1477067381761	1477067381862	m	77
371977	4009588	Could you please let me know as soon as possible.	Could you please let me know as soon as possible	190472166	1477067381831	1477067381979	e	69
371977	4009588	Could you please let me know as soon as possible.	Could you please let me know as soon as possible	190472190	1477067381938	1477067382018	 	32
371977	4009588	Could you please let me know as soon as possible.	Could you please let me know as soon as possible	190472196	1477067382088	1477067382188	k	75
371977	4009588	Could you please let me know as soon as possible.	Could you please let me know as soon as possible	190472204	1477067382198	1477067382268	n	78
371977	4009588	Could you please let me know as soon as possible.	Could you please let me know as soon as possible	190472212	1477067382298	1477067382402	o	79
371977	4009588	Could you please let me know as soon as possible.	Could you please let me know as soon as possible	190472217	1477067382378	1477067382508	e	69
371977	4009588	Could you please let me know as soon as possible.	Could you please let me know as soon as possible	190472316	1477067382488	1477067382557	 	32
371977	4009588	Could you please let me know as soon as possible.	Could you please let me know as soon as possible	190472319	1477067382705	1477067382783	BKSP	8
371977	4009588	Could you please let me know as soon as possible.	Could you please let me know as soon as possible	190472324	1477067382847	1477067382929	BKSP	8
371977	4009588	Could you please let me know as soon as possible.	Could you please let me know as soon as possible	190472326	1477067382929	1477067383090	w	87
371977	4009588	Could you please let me know as soon as possible.	Could you please let me know as soon as possible	190472331	1477067383038	1477067383128	 	32
371977	4009588	Could you please let me know as soon as possible.	Could you please let me know as soon as possible	190472336	1477067383309	1477067383391	i	73
371977	4009588	Could you please let me know as soon as possible.	Could you please let me know as soon as possible	190472342	1477067383521	1477067383591	BKSP	8
371977	4009588	Could you please let me know as soon as possible.	Could you please let me know as soon as possible	190472345	1477067383641	1477067383805	a	65
371977	4009588	Could you please let me know as soon as possible.	Could you please let me know as soon as possible	190472392	1477067383698	1477067383840	s	83
371977	4009588	Could you please let me know as soon as possible.	Could you please let me know as soon as possible	190472399	1477067383815	1477067383909	 	32
371977	4009588	Could you please let me know as soon as possible.	Could you please let me know as soon as possible	190472407	1477067383969	1477067384081	a	65
371977	4009588	Could you please let me know as soon as possible.	Could you please let me know as soon as possible	190472415	1477067384322	1477067384404	BKSP	8
371977	4009588	Could you please let me know as soon as possible.	Could you please let me know as soon as possible	190472421	1477067384394	1477067384495	s	83
371977	4009588	Could you please let me know as soon as possible.	Could you please let me know as soon as possible	190472430	1477067384505	1477067384585	o	79
371977	4009588	Could you please let me know as soon as possible.	Could you please let me know as soon as possible	190472436	1477067384665	1477067384761	o	79
371977	4009588	Could you please let me know as soon as possible.	Could you please let me know as soon as possible	190472446	1477067384861	1477067384933	n	78
371977	4009588	Could you please let me know as soon as possible.	Could you please let me know as soon as possible	190472452	1477067384953	1477067385048	 	32
371977	4009588	Could you please let me know as soon as possible.	Could you please let me know as soon as possible	190472459	1477067385048	1477067385217	a	65
371977	4009588	Could you please let me know as soon as possible.	Could you please let me know as soon as possible	190472464	1477067385135	1477067385265	s	83
371977	4009588	Could you please let me know as soon as possible.	Could you please let me know as soon as possible	190472502	1477067385217	1477067385298	 	32
371977	4009588	Could you please let me know as soon as possible.	Could you please let me know as soon as possible	190472506	1477067385418	1477067385505	p	80
371977	4009588	Could you please let me know as soon as possible.	Could you please let me know as soon as possible	190472512	1477067385575	1477067385651	o	79
371977	4009588	Could you please let me know as soon as possible.	Could you please let me know as soon as possible	190472517	1477067385701	1477067385778	s	83
371977	4009588	Could you please let me know as soon as possible.	Could you please let me know as soon as possible	190472520	1477067385838	1477067385938	s	83
371977	4009588	Could you please let me know as soon as possible.	Could you please let me know as soon as possible	190472560	1477067385928	1477067386008	i	73
371977	4009588	Could you please let me know as soon as possible.	Could you please let me know as soon as possible	190472562	1477067386078	1477067386161	b	66
371977	4009588	Could you please let me know as soon as possible.	Could you please let me know as soon as possible	190472564	1477067386181	1477067386281	l	76
371977	4009588	Could you please let me know as soon as possible.	Could you please let me know as soon as possible	190472566	1477067386301	1477067386404	e	69
371977	4009612	Do you have a number for him?	Do you have a number for him?	190472827	1477067388138	1477067388290	CAPS_LOCK	20
371977	4009612	Do you have a number for him?	Do you have a number for him?	190472829	1477067388320	1477067388435	S	68
371977	4009612	Do you have a number for him?	Do you have a number for him?	190472832	1477067388375	1477067388455	CAPS_LOCK	20
371977	4009612	Do you have a number for him?	Do you have a number for him?	190472835	1477067388695	1477067388775	BKSP	8
371977	4009612	Do you have a number for him?	Do you have a number for him?	190472838	1477067388835	1477067388931	BKSP	8
371977	4009612	Do you have a number for him?	Do you have a number for him?	190472845	1477067388883	1477067389006	CAPS_LOCK	20
371977	4009612	Do you have a number for him?	Do you have a number for him?	190472852	1477067388971	1477067389091	D	68
371977	4009612	Do you have a number for him?	Do you have a number for him?	190472858	1477067389051	1477067389171	CAPS_LOCK	20
371977	4009612	Do you have a number for him?	Do you have a number for him?	190472864	1477067389141	1477067389243	o	79
371977	4009612	Do you have a number for him?	Do you have a number for him?	190472870	1477067389934	1477067389975	u	85
371977	4009612	Do you have a number for him?	Do you have a number for him?	190472948	1477067390178	1477067390298	BKSP	8
371977	4009612	Do you have a number for him?	Do you have a number for him?	190472955	1477067390328	1477067390448	 	32
371977	4009612	Do you have a number for him?	Do you have a number for him?	190472961	1477067390829	1477067390931	y	89
371977	4009612	Do you have a number for him?	Do you have a number for him?	190472968	1477067390890	1477067390956	o	79
371977	4009612	Do you have a number for him?	Do you have a number for him?	190472976	1477067391046	1477067391138	u	85
371977	4009612	Do you have a number for him?	Do you have a number for him?	190472981	1477067391178	1477067391311	 	32
371977	4009612	Do you have a number for him?	Do you have a number for him?	190473163	1477067391523	1477067391621	h	72
371977	4009612	Do you have a number for him?	Do you have a number for him?	190473170	1477067391611	1477067391764	a	65
371977	4009612	Do you have a number for him?	Do you have a number for him?	190473182	1477067391874	1477067391941	BKSP	8
371977	4009612	Do you have a number for him?	Do you have a number for him?	190473189	1477067392021	1477067392095	BKSP	8
371977	4009612	Do you have a number for him?	Do you have a number for him?	190473199	1477067393308	1477067393413	h	72
371977	4009612	Do you have a number for him?	Do you have a number for him?	190473203	1477067393361	1477067393496	a	65
371977	4009612	Do you have a number for him?	Do you have a number for him?	190473242	1477067393461	1477067393596	v	86
371977	4009612	Do you have a number for him?	Do you have a number for him?	190473248	1477067393541	1477067393678	e	69
371977	4009612	Do you have a number for him?	Do you have a number for him?	190473254	1477067393628	1477067393718	 	32
371977	4009612	Do you have a number for him?	Do you have a number for him?	190473260	1477067393838	1477067393918	m	77
371977	4009612	Do you have a number for him?	Do you have a number for him?	190473266	1477067394069	1477067394161	BKSP	8
371977	4009612	Do you have a number for him?	Do you have a number for him?	190473275	1477067394151	1477067394269	a	65
371977	4009612	Do you have a number for him?	Do you have a number for him?	190473409	1477067394259	1477067394363	 	32
371977	4009612	Do you have a number for him?	Do you have a number for him?	190473415	1477067394414	1477067394494	n	78
371977	4009612	Do you have a number for him?	Do you have a number for him?	190473424	1477067394825	1477067394921	u	85
371977	4009612	Do you have a number for him?	Do you have a number for him?	190473433	1477067395071	1477067395153	n	78
371977	4009612	Do you have a number for him?	Do you have a number for him?	190473442	1477067395495	1477067395585	BKSP	8
371977	4009612	Do you have a number for him?	Do you have a number for him?	190473448	1477067395655	1477067395747	m	77
371977	4009612	Do you have a number for him?	Do you have a number for him?	190473454	1477067395767	1477067395869	b	66
371977	4009612	Do you have a number for him?	Do you have a number for him?	190473510	1477067395920	1477067396050	e	69
371977	4009612	Do you have a number for him?	Do you have a number for him?	190473516	1477067396022	1477067396166	r	82
371977	4009612	Do you have a number for him?	Do you have a number for him?	190473520	1477067396144	1477067396256	 	32
371977	4009612	Do you have a number for him?	Do you have a number for him?	190473525	1477067396608	1477067396695	f	70
371977	4009612	Do you have a number for him?	Do you have a number for him?	190473531	1477067396695	1477067396805	o	79
371977	4009612	Do you have a number for him?	Do you have a number for him?	190473680	1477067396785	1477067396897	r	82
371977	4009612	Do you have a number for him?	Do you have a number for him?	190473684	1477067396897	1477067397019	 	32
371977	4009612	Do you have a number for him?	Do you have a number for him?	190473687	1477067397139	1477067397242	h	72
371977	4009612	Do you have a number for him?	Do you have a number for him?	190473692	1477067397221	1477067397293	i	73
371977	4009612	Do you have a number for him?	Do you have a number for him?	190473699	1477067397383	1477067397465	m	77
371977	4009612	Do you have a number for him?	Do you have a number for him?	190473799	1477067397755	1477067399051	SHIFT	16
371977	4009612	Do you have a number for him?	Do you have a number for him?	190473704	1477067398608	1477067398708	»	221
371977	4009612	Do you have a number for him?	Do you have a number for him?	190473803	1477067399161	1477067399222	BKSP	8
371977	4009612	Do you have a number for him?	Do you have a number for him?	190473810	1477067399302	1477067399585	SHIFT	16
371977	4009612	Do you have a number for him?	Do you have a number for him?	190473806	1477067399402	1477067399495	?	219
371977	4009642	Has it been mentioned yet?	Has it been mentioned yet=	190474023	1477067401422	1477067401578	CAPS_LOCK	20
371977	4009642	Has it been mentioned yet?	Has it been mentioned yet=	190474025	1477067401648	1477067401686	G	71
371977	4009642	Has it been mentioned yet?	Has it been mentioned yet=	190474032	1477067401668	1477067401770	CAPS_LOCK	20
371977	4009642	Has it been mentioned yet?	Has it been mentioned yet=	190474036	1477067402100	1477067402202	BKSP	8
371977	4009642	Has it been mentioned yet?	Has it been mentioned yet=	190474041	1477067402242	1477067402352	CAPS_LOCK	20
371977	4009642	Has it been mentioned yet?	Has it been mentioned yet=	190474046	1477067402382	1477067402462	H	72
371977	4009642	Has it been mentioned yet?	Has it been mentioned yet=	190474054	1477067402433	1477067402522	CAPS_LOCK	20
371977	4009642	Has it been mentioned yet?	Has it been mentioned yet=	190474062	1477067402612	1477067402785	a	65
371977	4009642	Has it been mentioned yet?	Has it been mentioned yet=	190474070	1477067402706	1477067402855	s	83
371977	4009642	Has it been mentioned yet?	Has it been mentioned yet=	190474076	1477067402865	1477067402995	 	32
371977	4009642	Has it been mentioned yet?	Has it been mentioned yet=	190474118	1477067403075	1477067403219	i	73
371977	4009642	Has it been mentioned yet?	Has it been mentioned yet=	190474126	1477067403184	1477067403312	s	83
371977	4009642	Has it been mentioned yet?	Has it been mentioned yet=	190474137	1477067403393	1477067403486	BKSP	8
371977	4009642	Has it been mentioned yet?	Has it been mentioned yet=	190474142	1477067403476	1477067403612	t	84
371977	4009642	Has it been mentioned yet?	Has it been mentioned yet=	190474146	1477067403612	1477067403734	 	32
371977	4009642	Has it been mentioned yet?	Has it been mentioned yet=	190474152	1477067403837	1477067403951	b	66
371977	4009642	Has it been mentioned yet?	Has it been mentioned yet=	190474194	1477067403919	1477067404015	e	69
371977	4009642	Has it been mentioned yet?	Has it been mentioned yet=	190474195	1477067404075	1477067404182	e	69
371977	4009642	Has it been mentioned yet?	Has it been mentioned yet=	190474198	1477067404182	1477067404279	n	78
371977	4009642	Has it been mentioned yet?	Has it been mentioned yet=	190474201	1477067404289	1477067404389	 	32
371977	4009642	Has it been mentioned yet?	Has it been mentioned yet=	190474204	1477067404550	1477067404662	m	77
371977	4009642	Has it been mentioned yet?	Has it been mentioned yet=	190474257	1477067404652	1477067404784	e	69
371977	4009642	Has it been mentioned yet?	Has it been mentioned yet=	190474260	1477067404794	1477067404870	n	78
371977	4009642	Has it been mentioned yet?	Has it been mentioned yet=	190474263	1477067404871	1477067404963	t	84
371977	4009642	Has it been mentioned yet?	Has it been mentioned yet=	190474266	1477067404993	1477067405085	i	73
371977	4009642	Has it been mentioned yet?	Has it been mentioned yet=	190474268	1477067405195	1477067405276	o	79
371977	4009642	Has it been mentioned yet?	Has it been mentioned yet=	190474275	1477067405417	1477067405495	n	78
371977	4009642	Has it been mentioned yet?	Has it been mentioned yet=	190474374	1477067405516	1477067405683	e	69
371977	4009642	Has it been mentioned yet?	Has it been mentioned yet=	190474379	1477067405628	1477067405753	d	68
371977	4009642	Has it been mentioned yet?	Has it been mentioned yet=	190474386	1477067405763	1477067405921	 	32
371977	4009642	Has it been mentioned yet?	Has it been mentioned yet=	190474392	1477067406419	1477067406505	y	89
371977	4009642	Has it been mentioned yet?	Has it been mentioned yet=	190474399	1477067406775	1477067406861	e	69
371977	4009642	Has it been mentioned yet?	Has it been mentioned yet=	190474539	1477067407162	1477067407254	t	84
371977	4009642	Has it been mentioned yet?	Has it been mentioned yet=	190474550	1477067407314	1477067407898	SHIFT	16
371977	4009642	Has it been mentioned yet?	Has it been mentioned yet=	190474545	1477067407686	1477067407778	»	221
371977	4009642	Has it been mentioned yet?	Has it been mentioned yet=	190474558	1477067408385	1477067408489	BKSP	8
371977	4009642	Has it been mentioned yet?	Has it been mentioned yet=	190474565	1477067408819	1477067408911	=	48
371977	4009662	It should save the taxpayers a considerable amount of money.	It should save the taxpayers a considerable amount of money	190474806	1477067410555	1477067410675	CAPS_LOCK	20
371977	4009662	It should save the taxpayers a considerable amount of money.	It should save the taxpayers a considerable amount of money	190474812	1477067410655	1477067410756	I	73
371977	4009662	It should save the taxpayers a considerable amount of money.	It should save the taxpayers a considerable amount of money	190474816	1477067410876	1477067410957	T	84
371977	4009662	It should save the taxpayers a considerable amount of money.	It should save the taxpayers a considerable amount of money	190474823	1477067411029	1477067411119	CAPS_LOCK	20
371977	4009662	It should save the taxpayers a considerable amount of money.	It should save the taxpayers a considerable amount of money	190474830	1477067411220	1477067411342	BKSP	8
371977	4009662	It should save the taxpayers a considerable amount of money.	It should save the taxpayers a considerable amount of money	190474841	1477067411342	1477067411448	t	84
371977	4009662	It should save the taxpayers a considerable amount of money.	It should save the taxpayers a considerable amount of money	190474852	1477067411498	1477067411626	 	32
371977	4009662	It should save the taxpayers a considerable amount of money.	It should save the taxpayers a considerable amount of money	190474861	1477067411987	1477067412099	s	83
371977	4009662	It should save the taxpayers a considerable amount of money.	It should save the taxpayers a considerable amount of money	190474876	1477067412160	1477067412246	h	72
371977	4009662	It should save the taxpayers a considerable amount of money.	It should save the taxpayers a considerable amount of money	190474879	1477067412246	1477067412304	o	79
371977	4009662	It should save the taxpayers a considerable amount of money.	It should save the taxpayers a considerable amount of money	190474883	1477067412388	1477067412462	u	85
371977	4009662	It should save the taxpayers a considerable amount of money.	It should save the taxpayers a considerable amount of money	190474886	1477067412549	1477067412668	l	76
371977	4009662	It should save the taxpayers a considerable amount of money.	It should save the taxpayers a considerable amount of money	190474889	1477067412668	1477067412782	d	68
371977	4009662	It should save the taxpayers a considerable amount of money.	It should save the taxpayers a considerable amount of money	190474930	1477067412802	1477067412949	 	32
371977	4009662	It should save the taxpayers a considerable amount of money.	It should save the taxpayers a considerable amount of money	190474931	1477067413383	1477067413479	s	83
371977	4009662	It should save the taxpayers a considerable amount of money.	It should save the taxpayers a considerable amount of money	190474932	1477067413489	1477067413629	a	65
371977	4009662	It should save the taxpayers a considerable amount of money.	It should save the taxpayers a considerable amount of money	190474934	1477067413709	1477067413820	v	86
371977	4009662	It should save the taxpayers a considerable amount of money.	It should save the taxpayers a considerable amount of money	190474989	1477067413786	1477067413919	e	69
371977	4009662	It should save the taxpayers a considerable amount of money.	It should save the taxpayers a considerable amount of money	190474993	1477067413969	1477067414055	 	32
371977	4009662	It should save the taxpayers a considerable amount of money.	It should save the taxpayers a considerable amount of money	190474999	1477067414065	1477067414175	t	84
371977	4009662	It should save the taxpayers a considerable amount of money.	It should save the taxpayers a considerable amount of money	190475006	1477067414185	1477067414287	h	72
371977	4009662	It should save the taxpayers a considerable amount of money.	It should save the taxpayers a considerable amount of money	190475012	1477067414249	1477067414408	e	69
371977	4009662	It should save the taxpayers a considerable amount of money.	It should save the taxpayers a considerable amount of money	190475019	1477067414408	1477067414502	 	32
371977	4009662	It should save the taxpayers a considerable amount of money.	It should save the taxpayers a considerable amount of money	190475104	1477067414825	1477067414921	t	84
371977	4009662	It should save the taxpayers a considerable amount of money.	It should save the taxpayers a considerable amount of money	190475108	1477067414921	1477067415068	a	65
371977	4009662	It should save the taxpayers a considerable amount of money.	It should save the taxpayers a considerable amount of money	190475115	1477067415088	1477067415208	c	67
371977	4009662	It should save the taxpayers a considerable amount of money.	It should save the taxpayers a considerable amount of money	190475118	1477067415288	1477067415399	p	80
371977	4009662	It should save the taxpayers a considerable amount of money.	It should save the taxpayers a considerable amount of money	190475122	1477067415590	1477067415668	BKSP	8
371977	4009662	It should save the taxpayers a considerable amount of money.	It should save the taxpayers a considerable amount of money	190475131	1477067415728	1477067415812	BKSP	8
371977	4009662	It should save the taxpayers a considerable amount of money.	It should save the taxpayers a considerable amount of money	190475142	1477067415852	1477067415968	x	88
371977	4009662	It should save the taxpayers a considerable amount of money.	It should save the taxpayers a considerable amount of money	190475212	1477067415978	1477067416101	p	80
371977	4009662	It should save the taxpayers a considerable amount of money.	It should save the taxpayers a considerable amount of money	190475215	1477067416331	1477067416470	a	65
371977	4009662	It should save the taxpayers a considerable amount of money.	It should save the taxpayers a considerable amount of money	190475221	1477067416721	1477067416812	y	89
371977	4009662	It should save the taxpayers a considerable amount of money.	It should save the taxpayers a considerable amount of money	190475225	1477067416912	1477067417055	e	69
371977	4009662	It should save the taxpayers a considerable amount of money.	It should save the taxpayers a considerable amount of money	190475324	1477067417022	1477067417122	r	82
371977	4009662	It should save the taxpayers a considerable amount of money.	It should save the taxpayers a considerable amount of money	190475328	1477067417192	1477067417328	s	83
371977	4009662	It should save the taxpayers a considerable amount of money.	It should save the taxpayers a considerable amount of money	190475333	1477067417509	1477067417635	 	32
371977	4009662	It should save the taxpayers a considerable amount of money.	It should save the taxpayers a considerable amount of money	190475336	1477067417746	1477067417898	a	65
371977	4009662	It should save the taxpayers a considerable amount of money.	It should save the taxpayers a considerable amount of money	190475342	1477067417978	1477067418139	 	32
371977	4009662	It should save the taxpayers a considerable amount of money.	It should save the taxpayers a considerable amount of money	190475347	1477067418329	1477067418399	c	67
371977	4009662	It should save the taxpayers a considerable amount of money.	It should save the taxpayers a considerable amount of money	190475423	1477067418409	1477067418456	o	79
371977	4009662	It should save the taxpayers a considerable amount of money.	It should save the taxpayers a considerable amount of money	190475425	1477067418824	1477067418901	n	78
371977	4009662	It should save the taxpayers a considerable amount of money.	It should save the taxpayers a considerable amount of money	190475428	1477067418931	1477067419053	s	83
371977	4009662	It should save the taxpayers a considerable amount of money.	It should save the taxpayers a considerable amount of money	190475431	1477067419083	1477067419191	i	73
371977	4009662	It should save the taxpayers a considerable amount of money.	It should save the taxpayers a considerable amount of money	190475435	1477067419502	1477067419584	d	68
371977	4009662	It should save the taxpayers a considerable amount of money.	It should save the taxpayers a considerable amount of money	190475481	1477067419735	1477067419872	e	69
371977	4009662	It should save the taxpayers a considerable amount of money.	It should save the taxpayers a considerable amount of money	190475487	1477067419923	1477067420025	r	82
371977	4009662	It should save the taxpayers a considerable amount of money.	It should save the taxpayers a considerable amount of money	190475493	1477067420005	1477067420107	a	65
371977	4009662	It should save the taxpayers a considerable amount of money.	It should save the taxpayers a considerable amount of money	190475496	1477067420197	1477067420288	b	66
371977	4009662	It should save the taxpayers a considerable amount of money.	It should save the taxpayers a considerable amount of money	190475498	1477067420298	1477067420398	l	76
371977	4009662	It should save the taxpayers a considerable amount of money.	It should save the taxpayers a considerable amount of money	190475570	1477067420388	1477067420546	e	69
371977	4009662	It should save the taxpayers a considerable amount of money.	It should save the taxpayers a considerable amount of money	190475575	1477067420495	1477067420615	 	32
371977	4009662	It should save the taxpayers a considerable amount of money.	It should save the taxpayers a considerable amount of money	190475581	1477067421005	1477067421085	a	65
371977	4009662	It should save the taxpayers a considerable amount of money.	It should save the taxpayers a considerable amount of money	190475586	1477067421185	1477067421261	m	77
371977	4009662	It should save the taxpayers a considerable amount of money.	It should save the taxpayers a considerable amount of money	190475591	1477067421341	1477067421428	o	79
371977	4009662	It should save the taxpayers a considerable amount of money.	It should save the taxpayers a considerable amount of money	190475593	1477067421518	1477067421600	u	85
371977	4009662	It should save the taxpayers a considerable amount of money.	It should save the taxpayers a considerable amount of money	190475617	1477067421691	1477067421778	n	78
371977	4009662	It should save the taxpayers a considerable amount of money.	It should save the taxpayers a considerable amount of money	190475618	1477067421778	1477067421899	t	84
371977	4009662	It should save the taxpayers a considerable amount of money.	It should save the taxpayers a considerable amount of money	190475622	1477067421879	1477067421991	 	32
371977	4009662	It should save the taxpayers a considerable amount of money.	It should save the taxpayers a considerable amount of money	190475624	1477067422041	1477067422135	o	79
371977	4009662	It should save the taxpayers a considerable amount of money.	It should save the taxpayers a considerable amount of money	190475626	1477067422135	1477067422246	f	70
371977	4009662	It should save the taxpayers a considerable amount of money.	It should save the taxpayers a considerable amount of money	190475654	1477067422245	1477067422380	 	32
371977	4009662	It should save the taxpayers a considerable amount of money.	It should save the taxpayers a considerable amount of money	190475655	1477067422451	1477067422525	m	77
371977	4009662	It should save the taxpayers a considerable amount of money.	It should save the taxpayers a considerable amount of money	190475656	1477067422625	1477067422711	o	79
371977	4009662	It should save the taxpayers a considerable amount of money.	It should save the taxpayers a considerable amount of money	190475657	1477067422801	1477067422898	n	78
371977	4009662	It should save the taxpayers a considerable amount of money.	It should save the taxpayers a considerable amount of money	190475658	1477067422888	1477067423018	e	69
371977	4009662	It should save the taxpayers a considerable amount of money.	It should save the taxpayers a considerable amount of money	190475665	1477067422969	1477067423061	y	89
371977	4009692	But I would suspect that when Ricky can play, he'll play again.	But i would suspect that when Ricky can play, he´ll play again.	190475863	1477067424521	1477067424662	CAPS_LOCK	20
371977	4009692	But I would suspect that when Ricky can play, he'll play again.	But i would suspect that when Ricky can play, he´ll play again.	190475866	1477067425023	1477067425105	B	66
371977	4009692	But I would suspect that when Ricky can play, he'll play again.	But i would suspect that when Ricky can play, he´ll play again.	190475872	1477067425165	1477067425305	CAPS_LOCK	20
371977	4009692	But I would suspect that when Ricky can play, he'll play again.	But i would suspect that when Ricky can play, he´ll play again.	190475878	1477067425335	1477067425417	u	85
371977	4009692	But I would suspect that when Ricky can play, he'll play again.	But i would suspect that when Ricky can play, he´ll play again.	190475883	1477067425507	1477067425615	t	84
371977	4009692	But I would suspect that when Ricky can play, he'll play again.	But i would suspect that when Ricky can play, he´ll play again.	190475889	1477067425635	1477067425738	 	32
371977	4009692	But I would suspect that when Ricky can play, he'll play again.	But i would suspect that when Ricky can play, he´ll play again.	190475895	1477067425798	1477067425897	i	73
371977	4009692	But I would suspect that when Ricky can play, he'll play again.	But i would suspect that when Ricky can play, he´ll play again.	190475985	1477067425877	1477067425977	 	32
371977	4009692	But I would suspect that when Ricky can play, he'll play again.	But i would suspect that when Ricky can play, he´ll play again.	190475988	1477067426327	1477067426442	w	87
371977	4009692	But I would suspect that when Ricky can play, he'll play again.	But i would suspect that when Ricky can play, he´ll play again.	190475990	1477067426462	1477067426542	o	79
371977	4009692	But I would suspect that when Ricky can play, he'll play again.	But i would suspect that when Ricky can play, he´ll play again.	190475992	1477067426622	1477067426694	u	85
371977	4009692	But I would suspect that when Ricky can play, he'll play again.	But i would suspect that when Ricky can play, he´ll play again.	190475995	1477067426804	1477067426896	l	76
371977	4009692	But I would suspect that when Ricky can play, he'll play again.	But i would suspect that when Ricky can play, he´ll play again.	190475998	1477067426916	1477067427025	d	68
371977	4009692	But I would suspect that when Ricky can play, he'll play again.	But i would suspect that when Ricky can play, he´ll play again.	190476035	1477067427025	1477067427128	 	32
371977	4009692	But I would suspect that when Ricky can play, he'll play again.	But i would suspect that when Ricky can play, he´ll play again.	190476037	1477067427188	1477067427298	s	83
371977	4009692	But I would suspect that when Ricky can play, he'll play again.	But i would suspect that when Ricky can play, he´ll play again.	190476039	1477067427308	1477067427397	u	85
371977	4009692	But I would suspect that when Ricky can play, he'll play again.	But i would suspect that when Ricky can play, he´ll play again.	190476041	1477067427488	1477067427588	s	83
371977	4009692	But I would suspect that when Ricky can play, he'll play again.	But i would suspect that when Ricky can play, he´ll play again.	190476043	1477067427648	1477067427757	p	80
371977	4009692	But I would suspect that when Ricky can play, he'll play again.	But i would suspect that when Ricky can play, he´ll play again.	190476107	1477067427798	1477067427875	c	67
371977	4009692	But I would suspect that when Ricky can play, he'll play again.	But i would suspect that when Ricky can play, he´ll play again.	190476108	1477067428105	1477067428215	BKSP	8
371977	4009692	But I would suspect that when Ricky can play, he'll play again.	But i would suspect that when Ricky can play, he´ll play again.	190476111	1477067428195	1477067428305	e	69
371977	4009692	But I would suspect that when Ricky can play, he'll play again.	But i would suspect that when Ricky can play, he´ll play again.	190476117	1477067428325	1477067428411	c	67
371977	4009692	But I would suspect that when Ricky can play, he'll play again.	But i would suspect that when Ricky can play, he´ll play again.	190476121	1477067428521	1477067428632	t	84
371977	4009692	But I would suspect that when Ricky can play, he'll play again.	But i would suspect that when Ricky can play, he´ll play again.	190476126	1477067428652	1477067428761	 	32
371977	4009692	But I would suspect that when Ricky can play, he'll play again.	But i would suspect that when Ricky can play, he´ll play again.	190476144	1477067428931	1477067429052	t	84
371977	4009692	But I would suspect that when Ricky can play, he'll play again.	But i would suspect that when Ricky can play, he´ll play again.	190476146	1477067428997	1477067429082	h	72
371977	4009692	But I would suspect that when Ricky can play, he'll play again.	But i would suspect that when Ricky can play, he´ll play again.	190476147	1477067429072	1477067429214	a	65
371977	4009692	But I would suspect that when Ricky can play, he'll play again.	But i would suspect that when Ricky can play, he´ll play again.	190476148	1477067429174	1477067429316	t	84
371977	4009692	But I would suspect that when Ricky can play, he'll play again.	But i would suspect that when Ricky can play, he´ll play again.	190476201	1477067429281	1477067429383	 	32
371977	4009692	But I would suspect that when Ricky can play, he'll play again.	But i would suspect that when Ricky can play, he´ll play again.	190476204	1477067429586	1477067429699	w	87
371977	4009692	But I would suspect that when Ricky can play, he'll play again.	But i would suspect that when Ricky can play, he´ll play again.	190476208	1477067429658	1477067429760	h	72
371977	4009692	But I would suspect that when Ricky can play, he'll play again.	But i would suspect that when Ricky can play, he´ll play again.	190476211	1477067429790	1477067429885	e	69
371977	4009692	But I would suspect that when Ricky can play, he'll play again.	But i would suspect that when Ricky can play, he´ll play again.	190476217	1477067429905	1477067430007	n	78
371977	4009692	But I would suspect that when Ricky can play, he'll play again.	But i would suspect that when Ricky can play, he´ll play again.	190476221	1477067430027	1477067430128	 	32
371977	4009692	But I would suspect that when Ricky can play, he'll play again.	But i would suspect that when Ricky can play, he´ll play again.	190476314	1477067430340	1477067430461	CAPS_LOCK	20
371977	4009692	But I would suspect that when Ricky can play, he'll play again.	But i would suspect that when Ricky can play, he´ll play again.	190476317	1477067430451	1477067430573	R	82
371977	4009692	But I would suspect that when Ricky can play, he'll play again.	But i would suspect that when Ricky can play, he´ll play again.	190476321	1477067430543	1477067430656	CAPS_LOCK	20
371977	4009692	But I would suspect that when Ricky can play, he'll play again.	But i would suspect that when Ricky can play, he´ll play again.	190476325	1477067430806	1477067430905	i	73
371977	4009692	But I would suspect that when Ricky can play, he'll play again.	But i would suspect that when Ricky can play, he´ll play again.	190476330	1477067430915	1477067430974	c	67
371977	4009692	But I would suspect that when Ricky can play, he'll play again.	But i would suspect that when Ricky can play, he´ll play again.	190476334	1477067431014	1477067431112	k	75
371977	4009692	But I would suspect that when Ricky can play, he'll play again.	But i would suspect that when Ricky can play, he´ll play again.	190476337	1477067431182	1477067431314	y	89
371977	4009692	But I would suspect that when Ricky can play, he'll play again.	But i would suspect that when Ricky can play, he´ll play again.	190476397	1477067431395	1477067431507	 	32
371977	4009692	But I would suspect that when Ricky can play, he'll play again.	But i would suspect that when Ricky can play, he´ll play again.	190476399	1477067431687	1477067431838	CAPS_LOCK	20
371977	4009692	But I would suspect that when Ricky can play, he'll play again.	But i would suspect that when Ricky can play, he´ll play again.	190476400	1477067431862	1477067431975	C	67
371977	4009692	But I would suspect that when Ricky can play, he'll play again.	But i would suspect that when Ricky can play, he´ll play again.	190476401	1477067431955	1477067432075	CAPS_LOCK	20
371977	4009692	But I would suspect that when Ricky can play, he'll play again.	But i would suspect that when Ricky can play, he´ll play again.	190476402	1477067432215	1477067432294	BKSP	8
371977	4009692	But I would suspect that when Ricky can play, he'll play again.	But i would suspect that when Ricky can play, he´ll play again.	190476403	1477067432324	1477067432444	c	67
371977	4009692	But I would suspect that when Ricky can play, he'll play again.	But i would suspect that when Ricky can play, he´ll play again.	190476404	1477067432410	1477067432531	a	65
371977	4009692	But I would suspect that when Ricky can play, he'll play again.	But i would suspect that when Ricky can play, he´ll play again.	190476448	1477067432511	1477067432598	n	78
371977	4009692	But I would suspect that when Ricky can play, he'll play again.	But i would suspect that when Ricky can play, he´ll play again.	190476453	1477067432638	1477067432737	 	32
371977	4009692	But I would suspect that when Ricky can play, he'll play again.	But i would suspect that when Ricky can play, he´ll play again.	190476458	1477067432807	1477067432906	p	80
371977	4009692	But I would suspect that when Ricky can play, he'll play again.	But i would suspect that when Ricky can play, he´ll play again.	190476461	1477067432970	1477067433079	l	76
371977	4009692	But I would suspect that when Ricky can play, he'll play again.	But i would suspect that when Ricky can play, he´ll play again.	190476464	1477067433031	1477067433158	a	65
371977	4009692	But I would suspect that when Ricky can play, he'll play again.	But i would suspect that when Ricky can play, he´ll play again.	190476471	1477067433178	1477067433321	y	89
371977	4009692	But I would suspect that when Ricky can play, he'll play again.	But i would suspect that when Ricky can play, he´ll play again.	190476599	1477067433288	1477067433419	,	188
371977	4009692	But I would suspect that when Ricky can play, he'll play again.	But i would suspect that when Ricky can play, he´ll play again.	190476603	1477067433729	1477067433879	 	32
371977	4009692	But I would suspect that when Ricky can play, he'll play again.	But i would suspect that when Ricky can play, he´ll play again.	190476609	1477067433999	1477067434149	CAPS_LOCK	20
371977	4009692	But I would suspect that when Ricky can play, he'll play again.	But i would suspect that when Ricky can play, he´ll play again.	190476617	1477067434269	1477067434351	H	72
371977	4009692	But I would suspect that when Ricky can play, he'll play again.	But i would suspect that when Ricky can play, he´ll play again.	190476623	1477067434371	1477067434511	CAPS_LOCK	20
371977	4009692	But I would suspect that when Ricky can play, he'll play again.	But i would suspect that when Ricky can play, he´ll play again.	190476629	1477067434731	1477067434811	BKSP	8
371977	4009692	But I would suspect that when Ricky can play, he'll play again.	But i would suspect that when Ricky can play, he´ll play again.	190476636	1477067434961	1477067435081	h	72
371977	4009692	But I would suspect that when Ricky can play, he'll play again.	But i would suspect that when Ricky can play, he´ll play again.	190476642	1477067435071	1477067435190	e	69
371977	4009692	But I would suspect that when Ricky can play, he'll play again.	But i would suspect that when Ricky can play, he´ll play again.	190476820	1477067435131	1477067435211	l	76
371977	4009692	But I would suspect that when Ricky can play, he'll play again.	But i would suspect that when Ricky can play, he´ll play again.	190476829	1477067435292	1477067435358	l	76
371977	4009692	But I would suspect that when Ricky can play, he'll play again.	But i would suspect that when Ricky can play, he´ll play again.	190476836	1477067435854	1477067435935	BKSP	8
371977	4009692	But I would suspect that when Ricky can play, he'll play again.	But i would suspect that when Ricky can play, he´ll play again.	190476841	1477067435975	1477067436110	BKSP	8
371977	4009692	But I would suspect that when Ricky can play, he'll play again.	But i would suspect that when Ricky can play, he´ll play again.	190476846	1477067436821	1477067436881	l	76
371977	4009692	But I would suspect that when Ricky can play, he'll play again.	But i would suspect that when Ricky can play, he´ll play again.	190476852	1477067436943	1477067437015	l	76
371977	4009692	But I would suspect that when Ricky can play, he'll play again.	But i would suspect that when Ricky can play, he´ll play again.	190476859	1477067437375	1477067437500	 	32
371977	4009692	But I would suspect that when Ricky can play, he'll play again.	But i would suspect that when Ricky can play, he´ll play again.	190476936	1477067437772	1477067437869	p	80
371977	4009692	But I would suspect that when Ricky can play, he'll play again.	But i would suspect that when Ricky can play, he´ll play again.	190476938	1477067437934	1477067438046	l	76
371977	4009692	But I would suspect that when Ricky can play, he'll play again.	But i would suspect that when Ricky can play, he´ll play again.	190476941	1477067438126	1477067438248	a	65
371977	4009692	But I would suspect that when Ricky can play, he'll play again.	But i would suspect that when Ricky can play, he´ll play again.	190476943	1477067438368	1477067438484	y	89
371977	4009692	But I would suspect that when Ricky can play, he'll play again.	But i would suspect that when Ricky can play, he´ll play again.	190476945	1477067438504	1477067438626	 	32
371977	4009692	But I would suspect that when Ricky can play, he'll play again.	But i would suspect that when Ricky can play, he´ll play again.	190476959	1477067438847	1477067438969	a	65
371977	4009692	But I would suspect that when Ricky can play, he'll play again.	But i would suspect that when Ricky can play, he´ll play again.	190476963	1477067438969	1477067439091	g	71
371977	4009692	But I would suspect that when Ricky can play, he'll play again.	But i would suspect that when Ricky can play, he´ll play again.	190476967	1477067439056	1477067439185	a	65
371977	4009692	But I would suspect that when Ricky can play, he'll play again.	But i would suspect that when Ricky can play, he´ll play again.	190476971	1477067439154	1477067439215	i	73
371977	4009692	But I would suspect that when Ricky can play, he'll play again.	But i would suspect that when Ricky can play, he´ll play again.	190476976	1477067439315	1477067439367	n	78
371977	4009692	But I would suspect that when Ricky can play, he'll play again.	But i would suspect that when Ricky can play, he´ll play again.	190476993	1477067439542	1477067439647	.	190
371977	4009718	Is she done yet?	Is she done yet?	190477186	1477067441105	1477067441210	CAPS_LOCK	20
371977	4009718	Is she done yet?	Is she done yet?	190477191	1477067441340	1477067441467	I	73
371977	4009718	Is she done yet?	Is she done yet?	190477198	1477067441457	1477067441577	CAPS_LOCK	20
371977	4009718	Is she done yet?	Is she done yet?	190477203	1477067441617	1477067441709	s	83
371977	4009718	Is she done yet?	Is she done yet?	190477209	1477067441729	1477067441850	 	32
371977	4009718	Is she done yet?	Is she done yet?	190477221	1477067441960	1477067442064	s	83
371977	4009718	Is she done yet?	Is she done yet?	190477229	1477067442064	1477067442156	h	72
371977	4009718	Is she done yet?	Is she done yet?	190477260	1477067442146	1477067442307	e	69
371977	4009718	Is she done yet?	Is she done yet?	190477263	1477067442268	1477067442380	 	32
371977	4009718	Is she done yet?	Is she done yet?	190477264	1477067442470	1477067442542	d	68
371977	4009718	Is she done yet?	Is she done yet?	190477265	1477067442562	1477067442649	o	79
371977	4009718	Is she done yet?	Is she done yet?	190477267	1477067442739	1477067442830	n	78
371977	4009718	Is she done yet?	Is she done yet?	190477270	1477067442830	1477067442978	e	69
371977	4009718	Is she done yet?	Is she done yet?	190477351	1477067442968	1477067443110	 	32
371977	4009718	Is she done yet?	Is she done yet?	190477358	1477067443370	1477067443460	y	89
371977	4009718	Is she done yet?	Is she done yet?	190477364	1477067443431	1477067443500	e	69
371977	4009718	Is she done yet?	Is she done yet?	190477368	1477067443580	1477067443671	s	83
371977	4009718	Is she done yet?	Is she done yet?	190477375	1477067443771	1477067443800	y	89
371977	4009718	Is she done yet?	Is she done yet?	190477379	1477067443961	1477067444033	t	84
371977	4009718	Is she done yet?	Is she done yet?	190477548	1477067444114	1477067444201	BKSP	8
371977	4009718	Is she done yet?	Is she done yet?	190477553	1477067444261	1477067444333	BKSP	8
371977	4009718	Is she done yet?	Is she done yet?	190477562	1477067444473	1477067444590	t	84
371977	4009718	Is she done yet?	Is she done yet?	190477574	1477067444873	1477067444960	BKSP	8
371977	4009718	Is she done yet?	Is she done yet?	190477579	1477067445030	1477067445112	BKSP	8
371977	4009718	Is she done yet?	Is she done yet?	190477584	1477067445142	1477067445274	t	84
371977	4009718	Is she done yet?	Is she done yet?	190477588	1477067446152	1477067446241	?	219
371977	4009729	We know this is a big time at the speedway.	We know this is a bit time at the speedway.	190477784	1477067448204	1477067448374	CAPS_LOCK	20
371977	4009729	We know this is a big time at the speedway.	We know this is a bit time at the speedway.	190477789	1477067448364	1477067448513	W	87
371977	4009729	We know this is a big time at the speedway.	We know this is a bit time at the speedway.	190477794	1477067448473	1477067448594	CAPS_LOCK	20
371977	4009729	We know this is a big time at the speedway.	We know this is a bit time at the speedway.	190477801	1477067448715	1477067448817	e	69
371977	4009729	We know this is a big time at the speedway.	We know this is a bit time at the speedway.	190477808	1477067448887	1477067448997	 	32
371977	4009729	We know this is a big time at the speedway.	We know this is a bit time at the speedway.	190477814	1477067449127	1477067449217	k	75
371977	4009729	We know this is a big time at the speedway.	We know this is a bit time at the speedway.	190477820	1477067449227	1477067449307	n	78
371977	4009729	We know this is a big time at the speedway.	We know this is a bit time at the speedway.	190477863	1477067449328	1477067449420	o	79
371977	4009729	We know this is a big time at the speedway.	We know this is a bit time at the speedway.	190477868	1477067449420	1477067449561	w	87
371977	4009729	We know this is a big time at the speedway.	We know this is a bit time at the speedway.	190477873	1477067449541	1477067449645	 	32
371977	4009729	We know this is a big time at the speedway.	We know this is a bit time at the speedway.	190477879	1477067449887	1477067449967	t	84
371977	4009729	We know this is a big time at the speedway.	We know this is a bit time at the speedway.	190477884	1477067450107	1477067450189	h	72
371977	4009729	We know this is a big time at the speedway.	We know this is a bit time at the speedway.	190477893	1477067450210	1477067450311	i	73
371977	4009729	We know this is a big time at the speedway.	We know this is a bit time at the speedway.	190477896	1477067450311	1477067450456	s	83
371977	4009729	We know this is a big time at the speedway.	We know this is a bit time at the speedway.	190477902	1477067450413	1477067450493	 	32
371977	4009729	We know this is a big time at the speedway.	We know this is a bit time at the speedway.	190477908	1477067450623	1477067450715	i	73
371977	4009729	We know this is a big time at the speedway.	We know this is a bit time at the speedway.	190477957	1477067450695	1477067450834	s	83
371977	4009729	We know this is a big time at the speedway.	We know this is a bit time at the speedway.	190477964	1477067450797	1477067450919	 	32
371977	4009729	We know this is a big time at the speedway.	We know this is a bit time at the speedway.	190477971	1477067450945	1477067451067	a	65
371977	4009729	We know this is a big time at the speedway.	We know this is a bit time at the speedway.	190477977	1477067451047	1477067451139	 	32
371977	4009729	We know this is a big time at the speedway.	We know this is a bit time at the speedway.	190477981	1477067451299	1477067451376	b	66
371977	4009729	We know this is a big time at the speedway.	We know this is a bit time at the speedway.	190477984	1477067451396	1477067451553	i	73
371977	4009729	We know this is a big time at the speedway.	We know this is a bit time at the speedway.	190478004	1477067451499	1477067451616	t	84
371977	4009729	We know this is a big time at the speedway.	We know this is a bit time at the speedway.	190478008	1477067451616	1477067451728	 	32
371977	4009729	We know this is a big time at the speedway.	We know this is a bit time at the speedway.	190478015	1477067451798	1477067451906	t	84
371977	4009729	We know this is a big time at the speedway.	We know this is a bit time at the speedway.	190478023	1477067451896	1477067451971	i	73
371977	4009729	We know this is a big time at the speedway.	We know this is a bit time at the speedway.	190478026	1477067452048	1477067452150	m	77
371977	4009729	We know this is a big time at the speedway.	We know this is a bit time at the speedway.	190478068	1477067452124	1477067452260	e	69
371977	4009729	We know this is a big time at the speedway.	We know this is a bit time at the speedway.	190478071	1477067452270	1477067452382	 	32
371977	4009729	We know this is a big time at the speedway.	We know this is a bit time at the speedway.	190478076	1477067452392	1477067452544	a	65
371977	4009729	We know this is a big time at the speedway.	We know this is a bit time at the speedway.	190478083	1477067452626	1477067452739	t	84
371977	4009729	We know this is a big time at the speedway.	We know this is a bit time at the speedway.	190478092	1477067452769	1477067452861	 	32
371977	4009729	We know this is a big time at the speedway.	We know this is a bit time at the speedway.	190478100	1477067452941	1477067453054	t	84
371977	4009729	We know this is a big time at the speedway.	We know this is a bit time at the speedway.	190478139	1477067453044	1477067453151	h	72
371977	4009729	We know this is a big time at the speedway.	We know this is a bit time at the speedway.	190478142	1477067453141	1477067453306	e	69
371977	4009729	We know this is a big time at the speedway.	We know this is a bit time at the speedway.	190478146	1477067453286	1477067453386	 	32
371977	4009729	We know this is a big time at the speedway.	We know this is a bit time at the speedway.	190478152	1477067453566	1477067453673	s	83
371977	4009729	We know this is a big time at the speedway.	We know this is a bit time at the speedway.	190478160	1477067453724	1477067453823	p	80
371977	4009729	We know this is a big time at the speedway.	We know this is a bit time at the speedway.	190478236	1477067453801	1477067453906	e	69
371977	4009729	We know this is a big time at the speedway.	We know this is a bit time at the speedway.	190478239	1477067453986	1477067454127	e	69
371977	4009729	We know this is a big time at the speedway.	We know this is a bit time at the speedway.	190478241	1477067454177	1477067454290	d	68
371977	4009729	We know this is a big time at the speedway.	We know this is a bit time at the speedway.	190478249	1477067454510	1477067454652	w	87
371977	4009729	We know this is a big time at the speedway.	We know this is a bit time at the speedway.	190478260	1477067454614	1477067454723	a	65
371977	4009729	We know this is a big time at the speedway.	We know this is a bit time at the speedway.	190478271	1477067454803	1477067454923	y	89
371977	4009729	We know this is a big time at the speedway.	We know this is a bit time at the speedway.	190478293	1477067455314	1477067455396	.	190
371977	4009745	Tax gave us the same feedback.	Tax gave us the same feedback.	190478444	1477067456946	1477067457046	CAPS_LOCK	20
371977	4009745	Tax gave us the same feedback.	Tax gave us the same feedback.	190478449	1477067457096	1477067457168	T	84
371977	4009745	Tax gave us the same feedback.	Tax gave us the same feedback.	190478459	1477067457208	1477067457338	CAPS_LOCK	20
371977	4009745	Tax gave us the same feedback.	Tax gave us the same feedback.	190478466	1477067457420	1477067457499	a	65
371977	4009745	Tax gave us the same feedback.	Tax gave us the same feedback.	190478471	1477067457759	1477067457821	c	67
371977	4009745	Tax gave us the same feedback.	Tax gave us the same feedback.	190478476	1477067458021	1477067458109	BKSP	8
371977	4009745	Tax gave us the same feedback.	Tax gave us the same feedback.	190478480	1477067458119	1477067458229	x	88
371977	4009745	Tax gave us the same feedback.	Tax gave us the same feedback.	190478496	1477067458219	1477067458320	 	32
371977	4009745	Tax gave us the same feedback.	Tax gave us the same feedback.	190478502	1477067458441	1477067458533	g	71
371977	4009745	Tax gave us the same feedback.	Tax gave us the same feedback.	190478508	1477067458543	1477067458676	a	65
371977	4009745	Tax gave us the same feedback.	Tax gave us the same feedback.	190478515	1477067458686	1477067458794	v	86
371977	4009745	Tax gave us the same feedback.	Tax gave us the same feedback.	190478520	1477067458756	1477067458903	e	69
371977	4009745	Tax gave us the same feedback.	Tax gave us the same feedback.	190478599	1477067458873	1477067458973	 	32
371977	4009745	Tax gave us the same feedback.	Tax gave us the same feedback.	190478606	1477067459334	1477067459436	u	85
371977	4009745	Tax gave us the same feedback.	Tax gave us the same feedback.	190478616	1477067459438	1477067459606	s	83
371977	4009745	Tax gave us the same feedback.	Tax gave us the same feedback.	190478625	1477067459573	1477067459679	 	32
371977	4009745	Tax gave us the same feedback.	Tax gave us the same feedback.	190478631	1477067459949	1477067460053	t	84
371977	4009745	Tax gave us the same feedback.	Tax gave us the same feedback.	190478636	1477067460063	1477067460154	h	72
371977	4009745	Tax gave us the same feedback.	Tax gave us the same feedback.	190478698	1477067460123	1477067460257	e	69
371977	4009745	Tax gave us the same feedback.	Tax gave us the same feedback.	190478700	1477067460247	1477067460339	 	32
371977	4009745	Tax gave us the same feedback.	Tax gave us the same feedback.	190478703	1477067460419	1477067460544	s	83
371977	4009745	Tax gave us the same feedback.	Tax gave us the same feedback.	190478707	1477067460509	1477067460596	a	65
371977	4009745	Tax gave us the same feedback.	Tax gave us the same feedback.	190478714	1477067460598	1477067460763	m	77
371977	4009745	Tax gave us the same feedback.	Tax gave us the same feedback.	190478720	1477067460743	1477067460870	e	69
371977	4009745	Tax gave us the same feedback.	Tax gave us the same feedback.	190478726	1477067460990	1477067461086	 	32
371977	4009745	Tax gave us the same feedback.	Tax gave us the same feedback.	190478731	1477067461196	1477067461326	f	70
371977	4009745	Tax gave us the same feedback.	Tax gave us the same feedback.	190478735	1477067461286	1477067461396	e	69
371977	4009745	Tax gave us the same feedback.	Tax gave us the same feedback.	190478738	1477067461446	1477067461597	e	69
371977	4009745	Tax gave us the same feedback.	Tax gave us the same feedback.	190478843	1477067461563	1477067461697	d	68
371977	4009745	Tax gave us the same feedback.	Tax gave us the same feedback.	190478845	1477067461879	1477067461961	b	66
371977	4009745	Tax gave us the same feedback.	Tax gave us the same feedback.	190478849	1477067462001	1477067462164	a	65
371977	4009745	Tax gave us the same feedback.	Tax gave us the same feedback.	190478855	1477067462254	1477067462333	k	75
371977	4009745	Tax gave us the same feedback.	Tax gave us the same feedback.	190478862	1477067462484	1477067462553	BKSP	8
371977	4009745	Tax gave us the same feedback.	Tax gave us the same feedback.	190478869	1477067462947	1477067462997	c	67
371977	4009745	Tax gave us the same feedback.	Tax gave us the same feedback.	190478875	1477067463016	1477067463108	k	75
371977	4009745	Tax gave us the same feedback.	Tax gave us the same feedback.	190478900	1477067463379	1477067463481	.	190
371977	4009765	The delegation is to visit a metal works.	The delegation is to visit a metal works	190479079	1477067465083	1477067465189	CAPS_LOCK	20
371977	4009765	The delegation is to visit a metal works.	The delegation is to visit a metal works	190479084	1477067465219	1477067465299	T	84
371977	4009765	The delegation is to visit a metal works.	The delegation is to visit a metal works	190479089	1477067465349	1477067465449	CAPS_LOCK	20
371977	4009765	The delegation is to visit a metal works.	The delegation is to visit a metal works	190479094	1477067465629	1477067465719	e	69
371977	4009765	The delegation is to visit a metal works.	The delegation is to visit a metal works	190479098	1477067465719	1477067465789	h	72
371977	4009765	The delegation is to visit a metal works.	The delegation is to visit a metal works	190479103	1477067466059	1477067466131	BKSP	8
371977	4009765	The delegation is to visit a metal works.	The delegation is to visit a metal works	190479109	1477067466191	1477067466272	BKSP	8
371977	4009765	The delegation is to visit a metal works.	The delegation is to visit a metal works	190479117	1477067466362	1477067466442	h	72
371977	4009765	The delegation is to visit a metal works.	The delegation is to visit a metal works	190479124	1477067466442	1477067466589	e	69
371977	4009765	The delegation is to visit a metal works.	The delegation is to visit a metal works	190479176	1477067466562	1477067466683	 	32
371977	4009765	The delegation is to visit a metal works.	The delegation is to visit a metal works	190479180	1477067466726	1477067466872	d	68
371977	4009765	The delegation is to visit a metal works.	The delegation is to visit a metal works	190479187	1477067466816	1477067466962	e	69
371977	4009765	The delegation is to visit a metal works.	The delegation is to visit a metal works	190479193	1477067467023	1477067467125	l	76
371977	4009765	The delegation is to visit a metal works.	The delegation is to visit a metal works	190479200	1477067467109	1477067467251	e	69
371977	4009765	The delegation is to visit a metal works.	The delegation is to visit a metal works	190479205	1477067467422	1477067467489	g	71
371977	4009765	The delegation is to visit a metal works.	The delegation is to visit a metal works	190479248	1477067467711	1477067467833	a	65
371977	4009765	The delegation is to visit a metal works.	The delegation is to visit a metal works	190479252	1477067467893	1477067468002	t	84
371977	4009765	The delegation is to visit a metal works.	The delegation is to visit a metal works	190479256	1477067468042	1477067468116	i	73
371977	4009765	The delegation is to visit a metal works.	The delegation is to visit a metal works	190479261	1477067468216	1477067468292	o	79
371977	4009765	The delegation is to visit a metal works.	The delegation is to visit a metal works	190479267	1477067468422	1477067468494	n	78
371977	4009765	The delegation is to visit a metal works.	The delegation is to visit a metal works	190479334	1477067468554	1477067468692	 	32
371977	4009765	The delegation is to visit a metal works.	The delegation is to visit a metal works	190479337	1477067469024	1477067469106	i	73
371977	4009765	The delegation is to visit a metal works.	The delegation is to visit a metal works	190479341	1477067469096	1477067469254	s	83
371977	4009765	The delegation is to visit a metal works.	The delegation is to visit a metal works	190479345	1477067469216	1477067469302	 	32
371977	4009765	The delegation is to visit a metal works.	The delegation is to visit a metal works	190479349	1477067469332	1477067469453	t	84
371977	4009765	The delegation is to visit a metal works.	The delegation is to visit a metal works	190479370	1477067469416	1477067469512	o	79
371977	4009765	The delegation is to visit a metal works.	The delegation is to visit a metal works	190479375	1477067469512	1477067469629	 	32
371977	4009765	The delegation is to visit a metal works.	The delegation is to visit a metal works	190479383	1477067469739	1477067469846	v	86
371977	4009765	The delegation is to visit a metal works.	The delegation is to visit a metal works	190479393	1477067469836	1477067469926	i	73
371977	4009765	The delegation is to visit a metal works.	The delegation is to visit a metal works	190479402	1477067469956	1477067470086	s	83
371977	4009765	The delegation is to visit a metal works.	The delegation is to visit a metal works	190479413	1477067470096	1477067470185	i	73
371977	4009765	The delegation is to visit a metal works.	The delegation is to visit a metal works	190479477	1477067470467	1477067470599	t	84
371977	4009765	The delegation is to visit a metal works.	The delegation is to visit a metal works	190479484	1477067470619	1477067470779	 	32
371977	4009765	The delegation is to visit a metal works.	The delegation is to visit a metal works	190479488	1477067470799	1477067470988	a	65
371977	4009765	The delegation is to visit a metal works.	The delegation is to visit a metal works	190479490	1477067470956	1477067471072	 	32
371977	4009765	The delegation is to visit a metal works.	The delegation is to visit a metal works	190479492	1477067471158	1477067471262	m	77
371977	4009765	The delegation is to visit a metal works.	The delegation is to visit a metal works	190479566	1477067471272	1477067471404	e	69
371977	4009765	The delegation is to visit a metal works.	The delegation is to visit a metal works	190479568	1477067471829	1477067471936	d	68
371977	4009765	The delegation is to visit a metal works.	The delegation is to visit a metal works	190479572	1477067471896	1477067472016	a	65
371977	4009765	The delegation is to visit a metal works.	The delegation is to visit a metal works	190479576	1477067472076	1477067472156	BKSP	8
371977	4009765	The delegation is to visit a metal works.	The delegation is to visit a metal works	190479579	1477067472225	1477067472308	BKSP	8
371977	4009765	The delegation is to visit a metal works.	The delegation is to visit a metal works	190479584	1477067472318	1477067472433	t	84
371977	4009765	The delegation is to visit a metal works.	The delegation is to visit a metal works	190479676	1477067472390	1477067472537	a	65
371977	4009765	The delegation is to visit a metal works.	The delegation is to visit a metal works	190479680	1477067472508	1477067472599	l	76
371977	4009765	The delegation is to visit a metal works.	The delegation is to visit a metal works	190479686	1477067472609	1477067472759	 	32
371977	4009765	The delegation is to visit a metal works.	The delegation is to visit a metal works	190479693	1477067473286	1477067473428	w	87
371977	4009765	The delegation is to visit a metal works.	The delegation is to visit a metal works	190479699	1477067473395	1477067473502	o	79
371977	4009765	The delegation is to visit a metal works.	The delegation is to visit a metal works	190479705	1477067473512	1477067473582	r	82
371977	4009765	The delegation is to visit a metal works.	The delegation is to visit a metal works	190479772	1477067473763	1477067473879	k	75
371977	4009765	The delegation is to visit a metal works.	The delegation is to visit a metal works	190479778	1477067474100	1477067474242	s	83
