PARTICIPANT_ID	TEST_SECTION_ID	SENTENCE	USER_INPUT	KEYSTROKE_ID	PRESS_TIME	RELEASE_TIME	LETTER	KEYCODE
373020	4021114	Ibrahim sent arms and explosives by sea to the Indian west coast.	Ibrahim sent arms and explosives by sea to the Indian west coast.	191009647	1477074935648	1477074935913	SHIFT	16
373020	4021114	Ibrahim sent arms and explosives by sea to the Indian west coast.	Ibrahim sent arms and explosives by sea to the Indian west coast.	191009652	1477074935842	1477074935917	I	73
373020	4021114	Ibrahim sent arms and explosives by sea to the Indian west coast.	Ibrahim sent arms and explosives by sea to the Indian west coast.	191009657	1477074935996	1477074936050	b	66
373020	4021114	Ibrahim sent arms and explosives by sea to the Indian west coast.	Ibrahim sent arms and explosives by sea to the Indian west coast.	191009663	1477074936160	1477074936250	r	82
373020	4021114	Ibrahim sent arms and explosives by sea to the Indian west coast.	Ibrahim sent arms and explosives by sea to the Indian west coast.	191009669	1477074936300	1477074936355	a	65
373020	4021114	Ibrahim sent arms and explosives by sea to the Indian west coast.	Ibrahim sent arms and explosives by sea to the Indian west coast.	191009674	1477074936515	1477074936593	h	72
373020	4021114	Ibrahim sent arms and explosives by sea to the Indian west coast.	Ibrahim sent arms and explosives by sea to the Indian west coast.	191009695	1477074936579	1477074936654	i	73
373020	4021114	Ibrahim sent arms and explosives by sea to the Indian west coast.	Ibrahim sent arms and explosives by sea to the Indian west coast.	191009701	1477074936734	1477074936789	m	77
373020	4021114	Ibrahim sent arms and explosives by sea to the Indian west coast.	Ibrahim sent arms and explosives by sea to the Indian west coast.	191009709	1477074936806	1477074936900	 	32
373020	4021114	Ibrahim sent arms and explosives by sea to the Indian west coast.	Ibrahim sent arms and explosives by sea to the Indian west coast.	191009714	1477074936946	1477074937025	s	83
373020	4021114	Ibrahim sent arms and explosives by sea to the Indian west coast.	Ibrahim sent arms and explosives by sea to the Indian west coast.	191009716	1477074937067	1477074937137	e	69
373020	4021114	Ibrahim sent arms and explosives by sea to the Indian west coast.	Ibrahim sent arms and explosives by sea to the Indian west coast.	191009720	1477074937173	1477074937268	n	78
373020	4021114	Ibrahim sent arms and explosives by sea to the Indian west coast.	Ibrahim sent arms and explosives by sea to the Indian west coast.	191009756	1477074937269	1477074937332	t	84
373020	4021114	Ibrahim sent arms and explosives by sea to the Indian west coast.	Ibrahim sent arms and explosives by sea to the Indian west coast.	191009762	1477074937351	1477074937428	 	32
373020	4021114	Ibrahim sent arms and explosives by sea to the Indian west coast.	Ibrahim sent arms and explosives by sea to the Indian west coast.	191009768	1477074937584	1477074937651	a	65
373020	4021114	Ibrahim sent arms and explosives by sea to the Indian west coast.	Ibrahim sent arms and explosives by sea to the Indian west coast.	191009775	1477074937677	1477074937736	a	65
373020	4021114	Ibrahim sent arms and explosives by sea to the Indian west coast.	Ibrahim sent arms and explosives by sea to the Indian west coast.	191009781	1477074937843	1477074937913	r	82
373020	4021114	Ibrahim sent arms and explosives by sea to the Indian west coast.	Ibrahim sent arms and explosives by sea to the Indian west coast.	191009913	1477074937955	1477074938031	m	77
373020	4021114	Ibrahim sent arms and explosives by sea to the Indian west coast.	Ibrahim sent arms and explosives by sea to the Indian west coast.	191009918	1477074938058	1477074938117	s	83
373020	4021114	Ibrahim sent arms and explosives by sea to the Indian west coast.	Ibrahim sent arms and explosives by sea to the Indian west coast.	191009920	1477074938375	1477074938450	BKSP	8
373020	4021114	Ibrahim sent arms and explosives by sea to the Indian west coast.	Ibrahim sent arms and explosives by sea to the Indian west coast.	191009926	1477074938529	1477074938612	BKSP	8
373020	4021114	Ibrahim sent arms and explosives by sea to the Indian west coast.	Ibrahim sent arms and explosives by sea to the Indian west coast.	191009931	1477074938730	1477074938770	BKSP	8
373020	4021114	Ibrahim sent arms and explosives by sea to the Indian west coast.	Ibrahim sent arms and explosives by sea to the Indian west coast.	191009935	1477074938822	1477074938909	BKSP	8
373020	4021114	Ibrahim sent arms and explosives by sea to the Indian west coast.	Ibrahim sent arms and explosives by sea to the Indian west coast.	191009939	1477074938958	1477074939032	r	82
373020	4021114	Ibrahim sent arms and explosives by sea to the Indian west coast.	Ibrahim sent arms and explosives by sea to the Indian west coast.	191009944	1477074939048	1477074939123	m	77
373020	4021114	Ibrahim sent arms and explosives by sea to the Indian west coast.	Ibrahim sent arms and explosives by sea to the Indian west coast.	191009950	1477074939231	1477074939307	s	83
373020	4021114	Ibrahim sent arms and explosives by sea to the Indian west coast.	Ibrahim sent arms and explosives by sea to the Indian west coast.	191009956	1477074939340	1477074939406	 	32
373020	4021114	Ibrahim sent arms and explosives by sea to the Indian west coast.	Ibrahim sent arms and explosives by sea to the Indian west coast.	191009963	1477074939419	1477074939474	a	65
373020	4021114	Ibrahim sent arms and explosives by sea to the Indian west coast.	Ibrahim sent arms and explosives by sea to the Indian west coast.	191009968	1477074939496	1477074939563	n	78
373020	4021114	Ibrahim sent arms and explosives by sea to the Indian west coast.	Ibrahim sent arms and explosives by sea to the Indian west coast.	191009973	1477074939553	1477074939620	d	68
373020	4021114	Ibrahim sent arms and explosives by sea to the Indian west coast.	Ibrahim sent arms and explosives by sea to the Indian west coast.	191009975	1477074939635	1477074939732	 	32
373020	4021114	Ibrahim sent arms and explosives by sea to the Indian west coast.	Ibrahim sent arms and explosives by sea to the Indian west coast.	191010031	1477074939884	1477074939963	e	69
373020	4021114	Ibrahim sent arms and explosives by sea to the Indian west coast.	Ibrahim sent arms and explosives by sea to the Indian west coast.	191010037	1477074940046	1477074940128	x	88
373020	4021114	Ibrahim sent arms and explosives by sea to the Indian west coast.	Ibrahim sent arms and explosives by sea to the Indian west coast.	191010043	1477074940169	1477074940255	p	80
373020	4021114	Ibrahim sent arms and explosives by sea to the Indian west coast.	Ibrahim sent arms and explosives by sea to the Indian west coast.	191010048	1477074940350	1477074940412	l	76
373020	4021114	Ibrahim sent arms and explosives by sea to the Indian west coast.	Ibrahim sent arms and explosives by sea to the Indian west coast.	191010052	1477074940541	1477074940563	l	76
373020	4021114	Ibrahim sent arms and explosives by sea to the Indian west coast.	Ibrahim sent arms and explosives by sea to the Indian west coast.	191010149	1477074940978	1477074941041	BKSP	8
373020	4021114	Ibrahim sent arms and explosives by sea to the Indian west coast.	Ibrahim sent arms and explosives by sea to the Indian west coast.	191010154	1477074941161	1477074941259	o	79
373020	4021114	Ibrahim sent arms and explosives by sea to the Indian west coast.	Ibrahim sent arms and explosives by sea to the Indian west coast.	191010162	1477074941244	1477074941303	s	83
373020	4021114	Ibrahim sent arms and explosives by sea to the Indian west coast.	Ibrahim sent arms and explosives by sea to the Indian west coast.	191010164	1477074941569	1477074941647	i	73
373020	4021114	Ibrahim sent arms and explosives by sea to the Indian west coast.	Ibrahim sent arms and explosives by sea to the Indian west coast.	191010166	1477074941680	1477074941806	v	86
373020	4021114	Ibrahim sent arms and explosives by sea to the Indian west coast.	Ibrahim sent arms and explosives by sea to the Indian west coast.	191010169	1477074941807	1477074941867	e	69
373020	4021114	Ibrahim sent arms and explosives by sea to the Indian west coast.	Ibrahim sent arms and explosives by sea to the Indian west coast.	191010223	1477074941960	1477074942027	s	83
373020	4021114	Ibrahim sent arms and explosives by sea to the Indian west coast.	Ibrahim sent arms and explosives by sea to the Indian west coast.	191010230	1477074942091	1477074942175	 	32
373020	4021114	Ibrahim sent arms and explosives by sea to the Indian west coast.	Ibrahim sent arms and explosives by sea to the Indian west coast.	191010240	1477074942412	1477074942487	b	66
373020	4021114	Ibrahim sent arms and explosives by sea to the Indian west coast.	Ibrahim sent arms and explosives by sea to the Indian west coast.	191010248	1477074942519	1477074942601	y	89
373020	4021114	Ibrahim sent arms and explosives by sea to the Indian west coast.	Ibrahim sent arms and explosives by sea to the Indian west coast.	191010254	1477074942602	1477074942669	 	32
373020	4021114	Ibrahim sent arms and explosives by sea to the Indian west coast.	Ibrahim sent arms and explosives by sea to the Indian west coast.	191010300	1477074942744	1477074942811	s	83
373020	4021114	Ibrahim sent arms and explosives by sea to the Indian west coast.	Ibrahim sent arms and explosives by sea to the Indian west coast.	191010302	1477074942816	1477074942930	e	69
373020	4021114	Ibrahim sent arms and explosives by sea to the Indian west coast.	Ibrahim sent arms and explosives by sea to the Indian west coast.	191010305	1477074942901	1477074942975	a	65
373020	4021114	Ibrahim sent arms and explosives by sea to the Indian west coast.	Ibrahim sent arms and explosives by sea to the Indian west coast.	191010308	1477074943233	1477074943333	 	32
373020	4021114	Ibrahim sent arms and explosives by sea to the Indian west coast.	Ibrahim sent arms and explosives by sea to the Indian west coast.	191010313	1477074943466	1477074943537	t	84
373020	4021114	Ibrahim sent arms and explosives by sea to the Indian west coast.	Ibrahim sent arms and explosives by sea to the Indian west coast.	191010332	1477074943539	1477074943616	o	79
373020	4021114	Ibrahim sent arms and explosives by sea to the Indian west coast.	Ibrahim sent arms and explosives by sea to the Indian west coast.	191010336	1477074943611	1477074943689	 	32
373020	4021114	Ibrahim sent arms and explosives by sea to the Indian west coast.	Ibrahim sent arms and explosives by sea to the Indian west coast.	191010340	1477074943732	1477074943776	t	84
373020	4021114	Ibrahim sent arms and explosives by sea to the Indian west coast.	Ibrahim sent arms and explosives by sea to the Indian west coast.	191010346	1477074943791	1477074943874	h	72
373020	4021114	Ibrahim sent arms and explosives by sea to the Indian west coast.	Ibrahim sent arms and explosives by sea to the Indian west coast.	191010351	1477074943912	1477074943979	e	69
373020	4021114	Ibrahim sent arms and explosives by sea to the Indian west coast.	Ibrahim sent arms and explosives by sea to the Indian west coast.	191010380	1477074943997	1477074944073	 	32
373020	4021114	Ibrahim sent arms and explosives by sea to the Indian west coast.	Ibrahim sent arms and explosives by sea to the Indian west coast.	191010385	1477074944089	1477074944279	SHIFT	16
373020	4021114	Ibrahim sent arms and explosives by sea to the Indian west coast.	Ibrahim sent arms and explosives by sea to the Indian west coast.	191010390	1477074944232	1477074944279	I	73
373020	4021114	Ibrahim sent arms and explosives by sea to the Indian west coast.	Ibrahim sent arms and explosives by sea to the Indian west coast.	191010395	1477074944336	1477074944406	n	78
373020	4021114	Ibrahim sent arms and explosives by sea to the Indian west coast.	Ibrahim sent arms and explosives by sea to the Indian west coast.	191010480	1477074944457	1477074944541	i	68
373020	4021114	Ibrahim sent arms and explosives by sea to the Indian west coast.	Ibrahim sent arms and explosives by sea to the Indian west coast.	191010488	1477074944526	1477074944600	a	65
373020	4021114	Ibrahim sent arms and explosives by sea to the Indian west coast.	Ibrahim sent arms and explosives by sea to the Indian west coast.	191010494	1477074945175	1477074945250	n	78
373020	4021114	Ibrahim sent arms and explosives by sea to the Indian west coast.	Ibrahim sent arms and explosives by sea to the Indian west coast.	191010501	1477074945302	1477074945390	 	32
373020	4021114	Ibrahim sent arms and explosives by sea to the Indian west coast.	Ibrahim sent arms and explosives by sea to the Indian west coast.	191010512	1477074945466	1477074945545	w	87
373020	4021114	Ibrahim sent arms and explosives by sea to the Indian west coast.	Ibrahim sent arms and explosives by sea to the Indian west coast.	191010519	1477074945613	1477074945676	e	69
373020	4021114	Ibrahim sent arms and explosives by sea to the Indian west coast.	Ibrahim sent arms and explosives by sea to the Indian west coast.	191010540	1477074945737	1477074945800	s	83
373020	4021114	Ibrahim sent arms and explosives by sea to the Indian west coast.	Ibrahim sent arms and explosives by sea to the Indian west coast.	191010543	1477074945814	1477074945888	t	84
373020	4021114	Ibrahim sent arms and explosives by sea to the Indian west coast.	Ibrahim sent arms and explosives by sea to the Indian west coast.	191010549	1477074945897	1477074945987	 	32
373020	4021114	Ibrahim sent arms and explosives by sea to the Indian west coast.	Ibrahim sent arms and explosives by sea to the Indian west coast.	191010555	1477074946079	1477074946165	c	67
373020	4021114	Ibrahim sent arms and explosives by sea to the Indian west coast.	Ibrahim sent arms and explosives by sea to the Indian west coast.	191010563	1477074946174	1477074946261	o	79
373020	4021114	Ibrahim sent arms and explosives by sea to the Indian west coast.	Ibrahim sent arms and explosives by sea to the Indian west coast.	191010641	1477074946258	1477074946329	a	65
373020	4021114	Ibrahim sent arms and explosives by sea to the Indian west coast.	Ibrahim sent arms and explosives by sea to the Indian west coast.	191010647	1477074946398	1477074946477	s	83
373020	4021114	Ibrahim sent arms and explosives by sea to the Indian west coast.	Ibrahim sent arms and explosives by sea to the Indian west coast.	191010657	1477074946507	1477074946577	t	84
373020	4021114	Ibrahim sent arms and explosives by sea to the Indian west coast.	Ibrahim sent arms and explosives by sea to the Indian west coast.	191010663	1477074946638	1477074946730	.	190
373020	4021148	Name just one person for each color.	Name just one person for each color.	191011036	1477074950613	1477074950768	SHIFT	16
373020	4021148	Name just one person for each color.	Name just one person for each color.	191011040	1477074950751	1477074950817	N	78
373020	4021148	Name just one person for each color.	Name just one person for each color.	191011046	1477074950850	1477074950916	a	65
373020	4021148	Name just one person for each color.	Name just one person for each color.	191011051	1477074950930	1477074950984	m	77
373020	4021148	Name just one person for each color.	Name just one person for each color.	191011053	1477074951005	1477074951077	e	69
373020	4021148	Name just one person for each color.	Name just one person for each color.	191011056	1477074951104	1477074951230	 	32
373020	4021148	Name just one person for each color.	Name just one person for each color.	191011065	1477074951237	1477074951317	j	74
373020	4021148	Name just one person for each color.	Name just one person for each color.	191011071	1477074951422	1477074951484	u	85
373020	4021148	Name just one person for each color.	Name just one person for each color.	191011076	1477074951500	1477074951583	s	83
373020	4021148	Name just one person for each color.	Name just one person for each color.	191011079	1477074951588	1477074951654	t	84
373020	4021148	Name just one person for each color.	Name just one person for each color.	191011121	1477074951652	1477074951730	 	32
373020	4021148	Name just one person for each color.	Name just one person for each color.	191011124	1477074951800	1477074951867	o	79
373020	4021148	Name just one person for each color.	Name just one person for each color.	191011127	1477074951903	1477074951985	n	78
373020	4021148	Name just one person for each color.	Name just one person for each color.	191011130	1477074951975	1477074952038	e	69
373020	4021148	Name just one person for each color.	Name just one person for each color.	191011131	1477074952061	1477074952128	 	32
373020	4021148	Name just one person for each color.	Name just one person for each color.	191011132	1477074952276	1477074952368	p	80
373020	4021148	Name just one person for each color.	Name just one person for each color.	191011142	1477074952381	1477074952455	e	69
373020	4021148	Name just one person for each color.	Name just one person for each color.	191011149	1477074952441	1477074952512	r	82
373020	4021148	Name just one person for each color.	Name just one person for each color.	191011155	1477074952541	1477074952608	s	83
373020	4021148	Name just one person for each color.	Name just one person for each color.	191011160	1477074952641	1477074952734	o	79
373020	4021148	Name just one person for each color.	Name just one person for each color.	191011165	1477074952735	1477074952818	n	78
373020	4021148	Name just one person for each color.	Name just one person for each color.	191011209	1477074952776	1477074952875	 	32
373020	4021148	Name just one person for each color.	Name just one person for each color.	191011214	1477074952938	1477074953021	f	70
373020	4021148	Name just one person for each color.	Name just one person for each color.	191011221	1477074953049	1477074953115	o	79
373020	4021148	Name just one person for each color.	Name just one person for each color.	191011226	1477074953140	1477074953247	r	82
373020	4021148	Name just one person for each color.	Name just one person for each color.	191011228	1477074953390	1477074953492	 	32
373020	4021148	Name just one person for each color.	Name just one person for each color.	191011236	1477074953511	1477074953605	e	69
373020	4021148	Name just one person for each color.	Name just one person for each color.	191011278	1477074953591	1477074953662	a	65
373020	4021148	Name just one person for each color.	Name just one person for each color.	191011282	1477074953756	1477074953838	c	67
373020	4021148	Name just one person for each color.	Name just one person for each color.	191011284	1477074953840	1477074953922	h	72
373020	4021148	Name just one person for each color.	Name just one person for each color.	191011290	1477074953905	1477074953955	 	32
373020	4021148	Name just one person for each color.	Name just one person for each color.	191011297	1477074954157	1477074954263	c	67
373020	4021148	Name just one person for each color.	Name just one person for each color.	191011303	1477074954311	1477074954394	o	79
373020	4021148	Name just one person for each color.	Name just one person for each color.	191011336	1477074954478	1477074954537	l	76
373020	4021148	Name just one person for each color.	Name just one person for each color.	191011341	1477074954612	1477074954686	o	79
373020	4021148	Name just one person for each color.	Name just one person for each color.	191011347	1477074954672	1477074954733	r	82
373020	4021148	Name just one person for each color.	Name just one person for each color.	191011351	1477074954802	1477074954873	.	190
373020	4021164	I will need to get you set up in their system prior to Tuesday.	I will need to get you set up in their system prior to Tuesday.	191011926	1477074960883	1477074961099	SHIFT	16
373020	4021164	I will need to get you set up in their system prior to Tuesday.	I will need to get you set up in their system prior to Tuesday.	191011921	1477074961022	1477074961091	I	73
373020	4021164	I will need to get you set up in their system prior to Tuesday.	I will need to get you set up in their system prior to Tuesday.	191011934	1477074961176	1477074961282	 	32
373020	4021164	I will need to get you set up in their system prior to Tuesday.	I will need to get you set up in their system prior to Tuesday.	191011939	1477074961296	1477074961359	w	87
373020	4021164	I will need to get you set up in their system prior to Tuesday.	I will need to get you set up in their system prior to Tuesday.	191011946	1477074961380	1477074961451	i	73
373020	4021164	I will need to get you set up in their system prior to Tuesday.	I will need to get you set up in their system prior to Tuesday.	191011951	1477074961563	1477074961618	l	76
373020	4021164	I will need to get you set up in their system prior to Tuesday.	I will need to get you set up in their system prior to Tuesday.	191011995	1477074961736	1477074961800	l	76
373020	4021164	I will need to get you set up in their system prior to Tuesday.	I will need to get you set up in their system prior to Tuesday.	191012001	1477074961799	1477074961861	 	32
373020	4021164	I will need to get you set up in their system prior to Tuesday.	I will need to get you set up in their system prior to Tuesday.	191012010	1477074961893	1477074961967	n	78
373020	4021164	I will need to get you set up in their system prior to Tuesday.	I will need to get you set up in their system prior to Tuesday.	191012018	1477074961977	1477074962044	e	69
373020	4021164	I will need to get you set up in their system prior to Tuesday.	I will need to get you set up in their system prior to Tuesday.	191012025	1477074962237	1477074962288	e	69
373020	4021164	I will need to get you set up in their system prior to Tuesday.	I will need to get you set up in their system prior to Tuesday.	191012049	1477074962379	1477074962449	d	68
373020	4021164	I will need to get you set up in their system prior to Tuesday.	I will need to get you set up in their system prior to Tuesday.	191012058	1477074962486	1477074962561	 	32
373020	4021164	I will need to get you set up in their system prior to Tuesday.	I will need to get you set up in their system prior to Tuesday.	191012069	1477074962582	1477074962636	t	84
373020	4021164	I will need to get you set up in their system prior to Tuesday.	I will need to get you set up in their system prior to Tuesday.	191012075	1477074962642	1477074962735	o	79
373020	4021164	I will need to get you set up in their system prior to Tuesday.	I will need to get you set up in their system prior to Tuesday.	191012116	1477074962687	1477074962769	 	32
373020	4021164	I will need to get you set up in their system prior to Tuesday.	I will need to get you set up in their system prior to Tuesday.	191012125	1477074962833	1477074962884	g	71
373020	4021164	I will need to get you set up in their system prior to Tuesday.	I will need to get you set up in their system prior to Tuesday.	191012137	1477074962911	1477074962982	e	69
373020	4021164	I will need to get you set up in their system prior to Tuesday.	I will need to get you set up in their system prior to Tuesday.	191012143	1477074963005	1477074963065	t	84
373020	4021164	I will need to get you set up in their system prior to Tuesday.	I will need to get you set up in their system prior to Tuesday.	191012152	1477074963094	1477074963173	 	32
373020	4021164	I will need to get you set up in their system prior to Tuesday.	I will need to get you set up in their system prior to Tuesday.	191012158	1477074963255	1477074963329	y	89
373020	4021164	I will need to get you set up in their system prior to Tuesday.	I will need to get you set up in their system prior to Tuesday.	191012221	1477074963363	1477074963453	o	79
373020	4021164	I will need to get you set up in their system prior to Tuesday.	I will need to get you set up in their system prior to Tuesday.	191012227	1477074963451	1477074963529	u	85
373020	4021164	I will need to get you set up in their system prior to Tuesday.	I will need to get you set up in their system prior to Tuesday.	191012234	1477074963531	1477074963606	 	32
373020	4021164	I will need to get you set up in their system prior to Tuesday.	I will need to get you set up in their system prior to Tuesday.	191012238	1477074963998	1477074964096	s	83
373020	4021164	I will need to get you set up in their system prior to Tuesday.	I will need to get you set up in their system prior to Tuesday.	191012281	1477074964083	1477074964146	e	69
373020	4021164	I will need to get you set up in their system prior to Tuesday.	I will need to get you set up in their system prior to Tuesday.	191012283	1477074964175	1477074964254	t	84
373020	4021164	I will need to get you set up in their system prior to Tuesday.	I will need to get you set up in their system prior to Tuesday.	191012289	1477074964302	1477074964388	 	32
373020	4021164	I will need to get you set up in their system prior to Tuesday.	I will need to get you set up in their system prior to Tuesday.	191012294	1477074964453	1477074964532	u	85
373020	4021164	I will need to get you set up in their system prior to Tuesday.	I will need to get you set up in their system prior to Tuesday.	191012301	1477074964556	1477074964650	p	80
373020	4021164	I will need to get you set up in their system prior to Tuesday.	I will need to get you set up in their system prior to Tuesday.	191012307	1477074964660	1477074964730	 	32
373020	4021164	I will need to get you set up in their system prior to Tuesday.	I will need to get you set up in their system prior to Tuesday.	191012337	1477074964793	1477074964852	i	73
373020	4021164	I will need to get you set up in their system prior to Tuesday.	I will need to get you set up in their system prior to Tuesday.	191012346	1477074964910	1477074964995	n	78
373020	4021164	I will need to get you set up in their system prior to Tuesday.	I will need to get you set up in their system prior to Tuesday.	191012355	1477074964947	1477074965029	 	32
373020	4021164	I will need to get you set up in their system prior to Tuesday.	I will need to get you set up in their system prior to Tuesday.	191012363	1477074965183	1477074965245	t	84
373020	4021164	I will need to get you set up in their system prior to Tuesday.	I will need to get you set up in their system prior to Tuesday.	191012370	1477074965271	1477074965338	h	72
373020	4021164	I will need to get you set up in their system prior to Tuesday.	I will need to get you set up in their system prior to Tuesday.	191012396	1477074965352	1477074965435	e	69
373020	4021164	I will need to get you set up in their system prior to Tuesday.	I will need to get you set up in their system prior to Tuesday.	191012401	1477074965522	1477074965581	i	73
373020	4021164	I will need to get you set up in their system prior to Tuesday.	I will need to get you set up in their system prior to Tuesday.	191012409	1477074965602	1477074965665	r	82
373020	4021164	I will need to get you set up in their system prior to Tuesday.	I will need to get you set up in their system prior to Tuesday.	191012416	1477074965688	1477074965756	 	32
373020	4021164	I will need to get you set up in their system prior to Tuesday.	I will need to get you set up in their system prior to Tuesday.	191012423	1477074965855	1477074965935	s	83
373020	4021164	I will need to get you set up in their system prior to Tuesday.	I will need to get you set up in their system prior to Tuesday.	191012469	1477074966020	1477074966065	y	89
373020	4021164	I will need to get you set up in their system prior to Tuesday.	I will need to get you set up in their system prior to Tuesday.	191012475	1477074966132	1477074966233	s	83
373020	4021164	I will need to get you set up in their system prior to Tuesday.	I will need to get you set up in their system prior to Tuesday.	191012482	1477074966292	1477074966364	t	84
373020	4021164	I will need to get you set up in their system prior to Tuesday.	I will need to get you set up in their system prior to Tuesday.	191012488	1477074966361	1477074966440	e	69
373020	4021164	I will need to get you set up in their system prior to Tuesday.	I will need to get you set up in their system prior to Tuesday.	191012496	1477074966516	1477074966595	m	77
373020	4021164	I will need to get you set up in their system prior to Tuesday.	I will need to get you set up in their system prior to Tuesday.	191012527	1477074966667	1477074966753	 	32
373020	4021164	I will need to get you set up in their system prior to Tuesday.	I will need to get you set up in their system prior to Tuesday.	191012530	1477074966916	1477074966991	p	80
373020	4021164	I will need to get you set up in their system prior to Tuesday.	I will need to get you set up in their system prior to Tuesday.	191012533	1477074967065	1477074967132	r	82
373020	4021164	I will need to get you set up in their system prior to Tuesday.	I will need to get you set up in their system prior to Tuesday.	191012541	1477074967166	1477074967248	i	73
373020	4021164	I will need to get you set up in their system prior to Tuesday.	I will need to get you set up in their system prior to Tuesday.	191012548	1477074967262	1477074967349	o	79
373020	4021164	I will need to get you set up in their system prior to Tuesday.	I will need to get you set up in their system prior to Tuesday.	191012595	1477074967403	1477074967478	r	82
373020	4021164	I will need to get you set up in their system prior to Tuesday.	I will need to get you set up in their system prior to Tuesday.	191012599	1477074967556	1477074967635	 	32
373020	4021164	I will need to get you set up in their system prior to Tuesday.	I will need to get you set up in their system prior to Tuesday.	191012602	1477074967890	1477074967944	t	84
373020	4021164	I will need to get you set up in their system prior to Tuesday.	I will need to get you set up in their system prior to Tuesday.	191012606	1477074967954	1477074968028	o	79
373020	4021164	I will need to get you set up in their system prior to Tuesday.	I will need to get you set up in their system prior to Tuesday.	191012749	1477074968009	1477074968117	 	32
373020	4021164	I will need to get you set up in their system prior to Tuesday.	I will need to get you set up in their system prior to Tuesday.	191012762	1477074968233	1477074968554	SHIFT	16
373020	4021164	I will need to get you set up in their system prior to Tuesday.	I will need to get you set up in their system prior to Tuesday.	191012755	1477074968419	1477074968509	T	84
373020	4021164	I will need to get you set up in their system prior to Tuesday.	I will need to get you set up in their system prior to Tuesday.	191012769	1477074968649	1477074968734	u	85
373020	4021164	I will need to get you set up in their system prior to Tuesday.	I will need to get you set up in their system prior to Tuesday.	191012775	1477074968803	1477074968869	s	83
373020	4021164	I will need to get you set up in their system prior to Tuesday.	I will need to get you set up in their system prior to Tuesday.	191012781	1477074968855	1477074968918	e	69
373020	4021164	I will need to get you set up in their system prior to Tuesday.	I will need to get you set up in their system prior to Tuesday.	191012785	1477074969116	1477074969232	BKSP	8
373020	4021164	I will need to get you set up in their system prior to Tuesday.	I will need to get you set up in their system prior to Tuesday.	191012788	1477074969442	1477074969497	BKSP	8
373020	4021164	I will need to get you set up in their system prior to Tuesday.	I will need to get you set up in their system prior to Tuesday.	191012793	1477074969578	1477074969637	e	69
373020	4021164	I will need to get you set up in their system prior to Tuesday.	I will need to get you set up in their system prior to Tuesday.	191012824	1477074969851	1477074969930	s	83
373020	4021164	I will need to get you set up in their system prior to Tuesday.	I will need to get you set up in their system prior to Tuesday.	191012832	1477074970002	1477074970082	d	68
373020	4021164	I will need to get you set up in their system prior to Tuesday.	I will need to get you set up in their system prior to Tuesday.	191012839	1477074970056	1477074970135	a	65
373020	4021164	I will need to get you set up in their system prior to Tuesday.	I will need to get you set up in their system prior to Tuesday.	191012846	1477074970170	1477074970264	y	89
373020	4021164	I will need to get you set up in their system prior to Tuesday.	I will need to get you set up in their system prior to Tuesday.	191012851	1477074970387	1477074970486	.	190
373020	4021189	Sheila please talk to Avashe.	Sheila please talk to Avashe.	191013189	1477074973538	1477074973815	SHIFT	16
373020	4021189	Sheila please talk to Avashe.	Sheila please talk to Avashe.	191013183	1477074973729	1477074973799	S	83
373020	4021189	Sheila please talk to Avashe.	Sheila please talk to Avashe.	191013195	1477074974002	1477074974085	h	72
373020	4021189	Sheila please talk to Avashe.	Sheila please talk to Avashe.	191013201	1477074974123	1477074974332	e	69
373020	4021189	Sheila please talk to Avashe.	Sheila please talk to Avashe.	191013207	1477074974370	1477074974441	l	76
373020	4021189	Sheila please talk to Avashe.	Sheila please talk to Avashe.	191013259	1477074974571	1477074974636	a	65
373020	4021189	Sheila please talk to Avashe.	Sheila please talk to Avashe.	191013262	1477074974662	1477074974757	 	32
373020	4021189	Sheila please talk to Avashe.	Sheila please talk to Avashe.	191013269	1477074974842	1477074974925	p	80
373020	4021189	Sheila please talk to Avashe.	Sheila please talk to Avashe.	191013272	1477074975014	1477074975088	l	76
373020	4021189	Sheila please talk to Avashe.	Sheila please talk to Avashe.	191013299	1477074975078	1477074975160	e	69
373020	4021189	Sheila please talk to Avashe.	Sheila please talk to Avashe.	191013306	1477074975138	1477074975232	a	65
373020	4021189	Sheila please talk to Avashe.	Sheila please talk to Avashe.	191013313	1477074975261	1477074975355	s	83
373020	4021189	Sheila please talk to Avashe.	Sheila please talk to Avashe.	191013320	1477074975341	1477074975423	e	69
373020	4021189	Sheila please talk to Avashe.	Sheila please talk to Avashe.	191013328	1477074975445	1477074975544	 	32
373020	4021189	Sheila please talk to Avashe.	Sheila please talk to Avashe.	191013333	1477074975650	1477074975731	t	84
373020	4021189	Sheila please talk to Avashe.	Sheila please talk to Avashe.	191013350	1477074975741	1477074975812	a	65
373020	4021189	Sheila please talk to Avashe.	Sheila please talk to Avashe.	191013353	1477074975855	1477074975936	l	76
373020	4021189	Sheila please talk to Avashe.	Sheila please talk to Avashe.	191013358	1477074975989	1477074976075	k	75
373020	4021189	Sheila please talk to Avashe.	Sheila please talk to Avashe.	191013364	1477074976077	1477074976156	 	32
373020	4021189	Sheila please talk to Avashe.	Sheila please talk to Avashe.	191013367	1477074976235	1477074976259	o	84
373020	4021189	Sheila please talk to Avashe.	Sheila please talk to Avashe.	191013440	1477074976331	1477074976398	 	32
373020	4021189	Sheila please talk to Avashe.	Sheila please talk to Avashe.	191013451	1477074976474	1477074976737	SHIFT	16
373020	4021189	Sheila please talk to Avashe.	Sheila please talk to Avashe.	191013446	1477074976611	1477074976690	A	65
373020	4021189	Sheila please talk to Avashe.	Sheila please talk to Avashe.	191013457	1477074976949	1477074977044	v	86
373020	4021189	Sheila please talk to Avashe.	Sheila please talk to Avashe.	191013462	1477074977067	1477074977146	a	65
373020	4021189	Sheila please talk to Avashe.	Sheila please talk to Avashe.	191013466	1477074977255	1477074977322	s	83
373020	4021189	Sheila please talk to Avashe.	Sheila please talk to Avashe.	191013487	1477074977348	1477074977431	h	72
373020	4021189	Sheila please talk to Avashe.	Sheila please talk to Avashe.	191013492	1477074977444	1477074977498	e	69
373020	4021189	Sheila please talk to Avashe.	Sheila please talk to Avashe.	191013501	1477074977595	1477074977733	.	190
373020	4021204	Give it some time.	Give it some time.	191013779	1477074979795	1477074980096	SHIFT	16
373020	4021204	Give it some time.	Give it some time.	191013777	1477074979982	1477074980075	F	70
373020	4021204	Give it some time.	Give it some time.	191013795	1477074980235	1477074980277	v	86
373020	4021204	Give it some time.	Give it some time.	191013803	1477074980283	1477074980354	e	69
373020	4021204	Give it some time.	Give it some time.	191013813	1477074980378	1477074980503	 	32
373020	4021204	Give it some time.	Give it some time.	191013822	1477074980877	1477074981439	BKSP	8
373020	4021204	Give it some time.	Give it some time.	191013833	1477074981451	1477074981643	SHIFT	16
373020	4021204	Give it some time.	Give it some time.	191013831	1477074981537	1477074981630	G	71
373020	4021204	Give it some time.	Give it some time.	191013840	1477074981753	1477074981827	i	73
373020	4021204	Give it some time.	Give it some time.	191013850	1477074981829	1477074981895	v	86
373020	4021204	Give it some time.	Give it some time.	191013859	1477074981881	1477074981955	e	69
373020	4021204	Give it some time.	Give it some time.	191013862	1477074981953	1477074982043	 	32
373020	4021204	Give it some time.	Give it some time.	191013871	1477074982090	1477074982155	i	73
373020	4021204	Give it some time.	Give it some time.	191013965	1477074982233	1477074982293	t	84
373020	4021204	Give it some time.	Give it some time.	191013968	1477074982320	1477074982403	 	32
373020	4021204	Give it some time.	Give it some time.	191013971	1477074982587	1477074982658	o	79
373020	4021204	Give it some time.	Give it some time.	191013974	1477074982957	1477074983044	BKSP	8
373020	4021204	Give it some time.	Give it some time.	191013978	1477074983079	1477074983146	s	83
373020	4021204	Give it some time.	Give it some time.	191013981	1477074983183	1477074983262	o	79
373020	4021204	Give it some time.	Give it some time.	191013988	1477074983309	1477074983391	m	77
373020	4021204	Give it some time.	Give it some time.	191013991	1477074983369	1477074983440	e	69
373020	4021204	Give it some time.	Give it some time.	191013997	1477074983514	1477074983625	 	32
373020	4021204	Give it some time.	Give it some time.	191014004	1477074983666	1477074983744	t	84
373020	4021204	Give it some time.	Give it some time.	191014007	1477074983750	1477074983807	i	73
373020	4021204	Give it some time.	Give it some time.	191014038	1477074983848	1477074983930	m	77
373020	4021204	Give it some time.	Give it some time.	191014043	1477074983912	1477074983975	e	69
373020	4021204	Give it some time.	Give it some time.	191014048	1477074984009	1477074984109	.	190
373020	4021220	Washington was not moving toward a unilateral lifting of the embargo.	Washington was not moving toward a unilateral lifting of the embargo.	191014805	1477074991681	1477074992189	SHIFT	16
373020	4021220	Washington was not moving toward a unilateral lifting of the embargo.	Washington was not moving toward a unilateral lifting of the embargo.	191014808	1477074992108	1477074992230	W	87
373020	4021220	Washington was not moving toward a unilateral lifting of the embargo.	Washington was not moving toward a unilateral lifting of the embargo.	191014812	1477074992282	1477074992358	a	65
373020	4021220	Washington was not moving toward a unilateral lifting of the embargo.	Washington was not moving toward a unilateral lifting of the embargo.	191014813	1477074992351	1477074992450	s	83
373020	4021220	Washington was not moving toward a unilateral lifting of the embargo.	Washington was not moving toward a unilateral lifting of the embargo.	191014816	1477074992546	1477074992649	h	72
373020	4021220	Washington was not moving toward a unilateral lifting of the embargo.	Washington was not moving toward a unilateral lifting of the embargo.	191014821	1477074992838	1477074992897	n	78
373020	4021220	Washington was not moving toward a unilateral lifting of the embargo.	Washington was not moving toward a unilateral lifting of the embargo.	191014875	1477074993252	1477074993335	BKSP	8
373020	4021220	Washington was not moving toward a unilateral lifting of the embargo.	Washington was not moving toward a unilateral lifting of the embargo.	191014880	1477074993462	1477074993517	i	73
373020	4021220	Washington was not moving toward a unilateral lifting of the embargo.	Washington was not moving toward a unilateral lifting of the embargo.	191014887	1477074993571	1477074993646	n	78
373020	4021220	Washington was not moving toward a unilateral lifting of the embargo.	Washington was not moving toward a unilateral lifting of the embargo.	191014897	1477074993662	1477074993735	g	71
373020	4021220	Washington was not moving toward a unilateral lifting of the embargo.	Washington was not moving toward a unilateral lifting of the embargo.	191014903	1477074993822	1477074993887	t	84
373020	4021220	Washington was not moving toward a unilateral lifting of the embargo.	Washington was not moving toward a unilateral lifting of the embargo.	191014929	1477074993881	1477074993948	o	79
373020	4021220	Washington was not moving toward a unilateral lifting of the embargo.	Washington was not moving toward a unilateral lifting of the embargo.	191014930	1477074993986	1477074994072	n	78
373020	4021220	Washington was not moving toward a unilateral lifting of the embargo.	Washington was not moving toward a unilateral lifting of the embargo.	191014931	1477074994054	1477074994149	 	32
373020	4021220	Washington was not moving toward a unilateral lifting of the embargo.	Washington was not moving toward a unilateral lifting of the embargo.	191014933	1477074994154	1477074994239	w	87
373020	4021220	Washington was not moving toward a unilateral lifting of the embargo.	Washington was not moving toward a unilateral lifting of the embargo.	191014940	1477074994232	1477074994289	a	65
373020	4021220	Washington was not moving toward a unilateral lifting of the embargo.	Washington was not moving toward a unilateral lifting of the embargo.	191014944	1477074994329	1477074994440	s	83
373020	4021220	Washington was not moving toward a unilateral lifting of the embargo.	Washington was not moving toward a unilateral lifting of the embargo.	191014991	1477074994445	1477074994536	 	32
373020	4021220	Washington was not moving toward a unilateral lifting of the embargo.	Washington was not moving toward a unilateral lifting of the embargo.	191014999	1477074994606	1477074994685	n	78
373020	4021220	Washington was not moving toward a unilateral lifting of the embargo.	Washington was not moving toward a unilateral lifting of the embargo.	191015006	1477074994736	1477074994786	o	79
373020	4021220	Washington was not moving toward a unilateral lifting of the embargo.	Washington was not moving toward a unilateral lifting of the embargo.	191015009	1477074994799	1477074994854	t	84
373020	4021220	Washington was not moving toward a unilateral lifting of the embargo.	Washington was not moving toward a unilateral lifting of the embargo.	191015011	1477074994874	1477074994953	 	32
373020	4021220	Washington was not moving toward a unilateral lifting of the embargo.	Washington was not moving toward a unilateral lifting of the embargo.	191015090	1477074995065	1477074995136	w	87
373020	4021220	Washington was not moving toward a unilateral lifting of the embargo.	Washington was not moving toward a unilateral lifting of the embargo.	191015095	1477074995390	1477074995464	BKSP	8
373020	4021220	Washington was not moving toward a unilateral lifting of the embargo.	Washington was not moving toward a unilateral lifting of the embargo.	191015097	1477074995563	1477074995665	m	77
373020	4021220	Washington was not moving toward a unilateral lifting of the embargo.	Washington was not moving toward a unilateral lifting of the embargo.	191015101	1477074995667	1477074995750	o	79
373020	4021220	Washington was not moving toward a unilateral lifting of the embargo.	Washington was not moving toward a unilateral lifting of the embargo.	191015108	1477074995954	1477074996045	v	86
373020	4021220	Washington was not moving toward a unilateral lifting of the embargo.	Washington was not moving toward a unilateral lifting of the embargo.	191015114	1477074996061	1477074996124	i	73
373020	4021220	Washington was not moving toward a unilateral lifting of the embargo.	Washington was not moving toward a unilateral lifting of the embargo.	191015158	1477074996166	1477074996240	n	78
373020	4021220	Washington was not moving toward a unilateral lifting of the embargo.	Washington was not moving toward a unilateral lifting of the embargo.	191015162	1477074996251	1477074996313	g	71
373020	4021220	Washington was not moving toward a unilateral lifting of the embargo.	Washington was not moving toward a unilateral lifting of the embargo.	191015169	1477074996330	1477074996405	 	32
373020	4021220	Washington was not moving toward a unilateral lifting of the embargo.	Washington was not moving toward a unilateral lifting of the embargo.	191015176	1477074996559	1477074996622	t	84
373020	4021220	Washington was not moving toward a unilateral lifting of the embargo.	Washington was not moving toward a unilateral lifting of the embargo.	191015182	1477074996648	1477074996742	o	79
373020	4021220	Washington was not moving toward a unilateral lifting of the embargo.	Washington was not moving toward a unilateral lifting of the embargo.	191015261	1477074996736	1477074996808	w	87
373020	4021220	Washington was not moving toward a unilateral lifting of the embargo.	Washington was not moving toward a unilateral lifting of the embargo.	191015264	1477074996894	1477074996961	a	65
373020	4021220	Washington was not moving toward a unilateral lifting of the embargo.	Washington was not moving toward a unilateral lifting of the embargo.	191015270	1477074997048	1477074997127	r	82
373020	4021220	Washington was not moving toward a unilateral lifting of the embargo.	Washington was not moving toward a unilateral lifting of the embargo.	191015281	1477074997232	1477074997280	d	68
373020	4021220	Washington was not moving toward a unilateral lifting of the embargo.	Washington was not moving toward a unilateral lifting of the embargo.	191015293	1477074997330	1477074997432	 	32
373020	4021220	Washington was not moving toward a unilateral lifting of the embargo.	Washington was not moving toward a unilateral lifting of the embargo.	191015305	1477074997556	1477074997623	 	32
373020	4021220	Washington was not moving toward a unilateral lifting of the embargo.	Washington was not moving toward a unilateral lifting of the embargo.	191015373	1477074997687	1477074997757	a	65
373020	4021220	Washington was not moving toward a unilateral lifting of the embargo.	Washington was not moving toward a unilateral lifting of the embargo.	191015376	1477074997912	1477074997998	BKSP	8
373020	4021220	Washington was not moving toward a unilateral lifting of the embargo.	Washington was not moving toward a unilateral lifting of the embargo.	191015381	1477074998077	1477074998176	BKSP	8
373020	4021220	Washington was not moving toward a unilateral lifting of the embargo.	Washington was not moving toward a unilateral lifting of the embargo.	191015386	1477074998177	1477074998239	a	65
373020	4021220	Washington was not moving toward a unilateral lifting of the embargo.	Washington was not moving toward a unilateral lifting of the embargo.	191015394	1477074998265	1477074998357	 	32
373020	4021220	Washington was not moving toward a unilateral lifting of the embargo.	Washington was not moving toward a unilateral lifting of the embargo.	191015400	1477074998501	1477074998571	u	85
373020	4021220	Washington was not moving toward a unilateral lifting of the embargo.	Washington was not moving toward a unilateral lifting of the embargo.	191015408	1477074998660	1477074998732	n	78
373020	4021220	Washington was not moving toward a unilateral lifting of the embargo.	Washington was not moving toward a unilateral lifting of the embargo.	191015445	1477074998747	1477074998818	i	73
373020	4021220	Washington was not moving toward a unilateral lifting of the embargo.	Washington was not moving toward a unilateral lifting of the embargo.	191015448	1477074998922	1477074999000	l	76
373020	4021220	Washington was not moving toward a unilateral lifting of the embargo.	Washington was not moving toward a unilateral lifting of the embargo.	191015454	1477074999039	1477074999081	a	65
373020	4021220	Washington was not moving toward a unilateral lifting of the embargo.	Washington was not moving toward a unilateral lifting of the embargo.	191015461	1477074999150	1477074999234	t	84
373020	4021220	Washington was not moving toward a unilateral lifting of the embargo.	Washington was not moving toward a unilateral lifting of the embargo.	191015466	1477074999279	1477074999359	e	69
373020	4021220	Washington was not moving toward a unilateral lifting of the embargo.	Washington was not moving toward a unilateral lifting of the embargo.	191015515	1477074999348	1477074999423	r	82
373020	4021220	Washington was not moving toward a unilateral lifting of the embargo.	Washington was not moving toward a unilateral lifting of the embargo.	191015518	1477074999615	1477074999678	a	65
373020	4021220	Washington was not moving toward a unilateral lifting of the embargo.	Washington was not moving toward a unilateral lifting of the embargo.	191015520	1477074999748	1477074999827	l	76
373020	4021220	Washington was not moving toward a unilateral lifting of the embargo.	Washington was not moving toward a unilateral lifting of the embargo.	191015522	1477074999824	1477074999915	 	32
373020	4021220	Washington was not moving toward a unilateral lifting of the embargo.	Washington was not moving toward a unilateral lifting of the embargo.	191015525	1477075000019	1477075000098	l	76
373020	4021220	Washington was not moving toward a unilateral lifting of the embargo.	Washington was not moving toward a unilateral lifting of the embargo.	191015527	1477075000156	1477075000235	i	73
373020	4021220	Washington was not moving toward a unilateral lifting of the embargo.	Washington was not moving toward a unilateral lifting of the embargo.	191015552	1477075000237	1477075000285	f	70
373020	4021220	Washington was not moving toward a unilateral lifting of the embargo.	Washington was not moving toward a unilateral lifting of the embargo.	191015556	1477075000372	1477075000439	t	84
373020	4021220	Washington was not moving toward a unilateral lifting of the embargo.	Washington was not moving toward a unilateral lifting of the embargo.	191015560	1477075000651	1477075000734	i	73
373020	4021220	Washington was not moving toward a unilateral lifting of the embargo.	Washington was not moving toward a unilateral lifting of the embargo.	191015562	1477075000742	1477075000841	n	78
373020	4021220	Washington was not moving toward a unilateral lifting of the embargo.	Washington was not moving toward a unilateral lifting of the embargo.	191015625	1477075000835	1477075000918	 	32
373020	4021220	Washington was not moving toward a unilateral lifting of the embargo.	Washington was not moving toward a unilateral lifting of the embargo.	191015629	1477075001264	1477075001343	BKSP	8
373020	4021220	Washington was not moving toward a unilateral lifting of the embargo.	Washington was not moving toward a unilateral lifting of the embargo.	191015636	1477075001376	1477075001444	g	71
373020	4021220	Washington was not moving toward a unilateral lifting of the embargo.	Washington was not moving toward a unilateral lifting of the embargo.	191015642	1477075001441	1477075001523	 	32
373020	4021220	Washington was not moving toward a unilateral lifting of the embargo.	Washington was not moving toward a unilateral lifting of the embargo.	191015648	1477075001588	1477075001658	o	79
373020	4021220	Washington was not moving toward a unilateral lifting of the embargo.	Washington was not moving toward a unilateral lifting of the embargo.	191015656	1477075001644	1477075001732	f	70
373020	4021220	Washington was not moving toward a unilateral lifting of the embargo.	Washington was not moving toward a unilateral lifting of the embargo.	191015662	1477075001743	1477075001810	 	32
373020	4021220	Washington was not moving toward a unilateral lifting of the embargo.	Washington was not moving toward a unilateral lifting of the embargo.	191015672	1477075001860	1477075001934	t	84
373020	4021220	Washington was not moving toward a unilateral lifting of the embargo.	Washington was not moving toward a unilateral lifting of the embargo.	191015676	1477075001936	1477075001994	h	72
373020	4021220	Washington was not moving toward a unilateral lifting of the embargo.	Washington was not moving toward a unilateral lifting of the embargo.	191015679	1477075002030	1477075002092	e	69
373020	4021220	Washington was not moving toward a unilateral lifting of the embargo.	Washington was not moving toward a unilateral lifting of the embargo.	191015682	1477075002077	1477075002146	 	32
373020	4021220	Washington was not moving toward a unilateral lifting of the embargo.	Washington was not moving toward a unilateral lifting of the embargo.	191015686	1477075002265	1477075002337	e	69
373020	4021220	Washington was not moving toward a unilateral lifting of the embargo.	Washington was not moving toward a unilateral lifting of the embargo.	191015738	1477075002357	1477075002432	m	77
373020	4021220	Washington was not moving toward a unilateral lifting of the embargo.	Washington was not moving toward a unilateral lifting of the embargo.	191015741	1477075002533	1477075002623	b	66
373020	4021220	Washington was not moving toward a unilateral lifting of the embargo.	Washington was not moving toward a unilateral lifting of the embargo.	191015745	1477075002629	1477075002736	a	65
373020	4021220	Washington was not moving toward a unilateral lifting of the embargo.	Washington was not moving toward a unilateral lifting of the embargo.	191015749	1477075002992	1477075003075	r	82
373020	4021220	Washington was not moving toward a unilateral lifting of the embargo.	Washington was not moving toward a unilateral lifting of the embargo.	191015753	1477075003190	1477075003257	g	71
373020	4021220	Washington was not moving toward a unilateral lifting of the embargo.	Washington was not moving toward a unilateral lifting of the embargo.	191015827	1477075003280	1477075003380	o	79
373020	4021220	Washington was not moving toward a unilateral lifting of the embargo.	Washington was not moving toward a unilateral lifting of the embargo.	191015831	1477075003804	1477075003915	.	190
373020	4021257	She chipped in from 69 feet for a birdie at 17.	She chipped in from 69 feet for a birdie at 17.	191016248	1477075008492	1477075008687	SHIFT	16
373020	4021257	She chipped in from 69 feet for a birdie at 17.	She chipped in from 69 feet for a birdie at 17.	191016251	1477075008605	1477075008735	S	83
373020	4021257	She chipped in from 69 feet for a birdie at 17.	She chipped in from 69 feet for a birdie at 17.	191016254	1477075008792	1477075008854	h	72
373020	4021257	She chipped in from 69 feet for a birdie at 17.	She chipped in from 69 feet for a birdie at 17.	191016259	1477075008824	1477075008894	e	69
373020	4021257	She chipped in from 69 feet for a birdie at 17.	She chipped in from 69 feet for a birdie at 17.	191016266	1477075008920	1477075009005	 	32
373020	4021257	She chipped in from 69 feet for a birdie at 17.	She chipped in from 69 feet for a birdie at 17.	191016274	1477075009066	1477075009136	c	67
373020	4021257	She chipped in from 69 feet for a birdie at 17.	She chipped in from 69 feet for a birdie at 17.	191016303	1477075009150	1477075009234	h	72
373020	4021257	She chipped in from 69 feet for a birdie at 17.	She chipped in from 69 feet for a birdie at 17.	191016305	1477075009235	1477075009296	i	73
373020	4021257	She chipped in from 69 feet for a birdie at 17.	She chipped in from 69 feet for a birdie at 17.	191016309	1477075009449	1477075009511	p	80
373020	4021257	She chipped in from 69 feet for a birdie at 17.	She chipped in from 69 feet for a birdie at 17.	191016314	1477075009581	1477075009662	p	80
373020	4021257	She chipped in from 69 feet for a birdie at 17.	She chipped in from 69 feet for a birdie at 17.	191016348	1477075009657	1477075009733	e	69
373020	4021257	She chipped in from 69 feet for a birdie at 17.	She chipped in from 69 feet for a birdie at 17.	191016351	1477075009795	1477075009861	d	68
373020	4021257	She chipped in from 69 feet for a birdie at 17.	She chipped in from 69 feet for a birdie at 17.	191016357	1477075009867	1477075009957	 	32
373020	4021257	She chipped in from 69 feet for a birdie at 17.	She chipped in from 69 feet for a birdie at 17.	191016362	1477075009982	1477075010047	i	73
373020	4021257	She chipped in from 69 feet for a birdie at 17.	She chipped in from 69 feet for a birdie at 17.	191016371	1477075010098	1477075010180	n	78
373020	4021257	She chipped in from 69 feet for a birdie at 17.	She chipped in from 69 feet for a birdie at 17.	191016417	1477075010122	1477075010233	 	32
373020	4021257	She chipped in from 69 feet for a birdie at 17.	She chipped in from 69 feet for a birdie at 17.	191016420	1477075010459	1477075010525	f	70
373020	4021257	She chipped in from 69 feet for a birdie at 17.	She chipped in from 69 feet for a birdie at 17.	191016423	1477075010617	1477075010675	r	82
373020	4021257	She chipped in from 69 feet for a birdie at 17.	She chipped in from 69 feet for a birdie at 17.	191016425	1477075010685	1477075010751	o	79
373020	4021257	She chipped in from 69 feet for a birdie at 17.	She chipped in from 69 feet for a birdie at 17.	191016428	1477075010782	1477075010895	m	77
373020	4021257	She chipped in from 69 feet for a birdie at 17.	She chipped in from 69 feet for a birdie at 17.	191016535	1477075010864	1477075010964	 	32
373020	4021257	She chipped in from 69 feet for a birdie at 17.	She chipped in from 69 feet for a birdie at 17.	191016539	1477075011498	1477075011572	6	54
373020	4021257	She chipped in from 69 feet for a birdie at 17.	She chipped in from 69 feet for a birdie at 17.	191016542	1477075011684	1477075011762	9	57
373020	4021257	She chipped in from 69 feet for a birdie at 17.	She chipped in from 69 feet for a birdie at 17.	191016547	1477075011789	1477075011878	 	32
373020	4021257	She chipped in from 69 feet for a birdie at 17.	She chipped in from 69 feet for a birdie at 17.	191016552	1477075012034	1477075012104	f	70
373020	4021257	She chipped in from 69 feet for a birdie at 17.	She chipped in from 69 feet for a birdie at 17.	191016557	1477075012237	1477075012272	e	69
373020	4021257	She chipped in from 69 feet for a birdie at 17.	She chipped in from 69 feet for a birdie at 17.	191016582	1477075012356	1477075012445	e	69
373020	4021257	She chipped in from 69 feet for a birdie at 17.	She chipped in from 69 feet for a birdie at 17.	191016583	1477075012440	1477075012506	t	84
373020	4021257	She chipped in from 69 feet for a birdie at 17.	She chipped in from 69 feet for a birdie at 17.	191016584	1477075012545	1477075012648	 	32
373020	4021257	She chipped in from 69 feet for a birdie at 17.	She chipped in from 69 feet for a birdie at 17.	191016587	1477075012670	1477075012749	f	70
373020	4021257	She chipped in from 69 feet for a birdie at 17.	She chipped in from 69 feet for a birdie at 17.	191016590	1477075012778	1477075012860	o	79
373020	4021257	She chipped in from 69 feet for a birdie at 17.	She chipped in from 69 feet for a birdie at 17.	191016640	1477075012826	1477075012876	r	82
373020	4021257	She chipped in from 69 feet for a birdie at 17.	She chipped in from 69 feet for a birdie at 17.	191016641	1477075012942	1477075012999	 	32
373020	4021257	She chipped in from 69 feet for a birdie at 17.	She chipped in from 69 feet for a birdie at 17.	191016645	1477075012986	1477075013060	a	65
373020	4021257	She chipped in from 69 feet for a birdie at 17.	She chipped in from 69 feet for a birdie at 17.	191016649	1477075013112	1477075013234	 	32
373020	4021257	She chipped in from 69 feet for a birdie at 17.	She chipped in from 69 feet for a birdie at 17.	191016652	1477075013306	1477075013392	b	66
373020	4021257	She chipped in from 69 feet for a birdie at 17.	She chipped in from 69 feet for a birdie at 17.	191016657	1477075013434	1477075013520	i	73
373020	4021257	She chipped in from 69 feet for a birdie at 17.	She chipped in from 69 feet for a birdie at 17.	191016742	1477075013542	1477075013614	r	82
373020	4021257	She chipped in from 69 feet for a birdie at 17.	She chipped in from 69 feet for a birdie at 17.	191016747	1477075013736	1477075013806	d	68
373020	4021257	She chipped in from 69 feet for a birdie at 17.	She chipped in from 69 feet for a birdie at 17.	191016752	1477075013890	1477075013956	e	69
373020	4021257	She chipped in from 69 feet for a birdie at 17.	She chipped in from 69 feet for a birdie at 17.	191016756	1477075014065	1477075014172	i	73
373020	4021257	She chipped in from 69 feet for a birdie at 17.	She chipped in from 69 feet for a birdie at 17.	191016760	1477075014319	1477075014389	BKSP	8
373020	4021257	She chipped in from 69 feet for a birdie at 17.	She chipped in from 69 feet for a birdie at 17.	191016765	1477075014438	1477075014515	BKSP	8
373020	4021257	She chipped in from 69 feet for a birdie at 17.	She chipped in from 69 feet for a birdie at 17.	191016768	1477075014601	1477075014684	i	73
373020	4021257	She chipped in from 69 feet for a birdie at 17.	She chipped in from 69 feet for a birdie at 17.	191016795	1477075014681	1477075014745	e	69
373020	4021257	She chipped in from 69 feet for a birdie at 17.	She chipped in from 69 feet for a birdie at 17.	191016799	1477075014792	1477075014850	 	32
373020	4021257	She chipped in from 69 feet for a birdie at 17.	She chipped in from 69 feet for a birdie at 17.	191016802	1477075014852	1477075014902	a	65
373020	4021257	She chipped in from 69 feet for a birdie at 17.	She chipped in from 69 feet for a birdie at 17.	191016806	1477075014953	1477075015023	t	84
373020	4021257	She chipped in from 69 feet for a birdie at 17.	She chipped in from 69 feet for a birdie at 17.	191016811	1477075015040	1477075015118	 	32
373020	4021257	She chipped in from 69 feet for a birdie at 17.	She chipped in from 69 feet for a birdie at 17.	191016814	1477075015270	1477075015368	1	49
373020	4021257	She chipped in from 69 feet for a birdie at 17.	She chipped in from 69 feet for a birdie at 17.	191016841	1477075015469	1477075015595	7	55
373020	4021257	She chipped in from 69 feet for a birdie at 17.	She chipped in from 69 feet for a birdie at 17.	191016843	1477075015860	1477075015955	.	190
373020	4021281	The amendment has little chance of becoming law.	The amendment has little chance of becoming law.	191017159	1477075019182	1477075019498	SHIFT	16
373020	4021281	The amendment has little chance of becoming law.	The amendment has little chance of becoming law.	191017153	1477075019380	1477075019454	T	84
373020	4021281	The amendment has little chance of becoming law.	The amendment has little chance of becoming law.	191017166	1477075019592	1477075019658	h	72
373020	4021281	The amendment has little chance of becoming law.	The amendment has little chance of becoming law.	191017170	1477075019616	1477075019682	e	69
373020	4021281	The amendment has little chance of becoming law.	The amendment has little chance of becoming law.	191017176	1477075019735	1477075019788	 	32
373020	4021281	The amendment has little chance of becoming law.	The amendment has little chance of becoming law.	191017183	1477075019893	1477075019995	a	65
373020	4021281	The amendment has little chance of becoming law.	The amendment has little chance of becoming law.	191017249	1477075020056	1477075020134	m	77
373020	4021281	The amendment has little chance of becoming law.	The amendment has little chance of becoming law.	191017253	1477075020407	1477075020488	d	68
373020	4021281	The amendment has little chance of becoming law.	The amendment has little chance of becoming law.	191017257	1477075020692	1477075020758	BKSP	8
373020	4021281	The amendment has little chance of becoming law.	The amendment has little chance of becoming law.	191017264	1477075020801	1477075020879	e	69
373020	4021281	The amendment has little chance of becoming law.	The amendment has little chance of becoming law.	191017271	1477075020902	1477075020980	n	78
373020	4021281	The amendment has little chance of becoming law.	The amendment has little chance of becoming law.	191017275	1477075021018	1477075021084	d	68
373020	4021281	The amendment has little chance of becoming law.	The amendment has little chance of becoming law.	191017297	1477075021257	1477075021339	m	77
373020	4021281	The amendment has little chance of becoming law.	The amendment has little chance of becoming law.	191017302	1477075021412	1477075021487	e	69
373020	4021281	The amendment has little chance of becoming law.	The amendment has little chance of becoming law.	191017307	1477075021503	1477075021561	n	78
373020	4021281	The amendment has little chance of becoming law.	The amendment has little chance of becoming law.	191017309	1477075021620	1477075021678	t	84
373020	4021281	The amendment has little chance of becoming law.	The amendment has little chance of becoming law.	191017318	1477075021737	1477075021791	 	32
373020	4021281	The amendment has little chance of becoming law.	The amendment has little chance of becoming law.	191017335	1477075021914	1477075021976	h	72
373020	4021281	The amendment has little chance of becoming law.	The amendment has little chance of becoming law.	191017337	1477075022006	1477075022061	a	65
373020	4021281	The amendment has little chance of becoming law.	The amendment has little chance of becoming law.	191017342	1477075022071	1477075022149	s	83
373020	4021281	The amendment has little chance of becoming law.	The amendment has little chance of becoming law.	191017347	1477075022182	1477075022252	 	32
373020	4021281	The amendment has little chance of becoming law.	The amendment has little chance of becoming law.	191017350	1477075022348	1477075022426	l	76
373020	4021281	The amendment has little chance of becoming law.	The amendment has little chance of becoming law.	191017363	1477075022483	1477075022558	i	73
373020	4021281	The amendment has little chance of becoming law.	The amendment has little chance of becoming law.	191017365	1477075022597	1477075022651	t	84
373020	4021281	The amendment has little chance of becoming law.	The amendment has little chance of becoming law.	191017367	1477075022733	1477075022790	t	84
373020	4021281	The amendment has little chance of becoming law.	The amendment has little chance of becoming law.	191017369	1477075022843	1477075022913	l	76
373020	4021281	The amendment has little chance of becoming law.	The amendment has little chance of becoming law.	191017372	1477075022923	1477075022989	e	69
373020	4021281	The amendment has little chance of becoming law.	The amendment has little chance of becoming law.	191017401	1477075023026	1477075023087	 	32
373020	4021281	The amendment has little chance of becoming law.	The amendment has little chance of becoming law.	191017405	1477075023146	1477075023233	c	67
373020	4021281	The amendment has little chance of becoming law.	The amendment has little chance of becoming law.	191017409	1477075023234	1477075023296	h	72
373020	4021281	The amendment has little chance of becoming law.	The amendment has little chance of becoming law.	191017411	1477075023332	1477075023394	a	65
373020	4021281	The amendment has little chance of becoming law.	The amendment has little chance of becoming law.	191017413	1477075023404	1477075023458	n	78
373020	4021281	The amendment has little chance of becoming law.	The amendment has little chance of becoming law.	191017434	1477075023624	1477075023735	c	67
373020	4021281	The amendment has little chance of becoming law.	The amendment has little chance of becoming law.	191017437	1477075023817	1477075023875	e	69
373020	4021281	The amendment has little chance of becoming law.	The amendment has little chance of becoming law.	191017439	1477075023898	1477075023972	 	32
373020	4021281	The amendment has little chance of becoming law.	The amendment has little chance of becoming law.	191017442	1477075024017	1477075024095	o	79
373020	4021281	The amendment has little chance of becoming law.	The amendment has little chance of becoming law.	191017481	1477075024081	1477075024155	f	70
373020	4021281	The amendment has little chance of becoming law.	The amendment has little chance of becoming law.	191017489	1477075024171	1477075024257	 	32
373020	4021281	The amendment has little chance of becoming law.	The amendment has little chance of becoming law.	191017494	1477075024409	1477075024471	b	66
373020	4021281	The amendment has little chance of becoming law.	The amendment has little chance of becoming law.	191017499	1477075024553	1477075024619	e	69
373020	4021281	The amendment has little chance of becoming law.	The amendment has little chance of becoming law.	191017507	1477075024760	1477075024830	c	67
373020	4021281	The amendment has little chance of becoming law.	The amendment has little chance of becoming law.	191017509	1477075024855	1477075024933	o	79
373020	4021281	The amendment has little chance of becoming law.	The amendment has little chance of becoming law.	191017515	1477075024957	1477075025043	m	77
373020	4021281	The amendment has little chance of becoming law.	The amendment has little chance of becoming law.	191017517	1477075025088	1477075025138	i	73
373020	4021281	The amendment has little chance of becoming law.	The amendment has little chance of becoming law.	191017520	1477075025172	1477075025246	n	78
373020	4021281	The amendment has little chance of becoming law.	The amendment has little chance of becoming law.	191017524	1477075025251	1477075025314	g	71
373020	4021281	The amendment has little chance of becoming law.	The amendment has little chance of becoming law.	191017526	1477075025320	1477075025395	 	32
373020	4021281	The amendment has little chance of becoming law.	The amendment has little chance of becoming law.	191017555	1477075025451	1477075025545	l	76
373020	4021281	The amendment has little chance of becoming law.	The amendment has little chance of becoming law.	191017561	1477075025547	1477075025597	a	65
373020	4021281	The amendment has little chance of becoming law.	The amendment has little chance of becoming law.	191017569	1477075025677	1477075025739	w	87
373020	4021281	The amendment has little chance of becoming law.	The amendment has little chance of becoming law.	191017578	1477075025749	1477075025839	.	190
373020	4021298	Mom, that sounds fine to me.	Mom, that sounds fine to me.	191017853	1477075028687	1477075029039	SHIFT	16
373020	4021298	Mom, that sounds fine to me.	Mom, that sounds fine to me.	191017855	1477075028964	1477075029051	M	77
373020	4021298	Mom, that sounds fine to me.	Mom, that sounds fine to me.	191017859	1477075029115	1477075029236	o	79
373020	4021298	Mom, that sounds fine to me.	Mom, that sounds fine to me.	191017864	1477075029250	1477075029328	m	77
373020	4021298	Mom, that sounds fine to me.	Mom, that sounds fine to me.	191017873	1477075029424	1477075029483	,	188
373020	4021298	Mom, that sounds fine to me.	Mom, that sounds fine to me.	191017881	1477075029536	1477075029606	 	32
373020	4021298	Mom, that sounds fine to me.	Mom, that sounds fine to me.	191017915	1477075029734	1477075029781	h	84
373020	4021298	Mom, that sounds fine to me.	Mom, that sounds fine to me.	191017921	1477075029920	1477075030001	a	65
373020	4021298	Mom, that sounds fine to me.	Mom, that sounds fine to me.	191017924	1477075029976	1477075030050	t	84
373020	4021298	Mom, that sounds fine to me.	Mom, that sounds fine to me.	191017928	1477075030113	1477075030233	 	32
373020	4021298	Mom, that sounds fine to me.	Mom, that sounds fine to me.	191017959	1477075030433	1477075030504	s	83
373020	4021298	Mom, that sounds fine to me.	Mom, that sounds fine to me.	191017961	1477075030521	1477075030595	o	79
373020	4021298	Mom, that sounds fine to me.	Mom, that sounds fine to me.	191017966	1477075030649	1477075030734	u	85
373020	4021298	Mom, that sounds fine to me.	Mom, that sounds fine to me.	191017971	1477075030798	1477075030871	n	78
373020	4021298	Mom, that sounds fine to me.	Mom, that sounds fine to me.	191018000	1477075030850	1477075030935	d	68
373020	4021298	Mom, that sounds fine to me.	Mom, that sounds fine to me.	191018001	1477075030908	1477075030984	s	83
373020	4021298	Mom, that sounds fine to me.	Mom, that sounds fine to me.	191018003	1477075030981	1477075031064	 	32
373020	4021298	Mom, that sounds fine to me.	Mom, that sounds fine to me.	191018004	1477075031146	1477075031241	f	70
373020	4021298	Mom, that sounds fine to me.	Mom, that sounds fine to me.	191018005	1477075031258	1477075031323	i	73
373020	4021298	Mom, that sounds fine to me.	Mom, that sounds fine to me.	191018008	1477075031384	1477075031460	n	78
373020	4021298	Mom, that sounds fine to me.	Mom, that sounds fine to me.	191018029	1477075031448	1477075031520	e	69
373020	4021298	Mom, that sounds fine to me.	Mom, that sounds fine to me.	191018031	1477075031543	1477075031616	 	32
373020	4021298	Mom, that sounds fine to me.	Mom, that sounds fine to me.	191018036	1477075031691	1477075031757	t	84
373020	4021298	Mom, that sounds fine to me.	Mom, that sounds fine to me.	191018040	1477075031772	1477075031855	o	79
373020	4021298	Mom, that sounds fine to me.	Mom, that sounds fine to me.	191018044	1477075031833	1477075031927	 	32
373020	4021298	Mom, that sounds fine to me.	Mom, that sounds fine to me.	191018046	1477075031978	1477075032062	m	77
373020	4021298	Mom, that sounds fine to me.	Mom, that sounds fine to me.	191018057	1477075032057	1477075032123	e	69
373020	4021298	Mom, that sounds fine to me.	Mom, that sounds fine to me.	191018061	1477075032142	1477075032236	.	190
373020	4021309	This track stands alone as king of the circuits.	This track stands alone as king of the circuits.	191018382	1477075035474	1477075035864	SHIFT	16
373020	4021309	This track stands alone as king of the circuits.	This track stands alone as king of the circuits.	191018375	1477075035743	1477075035817	T	84
373020	4021309	This track stands alone as king of the circuits.	This track stands alone as king of the circuits.	191018384	1477075035965	1477075036019	h	72
373020	4021309	This track stands alone as king of the circuits.	This track stands alone as king of the circuits.	191018388	1477075036035	1477075036113	i	73
373020	4021309	This track stands alone as king of the circuits.	This track stands alone as king of the circuits.	191018394	1477075036115	1477075036236	s	83
373020	4021309	This track stands alone as king of the circuits.	This track stands alone as king of the circuits.	191018404	1477075036237	1477075036289	 	32
373020	4021309	This track stands alone as king of the circuits.	This track stands alone as king of the circuits.	191018431	1477075036387	1477075036461	t	84
373020	4021309	This track stands alone as king of the circuits.	This track stands alone as king of the circuits.	191018434	1477075036551	1477075036626	r	82
373020	4021309	This track stands alone as king of the circuits.	This track stands alone as king of the circuits.	191018437	1477075036596	1477075036674	a	65
373020	4021309	This track stands alone as king of the circuits.	This track stands alone as king of the circuits.	191018442	1477075036872	1477075036954	c	67
373020	4021309	This track stands alone as king of the circuits.	This track stands alone as king of the circuits.	191018447	1477075037010	1477075037091	k	75
373020	4021309	This track stands alone as king of the circuits.	This track stands alone as king of the circuits.	191018480	1477075037100	1477075037235	 	32
373020	4021309	This track stands alone as king of the circuits.	This track stands alone as king of the circuits.	191018484	1477075037385	1477075037451	s	83
373020	4021309	This track stands alone as king of the circuits.	This track stands alone as king of the circuits.	191018489	1477075037507	1477075037598	t	84
373020	4021309	This track stands alone as king of the circuits.	This track stands alone as king of the circuits.	191018492	1477075037567	1477075037646	a	65
373020	4021309	This track stands alone as king of the circuits.	This track stands alone as king of the circuits.	191018493	1477075037733	1477075037798	n	78
373020	4021309	This track stands alone as king of the circuits.	This track stands alone as king of the circuits.	191018521	1477075037811	1477075037898	d	68
373020	4021309	This track stands alone as king of the circuits.	This track stands alone as king of the circuits.	191018522	1477075037876	1477075037954	s	83
373020	4021309	This track stands alone as king of the circuits.	This track stands alone as king of the circuits.	191018524	1477075037981	1477075038071	 	32
373020	4021309	This track stands alone as king of the circuits.	This track stands alone as king of the circuits.	191018526	1477075038238	1477075038269	a	65
373020	4021309	This track stands alone as king of the circuits.	This track stands alone as king of the circuits.	191018530	1477075038318	1477075038386	l	76
373020	4021309	This track stands alone as king of the circuits.	This track stands alone as king of the circuits.	191018550	1477075038458	1477075038519	o	79
373020	4021309	This track stands alone as king of the circuits.	This track stands alone as king of the circuits.	191018557	1477075038554	1477075038648	n	78
373020	4021309	This track stands alone as king of the circuits.	This track stands alone as king of the circuits.	191018564	1477075038639	1477075038736	e	69
373020	4021309	This track stands alone as king of the circuits.	This track stands alone as king of the circuits.	191018572	1477075038737	1477075038808	 	32
373020	4021309	This track stands alone as king of the circuits.	This track stands alone as king of the circuits.	191018613	1477075038801	1477075038876	a	65
373020	4021309	This track stands alone as king of the circuits.	This track stands alone as king of the circuits.	191018618	1477075038922	1477075039012	s	83
373020	4021309	This track stands alone as king of the circuits.	This track stands alone as king of the circuits.	191018622	1477075039026	1477075039104	 	32
373020	4021309	This track stands alone as king of the circuits.	This track stands alone as king of the circuits.	191018625	1477075039188	1477075039270	k	75
373020	4021309	This track stands alone as king of the circuits.	This track stands alone as king of the circuits.	191018627	1477075039336	1477075039382	i	73
373020	4021309	This track stands alone as king of the circuits.	This track stands alone as king of the circuits.	191018629	1477075039400	1477075039481	n	78
373020	4021309	This track stands alone as king of the circuits.	This track stands alone as king of the circuits.	191018680	1477075039530	1477075039616	g	71
373020	4021309	This track stands alone as king of the circuits.	This track stands alone as king of the circuits.	191018685	1477075039733	1477075039811	 	32
373020	4021309	This track stands alone as king of the circuits.	This track stands alone as king of the circuits.	191018689	1477075039904	1477075039994	o	79
373020	4021309	This track stands alone as king of the circuits.	This track stands alone as king of the circuits.	191018692	1477075040031	1477075040105	f	70
373020	4021309	This track stands alone as king of the circuits.	This track stands alone as king of the circuits.	191018694	1477075040129	1477075040232	 	32
373020	4021309	This track stands alone as king of the circuits.	This track stands alone as king of the circuits.	191018709	1477075040233	1477075040279	t	84
373020	4021309	This track stands alone as king of the circuits.	This track stands alone as king of the circuits.	191018712	1477075040274	1477075040344	h	72
373020	4021309	This track stands alone as king of the circuits.	This track stands alone as king of the circuits.	191018715	1477075040363	1477075040429	e	69
373020	4021309	This track stands alone as king of the circuits.	This track stands alone as king of the circuits.	191018718	1477075040408	1477075040479	 	32
373020	4021309	This track stands alone as king of the circuits.	This track stands alone as king of the circuits.	191018720	1477075040593	1477075040675	c	67
373020	4021309	This track stands alone as king of the circuits.	This track stands alone as king of the circuits.	191018751	1477075040689	1477075040767	i	73
373020	4021309	This track stands alone as king of the circuits.	This track stands alone as king of the circuits.	191018756	1477075040819	1477075040889	r	82
373020	4021309	This track stands alone as king of the circuits.	This track stands alone as king of the circuits.	191018765	1477075041009	1477075041083	c	67
373020	4021309	This track stands alone as king of the circuits.	This track stands alone as king of the circuits.	191018770	1477075041098	1477075041185	u	85
373020	4021309	This track stands alone as king of the circuits.	This track stands alone as king of the circuits.	191018794	1477075041163	1477075041237	i	73
373020	4021309	This track stands alone as king of the circuits.	This track stands alone as king of the circuits.	191018799	1477075041238	1477075041289	t	84
373020	4021309	This track stands alone as king of the circuits.	This track stands alone as king of the circuits.	191018805	1477075041291	1477075041353	s	83
373020	4021309	This track stands alone as king of the circuits.	This track stands alone as king of the circuits.	191018814	1477075041398	1477075041495	.	190
373020	4021326	I haven't adapted really.	I haven't adapted really.	191019071	1477075044357	1477075044616	SHIFT	16
373020	4021326	I haven't adapted really.	I haven't adapted really.	191019067	1477075044531	1477075044600	I	73
373020	4021326	I haven't adapted really.	I haven't adapted really.	191019076	1477075044657	1477075044735	 	32
373020	4021326	I haven't adapted really.	I haven't adapted really.	191019079	1477075044813	1477075044883	h	72
373020	4021326	I haven't adapted really.	I haven't adapted really.	191019084	1477075044881	1477075044939	a	65
373020	4021326	I haven't adapted really.	I haven't adapted really.	191019089	1477075044995	1477075045083	v	86
373020	4021326	I haven't adapted really.	I haven't adapted really.	191019104	1477075045088	1477075045159	e	69
373020	4021326	I haven't adapted really.	I haven't adapted really.	191019106	1477075045175	1477075045250	n	78
373020	4021326	I haven't adapted really.	I haven't adapted really.	191019109	1477075045334	1477075045404	'	222
373020	4021326	I haven't adapted really.	I haven't adapted really.	191019115	1477075045425	1477075045491	t	84
373020	4021326	I haven't adapted really.	I haven't adapted really.	191019123	1477075045540	1477075045614	 	32
373020	4021326	I haven't adapted really.	I haven't adapted really.	191019163	1477075045659	1477075045735	a	65
373020	4021326	I haven't adapted really.	I haven't adapted really.	191019168	1477075045889	1477075045963	d	68
373020	4021326	I haven't adapted really.	I haven't adapted really.	191019173	1477075045989	1477075046065	a	65
373020	4021326	I haven't adapted really.	I haven't adapted really.	191019179	1477075046170	1477075046251	p	80
373020	4021326	I haven't adapted really.	I haven't adapted really.	191019183	1477075046297	1477075046364	t	84
373020	4021326	I haven't adapted really.	I haven't adapted really.	191019206	1477075046379	1477075046458	e	69
373020	4021326	I haven't adapted really.	I haven't adapted really.	191019212	1477075046559	1477075046629	d	68
373020	4021326	I haven't adapted really.	I haven't adapted really.	191019215	1477075046656	1477075046749	 	32
373020	4021326	I haven't adapted really.	I haven't adapted really.	191019218	1477075046819	1477075046901	r	82
373020	4021326	I haven't adapted really.	I haven't adapted really.	191019242	1477075046862	1477075046953	e	69
373020	4021326	I haven't adapted really.	I haven't adapted really.	191019246	1477075046915	1477075046996	a	65
373020	4021326	I haven't adapted really.	I haven't adapted really.	191019251	1477075047112	1477075047174	l	76
373020	4021326	I haven't adapted really.	I haven't adapted really.	191019259	1477075047240	1477075047304	l	76
373020	4021326	I haven't adapted really.	I haven't adapted really.	191019267	1477075047385	1477075047472	y	89
373020	4021326	I haven't adapted really.	I haven't adapted really.	191019271	1477075047534	1477075047637	.	190
373020	4021336	Fuel is retained in kind from the shippers.	Fuel is retained in kind from the shippers.	191019515	1477075051481	1477075051745	SHIFT	16
373020	4021336	Fuel is retained in kind from the shippers.	Fuel is retained in kind from the shippers.	191019513	1477075051595	1477075051735	F	70
373020	4021336	Fuel is retained in kind from the shippers.	Fuel is retained in kind from the shippers.	191019519	1477075051817	1477075051878	u	85
373020	4021336	Fuel is retained in kind from the shippers.	Fuel is retained in kind from the shippers.	191019522	1477075051865	1477075051927	e	69
373020	4021336	Fuel is retained in kind from the shippers.	Fuel is retained in kind from the shippers.	191019524	1477075051973	1477075052059	l	76
373020	4021336	Fuel is retained in kind from the shippers.	Fuel is retained in kind from the shippers.	191019550	1477075052036	1477075052135	 	32
373020	4021336	Fuel is retained in kind from the shippers.	Fuel is retained in kind from the shippers.	191019551	1477075052236	1477075052287	i	73
373020	4021336	Fuel is retained in kind from the shippers.	Fuel is retained in kind from the shippers.	191019553	1477075052302	1477075052373	s	83
373020	4021336	Fuel is retained in kind from the shippers.	Fuel is retained in kind from the shippers.	191019558	1477075052378	1477075052465	 	32
373020	4021336	Fuel is retained in kind from the shippers.	Fuel is retained in kind from the shippers.	191019566	1477075052739	1477075052841	r	82
373020	4021336	Fuel is retained in kind from the shippers.	Fuel is retained in kind from the shippers.	191019573	1477075052854	1477075052937	e	69
373020	4021336	Fuel is retained in kind from the shippers.	Fuel is retained in kind from the shippers.	191019602	1477075053092	1477075053154	t	84
373020	4021336	Fuel is retained in kind from the shippers.	Fuel is retained in kind from the shippers.	191019604	1477075053181	1477075053254	a	65
373020	4021336	Fuel is retained in kind from the shippers.	Fuel is retained in kind from the shippers.	191019608	1477075053303	1477075053361	i	73
373020	4021336	Fuel is retained in kind from the shippers.	Fuel is retained in kind from the shippers.	191019612	1477075053411	1477075053501	n	78
373020	4021336	Fuel is retained in kind from the shippers.	Fuel is retained in kind from the shippers.	191019614	1477075053506	1477075053573	e	69
373020	4021336	Fuel is retained in kind from the shippers.	Fuel is retained in kind from the shippers.	191019622	1477075053638	1477075053737	d	68
373020	4021336	Fuel is retained in kind from the shippers.	Fuel is retained in kind from the shippers.	191019624	1477075053738	1477075053801	 	32
373020	4021336	Fuel is retained in kind from the shippers.	Fuel is retained in kind from the shippers.	191019627	1477075053822	1477075053872	i	73
373020	4021336	Fuel is retained in kind from the shippers.	Fuel is retained in kind from the shippers.	191019631	1477075053911	1477075054000	n	78
373020	4021336	Fuel is retained in kind from the shippers.	Fuel is retained in kind from the shippers.	191019662	1477075053963	1477075054053	 	32
373020	4021336	Fuel is retained in kind from the shippers.	Fuel is retained in kind from the shippers.	191019666	1477075054116	1477075054232	k	75
373020	4021336	Fuel is retained in kind from the shippers.	Fuel is retained in kind from the shippers.	191019670	1477075054310	1477075054369	i	73
373020	4021336	Fuel is retained in kind from the shippers.	Fuel is retained in kind from the shippers.	191019673	1477075054438	1477075054519	n	78
373020	4021336	Fuel is retained in kind from the shippers.	Fuel is retained in kind from the shippers.	191019678	1477075054540	1477075054618	d	68
373020	4021336	Fuel is retained in kind from the shippers.	Fuel is retained in kind from the shippers.	191019682	1477075054650	1477075054735	 	32
373020	4021336	Fuel is retained in kind from the shippers.	Fuel is retained in kind from the shippers.	191019704	1477075054979	1477075055049	f	70
373020	4021336	Fuel is retained in kind from the shippers.	Fuel is retained in kind from the shippers.	191019706	1477075055133	1477075055237	r	82
373020	4021336	Fuel is retained in kind from the shippers.	Fuel is retained in kind from the shippers.	191019710	1477075055173	1477075055274	o	79
373020	4021336	Fuel is retained in kind from the shippers.	Fuel is retained in kind from the shippers.	191019714	1477075055283	1477075055411	m	77
373020	4021336	Fuel is retained in kind from the shippers.	Fuel is retained in kind from the shippers.	191019735	1477075055365	1477075055455	 	32
373020	4021336	Fuel is retained in kind from the shippers.	Fuel is retained in kind from the shippers.	191019740	1477075055469	1477075055527	t	84
373020	4021336	Fuel is retained in kind from the shippers.	Fuel is retained in kind from the shippers.	191019744	1477075055544	1477075055622	h	72
373020	4021336	Fuel is retained in kind from the shippers.	Fuel is retained in kind from the shippers.	191019750	1477075055593	1477075055658	e	69
373020	4021336	Fuel is retained in kind from the shippers.	Fuel is retained in kind from the shippers.	191019755	1477075055653	1477075055734	 	32
373020	4021336	Fuel is retained in kind from the shippers.	Fuel is retained in kind from the shippers.	191019763	1477075055851	1477075055889	s	83
373020	4021336	Fuel is retained in kind from the shippers.	Fuel is retained in kind from the shippers.	191019790	1477075055936	1477075056002	h	72
373020	4021336	Fuel is retained in kind from the shippers.	Fuel is retained in kind from the shippers.	191019793	1477075055999	1477075056103	i	73
373020	4021336	Fuel is retained in kind from the shippers.	Fuel is retained in kind from the shippers.	191019796	1477075056266	1477075056322	p	80
373020	4021336	Fuel is retained in kind from the shippers.	Fuel is retained in kind from the shippers.	191019799	1477075056398	1477075056484	p	80
373020	4021336	Fuel is retained in kind from the shippers.	Fuel is retained in kind from the shippers.	191019818	1477075056445	1477075056532	e	69
373020	4021336	Fuel is retained in kind from the shippers.	Fuel is retained in kind from the shippers.	191019823	1477075056505	1477075056576	r	82
373020	4021336	Fuel is retained in kind from the shippers.	Fuel is retained in kind from the shippers.	191019833	1477075056586	1477075056656	s	83
373020	4021336	Fuel is retained in kind from the shippers.	Fuel is retained in kind from the shippers.	191019840	1477075056686	1477075056776	.	190
373020	4021351	I'll get you one.	I'll get you one.	191020052	1477075058786	1477075058997	SHIFT	16
373020	4021351	I'll get you one.	I'll get you one.	191020048	1477075058909	1477075058985	I	73
373020	4021351	I'll get you one.	I'll get you one.	191020056	1477075059090	1477075059168	'	222
373020	4021351	I'll get you one.	I'll get you one.	191020063	1477075059309	1477075059371	l	76
373020	4021351	I'll get you one.	I'll get you one.	191020068	1477075059436	1477075059541	l	76
373020	4021351	I'll get you one.	I'll get you one.	191020083	1477075059484	1477075059613	 	32
373020	4021351	I'll get you one.	I'll get you one.	191020086	1477075059607	1477075059674	g	71
373020	4021351	I'll get you one.	I'll get you one.	191020089	1477075059679	1477075059753	e	69
373020	4021351	I'll get you one.	I'll get you one.	191020093	1477075059772	1477075059827	t	84
373020	4021351	I'll get you one.	I'll get you one.	191020097	1477075059824	1477075059914	 	32
373020	4021351	I'll get you one.	I'll get you one.	191020102	1477075059981	1477075060052	y	89
373020	4021351	I'll get you one.	I'll get you one.	191020118	1477075060072	1477075060168	o	79
373020	4021351	I'll get you one.	I'll get you one.	191020120	1477075060164	1477075060241	u	85
373020	4021351	I'll get you one.	I'll get you one.	191020122	1477075060188	1477075060282	 	32
373020	4021351	I'll get you one.	I'll get you one.	191020124	1477075060364	1477075060455	o	79
373020	4021351	I'll get you one.	I'll get you one.	191020129	1477075060486	1477075060564	n	78
373020	4021351	I'll get you one.	I'll get you one.	191020139	1477075060587	1477075060657	e	69
373020	4021351	I'll get you one.	I'll get you one.	191020141	1477075060630	1477075060749	.	190
373020	4021359	I think that is the right answer.	I think that is the right answer.	191020307	1477075062956	1477075063237	SHIFT	16
373020	4021359	I think that is the right answer.	I think that is the right answer.	191020299	1477075063135	1477075063236	I	73
373020	4021359	I think that is the right answer.	I think that is the right answer.	191020314	1477075063253	1477075063332	 	32
373020	4021359	I think that is the right answer.	I think that is the right answer.	191020319	1477075063353	1477075063423	t	84
373020	4021359	I think that is the right answer.	I think that is the right answer.	191020323	1477075063397	1477075063463	h	72
373020	4021359	I think that is the right answer.	I think that is the right answer.	191020350	1477075063428	1477075063511	i	73
373020	4021359	I think that is the right answer.	I think that is the right answer.	191020353	1477075063563	1477075063624	n	78
373020	4021359	I think that is the right answer.	I think that is the right answer.	191020357	1477075063623	1477075063735	k	75
373020	4021359	I think that is the right answer.	I think that is the right answer.	191020360	1477075063736	1477075063813	 	32
373020	4021359	I think that is the right answer.	I think that is the right answer.	191020364	1477075063896	1477075063966	t	84
373020	4021359	I think that is the right answer.	I think that is the right answer.	191020462	1477075063997	1477075064113	h	65
373020	4021359	I think that is the right answer.	I think that is the right answer.	191020464	1477075064238	1477075064243	t	84
373020	4021359	I think that is the right answer.	I think that is the right answer.	191020469	1477075064541	1477075064599	BKSP	8
373020	4021359	I think that is the right answer.	I think that is the right answer.	191020475	1477075064691	1477075064774	BKSP	8
373020	4021359	I think that is the right answer.	I think that is the right answer.	191020482	1477075064841	1477075064900	BKSP	8
373020	4021359	I think that is the right answer.	I think that is the right answer.	191020491	1477075065094	1477075065156	h	72
373020	4021359	I think that is the right answer.	I think that is the right answer.	191020503	1477075065290	1477075065353	a	65
373020	4021359	I think that is the right answer.	I think that is the right answer.	191020512	1477075065344	1477075065422	t	84
373020	4021359	I think that is the right answer.	I think that is the right answer.	191020519	1477075065439	1477075065534	 	32
373020	4021359	I think that is the right answer.	I think that is the right answer.	191020501	1477075065612	1477075065678	i	73
373020	4021359	I think that is the right answer.	I think that is the right answer.	191020506	1477075065688	1477075065762	s	83
373020	4021359	I think that is the right answer.	I think that is the right answer.	191020514	1477075065768	1477075065842	 	32
373020	4021359	I think that is the right answer.	I think that is the right answer.	191020520	1477075065883	1477075065941	t	84
373020	4021359	I think that is the right answer.	I think that is the right answer.	191020585	1477075065923	1477075066000	h	72
373020	4021359	I think that is the right answer.	I think that is the right answer.	191020589	1477075066002	1477075066061	e	69
373020	4021359	I think that is the right answer.	I think that is the right answer.	191020593	1477075066066	1477075066153	 	32
373020	4021359	I think that is the right answer.	I think that is the right answer.	191020596	1477075066251	1477075066319	r	82
373020	4021359	I think that is the right answer.	I think that is the right answer.	191020600	1477075066355	1477075066417	i	73
373020	4021359	I think that is the right answer.	I think that is the right answer.	191020605	1477075066739	1477075066778	g	71
373020	4021359	I think that is the right answer.	I think that is the right answer.	191020636	1477075066835	1477075066913	h	72
373020	4021359	I think that is the right answer.	I think that is the right answer.	191020639	1477075066918	1477075066985	t	84
373020	4021359	I think that is the right answer.	I think that is the right answer.	191020643	1477075066994	1477075067084	 	32
373020	4021359	I think that is the right answer.	I think that is the right answer.	191020646	1477075067235	1477075067295	a	65
373020	4021359	I think that is the right answer.	I think that is the right answer.	191020649	1477075067358	1477075067435	n	78
373020	4021359	I think that is the right answer.	I think that is the right answer.	191020677	1477075067477	1477075067563	s	83
373020	4021359	I think that is the right answer.	I think that is the right answer.	191020684	1477075067663	1477075067738	w	87
373020	4021359	I think that is the right answer.	I think that is the right answer.	191020688	1477075067740	1477075067800	e	69
373020	4021359	I think that is the right answer.	I think that is the right answer.	191020693	1477075067775	1477075067853	r	82
373020	4021359	I think that is the right answer.	I think that is the right answer.	191020700	1477075067883	1477075067993	.	190
373020	4021366	Chris Foster is in!	Chris Foster is in!	191020915	1477075070097	1477075070529	SHIFT	16
373020	4021366	Chris Foster is in!	Chris Foster is in!	191020912	1477075070444	1477075070521	C	67
373020	4021366	Chris Foster is in!	Chris Foster is in!	191020920	1477075070592	1477075070665	h	72
373020	4021366	Chris Foster is in!	Chris Foster is in!	191020925	1477075070651	1477075070734	i	73
373020	4021366	Chris Foster is in!	Chris Foster is in!	191020929	1477075070735	1477075070782	r	82
373020	4021366	Chris Foster is in!	Chris Foster is in!	191020933	1477075070990	1477075071078	s	83
373020	4021366	Chris Foster is in!	Chris Foster is in!	191021009	1477075071235	1477075071304	BKSP	8
373020	4021366	Chris Foster is in!	Chris Foster is in!	191021013	1477075071390	1477075071589	BKSP	8
373020	4021366	Chris Foster is in!	Chris Foster is in!	191021020	1477075071734	1477075071796	BKSP	8
373020	4021366	Chris Foster is in!	Chris Foster is in!	191021027	1477075071847	1477075071921	r	82
373020	4021366	Chris Foster is in!	Chris Foster is in!	191021032	1477075071948	1477075072035	i	73
373020	4021366	Chris Foster is in!	Chris Foster is in!	191021037	1477075072063	1477075072117	s	83
373020	4021366	Chris Foster is in!	Chris Foster is in!	191021039	1477075072147	1477075072236	 	32
373020	4021366	Chris Foster is in!	Chris Foster is in!	191021045	1477075072563	1477075072763	SHIFT	16
373020	4021366	Chris Foster is in!	Chris Foster is in!	191021055	1477075072689	1477075072783	F	70
373020	4021366	Chris Foster is in!	Chris Foster is in!	191021060	1477075072810	1477075072892	o	79
373020	4021366	Chris Foster is in!	Chris Foster is in!	191021066	1477075072907	1477075072985	s	83
373020	4021366	Chris Foster is in!	Chris Foster is in!	191021070	1477075073058	1477075073124	t	84
373020	4021366	Chris Foster is in!	Chris Foster is in!	191021073	1477075073192	1477075073260	e	69
373020	4021366	Chris Foster is in!	Chris Foster is in!	191021092	1477075073238	1477075073306	r	82
373020	4021366	Chris Foster is in!	Chris Foster is in!	191021096	1477075073324	1477075073406	 	32
373020	4021366	Chris Foster is in!	Chris Foster is in!	191021097	1477075073453	1477075073543	i	73
373020	4021366	Chris Foster is in!	Chris Foster is in!	191021100	1477075073496	1477075073551	s	83
373020	4021366	Chris Foster is in!	Chris Foster is in!	191021101	1477075073621	1477075073737	 	32
373020	4021366	Chris Foster is in!	Chris Foster is in!	191021104	1477075073762	1477075073829	i	73
373020	4021366	Chris Foster is in!	Chris Foster is in!	191021127	1477075073864	1477075073951	n	78
373020	4021366	Chris Foster is in!	Chris Foster is in!	191021132	1477075073990	1477075074246	SHIFT	16
373020	4021366	Chris Foster is in!	Chris Foster is in!	191021129	1477075074125	1477075074235	!	49
