PARTICIPANT_ID	TEST_SECTION_ID	SENTENCE	USER_INPUT	KEYSTROKE_ID	PRESS_TIME	RELEASE_TIME	LETTER	KEYCODE
373264	4024156	This is good I think.	This is good I think.\	191156476	1477076786714	1477076787570	SHIFT	16
373264	4024156	This is good I think.	This is good I think.\	191156477	1477076787510	1477076787642	T	84
373264	4024156	This is good I think.	This is good I think.\	191156478	1477076787642	1477076787778	h	72
373264	4024156	This is good I think.	This is good I think.\	191156479	1477076787738	1477076787881	i	73
373264	4024156	This is good I think.	This is good I think.\	191156480	1477076787881	1477076787986	s	83
373264	4024156	This is good I think.	This is good I think.\	191156481	1477076788033	1477076788089	 	32
373264	4024156	This is good I think.	This is good I think.\	191156514	1477076788230	1477076788336	i	73
373264	4024156	This is good I think.	This is good I think.\	191156518	1477076788414	1477076788520	s	83
373264	4024156	This is good I think.	This is good I think.\	191156522	1477076788583	1477076788686	 	32
373264	4024156	This is good I think.	This is good I think.\	191156526	1477076788936	1477076789065	g	71
373264	4024156	This is good I think.	This is good I think.\	191156530	1477076789128	1477076789205	o	79
373264	4024156	This is good I think.	This is good I think.\	191156581	1477076789284	1477076789355	o	79
373264	4024156	This is good I think.	This is good I think.\	191156588	1477076789730	1477076789837	d	68
373264	4024156	This is good I think.	This is good I think.\	191156593	1477076789869	1477076789968	 	32
373264	4024156	This is good I think.	This is good I think.\	191156603	1477076790139	1477076790402	SHIFT	16
373264	4024156	This is good I think.	This is good I think.\	191156600	1477076790280	1477076790387	I	73
373264	4024156	This is good I think.	This is good I think.\	191156609	1477076790434	1477076790501	 	32
373264	4024156	This is good I think.	This is good I think.\	191156633	1477076790658	1477076790785	t	84
373264	4024156	This is good I think.	This is good I think.\	191156636	1477076790816	1477076790936	h	72
373264	4024156	This is good I think.	This is good I think.\	191156640	1477076790952	1477076791098	i	73
373264	4024156	This is good I think.	This is good I think.\	191156645	1477076791129	1477076791205	n	78
373264	4024156	This is good I think.	This is good I think.\	191156652	1477076791252	1477076791367	k	75
373264	4024156	This is good I think.	This is good I think.\	191156705	1477076791966	1477076792039	.	190
373264	4024164	Presumably so do you.	Presumably so do you.	191157029	1477076795249	1477076797428	SHIFT	16
373264	4024164	Presumably so do you.	Presumably so do you.	191157034	1477076797709	1477076798370	SHIFT	16
373264	4024164	Presumably so do you.	Presumably so do you.	191157037	1477076798273	1477076798370	P	80
373264	4024164	Presumably so do you.	Presumably so do you.	191157042	1477076799090	1477076799171	r	82
373264	4024164	Presumably so do you.	Presumably so do you.	191157046	1477076799249	1477076799401	e	69
373264	4024164	Presumably so do you.	Presumably so do you.	191157049	1477076799401	1477076799519	s	83
373264	4024164	Presumably so do you.	Presumably so do you.	191157052	1477076799706	1477076799850	u	85
373264	4024164	Presumably so do you.	Presumably so do you.	191157101	1477076800007	1477076800104	m	77
373264	4024164	Presumably so do you.	Presumably so do you.	191157105	1477076800213	1477076800335	a	65
373264	4024164	Presumably so do you.	Presumably so do you.	191157107	1477076800460	1477076800553	b	66
373264	4024164	Presumably so do you.	Presumably so do you.	191157109	1477076800616	1477076800720	l	76
373264	4024164	Presumably so do you.	Presumably so do you.	191157110	1477076800844	1477076800952	y	89
373264	4024164	Presumably so do you.	Presumably so do you.	191157167	1477076800968	1477076801070	 	32
373264	4024164	Presumably so do you.	Presumably so do you.	191157173	1477076801320	1477076801435	s	83
373264	4024164	Presumably so do you.	Presumably so do you.	191157178	1477076801466	1477076801616	o	79
373264	4024164	Presumably so do you.	Presumably so do you.	191157182	1477076801616	1477076801703	 	32
373264	4024164	Presumably so do you.	Presumably so do you.	191157188	1477076801875	1477076802002	d	68
373264	4024164	Presumably so do you.	Presumably so do you.	191157213	1477076802018	1477076802101	o	79
373264	4024164	Presumably so do you.	Presumably so do you.	191157218	1477076802133	1477076802274	 	32
373264	4024164	Presumably so do you.	Presumably so do you.	191157227	1477076802370	1477076802486	y	89
373264	4024164	Presumably so do you.	Presumably so do you.	191157234	1477076802486	1477076802658	o	79
373264	4024164	Presumably so do you.	Presumably so do you.	191157321	1477076802618	1477076802731	u	85
373264	4024164	Presumably so do you.	Presumably so do you.	191157324	1477076803465	1477076803538	.	190
373264	4024178	Drop him if he was on your Fantasy roster.	Drop him if he was on your Fanstasy roster.	191157601	1477076806254	1477076808194	SHIFT	16
373264	4024178	Drop him if he was on your Fantasy roster.	Drop him if he was on your Fanstasy roster.	191157604	1477076808150	1477076808284	D	68
373264	4024178	Drop him if he was on your Fantasy roster.	Drop him if he was on your Fanstasy roster.	191157609	1477076808408	1477076808519	r	82
373264	4024178	Drop him if he was on your Fantasy roster.	Drop him if he was on your Fanstasy roster.	191157613	1477076808535	1477076808665	o	79
373264	4024178	Drop him if he was on your Fantasy roster.	Drop him if he was on your Fanstasy roster.	191157615	1477076808649	1477076808799	p	80
373264	4024178	Drop him if he was on your Fantasy roster.	Drop him if he was on your Fanstasy roster.	191157617	1477076808846	1477076808968	h	72
373264	4024178	Drop him if he was on your Fantasy roster.	Drop him if he was on your Fanstasy roster.	191157686	1477076809469	1477076809566	BKSP	8
373264	4024178	Drop him if he was on your Fantasy roster.	Drop him if he was on your Fanstasy roster.	191157690	1477076809675	1477076809755	 	32
373264	4024178	Drop him if he was on your Fantasy roster.	Drop him if he was on your Fanstasy roster.	191157695	1477076810021	1477076810180	h	72
373264	4024178	Drop him if he was on your Fantasy roster.	Drop him if he was on your Fanstasy roster.	191157700	1477076810180	1477076810287	i	73
373264	4024178	Drop him if he was on your Fantasy roster.	Drop him if he was on your Fanstasy roster.	191157704	1477076810380	1477076810502	m	77
373264	4024178	Drop him if he was on your Fantasy roster.	Drop him if he was on your Fanstasy roster.	191157709	1477076810502	1477076810663	 	32
373264	4024178	Drop him if he was on your Fantasy roster.	Drop him if he was on your Fanstasy roster.	191157742	1477076810820	1477076810947	i	73
373264	4024178	Drop him if he was on your Fantasy roster.	Drop him if he was on your Fanstasy roster.	191157747	1477076810963	1477076811101	f	70
373264	4024178	Drop him if he was on your Fantasy roster.	Drop him if he was on your Fanstasy roster.	191157752	1477076811117	1477076811216	 	32
373264	4024178	Drop him if he was on your Fantasy roster.	Drop him if he was on your Fanstasy roster.	191157757	1477076811309	1477076811398	h	72
373264	4024178	Drop him if he was on your Fantasy roster.	Drop him if he was on your Fanstasy roster.	191157763	1477076811429	1477076811552	e	69
373264	4024178	Drop him if he was on your Fantasy roster.	Drop him if he was on your Fanstasy roster.	191157821	1477076811584	1477076811651	 	32
373264	4024178	Drop him if he was on your Fantasy roster.	Drop him if he was on your Fanstasy roster.	191157824	1477076811853	1477076811984	w	87
373264	4024178	Drop him if he was on your Fantasy roster.	Drop him if he was on your Fanstasy roster.	191157827	1477076812093	1477076812263	a	65
373264	4024178	Drop him if he was on your Fantasy roster.	Drop him if he was on your Fanstasy roster.	191157830	1477076812247	1477076812383	s	83
373264	4024178	Drop him if he was on your Fantasy roster.	Drop him if he was on your Fanstasy roster.	191157832	1477076812415	1477076812488	 	32
373264	4024178	Drop him if he was on your Fantasy roster.	Drop him if he was on your Fanstasy roster.	191157893	1477076812599	1477076812734	o	79
373264	4024178	Drop him if he was on your Fantasy roster.	Drop him if he was on your Fanstasy roster.	191157896	1477076812749	1477076812868	n	78
373264	4024178	Drop him if he was on your Fantasy roster.	Drop him if he was on your Fanstasy roster.	191157900	1477076812868	1477076812984	 	32
373264	4024178	Drop him if he was on your Fantasy roster.	Drop him if he was on your Fanstasy roster.	191157907	1477076813234	1477076813332	y	89
373264	4024178	Drop him if he was on your Fantasy roster.	Drop him if he was on your Fanstasy roster.	191157913	1477076813394	1477076813521	o	79
373264	4024178	Drop him if he was on your Fantasy roster.	Drop him if he was on your Fanstasy roster.	191158021	1477076813485	1477076813613	u	85
373264	4024178	Drop him if he was on your Fantasy roster.	Drop him if he was on your Fanstasy roster.	191158025	1477076813629	1477076813735	r	82
373264	4024178	Drop him if he was on your Fantasy roster.	Drop him if he was on your Fanstasy roster.	191158029	1477076813782	1477076813887	 	32
373264	4024178	Drop him if he was on your Fantasy roster.	Drop him if he was on your Fanstasy roster.	191158032	1477076814154	1477076814454	SHIFT	16
373264	4024178	Drop him if he was on your Fantasy roster.	Drop him if he was on your Fanstasy roster.	191158034	1477076814370	1477076814501	F	70
373264	4024178	Drop him if he was on your Fantasy roster.	Drop him if he was on your Fanstasy roster.	191158038	1477076814641	1477076814766	a	65
373264	4024178	Drop him if he was on your Fantasy roster.	Drop him if he was on your Fanstasy roster.	191158040	1477076814829	1477076814904	n	78
373264	4024178	Drop him if he was on your Fantasy roster.	Drop him if he was on your Fanstasy roster.	191158119	1477076814968	1477076815113	s	83
373264	4024178	Drop him if he was on your Fantasy roster.	Drop him if he was on your Fanstasy roster.	191158124	1477076815222	1477076815288	t	84
373264	4024178	Drop him if he was on your Fantasy roster.	Drop him if he was on your Fanstasy roster.	191158126	1477076815538	1477076815682	a	65
373264	4024178	Drop him if he was on your Fantasy roster.	Drop him if he was on your Fanstasy roster.	191158131	1477076815822	1477076815950	s	83
373264	4024178	Drop him if he was on your Fantasy roster.	Drop him if he was on your Fanstasy roster.	191158135	1477076816153	1477076816282	t	84
373264	4024178	Drop him if he was on your Fantasy roster.	Drop him if he was on your Fanstasy roster.	191158301	1477076816754	1477076816852	BKSP	8
373264	4024178	Drop him if he was on your Fantasy roster.	Drop him if he was on your Fanstasy roster.	191158308	1477076817164	1477076817238	y	89
373264	4024178	Drop him if he was on your Fantasy roster.	Drop him if he was on your Fanstasy roster.	191158313	1477076817300	1477076817405	 	32
373264	4024178	Drop him if he was on your Fantasy roster.	Drop him if he was on your Fanstasy roster.	191158318	1477076817983	1477076818113	r	82
373264	4024178	Drop him if he was on your Fantasy roster.	Drop him if he was on your Fanstasy roster.	191158324	1477076818129	1477076818235	o	79
373264	4024178	Drop him if he was on your Fantasy roster.	Drop him if he was on your Fanstasy roster.	191158329	1477076818313	1477076818450	s	83
373264	4024178	Drop him if he was on your Fantasy roster.	Drop him if he was on your Fanstasy roster.	191158419	1477076818545	1477076818668	t	84
373264	4024178	Drop him if he was on your Fantasy roster.	Drop him if he was on your Fanstasy roster.	191158430	1477076818824	1477076818994	e	69
373264	4024178	Drop him if he was on your Fantasy roster.	Drop him if he was on your Fanstasy roster.	191158440	1477076818935	1477076819064	r	82
373264	4024178	Drop him if he was on your Fantasy roster.	Drop him if he was on your Fanstasy roster.	191158445	1477076819376	1477076819437	.	190
373264	4024203	I'll call you when I get to the office.	I'll call you when I get to the office.\	191158814	1477076822317	1477076822473	SHIFT	16
373264	4024203	I'll call you when I get to the office.	I'll call you when I get to the office.\	191158820	1477076823119	1477076824076	SHIFT	16
373264	4024203	I'll call you when I get to the office.	I'll call you when I get to the office.\	191158817	1477076823840	1477076824029	I	73
373264	4024203	I'll call you when I get to the office.	I'll call you when I get to the office.\	191158824	1477076824170	1477076824250	'	222
373264	4024203	I'll call you when I get to the office.	I'll call you when I get to the office.\	191158828	1477076824439	1477076824506	l	76
373264	4024203	I'll call you when I get to the office.	I'll call you when I get to the office.\	191158832	1477076824709	1477076824787	l	76
373264	4024203	I'll call you when I get to the office.	I'll call you when I get to the office.\	191158839	1477076825021	1477076825135	 	32
373264	4024203	I'll call you when I get to the office.	I'll call you when I get to the office.\	191158893	1477076825386	1477076825530	c	67
373264	4024203	I'll call you when I get to the office.	I'll call you when I get to the office.\	191158897	1477076825608	1477076825750	a	65
373264	4024203	I'll call you when I get to the office.	I'll call you when I get to the office.\	191158902	1477076825781	1477076825838	l	76
373264	4024203	I'll call you when I get to the office.	I'll call you when I get to the office.\	191158910	1477076825932	1477076826035	l	76
373264	4024203	I'll call you when I get to the office.	I'll call you when I get to the office.\	191158920	1477076826082	1477076826155	 	32
373264	4024203	I'll call you when I get to the office.	I'll call you when I get to the office.\	191158966	1477076826296	1477076826449	y	89
373264	4024203	I'll call you when I get to the office.	I'll call you when I get to the office.\	191158970	1477076826449	1477076826594	o	79
373264	4024203	I'll call you when I get to the office.	I'll call you when I get to the office.\	191158974	1477076826553	1477076826665	u	85
373264	4024203	I'll call you when I get to the office.	I'll call you when I get to the office.\	191158978	1477076826712	1477076826804	 	32
373264	4024203	I'll call you when I get to the office.	I'll call you when I get to the office.\	191158982	1477076826976	1477076827100	w	87
373264	4024203	I'll call you when I get to the office.	I'll call you when I get to the office.\	191159025	1477076827115	1477076827201	h	72
373264	4024203	I'll call you when I get to the office.	I'll call you when I get to the office.\	191159029	1477076827279	1477076827401	e	69
373264	4024203	I'll call you when I get to the office.	I'll call you when I get to the office.\	191159033	1477076827401	1477076827500	n	78
373264	4024203	I'll call you when I get to the office.	I'll call you when I get to the office.\	191159038	1477076827515	1477076827634	 	32
373264	4024203	I'll call you when I get to the office.	I'll call you when I get to the office.\	191159096	1477076827712	1477076827999	SHIFT	16
373264	4024203	I'll call you when I get to the office.	I'll call you when I get to the office.\	191159041	1477076827837	1477076827951	I	73
373264	4024203	I'll call you when I get to the office.	I'll call you when I get to the office.\	191159098	1477076827999	1477076828067	 	32
373264	4024203	I'll call you when I get to the office.	I'll call you when I get to the office.\	191159103	1477076828349	1477076828479	g	71
373264	4024203	I'll call you when I get to the office.	I'll call you when I get to the office.\	191159108	1477076828557	1477076828738	e	69
373264	4024203	I'll call you when I get to the office.	I'll call you when I get to the office.\	191159112	1477076828698	1477076828832	t	84
373264	4024203	I'll call you when I get to the office.	I'll call you when I get to the office.\	191159115	1477076828863	1477076828922	 	32
373264	4024203	I'll call you when I get to the office.	I'll call you when I get to the office.\	191159149	1477076829032	1477076829167	t	84
373264	4024203	I'll call you when I get to the office.	I'll call you when I get to the office.\	191159153	1477076829167	1477076829281	o	79
373264	4024203	I'll call you when I get to the office.	I'll call you when I get to the office.\	191159155	1477076829281	1477076829386	 	32
373264	4024203	I'll call you when I get to the office.	I'll call you when I get to the office.\	191159157	1477076829434	1477076829551	t	84
373264	4024203	I'll call you when I get to the office.	I'll call you when I get to the office.\	191159159	1477076829582	1477076829670	h	72
373264	4024203	I'll call you when I get to the office.	I'll call you when I get to the office.\	191159208	1477076829670	1477076829767	e	69
373264	4024203	I'll call you when I get to the office.	I'll call you when I get to the office.\	191159216	1477076829767	1477076829870	 	32
373264	4024203	I'll call you when I get to the office.	I'll call you when I get to the office.\	191159225	1477076829979	1477076830070	o	79
373264	4024203	I'll call you when I get to the office.	I'll call you when I get to the office.\	191159231	1477076830101	1477076830201	f	70
373264	4024203	I'll call you when I get to the office.	I'll call you when I get to the office.\	191159234	1477076830295	1477076830403	f	70
373264	4024203	I'll call you when I get to the office.	I'll call you when I get to the office.\	191159434	1477076830498	1477076830572	i	73
373264	4024203	I'll call you when I get to the office.	I'll call you when I get to the office.\	191159445	1477076830634	1477076830768	c	67
373264	4024203	I'll call you when I get to the office.	I'll call you when I get to the office.\	191159449	1477076830815	1477076830936	e	69
373264	4024203	I'll call you when I get to the office.	I'll call you when I get to the office.\	191159453	1477076831310	1477076831356	.	190
373264	4024224	Japan's first man in space was a journalist.	Japan's first man in space was a journalist.	191159926	1477076835399	1477076838619	SHIFT	16
373264	4024224	Japan's first man in space was a journalist.	Japan's first man in space was a journalist.	191159928	1477076838473	1477076838619	J	74
373264	4024224	Japan's first man in space was a journalist.	Japan's first man in space was a journalist.	191159931	1477076838791	1477076838918	a	65
373264	4024224	Japan's first man in space was a journalist.	Japan's first man in space was a journalist.	191159934	1477076838981	1477076839088	p	80
373264	4024224	Japan's first man in space was a journalist.	Japan's first man in space was a journalist.	191159937	1477076839119	1477076839233	a	65
373264	4024224	Japan's first man in space was a journalist.	Japan's first man in space was a journalist.	191159939	1477076839279	1477076839371	n	78
373264	4024224	Japan's first man in space was a journalist.	Japan's first man in space was a journalist.	191159988	1477076839465	1477076839528	'	222
373264	4024224	Japan's first man in space was a journalist.	Japan's first man in space was a journalist.	191159990	1477076839606	1477076839721	s	83
373264	4024224	Japan's first man in space was a journalist.	Japan's first man in space was a journalist.	191159993	1477076839736	1477076839835	 	32
373264	4024224	Japan's first man in space was a journalist.	Japan's first man in space was a journalist.	191159996	1477076839944	1477076840084	f	70
373264	4024224	Japan's first man in space was a journalist.	Japan's first man in space was a journalist.	191159997	1477076840193	1477076840286	i	73
373264	4024224	Japan's first man in space was a journalist.	Japan's first man in space was a journalist.	191160084	1477076840428	1477076840537	r	82
373264	4024224	Japan's first man in space was a journalist.	Japan's first man in space was a journalist.	191160090	1477076840708	1477076840897	s	83
373264	4024224	Japan's first man in space was a journalist.	Japan's first man in space was a journalist.	191160098	1477076841006	1477076841119	t	84
373264	4024224	Japan's first man in space was a journalist.	Japan's first man in space was a journalist.	191160107	1477076841181	1477076841268	 	32
373264	4024224	Japan's first man in space was a journalist.	Japan's first man in space was a journalist.	191160113	1477076841883	1477076842001	m	77
373264	4024224	Japan's first man in space was a journalist.	Japan's first man in space was a journalist.	191160160	1477076842034	1477076842164	a	65
373264	4024224	Japan's first man in space was a journalist.	Japan's first man in space was a journalist.	191160164	1477076842195	1477076842272	n	78
373264	4024224	Japan's first man in space was a journalist.	Japan's first man in space was a journalist.	191160169	1477076842334	1477076842435	 	32
373264	4024224	Japan's first man in space was a journalist.	Japan's first man in space was a journalist.	191160173	1477076842517	1477076842636	i	73
373264	4024224	Japan's first man in space was a journalist.	Japan's first man in space was a journalist.	191160179	1477076842730	1477076842805	n	78
373264	4024224	Japan's first man in space was a journalist.	Japan's first man in space was a journalist.	191160271	1477076842821	1477076842934	 	32
373264	4024224	Japan's first man in space was a journalist.	Japan's first man in space was a journalist.	191160273	1477076843339	1477076843453	s	83
373264	4024224	Japan's first man in space was a journalist.	Japan's first man in space was a journalist.	191160276	1477076843485	1477076843598	p	80
373264	4024224	Japan's first man in space was a journalist.	Japan's first man in space was a journalist.	191160279	1477076843661	1477076843767	a	65
373264	4024224	Japan's first man in space was a journalist.	Japan's first man in space was a journalist.	191160282	1477076843829	1477076843954	c	67
373264	4024224	Japan's first man in space was a journalist.	Japan's first man in space was a journalist.	191160330	1477076844017	1477076844120	e	69
373264	4024224	Japan's first man in space was a journalist.	Japan's first man in space was a journalist.	191160333	1477076844136	1477076844250	 	32
373264	4024224	Japan's first man in space was a journalist.	Japan's first man in space was a journalist.	191160339	1477076844328	1477076844468	w	87
373264	4024224	Japan's first man in space was a journalist.	Japan's first man in space was a journalist.	191160341	1477076844517	1477076844694	a	65
373264	4024224	Japan's first man in space was a journalist.	Japan's first man in space was a journalist.	191160347	1477076844694	1477076844834	s	83
373264	4024224	Japan's first man in space was a journalist.	Japan's first man in space was a journalist.	191160420	1477076844867	1477076844950	 	32
373264	4024224	Japan's first man in space was a journalist.	Japan's first man in space was a journalist.	191160422	1477076845028	1477076845166	a	65
373264	4024224	Japan's first man in space was a journalist.	Japan's first man in space was a journalist.	191160424	1477076845181	1477076845255	 	32
373264	4024224	Japan's first man in space was a journalist.	Japan's first man in space was a journalist.	191160425	1477076845630	1477076845752	j	74
373264	4024224	Japan's first man in space was a journalist.	Japan's first man in space was a journalist.	191160427	1477076845783	1477076845964	o	79
373264	4024224	Japan's first man in space was a journalist.	Japan's first man in space was a journalist.	191160528	1477076845949	1477076846069	u	85
373264	4024224	Japan's first man in space was a journalist.	Japan's first man in space was a journalist.	191160531	1477076846085	1477076846215	r	82
373264	4024224	Japan's first man in space was a journalist.	Japan's first man in space was a journalist.	191160534	1477076846340	1477076846405	n	78
373264	4024224	Japan's first man in space was a journalist.	Japan's first man in space was a journalist.	191160536	1477076847063	1477076847216	a	65
373264	4024224	Japan's first man in space was a journalist.	Japan's first man in space was a journalist.	191160541	1477076847247	1477076847353	l	76
373264	4024224	Japan's first man in space was a journalist.	Japan's first man in space was a journalist.	191160544	1477076847463	1477076847601	i	73
373264	4024224	Japan's first man in space was a journalist.	Japan's first man in space was a journalist.	191160569	1477076847664	1477076847785	s	83
373264	4024224	Japan's first man in space was a journalist.	Japan's first man in space was a journalist.	191160570	1477076847988	1477076848087	t	84
373264	4024224	Japan's first man in space was a journalist.	Japan's first man in space was a journalist.	191160571	1477076848367	1477076848451	.	190
373264	4024246	Please send me an email to let me know.	Please send me an email to let me know.	191160870	1477076851099	1477076852866	SHIFT	16
373264	4024246	Please send me an email to let me know.	Please send me an email to let me know.	191160866	1477076852714	1477076852835	P	80
373264	4024246	Please send me an email to let me know.	Please send me an email to let me know.	191160874	1477076852928	1477076853021	l	76
373264	4024246	Please send me an email to let me know.	Please send me an email to let me know.	191160879	1477076853052	1477076853228	e	69
373264	4024246	Please send me an email to let me know.	Please send me an email to let me know.	191160883	1477076853213	1477076853382	a	65
373264	4024246	Please send me an email to let me know.	Please send me an email to let me know.	191160922	1477076853367	1477076853572	s	83
373264	4024246	Please send me an email to let me know.	Please send me an email to let me know.	191160928	1477076853516	1477076853666	e	69
373264	4024246	Please send me an email to let me know.	Please send me an email to let me know.	191160933	1477076853713	1477076853819	 	32
373264	4024246	Please send me an email to let me know.	Please send me an email to let me know.	191160937	1477076853975	1477076854102	s	83
373264	4024246	Please send me an email to let me know.	Please send me an email to let me know.	191160940	1477076854180	1477076854302	e	69
373264	4024246	Please send me an email to let me know.	Please send me an email to let me know.	191160943	1477076854349	1477076854421	n	78
373264	4024246	Please send me an email to let me know.	Please send me an email to let me know.	191160995	1477076854452	1477076854564	d	68
373264	4024246	Please send me an email to let me know.	Please send me an email to let me know.	191160999	1477076854626	1477076854704	 	32
373264	4024246	Please send me an email to let me know.	Please send me an email to let me know.	191161000	1477076854922	1477076855021	m	77
373264	4024246	Please send me an email to let me know.	Please send me an email to let me know.	191161002	1477076855379	1477076855486	e	69
373264	4024246	Please send me an email to let me know.	Please send me an email to let me know.	191161006	1477076855533	1477076855605	 	32
373264	4024246	Please send me an email to let me know.	Please send me an email to let me know.	191161057	1477076855715	1477076855850	a	65
373264	4024246	Please send me an email to let me know.	Please send me an email to let me know.	191161062	1477076855850	1477076855952	n	78
373264	4024246	Please send me an email to let me know.	Please send me an email to let me know.	191161069	1477076856030	1477076856121	 	32
373264	4024246	Please send me an email to let me know.	Please send me an email to let me know.	191161077	1477076856214	1477076856352	e	69
373264	4024246	Please send me an email to let me know.	Please send me an email to let me know.	191161080	1477076856367	1477076856513	m	77
373264	4024246	Please send me an email to let me know.	Please send me an email to let me know.	191161134	1477076856576	1477076856701	a	65
373264	4024246	Please send me an email to let me know.	Please send me an email to let me know.	191161139	1477076856747	1477076856868	i	73
373264	4024246	Please send me an email to let me know.	Please send me an email to let me know.	191161150	1477076856868	1477076856950	l	76
373264	4024246	Please send me an email to let me know.	Please send me an email to let me know.	191161157	1477076857294	1477076857367	 	32
373264	4024246	Please send me an email to let me know.	Please send me an email to let me know.	191161165	1477076857523	1477076857635	t	84
373264	4024246	Please send me an email to let me know.	Please send me an email to let me know.	191161217	1477076857635	1477076857733	o	79
373264	4024246	Please send me an email to let me know.	Please send me an email to let me know.	191161221	1477076857780	1477076857871	 	32
373264	4024246	Please send me an email to let me know.	Please send me an email to let me know.	191161227	1477076857980	1477076858071	l	76
373264	4024246	Please send me an email to let me know.	Please send me an email to let me know.	191161232	1477076858166	1477076858347	e	69
373264	4024246	Please send me an email to let me know.	Please send me an email to let me know.	191161237	1477076858394	1477076858455	a	65
373264	4024246	Please send me an email to let me know.	Please send me an email to let me know.	191161327	1477076858878	1477076858955	BKSP	8
373264	4024246	Please send me an email to let me know.	Please send me an email to let me know.	191161332	1477076859080	1477076859217	t	84
373264	4024246	Please send me an email to let me know.	Please send me an email to let me know.	191161335	1477076859280	1477076859356	 	32
373264	4024246	Please send me an email to let me know.	Please send me an email to let me know.	191161340	1477076859558	1477076859638	m	77
373264	4024246	Please send me an email to let me know.	Please send me an email to let me know.	191161345	1477076859669	1477076859814	e	69
373264	4024246	Please send me an email to let me know.	Please send me an email to let me know.	191161351	1477076859829	1477076859905	 	32
373264	4024246	Please send me an email to let me know.	Please send me an email to let me know.	191161401	1477076860079	1477076860171	k	75
373264	4024246	Please send me an email to let me know.	Please send me an email to let me know.	191161405	1477076860233	1477076860352	n	78
373264	4024246	Please send me an email to let me know.	Please send me an email to let me know.	191161407	1477076860399	1477076860471	o	79
373264	4024246	Please send me an email to let me know.	Please send me an email to let me know.	191161411	1477076860533	1477076860668	w	87
373264	4024246	Please send me an email to let me know.	Please send me an email to let me know.	191161415	1477076861105	1477076861187	.	190
373264	4024268	I will add this to the folder and let you know when we get into it.	I wil add this to the folder and let you know when we get into it	191161752	1477076864854	1477076865913	SHIFT	16
373264	4024268	I will add this to the folder and let you know when we get into it.	I wil add this to the folder and let you know when we get into it	191161749	1477076865717	1477076865867	I	73
373264	4024268	I will add this to the folder and let you know when we get into it.	I wil add this to the folder and let you know when we get into it	191161758	1477076866572	1477076866654	 	32
373264	4024268	I will add this to the folder and let you know when we get into it.	I wil add this to the folder and let you know when we get into it	191161764	1477076866732	1477076866850	w	87
373264	4024268	I will add this to the folder and let you know when we get into it.	I wil add this to the folder and let you know when we get into it	191161771	1477076866882	1477076867001	i	73
373264	4024268	I will add this to the folder and let you know when we get into it.	I wil add this to the folder and let you know when we get into it	191161778	1477076867017	1477076867134	l	76
373264	4024268	I will add this to the folder and let you know when we get into it.	I wil add this to the folder and let you know when we get into it	191161864	1477076867150	1477076867233	 	32
373264	4024268	I will add this to the folder and let you know when we get into it.	I wil add this to the folder and let you know when we get into it	191161867	1477076867389	1477076867547	d	68
373264	4024268	I will add this to the folder and let you know when we get into it.	I wil add this to the folder and let you know when we get into it	191161872	1477076867859	1477076867984	BKSP	8
373264	4024268	I will add this to the folder and let you know when we get into it.	I wil add this to the folder and let you know when we get into it	191161877	1477076868046	1477076868199	a	65
373264	4024268	I will add this to the folder and let you know when we get into it.	I wil add this to the folder and let you know when we get into it	191161881	1477076868293	1477076868387	d	68
373264	4024268	I will add this to the folder and let you know when we get into it.	I wil add this to the folder and let you know when we get into it	191161885	1477076868465	1477076868585	d	68
373264	4024268	I will add this to the folder and let you know when we get into it.	I wil add this to the folder and let you know when we get into it	191161914	1477076868633	1477076868707	 	32
373264	4024268	I will add this to the folder and let you know when we get into it.	I wil add this to the folder and let you know when we get into it	191161916	1477076868816	1477076868919	t	84
373264	4024268	I will add this to the folder and let you know when we get into it.	I wil add this to the folder and let you know when we get into it	191161917	1477076868919	1477076869048	h	72
373264	4024268	I will add this to the folder and let you know when we get into it.	I wil add this to the folder and let you know when we get into it	191161918	1477076869048	1477076869167	i	73
373264	4024268	I will add this to the folder and let you know when we get into it.	I wil add this to the folder and let you know when we get into it	191161920	1477076869214	1477076869318	s	83
373264	4024268	I will add this to the folder and let you know when we get into it.	I wil add this to the folder and let you know when we get into it	191161989	1477076869350	1477076869456	 	32
373264	4024268	I will add this to the folder and let you know when we get into it.	I wil add this to the folder and let you know when we get into it	191161993	1477076869878	1477076870016	t	84
373264	4024268	I will add this to the folder and let you know when we get into it.	I wil add this to the folder and let you know when we get into it	191162001	1477076870016	1477076870131	o	79
373264	4024268	I will add this to the folder and let you know when we get into it.	I wil add this to the folder and let you know when we get into it	191162006	1477076870146	1477076870256	 	32
373264	4024268	I will add this to the folder and let you know when we get into it.	I wil add this to the folder and let you know when we get into it	191162010	1477076870349	1477076870469	t	84
373264	4024268	I will add this to the folder and let you know when we get into it.	I wil add this to the folder and let you know when we get into it	191162076	1477076870500	1477076870552	h	72
373264	4024268	I will add this to the folder and let you know when we get into it.	I wil add this to the folder and let you know when we get into it	191162081	1477076870583	1477076870701	e	69
373264	4024268	I will add this to the folder and let you know when we get into it.	I wil add this to the folder and let you know when we get into it	191162085	1477076870733	1477076870820	 	32
373264	4024268	I will add this to the folder and let you know when we get into it.	I wil add this to the folder and let you know when we get into it	191162090	1477076871089	1477076871217	f	70
373264	4024268	I will add this to the folder and let you know when we get into it.	I wil add this to the folder and let you know when we get into it	191162097	1477076871419	1477076871531	o	79
373264	4024268	I will add this to the folder and let you know when we get into it.	I wil add this to the folder and let you know when we get into it	191162165	1477076871626	1477076871719	l	76
373264	4024268	I will add this to the folder and let you know when we get into it.	I wil add this to the folder and let you know when we get into it	191162172	1477076871782	1477076871886	d	68
373264	4024268	I will add this to the folder and let you know when we get into it.	I wil add this to the folder and let you know when we get into it	191162178	1477076871979	1477076872206	e	69
373264	4024268	I will add this to the folder and let you know when we get into it.	I wil add this to the folder and let you know when we get into it	191162187	1477076872148	1477076872268	r	82
373264	4024268	I will add this to the folder and let you know when we get into it.	I wil add this to the folder and let you know when we get into it	191162194	1477076872315	1477076872387	 	32
373264	4024268	I will add this to the folder and let you know when we get into it.	I wil add this to the folder and let you know when we get into it	191162252	1477076872437	1477076872595	a	65
373264	4024268	I will add this to the folder and let you know when we get into it.	I wil add this to the folder and let you know when we get into it	191162256	1477076872611	1477076872702	n	78
373264	4024268	I will add this to the folder and let you know when we get into it.	I wil add this to the folder and let you know when we get into it	191162260	1477076872718	1477076872815	d	68
373264	4024268	I will add this to the folder and let you know when we get into it.	I wil add this to the folder and let you know when we get into it	191162265	1477076872862	1477076872948	 	32
373264	4024268	I will add this to the folder and let you know when we get into it.	I wil add this to the folder and let you know when we get into it	191162270	1477076873046	1477076873152	l	76
373264	4024268	I will add this to the folder and let you know when we get into it.	I wil add this to the folder and let you know when we get into it	191162365	1477076873168	1477076873405	e	69
373264	4024268	I will add this to the folder and let you know when we get into it.	I wil add this to the folder and let you know when we get into it	191162368	1477076873421	1477076873504	t	82
373264	4024268	I will add this to the folder and let you know when we get into it.	I wil add this to the folder and let you know when we get into it	191162371	1477076873708	1477076873772	 	32
373264	4024268	I will add this to the folder and let you know when we get into it.	I wil add this to the folder and let you know when we get into it	191162374	1477076874118	1477076874164	BKSP	8
373264	4024268	I will add this to the folder and let you know when we get into it.	I wil add this to the folder and let you know when we get into it	191162377	1477076874231	1477076874289	BKSP	8
373264	4024268	I will add this to the folder and let you know when we get into it.	I wil add this to the folder and let you know when we get into it	191162381	1477076874367	1477076874449	BKSP	8
373264	4024268	I will add this to the folder and let you know when we get into it.	I wil add this to the folder and let you know when we get into it	191162387	1477076874589	1477076874718	t	84
373264	4024268	I will add this to the folder and let you know when we get into it.	I wil add this to the folder and let you know when we get into it	191162438	1477076874765	1477076874852	 	32
373264	4024268	I will add this to the folder and let you know when we get into it.	I wil add this to the folder and let you know when we get into it	191162443	1477076875332	1477076875451	y	89
373264	4024268	I will add this to the folder and let you know when we get into it.	I wil add this to the folder and let you know when we get into it	191162450	1477076875466	1477076875620	o	79
373264	4024268	I will add this to the folder and let you know when we get into it.	I wil add this to the folder and let you know when we get into it	191162455	1477076875584	1477076875697	u	85
373264	4024268	I will add this to the folder and let you know when we get into it.	I wil add this to the folder and let you know when we get into it	191162460	1477076875744	1477076875843	 	32
373264	4024268	I will add this to the folder and let you know when we get into it.	I wil add this to the folder and let you know when we get into it	191162531	1477076876635	1477076876765	k	75
373264	4024268	I will add this to the folder and let you know when we get into it.	I wil add this to the folder and let you know when we get into it	191162536	1477076876905	1477076877003	n	78
373264	4024268	I will add this to the folder and let you know when we get into it.	I wil add this to the folder and let you know when we get into it	191162546	1477076877065	1477076877168	o	79
373264	4024268	I will add this to the folder and let you know when we get into it.	I wil add this to the folder and let you know when we get into it	191162551	1477076877262	1477076877353	w	87
373264	4024268	I will add this to the folder and let you know when we get into it.	I wil add this to the folder and let you know when we get into it	191162557	1477076877400	1477076877505	 	32
373264	4024268	I will add this to the folder and let you know when we get into it.	I wil add this to the folder and let you know when we get into it	191162705	1477076877849	1477076877983	e	69
373264	4024268	I will add this to the folder and let you know when we get into it.	I wil add this to the folder and let you know when we get into it	191162708	1477076878295	1477076878404	=	187
373264	4024268	I will add this to the folder and let you know when we get into it.	I wil add this to the folder and let you know when we get into it	191162712	1477076878654	1477076878736	BKSP	8
373264	4024268	I will add this to the folder and let you know when we get into it.	I wil add this to the folder and let you know when we get into it	191162717	1477076878829	1477076878888	BKSP	8
373264	4024268	I will add this to the folder and let you know when we get into it.	I wil add this to the folder and let you know when we get into it	191162724	1477076879202	1477076879320	w	87
373264	4024268	I will add this to the folder and let you know when we get into it.	I wil add this to the folder and let you know when we get into it	191162730	1477076879367	1477076879469	h	72
373264	4024268	I will add this to the folder and let you know when we get into it.	I wil add this to the folder and let you know when we get into it	191162736	1477076879500	1477076879617	e	69
373264	4024268	I will add this to the folder and let you know when we get into it.	I wil add this to the folder and let you know when we get into it	191162781	1477076879633	1477076879731	n	78
373264	4024268	I will add this to the folder and let you know when we get into it.	I wil add this to the folder and let you know when we get into it	191162786	1477076879778	1477076879887	 	32
373264	4024268	I will add this to the folder and let you know when we get into it.	I wil add this to the folder and let you know when we get into it	191162792	1477076880215	1477076880435	w	87
373264	4024268	I will add this to the folder and let you know when we get into it.	I wil add this to the folder and let you know when we get into it	191162797	1477076880381	1477076880532	e	69
373264	4024268	I will add this to the folder and let you know when we get into it.	I wil add this to the folder and let you know when we get into it	191162801	1477076880547	1477076880628	 	32
373264	4024268	I will add this to the folder and let you know when we get into it.	I wil add this to the folder and let you know when we get into it	191162861	1477076880687	1477076880785	g	71
373264	4024268	I will add this to the folder and let you know when we get into it.	I wil add this to the folder and let you know when we get into it	191162867	1477076880863	1477076881044	e	69
373264	4024268	I will add this to the folder and let you know when we get into it.	I wil add this to the folder and let you know when we get into it	191162872	1477076880984	1477076881129	t	84
373264	4024268	I will add this to the folder and let you know when we get into it.	I wil add this to the folder and let you know when we get into it	191162882	1477076881145	1477076881252	 	32
373264	4024268	I will add this to the folder and let you know when we get into it.	I wil add this to the folder and let you know when we get into it	191162889	1477076881815	1477076881934	i	73
373264	4024268	I will add this to the folder and let you know when we get into it.	I wil add this to the folder and let you know when we get into it	191162923	1477076882013	1477076882103	n	78
373264	4024268	I will add this to the folder and let you know when we get into it.	I wil add this to the folder and let you know when we get into it	191162926	1477076882165	1477076882268	t	84
373264	4024268	I will add this to the folder and let you know when we get into it.	I wil add this to the folder and let you know when we get into it	191162930	1477076882284	1477076882429	o	79
373264	4024268	I will add this to the folder and let you know when we get into it.	I wil add this to the folder and let you know when we get into it	191162932	1477076882429	1477076882539	 	32
373264	4024268	I will add this to the folder and let you know when we get into it.	I wil add this to the folder and let you know when we get into it	191162936	1477076882695	1477076882786	i	73
373264	4024268	I will add this to the folder and let you know when we get into it.	I wil add this to the folder and let you know when we get into it	191162952	1477076882943	1477076883066	t	84
373264	4024298	Opening on the back nine she birdied the 11th and bogeyed the next.	Opening on the back nine she birdied the 11th and bogeyed the newt.	191163198	1477076885370	1477076886140	SHIFT	16
373264	4024298	Opening on the back nine she birdied the 11th and bogeyed the next.	Opening on the back nine she birdied the 11th and bogeyed the newt.	191163195	1477076885918	1477076886046	O	79
373264	4024298	Opening on the back nine she birdied the 11th and bogeyed the next.	Opening on the back nine she birdied the 11th and bogeyed the newt.	191163207	1477076886171	1477076886284	p	80
373264	4024298	Opening on the back nine she birdied the 11th and bogeyed the next.	Opening on the back nine she birdied the 11th and bogeyed the newt.	191163214	1477076886362	1477076886483	e	69
373264	4024298	Opening on the back nine she birdied the 11th and bogeyed the next.	Opening on the back nine she birdied the 11th and bogeyed the newt.	191163218	1477076886515	1477076886572	n	78
373264	4024298	Opening on the back nine she birdied the 11th and bogeyed the next.	Opening on the back nine she birdied the 11th and bogeyed the newt.	191163230	1477076886665	1477076886784	i	73
373264	4024298	Opening on the back nine she birdied the 11th and bogeyed the next.	Opening on the back nine she birdied the 11th and bogeyed the newt.	191163318	1477076886863	1477076886937	n	78
373264	4024298	Opening on the back nine she birdied the 11th and bogeyed the next.	Opening on the back nine she birdied the 11th and bogeyed the newt.	191163320	1477076887030	1477076887120	 	32
373264	4024298	Opening on the back nine she birdied the 11th and bogeyed the next.	Opening on the back nine she birdied the 11th and bogeyed the newt.	191163324	1477076887447	1477076887551	BKSP	8
373264	4024298	Opening on the back nine she birdied the 11th and bogeyed the next.	Opening on the back nine she birdied the 11th and bogeyed the newt.	191163330	1477076887708	1477076887830	g	71
373264	4024298	Opening on the back nine she birdied the 11th and bogeyed the next.	Opening on the back nine she birdied the 11th and bogeyed the newt.	191163337	1477076887846	1477076887953	 	32
373264	4024298	Opening on the back nine she birdied the 11th and bogeyed the next.	Opening on the back nine she birdied the 11th and bogeyed the newt.	191163341	1477076888171	1477076888300	o	79
373264	4024298	Opening on the back nine she birdied the 11th and bogeyed the next.	Opening on the back nine she birdied the 11th and bogeyed the newt.	191163377	1477076888379	1477076888469	n	78
373264	4024298	Opening on the back nine she birdied the 11th and bogeyed the next.	Opening on the back nine she birdied the 11th and bogeyed the newt.	191163385	1477076888563	1477076888637	 	32
373264	4024298	Opening on the back nine she birdied the 11th and bogeyed the next.	Opening on the back nine she birdied the 11th and bogeyed the newt.	191163389	1477076888809	1477076888934	t	84
373264	4024298	Opening on the back nine she birdied the 11th and bogeyed the next.	Opening on the back nine she birdied the 11th and bogeyed the newt.	191163399	1477076888902	1477076889015	h	72
373264	4024298	Opening on the back nine she birdied the 11th and bogeyed the next.	Opening on the back nine she birdied the 11th and bogeyed the newt.	191163407	1477076889077	1477076889184	e	69
373264	4024298	Opening on the back nine she birdied the 11th and bogeyed the next.	Opening on the back nine she birdied the 11th and bogeyed the newt.	191163461	1477076889232	1477076889300	 	32
373264	4024298	Opening on the back nine she birdied the 11th and bogeyed the next.	Opening on the back nine she birdied the 11th and bogeyed the newt.	191163464	1477076889565	1477076889653	b	66
373264	4024298	Opening on the back nine she birdied the 11th and bogeyed the next.	Opening on the back nine she birdied the 11th and bogeyed the newt.	191163471	1477076889764	1477076889868	a	65
373264	4024298	Opening on the back nine she birdied the 11th and bogeyed the next.	Opening on the back nine she birdied the 11th and bogeyed the newt.	191163478	1477076890008	1477076890087	c	67
373264	4024298	Opening on the back nine she birdied the 11th and bogeyed the next.	Opening on the back nine she birdied the 11th and bogeyed the newt.	191163485	1477076890134	1477076890264	k	75
373264	4024298	Opening on the back nine she birdied the 11th and bogeyed the next.	Opening on the back nine she birdied the 11th and bogeyed the newt.	191163556	1477076890279	1477076890366	 	32
373264	4024298	Opening on the back nine she birdied the 11th and bogeyed the next.	Opening on the back nine she birdied the 11th and bogeyed the newt.	191163561	1477076890444	1477076890567	n	78
373264	4024298	Opening on the back nine she birdied the 11th and bogeyed the next.	Opening on the back nine she birdied the 11th and bogeyed the newt.	191163565	1477076890614	1477076890744	i	73
373264	4024298	Opening on the back nine she birdied the 11th and bogeyed the next.	Opening on the back nine she birdied the 11th and bogeyed the newt.	191163568	1477076890822	1477076890903	n	78
373264	4024298	Opening on the back nine she birdied the 11th and bogeyed the next.	Opening on the back nine she birdied the 11th and bogeyed the newt.	191163572	1477076891106	1477076891208	e	69
373264	4024298	Opening on the back nine she birdied the 11th and bogeyed the next.	Opening on the back nine she birdied the 11th and bogeyed the newt.	191163600	1477076891224	1477076891334	 	32
373264	4024298	Opening on the back nine she birdied the 11th and bogeyed the next.	Opening on the back nine she birdied the 11th and bogeyed the newt.	191163603	1477076891460	1477076891569	s	83
373264	4024298	Opening on the back nine she birdied the 11th and bogeyed the next.	Opening on the back nine she birdied the 11th and bogeyed the newt.	191163607	1477076891616	1477076891746	h	72
373264	4024298	Opening on the back nine she birdied the 11th and bogeyed the next.	Opening on the back nine she birdied the 11th and bogeyed the newt.	191163611	1477076891777	1477076891882	e	69
373264	4024298	Opening on the back nine she birdied the 11th and bogeyed the next.	Opening on the back nine she birdied the 11th and bogeyed the newt.	191163616	1477076892007	1477076892087	 	32
373264	4024298	Opening on the back nine she birdied the 11th and bogeyed the next.	Opening on the back nine she birdied the 11th and bogeyed the newt.	191163787	1477076892730	1477076892850	b	66
373264	4024298	Opening on the back nine she birdied the 11th and bogeyed the next.	Opening on the back nine she birdied the 11th and bogeyed the newt.	191163793	1477076893006	1477076893070	i	73
373264	4024298	Opening on the back nine she birdied the 11th and bogeyed the next.	Opening on the back nine she birdied the 11th and bogeyed the newt.	191163799	1477076893195	1477076893301	r	82
373264	4024298	Opening on the back nine she birdied the 11th and bogeyed the next.	Opening on the back nine she birdied the 11th and bogeyed the newt.	191163804	1477076893675	1477076893738	g	71
373264	4024298	Opening on the back nine she birdied the 11th and bogeyed the next.	Opening on the back nine she birdied the 11th and bogeyed the newt.	191163811	1477076894081	1477076894169	BKSP	8
373264	4024298	Opening on the back nine she birdied the 11th and bogeyed the next.	Opening on the back nine she birdied the 11th and bogeyed the newt.	191163818	1477076894294	1477076894417	d	68
373264	4024298	Opening on the back nine she birdied the 11th and bogeyed the next.	Opening on the back nine she birdied the 11th and bogeyed the newt.	191164065	1477076894511	1477076894602	i	73
373264	4024298	Opening on the back nine she birdied the 11th and bogeyed the next.	Opening on the back nine she birdied the 11th and bogeyed the newt.	191164069	1477076894804	1477076894917	e	69
373264	4024298	Opening on the back nine she birdied the 11th and bogeyed the next.	Opening on the back nine she birdied the 11th and bogeyed the newt.	191164072	1477076895291	1477076895417	BKSP	8
373264	4024298	Opening on the back nine she birdied the 11th and bogeyed the next.	Opening on the back nine she birdied the 11th and bogeyed the newt.	191164075	1477076896354	1477076896467	e	69
373264	4024298	Opening on the back nine she birdied the 11th and bogeyed the next.	Opening on the back nine she birdied the 11th and bogeyed the newt.	191164080	1477076897549	1477076897667	d	68
373264	4024298	Opening on the back nine she birdied the 11th and bogeyed the next.	Opening on the back nine she birdied the 11th and bogeyed the newt.	191164083	1477076897745	1477076897851	 	32
373264	4024298	Opening on the back nine she birdied the 11th and bogeyed the next.	Opening on the back nine she birdied the 11th and bogeyed the newt.	191164137	1477076897899	1477076898030	t	84
373264	4024298	Opening on the back nine she birdied the 11th and bogeyed the next.	Opening on the back nine she birdied the 11th and bogeyed the newt.	191164142	1477076898045	1477076898151	h	72
373264	4024298	Opening on the back nine she birdied the 11th and bogeyed the next.	Opening on the back nine she birdied the 11th and bogeyed the newt.	191164149	1477076898167	1477076898281	e	69
373264	4024298	Opening on the back nine she birdied the 11th and bogeyed the next.	Opening on the back nine she birdied the 11th and bogeyed the newt.	191164155	1477076898265	1477076898368	 	32
373264	4024298	Opening on the back nine she birdied the 11th and bogeyed the next.	Opening on the back nine she birdied the 11th and bogeyed the newt.	191164160	1477076898745	1477076898867	1	49
373264	4024298	Opening on the back nine she birdied the 11th and bogeyed the next.	Opening on the back nine she birdied the 11th and bogeyed the newt.	191164230	1477076898931	1477076899035	1	49
373264	4024298	Opening on the back nine she birdied the 11th and bogeyed the next.	Opening on the back nine she birdied the 11th and bogeyed the newt.	191164235	1477076899191	1477076899286	t	84
373264	4024298	Opening on the back nine she birdied the 11th and bogeyed the next.	Opening on the back nine she birdied the 11th and bogeyed the newt.	191164240	1477076899317	1477076899400	h	72
373264	4024298	Opening on the back nine she birdied the 11th and bogeyed the next.	Opening on the back nine she birdied the 11th and bogeyed the newt.	191164244	1477076899478	1477076899600	 	32
373264	4024298	Opening on the back nine she birdied the 11th and bogeyed the next.	Opening on the back nine she birdied the 11th and bogeyed the newt.	191164247	1477076899899	1477076900033	a	65
373264	4024298	Opening on the back nine she birdied the 11th and bogeyed the next.	Opening on the back nine she birdied the 11th and bogeyed the newt.	191164338	1477076900048	1477076900137	n	78
373264	4024298	Opening on the back nine she birdied the 11th and bogeyed the next.	Opening on the back nine she birdied the 11th and bogeyed the newt.	191164341	1477076900168	1477076900265	d	68
373264	4024298	Opening on the back nine she birdied the 11th and bogeyed the next.	Opening on the back nine she birdied the 11th and bogeyed the newt.	191164345	1477076900265	1477076900368	 	32
373264	4024298	Opening on the back nine she birdied the 11th and bogeyed the next.	Opening on the back nine she birdied the 11th and bogeyed the newt.	191164349	1477076900836	1477076900965	b	66
373264	4024298	Opening on the back nine she birdied the 11th and bogeyed the next.	Opening on the back nine she birdied the 11th and bogeyed the newt.	191164355	1477076901059	1477076901199	o	79
373264	4024298	Opening on the back nine she birdied the 11th and bogeyed the next.	Opening on the back nine she birdied the 11th and bogeyed the newt.	191164486	1477076902012	1477076902180	g	71
373264	4024298	Opening on the back nine she birdied the 11th and bogeyed the next.	Opening on the back nine she birdied the 11th and bogeyed the newt.	191164488	1477076902634	1477076902762	e	69
373264	4024298	Opening on the back nine she birdied the 11th and bogeyed the next.	Opening on the back nine she birdied the 11th and bogeyed the newt.	191164491	1477076902746	1477076902819	y	89
373264	4024298	Opening on the back nine she birdied the 11th and bogeyed the next.	Opening on the back nine she birdied the 11th and bogeyed the newt.	191164495	1477076902928	1477076903019	e	69
373264	4024298	Opening on the back nine she birdied the 11th and bogeyed the next.	Opening on the back nine she birdied the 11th and bogeyed the newt.	191164500	1477076903112	1477076903202	d	68
373264	4024298	Opening on the back nine she birdied the 11th and bogeyed the next.	Opening on the back nine she birdied the 11th and bogeyed the newt.	191164519	1477076903250	1477076903347	 	32
373264	4024298	Opening on the back nine she birdied the 11th and bogeyed the next.	Opening on the back nine she birdied the 11th and bogeyed the newt.	191164523	1477076903393	1477076903500	t	84
373264	4024298	Opening on the back nine she birdied the 11th and bogeyed the next.	Opening on the back nine she birdied the 11th and bogeyed the newt.	191164530	1477076903500	1477076903582	h	72
373264	4024298	Opening on the back nine she birdied the 11th and bogeyed the next.	Opening on the back nine she birdied the 11th and bogeyed the newt.	191164536	1477076903598	1477076903712	e	69
373264	4024298	Opening on the back nine she birdied the 11th and bogeyed the next.	Opening on the back nine she birdied the 11th and bogeyed the newt.	191164540	1477076903712	1477076903786	 	32
373264	4024298	Opening on the back nine she birdied the 11th and bogeyed the next.	Opening on the back nine she birdied the 11th and bogeyed the newt.	191164605	1477076903912	1477076904001	n	78
373264	4024298	Opening on the back nine she birdied the 11th and bogeyed the next.	Opening on the back nine she birdied the 11th and bogeyed the newt.	191164606	1477076904048	1477076904212	e	69
373264	4024298	Opening on the back nine she birdied the 11th and bogeyed the next.	Opening on the back nine she birdied the 11th and bogeyed the newt.	191164608	1477076904178	1477076904316	w	87
373264	4024298	Opening on the back nine she birdied the 11th and bogeyed the next.	Opening on the back nine she birdied the 11th and bogeyed the newt.	191164610	1477076904503	1477076904618	t	84
373264	4024298	Opening on the back nine she birdied the 11th and bogeyed the next.	Opening on the back nine she birdied the 11th and bogeyed the newt.	191164614	1477076904822	1477076904884	.	190
373264	4024333	We are going to send some money to a fund to help the victims.	We are going to send some money to a fund to help the victims	191165039	1477076907187	1477076909868	SHIFT	16
373264	4024333	We are going to send some money to a fund to help the victims.	We are going to send some money to a fund to help the victims	191165044	1477076909774	1477076909982	W	87
373264	4024333	We are going to send some money to a fund to help the victims.	We are going to send some money to a fund to help the victims	191165052	1477076909900	1477076910060	e	69
373264	4024333	We are going to send some money to a fund to help the victims.	We are going to send some money to a fund to help the victims	191165059	1477076910076	1477076910168	 	32
373264	4024333	We are going to send some money to a fund to help the victims.	We are going to send some money to a fund to help the victims	191165062	1477076910231	1477076910436	a	65
373264	4024333	We are going to send some money to a fund to help the victims.	We are going to send some money to a fund to help the victims	191165081	1477076910381	1477076910518	r	82
373264	4024333	We are going to send some money to a fund to help the victims.	We are going to send some money to a fund to help the victims	191165082	1477076910533	1477076910662	e	69
373264	4024333	We are going to send some money to a fund to help the victims.	We are going to send some money to a fund to help the victims	191165085	1477076910678	1477076910785	 	32
373264	4024333	We are going to send some money to a fund to help the victims.	We are going to send some money to a fund to help the victims	191165087	1477076910926	1477076911017	g	71
373264	4024333	We are going to send some money to a fund to help the victims.	We are going to send some money to a fund to help the victims	191165088	1477076911080	1477076911214	o	79
373264	4024333	We are going to send some money to a fund to help the victims.	We are going to send some money to a fund to help the victims	191165119	1477076911198	1477076911312	i	73
373264	4024333	We are going to send some money to a fund to help the victims.	We are going to send some money to a fund to help the victims	191165121	1477076911374	1477076911436	n	78
373264	4024333	We are going to send some money to a fund to help the victims.	We are going to send some money to a fund to help the victims	191165124	1477076911452	1477076911565	g	71
373264	4024333	We are going to send some money to a fund to help the victims.	We are going to send some money to a fund to help the victims	191165128	1477076911612	1477076911670	 	32
373264	4024333	We are going to send some money to a fund to help the victims.	We are going to send some money to a fund to help the victims	191165133	1477076911795	1477076911919	t	84
373264	4024333	We are going to send some money to a fund to help the victims.	We are going to send some money to a fund to help the victims	191165190	1477076911853	1477076911984	o	79
373264	4024333	We are going to send some money to a fund to help the victims.	We are going to send some money to a fund to help the victims	191165192	1477076912015	1477076912117	 	32
373264	4024333	We are going to send some money to a fund to help the victims.	We are going to send some money to a fund to help the victims	191165195	1477076912179	1477076912330	s	83
373264	4024333	We are going to send some money to a fund to help the victims.	We are going to send some money to a fund to help the victims	191165198	1477076912314	1477076912449	e	69
373264	4024333	We are going to send some money to a fund to help the victims.	We are going to send some money to a fund to help the victims	191165201	1477076912527	1477076912618	n	78
373264	4024333	We are going to send some money to a fund to help the victims.	We are going to send some money to a fund to help the victims	191165203	1477076912696	1477076912816	d	68
373264	4024333	We are going to send some money to a fund to help the victims.	We are going to send some money to a fund to help the victims	191165233	1477076912848	1477076912931	 	32
373264	4024333	We are going to send some money to a fund to help the victims.	We are going to send some money to a fund to help the victims	191165238	1477076913121	1477076913249	s	83
373264	4024333	We are going to send some money to a fund to help the victims.	We are going to send some money to a fund to help the victims	191165241	1477076913249	1477076913378	o	79
373264	4024333	We are going to send some money to a fund to help the victims.	We are going to send some money to a fund to help the victims	191165244	1477076913393	1477076913498	m	77
373264	4024333	We are going to send some money to a fund to help the victims.	We are going to send some money to a fund to help the victims	191165247	1477076913514	1477076913632	e	69
373264	4024333	We are going to send some money to a fund to help the victims.	We are going to send some money to a fund to help the victims	191165305	1477076913632	1477076913730	 	32
373264	4024333	We are going to send some money to a fund to help the victims.	We are going to send some money to a fund to help the victims	191165311	1477076913840	1477076913934	m	77
373264	4024333	We are going to send some money to a fund to help the victims.	We are going to send some money to a fund to help the victims	191165322	1477076913996	1477076914116	o	79
373264	4024333	We are going to send some money to a fund to help the victims.	We are going to send some money to a fund to help the victims	191165324	1477076914163	1477076914283	n	78
373264	4024333	We are going to send some money to a fund to help the victims.	We are going to send some money to a fund to help the victims	191165329	1477076914423	1477076914534	e	69
373264	4024333	We are going to send some money to a fund to help the victims.	We are going to send some money to a fund to help the victims	191165421	1477076914580	1477076914652	y	89
373264	4024333	We are going to send some money to a fund to help the victims.	We are going to send some money to a fund to help the victims	191165423	1477076915373	1477076915468	 	32
373264	4024333	We are going to send some money to a fund to help the victims.	We are going to send some money to a fund to help the victims	191165425	1477076915639	1477076915764	t	84
373264	4024333	We are going to send some money to a fund to help the victims.	We are going to send some money to a fund to help the victims	191165427	1477076915719	1477076915802	o	79
373264	4024333	We are going to send some money to a fund to help the victims.	We are going to send some money to a fund to help the victims	191165429	1477076915880	1477076915953	 	32
373264	4024333	We are going to send some money to a fund to help the victims.	We are going to send some money to a fund to help the victims	191165497	1477076916471	1477076916628	a	65
373264	4024333	We are going to send some money to a fund to help the victims.	We are going to send some money to a fund to help the victims	191165502	1477076916568	1477076916664	 	32
373264	4024333	We are going to send some money to a fund to help the victims.	We are going to send some money to a fund to help the victims	191165507	1477076916992	1477076917101	f	70
373264	4024333	We are going to send some money to a fund to help the victims.	We are going to send some money to a fund to help the victims	191165513	1477076917132	1477076917231	u	85
373264	4024333	We are going to send some money to a fund to help the victims.	We are going to send some money to a fund to help the victims	191165522	1477076917356	1477076917436	n	78
373264	4024333	We are going to send some money to a fund to help the victims.	We are going to send some money to a fund to help the victims	191165639	1477076917548	1477076917666	d	68
373264	4024333	We are going to send some money to a fund to help the victims.	We are going to send some money to a fund to help the victims	191165642	1477076917728	1477076917818	 	32
373264	4024333	We are going to send some money to a fund to help the victims.	We are going to send some money to a fund to help the victims	191165645	1477076918523	1477076918649	t	84
373264	4024333	We are going to send some money to a fund to help the victims.	We are going to send some money to a fund to help the victims	191165650	1477076918633	1477076918747	o	79
373264	4024333	We are going to send some money to a fund to help the victims.	We are going to send some money to a fund to help the victims	191165655	1477076918778	1477076918900	 	32
373264	4024333	We are going to send some money to a fund to help the victims.	We are going to send some money to a fund to help the victims	191165688	1477076919010	1477076919117	h	72
373264	4024333	We are going to send some money to a fund to help the victims.	We are going to send some money to a fund to help the victims	191165692	1477076919164	1477076919298	e	69
373264	4024333	We are going to send some money to a fund to help the victims.	We are going to send some money to a fund to help the victims	191165699	1477076919360	1477076919435	l	76
373264	4024333	We are going to send some money to a fund to help the victims.	We are going to send some money to a fund to help the victims	191165704	1477076919591	1477076919700	p	80
373264	4024333	We are going to send some money to a fund to help the victims.	We are going to send some money to a fund to help the victims	191165708	1477076919763	1477076919835	 	32
373264	4024333	We are going to send some money to a fund to help the victims.	We are going to send some money to a fund to help the victims	191165819	1477076919961	1477076920084	t	84
373264	4024333	We are going to send some money to a fund to help the victims.	We are going to send some money to a fund to help the victims	191165829	1477076920035	1477076920133	h	72
373264	4024333	We are going to send some money to a fund to help the victims.	We are going to send some money to a fund to help the victims	191165837	1477076920211	1477076920348	e	69
373264	4024333	We are going to send some money to a fund to help the victims.	We are going to send some money to a fund to help the victims	191165847	1477076920333	1477076920415	 	32
373264	4024333	We are going to send some money to a fund to help the victims.	We are going to send some money to a fund to help the victims	191165859	1477076921029	1477076921135	v	86
373264	4024333	We are going to send some money to a fund to help the victims.	We are going to send some money to a fund to help the victims	191165979	1477076921183	1477076921280	i	73
373264	4024333	We are going to send some money to a fund to help the victims.	We are going to send some money to a fund to help the victims	191165980	1477076921342	1477076921450	c	67
373264	4024333	We are going to send some money to a fund to help the victims.	We are going to send some money to a fund to help the victims	191165983	1477076921606	1477076921732	t	84
373264	4024333	We are going to send some money to a fund to help the victims.	We are going to send some money to a fund to help the victims	191165986	1477076922438	1477076922551	i	73
373264	4024333	We are going to send some money to a fund to help the victims.	We are going to send some money to a fund to help the victims	191165988	1477076922676	1477076922784	m	77
373264	4024333	We are going to send some money to a fund to help the victims.	We are going to send some money to a fund to help the victims	191166002	1477076922878	1477076922983	s	83
373264	4024363	It's a shame to have to miss one or the other.	It's a shame to have to miss one of the other.	191166898	1477076933239	1477076935465	SHIFT	16
373264	4024363	It's a shame to have to miss one or the other.	It's a shame to have to miss one of the other.	191166900	1477076935341	1477076935465	I	73
373264	4024363	It's a shame to have to miss one or the other.	It's a shame to have to miss one of the other.	191166903	1477076935512	1477076935600	t	84
373264	4024363	It's a shame to have to miss one or the other.	It's a shame to have to miss one of the other.	191166909	1477076935678	1477076935752	'	222
373264	4024363	It's a shame to have to miss one or the other.	It's a shame to have to miss one of the other.	191166912	1477076935830	1477076935932	s	83
373264	4024363	It's a shame to have to miss one or the other.	It's a shame to have to miss one of the other.	191166916	1477076935979	1477076936066	 	32
373264	4024363	It's a shame to have to miss one or the other.	It's a shame to have to miss one of the other.	191166960	1477076936286	1477076936417	a	65
373264	4024363	It's a shame to have to miss one or the other.	It's a shame to have to miss one of the other.	191166963	1477076936464	1477076936595	 	32
373264	4024363	It's a shame to have to miss one or the other.	It's a shame to have to miss one of the other.	191166967	1477076936689	1477076936783	s	83
373264	4024363	It's a shame to have to miss one or the other.	It's a shame to have to miss one of the other.	191166976	1477076936845	1477076936949	h	72
373264	4024363	It's a shame to have to miss one or the other.	It's a shame to have to miss one of the other.	191166985	1477076936996	1477076937098	a	65
373264	4024363	It's a shame to have to miss one or the other.	It's a shame to have to miss one of the other.	191167025	1477076937130	1477076937217	m	77
373264	4024363	It's a shame to have to miss one or the other.	It's a shame to have to miss one of the other.	191167028	1477076937280	1477076937396	e	69
373264	4024363	It's a shame to have to miss one or the other.	It's a shame to have to miss one of the other.	191167030	1477076937427	1477076937517	 	32
373264	4024363	It's a shame to have to miss one or the other.	It's a shame to have to miss one of the other.	191167035	1477076937595	1477076937731	t	84
373264	4024363	It's a shame to have to miss one or the other.	It's a shame to have to miss one of the other.	191167102	1477076937699	1477076937796	o	79
373264	4024363	It's a shame to have to miss one or the other.	It's a shame to have to miss one of the other.	191167105	1477076937812	1477076937948	 	32
373264	4024363	It's a shame to have to miss one or the other.	It's a shame to have to miss one of the other.	191167108	1477076938019	1477076938116	h	72
373264	4024363	It's a shame to have to miss one or the other.	It's a shame to have to miss one of the other.	191167114	1477076938163	1477076938313	a	65
373264	4024363	It's a shame to have to miss one or the other.	It's a shame to have to miss one of the other.	191167117	1477076938360	1477076938467	v	86
373264	4024363	It's a shame to have to miss one or the other.	It's a shame to have to miss one of the other.	191167124	1477076938513	1477076938675	e	69
373264	4024363	It's a shame to have to miss one or the other.	It's a shame to have to miss one of the other.	191167157	1477076938675	1477076938736	 	32
373264	4024363	It's a shame to have to miss one or the other.	It's a shame to have to miss one of the other.	191167159	1477076938829	1477076938948	t	84
373264	4024363	It's a shame to have to miss one or the other.	It's a shame to have to miss one of the other.	191167162	1477076938948	1477076939046	o	79
373264	4024363	It's a shame to have to miss one or the other.	It's a shame to have to miss one of the other.	191167165	1477076939077	1477076939169	 	32
373264	4024363	It's a shame to have to miss one or the other.	It's a shame to have to miss one of the other.	191167168	1477076939293	1477076939368	m	77
373264	4024363	It's a shame to have to miss one or the other.	It's a shame to have to miss one of the other.	191167225	1477076939463	1477076939551	i	73
373264	4024363	It's a shame to have to miss one or the other.	It's a shame to have to miss one of the other.	191167227	1477076939598	1477076939680	s	83
373264	4024363	It's a shame to have to miss one or the other.	It's a shame to have to miss one of the other.	191167230	1477076939743	1477076939850	s	83
373264	4024363	It's a shame to have to miss one or the other.	It's a shame to have to miss one of the other.	191167233	1477076939912	1477076940001	 	32
373264	4024363	It's a shame to have to miss one or the other.	It's a shame to have to miss one of the other.	191167235	1477076940079	1477076940198	o	79
373264	4024363	It's a shame to have to miss one or the other.	It's a shame to have to miss one of the other.	191167260	1477076940214	1477076940317	n	78
373264	4024363	It's a shame to have to miss one or the other.	It's a shame to have to miss one of the other.	191167262	1477076940364	1477076940498	e	69
373264	4024363	It's a shame to have to miss one or the other.	It's a shame to have to miss one of the other.	191167269	1477076940591	1477076940699	 	32
373264	4024363	It's a shame to have to miss one or the other.	It's a shame to have to miss one of the other.	191167279	1477076940888	1477076940953	o	79
373264	4024363	It's a shame to have to miss one or the other.	It's a shame to have to miss one of the other.	191167288	1477076941015	1477076941129	f	70
373264	4024363	It's a shame to have to miss one or the other.	It's a shame to have to miss one of the other.	191167313	1477076941161	1477076941266	 	32
373264	4024363	It's a shame to have to miss one or the other.	It's a shame to have to miss one of the other.	191167316	1477076941313	1477076941428	t	84
373264	4024363	It's a shame to have to miss one or the other.	It's a shame to have to miss one of the other.	191167318	1477076941385	1477076941468	h	72
373264	4024363	It's a shame to have to miss one or the other.	It's a shame to have to miss one of the other.	191167321	1477076941546	1477076941667	e	69
373264	4024363	It's a shame to have to miss one or the other.	It's a shame to have to miss one of the other.	191167362	1477076941634	1477076941701	 	32
373264	4024363	It's a shame to have to miss one or the other.	It's a shame to have to miss one of the other.	191167369	1477076941873	1477076941950	o	79
373264	4024363	It's a shame to have to miss one or the other.	It's a shame to have to miss one of the other.	191167376	1477076942106	1477076942221	t	84
373264	4024363	It's a shame to have to miss one or the other.	It's a shame to have to miss one of the other.	191167382	1477076942236	1477076942334	h	72
373264	4024363	It's a shame to have to miss one or the other.	It's a shame to have to miss one of the other.	191167389	1477076942381	1477076942564	e	69
373264	4024363	It's a shame to have to miss one or the other.	It's a shame to have to miss one of the other.	191167411	1477076942514	1477076942630	r	82
373264	4024363	It's a shame to have to miss one or the other.	It's a shame to have to miss one of the other.	191167416	1477076942974	1477076943036	.	190
373264	4024393	I encourage each of you to attend or tune in tomorrow.	I encourage each of you th attend of tune in tomorrow.	191167879	1477076945671	1477076948515	SHIFT	16
373264	4024393	I encourage each of you to attend or tune in tomorrow.	I encourage each of you th attend of tune in tomorrow.	191167881	1477076948404	1477076948515	I	73
373264	4024393	I encourage each of you to attend or tune in tomorrow.	I encourage each of you th attend of tune in tomorrow.	191167886	1477076948624	1477076948717	 	32
373264	4024393	I encourage each of you to attend or tune in tomorrow.	I encourage each of you th attend of tune in tomorrow.	191167893	1477076949265	1477076949393	e	69
373264	4024393	I encourage each of you to attend or tune in tomorrow.	I encourage each of you th attend of tune in tomorrow.	191167900	1477076949440	1477076949517	n	78
373264	4024393	I encourage each of you to attend or tune in tomorrow.	I encourage each of you th attend of tune in tomorrow.	191167908	1477076949611	1477076949669	c	67
373264	4024393	I encourage each of you to attend or tune in tomorrow.	I encourage each of you th attend of tune in tomorrow.	191167976	1477076949795	1477076949946	o	79
373264	4024393	I encourage each of you to attend or tune in tomorrow.	I encourage each of you th attend of tune in tomorrow.	191167981	1477076949931	1477076950048	u	85
373264	4024393	I encourage each of you to attend or tune in tomorrow.	I encourage each of you th attend of tune in tomorrow.	191167985	1477076950095	1477076950199	r	82
373264	4024393	I encourage each of you to attend or tune in tomorrow.	I encourage each of you th attend of tune in tomorrow.	191167988	1477076950420	1477076950580	a	65
373264	4024393	I encourage each of you to attend or tune in tomorrow.	I encourage each of you th attend of tune in tomorrow.	191167990	1477076950674	1477076950768	g	71
373264	4024393	I encourage each of you to attend or tune in tomorrow.	I encourage each of you th attend of tune in tomorrow.	191168068	1477076950831	1477076950965	e	69
373264	4024393	I encourage each of you to attend or tune in tomorrow.	I encourage each of you th attend of tune in tomorrow.	191168070	1477076950996	1477076951055	 	32
373264	4024393	I encourage each of you to attend or tune in tomorrow.	I encourage each of you th attend of tune in tomorrow.	191168074	1477076951478	1477076951584	e	69
373264	4024393	I encourage each of you to attend or tune in tomorrow.	I encourage each of you th attend of tune in tomorrow.	191168079	1477076951693	1477076951832	a	65
373264	4024393	I encourage each of you to attend or tune in tomorrow.	I encourage each of you th attend of tune in tomorrow.	191168086	1477076952113	1477076952186	c	67
373264	4024393	I encourage each of you to attend or tune in tomorrow.	I encourage each of you th attend of tune in tomorrow.	191168131	1477076952218	1477076952315	h	72
373264	4024393	I encourage each of you to attend or tune in tomorrow.	I encourage each of you th attend of tune in tomorrow.	191168136	1477076952378	1477076952484	 	32
373264	4024393	I encourage each of you to attend or tune in tomorrow.	I encourage each of you th attend of tune in tomorrow.	191168140	1477076952593	1477076952669	o	79
373264	4024393	I encourage each of you to attend or tune in tomorrow.	I encourage each of you th attend of tune in tomorrow.	191168141	1477076952766	1477076952882	f	70
373264	4024393	I encourage each of you to attend or tune in tomorrow.	I encourage each of you th attend of tune in tomorrow.	191168145	1477076952898	1477076952981	 	32
373264	4024393	I encourage each of you to attend or tune in tomorrow.	I encourage each of you th attend of tune in tomorrow.	191168318	1477076953154	1477076953266	y	89
373264	4024393	I encourage each of you to attend or tune in tomorrow.	I encourage each of you th attend of tune in tomorrow.	191168320	1477076953422	1477076953535	u	85
373264	4024393	I encourage each of you to attend or tune in tomorrow.	I encourage each of you th attend of tune in tomorrow.	191168323	1477076953566	1477076953670	 	32
373264	4024393	I encourage each of you to attend or tune in tomorrow.	I encourage each of you th attend of tune in tomorrow.	191168327	1477076954278	1477076954353	BKSP	8
373264	4024393	I encourage each of you to attend or tune in tomorrow.	I encourage each of you th attend of tune in tomorrow.	191168332	1477076954431	1477076954485	BKSP	8
373264	4024393	I encourage each of you to attend or tune in tomorrow.	I encourage each of you th attend of tune in tomorrow.	191168335	1477076955014	1477076955148	o	79
373264	4024393	I encourage each of you to attend or tune in tomorrow.	I encourage each of you th attend of tune in tomorrow.	191168403	1477076955133	1477076955231	u	85
373264	4024393	I encourage each of you to attend or tune in tomorrow.	I encourage each of you th attend of tune in tomorrow.	191168405	1477076955340	1477076955419	 	32
373264	4024393	I encourage each of you to attend or tune in tomorrow.	I encourage each of you th attend of tune in tomorrow.	191168407	1477076955528	1477076955665	t	84
373264	4024393	I encourage each of you to attend or tune in tomorrow.	I encourage each of you th attend of tune in tomorrow.	191168409	1477076955776	1477076955869	h	72
373264	4024393	I encourage each of you to attend or tune in tomorrow.	I encourage each of you th attend of tune in tomorrow.	191168410	1477076955994	1477076956116	 	32
373264	4024393	I encourage each of you to attend or tune in tomorrow.	I encourage each of you th attend of tune in tomorrow.	191168411	1477076956319	1477076956517	a	65
373264	4024393	I encourage each of you to attend or tune in tomorrow.	I encourage each of you th attend of tune in tomorrow.	191168459	1477076956464	1477076956567	t	84
373264	4024393	I encourage each of you to attend or tune in tomorrow.	I encourage each of you th attend of tune in tomorrow.	191168464	1477076956676	1477076956769	t	84
373264	4024393	I encourage each of you to attend or tune in tomorrow.	I encourage each of you th attend of tune in tomorrow.	191168467	1477076956862	1477076956967	e	69
373264	4024393	I encourage each of you to attend or tune in tomorrow.	I encourage each of you th attend of tune in tomorrow.	191168471	1477076957094	1477076957184	n	78
373264	4024393	I encourage each of you to attend or tune in tomorrow.	I encourage each of you th attend of tune in tomorrow.	191168476	1477076957262	1477076957336	d	68
373264	4024393	I encourage each of you to attend or tune in tomorrow.	I encourage each of you th attend of tune in tomorrow.	191168479	1477076957383	1477076957494	 	32
373264	4024393	I encourage each of you to attend or tune in tomorrow.	I encourage each of you th attend of tune in tomorrow.	191168612	1477076957615	1477076957717	o	79
373264	4024393	I encourage each of you to attend or tune in tomorrow.	I encourage each of you th attend of tune in tomorrow.	191168618	1477076957795	1477076957884	f	70
373264	4024393	I encourage each of you to attend or tune in tomorrow.	I encourage each of you th attend of tune in tomorrow.	191168625	1477076957916	1477076958006	 	32
373264	4024393	I encourage each of you to attend or tune in tomorrow.	I encourage each of you th attend of tune in tomorrow.	191168634	1477076958597	1477076958701	u	85
373264	4024393	I encourage each of you to attend or tune in tomorrow.	I encourage each of you th attend of tune in tomorrow.	191168643	1477076959390	1477076959485	BKSP	8
373264	4024393	I encourage each of you to attend or tune in tomorrow.	I encourage each of you th attend of tune in tomorrow.	191168653	1477076959688	1477076959831	t	84
373264	4024393	I encourage each of you to attend or tune in tomorrow.	I encourage each of you th attend of tune in tomorrow.	191168713	1477076959847	1477076959919	u	85
373264	4024393	I encourage each of you to attend or tune in tomorrow.	I encourage each of you th attend of tune in tomorrow.	191168715	1477076960309	1477076960386	n	78
373264	4024393	I encourage each of you to attend or tune in tomorrow.	I encourage each of you th attend of tune in tomorrow.	191168717	1477076960449	1477076960578	e	69
373264	4024393	I encourage each of you to attend or tune in tomorrow.	I encourage each of you th attend of tune in tomorrow.	191168720	1477076960594	1477076960703	 	32
373264	4024393	I encourage each of you to attend or tune in tomorrow.	I encourage each of you th attend of tune in tomorrow.	191168724	1477076961015	1477076961099	i	73
373264	4024393	I encourage each of you to attend or tune in tomorrow.	I encourage each of you th attend of tune in tomorrow.	191168774	1477076961193	1477076961300	n	78
373264	4024393	I encourage each of you to attend or tune in tomorrow.	I encourage each of you th attend of tune in tomorrow.	191168778	1477076961316	1477076961413	 	32
373264	4024393	I encourage each of you to attend or tune in tomorrow.	I encourage each of you th attend of tune in tomorrow.	191168784	1477076961636	1477076961765	t	84
373264	4024393	I encourage each of you to attend or tune in tomorrow.	I encourage each of you th attend of tune in tomorrow.	191168786	1477076961796	1477076961885	o	79
373264	4024393	I encourage each of you to attend or tune in tomorrow.	I encourage each of you th attend of tune in tomorrow.	191168790	1477076961947	1477076962066	m	77
373264	4024393	I encourage each of you to attend or tune in tomorrow.	I encourage each of you th attend of tune in tomorrow.	191168867	1477076962191	1477076962283	o	79
373264	4024393	I encourage each of you to attend or tune in tomorrow.	I encourage each of you th attend of tune in tomorrow.	191168870	1477076962518	1477076962602	r	82
373264	4024393	I encourage each of you to attend or tune in tomorrow.	I encourage each of you th attend of tune in tomorrow.	191168877	1477076962680	1477076962799	r	82
373264	4024393	I encourage each of you to attend or tune in tomorrow.	I encourage each of you th attend of tune in tomorrow.	191168883	1477076962877	1477076962952	o	79
373264	4024393	I encourage each of you to attend or tune in tomorrow.	I encourage each of you th attend of tune in tomorrow.	191168885	1477076963061	1477076963167	w	87
373264	4024393	I encourage each of you to attend or tune in tomorrow.	I encourage each of you th attend of tune in tomorrow.	191168944	1477076963778	1477076963829	.	190
373264	4024424	I will get the gathering to Gloria tomorrow.	I will get the gathering to Gloria tomorrow.	191169263	1477076966894	1477076967711	SHIFT	16
373264	4024424	I will get the gathering to Gloria tomorrow.	I will get the gathering to Gloria tomorrow.	191169269	1477076967567	1477076967742	I	73
373264	4024424	I will get the gathering to Gloria tomorrow.	I will get the gathering to Gloria tomorrow.	191169273	1477076967820	1477076967933	 	32
373264	4024424	I will get the gathering to Gloria tomorrow.	I will get the gathering to Gloria tomorrow.	191169276	1477076968074	1477076968168	w	87
373264	4024424	I will get the gathering to Gloria tomorrow.	I will get the gathering to Gloria tomorrow.	191169281	1477076968152	1477076968279	i	73
373264	4024424	I will get the gathering to Gloria tomorrow.	I will get the gathering to Gloria tomorrow.	191169287	1477076968373	1477076968452	l	76
373264	4024424	I will get the gathering to Gloria tomorrow.	I will get the gathering to Gloria tomorrow.	191169322	1477076968547	1477076968598	l	76
373264	4024424	I will get the gathering to Gloria tomorrow.	I will get the gathering to Gloria tomorrow.	191169325	1477076968653	1477076968736	 	32
373264	4024424	I will get the gathering to Gloria tomorrow.	I will get the gathering to Gloria tomorrow.	191169330	1477076968924	1477076969034	g	71
373264	4024424	I will get the gathering to Gloria tomorrow.	I will get the gathering to Gloria tomorrow.	191169335	1477076969128	1477076969300	e	69
373264	4024424	I will get the gathering to Gloria tomorrow.	I will get the gathering to Gloria tomorrow.	191169386	1477076969249	1477076969395	t	84
373264	4024424	I will get the gathering to Gloria tomorrow.	I will get the gathering to Gloria tomorrow.	191169388	1477076969410	1477076969485	 	32
373264	4024424	I will get the gathering to Gloria tomorrow.	I will get the gathering to Gloria tomorrow.	191169393	1477076969594	1477076969702	t	84
373264	4024424	I will get the gathering to Gloria tomorrow.	I will get the gathering to Gloria tomorrow.	191169397	1477076969733	1477076969814	h	72
373264	4024424	I will get the gathering to Gloria tomorrow.	I will get the gathering to Gloria tomorrow.	191169401	1477076969876	1477076969986	 	69
373264	4024424	I will get the gathering to Gloria tomorrow.	I will get the gathering to Gloria tomorrow.	191169484	1477076970517	1477076970628	g	71
373264	4024424	I will get the gathering to Gloria tomorrow.	I will get the gathering to Gloria tomorrow.	191169489	1477076970722	1477076970918	a	65
373264	4024424	I will get the gathering to Gloria tomorrow.	I will get the gathering to Gloria tomorrow.	191169498	1477076970863	1477076971014	t	84
373264	4024424	I will get the gathering to Gloria tomorrow.	I will get the gathering to Gloria tomorrow.	191169502	1477076971077	1477076971199	h	72
373264	4024424	I will get the gathering to Gloria tomorrow.	I will get the gathering to Gloria tomorrow.	191169505	1477076971245	1477076971453	e	69
373264	4024424	I will get the gathering to Gloria tomorrow.	I will get the gathering to Gloria tomorrow.	191169553	1477076971397	1477076971532	r	82
373264	4024424	I will get the gathering to Gloria tomorrow.	I will get the gathering to Gloria tomorrow.	191169554	1477076971626	1477076971733	i	73
373264	4024424	I will get the gathering to Gloria tomorrow.	I will get the gathering to Gloria tomorrow.	191169557	1477076971795	1477076971900	n	78
373264	4024424	I will get the gathering to Gloria tomorrow.	I will get the gathering to Gloria tomorrow.	191169559	1477076971947	1477076972066	g	71
373264	4024424	I will get the gathering to Gloria tomorrow.	I will get the gathering to Gloria tomorrow.	191169561	1477076972097	1477076972184	 	32
373264	4024424	I will get the gathering to Gloria tomorrow.	I will get the gathering to Gloria tomorrow.	191169696	1477076972403	1477076972533	o	84
373264	4024424	I will get the gathering to Gloria tomorrow.	I will get the gathering to Gloria tomorrow.	191169702	1477076973299	1477076973408	SHIFT	16
373264	4024424	I will get the gathering to Gloria tomorrow.	I will get the gathering to Gloria tomorrow.	191169710	1477076973486	1477076973554	 	32
373264	4024424	I will get the gathering to Gloria tomorrow.	I will get the gathering to Gloria tomorrow.	191169718	1477076974100	1477076974533	SHIFT	16
373264	4024424	I will get the gathering to Gloria tomorrow.	I will get the gathering to Gloria tomorrow.	191169725	1477076974428	1477076974580	G	71
373264	4024424	I will get the gathering to Gloria tomorrow.	I will get the gathering to Gloria tomorrow.	191169730	1477076974705	1477076974785	l	76
373264	4024424	I will get the gathering to Gloria tomorrow.	I will get the gathering to Gloria tomorrow.	191169737	1477076974879	1477076974952	o	79
373264	4024424	I will get the gathering to Gloria tomorrow.	I will get the gathering to Gloria tomorrow.	191169740	1477076975046	1477076975094	r	82
373264	4024424	I will get the gathering to Gloria tomorrow.	I will get the gathering to Gloria tomorrow.	191169841	1477076975465	1477076975549	i	73
373264	4024424	I will get the gathering to Gloria tomorrow.	I will get the gathering to Gloria tomorrow.	191169844	1477076975642	1477076975768	s	83
373264	4024424	I will get the gathering to Gloria tomorrow.	I will get the gathering to Gloria tomorrow.	191169847	1477076976096	1477076976185	BKSP	8
373264	4024424	I will get the gathering to Gloria tomorrow.	I will get the gathering to Gloria tomorrow.	191169853	1477076976263	1477076976399	a	65
373264	4024424	I will get the gathering to Gloria tomorrow.	I will get the gathering to Gloria tomorrow.	191169862	1477076976430	1477076976487	 	32
373264	4024424	I will get the gathering to Gloria tomorrow.	I will get the gathering to Gloria tomorrow.	191169866	1477076976877	1477076977097	SHIFT	16
373264	4024424	I will get the gathering to Gloria tomorrow.	I will get the gathering to Gloria tomorrow.	191169871	1477076977363	1477076977482	t	84
373264	4024424	I will get the gathering to Gloria tomorrow.	I will get the gathering to Gloria tomorrow.	191169937	1477076977513	1477076977648	o	79
373264	4024424	I will get the gathering to Gloria tomorrow.	I will get the gathering to Gloria tomorrow.	191169944	1477076977710	1477076977785	m	77
373264	4024424	I will get the gathering to Gloria tomorrow.	I will get the gathering to Gloria tomorrow.	191169951	1477076978034	1477076978118	o	79
373264	4024424	I will get the gathering to Gloria tomorrow.	I will get the gathering to Gloria tomorrow.	191169958	1477076978713	1477076978800	r	82
373264	4024424	I will get the gathering to Gloria tomorrow.	I will get the gathering to Gloria tomorrow.	191169964	1477076978863	1477076978981	r	82
373264	4024424	I will get the gathering to Gloria tomorrow.	I will get the gathering to Gloria tomorrow.	191170035	1477076979076	1477076979125	o	79
373264	4024424	I will get the gathering to Gloria tomorrow.	I will get the gathering to Gloria tomorrow.	191170037	1477076979167	1477076979298	w	87
373264	4024424	I will get the gathering to Gloria tomorrow.	I will get the gathering to Gloria tomorrow.	191170041	1477076979846	1477076979893	.	190
373264	4024444	I will bring the pillow back tomorrow and get with you then.	I will bring the pillow back tomorrow and get with you then.	191170250	1477076982144	1477076982718	SHIFT	16
373264	4024444	I will bring the pillow back tomorrow and get with you then.	I will bring the pillow back tomorrow and get with you then.	191170246	1477076982396	1477076982546	I	73
373264	4024444	I will bring the pillow back tomorrow and get with you then.	I will bring the pillow back tomorrow and get with you then.	191170254	1477076982764	1477076982866	 	32
373264	4024444	I will bring the pillow back tomorrow and get with you then.	I will bring the pillow back tomorrow and get with you then.	191170258	1477076983038	1477076983196	w	87
373264	4024444	I will bring the pillow back tomorrow and get with you then.	I will bring the pillow back tomorrow and get with you then.	191170264	1477076983227	1477076983333	i	73
373264	4024444	I will bring the pillow back tomorrow and get with you then.	I will bring the pillow back tomorrow and get with you then.	191170270	1477076983442	1477076983493	l	76
373264	4024444	I will bring the pillow back tomorrow and get with you then.	I will bring the pillow back tomorrow and get with you then.	191170356	1477076983600	1477076983668	l	76
373264	4024444	I will bring the pillow back tomorrow and get with you then.	I will bring the pillow back tomorrow and get with you then.	191170361	1477076983730	1477076983818	 	32
373264	4024444	I will bring the pillow back tomorrow and get with you then.	I will bring the pillow back tomorrow and get with you then.	191170366	1477076984208	1477076984285	b	66
373264	4024444	I will bring the pillow back tomorrow and get with you then.	I will bring the pillow back tomorrow and get with you then.	191170370	1477076984426	1477076984548	r	82
373264	4024444	I will bring the pillow back tomorrow and get with you then.	I will bring the pillow back tomorrow and get with you then.	191170375	1477076984548	1477076984661	i	73
373264	4024444	I will bring the pillow back tomorrow and get with you then.	I will bring the pillow back tomorrow and get with you then.	191170402	1477076984740	1477076984802	n	78
373264	4024444	I will bring the pillow back tomorrow and get with you then.	I will bring the pillow back tomorrow and get with you then.	191170407	1477076984864	1477076984979	g	71
373264	4024444	I will bring the pillow back tomorrow and get with you then.	I will bring the pillow back tomorrow and get with you then.	191170416	1477076985010	1477076985085	 	32
373264	4024444	I will bring the pillow back tomorrow and get with you then.	I will bring the pillow back tomorrow and get with you then.	191170423	1477076985178	1477076985299	t	84
373264	4024444	I will bring the pillow back tomorrow and get with you then.	I will bring the pillow back tomorrow and get with you then.	191170431	1477076985299	1477076985396	h	72
373264	4024444	I will bring the pillow back tomorrow and get with you then.	I will bring the pillow back tomorrow and get with you then.	191170552	1477076985506	1477076985568	e	69
373264	4024444	I will bring the pillow back tomorrow and get with you then.	I will bring the pillow back tomorrow and get with you then.	191170555	1477076985677	1477076985733	p	80
373264	4024444	I will bring the pillow back tomorrow and get with you then.	I will bring the pillow back tomorrow and get with you then.	191170561	1477076986690	1477076986767	BKSP	8
373264	4024444	I will bring the pillow back tomorrow and get with you then.	I will bring the pillow back tomorrow and get with you then.	191170568	1477076986907	1477076986985	 	32
373264	4024444	I will bring the pillow back tomorrow and get with you then.	I will bring the pillow back tomorrow and get with you then.	191170572	1477076987344	1477076987449	p	80
373264	4024444	I will bring the pillow back tomorrow and get with you then.	I will bring the pillow back tomorrow and get with you then.	191170579	1477076987558	1477076987635	i	73
373264	4024444	I will bring the pillow back tomorrow and get with you then.	I will bring the pillow back tomorrow and get with you then.	191170666	1477076987745	1477076987802	l	76
373264	4024444	I will bring the pillow back tomorrow and get with you then.	I will bring the pillow back tomorrow and get with you then.	191170668	1477076987896	1477076987952	l	76
373264	4024444	I will bring the pillow back tomorrow and get with you then.	I will bring the pillow back tomorrow and get with you then.	191170672	1477076988093	1477076988153	p	79
373264	4024444	I will bring the pillow back tomorrow and get with you then.	I will bring the pillow back tomorrow and get with you then.	191170676	1477076988653	1477076988751	BKSP	8
373264	4024444	I will bring the pillow back tomorrow and get with you then.	I will bring the pillow back tomorrow and get with you then.	191170681	1477076989000	1477076989112	w	87
373264	4024444	I will bring the pillow back tomorrow and get with you then.	I will bring the pillow back tomorrow and get with you then.	191170761	1477076989145	1477076989265	 	32
373264	4024444	I will bring the pillow back tomorrow and get with you then.	I will bring the pillow back tomorrow and get with you then.	191170767	1477076989594	1477076989716	b	66
373264	4024444	I will bring the pillow back tomorrow and get with you then.	I will bring the pillow back tomorrow and get with you then.	191170777	1477076989826	1477076989948	a	65
373264	4024444	I will bring the pillow back tomorrow and get with you then.	I will bring the pillow back tomorrow and get with you then.	191170788	1477076990026	1477076990134	c	67
373264	4024444	I will bring the pillow back tomorrow and get with you then.	I will bring the pillow back tomorrow and get with you then.	191170794	1477076990165	1477076990294	k	75
373264	4024444	I will bring the pillow back tomorrow and get with you then.	I will bring the pillow back tomorrow and get with you then.	191170870	1477076990294	1477076990384	 	32
373264	4024444	I will bring the pillow back tomorrow and get with you then.	I will bring the pillow back tomorrow and get with you then.	191170874	1477076990602	1477076990716	t	84
373264	4024444	I will bring the pillow back tomorrow and get with you then.	I will bring the pillow back tomorrow and get with you then.	191170878	1477076991075	1477076991198	o	79
373264	4024444	I will bring the pillow back tomorrow and get with you then.	I will bring the pillow back tomorrow and get with you then.	191170882	1477076991260	1477076991382	m	77
373264	4024444	I will bring the pillow back tomorrow and get with you then.	I will bring the pillow back tomorrow and get with you then.	191170886	1477076991600	1477076991668	o	79
373264	4024444	I will bring the pillow back tomorrow and get with you then.	I will bring the pillow back tomorrow and get with you then.	191170990	1477076991809	1477076991948	r	82
373264	4024444	I will bring the pillow back tomorrow and get with you then.	I will bring the pillow back tomorrow and get with you then.	191170996	1477076992213	1477076992332	r	82
373264	4024444	I will bring the pillow back tomorrow and get with you then.	I will bring the pillow back tomorrow and get with you then.	191170999	1477076992459	1477076992566	o	79
373264	4024444	I will bring the pillow back tomorrow and get with you then.	I will bring the pillow back tomorrow and get with you then.	191171003	1477076992675	1477076992798	w	87
373264	4024444	I will bring the pillow back tomorrow and get with you then.	I will bring the pillow back tomorrow and get with you then.	191171007	1477076992970	1477076993068	 	32
373264	4024444	I will bring the pillow back tomorrow and get with you then.	I will bring the pillow back tomorrow and get with you then.	191171058	1477076993163	1477076993282	a	65
373264	4024444	I will bring the pillow back tomorrow and get with you then.	I will bring the pillow back tomorrow and get with you then.	191171062	1477076993329	1477076993401	n	78
373264	4024444	I will bring the pillow back tomorrow and get with you then.	I will bring the pillow back tomorrow and get with you then.	191171067	1477076993401	1477076993528	d	68
373264	4024444	I will bring the pillow back tomorrow and get with you then.	I will bring the pillow back tomorrow and get with you then.	191171071	1477076993544	1477076993633	 	32
373264	4024444	I will bring the pillow back tomorrow and get with you then.	I will bring the pillow back tomorrow and get with you then.	191171077	1477076993758	1477076993851	g	71
373264	4024444	I will bring the pillow back tomorrow and get with you then.	I will bring the pillow back tomorrow and get with you then.	191171121	1477076993960	1477076994116	e	69
373264	4024444	I will bring the pillow back tomorrow and get with you then.	I will bring the pillow back tomorrow and get with you then.	191171125	1477076994064	1477076994209	t	84
373264	4024444	I will bring the pillow back tomorrow and get with you then.	I will bring the pillow back tomorrow and get with you then.	191171131	1477076994225	1477076994316	 	32
373264	4024444	I will bring the pillow back tomorrow and get with you then.	I will bring the pillow back tomorrow and get with you then.	191171135	1477076994412	1477076994562	w	87
373264	4024444	I will bring the pillow back tomorrow and get with you then.	I will bring the pillow back tomorrow and get with you then.	191171140	1477076994593	1477076994699	i	73
373264	4024444	I will bring the pillow back tomorrow and get with you then.	I will bring the pillow back tomorrow and get with you then.	191171182	1477076994731	1477076994862	t	84
373264	4024444	I will bring the pillow back tomorrow and get with you then.	I will bring the pillow back tomorrow and get with you then.	191171185	1477076994862	1477076994966	h	72
373264	4024444	I will bring the pillow back tomorrow and get with you then.	I will bring the pillow back tomorrow and get with you then.	191171189	1477076995013	1477076995112	 	32
373264	4024444	I will bring the pillow back tomorrow and get with you then.	I will bring the pillow back tomorrow and get with you then.	191171196	1477076995299	1477076995429	y	89
373264	4024444	I will bring the pillow back tomorrow and get with you then.	I will bring the pillow back tomorrow and get with you then.	191171202	1477076995445	1477076995590	o	79
373264	4024444	I will bring the pillow back tomorrow and get with you then.	I will bring the pillow back tomorrow and get with you then.	191171304	1477076995552	1477076995681	u	85
373264	4024444	I will bring the pillow back tomorrow and get with you then.	I will bring the pillow back tomorrow and get with you then.	191171307	1477076995790	1477076995899	 	32
373264	4024444	I will bring the pillow back tomorrow and get with you then.	I will bring the pillow back tomorrow and get with you then.	191171310	1477076996134	1477076996232	t	84
373264	4024444	I will bring the pillow back tomorrow and get with you then.	I will bring the pillow back tomorrow and get with you then.	191171313	1477076996341	1477076996441	h	72
373264	4024444	I will bring the pillow back tomorrow and get with you then.	I will bring the pillow back tomorrow and get with you then.	191171315	1477076996441	1477076996612	e	69
373264	4024444	I will bring the pillow back tomorrow and get with you then.	I will bring the pillow back tomorrow and get with you then.	191171317	1477076996612	1477076996684	m	77
373264	4024444	I will bring the pillow back tomorrow and get with you then.	I will bring the pillow back tomorrow and get with you then.	191171391	1477076997029	1477076997116	BKSP	8
373264	4024444	I will bring the pillow back tomorrow and get with you then.	I will bring the pillow back tomorrow and get with you then.	191171396	1477076997272	1477076997351	n	78
373264	4024444	I will bring the pillow back tomorrow and get with you then.	I will bring the pillow back tomorrow and get with you then.	191171404	1477076997772	1477076997830	.	190
373264	4024475	A growing number of US households are joining the middle class.	A growing number of US households are joining the middle class.	191172008	1477077002059	1477077002814	SHIFT	16
373264	4024475	A growing number of US households are joining the middle class.	A growing number of US households are joining the middle class.	191172012	1477077003126	1477077005180	SHIFT	16
373264	4024475	A growing number of US households are joining the middle class.	A growing number of US households are joining the middle class.	191172020	1477077005040	1477077005180	A	65
373264	4024475	A growing number of US households are joining the middle class.	A growing number of US households are joining the middle class.	191172028	1477077005196	1477077005299	 	32
373264	4024475	A growing number of US households are joining the middle class.	A growing number of US households are joining the middle class.	191172041	1477077005533	1477077005629	g	71
373264	4024475	A growing number of US households are joining the middle class.	A growing number of US households are joining the middle class.	191172047	1477077005754	1477077005850	r	82
373264	4024475	A growing number of US households are joining the middle class.	A growing number of US households are joining the middle class.	191172054	1477077005944	1477077006064	o	79
373264	4024475	A growing number of US households are joining the middle class.	A growing number of US households are joining the middle class.	191172101	1477077006098	1477077006210	w	87
373264	4024475	A growing number of US households are joining the middle class.	A growing number of US households are joining the middle class.	191172104	1477077006273	1477077006350	i	73
373264	4024475	A growing number of US households are joining the middle class.	A growing number of US households are joining the middle class.	191172113	1477077006412	1477077006531	n	78
373264	4024475	A growing number of US households are joining the middle class.	A growing number of US households are joining the middle class.	191172119	1477077006547	1477077006660	g	71
373264	4024475	A growing number of US households are joining the middle class.	A growing number of US households are joining the middle class.	191172127	1477077006707	1477077006784	 	32
373264	4024475	A growing number of US households are joining the middle class.	A growing number of US households are joining the middle class.	191172227	1477077006910	1477077007000	n	78
373264	4024475	A growing number of US households are joining the middle class.	A growing number of US households are joining the middle class.	191172236	1477077007110	1477077007213	u	85
373264	4024475	A growing number of US households are joining the middle class.	A growing number of US households are joining the middle class.	191172245	1477077007338	1477077007433	m	77
373264	4024475	A growing number of US households are joining the middle class.	A growing number of US households are joining the middle class.	191172254	1477077007605	1477077007699	b	66
373264	4024475	A growing number of US households are joining the middle class.	A growing number of US households are joining the middle class.	191172262	1477077007839	1477077007989	e	69
373264	4024475	A growing number of US households are joining the middle class.	A growing number of US households are joining the middle class.	191172333	1477077007932	1477077008080	r	82
373264	4024475	A growing number of US households are joining the middle class.	A growing number of US households are joining the middle class.	191172335	1477077008112	1477077008200	 	32
373264	4024475	A growing number of US households are joining the middle class.	A growing number of US households are joining the middle class.	191172339	1477077008340	1477077008417	o	79
373264	4024475	A growing number of US households are joining the middle class.	A growing number of US households are joining the middle class.	191172341	1477077008464	1477077008577	f	70
373264	4024475	A growing number of US households are joining the middle class.	A growing number of US households are joining the middle class.	191172345	1477077008608	1477077008669	 	32
373264	4024475	A growing number of US households are joining the middle class.	A growing number of US households are joining the middle class.	191172442	1477077008809	1477077009618	SHIFT	16
373264	4024475	A growing number of US households are joining the middle class.	A growing number of US households are joining the middle class.	191172349	1477077009012	1477077009131	U	85
373264	4024475	A growing number of US households are joining the middle class.	A growing number of US households are joining the middle class.	191172440	1477077009336	1477077009542	S	83
373264	4024475	A growing number of US households are joining the middle class.	A growing number of US households are joining the middle class.	191172448	1477077009573	1477077009650	 	32
373264	4024475	A growing number of US households are joining the middle class.	A growing number of US households are joining the middle class.	191172455	1477077009884	1477077009983	h	72
373264	4024475	A growing number of US households are joining the middle class.	A growing number of US households are joining the middle class.	191172464	1477077010077	1477077010183	o	79
373264	4024475	A growing number of US households are joining the middle class.	A growing number of US households are joining the middle class.	191172535	1477077010152	1477077010265	u	85
373264	4024475	A growing number of US households are joining the middle class.	A growing number of US households are joining the middle class.	191172539	1477077010390	1477077010550	s	83
373264	4024475	A growing number of US households are joining the middle class.	A growing number of US households are joining the middle class.	191172543	1477077010514	1477077010678	e	69
373264	4024475	A growing number of US households are joining the middle class.	A growing number of US households are joining the middle class.	191172547	1477077010818	1477077010947	h	72
373264	4024475	A growing number of US households are joining the middle class.	A growing number of US households are joining the middle class.	191172552	1477077010994	1477077011068	o	79
373264	4024475	A growing number of US households are joining the middle class.	A growing number of US households are joining the middle class.	191172555	1477077011208	1477077011301	l	76
373264	4024475	A growing number of US households are joining the middle class.	A growing number of US households are joining the middle class.	191172629	1477077011536	1477077011632	d	68
373264	4024475	A growing number of US households are joining the middle class.	A growing number of US households are joining the middle class.	191172631	1477077011851	1477077011963	s	83
373264	4024475	A growing number of US households are joining the middle class.	A growing number of US households are joining the middle class.	191172634	1477077012009	1477077012116	 	32
373264	4024475	A growing number of US households are joining the middle class.	A growing number of US households are joining the middle class.	191172638	1477077012304	1477077012495	a	65
373264	4024475	A growing number of US households are joining the middle class.	A growing number of US households are joining the middle class.	191172697	1477077012479	1477077012614	r	82
373264	4024475	A growing number of US households are joining the middle class.	A growing number of US households are joining the middle class.	191172701	1477077012661	1477077012782	e	69
373264	4024475	A growing number of US households are joining the middle class.	A growing number of US households are joining the middle class.	191172705	1477077012828	1477077012917	 	32
373264	4024475	A growing number of US households are joining the middle class.	A growing number of US households are joining the middle class.	191172710	1477077013057	1477077013165	j	74
373264	4024475	A growing number of US households are joining the middle class.	A growing number of US households are joining the middle class.	191172714	1477077013258	1477077013413	o	79
373264	4024475	A growing number of US households are joining the middle class.	A growing number of US households are joining the middle class.	191172833	1477077013398	1477077013480	i	73
373264	4024475	A growing number of US households are joining the middle class.	A growing number of US households are joining the middle class.	191172837	1477077013558	1477077013635	n	78
373264	4024475	A growing number of US households are joining the middle class.	A growing number of US households are joining the middle class.	191172842	1477077013713	1477077013821	g	71
373264	4024475	A growing number of US households are joining the middle class.	A growing number of US households are joining the middle class.	191172847	1477077014258	1477077014319	BKSP	8
373264	4024475	A growing number of US households are joining the middle class.	A growing number of US households are joining the middle class.	191172851	1477077014491	1477077014693	i	73
373264	4024475	A growing number of US households are joining the middle class.	A growing number of US households are joining the middle class.	191172855	1477077014693	1477077014799	n	78
373264	4024475	A growing number of US households are joining the middle class.	A growing number of US households are joining the middle class.	191172859	1477077014925	1477077015017	g	71
373264	4024475	A growing number of US households are joining the middle class.	A growing number of US households are joining the middle class.	191172903	1477077015095	1477077015168	 	32
373264	4024475	A growing number of US households are joining the middle class.	A growing number of US households are joining the middle class.	191172905	1477077015309	1477077015417	t	84
373264	4024475	A growing number of US households are joining the middle class.	A growing number of US households are joining the middle class.	191172910	1477077015448	1477077015531	h	72
373264	4024475	A growing number of US households are joining the middle class.	A growing number of US households are joining the middle class.	191172913	1477077015578	1477077015703	e	69
373264	4024475	A growing number of US households are joining the middle class.	A growing number of US households are joining the middle class.	191173032	1477077015667	1477077015716	 	32
373264	4024475	A growing number of US households are joining the middle class.	A growing number of US households are joining the middle class.	191173037	1477077016185	1477077016284	m	77
373264	4024475	A growing number of US households are joining the middle class.	A growing number of US households are joining the middle class.	191173042	1477077016424	1477077016517	i	73
373264	4024475	A growing number of US households are joining the middle class.	A growing number of US households are joining the middle class.	191173046	1477077016720	1477077016782	d	68
373264	4024475	A growing number of US households are joining the middle class.	A growing number of US households are joining the middle class.	191173052	1477077016876	1477077016997	d	68
373264	4024475	A growing number of US households are joining the middle class.	A growing number of US households are joining the middle class.	191173058	1477077017060	1477077017119	l	76
373264	4024475	A growing number of US households are joining the middle class.	A growing number of US households are joining the middle class.	191173125	1477077017182	1477077017295	e	69
373264	4024475	A growing number of US households are joining the middle class.	A growing number of US households are joining the middle class.	191173129	1477077017327	1477077017401	 	32
373264	4024475	A growing number of US households are joining the middle class.	A growing number of US households are joining the middle class.	191173132	1477077017557	1477077017649	c	67
373264	4024475	A growing number of US households are joining the middle class.	A growing number of US households are joining the middle class.	191173137	1477077017696	1477077017815	l	76
373264	4024475	A growing number of US households are joining the middle class.	A growing number of US households are joining the middle class.	191173141	1477077017846	1477077017980	a	65
373264	4024475	A growing number of US households are joining the middle class.	A growing number of US households are joining the middle class.	191173172	1477077018028	1477077018120	s	83
373264	4024475	A growing number of US households are joining the middle class.	A growing number of US households are joining the middle class.	191173175	1477077018198	1477077018311	s	83
373264	4024475	A growing number of US households are joining the middle class.	A growing number of US households are joining the middle class.	191173179	1477077018561	1477077018620	.	190
373264	4024515	You had to maintain your patience to get the job done.	You had to maintain your patience to get the job done.	191173478	1477077021115	1477077021762	SHIFT	16
373264	4024515	You had to maintain your patience to get the job done.	You had to maintain your patience to get the job done.	191173473	1477077021602	1477077021715	Y	89
373264	4024515	You had to maintain your patience to get the job done.	You had to maintain your patience to get the job done.	191173484	1477077021762	1477077021879	o	79
373264	4024515	You had to maintain your patience to get the job done.	You had to maintain your patience to get the job done.	191173491	1477077021834	1477077021946	u	85
373264	4024515	You had to maintain your patience to get the job done.	You had to maintain your patience to get the job done.	191173498	1477077021946	1477077022050	 	32
373264	4024515	You had to maintain your patience to get the job done.	You had to maintain your patience to get the job done.	191173502	1477077022221	1477077022317	h	72
373264	4024515	You had to maintain your patience to get the job done.	You had to maintain your patience to get the job done.	191173606	1477077022521	1477077022648	a	65
373264	4024515	You had to maintain your patience to get the job done.	You had to maintain your patience to get the job done.	191173610	1477077022710	1477077022800	s	83
373264	4024515	You had to maintain your patience to get the job done.	You had to maintain your patience to get the job done.	191173616	1477077023113	1477077023199	BKSP	8
373264	4024515	You had to maintain your patience to get the job done.	You had to maintain your patience to get the job done.	191173622	1477077023262	1477077023397	d	68
373264	4024515	You had to maintain your patience to get the job done.	You had to maintain your patience to get the job done.	191173627	1477077023428	1477077023516	 	32
373264	4024515	You had to maintain your patience to get the job done.	You had to maintain your patience to get the job done.	191173634	1477077023610	1477077023751	t	84
373264	4024515	You had to maintain your patience to get the job done.	You had to maintain your patience to get the job done.	191173669	1477077023715	1477077023828	o	79
373264	4024515	You had to maintain your patience to get the job done.	You had to maintain your patience to get the job done.	191173672	1477077023859	1477077023934	 	32
373264	4024515	You had to maintain your patience to get the job done.	You had to maintain your patience to get the job done.	191173674	1477077024058	1477077024197	m	77
373264	4024515	You had to maintain your patience to get the job done.	You had to maintain your patience to get the job done.	191173678	1477077024290	1477077024420	a	65
373264	4024515	You had to maintain your patience to get the job done.	You had to maintain your patience to get the job done.	191173680	1477077024420	1477077024515	i	73
373264	4024515	You had to maintain your patience to get the job done.	You had to maintain your patience to get the job done.	191173683	1477077024578	1477077024651	n	78
373264	4024515	You had to maintain your patience to get the job done.	You had to maintain your patience to get the job done.	191173722	1477077024698	1477077024827	t	84
373264	4024515	You had to maintain your patience to get the job done.	You had to maintain your patience to get the job done.	191173727	1477077024907	1477077025046	a	65
373264	4024515	You had to maintain your patience to get the job done.	You had to maintain your patience to get the job done.	191173735	1477077025093	1477077025215	i	73
373264	4024515	You had to maintain your patience to get the job done.	You had to maintain your patience to get the job done.	191173741	1477077025308	1477077025400	n	78
373264	4024515	You had to maintain your patience to get the job done.	You had to maintain your patience to get the job done.	191173748	1477077025478	1477077025567	 	32
373264	4024515	You had to maintain your patience to get the job done.	You had to maintain your patience to get the job done.	191173811	1477077025818	1477077025933	y	89
373264	4024515	You had to maintain your patience to get the job done.	You had to maintain your patience to get the job done.	191173815	1477077025980	1477077026134	o	79
373264	4024515	You had to maintain your patience to get the job done.	You had to maintain your patience to get the job done.	191173820	1477077026098	1477077026212	u	85
373264	4024515	You had to maintain your patience to get the job done.	You had to maintain your patience to get the job done.	191173829	1477077026259	1477077026366	r	82
373264	4024515	You had to maintain your patience to get the job done.	You had to maintain your patience to get the job done.	191173836	1477077026398	1477077026496	 	32
373264	4024515	You had to maintain your patience to get the job done.	You had to maintain your patience to get the job done.	191173929	1477077026887	1477077027014	p	80
373264	4024515	You had to maintain your patience to get the job done.	You had to maintain your patience to get the job done.	191173935	1477077027109	1477077027262	a	65
373264	4024515	You had to maintain your patience to get the job done.	You had to maintain your patience to get the job done.	191173941	1477077027262	1477077027397	t	84
373264	4024515	You had to maintain your patience to get the job done.	You had to maintain your patience to get the job done.	191173948	1477077027459	1477077027550	i	73
373264	4024515	You had to maintain your patience to get the job done.	You had to maintain your patience to get the job done.	191173955	1477077027862	1477077027966	e	69
373264	4024515	You had to maintain your patience to get the job done.	You had to maintain your patience to get the job done.	191174053	1477077028076	1477077028182	n	78
373264	4024515	You had to maintain your patience to get the job done.	You had to maintain your patience to get the job done.	191174055	1477077028369	1477077028418	v	86
373264	4024515	You had to maintain your patience to get the job done.	You had to maintain your patience to get the job done.	191174056	1477077028871	1477077028981	BKSP	8
373264	4024515	You had to maintain your patience to get the job done.	You had to maintain your patience to get the job done.	191174058	1477077029153	1477077029248	c	67
373264	4024515	You had to maintain your patience to get the job done.	You had to maintain your patience to get the job done.	191174062	1477077029342	1477077029450	e	69
373264	4024515	You had to maintain your patience to get the job done.	You had to maintain your patience to get the job done.	191174067	1477077029512	1477077029601	 	32
373264	4024515	You had to maintain your patience to get the job done.	You had to maintain your patience to get the job done.	191174109	1477077029774	1477077029882	t	84
373264	4024515	You had to maintain your patience to get the job done.	You had to maintain your patience to get the job done.	191174112	1477077029944	1477077030081	o	79
373264	4024515	You had to maintain your patience to get the job done.	You had to maintain your patience to get the job done.	191174116	1477077030081	1477077030179	 	32
373264	4024515	You had to maintain your patience to get the job done.	You had to maintain your patience to get the job done.	191174121	1477077030273	1477077030366	g	71
373264	4024515	You had to maintain your patience to get the job done.	You had to maintain your patience to get the job done.	191174126	1477077030444	1477077030598	e	69
373264	4024515	You had to maintain your patience to get the job done.	You had to maintain your patience to get the job done.	191174159	1477077030549	1477077030677	t	84
373264	4024515	You had to maintain your patience to get the job done.	You had to maintain your patience to get the job done.	191174165	1477077030708	1477077030784	 	32
373264	4024515	You had to maintain your patience to get the job done.	You had to maintain your patience to get the job done.	191174172	1477077030831	1477077030929	t	84
373264	4024515	You had to maintain your patience to get the job done.	You had to maintain your patience to get the job done.	191174178	1477077030945	1477077031064	h	72
373264	4024515	You had to maintain your patience to get the job done.	You had to maintain your patience to get the job done.	191174187	1477077031080	1477077031179	e	69
373264	4024515	You had to maintain your patience to get the job done.	You had to maintain your patience to get the job done.	191174195	1477077031179	1477077031267	i	73
373264	4024515	You had to maintain your patience to get the job done.	You had to maintain your patience to get the job done.	191174316	1477077031580	1477077031648	BKSP	8
373264	4024515	You had to maintain your patience to get the job done.	You had to maintain your patience to get the job done.	191174320	1477077031914	1477077031984	 	32
373264	4024515	You had to maintain your patience to get the job done.	You had to maintain your patience to get the job done.	191174325	1477077032313	1477077032399	j	74
373264	4024515	You had to maintain your patience to get the job done.	You had to maintain your patience to get the job done.	191174329	1477077032478	1477077032582	o	79
373264	4024515	You had to maintain your patience to get the job done.	You had to maintain your patience to get the job done.	191174333	1477077032707	1477077032800	b	66
373264	4024515	You had to maintain your patience to get the job done.	You had to maintain your patience to get the job done.	191174335	1477077032878	1477077032983	 	32
373264	4024515	You had to maintain your patience to get the job done.	You had to maintain your patience to get the job done.	191174401	1477077033204	1477077033329	d	68
373264	4024515	You had to maintain your patience to get the job done.	You had to maintain your patience to get the job done.	191174408	1477077033329	1477077033463	o	79
373264	4024515	You had to maintain your patience to get the job done.	You had to maintain your patience to get the job done.	191174415	1477077033463	1477077033546	n	78
373264	4024515	You had to maintain your patience to get the job done.	You had to maintain your patience to get the job done.	191174418	1477077033593	1477077033730	e	69
373264	4024515	You had to maintain your patience to get the job done.	You had to maintain your patience to get the job done.	191174425	1477077034013	1477077034069	.	190
