PARTICIPANT_ID	TEST_SECTION_ID	SENTENCE	USER_INPUT	KEYSTROKE_ID	PRESS_TIME	RELEASE_TIME	LETTER	KEYCODE
374180	4035205	He is listed as probable for this week's game.	He is listed as probable for this week's game.	191673955	1477086804208	1477086804485	SHIFT	16
374180	4035205	He is listed as probable for this week's game.	He is listed as probable for this week's game.	191673953	1477086804416	1477086804481	H	72
374180	4035205	He is listed as probable for this week's game.	He is listed as probable for this week's game.	191673957	1477086804550	1477086804626	e	69
374180	4035205	He is listed as probable for this week's game.	He is listed as probable for this week's game.	191673959	1477086804651	1477086804737	 	32
374180	4035205	He is listed as probable for this week's game.	He is listed as probable for this week's game.	191673961	1477086804807	1477086804881	i	73
374180	4035205	He is listed as probable for this week's game.	He is listed as probable for this week's game.	191673967	1477086804936	1477086804996	s	83
374180	4035205	He is listed as probable for this week's game.	He is listed as probable for this week's game.	191673990	1477086805007	1477086805072	 	32
374180	4035205	He is listed as probable for this week's game.	He is listed as probable for this week's game.	191673993	1477086805154	1477086805287	l	76
374180	4035205	He is listed as probable for this week's game.	He is listed as probable for this week's game.	191673999	1477086805258	1477086805368	i	73
374180	4035205	He is listed as probable for this week's game.	He is listed as probable for this week's game.	191674003	1477086805438	1477086805504	s	83
374180	4035205	He is listed as probable for this week's game.	He is listed as probable for this week's game.	191674008	1477086805649	1477086805723	t	84
374180	4035205	He is listed as probable for this week's game.	He is listed as probable for this week's game.	191674027	1477086805784	1477086805854	e	69
374180	4035205	He is listed as probable for this week's game.	He is listed as probable for this week's game.	191674029	1477086805940	1477086806014	d	68
374180	4035205	He is listed as probable for this week's game.	He is listed as probable for this week's game.	191674031	1477086806044	1477086806125	 	32
374180	4035205	He is listed as probable for this week's game.	He is listed as probable for this week's game.	191674033	1477086806155	1477086806235	a	65
374180	4035205	He is listed as probable for this week's game.	He is listed as probable for this week's game.	191674039	1477086806401	1477086806456	s	83
374180	4035205	He is listed as probable for this week's game.	He is listed as probable for this week's game.	191674072	1477086806461	1477086806541	 	32
374180	4035205	He is listed as probable for this week's game.	He is listed as probable for this week's game.	191674074	1477086806710	1477086806791	p	80
374180	4035205	He is listed as probable for this week's game.	He is listed as probable for this week's game.	191674076	1477086806867	1477086806952	r	82
374180	4035205	He is listed as probable for this week's game.	He is listed as probable for this week's game.	191674079	1477086807002	1477086807076	o	79
374180	4035205	He is listed as probable for this week's game.	He is listed as probable for this week's game.	191674083	1477086807308	1477086807372	b	66
374180	4035205	He is listed as probable for this week's game.	He is listed as probable for this week's game.	191674124	1477086807393	1477086807447	a	65
374180	4035205	He is listed as probable for this week's game.	He is listed as probable for this week's game.	191674127	1477086807487	1477086807553	b	66
374180	4035205	He is listed as probable for this week's game.	He is listed as probable for this week's game.	191674130	1477086807754	1477086807829	l	76
374180	4035205	He is listed as probable for this week's game.	He is listed as probable for this week's game.	191674133	1477086808030	1477086808089	e	69
374180	4035205	He is listed as probable for this week's game.	He is listed as probable for this week's game.	191674135	1477086808099	1477086808179	 	32
374180	4035205	He is listed as probable for this week's game.	He is listed as probable for this week's game.	191674155	1477086808305	1477086808365	f	70
374180	4035205	He is listed as probable for this week's game.	He is listed as probable for this week's game.	191674159	1477086808385	1477086808461	o	79
374180	4035205	He is listed as probable for this week's game.	He is listed as probable for this week's game.	191674166	1477086808486	1477086808541	r	82
374180	4035205	He is listed as probable for this week's game.	He is listed as probable for this week's game.	191674171	1477086808591	1477086808641	 	32
374180	4035205	He is listed as probable for this week's game.	He is listed as probable for this week's game.	191674177	1477086808731	1477086808785	t	84
374180	4035205	He is listed as probable for this week's game.	He is listed as probable for this week's game.	191674221	1477086808810	1477086808926	h	72
374180	4035205	He is listed as probable for this week's game.	He is listed as probable for this week's game.	191674224	1477086809433	1477086809508	i	73
374180	4035205	He is listed as probable for this week's game.	He is listed as probable for this week's game.	191674228	1477086809562	1477086809637	s	83
374180	4035205	He is listed as probable for this week's game.	He is listed as probable for this week's game.	191674232	1477086809642	1477086809703	 	32
374180	4035205	He is listed as probable for this week's game.	He is listed as probable for this week's game.	191674235	1477086809789	1477086809868	w	87
374180	4035205	He is listed as probable for this week's game.	He is listed as probable for this week's game.	191674266	1477086810048	1477086810103	e	69
374180	4035205	He is listed as probable for this week's game.	He is listed as probable for this week's game.	191674268	1477086810179	1477086810229	e	69
374180	4035205	He is listed as probable for this week's game.	He is listed as probable for this week's game.	191674270	1477086810254	1477086810304	k	75
374180	4035205	He is listed as probable for this week's game.	He is listed as probable for this week's game.	191674273	1477086810566	1477086810631	'	222
374180	4035205	He is listed as probable for this week's game.	He is listed as probable for this week's game.	191674277	1477086810651	1477086810715	s	83
374180	4035205	He is listed as probable for this week's game.	He is listed as probable for this week's game.	191674312	1477086810771	1477086810835	 	32
374180	4035205	He is listed as probable for this week's game.	He is listed as probable for this week's game.	191674314	1477086811061	1477086811116	g	71
374180	4035205	He is listed as probable for this week's game.	He is listed as probable for this week's game.	191674317	1477086811142	1477086811221	a	65
374180	4035205	He is listed as probable for this week's game.	He is listed as probable for this week's game.	191674319	1477086811302	1477086811361	m	77
374180	4035205	He is listed as probable for this week's game.	He is listed as probable for this week's game.	191674322	1477086811402	1477086811462	e	69
374180	4035205	He is listed as probable for this week's game.	He is listed as probable for this week's game.	191674337	1477086811613	1477086811677	.	190
374180	4035220	It was the best dinner table conversation we've had in a long time.	It was the best dinner table conversation we've had in a long time.	191674938	1477086823858	1477086824322	SHIFT	16
374180	4035220	It was the best dinner table conversation we've had in a long time.	It was the best dinner table conversation we've had in a long time.	191674940	1477086824278	1477086824337	I	73
374180	4035220	It was the best dinner table conversation we've had in a long time.	It was the best dinner table conversation we've had in a long time.	191674942	1477086824408	1477086824469	t	84
374180	4035220	It was the best dinner table conversation we've had in a long time.	It was the best dinner table conversation we've had in a long time.	191674944	1477086824519	1477086824579	 	32
374180	4035220	It was the best dinner table conversation we've had in a long time.	It was the best dinner table conversation we've had in a long time.	191674945	1477086824624	1477086824714	w	87
374180	4035220	It was the best dinner table conversation we've had in a long time.	It was the best dinner table conversation we've had in a long time.	191674946	1477086824829	1477086825009	a	65
374180	4035220	It was the best dinner table conversation we've had in a long time.	It was the best dinner table conversation we've had in a long time.	191674972	1477086825215	1477086825285	s	83
374180	4035220	It was the best dinner table conversation we've had in a long time.	It was the best dinner table conversation we've had in a long time.	191674973	1477086825431	1477086825490	 	32
374180	4035220	It was the best dinner table conversation we've had in a long time.	It was the best dinner table conversation we've had in a long time.	191674974	1477086825531	1477086825581	t	84
374180	4035220	It was the best dinner table conversation we've had in a long time.	It was the best dinner table conversation we've had in a long time.	191674976	1477086825626	1477086825692	h	72
374180	4035220	It was the best dinner table conversation we've had in a long time.	It was the best dinner table conversation we've had in a long time.	191674978	1477086825706	1477086825771	e	69
374180	4035220	It was the best dinner table conversation we've had in a long time.	It was the best dinner table conversation we've had in a long time.	191674994	1477086825781	1477086825847	 	32
374180	4035220	It was the best dinner table conversation we've had in a long time.	It was the best dinner table conversation we've had in a long time.	191674995	1477086825967	1477086826021	b	66
374180	4035220	It was the best dinner table conversation we've had in a long time.	It was the best dinner table conversation we've had in a long time.	191674996	1477086826112	1477086826192	e	69
374180	4035220	It was the best dinner table conversation we've had in a long time.	It was the best dinner table conversation we've had in a long time.	191674998	1477086826288	1477086826363	s	83
374180	4035220	It was the best dinner table conversation we've had in a long time.	It was the best dinner table conversation we've had in a long time.	191675000	1477086826462	1477086826513	t	84
374180	4035220	It was the best dinner table conversation we've had in a long time.	It was the best dinner table conversation we've had in a long time.	191675042	1477086826553	1477086826618	 	32
374180	4035220	It was the best dinner table conversation we've had in a long time.	It was the best dinner table conversation we've had in a long time.	191675046	1477086826965	1477086827039	d	68
374180	4035220	It was the best dinner table conversation we've had in a long time.	It was the best dinner table conversation we've had in a long time.	191675050	1477086827050	1477086827155	i	73
374180	4035220	It was the best dinner table conversation we've had in a long time.	It was the best dinner table conversation we've had in a long time.	191675055	1477086827279	1477086827339	n	78
374180	4035220	It was the best dinner table conversation we've had in a long time.	It was the best dinner table conversation we've had in a long time.	191675063	1477086827411	1477086827465	n	78
374180	4035220	It was the best dinner table conversation we've had in a long time.	It was the best dinner table conversation we've had in a long time.	191675094	1477086827500	1477086827615	e	69
374180	4035220	It was the best dinner table conversation we've had in a long time.	It was the best dinner table conversation we've had in a long time.	191675100	1477086827575	1477086827675	r	82
374180	4035220	It was the best dinner table conversation we've had in a long time.	It was the best dinner table conversation we've had in a long time.	191675104	1477086827661	1477086827740	 	32
374180	4035220	It was the best dinner table conversation we've had in a long time.	It was the best dinner table conversation we've had in a long time.	191675110	1477086827936	1477086827996	t	84
374180	4035220	It was the best dinner table conversation we've had in a long time.	It was the best dinner table conversation we've had in a long time.	191675115	1477086828208	1477086828292	a	65
374180	4035220	It was the best dinner table conversation we've had in a long time.	It was the best dinner table conversation we've had in a long time.	191675137	1477086828348	1477086828407	b	66
374180	4035220	It was the best dinner table conversation we've had in a long time.	It was the best dinner table conversation we've had in a long time.	191675139	1477086828587	1477086828648	l	76
374180	4035220	It was the best dinner table conversation we've had in a long time.	It was the best dinner table conversation we've had in a long time.	191675143	1477086828678	1477086828738	e	69
374180	4035220	It was the best dinner table conversation we've had in a long time.	It was the best dinner table conversation we've had in a long time.	191675147	1477086828768	1477086828843	 	32
374180	4035220	It was the best dinner table conversation we've had in a long time.	It was the best dinner table conversation we've had in a long time.	191675151	1477086828968	1477086829025	c	67
374180	4035220	It was the best dinner table conversation we've had in a long time.	It was the best dinner table conversation we've had in a long time.	191675174	1477086829026	1477086829184	o	79
374180	4035220	It was the best dinner table conversation we've had in a long time.	It was the best dinner table conversation we've had in a long time.	191675175	1477086829150	1477086829254	n	78
374180	4035220	It was the best dinner table conversation we've had in a long time.	It was the best dinner table conversation we've had in a long time.	191675177	1477086829356	1477086829414	v	86
374180	4035220	It was the best dinner table conversation we've had in a long time.	It was the best dinner table conversation we've had in a long time.	191675179	1477086829496	1477086829595	e	69
374180	4035220	It was the best dinner table conversation we've had in a long time.	It was the best dinner table conversation we've had in a long time.	191675265	1477086829545	1477086829641	r	82
374180	4035220	It was the best dinner table conversation we've had in a long time.	It was the best dinner table conversation we've had in a long time.	191675266	1477086830248	1477086830312	s	83
374180	4035220	It was the best dinner table conversation we've had in a long time.	It was the best dinner table conversation we've had in a long time.	191675267	1477086830407	1477086830477	a	65
374180	4035220	It was the best dinner table conversation we've had in a long time.	It was the best dinner table conversation we've had in a long time.	191675269	1477086830798	1477086830868	t	84
374180	4035220	It was the best dinner table conversation we've had in a long time.	It was the best dinner table conversation we've had in a long time.	191675271	1477086830948	1477086831048	i	73
374180	4035220	It was the best dinner table conversation we've had in a long time.	It was the best dinner table conversation we've had in a long time.	191675336	1477086831003	1477086831098	o	79
374180	4035220	It was the best dinner table conversation we've had in a long time.	It was the best dinner table conversation we've had in a long time.	191675341	1477086831239	1477086831334	n	78
374180	4035220	It was the best dinner table conversation we've had in a long time.	It was the best dinner table conversation we've had in a long time.	191675346	1477086831304	1477086831379	 	32
374180	4035220	It was the best dinner table conversation we've had in a long time.	It was the best dinner table conversation we've had in a long time.	191675349	1477086832482	1477086832587	w	87
374180	4035220	It was the best dinner table conversation we've had in a long time.	It was the best dinner table conversation we've had in a long time.	191675354	1477086832562	1477086832672	e	69
374180	4035220	It was the best dinner table conversation we've had in a long time.	It was the best dinner table conversation we've had in a long time.	191675360	1477086833118	1477086833184	'	222
374180	4035220	It was the best dinner table conversation we've had in a long time.	It was the best dinner table conversation we've had in a long time.	191675383	1477086833299	1477086833429	v	86
374180	4035220	It was the best dinner table conversation we've had in a long time.	It was the best dinner table conversation we've had in a long time.	191675386	1477086833384	1477086833479	e	69
374180	4035220	It was the best dinner table conversation we've had in a long time.	It was the best dinner table conversation we've had in a long time.	191675389	1477086833519	1477086833575	 	32
374180	4035220	It was the best dinner table conversation we've had in a long time.	It was the best dinner table conversation we've had in a long time.	191675392	1477086833690	1477086833744	h	72
374180	4035220	It was the best dinner table conversation we've had in a long time.	It was the best dinner table conversation we've had in a long time.	191675424	1477086833740	1477086833799	a	65
374180	4035220	It was the best dinner table conversation we've had in a long time.	It was the best dinner table conversation we've had in a long time.	191675427	1477086833967	1477086834025	d	68
374180	4035220	It was the best dinner table conversation we've had in a long time.	It was the best dinner table conversation we've had in a long time.	191675432	1477086834035	1477086834121	 	32
374180	4035220	It was the best dinner table conversation we've had in a long time.	It was the best dinner table conversation we've had in a long time.	191675436	1477086834226	1477086834376	i	73
374180	4035220	It was the best dinner table conversation we've had in a long time.	It was the best dinner table conversation we've had in a long time.	191675468	1477086834331	1477086834401	n	78
374180	4035220	It was the best dinner table conversation we've had in a long time.	It was the best dinner table conversation we've had in a long time.	191675471	1477086834356	1477086834455	 	32
374180	4035220	It was the best dinner table conversation we've had in a long time.	It was the best dinner table conversation we've had in a long time.	191675475	1477086834501	1477086834567	a	65
374180	4035220	It was the best dinner table conversation we've had in a long time.	It was the best dinner table conversation we've had in a long time.	191675479	1477086834572	1477086834652	 	32
374180	4035220	It was the best dinner table conversation we've had in a long time.	It was the best dinner table conversation we've had in a long time.	191675482	1477086834747	1477086834822	l	76
374180	4035220	It was the best dinner table conversation we've had in a long time.	It was the best dinner table conversation we've had in a long time.	191675486	1477086834917	1477086834979	o	79
374180	4035220	It was the best dinner table conversation we've had in a long time.	It was the best dinner table conversation we've had in a long time.	191675490	1477086835073	1477086835138	n	78
374180	4035220	It was the best dinner table conversation we've had in a long time.	It was the best dinner table conversation we've had in a long time.	191675497	1477086835178	1477086835238	g	71
374180	4035220	It was the best dinner table conversation we've had in a long time.	It was the best dinner table conversation we've had in a long time.	191675499	1477086835239	1477086835308	 	32
374180	4035220	It was the best dinner table conversation we've had in a long time.	It was the best dinner table conversation we've had in a long time.	191675501	1477086835379	1477086835444	t	84
374180	4035220	It was the best dinner table conversation we've had in a long time.	It was the best dinner table conversation we've had in a long time.	191675503	1477086835454	1477086835519	i	73
374180	4035220	It was the best dinner table conversation we've had in a long time.	It was the best dinner table conversation we've had in a long time.	191675505	1477086835644	1477086835699	m	77
374180	4035220	It was the best dinner table conversation we've had in a long time.	It was the best dinner table conversation we've had in a long time.	191675512	1477086835759	1477086835844	e	69
374180	4035220	It was the best dinner table conversation we've had in a long time.	It was the best dinner table conversation we've had in a long time.	191675514	1477086835975	1477086836040	.	190
374180	4035248	But it takes time.	But it take stime	191675796	1477086838777	1477086841258	SHIFT	16
374180	4035248	But it takes time.	But it take stime	191675800	1477086841203	1477086841263	B	66
374180	4035248	But it takes time.	But it take stime	191675804	1477086841318	1477086841388	u	85
374180	4035248	But it takes time.	But it take stime	191675808	1477086841414	1477086841468	t	84
374180	4035248	But it takes time.	But it take stime	191675811	1477086841514	1477086841589	 	32
374180	4035248	But it takes time.	But it take stime	191675814	1477086841669	1477086841739	i	73
374180	4035248	But it takes time.	But it take stime	191675842	1477086841790	1477086841850	t	84
374180	4035248	But it takes time.	But it take stime	191675845	1477086841885	1477086841945	 	32
374180	4035248	But it takes time.	But it take stime	191675849	1477086842015	1477086842081	t	84
374180	4035248	But it takes time.	But it take stime	191675853	1477086842246	1477086842341	a	65
374180	4035248	But it takes time.	But it take stime	191675857	1477086842356	1477086842420	k	75
374180	4035248	But it takes time.	But it take stime	191675921	1477086842465	1477086842542	e	69
374180	4035248	But it takes time.	But it take stime	191675925	1477086842627	1477086842677	 	32
374180	4035248	But it takes time.	But it take stime	191675930	1477086842682	1477086842757	s	83
374180	4035248	But it takes time.	But it take stime	191675935	1477086843419	1477086843454	t	84
374180	4035248	But it takes time.	But it take stime	191675940	1477086843503	1477086843628	i	73
374180	4035248	But it takes time.	But it take stime	191675948	1477086843593	1477086843688	m	77
374180	4035248	But it takes time.	But it take stime	191675952	1477086843648	1477086843724	e	69
374180	4035253	Sports fans here are excited.	Sports fans here are excited	191676133	1477086847399	1477086847868	SHIFT	16
374180	4035253	Sports fans here are excited.	Sports fans here are excited	191676135	1477086847824	1477086847903	S	83
374180	4035253	Sports fans here are excited.	Sports fans here are excited	191676137	1477086847908	1477086847979	p	80
374180	4035253	Sports fans here are excited.	Sports fans here are excited	191676140	1477086848089	1477086848154	o	79
374180	4035253	Sports fans here are excited.	Sports fans here are excited	191676142	1477086848199	1477086848264	r	82
374180	4035253	Sports fans here are excited.	Sports fans here are excited	191676144	1477086848359	1477086848415	t	84
374180	4035253	Sports fans here are excited.	Sports fans here are excited	191676177	1477086848535	1477086848615	s	83
374180	4035253	Sports fans here are excited.	Sports fans here are excited	191676179	1477086848645	1477086848700	 	32
374180	4035253	Sports fans here are excited.	Sports fans here are excited	191676183	1477086848856	1477086848901	f	70
374180	4035253	Sports fans here are excited.	Sports fans here are excited	191676188	1477086848996	1477086849076	a	65
374180	4035253	Sports fans here are excited.	Sports fans here are excited	191676192	1477086849116	1477086849181	n	78
374180	4035253	Sports fans here are excited.	Sports fans here are excited	191676212	1477086849201	1477086849272	s	83
374180	4035253	Sports fans here are excited.	Sports fans here are excited	191676217	1477086849322	1477086849377	 	32
374180	4035253	Sports fans here are excited.	Sports fans here are excited	191676224	1477086849487	1477086849552	h	72
374180	4035253	Sports fans here are excited.	Sports fans here are excited	191676226	1477086849588	1477086849668	e	69
374180	4035253	Sports fans here are excited.	Sports fans here are excited	191676231	1477086849718	1477086849873	r	82
374180	4035253	Sports fans here are excited.	Sports fans here are excited	191676246	1477086849848	1477086849954	e	69
374180	4035253	Sports fans here are excited.	Sports fans here are excited	191676249	1477086849984	1477086850064	 	32
374180	4035253	Sports fans here are excited.	Sports fans here are excited	191676252	1477086850079	1477086850154	a	65
374180	4035253	Sports fans here are excited.	Sports fans here are excited	191676255	1477086850259	1477086850374	r	82
374180	4035253	Sports fans here are excited.	Sports fans here are excited	191676258	1477086850349	1477086850440	e	69
374180	4035253	Sports fans here are excited.	Sports fans here are excited	191676261	1477086850440	1477086850520	 	32
374180	4035253	Sports fans here are excited.	Sports fans here are excited	191676294	1477086850580	1477086850645	e	69
374180	4035253	Sports fans here are excited.	Sports fans here are excited	191676297	1477086850916	1477086850976	x	88
374180	4035253	Sports fans here are excited.	Sports fans here are excited	191676301	1477086851146	1477086851195	c	67
374180	4035253	Sports fans here are excited.	Sports fans here are excited	191676306	1477086851306	1477086851377	i	73
374180	4035253	Sports fans here are excited.	Sports fans here are excited	191676312	1477086851387	1477086851482	t	84
374180	4035253	Sports fans here are excited.	Sports fans here are excited	191676321	1477086851484	1477086851627	e	69
374180	4035253	Sports fans here are excited.	Sports fans here are excited	191676323	1477086851702	1477086851783	d	68
374180	4035265	I don't think we need to make a big deal of this.	I don't think we need to make a big deal of this.	191676607	1477086856019	1477086856630	SHIFT	16
374180	4035265	I don't think we need to make a big deal of this.	I don't think we need to make a big deal of this.	191676609	1477086856560	1477086856649	I	73
374180	4035265	I don't think we need to make a big deal of this.	I don't think we need to make a big deal of this.	191676616	1477086856610	1477086856699	 	32
374180	4035265	I don't think we need to make a big deal of this.	I don't think we need to make a big deal of this.	191676622	1477086856770	1477086856856	d	68
374180	4035265	I don't think we need to make a big deal of this.	I don't think we need to make a big deal of this.	191676628	1477086856851	1477086856961	o	79
374180	4035265	I don't think we need to make a big deal of this.	I don't think we need to make a big deal of this.	191676659	1477086856936	1477086857030	n	78
374180	4035265	I don't think we need to make a big deal of this.	I don't think we need to make a big deal of this.	191676662	1477086857297	1477086857372	'	222
374180	4035265	I don't think we need to make a big deal of this.	I don't think we need to make a big deal of this.	191676666	1477086857413	1477086857457	t	84
374180	4035265	I don't think we need to make a big deal of this.	I don't think we need to make a big deal of this.	191676670	1477086857527	1477086857582	 	32
374180	4035265	I don't think we need to make a big deal of this.	I don't think we need to make a big deal of this.	191676674	1477086857607	1477086857663	t	84
374180	4035265	I don't think we need to make a big deal of this.	I don't think we need to make a big deal of this.	191676678	1477086857706	1477086857767	h	72
374180	4035265	I don't think we need to make a big deal of this.	I don't think we need to make a big deal of this.	191676701	1477086857912	1477086857988	i	73
374180	4035265	I don't think we need to make a big deal of this.	I don't think we need to make a big deal of this.	191676703	1477086858104	1477086858164	n	78
374180	4035265	I don't think we need to make a big deal of this.	I don't think we need to make a big deal of this.	191676705	1477086858274	1477086858379	k	75
374180	4035265	I don't think we need to make a big deal of this.	I don't think we need to make a big deal of this.	191676707	1477086858354	1477086858439	 	32
374180	4035265	I don't think we need to make a big deal of this.	I don't think we need to make a big deal of this.	191676711	1477086858500	1477086858589	w	87
374180	4035265	I don't think we need to make a big deal of this.	I don't think we need to make a big deal of this.	191676743	1477086858574	1477086858680	e	69
374180	4035265	I don't think we need to make a big deal of this.	I don't think we need to make a big deal of this.	191676745	1477086858695	1477086858755	 	32
374180	4035265	I don't think we need to make a big deal of this.	I don't think we need to make a big deal of this.	191676747	1477086858879	1477086858945	n	78
374180	4035265	I don't think we need to make a big deal of this.	I don't think we need to make a big deal of this.	191676748	1477086858971	1477086859031	e	69
374180	4035265	I don't think we need to make a big deal of this.	I don't think we need to make a big deal of this.	191676749	1477086859116	1477086859156	e	69
374180	4035265	I don't think we need to make a big deal of this.	I don't think we need to make a big deal of this.	191676750	1477086859367	1477086859432	d	68
374180	4035265	I don't think we need to make a big deal of this.	I don't think we need to make a big deal of this.	191676763	1477086859527	1477086859612	 	32
374180	4035265	I don't think we need to make a big deal of this.	I don't think we need to make a big deal of this.	191676764	1477086859652	1477086859707	t	84
374180	4035265	I don't think we need to make a big deal of this.	I don't think we need to make a big deal of this.	191676765	1477086859748	1477086859848	o	79
374180	4035265	I don't think we need to make a big deal of this.	I don't think we need to make a big deal of this.	191676767	1477086859818	1477086859898	 	32
374180	4035265	I don't think we need to make a big deal of this.	I don't think we need to make a big deal of this.	191676773	1477086860027	1477086860097	m	77
374180	4035265	I don't think we need to make a big deal of this.	I don't think we need to make a big deal of this.	191676796	1477086860132	1477086860199	a	65
374180	4035265	I don't think we need to make a big deal of this.	I don't think we need to make a big deal of this.	191676797	1477086860249	1477086860304	k	75
374180	4035265	I don't think we need to make a big deal of this.	I don't think we need to make a big deal of this.	191676798	1477086860339	1477086860404	e	69
374180	4035265	I don't think we need to make a big deal of this.	I don't think we need to make a big deal of this.	191676799	1477086860434	1477086860504	 	32
374180	4035265	I don't think we need to make a big deal of this.	I don't think we need to make a big deal of this.	191676800	1477086860575	1477086860635	a	65
374180	4035265	I don't think we need to make a big deal of this.	I don't think we need to make a big deal of this.	191676850	1477086860650	1477086860714	 	32
374180	4035265	I don't think we need to make a big deal of this.	I don't think we need to make a big deal of this.	191676853	1477086861692	1477086861736	b	66
374180	4035265	I don't think we need to make a big deal of this.	I don't think we need to make a big deal of this.	191676856	1477086861848	1477086861923	i	73
374180	4035265	I don't think we need to make a big deal of this.	I don't think we need to make a big deal of this.	191676861	1477086861978	1477086862018	g	71
374180	4035265	I don't think we need to make a big deal of this.	I don't think we need to make a big deal of this.	191676866	1477086862053	1477086862122	 	32
374180	4035265	I don't think we need to make a big deal of this.	I don't think we need to make a big deal of this.	191676901	1477086862268	1477086862358	d	68
374180	4035265	I don't think we need to make a big deal of this.	I don't think we need to make a big deal of this.	191676904	1477086862374	1477086862503	e	69
374180	4035265	I don't think we need to make a big deal of this.	I don't think we need to make a big deal of this.	191676906	1477086862479	1477086862583	a	65
374180	4035265	I don't think we need to make a big deal of this.	I don't think we need to make a big deal of this.	191676908	1477086862664	1477086862750	l	76
374180	4035265	I don't think we need to make a big deal of this.	I don't think we need to make a big deal of this.	191676937	1477086862715	1477086862819	 	32
374180	4035265	I don't think we need to make a big deal of this.	I don't think we need to make a big deal of this.	191676939	1477086862929	1477086863009	o	79
374180	4035265	I don't think we need to make a big deal of this.	I don't think we need to make a big deal of this.	191676942	1477086863070	1477086863125	f	70
374180	4035265	I don't think we need to make a big deal of this.	I don't think we need to make a big deal of this.	191676945	1477086863136	1477086863210	 	32
374180	4035265	I don't think we need to make a big deal of this.	I don't think we need to make a big deal of this.	191676949	1477086863275	1477086863325	t	84
374180	4035265	I don't think we need to make a big deal of this.	I don't think we need to make a big deal of this.	191676952	1477086863356	1477086863455	h	72
374180	4035265	I don't think we need to make a big deal of this.	I don't think we need to make a big deal of this.	191676981	1477086863426	1477086863536	i	73
374180	4035265	I don't think we need to make a big deal of this.	I don't think we need to make a big deal of this.	191676984	1477086863612	1477086863701	s	83
374180	4035265	I don't think we need to make a big deal of this.	I don't think we need to make a big deal of this.	191676986	1477086863832	1477086863922	.	190
374180	4035276	If it needs to be paid, we will need to add the day to the deal.	If it needs to be paid, we will need to add the day to the deal.	191677401	1477086870152	1477086871052	SHIFT	16
374180	4035276	If it needs to be paid, we will need to add the day to the deal.	If it needs to be paid, we will need to add the day to the deal.	191677398	1477086870983	1477086871042	I	73
374180	4035276	If it needs to be paid, we will need to add the day to the deal.	If it needs to be paid, we will need to add the day to the deal.	191677406	1477086871057	1477086871118	f	70
374180	4035276	If it needs to be paid, we will need to add the day to the deal.	If it needs to be paid, we will need to add the day to the deal.	191677409	1477086871163	1477086871244	 	32
374180	4035276	If it needs to be paid, we will need to add the day to the deal.	If it needs to be paid, we will need to add the day to the deal.	191677413	1477086871349	1477086871424	i	73
374180	4035276	If it needs to be paid, we will need to add the day to the deal.	If it needs to be paid, we will need to add the day to the deal.	191677416	1477086871474	1477086871530	t	84
374180	4035276	If it needs to be paid, we will need to add the day to the deal.	If it needs to be paid, we will need to add the day to the deal.	191677451	1477086871565	1477086871630	 	32
374180	4035276	If it needs to be paid, we will need to add the day to the deal.	If it needs to be paid, we will need to add the day to the deal.	191677454	1477086871795	1477086871850	n	78
374180	4035276	If it needs to be paid, we will need to add the day to the deal.	If it needs to be paid, we will need to add the day to the deal.	191677458	1477086871921	1477086871992	e	69
374180	4035276	If it needs to be paid, we will need to add the day to the deal.	If it needs to be paid, we will need to add the day to the deal.	191677462	1477086872052	1477086872131	e	69
374180	4035276	If it needs to be paid, we will need to add the day to the deal.	If it needs to be paid, we will need to add the day to the deal.	191677466	1477086872211	1477086872282	d	68
374180	4035276	If it needs to be paid, we will need to add the day to the deal.	If it needs to be paid, we will need to add the day to the deal.	191677494	1477086872358	1477086872443	s	83
374180	4035276	If it needs to be paid, we will need to add the day to the deal.	If it needs to be paid, we will need to add the day to the deal.	191677498	1477086872458	1477086872532	 	32
374180	4035276	If it needs to be paid, we will need to add the day to the deal.	If it needs to be paid, we will need to add the day to the deal.	191677505	1477086872588	1477086872638	t	84
374180	4035276	If it needs to be paid, we will need to add the day to the deal.	If it needs to be paid, we will need to add the day to the deal.	191677507	1477086872648	1477086872774	o	79
374180	4035276	If it needs to be paid, we will need to add the day to the deal.	If it needs to be paid, we will need to add the day to the deal.	191677515	1477086872738	1477086872824	 	32
374180	4035276	If it needs to be paid, we will need to add the day to the deal.	If it needs to be paid, we will need to add the day to the deal.	191677518	1477086872948	1477086873013	b	66
374180	4035276	If it needs to be paid, we will need to add the day to the deal.	If it needs to be paid, we will need to add the day to the deal.	191677521	1477086873028	1477086873093	e	69
374180	4035276	If it needs to be paid, we will need to add the day to the deal.	If it needs to be paid, we will need to add the day to the deal.	191677523	1477086873174	1477086873254	 	32
374180	4035276	If it needs to be paid, we will need to add the day to the deal.	If it needs to be paid, we will need to add the day to the deal.	191677525	1477086873344	1477086873435	p	80
374180	4035276	If it needs to be paid, we will need to add the day to the deal.	If it needs to be paid, we will need to add the day to the deal.	191677527	1477086873470	1477086873541	a	65
374180	4035276	If it needs to be paid, we will need to add the day to the deal.	If it needs to be paid, we will need to add the day to the deal.	191677625	1477086873580	1477086873661	i	73
374180	4035276	If it needs to be paid, we will need to add the day to the deal.	If it needs to be paid, we will need to add the day to the deal.	191677630	1477086873811	1477086873881	d	68
374180	4035276	If it needs to be paid, we will need to add the day to the deal.	If it needs to be paid, we will need to add the day to the deal.	191677636	1477086873911	1477086873986	 	32
374180	4035276	If it needs to be paid, we will need to add the day to the deal.	If it needs to be paid, we will need to add the day to the deal.	191677639	1477086874975	1477086875043	BKSP	8
374180	4035276	If it needs to be paid, we will need to add the day to the deal.	If it needs to be paid, we will need to add the day to the deal.	191677640	1477086875345	1477086875444	,	188
374180	4035276	If it needs to be paid, we will need to add the day to the deal.	If it needs to be paid, we will need to add the day to the deal.	191677686	1477086875420	1477086875504	 	32
374180	4035276	If it needs to be paid, we will need to add the day to the deal.	If it needs to be paid, we will need to add the day to the deal.	191677691	1477086875615	1477086875730	w	87
374180	4035276	If it needs to be paid, we will need to add the day to the deal.	If it needs to be paid, we will need to add the day to the deal.	191677697	1477086875685	1477086875801	e	69
374180	4035276	If it needs to be paid, we will need to add the day to the deal.	If it needs to be paid, we will need to add the day to the deal.	191677700	1477086875816	1477086875896	 	32
374180	4035276	If it needs to be paid, we will need to add the day to the deal.	If it needs to be paid, we will need to add the day to the deal.	191677704	1477086876154	1477086876211	w	87
374180	4035276	If it needs to be paid, we will need to add the day to the deal.	If it needs to be paid, we will need to add the day to the deal.	191677708	1477086876291	1477086876361	i	73
374180	4035276	If it needs to be paid, we will need to add the day to the deal.	If it needs to be paid, we will need to add the day to the deal.	191677747	1477086876581	1477086876663	l	76
374180	4035276	If it needs to be paid, we will need to add the day to the deal.	If it needs to be paid, we will need to add the day to the deal.	191677748	1477086876728	1477086876808	l	76
374180	4035276	If it needs to be paid, we will need to add the day to the deal.	If it needs to be paid, we will need to add the day to the deal.	191677749	1477086876783	1477086876883	 	32
374180	4035276	If it needs to be paid, we will need to add the day to the deal.	If it needs to be paid, we will need to add the day to the deal.	191677750	1477086877344	1477086877399	n	78
374180	4035276	If it needs to be paid, we will need to add the day to the deal.	If it needs to be paid, we will need to add the day to the deal.	191677752	1477086877424	1477086877505	e	69
374180	4035276	If it needs to be paid, we will need to add the day to the deal.	If it needs to be paid, we will need to add the day to the deal.	191677784	1477086877540	1477086877610	e	69
374180	4035276	If it needs to be paid, we will need to add the day to the deal.	If it needs to be paid, we will need to add the day to the deal.	191677788	1477086877714	1477086877795	d	68
374180	4035276	If it needs to be paid, we will need to add the day to the deal.	If it needs to be paid, we will need to add the day to the deal.	191677797	1477086877820	1477086877890	 	32
374180	4035276	If it needs to be paid, we will need to add the day to the deal.	If it needs to be paid, we will need to add the day to the deal.	191677801	1477086877951	1477086877996	t	84
374180	4035276	If it needs to be paid, we will need to add the day to the deal.	If it needs to be paid, we will need to add the day to the deal.	191677806	1477086878046	1477086878141	o	79
374180	4035276	If it needs to be paid, we will need to add the day to the deal.	If it needs to be paid, we will need to add the day to the deal.	191677870	1477086878116	1477086878211	 	32
374180	4035276	If it needs to be paid, we will need to add the day to the deal.	If it needs to be paid, we will need to add the day to the deal.	191677874	1477086878348	1477086878426	a	65
374180	4035276	If it needs to be paid, we will need to add the day to the deal.	If it needs to be paid, we will need to add the day to the deal.	191677882	1477086878592	1477086878662	d	68
374180	4035276	If it needs to be paid, we will need to add the day to the deal.	If it needs to be paid, we will need to add the day to the deal.	191677891	1477086878752	1477086878813	d	68
374180	4035276	If it needs to be paid, we will need to add the day to the deal.	If it needs to be paid, we will need to add the day to the deal.	191677898	1477086878837	1477086878912	 	32
374180	4035276	If it needs to be paid, we will need to add the day to the deal.	If it needs to be paid, we will need to add the day to the deal.	191677903	1477086879519	1477086879580	t	84
374180	4035276	If it needs to be paid, we will need to add the day to the deal.	If it needs to be paid, we will need to add the day to the deal.	191677917	1477086879605	1477086879665	h	72
374180	4035276	If it needs to be paid, we will need to add the day to the deal.	If it needs to be paid, we will need to add the day to the deal.	191677920	1477086879700	1477086879780	e	69
374180	4035276	If it needs to be paid, we will need to add the day to the deal.	If it needs to be paid, we will need to add the day to the deal.	191677924	1477086879770	1477086879844	 	32
374180	4035276	If it needs to be paid, we will need to add the day to the deal.	If it needs to be paid, we will need to add the day to the deal.	191677926	1477086879950	1477086880014	d	68
374180	4035276	If it needs to be paid, we will need to add the day to the deal.	If it needs to be paid, we will need to add the day to the deal.	191677929	1477086880150	1477086880215	a	65
374180	4035276	If it needs to be paid, we will need to add the day to the deal.	If it needs to be paid, we will need to add the day to the deal.	191677921	1477086880221	1477086880295	y	89
374180	4035276	If it needs to be paid, we will need to add the day to the deal.	If it needs to be paid, we will need to add the day to the deal.	191677923	1477086880260	1477086880346	 	32
374180	4035276	If it needs to be paid, we will need to add the day to the deal.	If it needs to be paid, we will need to add the day to the deal.	191677928	1477086880412	1477086880477	t	84
374180	4035276	If it needs to be paid, we will need to add the day to the deal.	If it needs to be paid, we will need to add the day to the deal.	191677931	1477086880482	1477086880577	o	79
374180	4035276	If it needs to be paid, we will need to add the day to the deal.	If it needs to be paid, we will need to add the day to the deal.	191677950	1477086880557	1477086880646	 	32
374180	4035276	If it needs to be paid, we will need to add the day to the deal.	If it needs to be paid, we will need to add the day to the deal.	191677952	1477086880691	1477086880741	t	84
374180	4035276	If it needs to be paid, we will need to add the day to the deal.	If it needs to be paid, we will need to add the day to the deal.	191677955	1477086880797	1477086880858	h	72
374180	4035276	If it needs to be paid, we will need to add the day to the deal.	If it needs to be paid, we will need to add the day to the deal.	191677957	1477086880893	1477086880957	e	69
374180	4035276	If it needs to be paid, we will need to add the day to the deal.	If it needs to be paid, we will need to add the day to the deal.	191677959	1477086880992	1477086881062	 	32
374180	4035276	If it needs to be paid, we will need to add the day to the deal.	If it needs to be paid, we will need to add the day to the deal.	191677960	1477086881173	1477086881229	d	68
374180	4035276	If it needs to be paid, we will need to add the day to the deal.	If it needs to be paid, we will need to add the day to the deal.	191677994	1477086881354	1477086881428	e	69
374180	4035276	If it needs to be paid, we will need to add the day to the deal.	If it needs to be paid, we will need to add the day to the deal.	191677995	1477086881479	1477086881564	a	65
374180	4035276	If it needs to be paid, we will need to add the day to the deal.	If it needs to be paid, we will need to add the day to the deal.	191677998	1477086881660	1477086881750	l	76
374180	4035276	If it needs to be paid, we will need to add the day to the deal.	If it needs to be paid, we will need to add the day to the deal.	191678002	1477086881870	1477086881925	.	190
374180	4035298	Not like you'll get paid for it.	Not like you';ll get paid for it.	191678244	1477086885899	1477086886149	SHIFT	16
374180	4035298	Not like you'll get paid for it.	Not like you';ll get paid for it.	191678241	1477086886054	1477086886124	N	78
374180	4035298	Not like you'll get paid for it.	Not like you';ll get paid for it.	191678246	1477086886184	1477086886255	o	79
374180	4035298	Not like you'll get paid for it.	Not like you';ll get paid for it.	191678249	1477086886295	1477086886355	t	84
374180	4035298	Not like you'll get paid for it.	Not like you';ll get paid for it.	191678251	1477086886385	1477086886475	 	32
374180	4035298	Not like you'll get paid for it.	Not like you';ll get paid for it.	191678254	1477086886555	1477086886737	l	76
374180	4035298	Not like you'll get paid for it.	Not like you';ll get paid for it.	191678269	1477086886697	1477086886802	i	73
374180	4035298	Not like you'll get paid for it.	Not like you';ll get paid for it.	191678274	1477086886897	1477086886977	k	75
374180	4035298	Not like you'll get paid for it.	Not like you';ll get paid for it.	191678277	1477086886992	1477086887053	e	69
374180	4035298	Not like you'll get paid for it.	Not like you';ll get paid for it.	191678280	1477086887042	1477086887128	 	32
374180	4035298	Not like you'll get paid for it.	Not like you';ll get paid for it.	191678282	1477086887238	1477086887287	y	89
374180	4035298	Not like you'll get paid for it.	Not like you';ll get paid for it.	191678344	1477086887277	1477086887397	o	79
374180	4035298	Not like you'll get paid for it.	Not like you';ll get paid for it.	191678348	1477086887342	1477086887413	u	85
374180	4035298	Not like you'll get paid for it.	Not like you';ll get paid for it.	191678352	1477086887643	1477086887718	'	222
374180	4035298	Not like you'll get paid for it.	Not like you';ll get paid for it.	191678356	1477086887673	1477086887718	;	186
374180	4035298	Not like you'll get paid for it.	Not like you';ll get paid for it.	191678360	1477086888304	1477086888346	l	76
374180	4035298	Not like you'll get paid for it.	Not like you';ll get paid for it.	191678364	1477086888425	1477086888505	l	76
374180	4035298	Not like you'll get paid for it.	Not like you';ll get paid for it.	191678395	1477086888536	1477086888625	 	32
374180	4035298	Not like you'll get paid for it.	Not like you';ll get paid for it.	191678398	1477086888911	1477086888991	g	71
374180	4035298	Not like you'll get paid for it.	Not like you';ll get paid for it.	191678401	1477086888986	1477086889131	e	69
374180	4035298	Not like you'll get paid for it.	Not like you';ll get paid for it.	191678404	1477086889086	1477086889172	t	84
374180	4035298	Not like you'll get paid for it.	Not like you';ll get paid for it.	191678442	1477086889151	1477086889232	 	32
374180	4035298	Not like you'll get paid for it.	Not like you';ll get paid for it.	191678444	1477086889332	1477086889407	p	80
374180	4035298	Not like you'll get paid for it.	Not like you';ll get paid for it.	191678445	1477086889437	1477086889516	a	65
374180	4035298	Not like you'll get paid for it.	Not like you';ll get paid for it.	191678446	1477086889562	1477086889627	i	73
374180	4035298	Not like you'll get paid for it.	Not like you';ll get paid for it.	191678447	1477086889738	1477086889803	d	68
374180	4035298	Not like you'll get paid for it.	Not like you';ll get paid for it.	191678450	1477086889843	1477086889907	 	32
374180	4035298	Not like you'll get paid for it.	Not like you';ll get paid for it.	191678469	1477086889968	1477086890034	f	70
374180	4035298	Not like you'll get paid for it.	Not like you';ll get paid for it.	191678471	1477086890069	1477086890129	o	79
374180	4035298	Not like you'll get paid for it.	Not like you';ll get paid for it.	191678473	1477086890164	1477086890213	r	82
374180	4035298	Not like you'll get paid for it.	Not like you';ll get paid for it.	191678475	1477086890239	1477086890308	 	32
374180	4035298	Not like you'll get paid for it.	Not like you';ll get paid for it.	191678477	1477086890364	1477086890425	i	73
374180	4035298	Not like you'll get paid for it.	Not like you';ll get paid for it.	191678528	1477086890460	1477086890500	t	84
374180	4035298	Not like you'll get paid for it.	Not like you';ll get paid for it.	191678531	1477086890660	1477086890695	.	190
374180	4035313	It's really just technicalities.	It;'s really just technicalities.	191678901	1477086896856	1477086897177	SHIFT	16
374180	4035313	It's really just technicalities.	It;'s really just technicalities.	191678896	1477086897086	1477086897142	I	73
374180	4035313	It's really just technicalities.	It;'s really just technicalities.	191678906	1477086897287	1477086897347	t	84
374180	4035313	It's really just technicalities.	It;'s really just technicalities.	191678909	1477086897456	1477086897531	'	186
374180	4035313	It's really just technicalities.	It;'s really just technicalities.	191678915	1477086898064	1477086898139	BKSP	8
374180	4035313	It's really just technicalities.	It;'s really just technicalities.	191678920	1477086898349	1477086898420	'	222
374180	4035313	It's really just technicalities.	It;'s really just technicalities.	191678958	1477086898635	1477086898710	s	83
374180	4035313	It's really just technicalities.	It;'s really just technicalities.	191678961	1477086898725	1477086898799	 	32
374180	4035313	It's really just technicalities.	It;'s really just technicalities.	191678964	1477086899056	1477086899161	r	82
374180	4035313	It's really just technicalities.	It;'s really just technicalities.	191678970	1477086899126	1477086899206	e	69
374180	4035313	It's really just technicalities.	It;'s really just technicalities.	191678975	1477086899337	1477086899416	a	65
374180	4035313	It's really just technicalities.	It;'s really just technicalities.	191679003	1477086899482	1477086899517	l	76
374180	4035313	It's really just technicalities.	It;'s really just technicalities.	191679007	1477086899582	1477086899646	l	76
374180	4035313	It's really just technicalities.	It;'s really just technicalities.	191679010	1477086899718	1477086899767	y	89
374180	4035313	It's really just technicalities.	It;'s really just technicalities.	191679013	1477086899783	1477086899843	 	32
374180	4035313	It's really just technicalities.	It;'s really just technicalities.	191679016	1477086899943	1477086900003	j	74
374180	4035313	It's really just technicalities.	It;'s really just technicalities.	191679032	1477086900093	1477086900154	u	85
374180	4035313	It's really just technicalities.	It;'s really just technicalities.	191679038	1477086900179	1477086900253	s	83
374180	4035313	It's really just technicalities.	It;'s really just technicalities.	191679044	1477086900349	1477086900408	t	84
374180	4035313	It's really just technicalities.	It;'s really just technicalities.	191679048	1477086900433	1477086900494	 	32
374180	4035313	It's really just technicalities.	It;'s really just technicalities.	191679164	1477086900560	1477086900609	r	84
374180	4035313	It's really just technicalities.	It;'s really just technicalities.	191679166	1477086901201	1477086901270	e	69
374180	4035313	It's really just technicalities.	It;'s really just technicalities.	191679167	1477086901641	1477086901721	BKSP	8
374180	4035313	It's really just technicalities.	It;'s really just technicalities.	191679169	1477086901797	1477086901867	BKSP	8
374180	4035313	It's really just technicalities.	It;'s really just technicalities.	191679171	1477086901947	1477086902022	e	69
374180	4035313	It's really just technicalities.	It;'s really just technicalities.	191679173	1477086902132	1477086902198	c	67
374180	4035313	It's really just technicalities.	It;'s really just technicalities.	191679175	1477086902313	1477086902394	h	72
374180	4035313	It's really just technicalities.	It;'s really just technicalities.	191679177	1477086903095	1477086903185	n	78
374180	4035313	It's really just technicalities.	It;'s really just technicalities.	191679217	1477086903160	1477086903245	i	73
374180	4035313	It's really just technicalities.	It;'s really just technicalities.	191679222	1477086903375	1477086903435	c	67
374180	4035313	It's really just technicalities.	It;'s really just technicalities.	191679230	1477086903512	1477086903586	a	65
374180	4035313	It's really just technicalities.	It;'s really just technicalities.	191679236	1477086903641	1477086903796	l	76
374180	4035313	It's really just technicalities.	It;'s really just technicalities.	191679241	1477086903736	1477086903862	i	73
374180	4035313	It's really just technicalities.	It;'s really just technicalities.	191679244	1477086904007	1477086904057	t	84
374180	4035313	It's really just technicalities.	It;'s really just technicalities.	191679326	1477086904122	1477086904187	i	73
374180	4035313	It's really just technicalities.	It;'s really just technicalities.	191679328	1477086904262	1477086904333	e	69
374180	4035313	It's really just technicalities.	It;'s really just technicalities.	191679332	1477086904433	1477086904503	s	83
374180	4035328	What does Hunter think?	What does HUnter think?	191679463	1477086908396	1477086908653	SHIFT	16
374180	4035328	What does Hunter think?	What does HUnter think?	191679464	1477086908598	1477086908708	W	87
374180	4035328	What does Hunter think?	What does HUnter think?	191679466	1477086908778	1477086908833	h	72
374180	4035328	What does Hunter think?	What does HUnter think?	191679470	1477086908858	1477086908929	a	65
374180	4035328	What does Hunter think?	What does HUnter think?	191679474	1477086908985	1477086909089	t	84
374180	4035328	What does Hunter think?	What does HUnter think?	191679509	1477086909059	1477086909150	 	32
374180	4035328	What does Hunter think?	What does HUnter think?	191679511	1477086909566	1477086909635	d	68
374180	4035328	What does Hunter think?	What does HUnter think?	191679513	1477086909691	1477086909757	o	79
374180	4035328	What does Hunter think?	What does HUnter think?	191679515	1477086909782	1477086909846	e	69
374180	4035328	What does Hunter think?	What does HUnter think?	191679519	1477086909942	1477086910020	s	83
374180	4035328	What does Hunter think?	What does HUnter think?	191679522	1477086910041	1477086910111	 	32
374180	4035328	What does Hunter think?	What does HUnter think?	191679566	1477086910177	1477086910389	SHIFT	16
374180	4035328	What does Hunter think?	What does HUnter think?	191679568	1477086910288	1477086910390	H	72
374180	4035328	What does Hunter think?	What does HUnter think?	191679574	1477086910369	1477086910457	U	85
374180	4035328	What does Hunter think?	What does HUnter think?	191679578	1477086910619	1477086910679	n	78
374180	4035328	What does Hunter think?	What does HUnter think?	191679581	1477086910704	1477086910754	t	84
374180	4035328	What does Hunter think?	What does HUnter think?	191679584	1477086910879	1477086910989	e	69
374180	4035328	What does Hunter think?	What does HUnter think?	191679607	1477086910959	1477086911045	r	82
374180	4035328	What does Hunter think?	What does HUnter think?	191679609	1477086911050	1477086911125	 	32
374180	4035328	What does Hunter think?	What does HUnter think?	191679613	1477086911179	1477086911224	t	84
374180	4035328	What does Hunter think?	What does HUnter think?	191679617	1477086911274	1477086911370	h	72
374180	4035328	What does Hunter think?	What does HUnter think?	191679620	1477086911350	1477086911436	i	73
374180	4035328	What does Hunter think?	What does HUnter think?	191679624	1477086911561	1477086911636	n	78
374180	4035328	What does Hunter think?	What does HUnter think?	191679653	1477086911731	1477086911791	k	75
374180	4035328	What does Hunter think?	What does HUnter think?	191679658	1477086912066	1477086912273	SHIFT	16
374180	4035328	What does Hunter think?	What does HUnter think?	191679663	1477086912207	1477086912288	?	191
374180	4035334	Please respond if anyone has a different view.	Pleasse respond if anyone has different views.	191679899	1477086917098	1477086917379	SHIFT	16
374180	4035334	Please respond if anyone has a different view.	Pleasse respond if anyone has different views.	191679895	1477086917259	1477086917324	P	80
374180	4035334	Please respond if anyone has a different view.	Pleasse respond if anyone has different views.	191679904	1477086917449	1477086917504	l	76
374180	4035334	Please respond if anyone has a different view.	Pleasse respond if anyone has different views.	191679908	1477086917509	1477086917639	e	69
374180	4035334	Please respond if anyone has a different view.	Pleasse respond if anyone has different views.	191679911	1477086917625	1477086917714	a	65
374180	4035334	Please respond if anyone has a different view.	Pleasse respond if anyone has different views.	191679912	1477086917795	1477086917870	s	83
374180	4035334	Please respond if anyone has a different view.	Pleasse respond if anyone has different views.	191679920	1477086917931	1477086917976	e	83
374180	4035334	Please respond if anyone has a different view.	Pleasse respond if anyone has different views.	191679924	1477086918091	1477086918177	 	32
374180	4035334	Please respond if anyone has a different view.	Pleasse respond if anyone has different views.	191679928	1477086918212	1477086918331	r	82
374180	4035334	Please respond if anyone has a different view.	Pleasse respond if anyone has different views.	191679967	1477086918306	1477086918396	e	69
374180	4035334	Please respond if anyone has a different view.	Pleasse respond if anyone has different views.	191679970	1477086918496	1477086918578	s	83
374180	4035334	Please respond if anyone has a different view.	Pleasse respond if anyone has different views.	191679978	1477086918688	1477086918767	p	80
374180	4035334	Please respond if anyone has a different view.	Pleasse respond if anyone has different views.	191679985	1477086918897	1477086918962	o	79
374180	4035334	Please respond if anyone has a different view.	Pleasse respond if anyone has different views.	191679991	1477086919108	1477086919233	n	78
374180	4035334	Please respond if anyone has a different view.	Pleasse respond if anyone has different views.	191680037	1477086919208	1477086919323	 	32
374180	4035334	Please respond if anyone has a different view.	Pleasse respond if anyone has different views.	191680040	1477086919865	1477086919950	BKSP	8
374180	4035334	Please respond if anyone has a different view.	Pleasse respond if anyone has different views.	191680045	1477086920041	1477086920105	d	68
374180	4035334	Please respond if anyone has a different view.	Pleasse respond if anyone has different views.	191680047	1477086920135	1477086920220	 	32
374180	4035334	Please respond if anyone has a different view.	Pleasse respond if anyone has different views.	191680050	1477086920928	1477086921002	i	73
374180	4035334	Please respond if anyone has a different view.	Pleasse respond if anyone has different views.	191680054	1477086921173	1477086921238	f	70
374180	4035334	Please respond if anyone has a different view.	Pleasse respond if anyone has different views.	191680055	1477086921293	1477086921358	 	32
374180	4035334	Please respond if anyone has a different view.	Pleasse respond if anyone has different views.	191680076	1477086921393	1477086921478	a	65
374180	4035334	Please respond if anyone has a different view.	Pleasse respond if anyone has different views.	191680078	1477086921518	1477086921579	n	78
374180	4035334	Please respond if anyone has a different view.	Pleasse respond if anyone has different views.	191680080	1477086921729	1477086921789	y	89
374180	4035334	Please respond if anyone has a different view.	Pleasse respond if anyone has different views.	191680083	1477086921915	1477086922040	o	79
374180	4035334	Please respond if anyone has a different view.	Pleasse respond if anyone has different views.	191680108	1477086922015	1477086922115	n	78
374180	4035334	Please respond if anyone has a different view.	Pleasse respond if anyone has different views.	191680110	1477086922145	1477086922200	e	69
374180	4035334	Please respond if anyone has a different view.	Pleasse respond if anyone has different views.	191680112	1477086922215	1477086922281	 	32
374180	4035334	Please respond if anyone has a different view.	Pleasse respond if anyone has different views.	191680115	1477086922360	1477086922426	h	72
374180	4035334	Please respond if anyone has a different view.	Pleasse respond if anyone has different views.	191680119	1477086922441	1477086922511	a	65
374180	4035334	Please respond if anyone has a different view.	Pleasse respond if anyone has different views.	191680122	1477086922606	1477086922671	s	83
374180	4035334	Please respond if anyone has a different view.	Pleasse respond if anyone has different views.	191680136	1477086922691	1477086922751	 	32
374180	4035334	Please respond if anyone has a different view.	Pleasse respond if anyone has different views.	191680139	1477086922822	1477086922887	d	68
374180	4035334	Please respond if anyone has a different view.	Pleasse respond if anyone has different views.	191680144	1477086922912	1477086922972	i	73
374180	4035334	Please respond if anyone has a different view.	Pleasse respond if anyone has different views.	191680149	1477086923027	1477086923077	f	70
374180	4035334	Please respond if anyone has a different view.	Pleasse respond if anyone has different views.	191680152	1477086923162	1477086923218	f	70
374180	4035334	Please respond if anyone has a different view.	Pleasse respond if anyone has different views.	191680171	1477086923328	1477086923423	e	69
374180	4035334	Please respond if anyone has a different view.	Pleasse respond if anyone has different views.	191680173	1477086923398	1477086923487	r	82
374180	4035334	Please respond if anyone has a different view.	Pleasse respond if anyone has different views.	191680175	1477086923558	1477086923649	e	69
374180	4035334	Please respond if anyone has a different view.	Pleasse respond if anyone has different views.	191680178	1477086923714	1477086923779	n	78
374180	4035334	Please respond if anyone has a different view.	Pleasse respond if anyone has different views.	191680183	1477086923780	1477086923844	t	84
374180	4035334	Please respond if anyone has a different view.	Pleasse respond if anyone has different views.	191680202	1477086923904	1477086923984	 	32
374180	4035334	Please respond if anyone has a different view.	Pleasse respond if anyone has different views.	191680204	1477086924435	1477086924491	v	86
374180	4035334	Please respond if anyone has a different view.	Pleasse respond if anyone has different views.	191680207	1477086924561	1477086924626	i	73
374180	4035334	Please respond if anyone has a different view.	Pleasse respond if anyone has different views.	191680210	1477086924751	1477086924851	e	69
374180	4035334	Please respond if anyone has a different view.	Pleasse respond if anyone has different views.	191680213	1477086925047	1477086925137	w	87
374180	4035334	Please respond if anyone has a different view.	Pleasse respond if anyone has different views.	191680216	1477086925207	1477086925277	s	83
374180	4035346	I am working with Mary Joyce on that right now.	I am working with Mary Joyce on that right now	191680377	1477086929913	1477086930090	SHIFT	16
374180	4035346	I am working with Mary Joyce on that right now.	I am working with Mary Joyce on that right now	191680379	1477086930015	1477086930105	I	73
374180	4035346	I am working with Mary Joyce on that right now.	I am working with Mary Joyce on that right now	191680382	1477086930075	1477086930145	 	32
374180	4035346	I am working with Mary Joyce on that right now.	I am working with Mary Joyce on that right now	191680386	1477086930205	1477086930270	a	65
374180	4035346	I am working with Mary Joyce on that right now.	I am working with Mary Joyce on that right now	191680389	1477086930280	1477086930397	m	77
374180	4035346	I am working with Mary Joyce on that right now.	I am working with Mary Joyce on that right now	191680426	1477086930391	1477086930492	 	32
374180	4035346	I am working with Mary Joyce on that right now.	I am working with Mary Joyce on that right now	191680428	1477086930601	1477086930670	w	87
374180	4035346	I am working with Mary Joyce on that right now.	I am working with Mary Joyce on that right now	191680430	1477086930685	1477086930761	o	79
374180	4035346	I am working with Mary Joyce on that right now.	I am working with Mary Joyce on that right now	191680434	1477086930877	1477086930952	k	75
374180	4035346	I am working with Mary Joyce on that right now.	I am working with Mary Joyce on that right now	191680436	1477086931398	1477086931488	BKSP	8
374180	4035346	I am working with Mary Joyce on that right now.	I am working with Mary Joyce on that right now	191680437	1477086931543	1477086931598	r	82
374180	4035346	I am working with Mary Joyce on that right now.	I am working with Mary Joyce on that right now	191680438	1477086931623	1477086931714	k	75
374180	4035346	I am working with Mary Joyce on that right now.	I am working with Mary Joyce on that right now	191680465	1477086931829	1477086931984	i	73
374180	4035346	I am working with Mary Joyce on that right now.	I am working with Mary Joyce on that right now	191680468	1477086931914	1477086932035	n	78
374180	4035346	I am working with Mary Joyce on that right now.	I am working with Mary Joyce on that right now	191680469	1477086932050	1477086932099	g	71
374180	4035346	I am working with Mary Joyce on that right now.	I am working with Mary Joyce on that right now	191680471	1477086932124	1477086932230	 	32
374180	4035346	I am working with Mary Joyce on that right now.	I am working with Mary Joyce on that right now	191680473	1477086933067	1477086933132	w	87
374180	4035346	I am working with Mary Joyce on that right now.	I am working with Mary Joyce on that right now	191680482	1477086933147	1477086933221	i	73
374180	4035346	I am working with Mary Joyce on that right now.	I am working with Mary Joyce on that right now	191680483	1477086933277	1477086933328	t	84
374180	4035346	I am working with Mary Joyce on that right now.	I am working with Mary Joyce on that right now	191680484	1477086933353	1477086933447	h	72
374180	4035346	I am working with Mary Joyce on that right now.	I am working with Mary Joyce on that right now	191680485	1477086933418	1477086933497	 	32
374180	4035346	I am working with Mary Joyce on that right now.	I am working with Mary Joyce on that right now	191680529	1477086933557	1477086933729	SHIFT	16
374180	4035346	I am working with Mary Joyce on that right now.	I am working with Mary Joyce on that right now	191680486	1477086933637	1477086933703	M	77
374180	4035346	I am working with Mary Joyce on that right now.	I am working with Mary Joyce on that right now	191680530	1477086933794	1477086933868	a	65
374180	4035346	I am working with Mary Joyce on that right now.	I am working with Mary Joyce on that right now	191680531	1477086933984	1477086934038	r	82
374180	4035346	I am working with Mary Joyce on that right now.	I am working with Mary Joyce on that right now	191680532	1477086934073	1477086934169	y	89
374180	4035346	I am working with Mary Joyce on that right now.	I am working with Mary Joyce on that right now	191680533	1477086934138	1477086934219	 	32
374180	4035346	I am working with Mary Joyce on that right now.	I am working with Mary Joyce on that right now	191680534	1477086934395	1477086934449	SHIFT	16
374180	4035346	I am working with Mary Joyce on that right now.	I am working with Mary Joyce on that right now	191680553	1477086934581	1477086935051	SHIFT	16
374180	4035346	I am working with Mary Joyce on that right now.	I am working with Mary Joyce on that right now	191680535	1477086934960	1477086935021	J	74
374180	4035346	I am working with Mary Joyce on that right now.	I am working with Mary Joyce on that right now	191680555	1477086935117	1477086935196	o	79
374180	4035346	I am working with Mary Joyce on that right now.	I am working with Mary Joyce on that right now	191680557	1477086935366	1477086935432	y	89
374180	4035346	I am working with Mary Joyce on that right now.	I am working with Mary Joyce on that right now	191680559	1477086935633	1477086935717	c	67
374180	4035346	I am working with Mary Joyce on that right now.	I am working with Mary Joyce on that right now	191680561	1477086935682	1477086935762	e	69
374180	4035346	I am working with Mary Joyce on that right now.	I am working with Mary Joyce on that right now	191680583	1477086935747	1477086935833	 	32
374180	4035346	I am working with Mary Joyce on that right now.	I am working with Mary Joyce on that right now	191680585	1477086935919	1477086936053	o	79
374180	4035346	I am working with Mary Joyce on that right now.	I am working with Mary Joyce on that right now	191680587	1477086936008	1477086936108	n	78
374180	4035346	I am working with Mary Joyce on that right now.	I am working with Mary Joyce on that right now	191680589	1477086936063	1477086936133	 	32
374180	4035346	I am working with Mary Joyce on that right now.	I am working with Mary Joyce on that right now	191680590	1477086936178	1477086936223	t	84
374180	4035346	I am working with Mary Joyce on that right now.	I am working with Mary Joyce on that right now	191680591	1477086936280	1477086936354	h	72
374180	4035346	I am working with Mary Joyce on that right now.	I am working with Mary Joyce on that right now	191680602	1477086936405	1477086936479	a	65
374180	4035346	I am working with Mary Joyce on that right now.	I am working with Mary Joyce on that right now	191680605	1477086936504	1477086936581	t	84
374180	4035346	I am working with Mary Joyce on that right now.	I am working with Mary Joyce on that right now	191680608	1477086936574	1477086936634	 	32
374180	4035346	I am working with Mary Joyce on that right now.	I am working with Mary Joyce on that right now	191680610	1477086936730	1477086936790	r	82
374180	4035346	I am working with Mary Joyce on that right now.	I am working with Mary Joyce on that right now	191680612	1477086936815	1477086936895	i	73
374180	4035346	I am working with Mary Joyce on that right now.	I am working with Mary Joyce on that right now	191680625	1477086936951	1477086937000	g	71
374180	4035346	I am working with Mary Joyce on that right now.	I am working with Mary Joyce on that right now	191680628	1477086937051	1477086937116	h	72
374180	4035346	I am working with Mary Joyce on that right now.	I am working with Mary Joyce on that right now	191680632	1477086937136	1477086937196	t	84
374180	4035346	I am working with Mary Joyce on that right now.	I am working with Mary Joyce on that right now	191680636	1477086937221	1477086937311	 	32
374180	4035346	I am working with Mary Joyce on that right now.	I am working with Mary Joyce on that right now	191680641	1477086937352	1477086937456	n	78
374180	4035346	I am working with Mary Joyce on that right now.	I am working with Mary Joyce on that right now	191680649	1477086937432	1477086937537	o	79
374180	4035346	I am working with Mary Joyce on that right now.	I am working with Mary Joyce on that right now	191680650	1477086937587	1477086937647	w	87
374180	4035352	Are you going to join us for lunch?	Are you going to join us for lunch?	191680770	1477086940554	1477086940814	SHIFT	16
374180	4035352	Are you going to join us for lunch?	Are you going to join us for lunch?	191680773	1477086940764	1477086940860	A	65
374180	4035352	Are you going to join us for lunch?	Are you going to join us for lunch?	191680775	1477086940980	1477086941095	r	82
374180	4035352	Are you going to join us for lunch?	Are you going to join us for lunch?	191680777	1477086941050	1477086941145	e	69
374180	4035352	Are you going to join us for lunch?	Are you going to join us for lunch?	191680779	1477086941135	1477086941230	 	32
374180	4035352	Are you going to join us for lunch?	Are you going to join us for lunch?	191680781	1477086941311	1477086941366	y	89
374180	4035352	Are you going to join us for lunch?	Are you going to join us for lunch?	191680784	1477086941377	1477086941520	o	79
374180	4035352	Are you going to join us for lunch?	Are you going to join us for lunch?	191680788	1477086941461	1477086941561	u	85
374180	4035352	Are you going to join us for lunch?	Are you going to join us for lunch?	191680791	1477086941501	1477086941606	 	32
374180	4035352	Are you going to join us for lunch?	Are you going to join us for lunch?	191680795	1477086941752	1477086941807	g	71
374180	4035352	Are you going to join us for lunch?	Are you going to join us for lunch?	191680830	1477086941792	1477086942026	o	79
374180	4035352	Are you going to join us for lunch?	Are you going to join us for lunch?	191680835	1477086941857	1477086942077	i	73
374180	4035352	Are you going to join us for lunch?	Are you going to join us for lunch?	191680844	1477086942007	1477086942128	n	78
374180	4035352	Are you going to join us for lunch?	Are you going to join us for lunch?	191680849	1477086942163	1477086942212	g	71
374180	4035352	Are you going to join us for lunch?	Are you going to join us for lunch?	191680855	1477086942258	1477086942378	 	32
374180	4035352	Are you going to join us for lunch?	Are you going to join us for lunch?	191680859	1477086942393	1477086942458	t	84
374180	4035352	Are you going to join us for lunch?	Are you going to join us for lunch?	191680880	1477086942473	1477086942599	o	79
374180	4035352	Are you going to join us for lunch?	Are you going to join us for lunch?	191680881	1477086942570	1477086942679	 	32
374180	4035352	Are you going to join us for lunch?	Are you going to join us for lunch?	191680882	1477086942874	1477086942999	j	74
374180	4035352	Are you going to join us for lunch?	Are you going to join us for lunch?	191680883	1477086942980	1477086943176	o	79
374180	4035352	Are you going to join us for lunch?	Are you going to join us for lunch?	191680925	1477086943131	1477086943286	i	73
374180	4035352	Are you going to join us for lunch?	Are you going to join us for lunch?	191680928	1477086943381	1477086943487	n	78
374180	4035352	Are you going to join us for lunch?	Are you going to join us for lunch?	191680931	1477086943462	1477086943572	 	32
374180	4035352	Are you going to join us for lunch?	Are you going to join us for lunch?	191680934	1477086943697	1477086943787	u	85
374180	4035352	Are you going to join us for lunch?	Are you going to join us for lunch?	191680936	1477086943827	1477086943884	s	83
374180	4035352	Are you going to join us for lunch?	Are you going to join us for lunch?	191680941	1477086943913	1477086943998	 	32
374180	4035352	Are you going to join us for lunch?	Are you going to join us for lunch?	191680957	1477086944113	1477086944168	f	70
374180	4035352	Are you going to join us for lunch?	Are you going to join us for lunch?	191680961	1477086944178	1477086944253	o	79
374180	4035352	Are you going to join us for lunch?	Are you going to join us for lunch?	191680964	1477086944294	1477086944343	r	82
374180	4035352	Are you going to join us for lunch?	Are you going to join us for lunch?	191680969	1477086944358	1477086944433	 	32
374180	4035352	Are you going to join us for lunch?	Are you going to join us for lunch?	191680970	1477086944499	1477086944659	l	76
374180	4035352	Are you going to join us for lunch?	Are you going to join us for lunch?	191681048	1477086944635	1477086944700	i	85
374180	4035352	Are you going to join us for lunch?	Are you going to join us for lunch?	191681050	1477086945225	1477086945311	BKSP	8
374180	4035352	Are you going to join us for lunch?	Are you going to join us for lunch?	191681052	1477086946063	1477086946143	n	78
374180	4035352	Are you going to join us for lunch?	Are you going to join us for lunch?	191681053	1477086946198	1477086946243	c	67
374180	4035352	Are you going to join us for lunch?	Are you going to join us for lunch?	191681055	1477086946283	1477086946333	h	72
374180	4035352	Are you going to join us for lunch?	Are you going to join us for lunch?	191681063	1477086946654	1477086946910	SHIFT	16
374180	4035352	Are you going to join us for lunch?	Are you going to join us for lunch?	191681058	1477086946804	1477086946865	?	191
374180	4035361	I vote for the latter.	I vote for the latter.	191681227	1477086950503	1477086950674	SHIFT	16
374180	4035361	I vote for the latter.	I vote for the latter.	191681230	1477086950604	1477086950704	I	73
374180	4035361	I vote for the latter.	I vote for the latter.	191681234	1477086950659	1477086950749	 	32
374180	4035361	I vote for the latter.	I vote for the latter.	191681239	1477086950783	1477086950848	v	86
374180	4035361	I vote for the latter.	I vote for the latter.	191681241	1477086950873	1477086950953	o	79
374180	4035361	I vote for the latter.	I vote for the latter.	191681245	1477086950994	1477086951075	t	84
374180	4035361	I vote for the latter.	I vote for the latter.	191681276	1477086951125	1477086951215	e	69
374180	4035361	I vote for the latter.	I vote for the latter.	191681279	1477086951250	1477086951330	 	32
374180	4035361	I vote for the latter.	I vote for the latter.	191681281	1477086951657	1477086951741	f	70
374180	4035361	I vote for the latter.	I vote for the latter.	191681283	1477086951816	1477086951898	o	79
374180	4035361	I vote for the latter.	I vote for the latter.	191681285	1477086951898	1477086951962	r	82
374180	4035361	I vote for the latter.	I vote for the latter.	191681286	1477086952002	1477086952072	 	32
374180	4035361	I vote for the latter.	I vote for the latter.	191681289	1477086952092	1477086952137	t	84
374180	4035361	I vote for the latter.	I vote for the latter.	191681293	1477086952187	1477086952251	h	72
374180	4035361	I vote for the latter.	I vote for the latter.	191681297	1477086952261	1477086952338	e	69
374180	4035361	I vote for the latter.	I vote for the latter.	191681301	1477086952343	1477086952413	 	32
374180	4035361	I vote for the latter.	I vote for the latter.	191681330	1477086952493	1477086952568	l	76
374180	4035361	I vote for the latter.	I vote for the latter.	191681334	1477086952583	1477086952643	a	65
374180	4035361	I vote for the latter.	I vote for the latter.	191681339	1477086952814	1477086952873	t	84
374180	4035361	I vote for the latter.	I vote for the latter.	191681343	1477086952953	1477086953008	t	84
374180	4035361	I vote for the latter.	I vote for the latter.	191681347	1477086953114	1477086953229	e	69
374180	4035361	I vote for the latter.	I vote for the latter.	191681359	1477086953190	1477086953294	r	82
374180	4035361	I vote for the latter.	I vote for the latter.	191681362	1477086953415	1477086953475	.	190
374180	4035365	Doctors gave him 10 years to live at most.	Doctors gave him 10 years to live at most.,	191681494	1477086957606	1477086957970	SHIFT	16
374180	4035365	Doctors gave him 10 years to live at most.	Doctors gave him 10 years to live at most.,	191681498	1477086957910	1477086957982	D	68
374180	4035365	Doctors gave him 10 years to live at most.	Doctors gave him 10 years to live at most.,	191681503	1477086958011	1477086958075	o	79
374180	4035365	Doctors gave him 10 years to live at most.	Doctors gave him 10 years to live at most.,	191681508	1477086958106	1477086958166	c	67
374180	4035365	Doctors gave him 10 years to live at most.	Doctors gave him 10 years to live at most.,	191681512	1477086958291	1477086958351	t	84
374180	4035365	Doctors gave him 10 years to live at most.	Doctors gave him 10 years to live at most.,	191681516	1477086958416	1477086958547	o	79
374180	4035365	Doctors gave him 10 years to live at most.	Doctors gave him 10 years to live at most.,	191681533	1477086959068	1477086959133	r	82
374180	4035365	Doctors gave him 10 years to live at most.	Doctors gave him 10 years to live at most.,	191681535	1477086959243	1477086959318	s	83
374180	4035365	Doctors gave him 10 years to live at most.	Doctors gave him 10 years to live at most.,	191681537	1477086959369	1477086959444	 	32
374180	4035365	Doctors gave him 10 years to live at most.	Doctors gave him 10 years to live at most.,	191681540	1477086959744	1477086959805	g	71
374180	4035365	Doctors gave him 10 years to live at most.	Doctors gave him 10 years to live at most.,	191681542	1477086959810	1477086959880	a	65
374180	4035365	Doctors gave him 10 years to live at most.	Doctors gave him 10 years to live at most.,	191681558	1477086959936	1477086959980	v	86
374180	4035365	Doctors gave him 10 years to live at most.	Doctors gave him 10 years to live at most.,	191681562	1477086960015	1477086960069	e	69
374180	4035365	Doctors gave him 10 years to live at most.	Doctors gave him 10 years to live at most.,	191681566	1477086960115	1477086960170	 	32
374180	4035365	Doctors gave him 10 years to live at most.	Doctors gave him 10 years to live at most.,	191681569	1477086960320	1477086960421	h	72
374180	4035365	Doctors gave him 10 years to live at most.	Doctors gave him 10 years to live at most.,	191681628	1477086960395	1477086960496	i	73
374180	4035365	Doctors gave him 10 years to live at most.	Doctors gave him 10 years to live at most.,	191681632	1477086960652	1477086960753	m	77
374180	4035365	Doctors gave him 10 years to live at most.	Doctors gave him 10 years to live at most.,	191681637	1477086960768	1477086960863	 	32
374180	4035365	Doctors gave him 10 years to live at most.	Doctors gave him 10 years to live at most.,	191681641	1477086960943	1477086961008	1	49
374180	4035365	Doctors gave him 10 years to live at most.	Doctors gave him 10 years to live at most.,	191681645	1477086961048	1477086961143	 	32
374180	4035365	Doctors gave him 10 years to live at most.	Doctors gave him 10 years to live at most.,	191681646	1477086961585	1477086961670	BKSP	8
374180	4035365	Doctors gave him 10 years to live at most.	Doctors gave him 10 years to live at most.,	191681648	1477086961937	1477086962066	0	48
374180	4035365	Doctors gave him 10 years to live at most.	Doctors gave him 10 years to live at most.,	191681674	1477086962046	1477086962141	 	32
374180	4035365	Doctors gave him 10 years to live at most.	Doctors gave him 10 years to live at most.,	191681677	1477086962526	1477086962586	y	89
374180	4035365	Doctors gave him 10 years to live at most.	Doctors gave him 10 years to live at most.,	191681682	1477086962637	1477086962758	e	69
374180	4035365	Doctors gave him 10 years to live at most.	Doctors gave him 10 years to live at most.,	191681683	1477086962722	1477086962817	a	65
374180	4035365	Doctors gave him 10 years to live at most.	Doctors gave him 10 years to live at most.,	191681686	1477086962923	1477086963003	r	82
374180	4035365	Doctors gave him 10 years to live at most.	Doctors gave him 10 years to live at most.,	191681710	1477086962993	1477086963093	s	83
374180	4035365	Doctors gave him 10 years to live at most.	Doctors gave him 10 years to live at most.,	191681713	1477086963159	1477086963238	 	32
374180	4035365	Doctors gave him 10 years to live at most.	Doctors gave him 10 years to live at most.,	191681717	1477086963278	1477086963333	t	84
374180	4035365	Doctors gave him 10 years to live at most.	Doctors gave him 10 years to live at most.,	191681719	1477086963359	1477086963459	o	79
374180	4035365	Doctors gave him 10 years to live at most.	Doctors gave him 10 years to live at most.,	191681721	1477086963424	1477086963524	 	32
374180	4035365	Doctors gave him 10 years to live at most.	Doctors gave him 10 years to live at most.,	191681724	1477086963590	1477086963715	l	76
374180	4035365	Doctors gave him 10 years to live at most.	Doctors gave him 10 years to live at most.,	191681760	1477086963665	1477086963785	i	73
374180	4035365	Doctors gave him 10 years to live at most.	Doctors gave him 10 years to live at most.,	191681765	1477086963944	1477086964060	v	86
374180	4035365	Doctors gave him 10 years to live at most.	Doctors gave him 10 years to live at most.,	191681768	1477086964035	1477086964110	e	69
374180	4035365	Doctors gave him 10 years to live at most.	Doctors gave him 10 years to live at most.,	191681772	1477086964145	1477086964231	 	32
374180	4035365	Doctors gave him 10 years to live at most.	Doctors gave him 10 years to live at most.,	191681776	1477086964251	1477086964326	a	65
374180	4035365	Doctors gave him 10 years to live at most.	Doctors gave him 10 years to live at most.,	191681781	1477086964447	1477086964507	t	84
374180	4035365	Doctors gave him 10 years to live at most.	Doctors gave him 10 years to live at most.,	191681808	1477086964512	1477086964602	 	32
374180	4035365	Doctors gave him 10 years to live at most.	Doctors gave him 10 years to live at most.,	191681810	1477086964657	1477086964791	m	77
374180	4035365	Doctors gave him 10 years to live at most.	Doctors gave him 10 years to live at most.,	191681811	1477086964751	1477086964883	o	79
374180	4035365	Doctors gave him 10 years to live at most.	Doctors gave him 10 years to live at most.,	191681812	1477086964943	1477086965032	s	83
374180	4035365	Doctors gave him 10 years to live at most.	Doctors gave him 10 years to live at most.,	191681813	1477086965152	1477086965227	t	84
374180	4035365	Doctors gave him 10 years to live at most.	Doctors gave him 10 years to live at most.,	191681819	1477086965309	1477086965379	,	190
374180	4035375	Man I don't want to get sick again.	Man I don't want to get sick again.	191682014	1477086969739	1477086971247	SHIFT	16
374180	4035375	Man I don't want to get sick again.	Man I don't want to get sick again.	191682016	1477086971203	1477086971273	M	77
374180	4035375	Man I don't want to get sick again.	Man I don't want to get sick again.	191682018	1477086971357	1477086971423	a	65
374180	4035375	Man I don't want to get sick again.	Man I don't want to get sick again.	191682019	1477086971438	1477086971543	n	78
374180	4035375	Man I don't want to get sick again.	Man I don't want to get sick again.	191682020	1477086971493	1477086971593	 	32
374180	4035375	Man I don't want to get sick again.	Man I don't want to get sick again.	191682022	1477086971844	1477086972019	SHIFT	16
374180	4035375	Man I don't want to get sick again.	Man I don't want to get sick again.	191682077	1477086971940	1477086972039	I	73
374180	4035375	Man I don't want to get sick again.	Man I don't want to get sick again.	191682079	1477086971994	1477086972084	 	32
374180	4035375	Man I don't want to get sick again.	Man I don't want to get sick again.	191682082	1477086972200	1477086972286	d	68
374180	4035375	Man I don't want to get sick again.	Man I don't want to get sick again.	191682084	1477086972270	1477086972420	o	79
374180	4035375	Man I don't want to get sick again.	Man I don't want to get sick again.	191682085	1477086972385	1477086972476	n	78
374180	4035375	Man I don't want to get sick again.	Man I don't want to get sick again.	191682086	1477086973438	1477086973498	'	222
374180	4035375	Man I don't want to get sick again.	Man I don't want to get sick again.	191682087	1477086973558	1477086973613	t	84
374180	4035375	Man I don't want to get sick again.	Man I don't want to get sick again.	191682112	1477086973658	1477086973729	 	32
374180	4035375	Man I don't want to get sick again.	Man I don't want to get sick again.	191682114	1477086973954	1477086974023	w	87
374180	4035375	Man I don't want to get sick again.	Man I don't want to get sick again.	191682117	1477086974145	1477086974204	a	65
374180	4035375	Man I don't want to get sick again.	Man I don't want to get sick again.	191682119	1477086974269	1477086974345	n	78
374180	4035375	Man I don't want to get sick again.	Man I don't want to get sick again.	191682120	1477086974460	1477086974515	t	84
374180	4035375	Man I don't want to get sick again.	Man I don't want to get sick again.	191682122	1477086974525	1477086974601	 	32
374180	4035375	Man I don't want to get sick again.	Man I don't want to get sick again.	191682124	1477086974651	1477086974696	t	84
374180	4035375	Man I don't want to get sick again.	Man I don't want to get sick again.	191682127	1477086974731	1477086974816	o	79
374180	4035375	Man I don't want to get sick again.	Man I don't want to get sick again.	191682130	1477086974786	1477086974866	 	32
374180	4035375	Man I don't want to get sick again.	Man I don't want to get sick again.	191682132	1477086974955	1477086975051	g	71
374180	4035375	Man I don't want to get sick again.	Man I don't want to get sick again.	191682147	1477086975071	1477086975207	e	69
374180	4035375	Man I don't want to get sick again.	Man I don't want to get sick again.	191682150	1477086975172	1477086975262	t	84
374180	4035375	Man I don't want to get sick again.	Man I don't want to get sick again.	191682155	1477086975252	1477086975357	 	32
374180	4035375	Man I don't want to get sick again.	Man I don't want to get sick again.	191682157	1477086975478	1477086975548	s	83
374180	4035375	Man I don't want to get sick again.	Man I don't want to get sick again.	191682160	1477086975593	1477086975672	i	73
374180	4035375	Man I don't want to get sick again.	Man I don't want to get sick again.	191682173	1477086975747	1477086975808	c	67
374180	4035375	Man I don't want to get sick again.	Man I don't want to get sick again.	191682177	1477086975864	1477086975964	k	75
374180	4035375	Man I don't want to get sick again.	Man I don't want to get sick again.	191682181	1477086975934	1477086976024	 	32
374180	4035375	Man I don't want to get sick again.	Man I don't want to get sick again.	191682187	1477086976053	1477086976133	a	65
374180	4035375	Man I don't want to get sick again.	Man I don't want to get sick again.	191682193	1477086976364	1477086976429	g	71
374180	4035375	Man I don't want to get sick again.	Man I don't want to get sick again.	191682219	1477086976464	1477086976534	a	65
374180	4035375	Man I don't want to get sick again.	Man I don't want to get sick again.	191682222	1477086976625	1477086976791	i	73
374180	4035375	Man I don't want to get sick again.	Man I don't want to get sick again.	191682227	1477086976741	1477086976846	n	78
374180	4035375	Man I don't want to get sick again.	Man I don't want to get sick again.	191682229	1477086977036	1477086977101	.	190
