PARTICIPANT_ID	TEST_SECTION_ID	SENTENCE	USER_INPUT	KEYSTROKE_ID	PRESS_TIME	RELEASE_TIME	LETTER	KEYCODE
37488	407153	You are welcome in Palacios this weekend, of course.	You are welcome in Palacios this weekend, of course.	19368251	1472439448119	1472439448381	SHIFT	16
37488	407153	You are welcome in Palacios this weekend, of course.	You are welcome in Palacios this weekend, of course.	19368252	1472439448293	1472439448428	Y	89
37488	407153	You are welcome in Palacios this weekend, of course.	You are welcome in Palacios this weekend, of course.	19368254	1472439448383	1472439448612	o	79
37488	407153	You are welcome in Palacios this weekend, of course.	You are welcome in Palacios this weekend, of course.	19368256	1472439448540	1472439448652	u	85
37488	407153	You are welcome in Palacios this weekend, of course.	You are welcome in Palacios this weekend, of course.	19368258	1472439448973	1472439449069	 	32
37488	407153	You are welcome in Palacios this weekend, of course.	You are welcome in Palacios this weekend, of course.	19368260	1472439449092	1472439449303	a	65
37488	407153	You are welcome in Palacios this weekend, of course.	You are welcome in Palacios this weekend, of course.	19368267	1472439449236	1472439449404	r	82
37488	407153	You are welcome in Palacios this weekend, of course.	You are welcome in Palacios this weekend, of course.	19368269	1472439449324	1472439449468	e	69
37488	407153	You are welcome in Palacios this weekend, of course.	You are welcome in Palacios this weekend, of course.	19368272	1472439449548	1472439449668	 	32
37488	407153	You are welcome in Palacios this weekend, of course.	You are welcome in Palacios this weekend, of course.	19368275	1472439449708	1472439449844	w	87
37488	407153	You are welcome in Palacios this weekend, of course.	You are welcome in Palacios this weekend, of course.	19368278	1472439449860	1472439449980	i	73
37488	407153	You are welcome in Palacios this weekend, of course.	You are welcome in Palacios this weekend, of course.	19368281	1472439450036	1472439450140	l	76
37488	407153	You are welcome in Palacios this weekend, of course.	You are welcome in Palacios this weekend, of course.	19368330	1472439450209	1472439450308	c	67
37488	407153	You are welcome in Palacios this weekend, of course.	You are welcome in Palacios this weekend, of course.	19368332	1472439450548	1472439450628	BKSP	8
37488	407153	You are welcome in Palacios this weekend, of course.	You are welcome in Palacios this weekend, of course.	19368335	1472439450708	1472439450772	BKSP	8
37488	407153	You are welcome in Palacios this weekend, of course.	You are welcome in Palacios this weekend, of course.	19368338	1472439450860	1472439450940	BKSP	8
37488	407153	You are welcome in Palacios this weekend, of course.	You are welcome in Palacios this weekend, of course.	19368341	1472439451029	1472439451157	e	69
37488	407153	You are welcome in Palacios this weekend, of course.	You are welcome in Palacios this weekend, of course.	19368343	1472439451413	1472439451485	l	76
37488	407153	You are welcome in Palacios this weekend, of course.	You are welcome in Palacios this weekend, of course.	19368345	1472439451893	1472439451990	c	67
37488	407153	You are welcome in Palacios this weekend, of course.	You are welcome in Palacios this weekend, of course.	19368347	1472439452509	1472439452685	o	79
37488	407153	You are welcome in Palacios this weekend, of course.	You are welcome in Palacios this weekend, of course.	19368355	1472439452654	1472439452790	m	77
37488	407153	You are welcome in Palacios this weekend, of course.	You are welcome in Palacios this weekend, of course.	19368357	1472439452790	1472439452925	e	69
37488	407153	You are welcome in Palacios this weekend, of course.	You are welcome in Palacios this weekend, of course.	19368359	1472439452957	1472439453069	 	32
37488	407153	You are welcome in Palacios this weekend, of course.	You are welcome in Palacios this weekend, of course.	19368361	1472439453109	1472439453285	i	73
37488	407153	You are welcome in Palacios this weekend, of course.	You are welcome in Palacios this weekend, of course.	19368363	1472439453253	1472439453414	n	78
37488	407153	You are welcome in Palacios this weekend, of course.	You are welcome in Palacios this weekend, of course.	19368366	1472439453414	1472439453517	 	32
37488	407153	You are welcome in Palacios this weekend, of course.	You are welcome in Palacios this weekend, of course.	19368417	1472439453589	1472439453869	SHIFT	16
37488	407153	You are welcome in Palacios this weekend, of course.	You are welcome in Palacios this weekend, of course.	19368420	1472439453725	1472439453901	P	80
37488	407153	You are welcome in Palacios this weekend, of course.	You are welcome in Palacios this weekend, of course.	19368422	1472439454029	1472439454149	a	65
37488	407153	You are welcome in Palacios this weekend, of course.	You are welcome in Palacios this weekend, of course.	19368424	1472439454245	1472439454369	l	76
37488	407153	You are welcome in Palacios this weekend, of course.	You are welcome in Palacios this weekend, of course.	19368425	1472439454685	1472439454837	a	65
37488	407153	You are welcome in Palacios this weekend, of course.	You are welcome in Palacios this weekend, of course.	19368426	1472439455189	1472439455309	c	67
37488	407153	You are welcome in Palacios this weekend, of course.	You are welcome in Palacios this weekend, of course.	19368454	1472439455381	1472439455517	i	73
37488	407153	You are welcome in Palacios this weekend, of course.	You are welcome in Palacios this weekend, of course.	19368455	1472439455597	1472439455709	o	79
37488	407153	You are welcome in Palacios this weekend, of course.	You are welcome in Palacios this weekend, of course.	19368456	1472439455757	1472439455877	s	83
37488	407153	You are welcome in Palacios this weekend, of course.	You are welcome in Palacios this weekend, of course.	19368457	1472439455981	1472439456093	 	32
37488	407153	You are welcome in Palacios this weekend, of course.	You are welcome in Palacios this weekend, of course.	19368458	1472439456253	1472439456397	t	84
37488	407153	You are welcome in Palacios this weekend, of course.	You are welcome in Palacios this weekend, of course.	19368489	1472439456365	1472439456501	h	72
37488	407153	You are welcome in Palacios this weekend, of course.	You are welcome in Palacios this weekend, of course.	19368491	1472439456469	1472439456629	i	73
37488	407153	You are welcome in Palacios this weekend, of course.	You are welcome in Palacios this weekend, of course.	19368494	1472439456629	1472439456765	s	83
37488	407153	You are welcome in Palacios this weekend, of course.	You are welcome in Palacios this weekend, of course.	19368497	1472439456869	1472439456989	 	32
37488	407153	You are welcome in Palacios this weekend, of course.	You are welcome in Palacios this weekend, of course.	19368500	1472439457677	1472439457861	w	87
37488	407153	You are welcome in Palacios this weekend, of course.	You are welcome in Palacios this weekend, of course.	19368522	1472439457829	1472439457933	e	69
37488	407153	You are welcome in Palacios this weekend, of course.	You are welcome in Palacios this weekend, of course.	19368523	1472439458005	1472439458109	e	69
37488	407153	You are welcome in Palacios this weekend, of course.	You are welcome in Palacios this weekend, of course.	19368524	1472439458221	1472439458349	k	75
37488	407153	You are welcome in Palacios this weekend, of course.	You are welcome in Palacios this weekend, of course.	19368525	1472439458389	1472439458520	e	69
37488	407153	You are welcome in Palacios this weekend, of course.	You are welcome in Palacios this weekend, of course.	19368526	1472439458557	1472439458695	n	78
37488	407153	You are welcome in Palacios this weekend, of course.	You are welcome in Palacios this weekend, of course.	19368527	1472439458741	1472439458861	d	68
37488	407153	You are welcome in Palacios this weekend, of course.	You are welcome in Palacios this weekend, of course.	19368570	1472439459437	1472439459533	,	188
37488	407153	You are welcome in Palacios this weekend, of course.	You are welcome in Palacios this weekend, of course.	19368572	1472439459701	1472439459813	 	32
37488	407153	You are welcome in Palacios this weekend, of course.	You are welcome in Palacios this weekend, of course.	19368574	1472439459957	1472439460092	o	79
37488	407153	You are welcome in Palacios this weekend, of course.	You are welcome in Palacios this weekend, of course.	19368576	1472439460069	1472439460213	f	70
37488	407153	You are welcome in Palacios this weekend, of course.	You are welcome in Palacios this weekend, of course.	19368578	1472439460293	1472439460389	 	32
37488	407153	You are welcome in Palacios this weekend, of course.	You are welcome in Palacios this weekend, of course.	19368615	1472439460533	1472439460685	c	67
37488	407153	You are welcome in Palacios this weekend, of course.	You are welcome in Palacios this weekend, of course.	19368616	1472439460893	1472439460980	o	79
37488	407153	You are welcome in Palacios this weekend, of course.	You are welcome in Palacios this weekend, of course.	19368618	1472439461349	1472439461477	u	85
37488	407153	You are welcome in Palacios this weekend, of course.	You are welcome in Palacios this weekend, of course.	19368621	1472439461781	1472439461973	r	82
37488	407153	You are welcome in Palacios this weekend, of course.	You are welcome in Palacios this weekend, of course.	19368655	1472439461925	1472439462077	s	83
37488	407153	You are welcome in Palacios this weekend, of course.	You are welcome in Palacios this weekend, of course.	19368657	1472439462148	1472439462269	e	69
37488	407153	You are welcome in Palacios this weekend, of course.	You are welcome in Palacios this weekend, of course.	19368659	1472439462680	1472439462765	.	190
37488	407162	The team mate says were not interested at this point.	The team mate says were not interested at this point.	19368677	1472439465381	1472439465589	SHIFT	16
37488	407162	The team mate says were not interested at this point.	The team mate says were not interested at this point.	19368680	1472439465541	1472439465716	T	84
37488	407162	The team mate says were not interested at this point.	The team mate says were not interested at this point.	19368681	1472439465685	1472439465828	h	72
37488	407162	The team mate says were not interested at this point.	The team mate says were not interested at this point.	19368682	1472439465829	1472439465932	e	69
37488	407162	The team mate says were not interested at this point.	The team mate says were not interested at this point.	19368683	1472439465980	1472439466100	 	32
37488	407162	The team mate says were not interested at this point.	The team mate says were not interested at this point.	19368684	1472439466156	1472439466332	t	84
37488	407162	The team mate says were not interested at this point.	The team mate says were not interested at this point.	19368722	1472439466268	1472439466484	e	69
37488	407162	The team mate says were not interested at this point.	The team mate says were not interested at this point.	19368724	1472439466428	1472439466612	a	65
37488	407162	The team mate says were not interested at this point.	The team mate says were not interested at this point.	19368726	1472439466676	1472439466780	c	67
37488	407162	The team mate says were not interested at this point.	The team mate says were not interested at this point.	19368730	1472439467140	1472439467252	BKSP	8
37488	407162	The team mate says were not interested at this point.	The team mate says were not interested at this point.	19368732	1472439467636	1472439467732	m	77
37488	407162	The team mate says were not interested at this point.	The team mate says were not interested at this point.	19368735	1472439467852	1472439467948	 	32
37488	407162	The team mate says were not interested at this point.	The team mate says were not interested at this point.	19368739	1472439468276	1472439468396	m	77
37488	407162	The team mate says were not interested at this point.	The team mate says were not interested at this point.	19368761	1472439468429	1472439468613	a	65
37488	407162	The team mate says were not interested at this point.	The team mate says were not interested at this point.	19368763	1472439468565	1472439468733	t	84
37488	407162	The team mate says were not interested at this point.	The team mate says were not interested at this point.	19368765	1472439468685	1472439468805	e	69
37488	407162	The team mate says were not interested at this point.	The team mate says were not interested at this point.	19368767	1472439468861	1472439468957	 	32
37488	407162	The team mate says were not interested at this point.	The team mate says were not interested at this point.	19368769	1472439469013	1472439469221	s	83
37488	407162	The team mate says were not interested at this point.	The team mate says were not interested at this point.	19368801	1472439469133	1472439469277	a	65
37488	407162	The team mate says were not interested at this point.	The team mate says were not interested at this point.	19368802	1472439469333	1472439469479	y	89
37488	407162	The team mate says were not interested at this point.	The team mate says were not interested at this point.	19368803	1472439469480	1472439469653	s	83
37488	407162	The team mate says were not interested at this point.	The team mate says were not interested at this point.	19368805	1472439469654	1472439469765	 	32
37488	407162	The team mate says were not interested at this point.	The team mate says were not interested at this point.	19368806	1472439469821	1472439469893	t	84
37488	407162	The team mate says were not interested at this point.	The team mate says were not interested at this point.	19368808	1472439470181	1472439470245	BKSP	8
37488	407162	The team mate says were not interested at this point.	The team mate says were not interested at this point.	19368809	1472439470509	1472439470653	w	87
37488	407162	The team mate says were not interested at this point.	The team mate says were not interested at this point.	19368833	1472439470655	1472439470862	e	69
37488	407162	The team mate says were not interested at this point.	The team mate says were not interested at this point.	19368836	1472439470862	1472439470989	r	82
37488	407162	The team mate says were not interested at this point.	The team mate says were not interested at this point.	19368839	1472439471021	1472439471133	e	69
37488	407162	The team mate says were not interested at this point.	The team mate says were not interested at this point.	19368841	1472439471293	1472439471389	 	32
37488	407162	The team mate says were not interested at this point.	The team mate says were not interested at this point.	19368843	1472439471501	1472439471661	n	78
37488	407162	The team mate says were not interested at this point.	The team mate says were not interested at this point.	19368867	1472439471637	1472439471781	o	79
37488	407162	The team mate says were not interested at this point.	The team mate says were not interested at this point.	19368868	1472439471813	1472439471949	t	84
37488	407162	The team mate says were not interested at this point.	The team mate says were not interested at this point.	19368870	1472439471997	1472439472109	 	32
37488	407162	The team mate says were not interested at this point.	The team mate says were not interested at this point.	19368871	1472439472293	1472439472453	i	73
37488	407162	The team mate says were not interested at this point.	The team mate says were not interested at this point.	19368872	1472439472405	1472439472557	n	78
37488	407162	The team mate says were not interested at this point.	The team mate says were not interested at this point.	19368873	1472439472765	1472439472917	t	84
37488	407162	The team mate says were not interested at this point.	The team mate says were not interested at this point.	19368885	1472439472893	1472439473093	e	69
37488	407162	The team mate says were not interested at this point.	The team mate says were not interested at this point.	19368887	1472439473013	1472439473229	r	82
37488	407162	The team mate says were not interested at this point.	The team mate says were not interested at this point.	19368889	1472439473334	1472439473525	e	69
37488	407162	The team mate says were not interested at this point.	The team mate says were not interested at this point.	19368891	1472439473485	1472439473685	s	83
37488	407162	The team mate says were not interested at this point.	The team mate says were not interested at this point.	19368893	1472439473653	1472439473821	t	84
37488	407162	The team mate says were not interested at this point.	The team mate says were not interested at this point.	19368895	1472439473821	1472439473917	e	69
37488	407162	The team mate says were not interested at this point.	The team mate says were not interested at this point.	19368938	1472439474005	1472439474141	d	68
37488	407162	The team mate says were not interested at this point.	The team mate says were not interested at this point.	19368939	1472439474229	1472439474365	 	32
37488	407162	The team mate says were not interested at this point.	The team mate says were not interested at this point.	19368940	1472439474477	1472439474677	a	65
37488	407162	The team mate says were not interested at this point.	The team mate says were not interested at this point.	19368941	1472439474637	1472439474781	t	84
37488	407162	The team mate says were not interested at this point.	The team mate says were not interested at this point.	19368942	1472439474813	1472439474933	 	32
37488	407162	The team mate says were not interested at this point.	The team mate says were not interested at this point.	19368959	1472439474935	1472439475045	t	84
37488	407162	The team mate says were not interested at this point.	The team mate says were not interested at this point.	19368961	1472439475045	1472439475180	h	72
37488	407162	The team mate says were not interested at this point.	The team mate says were not interested at this point.	19368964	1472439475154	1472439475277	i	73
37488	407162	The team mate says were not interested at this point.	The team mate says were not interested at this point.	19368968	1472439475277	1472439475389	s	83
37488	407162	The team mate says were not interested at this point.	The team mate says were not interested at this point.	19368973	1472439475533	1472439475653	 	32
37488	407162	The team mate says were not interested at this point.	The team mate says were not interested at this point.	19368994	1472439475709	1472439475829	p	80
37488	407162	The team mate says were not interested at this point.	The team mate says were not interested at this point.	19368997	1472439475953	1472439476101	o	79
37488	407162	The team mate says were not interested at this point.	The team mate says were not interested at this point.	19369000	1472439476181	1472439476301	i	73
37488	407162	The team mate says were not interested at this point.	The team mate says were not interested at this point.	19369002	1472439476421	1472439476525	n	78
37488	407162	The team mate says were not interested at this point.	The team mate says were not interested at this point.	19369004	1472439476661	1472439476749	t	84
37488	407162	The team mate says were not interested at this point.	The team mate says were not interested at this point.	19369011	1472439476989	1472439477084	.	190
37488	407167	Call me if you have any questions.	Call me if you have any questions.	19369083	1472439479328	1472439479573	SHIFT	16
37488	407167	Call me if you have any questions.	Call me if you have any questions.	19369087	1472439479500	1472439479748	C	67
37488	407167	Call me if you have any questions.	Call me if you have any questions.	19369089	1472439479693	1472439479844	a	65
37488	407167	Call me if you have any questions.	Call me if you have any questions.	19369092	1472439479868	1472439479940	l	76
37488	407167	Call me if you have any questions.	Call me if you have any questions.	19369094	1472439480021	1472439480156	l	76
37488	407167	Call me if you have any questions.	Call me if you have any questions.	19369096	1472439480188	1472439480340	 	32
37488	407167	Call me if you have any questions.	Call me if you have any questions.	19369107	1472439480342	1472439480492	m	77
37488	407167	Call me if you have any questions.	Call me if you have any questions.	19369110	1472439480493	1472439480629	e	69
37488	407167	Call me if you have any questions.	Call me if you have any questions.	19369112	1472439480629	1472439480757	 	32
37488	407167	Call me if you have any questions.	Call me if you have any questions.	19369118	1472439480757	1472439480892	i	73
37488	407167	Call me if you have any questions.	Call me if you have any questions.	19369122	1472439481092	1472439481228	f	70
37488	407167	Call me if you have any questions.	Call me if you have any questions.	19369138	1472439481252	1472439481453	 	32
37488	407167	Call me if you have any questions.	Call me if you have any questions.	19369139	1472439481453	1472439481604	y	89
37488	407167	Call me if you have any questions.	Call me if you have any questions.	19369140	1472439481556	1472439481772	o	79
37488	407167	Call me if you have any questions.	Call me if you have any questions.	19369141	1472439481708	1472439481876	u	85
37488	407167	Call me if you have any questions.	Call me if you have any questions.	19369142	1472439481877	1472439481996	 	32
37488	407167	Call me if you have any questions.	Call me if you have any questions.	19369165	1472439482101	1472439482244	h	72
37488	407167	Call me if you have any questions.	Call me if you have any questions.	19369166	1472439482300	1472439482476	a	65
37488	407167	Call me if you have any questions.	Call me if you have any questions.	19369167	1472439482477	1472439482661	v	86
37488	407167	Call me if you have any questions.	Call me if you have any questions.	19369168	1472439482604	1472439482756	e	69
37488	407167	Call me if you have any questions.	Call me if you have any questions.	19369169	1472439482812	1472439482940	 	32
37488	407167	Call me if you have any questions.	Call me if you have any questions.	19369196	1472439482942	1472439483068	a	65
37488	407167	Call me if you have any questions.	Call me if you have any questions.	19369199	1472439483108	1472439483212	n	78
37488	407167	Call me if you have any questions.	Call me if you have any questions.	19369202	1472439483324	1472439483468	y	89
37488	407167	Call me if you have any questions.	Call me if you have any questions.	19369205	1472439483492	1472439483604	 	32
37488	407167	Call me if you have any questions.	Call me if you have any questions.	19369207	1472439484036	1472439484156	q	81
37488	407167	Call me if you have any questions.	Call me if you have any questions.	19369229	1472439484212	1472439484332	u	85
37488	407167	Call me if you have any questions.	Call me if you have any questions.	19369231	1472439484412	1472439484660	e	69
37488	407167	Call me if you have any questions.	Call me if you have any questions.	19369233	1472439484612	1472439484796	s	83
37488	407167	Call me if you have any questions.	Call me if you have any questions.	19369235	1472439484756	1472439484884	t	84
37488	407167	Call me if you have any questions.	Call me if you have any questions.	19369237	1472439484885	1472439485084	i	73
37488	407167	Call me if you have any questions.	Call me if you have any questions.	19369230	1472439485020	1472439485196	o	79
37488	407167	Call me if you have any questions.	Call me if you have any questions.	19369232	1472439485148	1472439485292	n	78
37488	407167	Call me if you have any questions.	Call me if you have any questions.	19369234	1472439485293	1472439485420	s	83
37488	407167	Call me if you have any questions.	Call me if you have any questions.	19369236	1472439485780	1472439485876	.	190
37488	407172	I told Gary you could make the call.	I told gary you could make the call.	19369422	1472439493541	1472439493718	SHIFT	16
37488	407172	I told Gary you could make the call.	I told gary you could make the call.	19369426	1472439493718	1472439493901	i	73
37488	407172	I told Gary you could make the call.	I told gary you could make the call.	19369430	1472439493901	1472439494044	 	32
37488	407172	I told Gary you could make the call.	I told gary you could make the call.	19369434	1472439494101	1472439494213	t	84
37488	407172	I told Gary you could make the call.	I told gary you could make the call.	19369437	1472439494453	1472439494524	BKSP	8
37488	407172	I told Gary you could make the call.	I told gary you could make the call.	19369440	1472439494612	1472439494684	BKSP	8
37488	407172	I told Gary you could make the call.	I told gary you could make the call.	19369442	1472439494765	1472439494852	BKSP	8
37488	407172	I told Gary you could make the call.	I told gary you could make the call.	19369443	1472439496093	1472439496292	SHIFT	16
37488	407172	I told Gary you could make the call.	I told gary you could make the call.	19369444	1472439496244	1472439496453	I	73
37488	407172	I told Gary you could make the call.	I told gary you could make the call.	19369445	1472439496453	1472439496620	 	32
37488	407172	I told Gary you could make the call.	I told gary you could make the call.	19369462	1472439496956	1472439497108	t	84
37488	407172	I told Gary you could make the call.	I told gary you could make the call.	19369463	1472439497133	1472439497236	o	79
37488	407172	I told Gary you could make the call.	I told gary you could make the call.	19369464	1472439497324	1472439497429	l	76
37488	407172	I told Gary you could make the call.	I told gary you could make the call.	19369465	1472439497429	1472439497572	d	68
37488	407172	I told Gary you could make the call.	I told gary you could make the call.	19369467	1472439497652	1472439497772	 	32
37488	407172	I told Gary you could make the call.	I told gary you could make the call.	19369513	1472439498021	1472439498364	SHIFT	16
37488	407172	I told Gary you could make the call.	I told gary you could make the call.	19369515	1472439498365	1472439498509	g	71
37488	407172	I told Gary you could make the call.	I told gary you could make the call.	19369518	1472439498509	1472439498660	a	65
37488	407172	I told Gary you could make the call.	I told gary you could make the call.	19369520	1472439498636	1472439498772	r	82
37488	407172	I told Gary you could make the call.	I told gary you could make the call.	19369522	1472439498876	1472439499028	y	89
37488	407172	I told Gary you could make the call.	I told gary you could make the call.	19369524	1472439499029	1472439499180	 	32
37488	407172	I told Gary you could make the call.	I told gary you could make the call.	19369549	1472439499260	1472439499428	y	89
37488	407172	I told Gary you could make the call.	I told gary you could make the call.	19369550	1472439499396	1472439499596	o	79
37488	407172	I told Gary you could make the call.	I told gary you could make the call.	19369551	1472439499540	1472439499700	u	85
37488	407172	I told Gary you could make the call.	I told gary you could make the call.	19369552	1472439499732	1472439499868	 	32
37488	407172	I told Gary you could make the call.	I told gary you could make the call.	19369553	1472439500324	1472439500492	c	67
37488	407172	I told Gary you could make the call.	I told gary you could make the call.	19369571	1472439500494	1472439500660	o	79
37488	407172	I told Gary you could make the call.	I told gary you could make the call.	19369572	1472439500628	1472439500756	u	85
37488	407172	I told Gary you could make the call.	I told gary you could make the call.	19369573	1472439500828	1472439500948	l	76
37488	407172	I told Gary you could make the call.	I told gary you could make the call.	19369574	1472439501020	1472439501180	d	68
37488	407172	I told Gary you could make the call.	I told gary you could make the call.	19369575	1472439501228	1472439501316	 	32
37488	407172	I told Gary you could make the call.	I told gary you could make the call.	19369588	1472439501468	1472439501604	m	77
37488	407172	I told Gary you could make the call.	I told gary you could make the call.	19369590	1472439501581	1472439501756	a	65
37488	407172	I told Gary you could make the call.	I told gary you could make the call.	19369592	1472439501733	1472439501828	k	75
37488	407172	I told Gary you could make the call.	I told gary you could make the call.	19369594	1472439501860	1472439501980	e	69
37488	407172	I told Gary you could make the call.	I told gary you could make the call.	19369596	1472439502020	1472439502100	 	32
37488	407172	I told Gary you could make the call.	I told gary you could make the call.	19369604	1472439502102	1472439502204	t	84
37488	407172	I told Gary you could make the call.	I told gary you could make the call.	19369606	1472439502236	1472439502324	h	72
37488	407172	I told Gary you could make the call.	I told gary you could make the call.	19369607	1472439502325	1472439502428	e	69
37488	407172	I told Gary you could make the call.	I told gary you could make the call.	19369608	1472439502460	1472439502548	 	32
37488	407172	I told Gary you could make the call.	I told gary you could make the call.	19369609	1472439502612	1472439502796	c	67
37488	407172	I told Gary you could make the call.	I told gary you could make the call.	19369615	1472439502740	1472439502860	a	65
37488	407172	I told Gary you could make the call.	I told gary you could make the call.	19369617	1472439502900	1472439502964	l	76
37488	407172	I told Gary you could make the call.	I told gary you could make the call.	19369619	1472439503060	1472439503140	l	76
37488	407172	I told Gary you could make the call.	I told gary you could make the call.	19369621	1472439503300	1472439503364	.	190
37488	407182	Seifert said he didn't know if Weinke would practice Thursday.	Seifert said he didn't know if Weinke would practice Thursday.	19369859	1472439511053	1472439511213	SHIFT	16
37488	407182	Seifert said he didn't know if Weinke would practice Thursday.	Seifert said he didn't know if Weinke would practice Thursday.	19369861	1472439511213	1472439511412	s	83
37488	407182	Seifert said he didn't know if Weinke would practice Thursday.	Seifert said he didn't know if Weinke would practice Thursday.	19369863	1472439511381	1472439511532	e	69
37488	407182	Seifert said he didn't know if Weinke would practice Thursday.	Seifert said he didn't know if Weinke would practice Thursday.	19369866	1472439511717	1472439511836	i	73
37488	407182	Seifert said he didn't know if Weinke would practice Thursday.	Seifert said he didn't know if Weinke would practice Thursday.	19369871	1472439512365	1472439512452	BKSP	8
37488	407182	Seifert said he didn't know if Weinke would practice Thursday.	Seifert said he didn't know if Weinke would practice Thursday.	19369874	1472439512540	1472439512631	BKSP	8
37488	407182	Seifert said he didn't know if Weinke would practice Thursday.	Seifert said he didn't know if Weinke would practice Thursday.	19369878	1472439512733	1472439512836	BKSP	8
37488	407182	Seifert said he didn't know if Weinke would practice Thursday.	Seifert said he didn't know if Weinke would practice Thursday.	19369883	1472439513068	1472439513317	SHIFT	16
37488	407182	Seifert said he didn't know if Weinke would practice Thursday.	Seifert said he didn't know if Weinke would practice Thursday.	19369886	1472439513221	1472439513508	S	83
37488	407182	Seifert said he didn't know if Weinke would practice Thursday.	Seifert said he didn't know if Weinke would practice Thursday.	19369888	1472439513532	1472439513700	e	69
37488	407182	Seifert said he didn't know if Weinke would practice Thursday.	Seifert said he didn't know if Weinke would practice Thursday.	19369944	1472439514284	1472439514412	i	73
37488	407182	Seifert said he didn't know if Weinke would practice Thursday.	Seifert said he didn't know if Weinke would practice Thursday.	19369946	1472439514660	1472439514852	f	70
37488	407182	Seifert said he didn't know if Weinke would practice Thursday.	Seifert said he didn't know if Weinke would practice Thursday.	19369950	1472439515132	1472439515340	e	69
37488	407182	Seifert said he didn't know if Weinke would practice Thursday.	Seifert said he didn't know if Weinke would practice Thursday.	19369952	1472439515284	1472439515500	r	82
37488	407182	Seifert said he didn't know if Weinke would practice Thursday.	Seifert said he didn't know if Weinke would practice Thursday.	19369956	1472439515620	1472439515772	t	84
37488	407182	Seifert said he didn't know if Weinke would practice Thursday.	Seifert said he didn't know if Weinke would practice Thursday.	19369980	1472439515876	1472439516012	 	32
37488	407182	Seifert said he didn't know if Weinke would practice Thursday.	Seifert said he didn't know if Weinke would practice Thursday.	19369981	1472439516060	1472439516244	s	83
37488	407182	Seifert said he didn't know if Weinke would practice Thursday.	Seifert said he didn't know if Weinke would practice Thursday.	19369982	1472439516212	1472439516348	a	65
37488	407182	Seifert said he didn't know if Weinke would practice Thursday.	Seifert said he didn't know if Weinke would practice Thursday.	19369984	1472439516372	1472439516516	i	73
37488	407182	Seifert said he didn't know if Weinke would practice Thursday.	Seifert said he didn't know if Weinke would practice Thursday.	19369987	1472439516517	1472439516652	d	68
37488	407182	Seifert said he didn't know if Weinke would practice Thursday.	Seifert said he didn't know if Weinke would practice Thursday.	19370010	1472439516668	1472439516796	 	32
37488	407182	Seifert said he didn't know if Weinke would practice Thursday.	Seifert said he didn't know if Weinke would practice Thursday.	19370011	1472439516868	1472439517004	h	72
37488	407182	Seifert said he didn't know if Weinke would practice Thursday.	Seifert said he didn't know if Weinke would practice Thursday.	19370012	1472439517004	1472439517132	e	69
37488	407182	Seifert said he didn't know if Weinke would practice Thursday.	Seifert said he didn't know if Weinke would practice Thursday.	19370013	1472439517172	1472439517308	 	32
37488	407182	Seifert said he didn't know if Weinke would practice Thursday.	Seifert said he didn't know if Weinke would practice Thursday.	19370014	1472439517309	1472439517452	d	68
37488	407182	Seifert said he didn't know if Weinke would practice Thursday.	Seifert said he didn't know if Weinke would practice Thursday.	19370070	1472439517454	1472439517564	i	73
37488	407182	Seifert said he didn't know if Weinke would practice Thursday.	Seifert said he didn't know if Weinke would practice Thursday.	19370074	1472439517620	1472439517740	d	68
37488	407182	Seifert said he didn't know if Weinke would practice Thursday.	Seifert said he didn't know if Weinke would practice Thursday.	19370077	1472439517812	1472439517932	n	78
37488	407182	Seifert said he didn't know if Weinke would practice Thursday.	Seifert said he didn't know if Weinke would practice Thursday.	19370079	1472439518172	1472439518356	t	84
37488	407182	Seifert said he didn't know if Weinke would practice Thursday.	Seifert said he didn't know if Weinke would practice Thursday.	19370080	1472439518620	1472439518757	BKSP	8
37488	407182	Seifert said he didn't know if Weinke would practice Thursday.	Seifert said he didn't know if Weinke would practice Thursday.	19370081	1472439519180	1472439519300	'	222
37488	407182	Seifert said he didn't know if Weinke would practice Thursday.	Seifert said he didn't know if Weinke would practice Thursday.	19370088	1472439519428	1472439519572	t	84
37488	407182	Seifert said he didn't know if Weinke would practice Thursday.	Seifert said he didn't know if Weinke would practice Thursday.	19370090	1472439519636	1472439519756	 	32
37488	407182	Seifert said he didn't know if Weinke would practice Thursday.	Seifert said he didn't know if Weinke would practice Thursday.	19370092	1472439519860	1472439520044	k	75
37488	407182	Seifert said he didn't know if Weinke would practice Thursday.	Seifert said he didn't know if Weinke would practice Thursday.	19370094	1472439519996	1472439520212	n	78
37488	407182	Seifert said he didn't know if Weinke would practice Thursday.	Seifert said he didn't know if Weinke would practice Thursday.	19370113	1472439520164	1472439520292	o	79
37488	407182	Seifert said he didn't know if Weinke would practice Thursday.	Seifert said he didn't know if Weinke would practice Thursday.	19370114	1472439520316	1472439520452	w	87
37488	407182	Seifert said he didn't know if Weinke would practice Thursday.	Seifert said he didn't know if Weinke would practice Thursday.	19370115	1472439520492	1472439520636	 	32
37488	407182	Seifert said he didn't know if Weinke would practice Thursday.	Seifert said he didn't know if Weinke would practice Thursday.	19370116	1472439520637	1472439520748	i	73
37488	407182	Seifert said he didn't know if Weinke would practice Thursday.	Seifert said he didn't know if Weinke would practice Thursday.	19370117	1472439520724	1472439520860	f	70
37488	407182	Seifert said he didn't know if Weinke would practice Thursday.	Seifert said he didn't know if Weinke would practice Thursday.	19370118	1472439520930	1472439521021	 	32
37488	407182	Seifert said he didn't know if Weinke would practice Thursday.	Seifert said he didn't know if Weinke would practice Thursday.	19370154	1472439521421	1472439521725	SHIFT	16
37488	407182	Seifert said he didn't know if Weinke would practice Thursday.	Seifert said he didn't know if Weinke would practice Thursday.	19370155	1472439521685	1472439521900	W	87
37488	407182	Seifert said he didn't know if Weinke would practice Thursday.	Seifert said he didn't know if Weinke would practice Thursday.	19370156	1472439521964	1472439522084	e	69
37488	407182	Seifert said he didn't know if Weinke would practice Thursday.	Seifert said he didn't know if Weinke would practice Thursday.	19370157	1472439522420	1472439522516	i	73
37488	407182	Seifert said he didn't know if Weinke would practice Thursday.	Seifert said he didn't know if Weinke would practice Thursday.	19370158	1472439522628	1472439522724	k	75
37488	407182	Seifert said he didn't know if Weinke would practice Thursday.	Seifert said he didn't know if Weinke would practice Thursday.	19370159	1472439523188	1472439523284	BKSP	8
37488	407182	Seifert said he didn't know if Weinke would practice Thursday.	Seifert said he didn't know if Weinke would practice Thursday.	19370160	1472439523404	1472439523573	n	78
37488	407182	Seifert said he didn't know if Weinke would practice Thursday.	Seifert said he didn't know if Weinke would practice Thursday.	19370177	1472439523575	1472439523725	k	75
37488	407182	Seifert said he didn't know if Weinke would practice Thursday.	Seifert said he didn't know if Weinke would practice Thursday.	19370178	1472439523725	1472439523845	e	69
37488	407182	Seifert said he didn't know if Weinke would practice Thursday.	Seifert said he didn't know if Weinke would practice Thursday.	19370179	1472439523917	1472439524053	 	32
37488	407182	Seifert said he didn't know if Weinke would practice Thursday.	Seifert said he didn't know if Weinke would practice Thursday.	19370180	1472439524124	1472439524262	w	87
37488	407182	Seifert said he didn't know if Weinke would practice Thursday.	Seifert said he didn't know if Weinke would practice Thursday.	19370182	1472439524262	1472439524436	o	79
37488	407182	Seifert said he didn't know if Weinke would practice Thursday.	Seifert said he didn't know if Weinke would practice Thursday.	19370216	1472439524381	1472439524508	u	85
37488	407182	Seifert said he didn't know if Weinke would practice Thursday.	Seifert said he didn't know if Weinke would practice Thursday.	19370221	1472439524565	1472439524717	l	76
37488	407182	Seifert said he didn't know if Weinke would practice Thursday.	Seifert said he didn't know if Weinke would practice Thursday.	19370223	1472439524717	1472439524861	d	68
37488	407182	Seifert said he didn't know if Weinke would practice Thursday.	Seifert said he didn't know if Weinke would practice Thursday.	19370226	1472439524861	1472439525020	 	32
37488	407182	Seifert said he didn't know if Weinke would practice Thursday.	Seifert said he didn't know if Weinke would practice Thursday.	19370229	1472439524997	1472439525157	p	80
37488	407182	Seifert said he didn't know if Weinke would practice Thursday.	Seifert said he didn't know if Weinke would practice Thursday.	19370230	1472439525278	1472439525532	r	82
37488	407182	Seifert said he didn't know if Weinke would practice Thursday.	Seifert said he didn't know if Weinke would practice Thursday.	19370269	1472439525501	1472439525677	a	65
37488	407182	Seifert said he didn't know if Weinke would practice Thursday.	Seifert said he didn't know if Weinke would practice Thursday.	19370271	1472439526020	1472439526156	c	67
37488	407182	Seifert said he didn't know if Weinke would practice Thursday.	Seifert said he didn't know if Weinke would practice Thursday.	19370273	1472439526309	1472439526460	t	84
37488	407182	Seifert said he didn't know if Weinke would practice Thursday.	Seifert said he didn't know if Weinke would practice Thursday.	19370274	1472439526500	1472439526636	i	73
37488	407182	Seifert said he didn't know if Weinke would practice Thursday.	Seifert said he didn't know if Weinke would practice Thursday.	19370275	1472439526813	1472439527028	c	67
37488	407182	Seifert said he didn't know if Weinke would practice Thursday.	Seifert said he didn't know if Weinke would practice Thursday.	19370326	1472439526972	1472439527092	e	69
37488	407182	Seifert said he didn't know if Weinke would practice Thursday.	Seifert said he didn't know if Weinke would practice Thursday.	19370329	1472439527172	1472439527276	 	32
37488	407182	Seifert said he didn't know if Weinke would practice Thursday.	Seifert said he didn't know if Weinke would practice Thursday.	19370333	1472439527341	1472439527605	SHIFT	16
37488	407182	Seifert said he didn't know if Weinke would practice Thursday.	Seifert said he didn't know if Weinke would practice Thursday.	19370336	1472439527524	1472439527708	T	84
37488	407182	Seifert said he didn't know if Weinke would practice Thursday.	Seifert said he didn't know if Weinke would practice Thursday.	19370338	1472439527748	1472439527876	h	72
37488	407182	Seifert said he didn't know if Weinke would practice Thursday.	Seifert said he didn't know if Weinke would practice Thursday.	19370341	1472439528404	1472439528543	u	85
37488	407182	Seifert said he didn't know if Weinke would practice Thursday.	Seifert said he didn't know if Weinke would practice Thursday.	19370342	1472439528644	1472439528820	r	82
37488	407182	Seifert said he didn't know if Weinke would practice Thursday.	Seifert said he didn't know if Weinke would practice Thursday.	19370368	1472439528868	1472439529012	s	83
37488	407182	Seifert said he didn't know if Weinke would practice Thursday.	Seifert said he didn't know if Weinke would practice Thursday.	19370369	1472439529165	1472439529348	d	68
37488	407182	Seifert said he didn't know if Weinke would practice Thursday.	Seifert said he didn't know if Weinke would practice Thursday.	19370370	1472439529317	1472439529444	a	65
37488	407182	Seifert said he didn't know if Weinke would practice Thursday.	Seifert said he didn't know if Weinke would practice Thursday.	19370371	1472439529893	1472439530028	y	89
37488	407182	Seifert said he didn't know if Weinke would practice Thursday.	Seifert said he didn't know if Weinke would practice Thursday.	19370372	1472439530852	1472439530948	.	190
37488	407196	Spanish football reaches boiling point this weekend.	Spanish football reaches boiling point this weekend.	19370453	1472439532892	1472439533116	SHIFT	16
37488	407196	Spanish football reaches boiling point this weekend.	Spanish football reaches boiling point this weekend.	19370454	1472439533068	1472439533252	S	83
37488	407196	Spanish football reaches boiling point this weekend.	Spanish football reaches boiling point this weekend.	19370455	1472439533253	1472439533405	p	80
37488	407196	Spanish football reaches boiling point this weekend.	Spanish football reaches boiling point this weekend.	19370456	1472439533406	1472439533516	a	65
37488	407196	Spanish football reaches boiling point this weekend.	Spanish football reaches boiling point this weekend.	19370457	1472439533517	1472439533708	n	78
37488	407196	Spanish football reaches boiling point this weekend.	Spanish football reaches boiling point this weekend.	19370478	1472439533684	1472439533828	i	73
37488	407196	Spanish football reaches boiling point this weekend.	Spanish football reaches boiling point this weekend.	19370483	1472439533956	1472439534092	s	83
37488	407196	Spanish football reaches boiling point this weekend.	Spanish football reaches boiling point this weekend.	19370489	1472439534188	1472439534324	h	72
37488	407196	Spanish football reaches boiling point this weekend.	Spanish football reaches boiling point this weekend.	19370492	1472439534364	1472439534476	 	32
37488	407196	Spanish football reaches boiling point this weekend.	Spanish football reaches boiling point this weekend.	19370496	1472439534556	1472439534684	f	70
37488	407196	Spanish football reaches boiling point this weekend.	Spanish football reaches boiling point this weekend.	19370499	1472439534700	1472439534764	o	79
37488	407196	Spanish football reaches boiling point this weekend.	Spanish football reaches boiling point this weekend.	19370523	1472439534860	1472439534948	o	79
37488	407196	Spanish football reaches boiling point this weekend.	Spanish football reaches boiling point this weekend.	19370525	1472439535036	1472439535164	t	84
37488	407196	Spanish football reaches boiling point this weekend.	Spanish football reaches boiling point this weekend.	19370527	1472439535404	1472439535588	c	67
37488	407196	Spanish football reaches boiling point this weekend.	Spanish football reaches boiling point this weekend.	19370529	1472439535540	1472439535668	a	65
37488	407196	Spanish football reaches boiling point this weekend.	Spanish football reaches boiling point this weekend.	19370530	1472439535732	1472439535796	l	76
37488	407196	Spanish football reaches boiling point this weekend.	Spanish football reaches boiling point this weekend.	19370596	1472439536085	1472439536140	BKSP	8
37488	407196	Spanish football reaches boiling point this weekend.	Spanish football reaches boiling point this weekend.	19370598	1472439536244	1472439536324	BKSP	8
37488	407196	Spanish football reaches boiling point this weekend.	Spanish football reaches boiling point this weekend.	19370600	1472439536404	1472439536500	BKSP	8
37488	407196	Spanish football reaches boiling point this weekend.	Spanish football reaches boiling point this weekend.	19370603	1472439536548	1472439536724	v	86
37488	407196	Spanish football reaches boiling point this weekend.	Spanish football reaches boiling point this weekend.	19370605	1472439536660	1472439536804	a	65
37488	407196	Spanish football reaches boiling point this weekend.	Spanish football reaches boiling point this weekend.	19370607	1472439537164	1472439537252	BKSP	8
37488	407196	Spanish football reaches boiling point this weekend.	Spanish football reaches boiling point this weekend.	19370609	1472439537340	1472439537420	BKSP	8
37488	407196	Spanish football reaches boiling point this weekend.	Spanish football reaches boiling point this weekend.	19370613	1472439537916	1472439538092	b	66
37488	407196	Spanish football reaches boiling point this weekend.	Spanish football reaches boiling point this weekend.	19370616	1472439538044	1472439538188	a	65
37488	407196	Spanish football reaches boiling point this weekend.	Spanish football reaches boiling point this weekend.	19370621	1472439538228	1472439538284	l	76
37488	407196	Spanish football reaches boiling point this weekend.	Spanish football reaches boiling point this weekend.	19370636	1472439538389	1472439538525	l	76
37488	407196	Spanish football reaches boiling point this weekend.	Spanish football reaches boiling point this weekend.	19370637	1472439538557	1472439538685	 	32
37488	407196	Spanish football reaches boiling point this weekend.	Spanish football reaches boiling point this weekend.	19370638	1472439538829	1472439539021	r	82
37488	407196	Spanish football reaches boiling point this weekend.	Spanish football reaches boiling point this weekend.	19370639	1472439538941	1472439539157	e	69
37488	407196	Spanish football reaches boiling point this weekend.	Spanish football reaches boiling point this weekend.	19370640	1472439539157	1472439539380	a	65
37488	407196	Spanish football reaches boiling point this weekend.	Spanish football reaches boiling point this weekend.	19370658	1472439539357	1472439539573	c	67
37488	407196	Spanish football reaches boiling point this weekend.	Spanish football reaches boiling point this weekend.	19370659	1472439539573	1472439539692	h	72
37488	407196	Spanish football reaches boiling point this weekend.	Spanish football reaches boiling point this weekend.	19370660	1472439539653	1472439539828	e	69
37488	407196	Spanish football reaches boiling point this weekend.	Spanish football reaches boiling point this weekend.	19370661	1472439539765	1472439539932	s	83
37488	407196	Spanish football reaches boiling point this weekend.	Spanish football reaches boiling point this weekend.	19370662	1472439540037	1472439540165	 	32
37488	407196	Spanish football reaches boiling point this weekend.	Spanish football reaches boiling point this weekend.	19370663	1472439540525	1472439540676	b	66
37488	407196	Spanish football reaches boiling point this weekend.	Spanish football reaches boiling point this weekend.	19370680	1472439540653	1472439540845	o	79
37488	407196	Spanish football reaches boiling point this weekend.	Spanish football reaches boiling point this weekend.	19370682	1472439540797	1472439540932	i	73
37488	407196	Spanish football reaches boiling point this weekend.	Spanish football reaches boiling point this weekend.	19370684	1472439541004	1472439541213	l	76
37488	407196	Spanish football reaches boiling point this weekend.	Spanish football reaches boiling point this weekend.	19370686	1472439541213	1472439541372	i	73
37488	407196	Spanish football reaches boiling point this weekend.	Spanish football reaches boiling point this weekend.	19370688	1472439541341	1472439541476	n	78
37488	407196	Spanish football reaches boiling point this weekend.	Spanish football reaches boiling point this weekend.	19370690	1472439541524	1472439541668	g	71
37488	407196	Spanish football reaches boiling point this weekend.	Spanish football reaches boiling point this weekend.	19370705	1472439541692	1472439541821	 	32
37488	407196	Spanish football reaches boiling point this weekend.	Spanish football reaches boiling point this weekend.	19370707	1472439541821	1472439541957	p	80
37488	407196	Spanish football reaches boiling point this weekend.	Spanish football reaches boiling point this weekend.	19370711	1472439542156	1472439542356	o	79
37488	407196	Spanish football reaches boiling point this weekend.	Spanish football reaches boiling point this weekend.	19370714	1472439542412	1472439542620	i	73
37488	407196	Spanish football reaches boiling point this weekend.	Spanish football reaches boiling point this weekend.	19370735	1472439542548	1472439542732	n	78
37488	407196	Spanish football reaches boiling point this weekend.	Spanish football reaches boiling point this weekend.	19370738	1472439542820	1472439542932	t	84
37488	407196	Spanish football reaches boiling point this weekend.	Spanish football reaches boiling point this weekend.	19370741	1472439542988	1472439543093	 	32
37488	407196	Spanish football reaches boiling point this weekend.	Spanish football reaches boiling point this weekend.	19370745	1472439543141	1472439543253	t	84
37488	407196	Spanish football reaches boiling point this weekend.	Spanish football reaches boiling point this weekend.	19370748	1472439543228	1472439543372	h	72
37488	407196	Spanish football reaches boiling point this weekend.	Spanish football reaches boiling point this weekend.	19370766	1472439543348	1472439543484	i	73
37488	407196	Spanish football reaches boiling point this weekend.	Spanish football reaches boiling point this weekend.	19370768	1472439543444	1472439543580	s	83
37488	407196	Spanish football reaches boiling point this weekend.	Spanish football reaches boiling point this weekend.	19370772	1472439543668	1472439543780	 	32
37488	407196	Spanish football reaches boiling point this weekend.	Spanish football reaches boiling point this weekend.	19370776	1472439543852	1472439543989	w	87
37488	407196	Spanish football reaches boiling point this weekend.	Spanish football reaches boiling point this weekend.	19370778	1472439543948	1472439544045	e	69
37488	407196	Spanish football reaches boiling point this weekend.	Spanish football reaches boiling point this weekend.	19370781	1472439544124	1472439544220	e	69
37488	407196	Spanish football reaches boiling point this weekend.	Spanish football reaches boiling point this weekend.	19370811	1472439544317	1472439544428	k	75
37488	407196	Spanish football reaches boiling point this weekend.	Spanish football reaches boiling point this weekend.	19370813	1472439544476	1472439544588	e	69
37488	407196	Spanish football reaches boiling point this weekend.	Spanish football reaches boiling point this weekend.	19370815	1472439544660	1472439544740	n	78
37488	407196	Spanish football reaches boiling point this weekend.	Spanish football reaches boiling point this weekend.	19370817	1472439544844	1472439544948	d	68
37488	407196	Spanish football reaches boiling point this weekend.	Spanish football reaches boiling point this weekend.	19370818	1472439545236	1472439545341	.	190
37488	407207	Wayne has not done much yet, so don't put him in your Fantasy lineup.	Wayne has not done much yet, so don't put him in your Fantasy lineup.	19371053	1472439552460	1472439552684	SHIFT	16
37488	407207	Wayne has not done much yet, so don't put him in your Fantasy lineup.	Wayne has not done much yet, so don't put him in your Fantasy lineup.	19371054	1472439552652	1472439552868	W	87
37488	407207	Wayne has not done much yet, so don't put him in your Fantasy lineup.	Wayne has not done much yet, so don't put him in your Fantasy lineup.	19371055	1472439552796	1472439552964	a	65
37488	407207	Wayne has not done much yet, so don't put him in your Fantasy lineup.	Wayne has not done much yet, so don't put him in your Fantasy lineup.	19371056	1472439553164	1472439553308	y	89
37488	407207	Wayne has not done much yet, so don't put him in your Fantasy lineup.	Wayne has not done much yet, so don't put him in your Fantasy lineup.	19371057	1472439553644	1472439553788	n	78
37488	407207	Wayne has not done much yet, so don't put him in your Fantasy lineup.	Wayne has not done much yet, so don't put him in your Fantasy lineup.	19371058	1472439553868	1472439553980	e	69
37488	407207	Wayne has not done much yet, so don't put him in your Fantasy lineup.	Wayne has not done much yet, so don't put him in your Fantasy lineup.	19371078	1472439554092	1472439554212	 	32
37488	407207	Wayne has not done much yet, so don't put him in your Fantasy lineup.	Wayne has not done much yet, so don't put him in your Fantasy lineup.	19371080	1472439554348	1472439554460	h	72
37488	407207	Wayne has not done much yet, so don't put him in your Fantasy lineup.	Wayne has not done much yet, so don't put him in your Fantasy lineup.	19371082	1472439554500	1472439554637	a	65
37488	407207	Wayne has not done much yet, so don't put him in your Fantasy lineup.	Wayne has not done much yet, so don't put him in your Fantasy lineup.	19371086	1472439554637	1472439554740	s	83
37488	407207	Wayne has not done much yet, so don't put him in your Fantasy lineup.	Wayne has not done much yet, so don't put him in your Fantasy lineup.	19371089	1472439554763	1472439554900	 	32
37488	407207	Wayne has not done much yet, so don't put him in your Fantasy lineup.	Wayne has not done much yet, so don't put him in your Fantasy lineup.	19371105	1472439554901	1472439555092	n	78
37488	407207	Wayne has not done much yet, so don't put him in your Fantasy lineup.	Wayne has not done much yet, so don't put him in your Fantasy lineup.	19371107	1472439555068	1472439555187	o	79
37488	407207	Wayne has not done much yet, so don't put him in your Fantasy lineup.	Wayne has not done much yet, so don't put him in your Fantasy lineup.	19371108	1472439555284	1472439555411	t	84
37488	407207	Wayne has not done much yet, so don't put him in your Fantasy lineup.	Wayne has not done much yet, so don't put him in your Fantasy lineup.	19371109	1472439555452	1472439555571	 	32
37488	407207	Wayne has not done much yet, so don't put him in your Fantasy lineup.	Wayne has not done much yet, so don't put him in your Fantasy lineup.	19371110	1472439555619	1472439555764	d	68
37488	407207	Wayne has not done much yet, so don't put him in your Fantasy lineup.	Wayne has not done much yet, so don't put him in your Fantasy lineup.	19371143	1472439555765	1472439555932	o	79
37488	407207	Wayne has not done much yet, so don't put him in your Fantasy lineup.	Wayne has not done much yet, so don't put him in your Fantasy lineup.	19371145	1472439555885	1472439556028	n	78
37488	407207	Wayne has not done much yet, so don't put him in your Fantasy lineup.	Wayne has not done much yet, so don't put him in your Fantasy lineup.	19371146	1472439556044	1472439556188	e	69
37488	407207	Wayne has not done much yet, so don't put him in your Fantasy lineup.	Wayne has not done much yet, so don't put him in your Fantasy lineup.	19371147	1472439556245	1472439556372	 	32
37488	407207	Wayne has not done much yet, so don't put him in your Fantasy lineup.	Wayne has not done much yet, so don't put him in your Fantasy lineup.	19371148	1472439556781	1472439556884	m	77
37488	407207	Wayne has not done much yet, so don't put him in your Fantasy lineup.	Wayne has not done much yet, so don't put him in your Fantasy lineup.	19371176	1472439557062	1472439557148	u	85
37488	407207	Wayne has not done much yet, so don't put him in your Fantasy lineup.	Wayne has not done much yet, so don't put him in your Fantasy lineup.	19371177	1472439557180	1472439557332	c	67
37488	407207	Wayne has not done much yet, so don't put him in your Fantasy lineup.	Wayne has not done much yet, so don't put him in your Fantasy lineup.	19371179	1472439557364	1472439557468	h	72
37488	407207	Wayne has not done much yet, so don't put him in your Fantasy lineup.	Wayne has not done much yet, so don't put him in your Fantasy lineup.	19371181	1472439557525	1472439557636	 	32
37488	407207	Wayne has not done much yet, so don't put him in your Fantasy lineup.	Wayne has not done much yet, so don't put him in your Fantasy lineup.	19371183	1472439557957	1472439558085	y	89
37488	407207	Wayne has not done much yet, so don't put him in your Fantasy lineup.	Wayne has not done much yet, so don't put him in your Fantasy lineup.	19371227	1472439558086	1472439558300	e	69
37488	407207	Wayne has not done much yet, so don't put him in your Fantasy lineup.	Wayne has not done much yet, so don't put him in your Fantasy lineup.	19371229	1472439558236	1472439558383	t	84
37488	407207	Wayne has not done much yet, so don't put him in your Fantasy lineup.	Wayne has not done much yet, so don't put him in your Fantasy lineup.	19371231	1472439558461	1472439558564	 	32
37488	407207	Wayne has not done much yet, so don't put him in your Fantasy lineup.	Wayne has not done much yet, so don't put him in your Fantasy lineup.	19371233	1472439559044	1472439559180	BKSP	8
37488	407207	Wayne has not done much yet, so don't put him in your Fantasy lineup.	Wayne has not done much yet, so don't put him in your Fantasy lineup.	19371235	1472439559900	1472439559988	,	188
37488	407207	Wayne has not done much yet, so don't put him in your Fantasy lineup.	Wayne has not done much yet, so don't put him in your Fantasy lineup.	19371239	1472439560116	1472439560236	 	32
37488	407207	Wayne has not done much yet, so don't put him in your Fantasy lineup.	Wayne has not done much yet, so don't put him in your Fantasy lineup.	19371248	1472439560292	1472439560436	s	83
37488	407207	Wayne has not done much yet, so don't put him in your Fantasy lineup.	Wayne has not done much yet, so don't put him in your Fantasy lineup.	19371251	1472439560404	1472439560572	o	79
37488	407207	Wayne has not done much yet, so don't put him in your Fantasy lineup.	Wayne has not done much yet, so don't put him in your Fantasy lineup.	19371254	1472439560573	1472439560684	 	32
37488	407207	Wayne has not done much yet, so don't put him in your Fantasy lineup.	Wayne has not done much yet, so don't put him in your Fantasy lineup.	19371258	1472439560724	1472439560869	d	68
37488	407207	Wayne has not done much yet, so don't put him in your Fantasy lineup.	Wayne has not done much yet, so don't put him in your Fantasy lineup.	19371261	1472439560869	1472439561020	o	79
37488	407207	Wayne has not done much yet, so don't put him in your Fantasy lineup.	Wayne has not done much yet, so don't put him in your Fantasy lineup.	19371344	1472439560988	1472439561156	n	78
37488	407207	Wayne has not done much yet, so don't put him in your Fantasy lineup.	Wayne has not done much yet, so don't put him in your Fantasy lineup.	19371347	1472439562172	1472439562284	'	222
37488	407207	Wayne has not done much yet, so don't put him in your Fantasy lineup.	Wayne has not done much yet, so don't put him in your Fantasy lineup.	19371350	1472439562340	1472439562468	t	84
37488	407207	Wayne has not done much yet, so don't put him in your Fantasy lineup.	Wayne has not done much yet, so don't put him in your Fantasy lineup.	19371355	1472439562684	1472439562812	 	32
37488	407207	Wayne has not done much yet, so don't put him in your Fantasy lineup.	Wayne has not done much yet, so don't put him in your Fantasy lineup.	19371361	1472439563260	1472439563500	p	80
37488	407207	Wayne has not done much yet, so don't put him in your Fantasy lineup.	Wayne has not done much yet, so don't put him in your Fantasy lineup.	19371363	1472439563501	1472439563692	u	85
37488	407207	Wayne has not done much yet, so don't put him in your Fantasy lineup.	Wayne has not done much yet, so don't put him in your Fantasy lineup.	19371381	1472439563724	1472439563836	t	84
37488	407207	Wayne has not done much yet, so don't put him in your Fantasy lineup.	Wayne has not done much yet, so don't put him in your Fantasy lineup.	19371384	1472439563884	1472439564044	 	32
37488	407207	Wayne has not done much yet, so don't put him in your Fantasy lineup.	Wayne has not done much yet, so don't put him in your Fantasy lineup.	19371387	1472439564308	1472439564468	h	72
37488	407207	Wayne has not done much yet, so don't put him in your Fantasy lineup.	Wayne has not done much yet, so don't put him in your Fantasy lineup.	19371391	1472439564436	1472439564644	i	73
37488	407207	Wayne has not done much yet, so don't put him in your Fantasy lineup.	Wayne has not done much yet, so don't put him in your Fantasy lineup.	19371435	1472439564596	1472439564756	m	77
37488	407207	Wayne has not done much yet, so don't put him in your Fantasy lineup.	Wayne has not done much yet, so don't put him in your Fantasy lineup.	19371438	1472439564780	1472439564900	 	32
37488	407207	Wayne has not done much yet, so don't put him in your Fantasy lineup.	Wayne has not done much yet, so don't put him in your Fantasy lineup.	19371439	1472439564901	1472439565052	i	73
37488	407207	Wayne has not done much yet, so don't put him in your Fantasy lineup.	Wayne has not done much yet, so don't put him in your Fantasy lineup.	19371441	1472439565012	1472439565156	n	78
37488	407207	Wayne has not done much yet, so don't put him in your Fantasy lineup.	Wayne has not done much yet, so don't put him in your Fantasy lineup.	19371443	1472439565172	1472439565268	 	32
37488	407207	Wayne has not done much yet, so don't put him in your Fantasy lineup.	Wayne has not done much yet, so don't put him in your Fantasy lineup.	19371445	1472439565340	1472439565484	y	89
37488	407207	Wayne has not done much yet, so don't put him in your Fantasy lineup.	Wayne has not done much yet, so don't put him in your Fantasy lineup.	19371514	1472439565460	1472439565644	o	79
37488	407207	Wayne has not done much yet, so don't put him in your Fantasy lineup.	Wayne has not done much yet, so don't put him in your Fantasy lineup.	19371515	1472439565588	1472439565740	u	85
37488	407207	Wayne has not done much yet, so don't put him in your Fantasy lineup.	Wayne has not done much yet, so don't put him in your Fantasy lineup.	19371516	1472439565772	1472439565932	 	32
37488	407207	Wayne has not done much yet, so don't put him in your Fantasy lineup.	Wayne has not done much yet, so don't put him in your Fantasy lineup.	19371517	1472439566020	1472439566172	SHIFT	16
37488	407207	Wayne has not done much yet, so don't put him in your Fantasy lineup.	Wayne has not done much yet, so don't put him in your Fantasy lineup.	19371518	1472439566412	1472439566492	BKSP	8
37488	407207	Wayne has not done much yet, so don't put him in your Fantasy lineup.	Wayne has not done much yet, so don't put him in your Fantasy lineup.	19371519	1472439566580	1472439566673	BKSP	8
37488	407207	Wayne has not done much yet, so don't put him in your Fantasy lineup.	Wayne has not done much yet, so don't put him in your Fantasy lineup.	19371520	1472439567764	1472439567868	u	85
37488	407207	Wayne has not done much yet, so don't put him in your Fantasy lineup.	Wayne has not done much yet, so don't put him in your Fantasy lineup.	19371521	1472439567892	1472439568028	r	82
37488	407207	Wayne has not done much yet, so don't put him in your Fantasy lineup.	Wayne has not done much yet, so don't put him in your Fantasy lineup.	19371522	1472439568068	1472439568172	 	32
37488	407207	Wayne has not done much yet, so don't put him in your Fantasy lineup.	Wayne has not done much yet, so don't put him in your Fantasy lineup.	19371556	1472439568244	1472439568460	SHIFT	16
37488	407207	Wayne has not done much yet, so don't put him in your Fantasy lineup.	Wayne has not done much yet, so don't put him in your Fantasy lineup.	19371559	1472439568404	1472439568652	F	70
37488	407207	Wayne has not done much yet, so don't put him in your Fantasy lineup.	Wayne has not done much yet, so don't put him in your Fantasy lineup.	19371564	1472439568604	1472439568732	a	65
37488	407207	Wayne has not done much yet, so don't put him in your Fantasy lineup.	Wayne has not done much yet, so don't put him in your Fantasy lineup.	19371567	1472439568821	1472439568908	n	78
37488	407207	Wayne has not done much yet, so don't put him in your Fantasy lineup.	Wayne has not done much yet, so don't put him in your Fantasy lineup.	19371568	1472439569316	1472439569508	t	84
37488	407207	Wayne has not done much yet, so don't put him in your Fantasy lineup.	Wayne has not done much yet, so don't put him in your Fantasy lineup.	19371607	1472439569452	1472439569628	a	65
37488	407207	Wayne has not done much yet, so don't put him in your Fantasy lineup.	Wayne has not done much yet, so don't put him in your Fantasy lineup.	19371609	1472439569628	1472439569756	s	83
37488	407207	Wayne has not done much yet, so don't put him in your Fantasy lineup.	Wayne has not done much yet, so don't put him in your Fantasy lineup.	19371611	1472439569916	1472439570084	y	89
37488	407207	Wayne has not done much yet, so don't put him in your Fantasy lineup.	Wayne has not done much yet, so don't put him in your Fantasy lineup.	19371613	1472439570124	1472439570259	 	32
37488	407207	Wayne has not done much yet, so don't put him in your Fantasy lineup.	Wayne has not done much yet, so don't put him in your Fantasy lineup.	19371615	1472439570316	1472439570515	l	76
37488	407207	Wayne has not done much yet, so don't put him in your Fantasy lineup.	Wayne has not done much yet, so don't put him in your Fantasy lineup.	19371641	1472439570484	1472439570683	i	73
37488	407207	Wayne has not done much yet, so don't put him in your Fantasy lineup.	Wayne has not done much yet, so don't put him in your Fantasy lineup.	19371643	1472439570636	1472439570747	n	78
37488	407207	Wayne has not done much yet, so don't put him in your Fantasy lineup.	Wayne has not done much yet, so don't put him in your Fantasy lineup.	19371646	1472439570771	1472439570883	e	69
37488	407207	Wayne has not done much yet, so don't put him in your Fantasy lineup.	Wayne has not done much yet, so don't put him in your Fantasy lineup.	19371651	1472439571076	1472439571243	u	85
37488	407207	Wayne has not done much yet, so don't put him in your Fantasy lineup.	Wayne has not done much yet, so don't put him in your Fantasy lineup.	19371652	1472439571196	1472439571348	p	80
37488	407207	Wayne has not done much yet, so don't put him in your Fantasy lineup.	Wayne has not done much yet, so don't put him in your Fantasy lineup.	19371657	1472439571508	1472439571595	.	190
37488	407225	We also decided against a formal seating arrangement.	We also decided against a formal seating arrangement.	19371762	1472439574644	1472439574852	SHIFT	16
37488	407225	We also decided against a formal seating arrangement.	We also decided against a formal seating arrangement.	19371763	1472439574821	1472439575052	W	87
37488	407225	We also decided against a formal seating arrangement.	We also decided against a formal seating arrangement.	19371765	1472439575009	1472439575140	e	69
37488	407225	We also decided against a formal seating arrangement.	We also decided against a formal seating arrangement.	19371769	1472439575356	1472439575493	 	32
37488	407225	We also decided against a formal seating arrangement.	We also decided against a formal seating arrangement.	19371773	1472439575516	1472439575644	a	65
37488	407225	We also decided against a formal seating arrangement.	We also decided against a formal seating arrangement.	19371777	1472439575700	1472439575812	s	83
37488	407225	We also decided against a formal seating arrangement.	We also decided against a formal seating arrangement.	19371821	1472439576173	1472439576277	BKSP	8
37488	407225	We also decided against a formal seating arrangement.	We also decided against a formal seating arrangement.	19371823	1472439576428	1472439576564	l	76
37488	407225	We also decided against a formal seating arrangement.	We also decided against a formal seating arrangement.	19371827	1472439576644	1472439576780	s	83
37488	407225	We also decided against a formal seating arrangement.	We also decided against a formal seating arrangement.	19371830	1472439576844	1472439577004	o	79
37488	407225	We also decided against a formal seating arrangement.	We also decided against a formal seating arrangement.	19371833	1472439577044	1472439577196	 	32
37488	407225	We also decided against a formal seating arrangement.	We also decided against a formal seating arrangement.	19371838	1472439577300	1472439577420	d	68
37488	407225	We also decided against a formal seating arrangement.	We also decided against a formal seating arrangement.	19371862	1472439577500	1472439577596	e	69
37488	407225	We also decided against a formal seating arrangement.	We also decided against a formal seating arrangement.	19371865	1472439577716	1472439577868	c	67
37488	407225	We also decided against a formal seating arrangement.	We also decided against a formal seating arrangement.	19371871	1472439577900	1472439578020	i	73
37488	407225	We also decided against a formal seating arrangement.	We also decided against a formal seating arrangement.	19371878	1472439578036	1472439578140	d	68
37488	407225	We also decided against a formal seating arrangement.	We also decided against a formal seating arrangement.	19371884	1472439578220	1472439578300	e	69
37488	407225	We also decided against a formal seating arrangement.	We also decided against a formal seating arrangement.	19371909	1472439578390	1472439578492	d	68
37488	407225	We also decided against a formal seating arrangement.	We also decided against a formal seating arrangement.	19371911	1472439578588	1472439578676	 	32
37488	407225	We also decided against a formal seating arrangement.	We also decided against a formal seating arrangement.	19371913	1472439578677	1472439578796	a	65
37488	407225	We also decided against a formal seating arrangement.	We also decided against a formal seating arrangement.	19371914	1472439579036	1472439579212	g	71
37488	407225	We also decided against a formal seating arrangement.	We also decided against a formal seating arrangement.	19371915	1472439579212	1472439579332	a	65
37488	407225	We also decided against a formal seating arrangement.	We also decided against a formal seating arrangement.	19371948	1472439579409	1472439579564	i	73
37488	407225	We also decided against a formal seating arrangement.	We also decided against a formal seating arrangement.	19371953	1472439579492	1472439579676	n	78
37488	407225	We also decided against a formal seating arrangement.	We also decided against a formal seating arrangement.	19371956	1472439579708	1472439579884	s	83
37488	407225	We also decided against a formal seating arrangement.	We also decided against a formal seating arrangement.	19371958	1472439579980	1472439580108	t	84
37488	407225	We also decided against a formal seating arrangement.	We also decided against a formal seating arrangement.	19371961	1472439580364	1472439580468	 	32
37488	407225	We also decided against a formal seating arrangement.	We also decided against a formal seating arrangement.	19371973	1472439580500	1472439580644	a	65
37488	407225	We also decided against a formal seating arrangement.	We also decided against a formal seating arrangement.	19371975	1472439580708	1472439580812	 	32
37488	407225	We also decided against a formal seating arrangement.	We also decided against a formal seating arrangement.	19371977	1472439580900	1472439581052	f	70
37488	407225	We also decided against a formal seating arrangement.	We also decided against a formal seating arrangement.	19371978	1472439581053	1472439581260	o	79
37488	407225	We also decided against a formal seating arrangement.	We also decided against a formal seating arrangement.	19372002	1472439581172	1472439581316	r	82
37488	407225	We also decided against a formal seating arrangement.	We also decided against a formal seating arrangement.	19372004	1472439581317	1472439581420	m	77
37488	407225	We also decided against a formal seating arrangement.	We also decided against a formal seating arrangement.	19372005	1472439581452	1472439581596	a	65
37488	407225	We also decided against a formal seating arrangement.	We also decided against a formal seating arrangement.	19372006	1472439581597	1472439581724	l	76
37488	407225	We also decided against a formal seating arrangement.	We also decided against a formal seating arrangement.	19372007	1472439581788	1472439581900	 	32
37488	407225	We also decided against a formal seating arrangement.	We also decided against a formal seating arrangement.	19372008	1472439582004	1472439582188	s	83
37488	407225	We also decided against a formal seating arrangement.	We also decided against a formal seating arrangement.	19372031	1472439582140	1472439582348	e	69
37488	407225	We also decided against a formal seating arrangement.	We also decided against a formal seating arrangement.	19372032	1472439582332	1472439582540	a	65
37488	407225	We also decided against a formal seating arrangement.	We also decided against a formal seating arrangement.	19372035	1472439582540	1472439582708	t	84
37488	407225	We also decided against a formal seating arrangement.	We also decided against a formal seating arrangement.	19372038	1472439582709	1472439582868	i	73
37488	407225	We also decided against a formal seating arrangement.	We also decided against a formal seating arrangement.	19372043	1472439582828	1472439582980	n	78
37488	407225	We also decided against a formal seating arrangement.	We also decided against a formal seating arrangement.	19372048	1472439582981	1472439583100	g	71
37488	407225	We also decided against a formal seating arrangement.	We also decided against a formal seating arrangement.	19372072	1472439583164	1472439583284	 	32
37488	407225	We also decided against a formal seating arrangement.	We also decided against a formal seating arrangement.	19372074	1472439583323	1472439583540	a	65
37488	407225	We also decided against a formal seating arrangement.	We also decided against a formal seating arrangement.	19372077	1472439583484	1472439583604	r	82
37488	407225	We also decided against a formal seating arrangement.	We also decided against a formal seating arrangement.	19372079	1472439583660	1472439583844	r	82
37488	407225	We also decided against a formal seating arrangement.	We also decided against a formal seating arrangement.	19372105	1472439583812	1472439584020	a	65
37488	407225	We also decided against a formal seating arrangement.	We also decided against a formal seating arrangement.	19372108	1472439584076	1472439584212	n	78
37488	407225	We also decided against a formal seating arrangement.	We also decided against a formal seating arrangement.	19372111	1472439584292	1472439584500	g	71
37488	407225	We also decided against a formal seating arrangement.	We also decided against a formal seating arrangement.	19372113	1472439584452	1472439584564	e	69
37488	407225	We also decided against a formal seating arrangement.	We also decided against a formal seating arrangement.	19372117	1472439584684	1472439584812	m	77
37488	407225	We also decided against a formal seating arrangement.	We also decided against a formal seating arrangement.	19372119	1472439584812	1472439584956	e	69
37488	407225	We also decided against a formal seating arrangement.	We also decided against a formal seating arrangement.	19372137	1472439585004	1472439585108	n	78
37488	407225	We also decided against a formal seating arrangement.	We also decided against a formal seating arrangement.	19372139	1472439585108	1472439585228	t	84
37488	407225	We also decided against a formal seating arrangement.	We also decided against a formal seating arrangement.	19372142	1472439585532	1472439585628	.	190
37488	407235	Should we email this to you or fax to your house?	Should we email this to you or fax to your house?	19372228	1472439587932	1472439588124	SHIFT	16
37488	407235	Should we email this to you or fax to your house?	Should we email this to you or fax to your house?	19372230	1472439588084	1472439588244	S	83
37488	407235	Should we email this to you or fax to your house?	Should we email this to you or fax to your house?	19372232	1472439588244	1472439588395	h	72
37488	407235	Should we email this to you or fax to your house?	Should we email this to you or fax to your house?	19372233	1472439588364	1472439588579	o	79
37488	407235	Should we email this to you or fax to your house?	Should we email this to you or fax to your house?	19372234	1472439588556	1472439588659	u	85
37488	407235	Should we email this to you or fax to your house?	Should we email this to you or fax to your house?	19372235	1472439588723	1472439588860	l	76
37488	407235	Should we email this to you or fax to your house?	Should we email this to you or fax to your house?	19372243	1472439588861	1472439589003	d	68
37488	407235	Should we email this to you or fax to your house?	Should we email this to you or fax to your house?	19372244	1472439589035	1472439589140	 	32
37488	407235	Should we email this to you or fax to your house?	Should we email this to you or fax to your house?	19372245	1472439589140	1472439589283	w	87
37488	407235	Should we email this to you or fax to your house?	Should we email this to you or fax to your house?	19372247	1472439589227	1472439589371	e	69
37488	407235	Should we email this to you or fax to your house?	Should we email this to you or fax to your house?	19372250	1472439589435	1472439589547	 	32
37488	407235	Should we email this to you or fax to your house?	Should we email this to you or fax to your house?	19372284	1472439589627	1472439589763	e	69
37488	407235	Should we email this to you or fax to your house?	Should we email this to you or fax to your house?	19372286	1472439589875	1472439590019	m	77
37488	407235	Should we email this to you or fax to your house?	Should we email this to you or fax to your house?	19372290	1472439590020	1472439590147	a	65
37488	407235	Should we email this to you or fax to your house?	Should we email this to you or fax to your house?	19372293	1472439590147	1472439590291	i	73
37488	407235	Should we email this to you or fax to your house?	Should we email this to you or fax to your house?	19372296	1472439590315	1472439590475	l	76
37488	407235	Should we email this to you or fax to your house?	Should we email this to you or fax to your house?	19372305	1472439590476	1472439590531	 	32
37488	407235	Should we email this to you or fax to your house?	Should we email this to you or fax to your house?	19372307	1472439590532	1472439590659	t	84
37488	407235	Should we email this to you or fax to your house?	Should we email this to you or fax to your house?	19372309	1472439590660	1472439590771	h	72
37488	407235	Should we email this to you or fax to your house?	Should we email this to you or fax to your house?	19372312	1472439590747	1472439590884	i	73
37488	407235	Should we email this to you or fax to your house?	Should we email this to you or fax to your house?	19372319	1472439590844	1472439590980	s	83
37488	407235	Should we email this to you or fax to your house?	Should we email this to you or fax to your house?	19372322	1472439591020	1472439591141	 	32
37488	407235	Should we email this to you or fax to your house?	Should we email this to you or fax to your house?	19372325	1472439591141	1472439591260	t	84
37488	407235	Should we email this to you or fax to your house?	Should we email this to you or fax to your house?	19372328	1472439591236	1472439591405	o	79
37488	407235	Should we email this to you or fax to your house?	Should we email this to you or fax to your house?	19372331	1472439591389	1472439591604	 	32
37488	407235	Should we email this to you or fax to your house?	Should we email this to you or fax to your house?	19372356	1472439591580	1472439591692	y	89
37488	407235	Should we email this to you or fax to your house?	Should we email this to you or fax to your house?	19372357	1472439591653	1472439591836	o	79
37488	407235	Should we email this to you or fax to your house?	Should we email this to you or fax to your house?	19372358	1472439591789	1472439591940	u	85
37488	407235	Should we email this to you or fax to your house?	Should we email this to you or fax to your house?	19372359	1472439592204	1472439592344	 	32
37488	407235	Should we email this to you or fax to your house?	Should we email this to you or fax to your house?	19372360	1472439592396	1472439592532	o	79
37488	407235	Should we email this to you or fax to your house?	Should we email this to you or fax to your house?	19372361	1472439592564	1472439592692	r	82
37488	407235	Should we email this to you or fax to your house?	Should we email this to you or fax to your house?	19372420	1472439592749	1472439592860	 	32
37488	407235	Should we email this to you or fax to your house?	Should we email this to you or fax to your house?	19372425	1472439592988	1472439593140	f	70
37488	407235	Should we email this to you or fax to your house?	Should we email this to you or fax to your house?	19372432	1472439593060	1472439593220	a	65
37488	407235	Should we email this to you or fax to your house?	Should we email this to you or fax to your house?	19372439	1472439593372	1472439593604	v	86
37488	407235	Should we email this to you or fax to your house?	Should we email this to you or fax to your house?	19372445	1472439593876	1472439594004	BKSP	8
37488	407235	Should we email this to you or fax to your house?	Should we email this to you or fax to your house?	19372448	1472439594668	1472439594756	x	88
37488	407235	Should we email this to you or fax to your house?	Should we email this to you or fax to your house?	19372479	1472439595100	1472439595188	 	32
37488	407235	Should we email this to you or fax to your house?	Should we email this to you or fax to your house?	19372481	1472439595428	1472439595556	t	84
37488	407235	Should we email this to you or fax to your house?	Should we email this to you or fax to your house?	19372483	1472439595557	1472439595732	o	79
37488	407235	Should we email this to you or fax to your house?	Should we email this to you or fax to your house?	19372485	1472439595733	1472439595900	 	32
37488	407235	Should we email this to you or fax to your house?	Should we email this to you or fax to your house?	19372540	1472439595876	1472439596012	y	89
37488	407235	Should we email this to you or fax to your house?	Should we email this to you or fax to your house?	19372543	1472439595972	1472439596156	o	79
37488	407235	Should we email this to you or fax to your house?	Should we email this to you or fax to your house?	19372547	1472439596100	1472439596244	u	85
37488	407235	Should we email this to you or fax to your house?	Should we email this to you or fax to your house?	19372549	1472439596268	1472439596404	r	82
37488	407235	Should we email this to you or fax to your house?	Should we email this to you or fax to your house?	19372550	1472439596477	1472439596596	 	32
37488	407235	Should we email this to you or fax to your house?	Should we email this to you or fax to your house?	19372551	1472439597092	1472439597212	h	72
37488	407235	Should we email this to you or fax to your house?	Should we email this to you or fax to your house?	19372593	1472439597428	1472439597620	o	79
37488	407235	Should we email this to you or fax to your house?	Should we email this to you or fax to your house?	19372596	1472439597564	1472439597684	u	85
37488	407235	Should we email this to you or fax to your house?	Should we email this to you or fax to your house?	19372599	1472439597716	1472439597892	s	83
37488	407235	Should we email this to you or fax to your house?	Should we email this to you or fax to your house?	19372600	1472439597828	1472439597988	e	69
37488	407235	Should we email this to you or fax to your house?	Should we email this to you or fax to your house?	19372601	1472439598460	1472439598572	?	191
37488	407244	The fighting erupted after a private quarrel.	The fighting erupted after a private quarrel.	19372653	1472439600668	1472439600804	T	84
37488	407244	The fighting erupted after a private quarrel.	The fighting erupted after a private quarrel.	19372654	1472439600764	1472439600892	h	72
37488	407244	The fighting erupted after a private quarrel.	The fighting erupted after a private quarrel.	19372655	1472439600892	1472439601028	e	69
37488	407244	The fighting erupted after a private quarrel.	The fighting erupted after a private quarrel.	19372656	1472439601028	1472439601148	 	32
37488	407244	The fighting erupted after a private quarrel.	The fighting erupted after a private quarrel.	19372657	1472439601196	1472439601316	f	70
37488	407244	The fighting erupted after a private quarrel.	The fighting erupted after a private quarrel.	19372689	1472439601317	1472439601452	i	73
37488	407244	The fighting erupted after a private quarrel.	The fighting erupted after a private quarrel.	19372691	1472439601532	1472439601659	g	71
37488	407244	The fighting erupted after a private quarrel.	The fighting erupted after a private quarrel.	19372693	1472439601852	1472439601979	h	72
37488	407244	The fighting erupted after a private quarrel.	The fighting erupted after a private quarrel.	19372695	1472439602403	1472439602516	t	84
37488	407244	The fighting erupted after a private quarrel.	The fighting erupted after a private quarrel.	19372697	1472439602516	1472439602699	i	73
37488	407244	The fighting erupted after a private quarrel.	The fighting erupted after a private quarrel.	19372734	1472439602644	1472439602812	n	78
37488	407244	The fighting erupted after a private quarrel.	The fighting erupted after a private quarrel.	19372738	1472439602812	1472439602940	g	71
37488	407244	The fighting erupted after a private quarrel.	The fighting erupted after a private quarrel.	19372743	1472439603036	1472439603140	 	32
37488	407244	The fighting erupted after a private quarrel.	The fighting erupted after a private quarrel.	19372747	1472439603292	1472439603500	e	69
37488	407244	The fighting erupted after a private quarrel.	The fighting erupted after a private quarrel.	19372752	1472439603500	1472439603611	r	82
37488	407244	The fighting erupted after a private quarrel.	The fighting erupted after a private quarrel.	19372759	1472439603764	1472439603948	u	85
37488	407244	The fighting erupted after a private quarrel.	The fighting erupted after a private quarrel.	19372820	1472439603949	1472439604131	p	80
37488	407244	The fighting erupted after a private quarrel.	The fighting erupted after a private quarrel.	19372826	1472439604572	1472439604771	t	84
37488	407244	The fighting erupted after a private quarrel.	The fighting erupted after a private quarrel.	19372831	1472439604747	1472439604883	e	69
37488	407244	The fighting erupted after a private quarrel.	The fighting erupted after a private quarrel.	19372834	1472439605043	1472439605179	d	68
37488	407244	The fighting erupted after a private quarrel.	The fighting erupted after a private quarrel.	19372837	1472439605275	1472439605404	 	32
37488	407244	The fighting erupted after a private quarrel.	The fighting erupted after a private quarrel.	19372888	1472439605405	1472439605539	a	65
37488	407244	The fighting erupted after a private quarrel.	The fighting erupted after a private quarrel.	19372890	1472439605683	1472439605835	g	71
37488	407244	The fighting erupted after a private quarrel.	The fighting erupted after a private quarrel.	19372892	1472439606243	1472439606355	BKSP	8
37488	407244	The fighting erupted after a private quarrel.	The fighting erupted after a private quarrel.	19372894	1472439606579	1472439606701	f	70
37488	407244	The fighting erupted after a private quarrel.	The fighting erupted after a private quarrel.	19372897	1472439606811	1472439606955	t	84
37488	407244	The fighting erupted after a private quarrel.	The fighting erupted after a private quarrel.	19372899	1472439606956	1472439607123	e	69
37488	407244	The fighting erupted after a private quarrel.	The fighting erupted after a private quarrel.	19372957	1472439607076	1472439607227	r	82
37488	407244	The fighting erupted after a private quarrel.	The fighting erupted after a private quarrel.	19372959	1472439607371	1472439607475	 	32
37488	407244	The fighting erupted after a private quarrel.	The fighting erupted after a private quarrel.	19372961	1472439607476	1472439607611	a	65
37488	407244	The fighting erupted after a private quarrel.	The fighting erupted after a private quarrel.	19372963	1472439607699	1472439607867	 	32
37488	407244	The fighting erupted after a private quarrel.	The fighting erupted after a private quarrel.	19372965	1472439608259	1472439608396	p	80
37488	407244	The fighting erupted after a private quarrel.	The fighting erupted after a private quarrel.	19372966	1472439608452	1472439608564	r	82
37488	407244	The fighting erupted after a private quarrel.	The fighting erupted after a private quarrel.	19372991	1472439608612	1472439608740	i	73
37488	407244	The fighting erupted after a private quarrel.	The fighting erupted after a private quarrel.	19372992	1472439608964	1472439609164	v	86
37488	407244	The fighting erupted after a private quarrel.	The fighting erupted after a private quarrel.	19372993	1472439609164	1472439609364	a	65
37488	407244	The fighting erupted after a private quarrel.	The fighting erupted after a private quarrel.	19372994	1472439609532	1472439609652	t	84
37488	407244	The fighting erupted after a private quarrel.	The fighting erupted after a private quarrel.	19372995	1472439609804	1472439609916	e	69
37488	407244	The fighting erupted after a private quarrel.	The fighting erupted after a private quarrel.	19373020	1472439610036	1472439610156	 	32
37488	407244	The fighting erupted after a private quarrel.	The fighting erupted after a private quarrel.	19373023	1472439610637	1472439610756	q	81
37488	407244	The fighting erupted after a private quarrel.	The fighting erupted after a private quarrel.	19373027	1472439610812	1472439610964	u	85
37488	407244	The fighting erupted after a private quarrel.	The fighting erupted after a private quarrel.	19373034	1472439610964	1472439611188	a	65
37488	407244	The fighting erupted after a private quarrel.	The fighting erupted after a private quarrel.	19373060	1472439611148	1472439611260	r	82
37488	407244	The fighting erupted after a private quarrel.	The fighting erupted after a private quarrel.	19373061	1472439611348	1472439611516	r	82
37488	407244	The fighting erupted after a private quarrel.	The fighting erupted after a private quarrel.	19373062	1472439611517	1472439611612	e	69
37488	407244	The fighting erupted after a private quarrel.	The fighting erupted after a private quarrel.	19373063	1472439611692	1472439611772	l	76
37488	407244	The fighting erupted after a private quarrel.	The fighting erupted after a private quarrel.	19373064	1472439611916	1472439612020	.	190
37488	407256	What does Hunter think?	What does Hunter think?	19373192	1472439614636	1472439614876	SHIFT	16
37488	407256	What does Hunter think?	What does Hunter think?	19373194	1472439614812	1472439615012	W	87
37488	407256	What does Hunter think?	What does Hunter think?	19373196	1472439615068	1472439615212	h	72
37488	407256	What does Hunter think?	What does Hunter think?	19373199	1472439615180	1472439615396	a	65
37488	407256	What does Hunter think?	What does Hunter think?	19373201	1472439615348	1472439615491	t	84
37488	407256	What does Hunter think?	What does Hunter think?	19373202	1472439615660	1472439615772	 	32
37488	407256	What does Hunter think?	What does Hunter think?	19373214	1472439615844	1472439615980	d	68
37488	407256	What does Hunter think?	What does Hunter think?	19373215	1472439615980	1472439616108	o	79
37488	407256	What does Hunter think?	What does Hunter think?	19373216	1472439616108	1472439616300	e	69
37488	407256	What does Hunter think?	What does Hunter think?	19373217	1472439616220	1472439616372	s	83
37488	407256	What does Hunter think?	What does Hunter think?	19373218	1472439616444	1472439616555	 	32
37488	407256	What does Hunter think?	What does Hunter think?	19373264	1472439616684	1472439616884	SHIFT	16
37488	407256	What does Hunter think?	What does Hunter think?	19373269	1472439616820	1472439616940	H	72
37488	407256	What does Hunter think?	What does Hunter think?	19373273	1472439617036	1472439617188	u	85
37488	407256	What does Hunter think?	What does Hunter think?	19373278	1472439617284	1472439617420	n	78
37488	407256	What does Hunter think?	What does Hunter think?	19373284	1472439617451	1472439617612	t	84
37488	407256	What does Hunter think?	What does Hunter think?	19373287	1472439617612	1472439617779	e	69
37488	407256	What does Hunter think?	What does Hunter think?	19373341	1472439617740	1472439617900	r	82
37488	407256	What does Hunter think?	What does Hunter think?	19373343	1472439617988	1472439618100	 	32
37488	407256	What does Hunter think?	What does Hunter think?	19373344	1472439618164	1472439618452	SHIFT	16
37488	407256	What does Hunter think?	What does Hunter think?	19373346	1472439618316	1472439618507	T	84
37488	407256	What does Hunter think?	What does Hunter think?	19373349	1472439618796	1472439618891	BKSP	8
37488	407256	What does Hunter think?	What does Hunter think?	19373351	1472439618972	1472439619092	t	84
37488	407256	What does Hunter think?	What does Hunter think?	19373355	1472439619251	1472439619531	h	72
37488	407256	What does Hunter think?	What does Hunter think?	19373421	1472439619507	1472439619708	i	73
37488	407256	What does Hunter think?	What does Hunter think?	19373424	1472439620212	1472439620315	n	78
37488	407256	What does Hunter think?	What does Hunter think?	19373427	1472439620363	1472439620475	k	75
37488	407256	What does Hunter think?	What does Hunter think?	19373433	1472439620651	1472439621731	SHIFT	16
37488	407256	What does Hunter think?	What does Hunter think?	19373430	1472439621539	1472439621627	?	191
37488	407263	Did you not read my first email?	Did you not read my first email?	19373527	1472439623795	1472439623955	SHIFT	16
37488	407263	Did you not read my first email?	Did you not read my first email?	19373528	1472439623899	1472439624067	D	68
37488	407263	Did you not read my first email?	Did you not read my first email?	19373529	1472439624068	1472439624204	i	73
37488	407263	Did you not read my first email?	Did you not read my first email?	19373530	1472439624204	1472439624323	d	68
37488	407263	Did you not read my first email?	Did you not read my first email?	19373531	1472439624371	1472439624571	 	32
37488	407263	Did you not read my first email?	Did you not read my first email?	19373545	1472439624539	1472439624643	y	89
37488	407263	Did you not read my first email?	Did you not read my first email?	19373547	1472439624620	1472439624803	o	79
37488	407263	Did you not read my first email?	Did you not read my first email?	19373550	1472439624755	1472439624933	u	85
37488	407263	Did you not read my first email?	Did you not read my first email?	19373553	1472439624933	1472439625051	 	32
37488	407263	Did you not read my first email?	Did you not read my first email?	19373556	1472439625115	1472439625275	n	78
37488	407263	Did you not read my first email?	Did you not read my first email?	19373560	1472439625276	1472439625395	o	79
37488	407263	Did you not read my first email?	Did you not read my first email?	19373572	1472439625443	1472439625571	t	84
37488	407263	Did you not read my first email?	Did you not read my first email?	19373577	1472439625619	1472439625747	 	32
37488	407263	Did you not read my first email?	Did you not read my first email?	19373580	1472439625860	1472439626020	r	82
37488	407263	Did you not read my first email?	Did you not read my first email?	19373583	1472439625948	1472439626180	e	69
37488	407263	Did you not read my first email?	Did you not read my first email?	19373596	1472439626140	1472439626332	a	65
37488	407263	Did you not read my first email?	Did you not read my first email?	19373599	1472439626295	1472439626452	d	68
37488	407263	Did you not read my first email?	Did you not read my first email?	19373602	1472439626524	1472439626628	 	32
37488	407263	Did you not read my first email?	Did you not read my first email?	19373604	1472439626724	1472439626836	m	77
37488	407263	Did you not read my first email?	Did you not read my first email?	19373606	1472439626964	1472439627084	y	89
37488	407263	Did you not read my first email?	Did you not read my first email?	19373608	1472439627124	1472439627268	 	32
37488	407263	Did you not read my first email?	Did you not read my first email?	19373664	1472439627796	1472439627932	f	70
37488	407263	Did you not read my first email?	Did you not read my first email?	19373666	1472439627972	1472439628092	i	73
37488	407263	Did you not read my first email?	Did you not read my first email?	19373669	1472439628988	1472439629147	r	82
37488	407263	Did you not read my first email?	Did you not read my first email?	19373670	1472439629116	1472439629300	s	83
37488	407263	Did you not read my first email?	Did you not read my first email?	19373685	1472439629252	1472439629412	t	84
37488	407263	Did you not read my first email?	Did you not read my first email?	19373688	1472439629532	1472439629668	 	32
37488	407263	Did you not read my first email?	Did you not read my first email?	19373691	1472439629668	1472439629836	e	69
37488	407263	Did you not read my first email?	Did you not read my first email?	19373693	1472439629868	1472439630028	m	77
37488	407263	Did you not read my first email?	Did you not read my first email?	19373694	1472439630028	1472439630156	a	65
37488	407263	Did you not read my first email?	Did you not read my first email?	19373695	1472439630172	1472439630316	i	73
37488	407263	Did you not read my first email?	Did you not read my first email?	19373707	1472439630364	1472439630484	l	76
37488	407263	Did you not read my first email?	Did you not read my first email?	19373715	1472439630876	1472439631308	SHIFT	16
37488	407263	Did you not read my first email?	Did you not read my first email?	19373709	1472439631100	1472439631188	?	191
37488	407271	David, Cindy and Mary will each report to the Office of the Chairman.	David, Cindy and Mary will each report to the Office of the Chairman.	19373862	1472439634172	1472439634339	SHIFT	16
37488	407271	David, Cindy and Mary will each report to the Office of the Chairman.	David, Cindy and Mary will each report to the Office of the Chairman.	19373866	1472439634316	1472439634579	D	68
37488	407271	David, Cindy and Mary will each report to the Office of the Chairman.	David, Cindy and Mary will each report to the Office of the Chairman.	19373869	1472439634500	1472439634644	a	65
37488	407271	David, Cindy and Mary will each report to the Office of the Chairman.	David, Cindy and Mary will each report to the Office of the Chairman.	19373871	1472439635267	1472439635387	v	86
37488	407271	David, Cindy and Mary will each report to the Office of the Chairman.	David, Cindy and Mary will each report to the Office of the Chairman.	19373876	1472439635435	1472439635571	i	73
37488	407271	David, Cindy and Mary will each report to the Office of the Chairman.	David, Cindy and Mary will each report to the Office of the Chairman.	19373879	1472439635612	1472439635731	d	68
37488	407271	David, Cindy and Mary will each report to the Office of the Chairman.	David, Cindy and Mary will each report to the Office of the Chairman.	19373909	1472439636419	1472439636523	,	188
37488	407271	David, Cindy and Mary will each report to the Office of the Chairman.	David, Cindy and Mary will each report to the Office of the Chairman.	19373913	1472439636646	1472439636755	 	32
37488	407271	David, Cindy and Mary will each report to the Office of the Chairman.	David, Cindy and Mary will each report to the Office of the Chairman.	19373917	1472439636820	1472439636987	SHIFT	16
37488	407271	David, Cindy and Mary will each report to the Office of the Chairman.	David, Cindy and Mary will each report to the Office of the Chairman.	19373921	1472439636971	1472439637148	C	67
37488	407271	David, Cindy and Mary will each report to the Office of the Chairman.	David, Cindy and Mary will each report to the Office of the Chairman.	19373923	1472439637148	1472439637336	i	73
37488	407271	David, Cindy and Mary will each report to the Office of the Chairman.	David, Cindy and Mary will each report to the Office of the Chairman.	19373962	1472439637314	1472439637444	n	78
37488	407271	David, Cindy and Mary will each report to the Office of the Chairman.	David, Cindy and Mary will each report to the Office of the Chairman.	19373965	1472439637507	1472439637655	d	68
37488	407271	David, Cindy and Mary will each report to the Office of the Chairman.	David, Cindy and Mary will each report to the Office of the Chairman.	19373968	1472439637739	1472439637876	y	89
37488	407271	David, Cindy and Mary will each report to the Office of the Chairman.	David, Cindy and Mary will each report to the Office of the Chairman.	19373969	1472439637876	1472439638019	 	32
37488	407271	David, Cindy and Mary will each report to the Office of the Chairman.	David, Cindy and Mary will each report to the Office of the Chairman.	19373972	1472439638181	1472439638349	a	65
37488	407271	David, Cindy and Mary will each report to the Office of the Chairman.	David, Cindy and Mary will each report to the Office of the Chairman.	19373974	1472439638350	1472439638459	n	78
37488	407271	David, Cindy and Mary will each report to the Office of the Chairman.	David, Cindy and Mary will each report to the Office of the Chairman.	19374002	1472439638491	1472439638619	d	68
37488	407271	David, Cindy and Mary will each report to the Office of the Chairman.	David, Cindy and Mary will each report to the Office of the Chairman.	19374005	1472439638699	1472439638787	 	32
37488	407271	David, Cindy and Mary will each report to the Office of the Chairman.	David, Cindy and Mary will each report to the Office of the Chairman.	19374008	1472439638923	1472439639187	SHIFT	16
37488	407271	David, Cindy and Mary will each report to the Office of the Chairman.	David, Cindy and Mary will each report to the Office of the Chairman.	19374012	1472439639115	1472439639227	M	77
37488	407271	David, Cindy and Mary will each report to the Office of the Chairman.	David, Cindy and Mary will each report to the Office of the Chairman.	19374016	1472439639379	1472439639555	a	65
37488	407271	David, Cindy and Mary will each report to the Office of the Chairman.	David, Cindy and Mary will each report to the Office of the Chairman.	19374039	1472439639515	1472439639636	r	82
37488	407271	David, Cindy and Mary will each report to the Office of the Chairman.	David, Cindy and Mary will each report to the Office of the Chairman.	19374041	1472439639699	1472439639867	y	89
37488	407271	David, Cindy and Mary will each report to the Office of the Chairman.	David, Cindy and Mary will each report to the Office of the Chairman.	19374043	1472439639891	1472439640028	 	32
37488	407271	David, Cindy and Mary will each report to the Office of the Chairman.	David, Cindy and Mary will each report to the Office of the Chairman.	19374045	1472439640067	1472439640211	w	87
37488	407271	David, Cindy and Mary will each report to the Office of the Chairman.	David, Cindy and Mary will each report to the Office of the Chairman.	19374047	1472439640212	1472439640315	i	73
37488	407271	David, Cindy and Mary will each report to the Office of the Chairman.	David, Cindy and Mary will each report to the Office of the Chairman.	19374049	1472439640387	1472439640467	l	76
37488	407271	David, Cindy and Mary will each report to the Office of the Chairman.	David, Cindy and Mary will each report to the Office of the Chairman.	19374067	1472439640555	1472439640651	l	76
37488	407271	David, Cindy and Mary will each report to the Office of the Chairman.	David, Cindy and Mary will each report to the Office of the Chairman.	19374068	1472439640723	1472439640819	 	32
37488	407271	David, Cindy and Mary will each report to the Office of the Chairman.	David, Cindy and Mary will each report to the Office of the Chairman.	19374069	1472439640843	1472439640987	e	69
37488	407271	David, Cindy and Mary will each report to the Office of the Chairman.	David, Cindy and Mary will each report to the Office of the Chairman.	19374070	1472439640955	1472439641139	a	65
37488	407271	David, Cindy and Mary will each report to the Office of the Chairman.	David, Cindy and Mary will each report to the Office of the Chairman.	19374093	1472439641107	1472439641283	c	67
37488	407271	David, Cindy and Mary will each report to the Office of the Chairman.	David, Cindy and Mary will each report to the Office of the Chairman.	19374095	1472439641284	1472439641419	h	72
37488	407271	David, Cindy and Mary will each report to the Office of the Chairman.	David, Cindy and Mary will each report to the Office of the Chairman.	19374097	1472439641420	1472439641539	 	32
37488	407271	David, Cindy and Mary will each report to the Office of the Chairman.	David, Cindy and Mary will each report to the Office of the Chairman.	19374100	1472439641595	1472439641763	r	82
37488	407271	David, Cindy and Mary will each report to the Office of the Chairman.	David, Cindy and Mary will each report to the Office of the Chairman.	19374104	1472439641710	1472439641827	e	69
37488	407271	David, Cindy and Mary will each report to the Office of the Chairman.	David, Cindy and Mary will each report to the Office of the Chairman.	19374106	1472439641955	1472439642075	p	80
37488	407271	David, Cindy and Mary will each report to the Office of the Chairman.	David, Cindy and Mary will each report to the Office of the Chairman.	19374128	1472439642171	1472439642315	o	79
37488	407271	David, Cindy and Mary will each report to the Office of the Chairman.	David, Cindy and Mary will each report to the Office of the Chairman.	19374129	1472439642316	1472439642467	r	82
37488	407271	David, Cindy and Mary will each report to the Office of the Chairman.	David, Cindy and Mary will each report to the Office of the Chairman.	19374130	1472439642531	1472439642659	t	84
37488	407271	David, Cindy and Mary will each report to the Office of the Chairman.	David, Cindy and Mary will each report to the Office of the Chairman.	19374131	1472439642715	1472439642827	 	32
37488	407271	David, Cindy and Mary will each report to the Office of the Chairman.	David, Cindy and Mary will each report to the Office of the Chairman.	19374132	1472439642859	1472439642963	t	84
37488	407271	David, Cindy and Mary will each report to the Office of the Chairman.	David, Cindy and Mary will each report to the Office of the Chairman.	19374133	1472439642965	1472439643091	o	79
37488	407271	David, Cindy and Mary will each report to the Office of the Chairman.	David, Cindy and Mary will each report to the Office of the Chairman.	19374134	1472439643115	1472439643187	 	32
37488	407271	David, Cindy and Mary will each report to the Office of the Chairman.	David, Cindy and Mary will each report to the Office of the Chairman.	19374136	1472439643188	1472439643292	t	84
37488	407271	David, Cindy and Mary will each report to the Office of the Chairman.	David, Cindy and Mary will each report to the Office of the Chairman.	19374139	1472439643335	1472439643412	h	72
37488	407271	David, Cindy and Mary will each report to the Office of the Chairman.	David, Cindy and Mary will each report to the Office of the Chairman.	19374214	1472439643396	1472439643516	e	69
37488	407271	David, Cindy and Mary will each report to the Office of the Chairman.	David, Cindy and Mary will each report to the Office of the Chairman.	19374216	1472439643556	1472439643676	 	32
37488	407271	David, Cindy and Mary will each report to the Office of the Chairman.	David, Cindy and Mary will each report to the Office of the Chairman.	19374218	1472439643836	1472439644148	SHIFT	16
37488	407271	David, Cindy and Mary will each report to the Office of the Chairman.	David, Cindy and Mary will each report to the Office of the Chairman.	19374217	1472439643972	1472439644116	O	79
37488	407271	David, Cindy and Mary will each report to the Office of the Chairman.	David, Cindy and Mary will each report to the Office of the Chairman.	19374219	1472439644117	1472439644212	F	70
37488	407271	David, Cindy and Mary will each report to the Office of the Chairman.	David, Cindy and Mary will each report to the Office of the Chairman.	19374221	1472439644308	1472439644420	f	70
37488	407271	David, Cindy and Mary will each report to the Office of the Chairman.	David, Cindy and Mary will each report to the Office of the Chairman.	19374223	1472439644852	1472439644924	BKSP	8
37488	407271	David, Cindy and Mary will each report to the Office of the Chairman.	David, Cindy and Mary will each report to the Office of the Chairman.	19374227	1472439645012	1472439645092	BKSP	8
37488	407271	David, Cindy and Mary will each report to the Office of the Chairman.	David, Cindy and Mary will each report to the Office of the Chairman.	19374232	1472439645548	1472439645612	f	70
37488	407271	David, Cindy and Mary will each report to the Office of the Chairman.	David, Cindy and Mary will each report to the Office of the Chairman.	19374241	1472439645700	1472439645804	f	70
37488	407271	David, Cindy and Mary will each report to the Office of the Chairman.	David, Cindy and Mary will each report to the Office of the Chairman.	19374242	1472439645856	1472439645996	i	73
37488	407271	David, Cindy and Mary will each report to the Office of the Chairman.	David, Cindy and Mary will each report to the Office of the Chairman.	19374243	1472439645996	1472439646180	c	67
37488	407271	David, Cindy and Mary will each report to the Office of the Chairman.	David, Cindy and Mary will each report to the Office of the Chairman.	19374244	1472439646140	1472439646261	e	69
37488	407271	David, Cindy and Mary will each report to the Office of the Chairman.	David, Cindy and Mary will each report to the Office of the Chairman.	19374245	1472439646355	1472439646476	 	32
37488	407271	David, Cindy and Mary will each report to the Office of the Chairman.	David, Cindy and Mary will each report to the Office of the Chairman.	19374258	1472439646524	1472439646636	o	79
37488	407271	David, Cindy and Mary will each report to the Office of the Chairman.	David, Cindy and Mary will each report to the Office of the Chairman.	19374260	1472439646637	1472439646740	f	70
37488	407271	David, Cindy and Mary will each report to the Office of the Chairman.	David, Cindy and Mary will each report to the Office of the Chairman.	19374262	1472439646788	1472439646876	 	32
37488	407271	David, Cindy and Mary will each report to the Office of the Chairman.	David, Cindy and Mary will each report to the Office of the Chairman.	19374264	1472439646908	1472439647036	t	84
37488	407271	David, Cindy and Mary will each report to the Office of the Chairman.	David, Cindy and Mary will each report to the Office of the Chairman.	19374266	1472439647036	1472439647137	h	72
37488	407271	David, Cindy and Mary will each report to the Office of the Chairman.	David, Cindy and Mary will each report to the Office of the Chairman.	19374294	1472439647171	1472439647271	e	69
37488	407271	David, Cindy and Mary will each report to the Office of the Chairman.	David, Cindy and Mary will each report to the Office of the Chairman.	19374295	1472439647580	1472439647692	 	32
37488	407271	David, Cindy and Mary will each report to the Office of the Chairman.	David, Cindy and Mary will each report to the Office of the Chairman.	19374296	1472439647726	1472439647901	SHIFT	16
37488	407271	David, Cindy and Mary will each report to the Office of the Chairman.	David, Cindy and Mary will each report to the Office of the Chairman.	19374297	1472439647859	1472439648156	C	67
37488	407271	David, Cindy and Mary will each report to the Office of the Chairman.	David, Cindy and Mary will each report to the Office of the Chairman.	19374298	1472439648476	1472439648660	h	72
37488	407271	David, Cindy and Mary will each report to the Office of the Chairman.	David, Cindy and Mary will each report to the Office of the Chairman.	19374301	1472439648796	1472439649012	a	65
37488	407271	David, Cindy and Mary will each report to the Office of the Chairman.	David, Cindy and Mary will each report to the Office of the Chairman.	19374317	1472439649013	1472439649123	r	73
37488	407271	David, Cindy and Mary will each report to the Office of the Chairman.	David, Cindy and Mary will each report to the Office of the Chairman.	19374319	1472439649172	1472439649276	r	82
37488	407271	David, Cindy and Mary will each report to the Office of the Chairman.	David, Cindy and Mary will each report to the Office of the Chairman.	19374320	1472439649620	1472439649683	BKSP	8
37488	407271	David, Cindy and Mary will each report to the Office of the Chairman.	David, Cindy and Mary will each report to the Office of the Chairman.	19374322	1472439649996	1472439650171	m	77
37488	407271	David, Cindy and Mary will each report to the Office of the Chairman.	David, Cindy and Mary will each report to the Office of the Chairman.	19374364	1472439650148	1472439650267	a	65
37488	407271	David, Cindy and Mary will each report to the Office of the Chairman.	David, Cindy and Mary will each report to the Office of the Chairman.	19374365	1472439651100	1472439651179	n	78
37488	407271	David, Cindy and Mary will each report to the Office of the Chairman.	David, Cindy and Mary will each report to the Office of the Chairman.	19374366	1472439651580	1472439651643	.	190
37488	407284	Keep him in mind as a No.	Keep him in mind as a No.	19374443	1472439654484	1472439654651	SHIFT	16
37488	407284	Keep him in mind as a No.	Keep him in mind as a No.	19374444	1472439654595	1472439654723	K	75
37488	407284	Keep him in mind as a No.	Keep him in mind as a No.	19374445	1472439654724	1472439654835	e	69
37488	407284	Keep him in mind as a No.	Keep him in mind as a No.	19374446	1472439655027	1472439655139	e	69
37488	407284	Keep him in mind as a No.	Keep him in mind as a No.	19374448	1472439655243	1472439655379	p	80
37488	407284	Keep him in mind as a No.	Keep him in mind as a No.	19374450	1472439655427	1472439655555	 	32
37488	407284	Keep him in mind as a No.	Keep him in mind as a No.	19374465	1472439655763	1472439655923	h	72
37488	407284	Keep him in mind as a No.	Keep him in mind as a No.	19374466	1472439655899	1472439656131	i	73
37488	407284	Keep him in mind as a No.	Keep him in mind as a No.	19374467	1472439656083	1472439656283	m	77
37488	407284	Keep him in mind as a No.	Keep him in mind as a No.	19374468	1472439656284	1472439656395	 	32
37488	407284	Keep him in mind as a No.	Keep him in mind as a No.	19374469	1472439656507	1472439656667	i	73
37488	407284	Keep him in mind as a No.	Keep him in mind as a No.	19374492	1472439656635	1472439656763	n	78
37488	407284	Keep him in mind as a No.	Keep him in mind as a No.	19374496	1472439656795	1472439656891	 	32
37488	407284	Keep him in mind as a No.	Keep him in mind as a No.	19374499	1472439656979	1472439657147	m	77
37488	407284	Keep him in mind as a No.	Keep him in mind as a No.	19374502	1472439657123	1472439657283	i	73
37488	407284	Keep him in mind as a No.	Keep him in mind as a No.	19374507	1472439657283	1472439657411	n	78
37488	407284	Keep him in mind as a No.	Keep him in mind as a No.	19374512	1472439657475	1472439657595	d	68
37488	407284	Keep him in mind as a No.	Keep him in mind as a No.	19374547	1472439657667	1472439657771	 	32
37488	407284	Keep him in mind as a No.	Keep him in mind as a No.	19374549	1472439657813	1472439657955	a	65
37488	407284	Keep him in mind as a No.	Keep him in mind as a No.	19374551	1472439657956	1472439658059	s	83
37488	407284	Keep him in mind as a No.	Keep him in mind as a No.	19374555	1472439658459	1472439658563	 	32
37488	407284	Keep him in mind as a No.	Keep him in mind as a No.	19374558	1472439658715	1472439658832	a	65
37488	407284	Keep him in mind as a No.	Keep him in mind as a No.	19374619	1472439658931	1472439659035	 	32
37488	407284	Keep him in mind as a No.	Keep him in mind as a No.	19374622	1472439659139	1472439659532	SHIFT	16
37488	407284	Keep him in mind as a No.	Keep him in mind as a No.	19374624	1472439659331	1472439659532	M	77
37488	407284	Keep him in mind as a No.	Keep him in mind as a No.	19374627	1472439659533	1472439659651	o	79
37488	407284	Keep him in mind as a No.	Keep him in mind as a No.	19374630	1472439659995	1472439660075	BKSP	8
37488	407284	Keep him in mind as a No.	Keep him in mind as a No.	19374634	1472439660171	1472439660235	BKSP	8
37488	407284	Keep him in mind as a No.	Keep him in mind as a No.	19374638	1472439660699	1472439660940	SHIFT	16
37488	407284	Keep him in mind as a No.	Keep him in mind as a No.	19374640	1472439660860	1472439660980	N	78
37488	407284	Keep him in mind as a No.	Keep him in mind as a No.	19374641	1472439661220	1472439661316	o	79
37488	407284	Keep him in mind as a No.	Keep him in mind as a No.	19374652	1472439661620	1472439661700	.	190
37488	407290	US ships will also lead a second task force.	US ships will also lead a second task force.	19374730	1472439663916	1472439664123	SHIFT	16
37488	407290	US ships will also lead a second task force.	US ships will also lead a second task force.	19374731	1472439664068	1472439664228	U	85
37488	407290	US ships will also lead a second task force.	US ships will also lead a second task force.	19374733	1472439664228	1472439664356	s	83
37488	407290	US ships will also lead a second task force.	US ships will also lead a second task force.	19374735	1472439664788	1472439664907	BKSP	8
37488	407290	US ships will also lead a second task force.	US ships will also lead a second task force.	19374739	1472439664884	1472439665085	SHIFT	16
37488	407290	US ships will also lead a second task force.	US ships will also lead a second task force.	19374743	1472439665020	1472439665179	S	83
37488	407290	US ships will also lead a second task force.	US ships will also lead a second task force.	19374747	1472439665244	1472439665363	 	32
37488	407290	US ships will also lead a second task force.	US ships will also lead a second task force.	19374752	1472439665436	1472439665571	s	83
37488	407290	US ships will also lead a second task force.	US ships will also lead a second task force.	19374769	1472439665620	1472439665804	h	72
37488	407290	US ships will also lead a second task force.	US ships will also lead a second task force.	19374771	1472439665804	1472439665955	i	73
37488	407290	US ships will also lead a second task force.	US ships will also lead a second task force.	19374774	1472439666076	1472439666219	p	80
37488	407290	US ships will also lead a second task force.	US ships will also lead a second task force.	19374776	1472439666292	1472439666467	s	83
37488	407290	US ships will also lead a second task force.	US ships will also lead a second task force.	19374779	1472439666507	1472439666628	 	32
37488	407290	US ships will also lead a second task force.	US ships will also lead a second task force.	19374789	1472439666723	1472439666804	w	87
37488	407290	US ships will also lead a second task force.	US ships will also lead a second task force.	19374791	1472439666805	1472439666907	i	73
37488	407290	US ships will also lead a second task force.	US ships will also lead a second task force.	19374793	1472439667027	1472439667091	l	76
37488	407290	US ships will also lead a second task force.	US ships will also lead a second task force.	19374795	1472439667196	1472439667291	l	76
37488	407290	US ships will also lead a second task force.	US ships will also lead a second task force.	19374797	1472439667347	1472439667419	 	32
37488	407290	US ships will also lead a second task force.	US ships will also lead a second task force.	19374813	1472439667421	1472439667547	a	65
37488	407290	US ships will also lead a second task force.	US ships will also lead a second task force.	19374816	1472439667644	1472439667747	l	76
37488	407290	US ships will also lead a second task force.	US ships will also lead a second task force.	19374822	1472439667867	1472439668004	s	83
37488	407290	US ships will also lead a second task force.	US ships will also lead a second task force.	19374826	1472439668004	1472439668155	o	79
37488	407290	US ships will also lead a second task force.	US ships will also lead a second task force.	19374829	1472439668179	1472439668315	 	32
37488	407290	US ships will also lead a second task force.	US ships will also lead a second task force.	19374865	1472439668596	1472439668731	l	76
37488	407290	US ships will also lead a second task force.	US ships will also lead a second task force.	19374867	1472439668763	1472439668955	e	69
37488	407290	US ships will also lead a second task force.	US ships will also lead a second task force.	19374869	1472439668915	1472439669043	a	65
37488	407290	US ships will also lead a second task force.	US ships will also lead a second task force.	19374874	1472439669123	1472439669243	d	68
37488	407290	US ships will also lead a second task force.	US ships will also lead a second task force.	19374880	1472439669323	1472439669435	 	32
37488	407290	US ships will also lead a second task force.	US ships will also lead a second task force.	19374902	1472439669437	1472439669571	a	65
37488	407290	US ships will also lead a second task force.	US ships will also lead a second task force.	19374903	1472439669659	1472439669779	 	32
37488	407290	US ships will also lead a second task force.	US ships will also lead a second task force.	19374904	1472439669780	1472439669955	s	83
37488	407290	US ships will also lead a second task force.	US ships will also lead a second task force.	19374905	1472439669899	1472439670035	e	69
37488	407290	US ships will also lead a second task force.	US ships will also lead a second task force.	19374906	1472439670187	1472439670339	c	67
37488	407290	US ships will also lead a second task force.	US ships will also lead a second task force.	19374945	1472439670341	1472439670515	o	79
37488	407290	US ships will also lead a second task force.	US ships will also lead a second task force.	19374947	1472439670491	1472439670619	n	78
37488	407290	US ships will also lead a second task force.	US ships will also lead a second task force.	19374949	1472439670643	1472439670755	d	68
37488	407290	US ships will also lead a second task force.	US ships will also lead a second task force.	19374950	1472439670803	1472439670915	 	32
37488	407290	US ships will also lead a second task force.	US ships will also lead a second task force.	19374951	1472439670995	1472439671179	t	84
37488	407290	US ships will also lead a second task force.	US ships will also lead a second task force.	19374996	1472439671123	1472439671267	a	65
37488	407290	US ships will also lead a second task force.	US ships will also lead a second task force.	19374998	1472439671339	1472439671435	k	75
37488	407290	US ships will also lead a second task force.	US ships will also lead a second task force.	19374999	1472439671523	1472439671643	s	83
37488	407290	US ships will also lead a second task force.	US ships will also lead a second task force.	19375000	1472439672043	1472439672139	BKSP	8
37488	407290	US ships will also lead a second task force.	US ships will also lead a second task force.	19375001	1472439672219	1472439672299	BKSP	8
37488	407290	US ships will also lead a second task force.	US ships will also lead a second task force.	19375002	1472439672355	1472439672483	s	83
37488	407290	US ships will also lead a second task force.	US ships will also lead a second task force.	19375003	1472439672484	1472439672667	k	75
37488	407290	US ships will also lead a second task force.	US ships will also lead a second task force.	19375004	1472439672699	1472439672803	 	32
37488	407290	US ships will also lead a second task force.	US ships will also lead a second task force.	19375005	1472439672851	1472439672987	f	70
37488	407290	US ships will also lead a second task force.	US ships will also lead a second task force.	19375006	1472439673003	1472439673131	o	79
37488	407290	US ships will also lead a second task force.	US ships will also lead a second task force.	19375007	1472439673132	1472439673259	r	82
37488	407290	US ships will also lead a second task force.	US ships will also lead a second task force.	19375008	1472439673459	1472439673659	c	67
37488	407290	US ships will also lead a second task force.	US ships will also lead a second task force.	19375014	1472439673611	1472439673731	e	69
37488	407290	US ships will also lead a second task force.	US ships will also lead a second task force.	19375016	1472439674131	1472439674235	.	190
