PARTICIPANT_ID	TEST_SECTION_ID	SENTENCE	USER_INPUT	KEYSTROKE_ID	PRESS_TIME	RELEASE_TIME	LETTER	KEYCODE
375215	4046949	But he is expected to play against the Raiders on Sunday night.	Gut he is expected to play against the raider on Sunday night.	192234678	1477117256690	1477117257537	SHIFT	16
375215	4046949	But he is expected to play against the Raiders on Sunday night.	Gut he is expected to play against the raider on Sunday night.	192234679	1477117257514	1477117257653	NA	71
375215	4046949	But he is expected to play against the Raiders on Sunday night.	Gut he is expected to play against the raider on Sunday night.	192234680	1477117257635	1477117257742	NA	85
375215	4046949	But he is expected to play against the Raiders on Sunday night.	Gut he is expected to play against the raider on Sunday night.	192234681	1477117257766	1477117257861	NA	84
375215	4046949	But he is expected to play against the Raiders on Sunday night.	Gut he is expected to play against the raider on Sunday night.	192234682	1477117257862	1477117257959	NA	32
375215	4046949	But he is expected to play against the Raiders on Sunday night.	Gut he is expected to play against the raider on Sunday night.	192234684	1477117258099	1477117258151	NA	72
375215	4046949	But he is expected to play against the Raiders on Sunday night.	Gut he is expected to play against the raider on Sunday night.	192234720	1477117258283	1477117258379	NA	69
375215	4046949	But he is expected to play against the Raiders on Sunday night.	Gut he is expected to play against the raider on Sunday night.	192234723	1477117258660	1477117258711	NA	32
375215	4046949	But he is expected to play against the Raiders on Sunday night.	Gut he is expected to play against the raider on Sunday night.	192234726	1477117259370	1477117259374	NA	73
375215	4046949	But he is expected to play against the Raiders on Sunday night.	Gut he is expected to play against the raider on Sunday night.	192234731	1477117259374	1477117259411	NA	83
375215	4046949	But he is expected to play against the Raiders on Sunday night.	Gut he is expected to play against the raider on Sunday night.	192234735	1477117259430	1477117259529	NA	32
375215	4046949	But he is expected to play against the Raiders on Sunday night.	Gut he is expected to play against the raider on Sunday night.	192234764	1477117259539	1477117259618	NA	69
375215	4046949	But he is expected to play against the Raiders on Sunday night.	Gut he is expected to play against the raider on Sunday night.	192234767	1477117259801	1477117259863	NA	88
375215	4046949	But he is expected to play against the Raiders on Sunday night.	Gut he is expected to play against the raider on Sunday night.	192234769	1477117260252	1477117260347	NA	80
375215	4046949	But he is expected to play against the Raiders on Sunday night.	Gut he is expected to play against the raider on Sunday night.	192234771	1477117260366	1477117260428	NA	69
375215	4046949	But he is expected to play against the Raiders on Sunday night.	Gut he is expected to play against the raider on Sunday night.	192234773	1477117260725	1477117260806	NA	67
375215	4046949	But he is expected to play against the Raiders on Sunday night.	Gut he is expected to play against the raider on Sunday night.	192234819	1477117260868	1477117260961	NA	84
375215	4046949	But he is expected to play against the Raiders on Sunday night.	Gut he is expected to play against the raider on Sunday night.	192234823	1477117261237	1477117261364	NA	69
375215	4046949	But he is expected to play against the Raiders on Sunday night.	Gut he is expected to play against the raider on Sunday night.	192234829	1477117261616	1477117261715	NA	68
375215	4046949	But he is expected to play against the Raiders on Sunday night.	Gut he is expected to play against the raider on Sunday night.	192234831	1477117262471	1477117262556	NA	32
375215	4046949	But he is expected to play against the Raiders on Sunday night.	Gut he is expected to play against the raider on Sunday night.	192234832	1477117262778	1477117262856	NA	84
375215	4046949	But he is expected to play against the Raiders on Sunday night.	Gut he is expected to play against the raider on Sunday night.	192234850	1477117263089	1477117263215	NA	79
375215	4046949	But he is expected to play against the Raiders on Sunday night.	Gut he is expected to play against the raider on Sunday night.	192234851	1477117263237	1477117263339	NA	32
375215	4046949	But he is expected to play against the Raiders on Sunday night.	Gut he is expected to play against the raider on Sunday night.	192234852	1477117263345	1477117263460	NA	80
375215	4046949	But he is expected to play against the Raiders on Sunday night.	Gut he is expected to play against the raider on Sunday night.	192234853	1477117263406	1477117263496	NA	76
375215	4046949	But he is expected to play against the Raiders on Sunday night.	Gut he is expected to play against the raider on Sunday night.	192234854	1477117263611	1477117263702	NA	65
375215	4046949	But he is expected to play against the Raiders on Sunday night.	Gut he is expected to play against the raider on Sunday night.	192234865	1477117263714	1477117263813	NA	89
375215	4046949	But he is expected to play against the Raiders on Sunday night.	Gut he is expected to play against the raider on Sunday night.	192234866	1477117264661	1477117264763	NA	32
375215	4046949	But he is expected to play against the Raiders on Sunday night.	Gut he is expected to play against the raider on Sunday night.	192234867	1477117264894	1477117264997	NA	65
375215	4046949	But he is expected to play against the Raiders on Sunday night.	Gut he is expected to play against the raider on Sunday night.	192234868	1477117265209	1477117265313	NA	71
375215	4046949	But he is expected to play against the Raiders on Sunday night.	Gut he is expected to play against the raider on Sunday night.	192234869	1477117265376	1477117265467	NA	65
375215	4046949	But he is expected to play against the Raiders on Sunday night.	Gut he is expected to play against the raider on Sunday night.	192234890	1477117265517	1477117265625	NA	73
375215	4046949	But he is expected to play against the Raiders on Sunday night.	Gut he is expected to play against the raider on Sunday night.	192234894	1477117265572	1477117265680	NA	78
375215	4046949	But he is expected to play against the Raiders on Sunday night.	Gut he is expected to play against the raider on Sunday night.	192234898	1477117265806	1477117265903	NA	83
375215	4046949	But he is expected to play against the Raiders on Sunday night.	Gut he is expected to play against the raider on Sunday night.	192234902	1477117265929	1477117266172	NA	84
375215	4046949	But he is expected to play against the Raiders on Sunday night.	Gut he is expected to play against the raider on Sunday night.	192234906	1477117266738	1477117266827	NA	32
375215	4046949	But he is expected to play against the Raiders on Sunday night.	Gut he is expected to play against the raider on Sunday night.	192234928	1477117267015	1477117267062	NA	84
375215	4046949	But he is expected to play against the Raiders on Sunday night.	Gut he is expected to play against the raider on Sunday night.	192234929	1477117267185	1477117267271	NA	72
375215	4046949	But he is expected to play against the Raiders on Sunday night.	Gut he is expected to play against the raider on Sunday night.	192234930	1477117267295	1477117267386	NA	69
375215	4046949	But he is expected to play against the Raiders on Sunday night.	Gut he is expected to play against the raider on Sunday night.	192234931	1477117267443	1477117267518	NA	32
375215	4046949	But he is expected to play against the Raiders on Sunday night.	Gut he is expected to play against the raider on Sunday night.	192234932	1477117267627	1477117267693	NA	82
375215	4046949	But he is expected to play against the Raiders on Sunday night.	Gut he is expected to play against the raider on Sunday night.	192234957	1477117267755	1477117267850	NA	65
375215	4046949	But he is expected to play against the Raiders on Sunday night.	Gut he is expected to play against the raider on Sunday night.	192234959	1477117267955	1477117268050	NA	73
375215	4046949	But he is expected to play against the Raiders on Sunday night.	Gut he is expected to play against the raider on Sunday night.	192234962	1477117268061	1477117268196	NA	68
375215	4046949	But he is expected to play against the Raiders on Sunday night.	Gut he is expected to play against the raider on Sunday night.	192234965	1477117268430	1477117268571	NA	69
375215	4046949	But he is expected to play against the Raiders on Sunday night.	Gut he is expected to play against the raider on Sunday night.	192235023	1477117268518	1477117268636	NA	82
375215	4046949	But he is expected to play against the Raiders on Sunday night.	Gut he is expected to play against the raider on Sunday night.	192235026	1477117268968	1477117269055	NA	32
375215	4046949	But he is expected to play against the Raiders on Sunday night.	Gut he is expected to play against the raider on Sunday night.	192235029	1477117269361	1477117269469	NA	79
375215	4046949	But he is expected to play against the Raiders on Sunday night.	Gut he is expected to play against the raider on Sunday night.	192235034	1477117269463	1477117269562	NA	78
375215	4046949	But he is expected to play against the Raiders on Sunday night.	Gut he is expected to play against the raider on Sunday night.	192235036	1477117269590	1477117269710	NA	32
375215	4046949	But he is expected to play against the Raiders on Sunday night.	Gut he is expected to play against the raider on Sunday night.	192235038	1477117270391	1477117270495	NA	83
375215	4046949	But he is expected to play against the Raiders on Sunday night.	Gut he is expected to play against the raider on Sunday night.	192235076	1477117270500	1477117270637	NA	85
375215	4046949	But he is expected to play against the Raiders on Sunday night.	Gut he is expected to play against the raider on Sunday night.	192235078	1477117270587	1477117270695	NA	78
375215	4046949	But he is expected to play against the Raiders on Sunday night.	Gut he is expected to play against the raider on Sunday night.	192235080	1477117271286	1477117271353		8
375215	4046949	But he is expected to play against the Raiders on Sunday night.	Gut he is expected to play against the raider on Sunday night.	192235086	1477117271434	1477117271513		8
375215	4046949	But he is expected to play against the Raiders on Sunday night.	Gut he is expected to play against the raider on Sunday night.	192235090	1477117271922	1477117272015		8
375215	4046949	But he is expected to play against the Raiders on Sunday night.	Gut he is expected to play against the raider on Sunday night.	192235100	1477117272075	1477117272386	SHIFT	16
375215	4046949	But he is expected to play against the Raiders on Sunday night.	Gut he is expected to play against the raider on Sunday night.	192235099	1477117272237	1477117272355	NA	83
375215	4046949	But he is expected to play against the Raiders on Sunday night.	Gut he is expected to play against the raider on Sunday night.	192235101	1477117272470	1477117272621	NA	85
375215	4046949	But he is expected to play against the Raiders on Sunday night.	Gut he is expected to play against the raider on Sunday night.	192235102	1477117272571	1477117272666	NA	78
375215	4046949	But he is expected to play against the Raiders on Sunday night.	Gut he is expected to play against the raider on Sunday night.	192235103	1477117272738	1477117272884	NA	68
375215	4046949	But he is expected to play against the Raiders on Sunday night.	Gut he is expected to play against the raider on Sunday night.	192235119	1477117272849	1477117272960	NA	65
375215	4046949	But he is expected to play against the Raiders on Sunday night.	Gut he is expected to play against the raider on Sunday night.	192235123	1477117272945	1477117273044	NA	89
375215	4046949	But he is expected to play against the Raiders on Sunday night.	Gut he is expected to play against the raider on Sunday night.	192235128	1477117273712	1477117273839	NA	32
375215	4046949	But he is expected to play against the Raiders on Sunday night.	Gut he is expected to play against the raider on Sunday night.	192235131	1477117274001	1477117274105	NA	78
375215	4046949	But he is expected to play against the Raiders on Sunday night.	Gut he is expected to play against the raider on Sunday night.	192235133	1477117274069	1477117274180	NA	73
375215	4046949	But he is expected to play against the Raiders on Sunday night.	Gut he is expected to play against the raider on Sunday night.	192235136	1477117274226	1477117274324	NA	71
375215	4046949	But he is expected to play against the Raiders on Sunday night.	Gut he is expected to play against the raider on Sunday night.	192235173	1477117274330	1477117274413	NA	72
375215	4046949	But he is expected to play against the Raiders on Sunday night.	Gut he is expected to play against the raider on Sunday night.	192235174	1477117274430	1477117274515	NA	84
375215	4046949	But he is expected to play against the Raiders on Sunday night.	Gut he is expected to play against the raider on Sunday night.	192235175	1477117274768	1477117274872	NA	190
375215	4046959	I can fill you in on more details later.	I can fill you in on more deatails later.	192235222	1477117277617	1477117277986	SHIFT	16
375215	4046959	I can fill you in on more details later.	I can fill you in on more deatails later.	192235223	1477117277918	1477117277986	NA	73
375215	4046959	I can fill you in on more details later.	I can fill you in on more deatails later.	192235224	1477117278084	1477117278191	NA	32
375215	4046959	I can fill you in on more details later.	I can fill you in on more deatails later.	192235225	1477117278176	1477117278300	NA	67
375215	4046959	I can fill you in on more details later.	I can fill you in on more deatails later.	192235227	1477117278254	1477117278357	NA	65
375215	4046959	I can fill you in on more details later.	I can fill you in on more deatails later.	192235232	1477117278316	1477117278387	NA	78
375215	4046959	I can fill you in on more details later.	I can fill you in on more deatails later.	192235233	1477117278477	1477117278546	NA	32
375215	4046959	I can fill you in on more details later.	I can fill you in on more deatails later.	192235234	1477117278667	1477117278758	NA	70
375215	4046959	I can fill you in on more details later.	I can fill you in on more deatails later.	192235235	1477117278773	1477117278838	NA	73
375215	4046959	I can fill you in on more details later.	I can fill you in on more deatails later.	192235236	1477117278933	1477117279009	NA	76
375215	4046959	I can fill you in on more details later.	I can fill you in on more deatails later.	192235237	1477117279057	1477117279126	NA	76
375215	4046959	I can fill you in on more details later.	I can fill you in on more deatails later.	192235253	1477117279279	1477117279405	NA	32
375215	4046959	I can fill you in on more details later.	I can fill you in on more deatails later.	192235254	1477117279978	1477117280063	NA	89
375215	4046959	I can fill you in on more details later.	I can fill you in on more deatails later.	192235255	1477117280098	1477117280186	NA	79
375215	4046959	I can fill you in on more details later.	I can fill you in on more deatails later.	192235256	1477117280189	1477117280250	NA	85
375215	4046959	I can fill you in on more details later.	I can fill you in on more deatails later.	192235257	1477117280292	1477117280389	NA	32
375215	4046959	I can fill you in on more details later.	I can fill you in on more deatails later.	192235286	1477117280441	1477117280599	NA	73
375215	4046959	I can fill you in on more details later.	I can fill you in on more deatails later.	192235287	1477117280551	1477117280647	NA	78
375215	4046959	I can fill you in on more details later.	I can fill you in on more deatails later.	192235288	1477117281551	1477117281667	NA	32
375215	4046959	I can fill you in on more details later.	I can fill you in on more deatails later.	192235289	1477117281724	1477117281863	NA	79
375215	4046959	I can fill you in on more details later.	I can fill you in on more deatails later.	192235313	1477117281822	1477117281900	NA	78
375215	4046959	I can fill you in on more details later.	I can fill you in on more deatails later.	192235315	1477117281999	1477117282061	NA	32
375215	4046959	I can fill you in on more details later.	I can fill you in on more deatails later.	192235317	1477117282163	1477117282295	NA	77
375215	4046959	I can fill you in on more details later.	I can fill you in on more deatails later.	192235319	1477117282258	1477117282361	NA	79
375215	4046959	I can fill you in on more details later.	I can fill you in on more deatails later.	192235322	1477117282407	1477117282555	NA	82
375215	4046959	I can fill you in on more details later.	I can fill you in on more deatails later.	192235364	1477117282529	1477117282639	NA	69
375215	4046959	I can fill you in on more details later.	I can fill you in on more deatails later.	192235367	1477117282734	1477117282822	NA	32
375215	4046959	I can fill you in on more details later.	I can fill you in on more deatails later.	192235370	1477117282958	1477117283075	NA	68
375215	4046959	I can fill you in on more details later.	I can fill you in on more deatails later.	192235374	1477117283114	1477117283299	NA	69
375215	4046959	I can fill you in on more details later.	I can fill you in on more deatails later.	192235377	1477117283229	1477117283331	NA	65
375215	4046959	I can fill you in on more details later.	I can fill you in on more deatails later.	192235378	1477117284508	1477117284572	NA	84
375215	4046959	I can fill you in on more details later.	I can fill you in on more deatails later.	192235385	1477117284659	1477117284757	NA	65
375215	4046959	I can fill you in on more details later.	I can fill you in on more deatails later.	192235386	1477117284791	1477117284871	NA	73
375215	4046959	I can fill you in on more details later.	I can fill you in on more deatails later.	192235388	1477117284977	1477117285055	NA	76
375215	4046959	I can fill you in on more details later.	I can fill you in on more deatails later.	192235391	1477117285125	1477117285232	NA	83
375215	4046959	I can fill you in on more details later.	I can fill you in on more deatails later.	192235409	1477117285222	1477117285292	NA	32
375215	4046959	I can fill you in on more details later.	I can fill you in on more deatails later.	192235410	1477117285417	1477117285508	NA	76
375215	4046959	I can fill you in on more details later.	I can fill you in on more deatails later.	192235411	1477117285882	1477117285985	NA	65
375215	4046959	I can fill you in on more details later.	I can fill you in on more deatails later.	192235412	1477117285998	1477117286090	NA	84
375215	4046959	I can fill you in on more details later.	I can fill you in on more deatails later.	192235413	1477117286112	1477117286246	NA	69
375215	4046959	I can fill you in on more details later.	I can fill you in on more deatails later.	192235431	1477117286205	1477117286302	NA	82
375215	4046959	I can fill you in on more details later.	I can fill you in on more deatails later.	192235434	1477117286644	1477117286736	NA	190
375215	4046965	Rookie Kevin Swayne will move into the starting lineup.	Rookie Kevin Swayne will move into the staring lineup.	192235532	1477117288617	1477117289146	SHIFT	16
375215	4046965	Rookie Kevin Swayne will move into the starting lineup.	Rookie Kevin Swayne will move into the staring lineup.	192235529	1477117289041	1477117289112	NA	82
375215	4046965	Rookie Kevin Swayne will move into the starting lineup.	Rookie Kevin Swayne will move into the staring lineup.	192235536	1477117289320	1477117289403	NA	79
375215	4046965	Rookie Kevin Swayne will move into the starting lineup.	Rookie Kevin Swayne will move into the staring lineup.	192235540	1477117289494	1477117289575	NA	79
375215	4046965	Rookie Kevin Swayne will move into the starting lineup.	Rookie Kevin Swayne will move into the staring lineup.	192235544	1477117289733	1477117289849	NA	75
375215	4046965	Rookie Kevin Swayne will move into the starting lineup.	Rookie Kevin Swayne will move into the staring lineup.	192235572	1477117289827	1477117289930	NA	73
375215	4046965	Rookie Kevin Swayne will move into the starting lineup.	Rookie Kevin Swayne will move into the staring lineup.	192235573	1477117290607	1477117290684	NA	69
375215	4046965	Rookie Kevin Swayne will move into the starting lineup.	Rookie Kevin Swayne will move into the staring lineup.	192235574	1477117290713	1477117290802	NA	32
375215	4046965	Rookie Kevin Swayne will move into the starting lineup.	Rookie Kevin Swayne will move into the staring lineup.	192235575	1477117290889	1477117291152	SHIFT	16
375215	4046965	Rookie Kevin Swayne will move into the starting lineup.	Rookie Kevin Swayne will move into the staring lineup.	192235576	1477117291072	1477117291161	NA	75
375215	4046965	Rookie Kevin Swayne will move into the starting lineup.	Rookie Kevin Swayne will move into the staring lineup.	192235577	1477117291387	1477117291472	NA	69
375215	4046965	Rookie Kevin Swayne will move into the starting lineup.	Rookie Kevin Swayne will move into the staring lineup.	192235578	1477117291658	1477117291735	NA	86
375215	4046965	Rookie Kevin Swayne will move into the starting lineup.	Rookie Kevin Swayne will move into the staring lineup.	192235633	1477117291827	1477117291987	NA	73
375215	4046965	Rookie Kevin Swayne will move into the starting lineup.	Rookie Kevin Swayne will move into the staring lineup.	192235636	1477117291926	1477117292034	NA	78
375215	4046965	Rookie Kevin Swayne will move into the starting lineup.	Rookie Kevin Swayne will move into the staring lineup.	192235638	1477117292489	1477117292612	NA	32
375215	4046965	Rookie Kevin Swayne will move into the starting lineup.	Rookie Kevin Swayne will move into the staring lineup.	192235640	1477117292804	1477117293239	SHIFT	16
375215	4046965	Rookie Kevin Swayne will move into the starting lineup.	Rookie Kevin Swayne will move into the staring lineup.	192235641	1477117293153	1477117293240	NA	83
375215	4046965	Rookie Kevin Swayne will move into the starting lineup.	Rookie Kevin Swayne will move into the staring lineup.	192235642	1477117293376	1477117293508	NA	87
375215	4046965	Rookie Kevin Swayne will move into the starting lineup.	Rookie Kevin Swayne will move into the staring lineup.	192235701	1477117293453	1477117293570	NA	65
375215	4046965	Rookie Kevin Swayne will move into the starting lineup.	Rookie Kevin Swayne will move into the staring lineup.	192235702	1477117293792	1477117293871	NA	89
375215	4046965	Rookie Kevin Swayne will move into the starting lineup.	Rookie Kevin Swayne will move into the staring lineup.	192235704	1477117294356	1477117294458	NA	78
375215	4046965	Rookie Kevin Swayne will move into the starting lineup.	Rookie Kevin Swayne will move into the staring lineup.	192235705	1477117294853	1477117294959	NA	69
375215	4046965	Rookie Kevin Swayne will move into the starting lineup.	Rookie Kevin Swayne will move into the staring lineup.	192235707	1477117295176	1477117295287	NA	32
375215	4046965	Rookie Kevin Swayne will move into the starting lineup.	Rookie Kevin Swayne will move into the staring lineup.	192235708	1477117295732	1477117295843	NA	87
375215	4046965	Rookie Kevin Swayne will move into the starting lineup.	Rookie Kevin Swayne will move into the staring lineup.	192235729	1477117295881	1477117295942	NA	73
375215	4046965	Rookie Kevin Swayne will move into the starting lineup.	Rookie Kevin Swayne will move into the staring lineup.	192235731	1477117296044	1477117296110	NA	76
375215	4046965	Rookie Kevin Swayne will move into the starting lineup.	Rookie Kevin Swayne will move into the staring lineup.	192235733	1477117296168	1477117296234	NA	76
375215	4046965	Rookie Kevin Swayne will move into the starting lineup.	Rookie Kevin Swayne will move into the staring lineup.	192235736	1477117296293	1477117296403	NA	32
375215	4046965	Rookie Kevin Swayne will move into the starting lineup.	Rookie Kevin Swayne will move into the staring lineup.	192235739	1477117296579	1477117296726	NA	77
375215	4046965	Rookie Kevin Swayne will move into the starting lineup.	Rookie Kevin Swayne will move into the staring lineup.	192235750	1477117296663	1477117296787	NA	79
375215	4046965	Rookie Kevin Swayne will move into the starting lineup.	Rookie Kevin Swayne will move into the staring lineup.	192235751	1477117296860	1477117296978	NA	86
375215	4046965	Rookie Kevin Swayne will move into the starting lineup.	Rookie Kevin Swayne will move into the staring lineup.	192235752	1477117296948	1477117297051	NA	69
375215	4046965	Rookie Kevin Swayne will move into the starting lineup.	Rookie Kevin Swayne will move into the staring lineup.	192235753	1477117297064	1477117297167	NA	32
375215	4046965	Rookie Kevin Swayne will move into the starting lineup.	Rookie Kevin Swayne will move into the staring lineup.	192235755	1477117297244	1477117297388	NA	73
375215	4046965	Rookie Kevin Swayne will move into the starting lineup.	Rookie Kevin Swayne will move into the staring lineup.	192235793	1477117297338	1477117297412	NA	78
375215	4046965	Rookie Kevin Swayne will move into the starting lineup.	Rookie Kevin Swayne will move into the staring lineup.	192235796	1477117297494	1477117297588	NA	84
375215	4046965	Rookie Kevin Swayne will move into the starting lineup.	Rookie Kevin Swayne will move into the staring lineup.	192235799	1477117297597	1477117297688	NA	79
375215	4046965	Rookie Kevin Swayne will move into the starting lineup.	Rookie Kevin Swayne will move into the staring lineup.	192235802	1477117298449	1477117298550	NA	32
375215	4046965	Rookie Kevin Swayne will move into the starting lineup.	Rookie Kevin Swayne will move into the staring lineup.	192235805	1477117298701	1477117298787	NA	84
375215	4046965	Rookie Kevin Swayne will move into the starting lineup.	Rookie Kevin Swayne will move into the staring lineup.	192235807	1477117298810	1477117298906	NA	72
375215	4046965	Rookie Kevin Swayne will move into the starting lineup.	Rookie Kevin Swayne will move into the staring lineup.	192235835	1477117298915	1477117298989	NA	69
375215	4046965	Rookie Kevin Swayne will move into the starting lineup.	Rookie Kevin Swayne will move into the staring lineup.	192235837	1477117299050	1477117299144	NA	32
375215	4046965	Rookie Kevin Swayne will move into the starting lineup.	Rookie Kevin Swayne will move into the staring lineup.	192235839	1477117299548	1477117299627	NA	83
375215	4046965	Rookie Kevin Swayne will move into the starting lineup.	Rookie Kevin Swayne will move into the staring lineup.	192235840	1477117299785	1477117299874	NA	84
375215	4046965	Rookie Kevin Swayne will move into the starting lineup.	Rookie Kevin Swayne will move into the staring lineup.	192235841	1477117299980	1477117300058	NA	65
375215	4046965	Rookie Kevin Swayne will move into the starting lineup.	Rookie Kevin Swayne will move into the staring lineup.	192235852	1477117300068	1477117300141	NA	82
375215	4046965	Rookie Kevin Swayne will move into the starting lineup.	Rookie Kevin Swayne will move into the staring lineup.	192235853	1477117300570	1477117300706	NA	73
375215	4046965	Rookie Kevin Swayne will move into the starting lineup.	Rookie Kevin Swayne will move into the staring lineup.	192235854	1477117300658	1477117300738	NA	78
375215	4046965	Rookie Kevin Swayne will move into the starting lineup.	Rookie Kevin Swayne will move into the staring lineup.	192235855	1477117300756	1477117300848	NA	71
375215	4046965	Rookie Kevin Swayne will move into the starting lineup.	Rookie Kevin Swayne will move into the staring lineup.	192235856	1477117300893	1477117300935	NA	77
375215	4046965	Rookie Kevin Swayne will move into the starting lineup.	Rookie Kevin Swayne will move into the staring lineup.	192235885	1477117301288	1477117301389		8
375215	4046965	Rookie Kevin Swayne will move into the starting lineup.	Rookie Kevin Swayne will move into the staring lineup.	192235887	1477117301786	1477117301897	NA	32
375215	4046965	Rookie Kevin Swayne will move into the starting lineup.	Rookie Kevin Swayne will move into the staring lineup.	192235888	1477117301949	1477117302033	NA	76
375215	4046965	Rookie Kevin Swayne will move into the starting lineup.	Rookie Kevin Swayne will move into the staring lineup.	192235889	1477117302113	1477117302229	NA	73
375215	4046965	Rookie Kevin Swayne will move into the starting lineup.	Rookie Kevin Swayne will move into the staring lineup.	192235890	1477117302273	1477117302347	NA	78
375215	4046965	Rookie Kevin Swayne will move into the starting lineup.	Rookie Kevin Swayne will move into the staring lineup.	192235925	1477117302531	1477117302596	NA	69
375215	4046965	Rookie Kevin Swayne will move into the starting lineup.	Rookie Kevin Swayne will move into the staring lineup.	192235926	1477117303752	1477117303838	NA	85
375215	4046965	Rookie Kevin Swayne will move into the starting lineup.	Rookie Kevin Swayne will move into the staring lineup.	192235927	1477117304258	1477117304322	NA	80
375215	4046965	Rookie Kevin Swayne will move into the starting lineup.	Rookie Kevin Swayne will move into the staring lineup.	192235928	1477117304283	1477117304325	NA	79
375215	4046965	Rookie Kevin Swayne will move into the starting lineup.	Rookie Kevin Swayne will move into the staring lineup.	192235930	1477117304818	1477117304889		8
375215	4046965	Rookie Kevin Swayne will move into the starting lineup.	Rookie Kevin Swayne will move into the staring lineup.	192235987	1477117305084	1477117305131		8
375215	4046965	Rookie Kevin Swayne will move into the starting lineup.	Rookie Kevin Swayne will move into the staring lineup.	192235989	1477117305740	1477117305801	NA	80
375215	4046965	Rookie Kevin Swayne will move into the starting lineup.	Rookie Kevin Swayne will move into the staring lineup.	192235993	1477117305935	1477117306003	NA	191
375215	4046965	Rookie Kevin Swayne will move into the starting lineup.	Rookie Kevin Swayne will move into the staring lineup.	192235996	1477117306355	1477117306440		8
375215	4046980	He is suffering from a strained left shoulder.	His suffering from a strained left shoulder.	192236102	1477117308363	1477117308841	SHIFT	16
375215	4046980	He is suffering from a strained left shoulder.	His suffering from a strained left shoulder.	192236101	1477117308686	1477117308784	NA	72
375215	4046980	He is suffering from a strained left shoulder.	His suffering from a strained left shoulder.	192236103	1477117308876	1477117308980	NA	73
375215	4046980	He is suffering from a strained left shoulder.	His suffering from a strained left shoulder.	192236104	1477117309028	1477117309110	NA	83
375215	4046980	He is suffering from a strained left shoulder.	His suffering from a strained left shoulder.	192236105	1477117309108	1477117309186	NA	32
375215	4046980	He is suffering from a strained left shoulder.	His suffering from a strained left shoulder.	192236106	1477117309374	1477117309461	NA	83
375215	4046980	He is suffering from a strained left shoulder.	His suffering from a strained left shoulder.	192236127	1477117309438	1477117309523	NA	85
375215	4046980	He is suffering from a strained left shoulder.	His suffering from a strained left shoulder.	192236128	1477117309690	1477117309753	NA	70
375215	4046980	He is suffering from a strained left shoulder.	His suffering from a strained left shoulder.	192236129	1477117309820	1477117309901	NA	70
375215	4046980	He is suffering from a strained left shoulder.	His suffering from a strained left shoulder.	192236130	1477117309902	1477117310024	NA	69
375215	4046980	He is suffering from a strained left shoulder.	His suffering from a strained left shoulder.	192236131	1477117309995	1477117310088	NA	82
375215	4046980	He is suffering from a strained left shoulder.	His suffering from a strained left shoulder.	192236132	1477117310105	1477117310240	NA	73
375215	4046980	He is suffering from a strained left shoulder.	His suffering from a strained left shoulder.	192236178	1477117310175	1477117310274	NA	78
375215	4046980	He is suffering from a strained left shoulder.	His suffering from a strained left shoulder.	192236180	1477117310401	1477117310500	NA	71
375215	4046980	He is suffering from a strained left shoulder.	His suffering from a strained left shoulder.	192236184	1477117311178	1477117311275	NA	32
375215	4046980	He is suffering from a strained left shoulder.	His suffering from a strained left shoulder.	192236190	1477117311558	1477117311680	NA	70
375215	4046980	He is suffering from a strained left shoulder.	His suffering from a strained left shoulder.	192236195	1477117311651	1477117311763	NA	82
375215	4046980	He is suffering from a strained left shoulder.	His suffering from a strained left shoulder.	192236201	1477117311793	1477117311947	NA	79
375215	4046980	He is suffering from a strained left shoulder.	His suffering from a strained left shoulder.	192236246	1477117311879	1477117311991	NA	77
375215	4046980	He is suffering from a strained left shoulder.	His suffering from a strained left shoulder.	192236247	1477117312078	1477117312217	NA	32
375215	4046980	He is suffering from a strained left shoulder.	His suffering from a strained left shoulder.	192236249	1477117312196	1477117312301	NA	65
375215	4046980	He is suffering from a strained left shoulder.	His suffering from a strained left shoulder.	192236251	1477117312335	1477117312450	NA	32
375215	4046980	He is suffering from a strained left shoulder.	His suffering from a strained left shoulder.	192236252	1477117312886	1477117312976	NA	83
375215	4046980	He is suffering from a strained left shoulder.	His suffering from a strained left shoulder.	192236253	1477117313003	1477117313082	NA	84
375215	4046980	He is suffering from a strained left shoulder.	His suffering from a strained left shoulder.	192236279	1477117313156	1477117313227	NA	82
375215	4046980	He is suffering from a strained left shoulder.	His suffering from a strained left shoulder.	192236283	1477117313437	1477117313537	NA	65
375215	4046980	He is suffering from a strained left shoulder.	His suffering from a strained left shoulder.	192236287	1477117313613	1477117313736	NA	73
375215	4046980	He is suffering from a strained left shoulder.	His suffering from a strained left shoulder.	192236291	1477117313722	1477117313803	NA	78
375215	4046980	He is suffering from a strained left shoulder.	His suffering from a strained left shoulder.	192236295	1477117313947	1477117314051	NA	69
375215	4046980	He is suffering from a strained left shoulder.	His suffering from a strained left shoulder.	192236379	1477117314043	1477117314149	NA	68
375215	4046980	He is suffering from a strained left shoulder.	His suffering from a strained left shoulder.	192236382	1477117315250	1477117315360	NA	32
375215	4046980	He is suffering from a strained left shoulder.	His suffering from a strained left shoulder.	192236384	1477117315485	1477117315569	NA	76
375215	4046980	He is suffering from a strained left shoulder.	His suffering from a strained left shoulder.	192236386	1477117315655	1477117315751	NA	69
375215	4046980	He is suffering from a strained left shoulder.	His suffering from a strained left shoulder.	192236388	1477117315812	1477117315894	NA	70
375215	4046980	He is suffering from a strained left shoulder.	His suffering from a strained left shoulder.	192236390	1477117315974	1477117316050	NA	84
375215	4046980	He is suffering from a strained left shoulder.	His suffering from a strained left shoulder.	192236420	1477117316155	1477117316249	NA	32
375215	4046980	He is suffering from a strained left shoulder.	His suffering from a strained left shoulder.	192236422	1477117316342	1477117316431	NA	83
375215	4046980	He is suffering from a strained left shoulder.	His suffering from a strained left shoulder.	192236423	1477117316427	1477117316521	NA	72
375215	4046980	He is suffering from a strained left shoulder.	His suffering from a strained left shoulder.	192236424	1477117316631	1477117316719	NA	79
375215	4046980	He is suffering from a strained left shoulder.	His suffering from a strained left shoulder.	192236425	1477117316768	1477117316837	NA	85
375215	4046980	He is suffering from a strained left shoulder.	His suffering from a strained left shoulder.	192236438	1477117316964	1477117317057	NA	76
375215	4046980	He is suffering from a strained left shoulder.	His suffering from a strained left shoulder.	192236440	1477117317104	1477117317204	NA	68
375215	4046980	He is suffering from a strained left shoulder.	His suffering from a strained left shoulder.	192236442	1477117317214	1477117317342	NA	69
375215	4046980	He is suffering from a strained left shoulder.	His suffering from a strained left shoulder.	192236444	1477117317313	1477117317405	NA	82
375215	4046986	We haven't sold the US business as yet.	We haven't sold the US business as yet.	192236559	1477117319348	1477117319840	SHIFT	16
375215	4046986	We haven't sold the US business as yet.	We haven't sold the US business as yet.	192236557	1477117319735	1477117319819	NA	87
375215	4046986	We haven't sold the US business as yet.	We haven't sold the US business as yet.	192236561	1477117321386	1477117321462	NA	69
375215	4046986	We haven't sold the US business as yet.	We haven't sold the US business as yet.	192236563	1477117321506	1477117321608	NA	32
375215	4046986	We haven't sold the US business as yet.	We haven't sold the US business as yet.	192236564	1477117321746	1477117321820	NA	72
375215	4046986	We haven't sold the US business as yet.	We haven't sold the US business as yet.	192236566	1477117321961	1477117322054	NA	65
375215	4046986	We haven't sold the US business as yet.	We haven't sold the US business as yet.	192236627	1477117322755	1477117322862	NA	78
375215	4046986	We haven't sold the US business as yet.	We haven't sold the US business as yet.	192236629	1477117322950	1477117323048	NA	69
375215	4046986	We haven't sold the US business as yet.	We haven't sold the US business as yet.	192236630	1477117323679	1477117323764		8
375215	4046986	We haven't sold the US business as yet.	We haven't sold the US business as yet.	192236631	1477117324031	1477117324073		8
375215	4046986	We haven't sold the US business as yet.	We haven't sold the US business as yet.	192236632	1477117324252	1477117324339		8
375215	4046986	We haven't sold the US business as yet.	We haven't sold the US business as yet.	192236769	1477117325062	1477117325160	NA	65
375215	4046986	We haven't sold the US business as yet.	We haven't sold the US business as yet.	192236771	1477117325275	1477117325346	NA	86
375215	4046986	We haven't sold the US business as yet.	We haven't sold the US business as yet.	192236775	1477117325458	1477117325546	NA	69
375215	4046986	We haven't sold the US business as yet.	We haven't sold the US business as yet.	192236779	1477117326362	1477117326475	NA	78
375215	4046986	We haven't sold the US business as yet.	We haven't sold the US business as yet.	192236782	1477117327976	1477117328050	NA	188
375215	4046986	We haven't sold the US business as yet.	We haven't sold the US business as yet.	192236863	1477117328982	1477117329108		8
375215	4046986	We haven't sold the US business as yet.	We haven't sold the US business as yet.	192236866	1477117329385	1477117329440	NA	222
375215	4046986	We haven't sold the US business as yet.	We haven't sold the US business as yet.	192236868	1477117330613	1477117330681	NA	84
375215	4046986	We haven't sold the US business as yet.	We haven't sold the US business as yet.	192236871	1477117330771	1477117330837	NA	32
375215	4046986	We haven't sold the US business as yet.	We haven't sold the US business as yet.	192236875	1477117331097	1477117331178	NA	83
375215	4046986	We haven't sold the US business as yet.	We haven't sold the US business as yet.	192236911	1477117331190	1477117331327	NA	79
375215	4046986	We haven't sold the US business as yet.	We haven't sold the US business as yet.	192236913	1477117331281	1477117331340	NA	76
375215	4046986	We haven't sold the US business as yet.	We haven't sold the US business as yet.	192236914	1477117331389	1477117331480	NA	68
375215	4046986	We haven't sold the US business as yet.	We haven't sold the US business as yet.	192236915	1477117331519	1477117331627	NA	32
375215	4046986	We haven't sold the US business as yet.	We haven't sold the US business as yet.	192236917	1477117332291	1477117332351	NA	84
375215	4046986	We haven't sold the US business as yet.	We haven't sold the US business as yet.	192236942	1477117332387	1477117332462	NA	72
375215	4046986	We haven't sold the US business as yet.	We haven't sold the US business as yet.	192236946	1477117332517	1477117332611	NA	69
375215	4046986	We haven't sold the US business as yet.	We haven't sold the US business as yet.	192236952	1477117332621	1477117332711	NA	32
375215	4046986	We haven't sold the US business as yet.	We haven't sold the US business as yet.	192236955	1477117332860	1477117332949	NA	85
375215	4046986	We haven't sold the US business as yet.	We haven't sold the US business as yet.	192236960	1477117332996	1477117333122	NA	83
375215	4046986	We haven't sold the US business as yet.	We haven't sold the US business as yet.	192237012	1477117333143	1477117333245	NA	32
375215	4046986	We haven't sold the US business as yet.	We haven't sold the US business as yet.	192237015	1477117333925	1477117333995		8
375215	4046986	We haven't sold the US business as yet.	We haven't sold the US business as yet.	192237017	1477117334057	1477117334124		8
375215	4046986	We haven't sold the US business as yet.	We haven't sold the US business as yet.	192237018	1477117334510	1477117334552		8
375215	4046986	We haven't sold the US business as yet.	We haven't sold the US business as yet.	192237052	1477117334749	1477117335702	SHIFT	16
375215	4046986	We haven't sold the US business as yet.	We haven't sold the US business as yet.	192237019	1477117335097	1477117335187	NA	85
375215	4046986	We haven't sold the US business as yet.	We haven't sold the US business as yet.	192237050	1477117335453	1477117335591	NA	83
375215	4046986	We haven't sold the US business as yet.	We haven't sold the US business as yet.	192237054	1477117335781	1477117335862	NA	32
375215	4046986	We haven't sold the US business as yet.	We haven't sold the US business as yet.	192237055	1477117335987	1477117336095	NA	66
375215	4046986	We haven't sold the US business as yet.	We haven't sold the US business as yet.	192237056	1477117336122	1477117336235	NA	85
375215	4046986	We haven't sold the US business as yet.	We haven't sold the US business as yet.	192237057	1477117336681	1477117336776	NA	73
375215	4046986	We haven't sold the US business as yet.	We haven't sold the US business as yet.	192237168	1477117338727	1477117338781		8
375215	4046986	We haven't sold the US business as yet.	We haven't sold the US business as yet.	192237172	1477117339125	1477117339226	NA	83
375215	4046986	We haven't sold the US business as yet.	We haven't sold the US business as yet.	192237176	1477117339235	1477117339384	NA	73
375215	4046986	We haven't sold the US business as yet.	We haven't sold the US business as yet.	192237179	1477117339347	1477117339444	NA	78
375215	4046986	We haven't sold the US business as yet.	We haven't sold the US business as yet.	192237181	1477117339564	1477117339634	NA	69
375215	4046986	We haven't sold the US business as yet.	We haven't sold the US business as yet.	192237226	1477117339679	1477117339740	NA	69
375215	4046986	We haven't sold the US business as yet.	We haven't sold the US business as yet.	192237227	1477117340074	1477117340167	NA	61
375215	4046986	We haven't sold the US business as yet.	We haven't sold the US business as yet.	192237228	1477117340493	1477117340571		8
375215	4046986	We haven't sold the US business as yet.	We haven't sold the US business as yet.	192237230	1477117340639	1477117340723		8
375215	4046986	We haven't sold the US business as yet.	We haven't sold the US business as yet.	192237232	1477117341082	1477117341128	NA	83
375215	4046986	We haven't sold the US business as yet.	We haven't sold the US business as yet.	192237266	1477117341187	1477117341273	NA	83
375215	4046986	We haven't sold the US business as yet.	We haven't sold the US business as yet.	192237268	1477117341438	1477117341531	NA	32
375215	4046986	We haven't sold the US business as yet.	We haven't sold the US business as yet.	192237270	1477117341923	1477117342010	NA	65
375215	4046986	We haven't sold the US business as yet.	We haven't sold the US business as yet.	192237274	1477117342048	1477117342178	NA	83
375215	4046986	We haven't sold the US business as yet.	We haven't sold the US business as yet.	192237277	1477117342221	1477117342313	NA	32
375215	4046986	We haven't sold the US business as yet.	We haven't sold the US business as yet.	192237316	1477117342498	1477117342594	NA	89
375215	4046986	We haven't sold the US business as yet.	We haven't sold the US business as yet.	192237318	1477117342614	1477117342713	NA	69
375215	4046986	We haven't sold the US business as yet.	We haven't sold the US business as yet.	192237322	1477117342753	1477117342824	NA	84
375215	4047003	Reserve Heap on your roster this week.	Reserver Heap on your roster this week	192237412	1477117345190	1477117345639	SHIFT	16
375215	4047003	Reserve Heap on your roster this week.	Reserver Heap on your roster this week	192237411	1477117345547	1477117345632	NA	82
375215	4047003	Reserve Heap on your roster this week.	Reserver Heap on your roster this week	192237413	1477117345745	1477117345823	NA	69
375215	4047003	Reserve Heap on your roster this week.	Reserver Heap on your roster this week	192237415	1477117345875	1477117345987	NA	83
375215	4047003	Reserve Heap on your roster this week.	Reserver Heap on your roster this week	192237417	1477117346134	1477117346216	NA	69
375215	4047003	Reserve Heap on your roster this week.	Reserver Heap on your roster this week	192237419	1477117346234	1477117346380	NA	82
375215	4047003	Reserve Heap on your roster this week.	Reserver Heap on your roster this week	192237449	1477117346342	1477117346454	NA	86
375215	4047003	Reserve Heap on your roster this week.	Reserver Heap on your roster this week	192237451	1477117346443	1477117346580	NA	69
375215	4047003	Reserve Heap on your roster this week.	Reserver Heap on your roster this week	192237454	1477117346518	1477117346643	NA	82
375215	4047003	Reserve Heap on your roster this week.	Reserver Heap on your roster this week	192237458	1477117346701	1477117346805	NA	32
375215	4047003	Reserve Heap on your roster this week.	Reserver Heap on your roster this week	192237465	1477117346883	1477117347313	SHIFT	16
375215	4047003	Reserve Heap on your roster this week.	Reserver Heap on your roster this week	192237461	1477117347128	1477117347204	NA	72
375215	4047003	Reserve Heap on your roster this week.	Reserver Heap on your roster this week	192237469	1477117347450	1477117347564	NA	69
375215	4047003	Reserve Heap on your roster this week.	Reserver Heap on your roster this week	192237509	1477117347499	1477117347612	NA	65
375215	4047003	Reserve Heap on your roster this week.	Reserver Heap on your roster this week	192237511	1477117347646	1477117347748	NA	80
375215	4047003	Reserve Heap on your roster this week.	Reserver Heap on your roster this week	192237514	1477117348315	1477117348430	NA	32
375215	4047003	Reserve Heap on your roster this week.	Reserver Heap on your roster this week	192237517	1477117348453	1477117348603	NA	79
375215	4047003	Reserve Heap on your roster this week.	Reserver Heap on your roster this week	192237520	1477117348542	1477117348647	NA	78
375215	4047003	Reserve Heap on your roster this week.	Reserver Heap on your roster this week	192237622	1477117348633	1477117348772	NA	32
375215	4047003	Reserve Heap on your roster this week.	Reserver Heap on your roster this week	192237626	1477117348927	1477117349026	NA	89
375215	4047003	Reserve Heap on your roster this week.	Reserver Heap on your roster this week	192237628	1477117349021	1477117349122	NA	79
375215	4047003	Reserve Heap on your roster this week.	Reserver Heap on your roster this week	192237630	1477117349136	1477117349207	NA	85
375215	4047003	Reserve Heap on your roster this week.	Reserver Heap on your roster this week	192237632	1477117350003	1477117350114	NA	82
375215	4047003	Reserve Heap on your roster this week.	Reserver Heap on your roster this week	192237635	1477117350488	1477117350619	NA	32
375215	4047003	Reserve Heap on your roster this week.	Reserver Heap on your roster this week	192237663	1477117350741	1477117350805	NA	82
375215	4047003	Reserve Heap on your roster this week.	Reserver Heap on your roster this week	192237665	1477117351133	1477117351224	NA	79
375215	4047003	Reserve Heap on your roster this week.	Reserver Heap on your roster this week	192237666	1477117351281	1477117351358	NA	83
375215	4047003	Reserve Heap on your roster this week.	Reserver Heap on your roster this week	192237669	1477117351543	1477117351628	NA	84
375215	4047003	Reserve Heap on your roster this week.	Reserver Heap on your roster this week	192237670	1477117351665	1477117351797	NA	69
375215	4047003	Reserve Heap on your roster this week.	Reserver Heap on your roster this week	192237696	1477117351748	1477117351866	NA	82
375215	4047003	Reserve Heap on your roster this week.	Reserver Heap on your roster this week	192237700	1477117352043	1477117352143	NA	32
375215	4047003	Reserve Heap on your roster this week.	Reserver Heap on your roster this week	192237703	1477117352312	1477117352396	NA	84
375215	4047003	Reserve Heap on your roster this week.	Reserver Heap on your roster this week	192237706	1477117352420	1477117352554	NA	72
375215	4047003	Reserve Heap on your roster this week.	Reserver Heap on your roster this week	192237708	1477117352527	1477117352653	NA	73
375215	4047003	Reserve Heap on your roster this week.	Reserver Heap on your roster this week	192237709	1477117352669	1477117352762	NA	83
375215	4047003	Reserve Heap on your roster this week.	Reserver Heap on your roster this week	192237731	1477117352784	1477117352880	NA	32
375215	4047003	Reserve Heap on your roster this week.	Reserver Heap on your roster this week	192237732	1477117352920	1477117352970	NA	69
375215	4047003	Reserve Heap on your roster this week.	Reserver Heap on your roster this week	192237733	1477117353245	1477117353337		8
375215	4047003	Reserve Heap on your roster this week.	Reserver Heap on your roster this week	192237734	1477117353367	1477117353472	NA	87
375215	4047003	Reserve Heap on your roster this week.	Reserver Heap on your roster this week	192237750	1477117353448	1477117353522	NA	69
375215	4047003	Reserve Heap on your roster this week.	Reserver Heap on your roster this week	192237753	1477117353575	1477117353668	NA	69
375215	4047003	Reserve Heap on your roster this week.	Reserver Heap on your roster this week	192237757	1477117353923	1477117353972	NA	75
375215	4047014	What number should he call you on?	What number should he call you on?	192237870	1477117355622	1477117356056	SHIFT	16
375215	4047014	What number should he call you on?	What number should he call you on?	192237872	1477117355965	1477117356065	NA	87
375215	4047014	What number should he call you on?	What number should he call you on?	192237874	1477117356133	1477117356233	NA	72
375215	4047014	What number should he call you on?	What number should he call you on?	192237876	1477117356248	1477117356341	NA	65
375215	4047014	What number should he call you on?	What number should he call you on?	192237879	1477117356344	1477117356418	NA	84
375215	4047014	What number should he call you on?	What number should he call you on?	192237884	1477117356501	1477117356593	NA	32
375215	4047014	What number should he call you on?	What number should he call you on?	192237965	1477117357076	1477117357183	NA	78
375215	4047014	What number should he call you on?	What number should he call you on?	192237966	1477117357171	1477117357285	NA	73
375215	4047014	What number should he call you on?	What number should he call you on?	192237967	1477117357545	1477117357630		8
375215	4047014	What number should he call you on?	What number should he call you on?	192237968	1477117357805	1477117357951	NA	85
375215	4047014	What number should he call you on?	What number should he call you on?	192237969	1477117358616	1477117358685	NA	77
375215	4047014	What number should he call you on?	What number should he call you on?	192238025	1477117358847	1477117358931	NA	66
375215	4047014	What number should he call you on?	What number should he call you on?	192238027	1477117358955	1477117359117	NA	69
375215	4047014	What number should he call you on?	What number should he call you on?	192238029	1477117359041	1477117359148	NA	82
375215	4047014	What number should he call you on?	What number should he call you on?	192238030	1477117359206	1477117359293	NA	32
375215	4047014	What number should he call you on?	What number should he call you on?	192238034	1477117359989	1477117360091	NA	83
375215	4047014	What number should he call you on?	What number should he call you on?	192238072	1477117360088	1477117360163	NA	72
375215	4047014	What number should he call you on?	What number should he call you on?	192238076	1477117360250	1477117360381	NA	79
375215	4047014	What number should he call you on?	What number should he call you on?	192238080	1477117360367	1477117360437	NA	85
375215	4047014	What number should he call you on?	What number should he call you on?	192238084	1477117360667	1477117360756	NA	76
375215	4047014	What number should he call you on?	What number should he call you on?	192238085	1477117360806	1477117360898	NA	68
375215	4047014	What number should he call you on?	What number should he call you on?	192238088	1477117360982	1477117361064	NA	32
375215	4047014	What number should he call you on?	What number should he call you on?	192238126	1477117361730	1477117361817	NA	72
375215	4047014	What number should he call you on?	What number should he call you on?	192238128	1477117361842	1477117361945	NA	69
375215	4047014	What number should he call you on?	What number should he call you on?	192238131	1477117361956	1477117362047	NA	32
375215	4047014	What number should he call you on?	What number should he call you on?	192238134	1477117362174	1477117362278	NA	67
375215	4047014	What number should he call you on?	What number should he call you on?	192238153	1477117362266	1477117362378	NA	65
375215	4047014	What number should he call you on?	What number should he call you on?	192238154	1477117362353	1477117362422	NA	76
375215	4047014	What number should he call you on?	What number should he call you on?	192238155	1477117362495	1477117362579	NA	76
375215	4047014	What number should he call you on?	What number should he call you on?	192238156	1477117362904	1477117363034	NA	32
375215	4047014	What number should he call you on?	What number should he call you on?	192238157	1477117363239	1477117363331	NA	84
375215	4047014	What number should he call you on?	What number should he call you on?	192238158	1477117363361	1477117363458	NA	79
375215	4047014	What number should he call you on?	What number should he call you on?	192238183	1477117363696	1477117363762		8
375215	4047014	What number should he call you on?	What number should he call you on?	192238186	1477117363821	1477117363903		8
375215	4047014	What number should he call you on?	What number should he call you on?	192238189	1477117364411	1477117364524	NA	89
375215	4047014	What number should he call you on?	What number should he call you on?	192238194	1477117364537	1477117364632	NA	79
375215	4047014	What number should he call you on?	What number should he call you on?	192238199	1477117364781	1477117364884	NA	85
375215	4047014	What number should he call you on?	What number should he call you on?	192238255	1477117364994	1477117365104	NA	32
375215	4047014	What number should he call you on?	What number should he call you on?	192238260	1477117365167	1477117365319	NA	79
375215	4047014	What number should he call you on?	What number should he call you on?	192238264	1477117365244	1477117365332	NA	78
375215	4047014	What number should he call you on?	What number should he call you on?	192238269	1477117365417	1477117365575	SHIFT	16
375215	4047014	What number should he call you on?	What number should he call you on?	192238273	1477117365729	1477117365781	NA	191
375215	4047014	What number should he call you on?	What number should he call you on?	192238277	1477117366352	1477117366415		8
375215	4047025	I agreed terms with Greg.	I agreed terams with Greg	192238400	1477117366517	1477117368563	SHIFT	16
375215	4047025	I agreed terms with Greg.	I agreed terams with Greg	192238398	1477117368439	1477117368520	NA	73
375215	4047025	I agreed terms with Greg.	I agreed terams with Greg	192238403	1477117368627	1477117368718	NA	32
375215	4047025	I agreed terms with Greg.	I agreed terams with Greg	192238406	1477117369660	1477117369762	NA	65
375215	4047025	I agreed terms with Greg.	I agreed terams with Greg	192238409	1477117369776	1477117369862	NA	71
375215	4047025	I agreed terms with Greg.	I agreed terams with Greg	192238411	1477117369993	1477117370057	NA	82
375215	4047025	I agreed terms with Greg.	I agreed terams with Greg	192238466	1477117370449	1477117370500	NA	69
375215	4047025	I agreed terms with Greg.	I agreed terams with Greg	192238468	1477117370580	1477117370694	NA	69
375215	4047025	I agreed terms with Greg.	I agreed terams with Greg	192238471	1477117370686	1477117370794	NA	68
375215	4047025	I agreed terms with Greg.	I agreed terams with Greg	192238475	1477117371088	1477117371181	NA	32
375215	4047025	I agreed terms with Greg.	I agreed terams with Greg	192238480	1477117371384	1477117371459	NA	84
375215	4047025	I agreed terms with Greg.	I agreed terams with Greg	192238518	1477117371592	1477117371713	NA	69
375215	4047025	I agreed terms with Greg.	I agreed terams with Greg	192238522	1477117371775	1477117371926	NA	82
375215	4047025	I agreed terms with Greg.	I agreed terams with Greg	192238527	1477117371930	1477117372046	NA	65
375215	4047025	I agreed terms with Greg.	I agreed terams with Greg	192238531	1477117372062	1477117372171	NA	77
375215	4047025	I agreed terms with Greg.	I agreed terams with Greg	192238535	1477117372189	1477117372292	NA	83
375215	4047025	I agreed terms with Greg.	I agreed terams with Greg	192238593	1477117372495	1477117372594	NA	32
375215	4047025	I agreed terms with Greg.	I agreed terams with Greg	192238597	1477117373004	1477117373105	NA	87
375215	4047025	I agreed terms with Greg.	I agreed terams with Greg	192238600	1477117373156	1477117373264	NA	73
375215	4047025	I agreed terms with Greg.	I agreed terams with Greg	192238603	1477117373356	1477117373451	NA	84
375215	4047025	I agreed terms with Greg.	I agreed terams with Greg	192238607	1477117373477	1477117373566	NA	72
375215	4047025	I agreed terms with Greg.	I agreed terams with Greg	192238644	1477117373657	1477117373753	NA	32
375215	4047025	I agreed terms with Greg.	I agreed terams with Greg	192238651	1477117373809	1477117374071	SHIFT	16
375215	4047025	I agreed terms with Greg.	I agreed terams with Greg	192238646	1477117373922	1477117374020	NA	71
375215	4047025	I agreed terms with Greg.	I agreed terams with Greg	192238655	1477117374140	1477117374229	NA	82
375215	4047025	I agreed terms with Greg.	I agreed terams with Greg	192238660	1477117374299	1477117374425	NA	69
375215	4047025	I agreed terms with Greg.	I agreed terams with Greg	192238664	1477117374443	1477117374513	NA	71
375215	4047062	Chase back office and their restart plan updates individually.	Chase back office and their restart plan upadtas individually.	192240053	1477117402070	1477117402477	SHIFT	16
375215	4047062	Chase back office and their restart plan updates individually.	Chase back office and their restart plan upadtas individually.	192240058	1477117402385	1477117402480	NA	67
375215	4047062	Chase back office and their restart plan updates individually.	Chase back office and their restart plan upadtas individually.	192240061	1477117402565	1477117402658	NA	72
375215	4047062	Chase back office and their restart plan updates individually.	Chase back office and their restart plan upadtas individually.	192240065	1477117402670	1477117402858	NA	65
375215	4047062	Chase back office and their restart plan updates individually.	Chase back office and their restart plan upadtas individually.	192240067	1477117402955	1477117403062	NA	83
375215	4047062	Chase back office and their restart plan updates individually.	Chase back office and their restart plan upadtas individually.	192240070	1477117403144	1477117403239	NA	69
375215	4047062	Chase back office and their restart plan updates individually.	Chase back office and their restart plan upadtas individually.	192240111	1477117403313	1477117403412	NA	32
375215	4047062	Chase back office and their restart plan updates individually.	Chase back office and their restart plan upadtas individually.	192240113	1477117403762	1477117403858	NA	66
375215	4047062	Chase back office and their restart plan updates individually.	Chase back office and their restart plan upadtas individually.	192240115	1477117403916	1477117404038	NA	65
375215	4047062	Chase back office and their restart plan updates individually.	Chase back office and their restart plan upadtas individually.	192240117	1477117404080	1477117404213	NA	67
375215	4047062	Chase back office and their restart plan updates individually.	Chase back office and their restart plan upadtas individually.	192240121	1477117404267	1477117404373	NA	75
375215	4047062	Chase back office and their restart plan updates individually.	Chase back office and their restart plan upadtas individually.	192240183	1477117404846	1477117405005	NA	32
375215	4047062	Chase back office and their restart plan updates individually.	Chase back office and their restart plan upadtas individually.	192240185	1477117405223	1477117405296	NA	79
375215	4047062	Chase back office and their restart plan updates individually.	Chase back office and their restart plan upadtas individually.	192240188	1477117405466	1477117405536	NA	70
375215	4047062	Chase back office and their restart plan updates individually.	Chase back office and their restart plan upadtas individually.	192240190	1477117405609	1477117405672	NA	70
375215	4047062	Chase back office and their restart plan updates individually.	Chase back office and their restart plan upadtas individually.	192240193	1477117405751	1477117405839	NA	73
375215	4047062	Chase back office and their restart plan updates individually.	Chase back office and their restart plan upadtas individually.	192240248	1477117405978	1477117406117	NA	67
375215	4047062	Chase back office and their restart plan updates individually.	Chase back office and their restart plan upadtas individually.	192240252	1477117406140	1477117406256	NA	69
375215	4047062	Chase back office and their restart plan updates individually.	Chase back office and their restart plan upadtas individually.	192240255	1477117406452	1477117406520	NA	32
375215	4047062	Chase back office and their restart plan updates individually.	Chase back office and their restart plan upadtas individually.	192240257	1477117406689	1477117406792	NA	65
375215	4047062	Chase back office and their restart plan updates individually.	Chase back office and their restart plan upadtas individually.	192240262	1477117406852	1477117406941	NA	78
375215	4047062	Chase back office and their restart plan updates individually.	Chase back office and their restart plan upadtas individually.	192240305	1477117407019	1477117407115	NA	68
375215	4047062	Chase back office and their restart plan updates individually.	Chase back office and their restart plan upadtas individually.	192240308	1477117407138	1477117407233	NA	32
375215	4047062	Chase back office and their restart plan updates individually.	Chase back office and their restart plan upadtas individually.	192240310	1477117407314	1477117407401	NA	84
375215	4047062	Chase back office and their restart plan updates individually.	Chase back office and their restart plan upadtas individually.	192240312	1477117407427	1477117407501	NA	72
375215	4047062	Chase back office and their restart plan updates individually.	Chase back office and their restart plan upadtas individually.	192240315	1477117407815	1477117407904	NA	69
375215	4047062	Chase back office and their restart plan updates individually.	Chase back office and their restart plan upadtas individually.	192240422	1477117407986	1477117408090	NA	73
375215	4047062	Chase back office and their restart plan updates individually.	Chase back office and their restart plan upadtas individually.	192240424	1477117408124	1477117408239	NA	82
375215	4047062	Chase back office and their restart plan updates individually.	Chase back office and their restart plan upadtas individually.	192240428	1477117408829	1477117408942	NA	32
375215	4047062	Chase back office and their restart plan updates individually.	Chase back office and their restart plan upadtas individually.	192240434	1477117409280	1477117409373	NA	82
375215	4047062	Chase back office and their restart plan updates individually.	Chase back office and their restart plan upadtas individually.	192240573	1477117409339	1477117409410	NA	69
375215	4047062	Chase back office and their restart plan updates individually.	Chase back office and their restart plan upadtas individually.	192240575	1477117409491	1477117409600	NA	83
375215	4047062	Chase back office and their restart plan updates individually.	Chase back office and their restart plan upadtas individually.	192240577	1477117409837	1477117409931	NA	84
375215	4047062	Chase back office and their restart plan updates individually.	Chase back office and their restart plan upadtas individually.	192240581	1477117409996	1477117410041	NA	65
375215	4047062	Chase back office and their restart plan updates individually.	Chase back office and their restart plan upadtas individually.	192240586	1477117411269	1477117411420	NA	82
375215	4047062	Chase back office and their restart plan updates individually.	Chase back office and their restart plan upadtas individually.	192240658	1477117411364	1477117411473	NA	84
375215	4047062	Chase back office and their restart plan updates individually.	Chase back office and their restart plan upadtas individually.	192240664	1477117411693	1477117411819	NA	32
375215	4047062	Chase back office and their restart plan updates individually.	Chase back office and their restart plan upadtas individually.	192240668	1477117412034	1477117412171	NA	80
375215	4047062	Chase back office and their restart plan updates individually.	Chase back office and their restart plan upadtas individually.	192240673	1477117412118	1477117412223	NA	76
375215	4047062	Chase back office and their restart plan updates individually.	Chase back office and their restart plan upadtas individually.	192240676	1477117412212	1477117412313	NA	65
375215	4047062	Chase back office and their restart plan updates individually.	Chase back office and their restart plan upadtas individually.	192240678	1477117412456	1477117412542	NA	78
375215	4047062	Chase back office and their restart plan updates individually.	Chase back office and their restart plan upadtas individually.	192240781	1477117412954	1477117413074	NA	32
375215	4047062	Chase back office and their restart plan updates individually.	Chase back office and their restart plan upadtas individually.	192240786	1477117413718	1477117413820	NA	85
375215	4047062	Chase back office and their restart plan updates individually.	Chase back office and their restart plan upadtas individually.	192240790	1477117413817	1477117413975	NA	80
375215	4047062	Chase back office and their restart plan updates individually.	Chase back office and their restart plan upadtas individually.	192240792	1477117414005	1477117414121	NA	65
375215	4047062	Chase back office and their restart plan updates individually.	Chase back office and their restart plan upadtas individually.	192240796	1477117414739	1477117414851	NA	68
375215	4047062	Chase back office and their restart plan updates individually.	Chase back office and their restart plan upadtas individually.	192240891	1477117414924	1477117414993	NA	84
375215	4047062	Chase back office and their restart plan updates individually.	Chase back office and their restart plan upadtas individually.	192240894	1477117415000	1477117415167	NA	65
375215	4047062	Chase back office and their restart plan updates individually.	Chase back office and their restart plan upadtas individually.	192240897	1477117415140	1477117415267	NA	83
375215	4047062	Chase back office and their restart plan updates individually.	Chase back office and their restart plan upadtas individually.	192240900	1477117415306	1477117415439	NA	32
375215	4047062	Chase back office and their restart plan updates individually.	Chase back office and their restart plan upadtas individually.	192240902	1477117416679	1477117416810	NA	73
375215	4047062	Chase back office and their restart plan updates individually.	Chase back office and their restart plan upadtas individually.	192241086	1477117416761	1477117416838	NA	78
375215	4047062	Chase back office and their restart plan updates individually.	Chase back office and their restart plan upadtas individually.	192241088	1477117417383	1477117417472	NA	68
375215	4047062	Chase back office and their restart plan updates individually.	Chase back office and their restart plan upadtas individually.	192241093	1477117417506	1477117417593	NA	73
375215	4047062	Chase back office and their restart plan updates individually.	Chase back office and their restart plan upadtas individually.	192241097	1477117417728	1477117417820	NA	86
375215	4047062	Chase back office and their restart plan updates individually.	Chase back office and their restart plan upadtas individually.	192241103	1477117418325	1477117418389	NA	73
375215	4047062	Chase back office and their restart plan updates individually.	Chase back office and their restart plan upadtas individually.	192241109	1477117420277	1477117420365	NA	68
375215	4047062	Chase back office and their restart plan updates individually.	Chase back office and their restart plan upadtas individually.	192241128	1477117420391	1477117420459	NA	85
375215	4047062	Chase back office and their restart plan updates individually.	Chase back office and their restart plan upadtas individually.	192241130	1477117420491	1477117420595	NA	65
375215	4047062	Chase back office and their restart plan updates individually.	Chase back office and their restart plan upadtas individually.	192241135	1477117420639	1477117420693	NA	76
375215	4047062	Chase back office and their restart plan updates individually.	Chase back office and their restart plan upadtas individually.	192241139	1477117420764	1477117420841	NA	76
375215	4047062	Chase back office and their restart plan updates individually.	Chase back office and their restart plan upadtas individually.	192241142	1477117420917	1477117421041	NA	89
375215	4047062	Chase back office and their restart plan updates individually.	Chase back office and their restart plan upadtas individually.	192241193	1477117421897	1477117421984	NA	190
375215	4047088	Both of us are still here.	Both of us are still here.	192241361	1477117423540	1477117424293	SHIFT	16
375215	4047088	Both of us are still here.	Both of us are still here.	192241358	1477117424093	1477117424244	NA	66
375215	4047088	Both of us are still here.	Both of us are still here.	192241363	1477117424449	1477117424546	NA	79
375215	4047088	Both of us are still here.	Both of us are still here.	192241369	1477117424594	1477117424686	NA	84
375215	4047088	Both of us are still here.	Both of us are still here.	192241376	1477117424667	1477117424781	NA	72
375215	4047088	Both of us are still here.	Both of us are still here.	192241381	1477117424981	1477117425108	NA	32
375215	4047088	Both of us are still here.	Both of us are still here.	192241460	1477117425235	1477117425330	NA	73
375215	4047088	Both of us are still here.	Both of us are still here.	192241465	1477117425379	1477117425508	NA	83
375215	4047088	Both of us are still here.	Both of us are still here.	192241470	1477117425678	1477117425754		8
375215	4047088	Both of us are still here.	Both of us are still here.	192241475	1477117425812	1477117425890		8
375215	4047088	Both of us are still here.	Both of us are still here.	192241480	1477117426321	1477117426421	NA	79
375215	4047088	Both of us are still here.	Both of us are still here.	192241551	1477117426466	1477117426587	NA	68
375215	4047088	Both of us are still here.	Both of us are still here.	192241552	1477117427012	1477117427105		8
375215	4047088	Both of us are still here.	Both of us are still here.	192241553	1477117427271	1477117427380	NA	68
375215	4047088	Both of us are still here.	Both of us are still here.	192241554	1477117427619	1477117427705		8
375215	4047088	Both of us are still here.	Both of us are still here.	192241557	1477117427722	1477117427824	NA	70
375215	4047088	Both of us are still here.	Both of us are still here.	192241638	1477117428384	1477117428503	NA	32
375215	4047088	Both of us are still here.	Both of us are still here.	192241644	1477117428603	1477117428657	NA	73
375215	4047088	Both of us are still here.	Both of us are still here.	192241649	1477117429080	1477117429152		8
375215	4047088	Both of us are still here.	Both of us are still here.	192241654	1477117429216	1477117429323		8
375215	4047088	Both of us are still here.	Both of us are still here.	192241745	1477117429538	1477117429630	NA	73
375215	4047088	Both of us are still here.	Both of us are still here.	192241748	1477117430042	1477117430097		8
375215	4047088	Both of us are still here.	Both of us are still here.	192241751	1477117430400	1477117430452	NA	73
375215	4047088	Both of us are still here.	Both of us are still here.	192241756	1477117430893	1477117430971		8
375215	4047088	Both of us are still here.	Both of us are still here.	192241877	1477117431039	1477117431134		8
375215	4047088	Both of us are still here.	Both of us are still here.	192241881	1477117431656	1477117431736	NA	85
375215	4047088	Both of us are still here.	Both of us are still here.	192241884	1477117431744	1477117431857	NA	83
375215	4047088	Both of us are still here.	Both of us are still here.	192241886	1477117432137	1477117432235	NA	32
375215	4047088	Both of us are still here.	Both of us are still here.	192241887	1477117432631	1477117432713	NA	65
375215	4047088	Both of us are still here.	Both of us are still here.	192241913	1477117432908	1477117433042	NA	82
375215	4047088	Both of us are still here.	Both of us are still here.	192241916	1477117433002	1477117433106	NA	69
375215	4047088	Both of us are still here.	Both of us are still here.	192241919	1477117433140	1477117433237	NA	32
375215	4047088	Both of us are still here.	Both of us are still here.	192241923	1477117433272	1477117433390	NA	83
375215	4047088	Both of us are still here.	Both of us are still here.	192241925	1477117433433	1477117433550	NA	84
375215	4047088	Both of us are still here.	Both of us are still here.	192242017	1477117434508	1477117434562	NA	73
375215	4047088	Both of us are still here.	Both of us are still here.	192242023	1477117434692	1477117434750	NA	76
375215	4047088	Both of us are still here.	Both of us are still here.	192242028	1477117434822	1477117434907	NA	76
375215	4047088	Both of us are still here.	Both of us are still here.	192242033	1477117435004	1477117435123	NA	32
375215	4047088	Both of us are still here.	Both of us are still here.	192242037	1477117435317	1477117435411	NA	72
375215	4047088	Both of us are still here.	Both of us are still here.	192242091	1477117435494	1477117435584	NA	69
375215	4047088	Both of us are still here.	Both of us are still here.	192242093	1477117435567	1477117435658	NA	82
375215	4047088	Both of us are still here.	Both of us are still here.	192242095	1477117435671	1477117435779	NA	69
375215	4047106	I'm trying to get them billed before the holidays.	I'm trying to get them billed before the holidays.	192242414	1477117437769	1477117439477	SHIFT	16
375215	4047106	I'm trying to get them billed before the holidays.	I'm trying to get them billed before the holidays.	192242410	1477117438685	1477117438793	NA	73
375215	4047106	I'm trying to get them billed before the holidays.	I'm trying to get them billed before the holidays.	192242419	1477117439625	1477117439694	NA	222
375215	4047106	I'm trying to get them billed before the holidays.	I'm trying to get them billed before the holidays.	192242424	1477117440006	1477117440088	NA	77
375215	4047106	I'm trying to get them billed before the holidays.	I'm trying to get them billed before the holidays.	192242429	1477117440724	1477117440839	NA	32
375215	4047106	I'm trying to get them billed before the holidays.	I'm trying to get them billed before the holidays.	192242435	1477117441096	1477117441158	NA	84
375215	4047106	I'm trying to get them billed before the holidays.	I'm trying to get them billed before the holidays.	192242485	1477117441323	1477117441414	NA	82
375215	4047106	I'm trying to get them billed before the holidays.	I'm trying to get them billed before the holidays.	192242488	1477117441464	1477117441527	NA	89
375215	4047106	I'm trying to get them billed before the holidays.	I'm trying to get them billed before the holidays.	192242491	1477117441906	1477117442050	NA	73
375215	4047106	I'm trying to get them billed before the holidays.	I'm trying to get them billed before the holidays.	192242493	1477117441999	1477117442097	NA	78
375215	4047106	I'm trying to get them billed before the holidays.	I'm trying to get them billed before the holidays.	192242495	1477117442125	1477117442235	NA	71
375215	4047106	I'm trying to get them billed before the holidays.	I'm trying to get them billed before the holidays.	192242549	1477117442276	1477117442370	NA	32
375215	4047106	I'm trying to get them billed before the holidays.	I'm trying to get them billed before the holidays.	192242552	1477117442565	1477117442681	NA	89
375215	4047106	I'm trying to get them billed before the holidays.	I'm trying to get them billed before the holidays.	192242556	1477117443054	1477117443112		8
375215	4047106	I'm trying to get them billed before the holidays.	I'm trying to get them billed before the holidays.	192242558	1477117443174	1477117443260		8
375215	4047106	I'm trying to get them billed before the holidays.	I'm trying to get them billed before the holidays.	192242681	1477117443365	1477117443458	NA	84
375215	4047106	I'm trying to get them billed before the holidays.	I'm trying to get them billed before the holidays.	192242683	1477117443458	1477117443542	NA	79
375215	4047106	I'm trying to get them billed before the holidays.	I'm trying to get them billed before the holidays.	192242687	1477117443993	1477117444115	NA	32
375215	4047106	I'm trying to get them billed before the holidays.	I'm trying to get them billed before the holidays.	192242693	1477117444478	1477117444549	NA	72
375215	4047106	I'm trying to get them billed before the holidays.	I'm trying to get them billed before the holidays.	192242699	1477117445146	1477117445217		8
375215	4047106	I'm trying to get them billed before the holidays.	I'm trying to get them billed before the holidays.	192242738	1477117445411	1477117445498	NA	71
375215	4047106	I'm trying to get them billed before the holidays.	I'm trying to get them billed before the holidays.	192242741	1477117445490	1477117445609	NA	69
375215	4047106	I'm trying to get them billed before the holidays.	I'm trying to get them billed before the holidays.	192242746	1477117445601	1477117445692	NA	84
375215	4047106	I'm trying to get them billed before the holidays.	I'm trying to get them billed before the holidays.	192242752	1477117445715	1477117445838	NA	32
375215	4047106	I'm trying to get them billed before the holidays.	I'm trying to get them billed before the holidays.	192242756	1477117445899	1477117446040	NA	84
375215	4047106	I'm trying to get them billed before the holidays.	I'm trying to get them billed before the holidays.	192242830	1477117446044	1477117446130	NA	72
375215	4047106	I'm trying to get them billed before the holidays.	I'm trying to get them billed before the holidays.	192242831	1477117446185	1477117446297	NA	69
375215	4047106	I'm trying to get them billed before the holidays.	I'm trying to get them billed before the holidays.	192242833	1477117446736	1477117446817	NA	77
375215	4047106	I'm trying to get them billed before the holidays.	I'm trying to get them billed before the holidays.	192242837	1477117446992	1477117447122	NA	32
375215	4047106	I'm trying to get them billed before the holidays.	I'm trying to get them billed before the holidays.	192242840	1477117447816	1477117447893	NA	66
375215	4047106	I'm trying to get them billed before the holidays.	I'm trying to get them billed before the holidays.	192242854	1477117447924	1477117447970	NA	73
375215	4047106	I'm trying to get them billed before the holidays.	I'm trying to get them billed before the holidays.	192242855	1477117448101	1477117448153	NA	76
375215	4047106	I'm trying to get them billed before the holidays.	I'm trying to get them billed before the holidays.	192242857	1477117448220	1477117448320	NA	76
375215	4047106	I'm trying to get them billed before the holidays.	I'm trying to get them billed before the holidays.	192242861	1477117448321	1477117448451	NA	69
375215	4047106	I'm trying to get them billed before the holidays.	I'm trying to get them billed before the holidays.	192242918	1477117448403	1477117448508	NA	68
375215	4047106	I'm trying to get them billed before the holidays.	I'm trying to get them billed before the holidays.	192242922	1477117448549	1477117448663	NA	32
375215	4047106	I'm trying to get them billed before the holidays.	I'm trying to get them billed before the holidays.	192242927	1477117449168	1477117449245	NA	66
375215	4047106	I'm trying to get them billed before the holidays.	I'm trying to get them billed before the holidays.	192242932	1477117449284	1477117449400	NA	69
375215	4047106	I'm trying to get them billed before the holidays.	I'm trying to get them billed before the holidays.	192242936	1477117449499	1477117449594	NA	70
375215	4047106	I'm trying to get them billed before the holidays.	I'm trying to get them billed before the holidays.	192242941	1477117449715	1477117449818	NA	79
375215	4047106	I'm trying to get them billed before the holidays.	I'm trying to get them billed before the holidays.	192242966	1477117449778	1477117449930	NA	82
375215	4047106	I'm trying to get them billed before the holidays.	I'm trying to get them billed before the holidays.	192242971	1477117449900	1477117450029	NA	69
375215	4047106	I'm trying to get them billed before the holidays.	I'm trying to get them billed before the holidays.	192242973	1477117450024	1477117450098	NA	32
375215	4047106	I'm trying to get them billed before the holidays.	I'm trying to get them billed before the holidays.	192242975	1477117450117	1477117450230	NA	84
375215	4047106	I'm trying to get them billed before the holidays.	I'm trying to get them billed before the holidays.	192242977	1477117450279	1477117450376	NA	72
375215	4047106	I'm trying to get them billed before the holidays.	I'm trying to get them billed before the holidays.	192242981	1477117450435	1477117450574	NA	69
375215	4047106	I'm trying to get them billed before the holidays.	I'm trying to get them billed before the holidays.	192243073	1477117450839	1477117450923	NA	32
375215	4047106	I'm trying to get them billed before the holidays.	I'm trying to get them billed before the holidays.	192243075	1477117451369	1477117451457	NA	72
375215	4047106	I'm trying to get them billed before the holidays.	I'm trying to get them billed before the holidays.	192243078	1477117451493	1477117451551	NA	79
375215	4047106	I'm trying to get them billed before the holidays.	I'm trying to get them billed before the holidays.	192243080	1477117452287	1477117452373	NA	76
375215	4047106	I'm trying to get them billed before the holidays.	I'm trying to get them billed before the holidays.	192243082	1477117452467	1477117452550	NA	73
375215	4047106	I'm trying to get them billed before the holidays.	I'm trying to get them billed before the holidays.	192243136	1477117452792	1477117452908	NA	68
375215	4047106	I'm trying to get them billed before the holidays.	I'm trying to get them billed before the holidays.	192243142	1477117452909	1477117453007	NA	65
375215	4047106	I'm trying to get them billed before the holidays.	I'm trying to get them billed before the holidays.	192243148	1477117453023	1477117453104	NA	89
375215	4047106	I'm trying to get them billed before the holidays.	I'm trying to get them billed before the holidays.	192243150	1477117453153	1477117453255	NA	83
375215	4047124	Talk to you soon.	Talh to you soon.	192243342	1477117455688	1477117456484	SHIFT	16
375215	4047124	Talk to you soon.	Talh to you soon.	192243339	1477117456320	1477117456393	NA	84
375215	4047124	Talk to you soon.	Talh to you soon.	192243345	1477117456637	1477117456711	NA	65
375215	4047124	Talk to you soon.	Talh to you soon.	192243348	1477117456767	1477117456837	NA	76
375215	4047124	Talk to you soon.	Talh to you soon.	192243350	1477117457239	1477117457320	NA	72
375215	4047124	Talk to you soon.	Talh to you soon.	192243352	1477117457414	1477117457544	NA	32
375215	4047124	Talk to you soon.	Talh to you soon.	192243370	1477117457671	1477117457766	NA	84
375215	4047124	Talk to you soon.	Talh to you soon.	192243374	1477117457770	1477117457833	NA	79
375215	4047124	Talk to you soon.	Talh to you soon.	192243376	1477117457966	1477117458055	NA	32
375215	4047124	Talk to you soon.	Talh to you soon.	192243377	1477117458158	1477117458224	NA	89
375215	4047124	Talk to you soon.	Talh to you soon.	192243379	1477117458271	1477117458363	NA	79
375215	4047124	Talk to you soon.	Talh to you soon.	192243461	1477117458361	1477117458445	NA	85
375215	4047124	Talk to you soon.	Talh to you soon.	192243466	1477117458531	1477117458603	NA	32
375215	4047124	Talk to you soon.	Talh to you soon.	192243470	1477117459048	1477117459166	NA	83
375215	4047124	Talk to you soon.	Talh to you soon.	192243476	1477117459185	1477117459247	NA	79
375215	4047124	Talk to you soon.	Talh to you soon.	192243481	1477117459364	1477117459453	NA	79
375215	4047124	Talk to you soon.	Talh to you soon.	192243486	1477117459619	1477117459698	NA	78
375215	4047133	I am looking forward to the salad.	I am looking forward to the salad.	192243643	1477117461892	1477117462409	SHIFT	16
375215	4047133	I am looking forward to the salad.	I am looking forward to the salad.	192243639	1477117462305	1477117462382	NA	73
375215	4047133	I am looking forward to the salad.	I am looking forward to the salad.	192243649	1477117462485	1477117462604	NA	32
375215	4047133	I am looking forward to the salad.	I am looking forward to the salad.	192243655	1477117462600	1477117462712	NA	65
375215	4047133	I am looking forward to the salad.	I am looking forward to the salad.	192243660	1477117462698	1477117462793	NA	77
375215	4047133	I am looking forward to the salad.	I am looking forward to the salad.	192243664	1477117462903	1477117463010	NA	32
375215	4047133	I am looking forward to the salad.	I am looking forward to the salad.	192243699	1477117463293	1477117463381	NA	76
375215	4047133	I am looking forward to the salad.	I am looking forward to the salad.	192243704	1477117463481	1477117463527	NA	79
375215	4047133	I am looking forward to the salad.	I am looking forward to the salad.	192243711	1477117463594	1477117463672	NA	79
375215	4047133	I am looking forward to the salad.	I am looking forward to the salad.	192243713	1477117463696	1477117463826	NA	75
375215	4047133	I am looking forward to the salad.	I am looking forward to the salad.	192243799	1477117463816	1477117463888	NA	73
375215	4047133	I am looking forward to the salad.	I am looking forward to the salad.	192243804	1477117463937	1477117464012	NA	78
375215	4047133	I am looking forward to the salad.	I am looking forward to the salad.	192243811	1477117464093	1477117464185	NA	70
375215	4047133	I am looking forward to the salad.	I am looking forward to the salad.	192243814	1477117464508	1477117464595	NA	32
375215	4047133	I am looking forward to the salad.	I am looking forward to the salad.	192243818	1477117465328	1477117465384		8
375215	4047133	I am looking forward to the salad.	I am looking forward to the salad.	192243823	1477117465546	1477117465602		8
375215	4047133	I am looking forward to the salad.	I am looking forward to the salad.	192243841	1477117465759	1477117465839	NA	71
375215	4047133	I am looking forward to the salad.	I am looking forward to the salad.	192243843	1477117466003	1477117466096	NA	32
375215	4047133	I am looking forward to the salad.	I am looking forward to the salad.	192243845	1477117466444	1477117466526	NA	70
375215	4047133	I am looking forward to the salad.	I am looking forward to the salad.	192243847	1477117466571	1477117466665	NA	79
375215	4047133	I am looking forward to the salad.	I am looking forward to the salad.	192243852	1477117466695	1477117466785	NA	82
375215	4047133	I am looking forward to the salad.	I am looking forward to the salad.	192243893	1477117467143	1477117467283	NA	87
375215	4047133	I am looking forward to the salad.	I am looking forward to the salad.	192243897	1477117467228	1477117467342	NA	65
375215	4047133	I am looking forward to the salad.	I am looking forward to the salad.	192243900	1477117467452	1477117467523	NA	82
375215	4047133	I am looking forward to the salad.	I am looking forward to the salad.	192243904	1477117467597	1477117467688	NA	68
375215	4047133	I am looking forward to the salad.	I am looking forward to the salad.	192243906	1477117467728	1477117467805	NA	32
375215	4047133	I am looking forward to the salad.	I am looking forward to the salad.	192243985	1477117467895	1477117467993	NA	84
375215	4047133	I am looking forward to the salad.	I am looking forward to the salad.	192243986	1477117468006	1477117468108	NA	79
375215	4047133	I am looking forward to the salad.	I am looking forward to the salad.	192243988	1477117468815	1477117468932	NA	32
375215	4047133	I am looking forward to the salad.	I am looking forward to the salad.	192243991	1477117469250	1477117469328	NA	84
375215	4047133	I am looking forward to the salad.	I am looking forward to the salad.	192243993	1477117469351	1477117469439	NA	72
375215	4047133	I am looking forward to the salad.	I am looking forward to the salad.	192244012	1477117469454	1477117469537	NA	69
375215	4047133	I am looking forward to the salad.	I am looking forward to the salad.	192244015	1477117469586	1477117469653	NA	32
375215	4047133	I am looking forward to the salad.	I am looking forward to the salad.	192244020	1477117469805	1477117469942	NA	83
375215	4047133	I am looking forward to the salad.	I am looking forward to the salad.	192244025	1477117469903	1477117470029	NA	65
375215	4047133	I am looking forward to the salad.	I am looking forward to the salad.	192244028	1477117470043	1477117470137	NA	76
375215	4047133	I am looking forward to the salad.	I am looking forward to the salad.	192244085	1477117470211	1477117470290	NA	65
375215	4047133	I am looking forward to the salad.	I am looking forward to the salad.	192244089	1477117470831	1477117470910	NA	68
375215	4047133	I am looking forward to the salad.	I am looking forward to the salad.	192244093	1477117471012	1477117471273	SHIFT	16
375215	4047146	OK I thought it was in Washington state.	OK I thought it was in Washington state.	192244248	1477117473057	1477117474056	SHIFT	16
375215	4047146	OK I thought it was in Washington state.	OK I thought it was in Washington state.	192244238	1477117473545	1477117473676	NA	79
375215	4047146	OK I thought it was in Washington state.	OK I thought it was in Washington state.	192244242	1477117473637	1477117473702	NA	75
375215	4047146	OK I thought it was in Washington state.	OK I thought it was in Washington state.	192244245	1477117473853	1477117474010	NA	32
375215	4047146	OK I thought it was in Washington state.	OK I thought it was in Washington state.	192244313	1477117474474	1477117475361	SHIFT	16
375215	4047146	OK I thought it was in Washington state.	OK I thought it was in Washington state.	192244251	1477117474780	1477117474877	NA	73
375215	4047146	OK I thought it was in Washington state.	OK I thought it was in Washington state.	192244252	1477117475213	1477117475299	NA	32
375215	4047146	OK I thought it was in Washington state.	OK I thought it was in Washington state.	192244315	1477117475547	1477117475606	NA	84
375215	4047146	OK I thought it was in Washington state.	OK I thought it was in Washington state.	192244316	1477117476084	1477117476148	NA	72
375215	4047146	OK I thought it was in Washington state.	OK I thought it was in Washington state.	192244318	1477117476652	1477117476766	NA	79
375215	4047146	OK I thought it was in Washington state.	OK I thought it was in Washington state.	192244321	1477117476864	1477117476956	NA	71
375215	4047146	OK I thought it was in Washington state.	OK I thought it was in Washington state.	192244324	1477117476971	1477117477077	NA	72
375215	4047146	OK I thought it was in Washington state.	OK I thought it was in Washington state.	192244383	1477117477470	1477117477554		8
375215	4047146	OK I thought it was in Washington state.	OK I thought it was in Washington state.	192244385	1477117477625	1477117477712		8
375215	4047146	OK I thought it was in Washington state.	OK I thought it was in Washington state.	192244387	1477117478332	1477117478414	NA	85
375215	4047146	OK I thought it was in Washington state.	OK I thought it was in Washington state.	192244389	1477117478422	1477117478510	NA	71
375215	4047146	OK I thought it was in Washington state.	OK I thought it was in Washington state.	192244391	1477117478519	1477117478607	NA	72
375215	4047146	OK I thought it was in Washington state.	OK I thought it was in Washington state.	192244441	1477117478788	1477117478884	NA	84
375215	4047146	OK I thought it was in Washington state.	OK I thought it was in Washington state.	192244442	1477117479271	1477117479363	NA	32
375215	4047146	OK I thought it was in Washington state.	OK I thought it was in Washington state.	192244443	1477117479537	1477117479623	NA	73
375215	4047146	OK I thought it was in Washington state.	OK I thought it was in Washington state.	192244444	1477117479771	1477117479833	NA	84
375215	4047146	OK I thought it was in Washington state.	OK I thought it was in Washington state.	192244445	1477117479974	1477117480065	NA	32
375215	4047146	OK I thought it was in Washington state.	OK I thought it was in Washington state.	192244516	1477117480096	1477117480184	NA	87
375215	4047146	OK I thought it was in Washington state.	OK I thought it was in Washington state.	192244520	1477117480189	1477117480334	NA	65
375215	4047146	OK I thought it was in Washington state.	OK I thought it was in Washington state.	192244524	1477117480274	1477117480400	NA	83
375215	4047146	OK I thought it was in Washington state.	OK I thought it was in Washington state.	192244528	1477117481002	1477117481097	NA	32
375215	4047146	OK I thought it was in Washington state.	OK I thought it was in Washington state.	192244531	1477117481476	1477117481616	NA	73
375215	4047146	OK I thought it was in Washington state.	OK I thought it was in Washington state.	192244570	1477117481556	1477117481662	NA	78
375215	4047146	OK I thought it was in Washington state.	OK I thought it was in Washington state.	192244573	1477117481653	1477117481807	NA	32
375215	4047146	OK I thought it was in Washington state.	OK I thought it was in Washington state.	192244580	1477117481775	1477117482167	SHIFT	16
375215	4047146	OK I thought it was in Washington state.	OK I thought it was in Washington state.	192244577	1477117482019	1477117482104	NA	87
375215	4047146	OK I thought it was in Washington state.	OK I thought it was in Washington state.	192244583	1477117482230	1477117482361	NA	65
375215	4047146	OK I thought it was in Washington state.	OK I thought it was in Washington state.	192244585	1477117482345	1477117482470	NA	83
375215	4047146	OK I thought it was in Washington state.	OK I thought it was in Washington state.	192244587	1477117482523	1477117482582	NA	72
375215	4047146	OK I thought it was in Washington state.	OK I thought it was in Washington state.	192244607	1477117482781	1477117482935	NA	73
375215	4047146	OK I thought it was in Washington state.	OK I thought it was in Washington state.	192244609	1477117482877	1477117482976	NA	78
375215	4047146	OK I thought it was in Washington state.	OK I thought it was in Washington state.	192244613	1477117483042	1477117483144	NA	71
375215	4047146	OK I thought it was in Washington state.	OK I thought it was in Washington state.	192244620	1477117483185	1477117483286	NA	84
375215	4047146	OK I thought it was in Washington state.	OK I thought it was in Washington state.	192244625	1477117483288	1477117483409	NA	79
375215	4047146	OK I thought it was in Washington state.	OK I thought it was in Washington state.	192244769	1477117483533	1477117483614	NA	78
375215	4047146	OK I thought it was in Washington state.	OK I thought it was in Washington state.	192244772	1477117484044	1477117484148	NA	32
375215	4047146	OK I thought it was in Washington state.	OK I thought it was in Washington state.	192244787	1477117484238	1477117485414	SHIFT	16
375215	4047146	OK I thought it was in Washington state.	OK I thought it was in Washington state.	192244778	1477117484410	1477117484525	NA	68
375215	4047146	OK I thought it was in Washington state.	OK I thought it was in Washington state.	192244783	1477117485063	1477117485152		8
375215	4047146	OK I thought it was in Washington state.	OK I thought it was in Washington state.	192244793	1477117485661	1477117485832	SHIFT	16
375215	4047146	OK I thought it was in Washington state.	OK I thought it was in Washington state.	192244797	1477117485966	1477117486088	NA	83
375215	4047146	OK I thought it was in Washington state.	OK I thought it was in Washington state.	192244831	1477117486065	1477117486151	NA	84
375215	4047146	OK I thought it was in Washington state.	OK I thought it was in Washington state.	192244835	1477117486183	1477117486288	NA	65
375215	4047146	OK I thought it was in Washington state.	OK I thought it was in Washington state.	192244837	1477117486222	1477117486392	NA	82
375215	4047146	OK I thought it was in Washington state.	OK I thought it was in Washington state.	192244841	1477117486339	1477117486449	NA	84
375215	4047146	OK I thought it was in Washington state.	OK I thought it was in Washington state.	192244844	1477117486886	1477117486949		8
375215	4047146	OK I thought it was in Washington state.	OK I thought it was in Washington state.	192244846	1477117487006	1477117487091		8
375215	4047146	OK I thought it was in Washington state.	OK I thought it was in Washington state.	192244903	1477117487865	1477117487953	NA	84
375215	4047146	OK I thought it was in Washington state.	OK I thought it was in Washington state.	192244908	1477117487924	1477117488015	NA	69
375215	4047288	This is all so unreal.	This is all so unreal.	192251447	1477117631221	1477117631743	SHIFT	16
375215	4047288	This is all so unreal.	This is all so unreal.	192251442	1477117631586	1477117631660	NA	84
375215	4047288	This is all so unreal.	This is all so unreal.	192251450	1477117631853	1477117631964	NA	72
375215	4047288	This is all so unreal.	This is all so unreal.	192251455	1477117631928	1477117632027	NA	73
375215	4047288	This is all so unreal.	This is all so unreal.	192251460	1477117632040	1477117632144	NA	83
375215	4047288	This is all so unreal.	This is all so unreal.	192251475	1477117632138	1477117632235	NA	32
375215	4047288	This is all so unreal.	This is all so unreal.	192251477	1477117632323	1477117632406	NA	73
375215	4047288	This is all so unreal.	This is all so unreal.	192251480	1477117632431	1477117632545	NA	83
375215	4047288	This is all so unreal.	This is all so unreal.	192251484	1477117632523	1477117632612	NA	32
375215	4047288	This is all so unreal.	This is all so unreal.	192251488	1477117632718	1477117632833	NA	83
375215	4047288	This is all so unreal.	This is all so unreal.	192251588	1477117632816	1477117632909	NA	79
375215	4047288	This is all so unreal.	This is all so unreal.	192251595	1477117634094	1477117634166		8
375215	4047288	This is all so unreal.	This is all so unreal.	192251599	1477117634232	1477117634315		8
375215	4047288	This is all so unreal.	This is all so unreal.	192251603	1477117634896	1477117634996	NA	65
375215	4047288	This is all so unreal.	This is all so unreal.	192251606	1477117635035	1477117635100	NA	76
375215	4047288	This is all so unreal.	This is all so unreal.	192251609	1477117635168	1477117635236	NA	76
375215	4047288	This is all so unreal.	This is all so unreal.	192251682	1477117635293	1477117635411	NA	32
375215	4047288	This is all so unreal.	This is all so unreal.	192251684	1477117635689	1477117635783	NA	83
375215	4047288	This is all so unreal.	This is all so unreal.	192251688	1477117636441	1477117636530	NA	79
375215	4047288	This is all so unreal.	This is all so unreal.	192251692	1477117636744	1477117636849	NA	32
375215	4047288	This is all so unreal.	This is all so unreal.	192251696	1477117637335	1477117637491	NA	85
375215	4047288	This is all so unreal.	This is all so unreal.	192251722	1477117637429	1477117637511	NA	78
375215	4047288	This is all so unreal.	This is all so unreal.	192251725	1477117637676	1477117637741	NA	82
375215	4047288	This is all so unreal.	This is all so unreal.	192251728	1477117637814	1477117637967	NA	69
375215	4047288	This is all so unreal.	This is all so unreal.	192251732	1477117637904	1477117638007	NA	65
375215	4047288	This is all so unreal.	This is all so unreal.	192251735	1477117638046	1477117638110	NA	76
