PARTICIPANT_ID	TEST_SECTION_ID	SENTENCE	USER_INPUT	KEYSTROKE_ID	PRESS_TIME	RELEASE_TIME	LETTER	KEYCODE
379036	4089977	I am walking in now.	I am walking in now.	194293657	1477191681166	1477191681313	SHIFT	16
379036	4089977	I am walking in now.	I am walking in now.	194293659	1477191682151	1477191682277	i	73
379036	4089977	I am walking in now.	I am walking in now.	194293661	1477191682893	1477191683029	BKSP	8
379036	4089977	I am walking in now.	I am walking in now.	194293667	1477191683803	1477191684293	SHIFT	16
379036	4089977	I am walking in now.	I am walking in now.	194293664	1477191684053	1477191684201	I	73
379036	4089977	I am walking in now.	I am walking in now.	194293670	1477191684391	1477191684543	 	32
379036	4089977	I am walking in now.	I am walking in now.	194293673	1477191684881	1477191685021	a	65
379036	4089977	I am walking in now.	I am walking in now.	194293697	1477191684980	1477191685113	m	77
379036	4089977	I am walking in now.	I am walking in now.	194293699	1477191685130	1477191685248	 	32
379036	4089977	I am walking in now.	I am walking in now.	194293701	1477191685444	1477191685698	w	87
379036	4089977	I am walking in now.	I am walking in now.	194293704	1477191685587	1477191685802	a	65
379036	4089977	I am walking in now.	I am walking in now.	194293707	1477191685681	1477191685922	l	76
379036	4089977	I am walking in now.	I am walking in now.	194293710	1477191686019	1477191686124	k	73
379036	4089977	I am walking in now.	I am walking in now.	194293762	1477191686235	1477191686344	k	75
379036	4089977	I am walking in now.	I am walking in now.	194293764	1477191686695	1477191686803	BKSP	8
379036	4089977	I am walking in now.	I am walking in now.	194293767	1477191686856	1477191686969	BKSP	8
379036	4089977	I am walking in now.	I am walking in now.	194293770	1477191687013	1477191687097	BKSP	8
379036	4089977	I am walking in now.	I am walking in now.	194293772	1477191687118	1477191687211	BKSP	8
379036	4089977	I am walking in now.	I am walking in now.	194293774	1477191688013	1477191688150	l	76
379036	4089977	I am walking in now.	I am walking in now.	194293776	1477191688225	1477191688361	k	75
379036	4089977	I am walking in now.	I am walking in now.	194293777	1477191688402	1477191688682	i	73
379036	4089977	I am walking in now.	I am walking in now.	194293818	1477191688574	1477191688763	n	78
379036	4089977	I am walking in now.	I am walking in now.	194293819	1477191688746	1477191688940	g	72
379036	4089977	I am walking in now.	I am walking in now.	194293820	1477191689288	1477191689417	BKSP	8
379036	4089977	I am walking in now.	I am walking in now.	194293821	1477191689475	1477191689631	BKSP	8
379036	4089977	I am walking in now.	I am walking in now.	194293822	1477191689591	1477191689822	h	72
379036	4089977	I am walking in now.	I am walking in now.	194293823	1477191690174	1477191690306	BKSP	8
379036	4089977	I am walking in now.	I am walking in now.	194293824	1477191690272	1477191690462	g	71
379036	4089977	I am walking in now.	I am walking in now.	194293826	1477191690511	1477191690672	 	32
379036	4089977	I am walking in now.	I am walking in now.	194293883	1477191691413	1477191691607	i	73
379036	4089977	I am walking in now.	I am walking in now.	194293886	1477191691525	1477191691689	n	78
379036	4089977	I am walking in now.	I am walking in now.	194293888	1477191691644	1477191691790	 	32
379036	4089977	I am walking in now.	I am walking in now.	194293890	1477191691829	1477191691981	n	78
379036	4089977	I am walking in now.	I am walking in now.	194293942	1477191691972	1477191692172	o	79
379036	4089977	I am walking in now.	I am walking in now.	194293943	1477191692110	1477191692320	w	87
379036	4089977	I am walking in now.	I am walking in now.	194293944	1477191692546	1477191692710	.	190
379036	4089977	I am walking in now.	I am walking in now.	194293946	1477191692923	1477191693073	'	222
379036	4089977	I am walking in now.	I am walking in now.	194293948	1477191692926	1477191693081	SHIFT	16
379036	4089977	I am walking in now.	I am walking in now.	194293950	1477191693754	1477191693907	BKSP	8
379036	4089988	US vessels will form two separate training units.	US vessels will form two separate training units.	194294143	1477191699911	1477191700904	SHIFT	16
379036	4089988	US vessels will form two separate training units.	US vessels will form two separate training units.	194294141	1477191700356	1477191700493	U	85
379036	4089988	US vessels will form two separate training units.	US vessels will form two separate training units.	194294142	1477191700548	1477191700731	S	83
379036	4089988	US vessels will form two separate training units.	US vessels will form two separate training units.	194294144	1477191700909	1477191701011	 	32
379036	4089988	US vessels will form two separate training units.	US vessels will form two separate training units.	194294145	1477191701771	1477191702001	v	86
379036	4089988	US vessels will form two separate training units.	US vessels will form two separate training units.	194294168	1477191701860	1477191702068	e	69
379036	4089988	US vessels will form two separate training units.	US vessels will form two separate training units.	194294170	1477191702178	1477191702291	s	83
379036	4089988	US vessels will form two separate training units.	US vessels will form two separate training units.	194294172	1477191702361	1477191702495	s	83
379036	4089988	US vessels will form two separate training units.	US vessels will form two separate training units.	194294174	1477191702572	1477191702783	e	69
379036	4089988	US vessels will form two separate training units.	US vessels will form two separate training units.	194294175	1477191702772	1477191702915	l	76
379036	4089988	US vessels will form two separate training units.	US vessels will form two separate training units.	194294176	1477191702971	1477191703167	s	83
379036	4089988	US vessels will form two separate training units.	US vessels will form two separate training units.	194294223	1477191703370	1477191703542	 	32
379036	4089988	US vessels will form two separate training units.	US vessels will form two separate training units.	194294226	1477191703856	1477191704038	w	87
379036	4089988	US vessels will form two separate training units.	US vessels will form two separate training units.	194294229	1477191704379	1477191704542	i	73
379036	4089988	US vessels will form two separate training units.	US vessels will form two separate training units.	194294231	1477191704712	1477191704823	l	76
379036	4089988	US vessels will form two separate training units.	US vessels will form two separate training units.	194294233	1477191704879	1477191705009	l	76
379036	4089988	US vessels will form two separate training units.	US vessels will form two separate training units.	194294264	1477191705071	1477191705239	 	32
379036	4089988	US vessels will form two separate training units.	US vessels will form two separate training units.	194294266	1477191705475	1477191705660	f	70
379036	4089988	US vessels will form two separate training units.	US vessels will form two separate training units.	194294268	1477191705627	1477191705813	o	79
379036	4089988	US vessels will form two separate training units.	US vessels will form two separate training units.	194294272	1477191705853	1477191706023	r	82
379036	4089988	US vessels will form two separate training units.	US vessels will form two separate training units.	194294278	1477191706426	1477191706642	m	77
379036	4089988	US vessels will form two separate training units.	US vessels will form two separate training units.	194294452	1477191706711	1477191706885	 	32
379036	4089988	US vessels will form two separate training units.	US vessels will form two separate training units.	194294456	1477191709515	1477191709825	t	84
379036	4089988	US vessels will form two separate training units.	US vessels will form two separate training units.	194294459	1477191709655	1477191709868	w	87
379036	4089988	US vessels will form two separate training units.	US vessels will form two separate training units.	194294461	1477191709720	1477191709964	o	79
379036	4089988	US vessels will form two separate training units.	US vessels will form two separate training units.	194294465	1477191709986	1477191710162	 	32
379036	4089988	US vessels will form two separate training units.	US vessels will form two separate training units.	194294540	1477191711155	1477191711358	s	83
379036	4089988	US vessels will form two separate training units.	US vessels will form two separate training units.	194294545	1477191711297	1477191711556	e	69
379036	4089988	US vessels will form two separate training units.	US vessels will form two separate training units.	194294549	1477191711553	1477191711763	p	80
379036	4089988	US vessels will form two separate training units.	US vessels will form two separate training units.	194294553	1477191711847	1477191712122	r	82
379036	4089988	US vessels will form two separate training units.	US vessels will form two separate training units.	194294703	1477191712087	1477191712400	a	65
379036	4089988	US vessels will form two separate training units.	US vessels will form two separate training units.	194294710	1477191712973	1477191713196	t	84
379036	4089988	US vessels will form two separate training units.	US vessels will form two separate training units.	194294716	1477191713117	1477191713351	e	69
379036	4089988	US vessels will form two separate training units.	US vessels will form two separate training units.	194294717	1477191713446	1477191713629	 	32
379036	4089988	US vessels will form two separate training units.	US vessels will form two separate training units.	194294720	1477191714241	1477191714363	BKSP	8
379036	4089988	US vessels will form two separate training units.	US vessels will form two separate training units.	194294723	1477191714427	1477191714556	BKSP	8
379036	4089988	US vessels will form two separate training units.	US vessels will form two separate training units.	194294725	1477191714581	1477191714658	BKSP	8
379036	4089988	US vessels will form two separate training units.	US vessels will form two separate training units.	194294726	1477191714743	1477191714840	BKSP	8
379036	4089988	US vessels will form two separate training units.	US vessels will form two separate training units.	194294728	1477191715208	1477191715332	BKSP	8
379036	4089988	US vessels will form two separate training units.	US vessels will form two separate training units.	194294730	1477191716138	1477191716342	a	65
379036	4089988	US vessels will form two separate training units.	US vessels will form two separate training units.	194294796	1477191716272	1477191716479	r	82
379036	4089988	US vessels will form two separate training units.	US vessels will form two separate training units.	194294811	1477191716545	1477191716797	a	65
379036	4089988	US vessels will form two separate training units.	US vessels will form two separate training units.	194294801	1477191716602	1477191716620	r	82
379036	4089988	US vessels will form two separate training units.	US vessels will form two separate training units.	194294807	1477191716659	1477191716686	r	82
379036	4089988	US vessels will form two separate training units.	US vessels will form two separate training units.	194294816	1477191716841	1477191717041	t	84
379036	4089988	US vessels will form two separate training units.	US vessels will form two separate training units.	194294818	1477191717245	1477191717361	BKSP	8
379036	4089988	US vessels will form two separate training units.	US vessels will form two separate training units.	194294821	1477191717447	1477191717537	BKSP	8
379036	4089988	US vessels will form two separate training units.	US vessels will form two separate training units.	194294824	1477191717601	1477191717767	BKSP	8
379036	4089988	US vessels will form two separate training units.	US vessels will form two separate training units.	194294828	1477191717796	1477191717961	t	84
379036	4089988	US vessels will form two separate training units.	US vessels will form two separate training units.	194294908	1477191718222	1477191718447	r	82
379036	4089988	US vessels will form two separate training units.	US vessels will form two separate training units.	194294910	1477191718607	1477191718740	BKSP	8
379036	4089988	US vessels will form two separate training units.	US vessels will form two separate training units.	194294913	1477191718710	1477191718921	e	69
379036	4089988	US vessels will form two separate training units.	US vessels will form two separate training units.	194294916	1477191719013	1477191719190	 	32
379036	4089988	US vessels will form two separate training units.	US vessels will form two separate training units.	194294919	1477191720086	1477191720321	t	84
379036	4089988	US vessels will form two separate training units.	US vessels will form two separate training units.	194295019	1477191720202	1477191720378	r	82
379036	4089988	US vessels will form two separate training units.	US vessels will form two separate training units.	194295021	1477191720486	1477191720675	a	65
379036	4089988	US vessels will form two separate training units.	US vessels will form two separate training units.	194295024	1477191720667	1477191720866	i	73
379036	4089988	US vessels will form two separate training units.	US vessels will form two separate training units.	194295027	1477191720769	1477191720947	n	78
379036	4089988	US vessels will form two separate training units.	US vessels will form two separate training units.	194295030	1477191721296	1477191721412	BKSP	8
379036	4089988	US vessels will form two separate training units.	US vessels will form two separate training units.	194295032	1477191722138	1477191722261	n	78
379036	4089988	US vessels will form two separate training units.	US vessels will form two separate training units.	194295034	1477191722291	1477191722536	i	73
379036	4089988	US vessels will form two separate training units.	US vessels will form two separate training units.	194295071	1477191722466	1477191722649	n	78
379036	4089988	US vessels will form two separate training units.	US vessels will form two separate training units.	194295073	1477191722546	1477191722741	g	71
379036	4089988	US vessels will form two separate training units.	US vessels will form two separate training units.	194295075	1477191722795	1477191722968	 	32
379036	4089988	US vessels will form two separate training units.	US vessels will form two separate training units.	194295079	1477191723614	1477191723787	u	85
379036	4089988	US vessels will form two separate training units.	US vessels will form two separate training units.	194295081	1477191723733	1477191723936	n	78
379036	4089988	US vessels will form two separate training units.	US vessels will form two separate training units.	194295128	1477191723892	1477191724086	i	73
379036	4089988	US vessels will form two separate training units.	US vessels will form two separate training units.	194295129	1477191724017	1477191724162	y	84
379036	4089988	US vessels will form two separate training units.	US vessels will form two separate training units.	194295130	1477191724267	1477191724469	s	83
379036	4089988	US vessels will form two separate training units.	US vessels will form two separate training units.	194295131	1477191724719	1477191724792	\	8
379036	4089988	US vessels will form two separate training units.	US vessels will form two separate training units.	194295133	1477191724901	1477191725006	BKSP	8
379036	4089988	US vessels will form two separate training units.	US vessels will form two separate training units.	194295132	1477191724907	1477191724933	INSERT	45
379036	4089988	US vessels will form two separate training units.	US vessels will form two separate training units.	194295134	1477191725099	1477191725227	BKSP	8
379036	4089988	US vessels will form two separate training units.	US vessels will form two separate training units.	194295135	1477191725377	1477191725553	s	83
379036	4089988	US vessels will form two separate training units.	US vessels will form two separate training units.	194295158	1477191725782	1477191725905	BKSP	8
379036	4089988	US vessels will form two separate training units.	US vessels will form two separate training units.	194295161	1477191726427	1477191726544	s	83
379036	4089988	US vessels will form two separate training units.	US vessels will form two separate training units.	194295165	1477191726776	1477191726880	.	190
379036	4090021	Please call tomorrow if possible.	Please call tomorrow if possible.	194295383	1477191731130	1477191731246	k	75
379036	4090021	Please call tomorrow if possible.	Please call tomorrow if possible.	194295385	1477191732673	1477191732816	BKSP	8
379036	4090021	Please call tomorrow if possible.	Please call tomorrow if possible.	194295389	1477191733092	1477191733946	SHIFT	16
379036	4090021	Please call tomorrow if possible.	Please call tomorrow if possible.	194295387	1477191733502	1477191733618	O	80
379036	4090021	Please call tomorrow if possible.	Please call tomorrow if possible.	194295391	1477191733954	1477191734067	BKSP	8
379036	4090021	Please call tomorrow if possible.	Please call tomorrow if possible.	194295394	1477191734139	1477191734217	BKSP	8
379036	4090021	Please call tomorrow if possible.	Please call tomorrow if possible.	194295490	1477191734645	1477191736113	SHIFT	16
379036	4090021	Please call tomorrow if possible.	Please call tomorrow if possible.	194295396	1477191734939	1477191735025	P	79
379036	4090021	Please call tomorrow if possible.	Please call tomorrow if possible.	194295487	1477191735535	1477191735594	P	80
379036	4090021	Please call tomorrow if possible.	Please call tomorrow if possible.	194295488	1477191735794	1477191735913	BKSP	8
379036	4090021	Please call tomorrow if possible.	Please call tomorrow if possible.	194295491	1477191736017	1477191736167	BKSP	8
379036	4090021	Please call tomorrow if possible.	Please call tomorrow if possible.	194295492	1477191736217	1477191736312	BKSP	8
379036	4090021	Please call tomorrow if possible.	Please call tomorrow if possible.	194295493	1477191736437	1477191736491	BKSP	8
379036	4090021	Please call tomorrow if possible.	Please call tomorrow if possible.	194295496	1477191736522	1477191737382	SHIFT	16
379036	4090021	Please call tomorrow if possible.	Please call tomorrow if possible.	194295494	1477191737177	1477191737319	P	80
379036	4090021	Please call tomorrow if possible.	Please call tomorrow if possible.	194295499	1477191737633	1477191737788	l	76
379036	4090021	Please call tomorrow if possible.	Please call tomorrow if possible.	194295502	1477191738088	1477191738367	e	69
379036	4090021	Please call tomorrow if possible.	Please call tomorrow if possible.	194295540	1477191738244	1477191738537	a	65
379036	4090021	Please call tomorrow if possible.	Please call tomorrow if possible.	194295542	1477191738461	1477191738610	s	83
379036	4090021	Please call tomorrow if possible.	Please call tomorrow if possible.	194295546	1477191738699	1477191738830	e	69
379036	4090021	Please call tomorrow if possible.	Please call tomorrow if possible.	194295548	1477191738910	1477191739042	 	32
379036	4090021	Please call tomorrow if possible.	Please call tomorrow if possible.	194295550	1477191739898	1477191740182	c	67
379036	4090021	Please call tomorrow if possible.	Please call tomorrow if possible.	194295597	1477191740005	1477191740220	a	65
379036	4090021	Please call tomorrow if possible.	Please call tomorrow if possible.	194295599	1477191740163	1477191740295	l	76
379036	4090021	Please call tomorrow if possible.	Please call tomorrow if possible.	194295602	1477191740351	1477191740476	l	76
379036	4090021	Please call tomorrow if possible.	Please call tomorrow if possible.	194295606	1477191740500	1477191740662	 	32
379036	4090021	Please call tomorrow if possible.	Please call tomorrow if possible.	194295611	1477191741287	1477191741428	t	84
379036	4090021	Please call tomorrow if possible.	Please call tomorrow if possible.	194295614	1477191741470	1477191741683	o	79
379036	4090021	Please call tomorrow if possible.	Please call tomorrow if possible.	194295658	1477191741635	1477191741821	m	77
379036	4090021	Please call tomorrow if possible.	Please call tomorrow if possible.	194295659	1477191742577	1477191742723	o	79
379036	4090021	Please call tomorrow if possible.	Please call tomorrow if possible.	194295660	1477191743041	1477191743194	r	82
379036	4090021	Please call tomorrow if possible.	Please call tomorrow if possible.	194295661	1477191743290	1477191743508	r	82
379036	4090021	Please call tomorrow if possible.	Please call tomorrow if possible.	194295663	1477191743482	1477191743610	o	79
379036	4090021	Please call tomorrow if possible.	Please call tomorrow if possible.	194295719	1477191743588	1477191743810	w	87
379036	4090021	Please call tomorrow if possible.	Please call tomorrow if possible.	194295721	1477191743901	1477191744123	 	32
379036	4090021	Please call tomorrow if possible.	Please call tomorrow if possible.	194295724	1477191744790	1477191744919	i	73
379036	4090021	Please call tomorrow if possible.	Please call tomorrow if possible.	194295727	1477191745040	1477191745170	f	70
379036	4090021	Please call tomorrow if possible.	Please call tomorrow if possible.	194295730	1477191745330	1477191745479	 	32
379036	4090021	Please call tomorrow if possible.	Please call tomorrow if possible.	194295732	1477191745674	1477191745807	p	80
379036	4090021	Please call tomorrow if possible.	Please call tomorrow if possible.	194295777	1477191746107	1477191746282	r	82
379036	4090021	Please call tomorrow if possible.	Please call tomorrow if possible.	194295779	1477191746509	1477191746651	BKSP	8
379036	4090021	Please call tomorrow if possible.	Please call tomorrow if possible.	194295783	1477191747382	1477191747507	o	79
379036	4090021	Please call tomorrow if possible.	Please call tomorrow if possible.	194295785	1477191747799	1477191747849	s	83
379036	4090021	Please call tomorrow if possible.	Please call tomorrow if possible.	194295787	1477191747933	1477191748062	s	83
379036	4090021	Please call tomorrow if possible.	Please call tomorrow if possible.	194295790	1477191748165	1477191748242	s	83
379036	4090021	Please call tomorrow if possible.	Please call tomorrow if possible.	194295817	1477191748701	1477191748825	BKSP	8
379036	4090021	Please call tomorrow if possible.	Please call tomorrow if possible.	194295818	1477191748991	1477191749102	i	73
379036	4090021	Please call tomorrow if possible.	Please call tomorrow if possible.	194295819	1477191749575	1477191749727	b	66
379036	4090021	Please call tomorrow if possible.	Please call tomorrow if possible.	194295820	1477191749652	1477191749794	l	76
379036	4090021	Please call tomorrow if possible.	Please call tomorrow if possible.	194295821	1477191749820	1477191749966	e	87
379036	4090021	Please call tomorrow if possible.	Please call tomorrow if possible.	194295883	1477191750277	1477191750393	BKSP	8
379036	4090021	Please call tomorrow if possible.	Please call tomorrow if possible.	194295885	1477191750437	1477191750566	BKSP	8
379036	4090021	Please call tomorrow if possible.	Please call tomorrow if possible.	194295887	1477191750540	1477191750726	e	69
379036	4090021	Please call tomorrow if possible.	Please call tomorrow if possible.	194295889	1477191751392	1477191751499	.	190
379036	4090036	Don't make me pull tapes on whether you understood our fee.	Don't make me pull tapes on whether you understood our fee	194296038	1477191755122	1477191755920	SHIFT	16
379036	4090036	Don't make me pull tapes on whether you understood our fee.	Don't make me pull tapes on whether you understood our fee	194296040	1477191755806	1477191755966	D	68
379036	4090036	Don't make me pull tapes on whether you understood our fee.	Don't make me pull tapes on whether you understood our fee	194296042	1477191756227	1477191756412	o	79
379036	4090036	Don't make me pull tapes on whether you understood our fee.	Don't make me pull tapes on whether you understood our fee	194296044	1477191756327	1477191756537	n	78
379036	4090036	Don't make me pull tapes on whether you understood our fee.	Don't make me pull tapes on whether you understood our fee	194296046	1477191756533	1477191756708	t	84
379036	4090036	Don't make me pull tapes on whether you understood our fee.	Don't make me pull tapes on whether you understood our fee	194296047	1477191756733	1477191756956	;	186
379036	4090036	Don't make me pull tapes on whether you understood our fee.	Don't make me pull tapes on whether you understood our fee	194296121	1477191757292	1477191757414	BKSP	8
379036	4090036	Don't make me pull tapes on whether you understood our fee.	Don't make me pull tapes on whether you understood our fee	194296122	1477191757452	1477191757539	BKSP	8
379036	4090036	Don't make me pull tapes on whether you understood our fee.	Don't make me pull tapes on whether you understood our fee	194296123	1477191757593	1477191757693	BKSP	8
379036	4090036	Don't make me pull tapes on whether you understood our fee.	Don't make me pull tapes on whether you understood our fee	194296124	1477191759000	1477191759194	n	78
379036	4090036	Don't make me pull tapes on whether you understood our fee.	Don't make me pull tapes on whether you understood our fee	194296125	1477191759118	1477191759251	'	222
379036	4090036	Don't make me pull tapes on whether you understood our fee.	Don't make me pull tapes on whether you understood our fee	194296126	1477191759323	1477191759484	t	84
379036	4090036	Don't make me pull tapes on whether you understood our fee.	Don't make me pull tapes on whether you understood our fee	194296127	1477191759589	1477191759730	 	32
379036	4090036	Don't make me pull tapes on whether you understood our fee.	Don't make me pull tapes on whether you understood our fee	194296128	1477191760801	1477191760958	m	77
379036	4090036	Don't make me pull tapes on whether you understood our fee.	Don't make me pull tapes on whether you understood our fee	194296209	1477191760846	1477191761045	a	65
379036	4090036	Don't make me pull tapes on whether you understood our fee.	Don't make me pull tapes on whether you understood our fee	194296211	1477191761065	1477191761182	k	76
379036	4090036	Don't make me pull tapes on whether you understood our fee.	Don't make me pull tapes on whether you understood our fee	194296213	1477191761146	1477191761361	e	69
379036	4090036	Don't make me pull tapes on whether you understood our fee.	Don't make me pull tapes on whether you understood our fee	194296214	1477191761692	1477191761791	BKSP	8
379036	4090036	Don't make me pull tapes on whether you understood our fee.	Don't make me pull tapes on whether you understood our fee	194296216	1477191761852	1477191761959	BKSP	8
379036	4090036	Don't make me pull tapes on whether you understood our fee.	Don't make me pull tapes on whether you understood our fee	194296218	1477191762010	1477191762148	BKSP	8
379036	4090036	Don't make me pull tapes on whether you understood our fee.	Don't make me pull tapes on whether you understood our fee	194296221	1477191762871	1477191762974	k	75
379036	4090036	Don't make me pull tapes on whether you understood our fee.	Don't make me pull tapes on whether you understood our fee	194296225	1477191762977	1477191763137	e	69
379036	4090036	Don't make me pull tapes on whether you understood our fee.	Don't make me pull tapes on whether you understood our fee	194296314	1477191763145	1477191763306	 	32
379036	4090036	Don't make me pull tapes on whether you understood our fee.	Don't make me pull tapes on whether you understood our fee	194296317	1477191764107	1477191764210	m	77
379036	4090036	Don't make me pull tapes on whether you understood our fee.	Don't make me pull tapes on whether you understood our fee	194296319	1477191764204	1477191764384	e	69
379036	4090036	Don't make me pull tapes on whether you understood our fee.	Don't make me pull tapes on whether you understood our fee	194296322	1477191764376	1477191764558	 	32
379036	4090036	Don't make me pull tapes on whether you understood our fee.	Don't make me pull tapes on whether you understood our fee	194296324	1477191765412	1477191765541	p	80
379036	4090036	Don't make me pull tapes on whether you understood our fee.	Don't make me pull tapes on whether you understood our fee	194296390	1477191765549	1477191765709	e	69
379036	4090036	Don't make me pull tapes on whether you understood our fee.	Don't make me pull tapes on whether you understood our fee	194296392	1477191765813	1477191765897	l	76
379036	4090036	Don't make me pull tapes on whether you understood our fee.	Don't make me pull tapes on whether you understood our fee	194296394	1477191766309	1477191766406	BKSP	8
379036	4090036	Don't make me pull tapes on whether you understood our fee.	Don't make me pull tapes on whether you understood our fee	194296395	1477191766457	1477191766561	BKSP	8
379036	4090036	Don't make me pull tapes on whether you understood our fee.	Don't make me pull tapes on whether you understood our fee	194296396	1477191767360	1477191767495	u	85
379036	4090036	Don't make me pull tapes on whether you understood our fee.	Don't make me pull tapes on whether you understood our fee	194296397	1477191767559	1477191767654	l	76
379036	4090036	Don't make me pull tapes on whether you understood our fee.	Don't make me pull tapes on whether you understood our fee	194296398	1477191767710	1477191767797	l	76
379036	4090036	Don't make me pull tapes on whether you understood our fee.	Don't make me pull tapes on whether you understood our fee	194296438	1477191767851	1477191767985	 	32
379036	4090036	Don't make me pull tapes on whether you understood our fee.	Don't make me pull tapes on whether you understood our fee	194296440	1477191769136	1477191769420	t	84
379036	4090036	Don't make me pull tapes on whether you understood our fee.	Don't make me pull tapes on whether you understood our fee	194296442	1477191769315	1477191769536	a	65
379036	4090036	Don't make me pull tapes on whether you understood our fee.	Don't make me pull tapes on whether you understood our fee	194296513	1477191769488	1477191769664	p	80
379036	4090036	Don't make me pull tapes on whether you understood our fee.	Don't make me pull tapes on whether you understood our fee	194296509	1477191769524	1477191769607	[	219
379036	4090036	Don't make me pull tapes on whether you understood our fee.	Don't make me pull tapes on whether you understood our fee	194296515	1477191769728	1477191769883	e	69
379036	4090036	Don't make me pull tapes on whether you understood our fee.	Don't make me pull tapes on whether you understood our fee	194296518	1477191769966	1477191770083	BKSP	8
379036	4090036	Don't make me pull tapes on whether you understood our fee.	Don't make me pull tapes on whether you understood our fee	194296520	1477191770135	1477191770233	BKSP	8
379036	4090036	Don't make me pull tapes on whether you understood our fee.	Don't make me pull tapes on whether you understood our fee	194296522	1477191770285	1477191770371	BKSP	8
379036	4090036	Don't make me pull tapes on whether you understood our fee.	Don't make me pull tapes on whether you understood our fee	194296525	1477191770381	1477191770601	e	69
379036	4090036	Don't make me pull tapes on whether you understood our fee.	Don't make me pull tapes on whether you understood our fee	194296527	1477191770871	1477191771045	BKSP	8
379036	4090036	Don't make me pull tapes on whether you understood our fee.	Don't make me pull tapes on whether you understood our fee	194296529	1477191771538	1477191771666	p	80
379036	4090036	Don't make me pull tapes on whether you understood our fee.	Don't make me pull tapes on whether you understood our fee	194296532	1477191771695	1477191771982	e	69
379036	4090036	Don't make me pull tapes on whether you understood our fee.	Don't make me pull tapes on whether you understood our fee	194296601	1477191771908	1477191772096	s	83
379036	4090036	Don't make me pull tapes on whether you understood our fee.	Don't make me pull tapes on whether you understood our fee	194296602	1477191772191	1477191772383	 	32
379036	4090036	Don't make me pull tapes on whether you understood our fee.	Don't make me pull tapes on whether you understood our fee	194296604	1477191773393	1477191773580	o	79
379036	4090036	Don't make me pull tapes on whether you understood our fee.	Don't make me pull tapes on whether you understood our fee	194296605	1477191773485	1477191773664	n	78
379036	4090036	Don't make me pull tapes on whether you understood our fee.	Don't make me pull tapes on whether you understood our fee	194296608	1477191773575	1477191773730	 	32
379036	4090036	Don't make me pull tapes on whether you understood our fee.	Don't make me pull tapes on whether you understood our fee	194296612	1477191773898	1477191774083	w	87
379036	4090036	Don't make me pull tapes on whether you understood our fee.	Don't make me pull tapes on whether you understood our fee	194296706	1477191774248	1477191774460	e	69
379036	4090036	Don't make me pull tapes on whether you understood our fee.	Don't make me pull tapes on whether you understood our fee	194296710	1477191774878	1477191775135	t	84
379036	4090036	Don't make me pull tapes on whether you understood our fee.	Don't make me pull tapes on whether you understood our fee	194296708	1477191774941	1477191775077	h	72
379036	4090036	Don't make me pull tapes on whether you understood our fee.	Don't make me pull tapes on whether you understood our fee	194296711	1477191775183	1477191775421	e	69
379036	4090036	Don't make me pull tapes on whether you understood our fee.	Don't make me pull tapes on whether you understood our fee	194296712	1477191776059	1477191776291	e	69
379036	4090036	Don't make me pull tapes on whether you understood our fee.	Don't make me pull tapes on whether you understood our fee	194296812	1477191776261	1477191776490	r	82
379036	4090036	Don't make me pull tapes on whether you understood our fee.	Don't make me pull tapes on whether you understood our fee	194296814	1477191776595	1477191776698	BKSP	8
379036	4090036	Don't make me pull tapes on whether you understood our fee.	Don't make me pull tapes on whether you understood our fee	194296817	1477191776760	1477191776988	BKSP	8
379036	4090036	Don't make me pull tapes on whether you understood our fee.	Don't make me pull tapes on whether you understood our fee	194296819	1477191777014	1477191777108	BKSP	8
379036	4090036	Don't make me pull tapes on whether you understood our fee.	Don't make me pull tapes on whether you understood our fee	194296821	1477191777163	1477191777281	BKSP	8
379036	4090036	Don't make me pull tapes on whether you understood our fee.	Don't make me pull tapes on whether you understood our fee	194296823	1477191777323	1477191777422	BKSP	8
379036	4090036	Don't make me pull tapes on whether you understood our fee.	Don't make me pull tapes on whether you understood our fee	194296826	1477191777581	1477191777674	BKSP	8
379036	4090036	Don't make me pull tapes on whether you understood our fee.	Don't make me pull tapes on whether you understood our fee	194296827	1477191778313	1477191778421	h	72
379036	4090036	Don't make me pull tapes on whether you understood our fee.	Don't make me pull tapes on whether you understood our fee	194296829	1477191778792	1477191778965	e	69
379036	4090036	Don't make me pull tapes on whether you understood our fee.	Don't make me pull tapes on whether you understood our fee	194296830	1477191779535	1477191779691	t	84
379036	4090036	Don't make me pull tapes on whether you understood our fee.	Don't make me pull tapes on whether you understood our fee	194296831	1477191779618	1477191779738	h	72
379036	4090036	Don't make me pull tapes on whether you understood our fee.	Don't make me pull tapes on whether you understood our fee	194296832	1477191779768	1477191779989	e	69
379036	4090036	Don't make me pull tapes on whether you understood our fee.	Don't make me pull tapes on whether you understood our fee	194296867	1477191779898	1477191780089	r	82
379036	4090036	Don't make me pull tapes on whether you understood our fee.	Don't make me pull tapes on whether you understood our fee	194296868	1477191780147	1477191780285	 	32
379036	4090036	Don't make me pull tapes on whether you understood our fee.	Don't make me pull tapes on whether you understood our fee	194296869	1477191781466	1477191781652	y	89
379036	4090036	Don't make me pull tapes on whether you understood our fee.	Don't make me pull tapes on whether you understood our fee	194296870	1477191781653	1477191781754	o	79
379036	4090036	Don't make me pull tapes on whether you understood our fee.	Don't make me pull tapes on whether you understood our fee	194296871	1477191781756	1477191781927	u	85
379036	4090036	Don't make me pull tapes on whether you understood our fee.	Don't make me pull tapes on whether you understood our fee	194296872	1477191781936	1477191782056	 	32
379036	4090036	Don't make me pull tapes on whether you understood our fee.	Don't make me pull tapes on whether you understood our fee	194296933	1477191782962	1477191783137	u	85
379036	4090036	Don't make me pull tapes on whether you understood our fee.	Don't make me pull tapes on whether you understood our fee	194296934	1477191783058	1477191783236	n	78
379036	4090036	Don't make me pull tapes on whether you understood our fee.	Don't make me pull tapes on whether you understood our fee	194296935	1477191783283	1477191783473	d	68
379036	4090036	Don't make me pull tapes on whether you understood our fee.	Don't make me pull tapes on whether you understood our fee	194296937	1477191783448	1477191783678	e	69
379036	4090036	Don't make me pull tapes on whether you understood our fee.	Don't make me pull tapes on whether you understood our fee	194296991	1477191783582	1477191783831	r	82
379036	4090036	Don't make me pull tapes on whether you understood our fee.	Don't make me pull tapes on whether you understood our fee	194296993	1477191783770	1477191783938	s	83
379036	4090036	Don't make me pull tapes on whether you understood our fee.	Don't make me pull tapes on whether you understood our fee	194296995	1477191784061	1477191784192	t	89
379036	4090036	Don't make me pull tapes on whether you understood our fee.	Don't make me pull tapes on whether you understood our fee	194296997	1477191784525	1477191784618	BKSP	8
379036	4090036	Don't make me pull tapes on whether you understood our fee.	Don't make me pull tapes on whether you understood our fee	194296999	1477191784678	1477191784763	BKSP	8
379036	4090036	Don't make me pull tapes on whether you understood our fee.	Don't make me pull tapes on whether you understood our fee	194297000	1477191785476	1477191785615	t	84
379036	4090036	Don't make me pull tapes on whether you understood our fee.	Don't make me pull tapes on whether you understood our fee	194297001	1477191785671	1477191785745	o	79
379036	4090036	Don't make me pull tapes on whether you understood our fee.	Don't make me pull tapes on whether you understood our fee	194297072	1477191785803	1477191785895	o	79
379036	4090036	Don't make me pull tapes on whether you understood our fee.	Don't make me pull tapes on whether you understood our fee	194297076	1477191785976	1477191786186	d	68
379036	4090036	Don't make me pull tapes on whether you understood our fee.	Don't make me pull tapes on whether you understood our fee	194297080	1477191786362	1477191786537	 	32
379036	4090036	Don't make me pull tapes on whether you understood our fee.	Don't make me pull tapes on whether you understood our fee	194297083	1477191787381	1477191787611	o	79
379036	4090036	Don't make me pull tapes on whether you understood our fee.	Don't make me pull tapes on whether you understood our fee	194297143	1477191787563	1477191787714	u	85
379036	4090036	Don't make me pull tapes on whether you understood our fee.	Don't make me pull tapes on whether you understood our fee	194297145	1477191787808	1477191787998	r	82
379036	4090036	Don't make me pull tapes on whether you understood our fee.	Don't make me pull tapes on whether you understood our fee	194297148	1477191787999	1477191788142	 	32
379036	4090036	Don't make me pull tapes on whether you understood our fee.	Don't make me pull tapes on whether you understood our fee	194297150	1477191788756	1477191788872	f	70
379036	4090036	Don't make me pull tapes on whether you understood our fee.	Don't make me pull tapes on whether you understood our fee	194297151	1477191788978	1477191789082	e	69
379036	4090036	Don't make me pull tapes on whether you understood our fee.	Don't make me pull tapes on whether you understood our fee	194297153	1477191789143	1477191789257	e	69
379036	4090065	Some million shares changed hands on the New York Stock.	Some million shares changed hands on the New York Stock.	194297546	1477191796649	1477191796804	s	83
379036	4090065	Some million shares changed hands on the New York Stock.	Some million shares changed hands on the New York Stock.	194297548	1477191796987	1477191797112	BKSP	8
379036	4090065	Some million shares changed hands on the New York Stock.	Some million shares changed hands on the New York Stock.	194297554	1477191797166	1477191797791	SHIFT	16
379036	4090065	Some million shares changed hands on the New York Stock.	Some million shares changed hands on the New York Stock.	194297551	1477191797499	1477191797706	A	83
379036	4090065	Some million shares changed hands on the New York Stock.	Some million shares changed hands on the New York Stock.	194297556	1477191797982	1477191798082	BKSP	8
379036	4090065	Some million shares changed hands on the New York Stock.	Some million shares changed hands on the New York Stock.	194297559	1477191798175	1477191798240	BKSP	8
379036	4090065	Some million shares changed hands on the New York Stock.	Some million shares changed hands on the New York Stock.	194297564	1477191798633	1477191799027	SHIFT	16
379036	4090065	Some million shares changed hands on the New York Stock.	Some million shares changed hands on the New York Stock.	194297562	1477191798793	1477191798992	S	83
379036	4090065	Some million shares changed hands on the New York Stock.	Some million shares changed hands on the New York Stock.	194297566	1477191799195	1477191799404	o	79
379036	4090065	Some million shares changed hands on the New York Stock.	Some million shares changed hands on the New York Stock.	194297598	1477191799293	1477191799477	m	77
379036	4090065	Some million shares changed hands on the New York Stock.	Some million shares changed hands on the New York Stock.	194297600	1477191799409	1477191799683	r	69
379036	4090065	Some million shares changed hands on the New York Stock.	Some million shares changed hands on the New York Stock.	194297602	1477191799816	1477191800003	 	32
379036	4090065	Some million shares changed hands on the New York Stock.	Some million shares changed hands on the New York Stock.	194297604	1477191800739	1477191800843	BKSP	8
379036	4090065	Some million shares changed hands on the New York Stock.	Some million shares changed hands on the New York Stock.	194297606	1477191800898	1477191801043	BKSP	8
379036	4090065	Some million shares changed hands on the New York Stock.	Some million shares changed hands on the New York Stock.	194297608	1477191801069	1477191801214	 	32
379036	4090065	Some million shares changed hands on the New York Stock.	Some million shares changed hands on the New York Stock.	194297610	1477191801811	1477191802020	m	77
379036	4090065	Some million shares changed hands on the New York Stock.	Some million shares changed hands on the New York Stock.	194297680	1477191801971	1477191802111	i	73
379036	4090065	Some million shares changed hands on the New York Stock.	Some million shares changed hands on the New York Stock.	194297683	1477191802239	1477191802352	l	76
379036	4090065	Some million shares changed hands on the New York Stock.	Some million shares changed hands on the New York Stock.	194297688	1477191802374	1477191802470	l	76
379036	4090065	Some million shares changed hands on the New York Stock.	Some million shares changed hands on the New York Stock.	194297692	1477191802557	1477191802623	l	76
379036	4090065	Some million shares changed hands on the New York Stock.	Some million shares changed hands on the New York Stock.	194297696	1477191802973	1477191803087	BKSP	8
379036	4090065	Some million shares changed hands on the New York Stock.	Some million shares changed hands on the New York Stock.	194297699	1477191803198	1477191803369	BKSP	8
379036	4090065	Some million shares changed hands on the New York Stock.	Some million shares changed hands on the New York Stock.	194297704	1477191803436	1477191803586	BKSP	8
379036	4090065	Some million shares changed hands on the New York Stock.	Some million shares changed hands on the New York Stock.	194297709	1477191804346	1477191804427	l	76
379036	4090065	Some million shares changed hands on the New York Stock.	Some million shares changed hands on the New York Stock.	194297714	1477191804483	1477191804590	l	76
379036	4090065	Some million shares changed hands on the New York Stock.	Some million shares changed hands on the New York Stock.	194297768	1477191804734	1477191804907	i	73
379036	4090065	Some million shares changed hands on the New York Stock.	Some million shares changed hands on the New York Stock.	194297771	1477191804935	1477191805185	o	79
379036	4090065	Some million shares changed hands on the New York Stock.	Some million shares changed hands on the New York Stock.	194297773	1477191805103	1477191805294	n	78
379036	4090065	Some million shares changed hands on the New York Stock.	Some million shares changed hands on the New York Stock.	194297775	1477191805317	1477191805481	 	32
379036	4090065	Some million shares changed hands on the New York Stock.	Some million shares changed hands on the New York Stock.	194297777	1477191806043	1477191806195	s	83
379036	4090065	Some million shares changed hands on the New York Stock.	Some million shares changed hands on the New York Stock.	194297868	1477191806145	1477191806276	h	72
379036	4090065	Some million shares changed hands on the New York Stock.	Some million shares changed hands on the New York Stock.	194297870	1477191806257	1477191806469	a	65
379036	4090065	Some million shares changed hands on the New York Stock.	Some million shares changed hands on the New York Stock.	194297875	1477191806757	1477191806825	h	72
379036	4090065	Some million shares changed hands on the New York Stock.	Some million shares changed hands on the New York Stock.	194297879	1477191807202	1477191807334	BKSP	8
379036	4090065	Some million shares changed hands on the New York Stock.	Some million shares changed hands on the New York Stock.	194297885	1477191807358	1477191807611	r	82
379036	4090065	Some million shares changed hands on the New York Stock.	Some million shares changed hands on the New York Stock.	194297890	1477191807476	1477191807778	e	69
379036	4090065	Some million shares changed hands on the New York Stock.	Some million shares changed hands on the New York Stock.	194297893	1477191807937	1477191808127	s	83
379036	4090065	Some million shares changed hands on the New York Stock.	Some million shares changed hands on the New York Stock.	194297942	1477191808232	1477191808383	 	32
379036	4090065	Some million shares changed hands on the New York Stock.	Some million shares changed hands on the New York Stock.	194297945	1477191809097	1477191809250	c	67
379036	4090065	Some million shares changed hands on the New York Stock.	Some million shares changed hands on the New York Stock.	194297949	1477191809183	1477191809307	h	72
379036	4090065	Some million shares changed hands on the New York Stock.	Some million shares changed hands on the New York Stock.	194297950	1477191809288	1477191809499	a	65
379036	4090065	Some million shares changed hands on the New York Stock.	Some million shares changed hands on the New York Stock.	194297955	1477191809562	1477191809758	n	78
379036	4090065	Some million shares changed hands on the New York Stock.	Some million shares changed hands on the New York Stock.	194298026	1477191809802	1477191809960	g	71
379036	4090065	Some million shares changed hands on the New York Stock.	Some million shares changed hands on the New York Stock.	194298028	1477191809999	1477191810200	e	69
379036	4090065	Some million shares changed hands on the New York Stock.	Some million shares changed hands on the New York Stock.	194298030	1477191810228	1477191810416	d	68
379036	4090065	Some million shares changed hands on the New York Stock.	Some million shares changed hands on the New York Stock.	194298032	1477191810476	1477191810607	 	32
379036	4090065	Some million shares changed hands on the New York Stock.	Some million shares changed hands on the New York Stock.	194298035	1477191811161	1477191811328	h	72
379036	4090065	Some million shares changed hands on the New York Stock.	Some million shares changed hands on the New York Stock.	194298124	1477191811294	1477191811466	a	65
379036	4090065	Some million shares changed hands on the New York Stock.	Some million shares changed hands on the New York Stock.	194298126	1477191811440	1477191811562	n	78
379036	4090065	Some million shares changed hands on the New York Stock.	Some million shares changed hands on the New York Stock.	194298129	1477191811770	1477191812002	d	68
379036	4090065	Some million shares changed hands on the New York Stock.	Some million shares changed hands on the New York Stock.	194298132	1477191811926	1477191812149	s	83
379036	4090065	Some million shares changed hands on the New York Stock.	Some million shares changed hands on the New York Stock.	194298135	1477191812170	1477191812370	 	32
379036	4090065	Some million shares changed hands on the New York Stock.	Some million shares changed hands on the New York Stock.	194298139	1477191813086	1477191813359	o	79
379036	4090065	Some million shares changed hands on the New York Stock.	Some million shares changed hands on the New York Stock.	194298173	1477191813414	1477191813505	n	78
379036	4090065	Some million shares changed hands on the New York Stock.	Some million shares changed hands on the New York Stock.	194298179	1477191813818	1477191813948	 	32
379036	4090065	Some million shares changed hands on the New York Stock.	Some million shares changed hands on the New York Stock.	194298186	1477191813989	1477191814200	t	84
379036	4090065	Some million shares changed hands on the New York Stock.	Some million shares changed hands on the New York Stock.	194298189	1477191814163	1477191814327	h	72
379036	4090065	Some million shares changed hands on the New York Stock.	Some million shares changed hands on the New York Stock.	194298262	1477191814323	1477191814575	e	69
379036	4090065	Some million shares changed hands on the New York Stock.	Some million shares changed hands on the New York Stock.	194298264	1477191814606	1477191814729	 	32
379036	4090065	Some million shares changed hands on the New York Stock.	Some million shares changed hands on the New York Stock.	194298270	1477191815030	1477191815456	SHIFT	16
379036	4090065	Some million shares changed hands on the New York Stock.	Some million shares changed hands on the New York Stock.	194298267	1477191815271	1477191815369	N	78
379036	4090065	Some million shares changed hands on the New York Stock.	Some million shares changed hands on the New York Stock.	194298273	1477191815662	1477191815867	e	69
379036	4090065	Some million shares changed hands on the New York Stock.	Some million shares changed hands on the New York Stock.	194298277	1477191815739	1477191815941	w	87
379036	4090065	Some million shares changed hands on the New York Stock.	Some million shares changed hands on the New York Stock.	194298325	1477191815928	1477191816036	 	32
379036	4090065	Some million shares changed hands on the New York Stock.	Some million shares changed hands on the New York Stock.	194298331	1477191816118	1477191816668	SHIFT	16
379036	4090065	Some million shares changed hands on the New York Stock.	Some million shares changed hands on the New York Stock.	194298328	1477191816478	1477191816561	Y	89
379036	4090065	Some million shares changed hands on the New York Stock.	Some million shares changed hands on the New York Stock.	194298333	1477191816980	1477191817104	o	79
379036	4090065	Some million shares changed hands on the New York Stock.	Some million shares changed hands on the New York Stock.	194298433	1477191817009	1477191817193	r	82
379036	4090065	Some million shares changed hands on the New York Stock.	Some million shares changed hands on the New York Stock.	194298436	1477191817140	1477191817291	k	75
379036	4090065	Some million shares changed hands on the New York Stock.	Some million shares changed hands on the New York Stock.	194298335	1477191817161	1477191817188	j	74
379036	4090065	Some million shares changed hands on the New York Stock.	Some million shares changed hands on the New York Stock.	194298440	1477191817372	1477191817507	 	32
379036	4090065	Some million shares changed hands on the New York Stock.	Some million shares changed hands on the New York Stock.	194298446	1477191817665	1477191817754	BKSP	8
379036	4090065	Some million shares changed hands on the New York Stock.	Some million shares changed hands on the New York Stock.	194298452	1477191817809	1477191817923	BKSP	8
379036	4090065	Some million shares changed hands on the New York Stock.	Some million shares changed hands on the New York Stock.	194298458	1477191818002	1477191818060	BKSP	8
379036	4090065	Some million shares changed hands on the New York Stock.	Some million shares changed hands on the New York Stock.	194298464	1477191818112	1477191818252	 	32
379036	4090065	Some million shares changed hands on the New York Stock.	Some million shares changed hands on the New York Stock.	194298469	1477191818567	1477191818715	BKSP	8
379036	4090065	Some million shares changed hands on the New York Stock.	Some million shares changed hands on the New York Stock.	194298477	1477191818987	1477191819092	k	75
379036	4090065	Some million shares changed hands on the New York Stock.	Some million shares changed hands on the New York Stock.	194298482	1477191819122	1477191819280	 	32
379036	4090065	Some million shares changed hands on the New York Stock.	Some million shares changed hands on the New York Stock.	194298486	1477191819821	1477191820229	SHIFT	16
379036	4090065	Some million shares changed hands on the New York Stock.	Some million shares changed hands on the New York Stock.	194298524	1477191820070	1477191820238	S	83
379036	4090065	Some million shares changed hands on the New York Stock.	Some million shares changed hands on the New York Stock.	194298529	1477191820531	1477191820680	t	84
379036	4090065	Some million shares changed hands on the New York Stock.	Some million shares changed hands on the New York Stock.	194298533	1477191820667	1477191820844	o	79
379036	4090065	Some million shares changed hands on the New York Stock.	Some million shares changed hands on the New York Stock.	194298540	1477191821014	1477191821224	c	67
379036	4090065	Some million shares changed hands on the New York Stock.	Some million shares changed hands on the New York Stock.	194298544	1477191821228	1477191821373	k	75
379036	4090065	Some million shares changed hands on the New York Stock.	Some million shares changed hands on the New York Stock.	194298547	1477191821590	1477191821743	.	190
379036	4090095	Your fax was busy for a while.	Your fax was busy for a awhile	194298736	1477191824708	1477191825598	SHIFT	16
379036	4090095	Your fax was busy for a while.	Your fax was busy for a awhile	194298734	1477191825403	1477191825563	T	89
379036	4090095	Your fax was busy for a while.	Your fax was busy for a awhile	194298739	1477191825932	1477191826069	BKSP	8
379036	4090095	Your fax was busy for a while.	Your fax was busy for a awhile	194298742	1477191827078	1477191827291	o	79
379036	4090095	Your fax was busy for a while.	Your fax was busy for a awhile	194298745	1477191827193	1477191827353	u	85
379036	4090095	Your fax was busy for a while.	Your fax was busy for a awhile	194298748	1477191827424	1477191827598	r	82
379036	4090095	Your fax was busy for a while.	Your fax was busy for a awhile	194298809	1477191827630	1477191827730	 	32
379036	4090095	Your fax was busy for a while.	Your fax was busy for a awhile	194298811	1477191828659	1477191828871	f	70
379036	4090095	Your fax was busy for a while.	Your fax was busy for a awhile	194298813	1477191828811	1477191829035	a	65
379036	4090095	Your fax was busy for a while.	Your fax was busy for a awhile	194298912	1477191829126	1477191829297	z	88
379036	4090095	Your fax was busy for a while.	Your fax was busy for a awhile	194298914	1477191829687	1477191829791	BKSP	8
379036	4090095	Your fax was busy for a while.	Your fax was busy for a awhile	194298917	1477191830041	1477191830185	 	32
379036	4090095	Your fax was busy for a while.	Your fax was busy for a awhile	194298921	1477191830639	1477191830893	w	87
379036	4090095	Your fax was busy for a while.	Your fax was busy for a awhile	194298925	1477191830766	1477191831050	a	65
379036	4090095	Your fax was busy for a while.	Your fax was busy for a awhile	194298929	1477191830932	1477191831148	s	83
379036	4090095	Your fax was busy for a while.	Your fax was busy for a awhile	194298933	1477191831151	1477191831339	 	32
379036	4090095	Your fax was busy for a while.	Your fax was busy for a awhile	194299042	1477191831605	1477191831660	a	65
379036	4090095	Your fax was busy for a while.	Your fax was busy for a awhile	194299043	1477191832268	1477191832392	BKSP	8
379036	4090095	Your fax was busy for a while.	Your fax was busy for a awhile	194299044	1477191832726	1477191832846	b	66
379036	4090095	Your fax was busy for a while.	Your fax was busy for a awhile	194299046	1477191832825	1477191832963	u	85
379036	4090095	Your fax was busy for a while.	Your fax was busy for a awhile	194299048	1477191833096	1477191833306	s	83
379036	4090095	Your fax was busy for a while.	Your fax was busy for a awhile	194299114	1477191833268	1477191833383	y	89
379036	4090095	Your fax was busy for a while.	Your fax was busy for a awhile	194299117	1477191833694	1477191833851	 	32
379036	4090095	Your fax was busy for a while.	Your fax was busy for a awhile	194299121	1477191834687	1477191834831	f	70
379036	4090095	Your fax was busy for a while.	Your fax was busy for a awhile	194299132	1477191834828	1477191835018	o	79
379036	4090095	Your fax was busy for a while.	Your fax was busy for a awhile	194299127	1477191834856	1477191834916	p	80
379036	4090095	Your fax was busy for a while.	Your fax was busy for a awhile	194299245	1477191834979	1477191835161	r	82
379036	4090095	Your fax was busy for a while.	Your fax was busy for a awhile	194299247	1477191835545	1477191835642	BKSP	8
379036	4090095	Your fax was busy for a while.	Your fax was busy for a awhile	194299250	1477191835712	1477191835843	BKSP	8
379036	4090095	Your fax was busy for a while.	Your fax was busy for a awhile	194299253	1477191835892	1477191836146	t	82
379036	4090095	Your fax was busy for a while.	Your fax was busy for a awhile	194299257	1477191836277	1477191836398	BKSP	8
379036	4090095	Your fax was busy for a while.	Your fax was busy for a awhile	194299260	1477191836480	1477191836503	BKSP	8
379036	4090095	Your fax was busy for a while.	Your fax was busy for a awhile	194299263	1477191836779	1477191836961	 	32
379036	4090095	Your fax was busy for a while.	Your fax was busy for a awhile	194299264	1477191837164	1477191837367	r	82
379036	4090095	Your fax was busy for a while.	Your fax was busy for a awhile	194299267	1477191837360	1477191837498	BKSP	8
379036	4090095	Your fax was busy for a while.	Your fax was busy for a awhile	194299268	1477191837539	1477191837671	BKSP	8
379036	4090095	Your fax was busy for a while.	Your fax was busy for a awhile	194299269	1477191837777	1477191837968	r	82
379036	4090095	Your fax was busy for a while.	Your fax was busy for a awhile	194299340	1477191838040	1477191838192	 	32
379036	4090095	Your fax was busy for a while.	Your fax was busy for a awhile	194299344	1477191838820	1477191838928	a	65
379036	4090095	Your fax was busy for a while.	Your fax was busy for a awhile	194299348	1477191838837	1477191838930	CAPS_LOCK	20
379036	4090095	Your fax was busy for a while.	Your fax was busy for a awhile	194299351	1477191839082	1477191839208	 	32
379036	4090095	Your fax was busy for a while.	Your fax was busy for a awhile	194299353	1477191840058	1477191840332	A	65
379036	4090095	Your fax was busy for a while.	Your fax was busy for a awhile	194299443	1477191840188	1477191840407	W	87
379036	4090095	Your fax was busy for a while.	Your fax was busy for a awhile	194299445	1477191840396	1477191840558	H	72
379036	4090095	Your fax was busy for a while.	Your fax was busy for a awhile	194299446	1477191840574	1477191840709	I	73
379036	4090095	Your fax was busy for a while.	Your fax was busy for a awhile	194299448	1477191840767	1477191840946	L	76
379036	4090095	Your fax was busy for a while.	Your fax was busy for a awhile	194299451	1477191840883	1477191841105	E	69
379036	4090095	Your fax was busy for a while.	Your fax was busy for a awhile	194299455	1477191841321	1477191841429	BKSP	8
379036	4090095	Your fax was busy for a while.	Your fax was busy for a awhile	194299459	1477191841567	1477191841726	CAPS_LOCK	20
379036	4090095	Your fax was busy for a while.	Your fax was busy for a awhile	194299467	1477191841801	1477191841909	BKSP	8
379036	4090095	Your fax was busy for a while.	Your fax was busy for a awhile	194299472	1477191841969	1477191842068	BKSP	8
379036	4090095	Your fax was busy for a while.	Your fax was busy for a awhile	194299476	1477191842107	1477191842199	BKSP	8
379036	4090095	Your fax was busy for a while.	Your fax was busy for a awhile	194299479	1477191842246	1477191842351	BKSP	8
379036	4090095	Your fax was busy for a while.	Your fax was busy for a awhile	194299482	1477191842641	1477191842723	BKSP	8
379036	4090095	Your fax was busy for a while.	Your fax was busy for a awhile	194299484	1477191843371	1477191843614	a	65
379036	4090095	Your fax was busy for a while.	Your fax was busy for a awhile	194299499	1477191843526	1477191843758	w	87
379036	4090095	Your fax was busy for a while.	Your fax was busy for a awhile	194299502	1477191843752	1477191843907	h	72
379036	4090095	Your fax was busy for a while.	Your fax was busy for a awhile	194299505	1477191843994	1477191844145	i	73
379036	4090095	Your fax was busy for a while.	Your fax was busy for a awhile	194299508	1477191844204	1477191844373	l	76
379036	4090095	Your fax was busy for a while.	Your fax was busy for a awhile	194299511	1477191844345	1477191844520	e	69
379036	4090119	He is here for a political meeting.	He is here for a political meeting	194299734	1477191847993	1477191848505	SHIFT	16
379036	4090119	He is here for a political meeting.	He is here for a political meeting	194299730	1477191848382	1477191848465	H	72
379036	4090119	He is here for a political meeting.	He is here for a political meeting	194299737	1477191848740	1477191848904	e	69
379036	4090119	He is here for a political meeting.	He is here for a political meeting	194299739	1477191848908	1477191849085	 	32
379036	4090119	He is here for a political meeting.	He is here for a political meeting	194299741	1477191849874	1477191850003	i	73
379036	4090119	He is here for a political meeting.	He is here for a political meeting	194299742	1477191850020	1477191850190	s	83
379036	4090119	He is here for a political meeting.	He is here for a political meeting	194299786	1477191850182	1477191850340	 	32
379036	4090119	He is here for a political meeting.	He is here for a political meeting	194299791	1477191851072	1477191851232	h	72
379036	4090119	He is here for a political meeting.	He is here for a political meeting	194299796	1477191851334	1477191851549	e	69
379036	4090119	He is here for a political meeting.	He is here for a political meeting	194299800	1477191851455	1477191851653	r	82
379036	4090119	He is here for a political meeting.	He is here for a political meeting	194299804	1477191851641	1477191851824	e	69
379036	4090119	He is here for a political meeting.	He is here for a political meeting	194299808	1477191851887	1477191851991	 	32
379036	4090119	He is here for a political meeting.	He is here for a political meeting	194299885	1477191852757	1477191852913	f	70
379036	4090119	He is here for a political meeting.	He is here for a political meeting	194299887	1477191852927	1477191853018	p	79
379036	4090119	He is here for a political meeting.	He is here for a political meeting	194299888	1477191853065	1477191853278	r	82
379036	4090119	He is here for a political meeting.	He is here for a political meeting	194299890	1477191853535	1477191853801	BKSP	8
379036	4090119	He is here for a political meeting.	He is here for a political meeting	194299891	1477191853924	1477191854050	BKSP	8
379036	4090119	He is here for a political meeting.	He is here for a political meeting	194299893	1477191854147	1477191854306	r	82
379036	4090119	He is here for a political meeting.	He is here for a political meeting	194299956	1477191854498	1477191854643	 	32
379036	4090119	He is here for a political meeting.	He is here for a political meeting	194299960	1477191854884	1477191855063	a	65
379036	4090119	He is here for a political meeting.	He is here for a political meeting	194299964	1477191854896	1477191855074	CAPS_LOCK	20
379036	4090119	He is here for a political meeting.	He is here for a political meeting	194299968	1477191855444	1477191855605	 	32
379036	4090119	He is here for a political meeting.	He is here for a political meeting	194299971	1477191856386	1477191856605	P	80
379036	4090119	He is here for a political meeting.	He is here for a political meeting	194300065	1477191856521	1477191856683	O	79
379036	4090119	He is here for a political meeting.	He is here for a political meeting	194300068	1477191856735	1477191856859	L	76
379036	4090119	He is here for a political meeting.	He is here for a political meeting	194300069	1477191856968	1477191857078	I	73
379036	4090119	He is here for a political meeting.	He is here for a political meeting	194300071	1477191857223	1477191857391	T	84
379036	4090119	He is here for a political meeting.	He is here for a political meeting	194300074	1477191858054	1477191858196	CAPS_LOCK	20
379036	4090119	He is here for a political meeting.	He is here for a political meeting	194300079	1477191858267	1477191858373	BKSP	8
379036	4090119	He is here for a political meeting.	He is here for a political meeting	194300082	1477191858454	1477191858549	BKSP	8
379036	4090119	He is here for a political meeting.	He is here for a political meeting	194300086	1477191858594	1477191858685	BKSP	8
379036	4090119	He is here for a political meeting.	He is here for a political meeting	194300088	1477191858749	1477191858895	BKSP	8
379036	4090119	He is here for a political meeting.	He is here for a political meeting	194300089	1477191859016	1477191859127	BKSP	8
379036	4090119	He is here for a political meeting.	He is here for a political meeting	194300090	1477191859820	1477191860051	p	80
379036	4090119	He is here for a political meeting.	He is here for a political meeting	194300146	1477191859918	1477191860108	o	79
379036	4090119	He is here for a political meeting.	He is here for a political meeting	194300147	1477191860179	1477191860310	l	76
379036	4090119	He is here for a political meeting.	He is here for a political meeting	194300148	1477191860409	1477191860520	i	73
379036	4090119	He is here for a political meeting.	He is here for a political meeting	194300149	1477191860792	1477191860992	t	84
379036	4090119	He is here for a political meeting.	He is here for a political meeting	194300150	1477191861204	1477191861325	i	73
379036	4090119	He is here for a political meeting.	He is here for a political meeting	194300151	1477191862250	1477191862534	c	67
379036	4090119	He is here for a political meeting.	He is here for a political meeting	194300219	1477191862366	1477191862628	a	65
379036	4090119	He is here for a political meeting.	He is here for a political meeting	194300221	1477191862718	1477191862842	l	76
379036	4090119	He is here for a political meeting.	He is here for a political meeting	194300223	1477191862902	1477191863094	 	32
379036	4090119	He is here for a political meeting.	He is here for a political meeting	194300226	1477191864088	1477191864174	m	77
379036	4090119	He is here for a political meeting.	He is here for a political meeting	194300229	1477191864250	1477191864363	e	69
379036	4090119	He is here for a political meeting.	He is here for a political meeting	194300232	1477191864437	1477191864605	e	69
379036	4090119	He is here for a political meeting.	He is here for a political meeting	194300284	1477191864586	1477191864767	t	84
379036	4090119	He is here for a political meeting.	He is here for a political meeting	194300287	1477191864869	1477191865131	i	73
379036	4090119	He is here for a political meeting.	He is here for a political meeting	194300291	1477191864932	1477191865175	n	78
379036	4090119	He is here for a political meeting.	He is here for a political meeting	194300295	1477191865119	1477191865314	g	71
379036	4090119	He is here for a political meeting.	He is here for a political meeting	194300300	1477191865571	1477191865725	SHIFT	16
379036	4090135	The injury is more serious than the Panthers first expected.	The injury is more serious than the Panthers first expectted	194300466	1477191868661	1477191869203	SHIFT	16
379036	4090135	The injury is more serious than the Panthers first expected.	The injury is more serious than the Panthers first expectted	194300471	1477191869065	1477191869259	T	84
379036	4090135	The injury is more serious than the Panthers first expected.	The injury is more serious than the Panthers first expectted	194300475	1477191869256	1477191869378	h	72
379036	4090135	The injury is more serious than the Panthers first expected.	The injury is more serious than the Panthers first expectted	194300481	1477191869396	1477191869586	e	69
379036	4090135	The injury is more serious than the Panthers first expected.	The injury is more serious than the Panthers first expectted	194300485	1477191869576	1477191869720	 	32
379036	4090135	The injury is more serious than the Panthers first expected.	The injury is more serious than the Panthers first expectted	194300489	1477191870455	1477191870671	i	73
379036	4090135	The injury is more serious than the Panthers first expected.	The injury is more serious than the Panthers first expectted	194300561	1477191870589	1477191870803	n	78
379036	4090135	The injury is more serious than the Panthers first expected.	The injury is more serious than the Panthers first expectted	194300563	1477191871073	1477191871234	j	74
379036	4090135	The injury is more serious than the Panthers first expected.	The injury is more serious than the Panthers first expectted	194300565	1477191871300	1477191871363	u	85
379036	4090135	The injury is more serious than the Panthers first expected.	The injury is more serious than the Panthers first expectted	194300566	1477191871533	1477191871764	r	82
379036	4090135	The injury is more serious than the Panthers first expected.	The injury is more serious than the Panthers first expectted	194300568	1477191871945	1477191872091	y	89
379036	4090135	The injury is more serious than the Panthers first expected.	The injury is more serious than the Panthers first expectted	194300570	1477191872573	1477191872733	 	32
379036	4090135	The injury is more serious than the Panthers first expected.	The injury is more serious than the Panthers first expectted	194300622	1477191873299	1477191873434	i	73
379036	4090135	The injury is more serious than the Panthers first expected.	The injury is more serious than the Panthers first expectted	194300625	1477191873430	1477191873600	s	83
379036	4090135	The injury is more serious than the Panthers first expected.	The injury is more serious than the Panthers first expectted	194300628	1477191873661	1477191873830	 	32
379036	4090135	The injury is more serious than the Panthers first expected.	The injury is more serious than the Panthers first expectted	194300631	1477191873835	1477191874009	m	77
379036	4090135	The injury is more serious than the Panthers first expected.	The injury is more serious than the Panthers first expectted	194300636	1477191874033	1477191874171	o	80
379036	4090135	The injury is more serious than the Panthers first expected.	The injury is more serious than the Panthers first expectted	194300724	1477191874076	1477191874296	r	82
379036	4090135	The injury is more serious than the Panthers first expected.	The injury is more serious than the Panthers first expectted	194300726	1477191874562	1477191874689	BKSP	8
379036	4090135	The injury is more serious than the Panthers first expected.	The injury is more serious than the Panthers first expectted	194300730	1477191874723	1477191874806	BKSP	8
379036	4090135	The injury is more serious than the Panthers first expected.	The injury is more serious than the Panthers first expectted	194300734	1477191874868	1477191874995	BKSP	8
379036	4090135	The injury is more serious than the Panthers first expected.	The injury is more serious than the Panthers first expectted	194300737	1477191875361	1477191875501	i	73
379036	4090135	The injury is more serious than the Panthers first expected.	The injury is more serious than the Panthers first expectted	194300741	1477191875514	1477191875700	r	82
379036	4090135	The injury is more serious than the Panthers first expected.	The injury is more serious than the Panthers first expectted	194300743	1477191875618	1477191875869	e	69
379036	4090135	The injury is more serious than the Panthers first expected.	The injury is more serious than the Panthers first expectted	194300747	1477191876026	1477191876132	BKSP	8
379036	4090135	The injury is more serious than the Panthers first expected.	The injury is more serious than the Panthers first expectted	194300750	1477191876203	1477191876272	BKSP	8
379036	4090135	The injury is more serious than the Panthers first expected.	The injury is more serious than the Panthers first expectted	194300754	1477191876300	1477191876409	BKSP	8
379036	4090135	The injury is more serious than the Panthers first expected.	The injury is more serious than the Panthers first expectted	194300757	1477191877061	1477191877195	o	79
379036	4090135	The injury is more serious than the Panthers first expected.	The injury is more serious than the Panthers first expectted	194300761	1477191877209	1477191877447	r	82
379036	4090135	The injury is more serious than the Panthers first expected.	The injury is more serious than the Panthers first expectted	194300818	1477191877343	1477191877556	e	69
379036	4090135	The injury is more serious than the Panthers first expected.	The injury is more serious than the Panthers first expectted	194300820	1477191877539	1477191877707	 	32
379036	4090135	The injury is more serious than the Panthers first expected.	The injury is more serious than the Panthers first expectted	194300822	1477191878162	1477191878397	s	83
379036	4090135	The injury is more serious than the Panthers first expected.	The injury is more serious than the Panthers first expectted	194300826	1477191878303	1477191878558	r	69
379036	4090135	The injury is more serious than the Panthers first expected.	The injury is more serious than the Panthers first expectted	194300829	1477191879795	1477191879955	i	73
379036	4090135	The injury is more serious than the Panthers first expected.	The injury is more serious than the Panthers first expectted	194300897	1477191879880	1477191880183	o	79
379036	4090135	The injury is more serious than the Panthers first expected.	The injury is more serious than the Panthers first expectted	194300899	1477191880373	1477191880518	u	85
379036	4090135	The injury is more serious than the Panthers first expected.	The injury is more serious than the Panthers first expectted	194300902	1477191880867	1477191881033	s	83
379036	4090135	The injury is more serious than the Panthers first expected.	The injury is more serious than the Panthers first expectted	194300905	1477191881080	1477191881219	 	32
379036	4090135	The injury is more serious than the Panthers first expected.	The injury is more serious than the Panthers first expectted	194300910	1477191881909	1477191882084	t	84
379036	4090135	The injury is more serious than the Panthers first expected.	The injury is more serious than the Panthers first expectted	194300927	1477191882020	1477191882140	h	72
379036	4090135	The injury is more serious than the Panthers first expected.	The injury is more serious than the Panthers first expectted	194300928	1477191882163	1477191882325	a	65
379036	4090135	The injury is more serious than the Panthers first expected.	The injury is more serious than the Panthers first expectted	194300929	1477191882281	1477191882392	n	78
379036	4090135	The injury is more serious than the Panthers first expected.	The injury is more serious than the Panthers first expectted	194300930	1477191882454	1477191882546	 	32
379036	4090135	The injury is more serious than the Panthers first expected.	The injury is more serious than the Panthers first expectted	194300932	1477191882654	1477191882864	t	84
379036	4090135	The injury is more serious than the Panthers first expected.	The injury is more serious than the Panthers first expectted	194301018	1477191882835	1477191882940	h	72
379036	4090135	The injury is more serious than the Panthers first expected.	The injury is more serious than the Panthers first expectted	194301020	1477191882948	1477191883299	e	69
379036	4090135	The injury is more serious than the Panthers first expected.	The injury is more serious than the Panthers first expectted	194301022	1477191883309	1477191883490	 	32
379036	4090135	The injury is more serious than the Panthers first expected.	The injury is more serious than the Panthers first expectted	194301027	1477191883917	1477191884326	SHIFT	16
379036	4090135	The injury is more serious than the Panthers first expected.	The injury is more serious than the Panthers first expectted	194301024	1477191884177	1477191884309	P	80
379036	4090135	The injury is more serious than the Panthers first expected.	The injury is more serious than the Panthers first expectted	194301032	1477191884465	1477191884684	a	65
379036	4090135	The injury is more serious than the Panthers first expected.	The injury is more serious than the Panthers first expectted	194301037	1477191884686	1477191884754	n	66
379036	4090135	The injury is more serious than the Panthers first expected.	The injury is more serious than the Panthers first expectted	194301108	1477191885208	1477191885297	BKSP	8
379036	4090135	The injury is more serious than the Panthers first expected.	The injury is more serious than the Panthers first expectted	194301110	1477191885397	1477191885483	BKSP	8
379036	4090135	The injury is more serious than the Panthers first expected.	The injury is more serious than the Panthers first expectted	194301111	1477191886344	1477191886464	n	78
379036	4090135	The injury is more serious than the Panthers first expected.	The injury is more serious than the Panthers first expectted	194301114	1477191886483	1477191886701	t	84
379036	4090135	The injury is more serious than the Panthers first expected.	The injury is more serious than the Panthers first expectted	194301115	1477191886649	1477191886750	h	72
379036	4090135	The injury is more serious than the Panthers first expected.	The injury is more serious than the Panthers first expectted	194301117	1477191886803	1477191887042	e	69
379036	4090135	The injury is more serious than the Panthers first expected.	The injury is more serious than the Panthers first expectted	194301207	1477191886935	1477191887219	r	82
379036	4090135	The injury is more serious than the Panthers first expected.	The injury is more serious than the Panthers first expectted	194301209	1477191887263	1477191887477	s	83
379036	4090135	The injury is more serious than the Panthers first expected.	The injury is more serious than the Panthers first expectted	194301210	1477191887575	1477191887761	 	32
379036	4090135	The injury is more serious than the Panthers first expected.	The injury is more serious than the Panthers first expectted	194301212	1477191889028	1477191889221	f	70
379036	4090135	The injury is more serious than the Panthers first expected.	The injury is more serious than the Panthers first expectted	194301214	1477191889165	1477191889273	i	73
379036	4090135	The injury is more serious than the Panthers first expected.	The injury is more serious than the Panthers first expectted	194301216	1477191889573	1477191889787	r	82
379036	4090135	The injury is more serious than the Panthers first expected.	The injury is more serious than the Panthers first expectted	194301275	1477191889711	1477191889960	s	83
379036	4090135	The injury is more serious than the Panthers first expected.	The injury is more serious than the Panthers first expectted	194301279	1477191889949	1477191890161	t	84
379036	4090135	The injury is more serious than the Panthers first expected.	The injury is more serious than the Panthers first expectted	194301282	1477191890163	1477191890271	 	32
379036	4090135	The injury is more serious than the Panthers first expected.	The injury is more serious than the Panthers first expectted	194301286	1477191891035	1477191891169	e	69
379036	4090135	The injury is more serious than the Panthers first expected.	The injury is more serious than the Panthers first expectted	194301288	1477191891277	1477191891462	x	88
379036	4090135	The injury is more serious than the Panthers first expected.	The injury is more serious than the Panthers first expectted	194301290	1477191891533	1477191891666	p	80
379036	4090135	The injury is more serious than the Panthers first expected.	The injury is more serious than the Panthers first expectted	194301310	1477191891663	1477191891865	e	69
379036	4090135	The injury is more serious than the Panthers first expected.	The injury is more serious than the Panthers first expectted	194301313	1477191891935	1477191892066	c	67
379036	4090135	The injury is more serious than the Panthers first expected.	The injury is more serious than the Panthers first expectted	194301315	1477191892144	1477191892165	t	84
379036	4090135	The injury is more serious than the Panthers first expected.	The injury is more serious than the Panthers first expectted	194301317	1477191892193	1477191892385	t	84
379036	4090135	The injury is more serious than the Panthers first expected.	The injury is more serious than the Panthers first expectted	194301318	1477191892432	1477191892626	e	69
379036	4090135	The injury is more serious than the Panthers first expected.	The injury is more serious than the Panthers first expectted	194301319	1477191892630	1477191892864	d	68
379036	4090156	We will have some good detail by January 7.	We will have some good detail by January 7.	194301535	1477191895888	1477191896284	SHIFT	16
379036	4090156	We will have some good detail by January 7.	We will have some good detail by January 7.	194301538	1477191896132	1477191896314	Q	81
379036	4090156	We will have some good detail by January 7.	We will have some good detail by January 7.	194301543	1477191896443	1477191896624	w	81
379036	4090156	We will have some good detail by January 7.	We will have some good detail by January 7.	194301541	1477191896533	1477191896563	e	69
379036	4090156	We will have some good detail by January 7.	We will have some good detail by January 7.	194301545	1477191896945	1477191897039	BKSP	8
379036	4090156	We will have some good detail by January 7.	We will have some good detail by January 7.	194301548	1477191897117	1477191897199	BKSP	8
379036	4090156	We will have some good detail by January 7.	We will have some good detail by January 7.	194301552	1477191897256	1477191897335	BKSP	8
379036	4090156	We will have some good detail by January 7.	We will have some good detail by January 7.	194301555	1477191897395	1477191897486	BKSP	8
379036	4090156	We will have some good detail by January 7.	We will have some good detail by January 7.	194301608	1477191897544	1477191897991	SHIFT	16
379036	4090156	We will have some good detail by January 7.	We will have some good detail by January 7.	194301557	1477191897748	1477191897964	W	87
379036	4090156	We will have some good detail by January 7.	We will have some good detail by January 7.	194301613	1477191898468	1477191898603	e	69
379036	4090156	We will have some good detail by January 7.	We will have some good detail by January 7.	194301616	1477191898639	1477191898775	 	32
379036	4090156	We will have some good detail by January 7.	We will have some good detail by January 7.	194301619	1477191899286	1477191899474	w	87
379036	4090156	We will have some good detail by January 7.	We will have some good detail by January 7.	194301622	1477191899491	1477191899601	o	73
379036	4090156	We will have some good detail by January 7.	We will have some good detail by January 7.	194301740	1477191900059	1477191900174	BKSP	8
379036	4090156	We will have some good detail by January 7.	We will have some good detail by January 7.	194301744	1477191900460	1477191900546	l	76
379036	4090156	We will have some good detail by January 7.	We will have some good detail by January 7.	194301747	1477191900609	1477191900709	l	76
379036	4090156	We will have some good detail by January 7.	We will have some good detail by January 7.	194301750	1477191900811	1477191900933	 	32
379036	4090156	We will have some good detail by January 7.	We will have some good detail by January 7.	194301754	1477191902072	1477191902222	h	72
379036	4090156	We will have some good detail by January 7.	We will have some good detail by January 7.	194301758	1477191902249	1477191902457	a	65
379036	4090156	We will have some good detail by January 7.	We will have some good detail by January 7.	194301823	1477191902454	1477191902675	v	86
379036	4090156	We will have some good detail by January 7.	We will have some good detail by January 7.	194301827	1477191902600	1477191902805	e	69
379036	4090156	We will have some good detail by January 7.	We will have some good detail by January 7.	194301831	1477191902791	1477191902967	 	32
379036	4090156	We will have some good detail by January 7.	We will have some good detail by January 7.	194301837	1477191903551	1477191903715	s	83
379036	4090156	We will have some good detail by January 7.	We will have some good detail by January 7.	194301843	1477191903740	1477191903889	o	79
379036	4090156	We will have some good detail by January 7.	We will have some good detail by January 7.	194301898	1477191903810	1477191903995	m	77
379036	4090156	We will have some good detail by January 7.	We will have some good detail by January 7.	194301899	1477191903939	1477191904118	e	69
379036	4090156	We will have some good detail by January 7.	We will have some good detail by January 7.	194301901	1477191904142	1477191904282	 	32
379036	4090156	We will have some good detail by January 7.	We will have some good detail by January 7.	194301903	1477191904942	1477191905081	g	71
379036	4090156	We will have some good detail by January 7.	We will have some good detail by January 7.	194301905	1477191905093	1477191905179	o	79
379036	4090156	We will have some good detail by January 7.	We will have some good detail by January 7.	194301909	1477191905236	1477191905334	o	79
379036	4090156	We will have some good detail by January 7.	We will have some good detail by January 7.	194302003	1477191905443	1477191905622	d	68
379036	4090156	We will have some good detail by January 7.	We will have some good detail by January 7.	194302006	1477191905884	1477191906016	 	32
379036	4090156	We will have some good detail by January 7.	We will have some good detail by January 7.	194302007	1477191907255	1477191907481	d	68
379036	4090156	We will have some good detail by January 7.	We will have some good detail by January 7.	194302008	1477191907360	1477191907617	e	69
379036	4090156	We will have some good detail by January 7.	We will have some good detail by January 7.	194302009	1477191907691	1477191907966	t	84
379036	4090156	We will have some good detail by January 7.	We will have some good detail by January 7.	194302141	1477191907925	1477191908126	a	65
379036	4090156	We will have some good detail by January 7.	We will have some good detail by January 7.	194302143	1477191908040	1477191908203	i	73
379036	4090156	We will have some good detail by January 7.	We will have some good detail by January 7.	194302147	1477191908292	1477191908442	l	76
379036	4090156	We will have some good detail by January 7.	We will have some good detail by January 7.	194302150	1477191908611	1477191908764	 	32
379036	4090156	We will have some good detail by January 7.	We will have some good detail by January 7.	194302153	1477191909740	1477191909859	b	66
379036	4090156	We will have some good detail by January 7.	We will have some good detail by January 7.	194302156	1477191910052	1477191910229	y	89
379036	4090156	We will have some good detail by January 7.	We will have some good detail by January 7.	194302211	1477191910278	1477191910380	 	32
379036	4090156	We will have some good detail by January 7.	We will have some good detail by January 7.	194302217	1477191910546	1477191911294	SHIFT	16
379036	4090156	We will have some good detail by January 7.	We will have some good detail by January 7.	194302215	1477191911164	1477191911271	J	74
379036	4090156	We will have some good detail by January 7.	We will have some good detail by January 7.	194302219	1477191911410	1477191911586	a	65
379036	4090156	We will have some good detail by January 7.	We will have some good detail by January 7.	194302304	1477191911524	1477191911766	n	78
379036	4090156	We will have some good detail by January 7.	We will have some good detail by January 7.	194302302	1477191911552	1477191911619	m	77
379036	4090156	We will have some good detail by January 7.	We will have some good detail by January 7.	194302308	1477191911933	1477191912098	u	85
379036	4090156	We will have some good detail by January 7.	We will have some good detail by January 7.	194302312	1477191912130	1477191912350	r	82
379036	4090156	We will have some good detail by January 7.	We will have some good detail by January 7.	194302316	1477191912680	1477191912757	=	187
379036	4090156	We will have some good detail by January 7.	We will have some good detail by January 7.	194302321	1477191912845	1477191912907	BKSP	8
379036	4090156	We will have some good detail by January 7.	We will have some good detail by January 7.	194302324	1477191913013	1477191913093	BKSP	8
379036	4090156	We will have some good detail by January 7.	We will have some good detail by January 7.	194302328	1477191913164	1477191913255	BKSP	8
379036	4090156	We will have some good detail by January 7.	We will have some good detail by January 7.	194302337	1477191913270	1477191913500	a	65
379036	4090156	We will have some good detail by January 7.	We will have some good detail by January 7.	194302331	1477191913305	1477191913377	BKSP	8
379036	4090156	We will have some good detail by January 7.	We will have some good detail by January 7.	194302334	1477191913423	1477191913474	BKSP	8
379036	4090156	We will have some good detail by January 7.	We will have some good detail by January 7.	194302342	1477191914298	1477191914432	u	85
379036	4090156	We will have some good detail by January 7.	We will have some good detail by January 7.	194302520	1477191914514	1477191914828	r	82
379036	4090156	We will have some good detail by January 7.	We will have some good detail by January 7.	194302522	1477191915502	1477191915563	y	89
379036	4090156	We will have some good detail by January 7.	We will have some good detail by January 7.	194302523	1477191916191	1477191916315	BKSP	8
379036	4090156	We will have some good detail by January 7.	We will have some good detail by January 7.	194302524	1477191916399	1477191916735	a	65
379036	4090156	We will have some good detail by January 7.	We will have some good detail by January 7.	194302527	1477191916566	1477191916759	r	82
379036	4090156	We will have some good detail by January 7.	We will have some good detail by January 7.	194302529	1477191917187	1477191917314	BKSP	8
379036	4090156	We will have some good detail by January 7.	We will have some good detail by January 7.	194302533	1477191917366	1477191917462	BKSP	8
379036	4090156	We will have some good detail by January 7.	We will have some good detail by January 7.	194302537	1477191917531	1477191917648	BKSP	8
379036	4090156	We will have some good detail by January 7.	We will have some good detail by January 7.	194302541	1477191917735	1477191917833	BKSP	8
379036	4090156	We will have some good detail by January 7.	We will have some good detail by January 7.	194302545	1477191919061	1477191919165	u	85
379036	4090156	We will have some good detail by January 7.	We will have some good detail by January 7.	194302621	1477191919248	1477191919573	a	65
379036	4090156	We will have some good detail by January 7.	We will have some good detail by January 7.	194302623	1477191919462	1477191919665	r	82
379036	4090156	We will have some good detail by January 7.	We will have some good detail by January 7.	194302625	1477191919577	1477191919700	y	89
379036	4090156	We will have some good detail by January 7.	We will have some good detail by January 7.	194302627	1477191919746	1477191919905	 	32
379036	4090156	We will have some good detail by January 7.	We will have some good detail by January 7.	194302629	1477191921551	1477191921674	7	55
379036	4090182	She has a web address.	She has a web address.	194303192	1477191921672	1477191932487	.	190
379036	4090182	She has a web address.	She has a web address.	194302898	1477191925259	1477191925889	SHIFT	16
379036	4090182	She has a web address.	She has a web address.	194302904	1477191925722	1477191925908	S	83
379036	4090182	She has a web address.	She has a web address.	194302910	1477191926014	1477191926126	h	72
379036	4090182	She has a web address.	She has a web address.	194302913	1477191926177	1477191926320	e	69
379036	4090182	She has a web address.	She has a web address.	194302916	1477191926573	1477191926711	 	32
379036	4090182	She has a web address.	She has a web address.	194302919	1477191927442	1477191927572	h	72
379036	4090182	She has a web address.	She has a web address.	194303000	1477191927546	1477191927791	a	65
379036	4090182	She has a web address.	She has a web address.	194303003	1477191927682	1477191927875	s	83
379036	4090182	She has a web address.	She has a web address.	194303008	1477191927849	1477191928008	 	32
379036	4090182	She has a web address.	She has a web address.	194303010	1477191928518	1477191928714	a	65
379036	4090182	She has a web address.	She has a web address.	194303013	1477191928727	1477191928843	 	32
379036	4090182	She has a web address.	She has a web address.	194303015	1477191929161	1477191929383	w	87
379036	4090182	She has a web address.	She has a web address.	194303059	1477191929330	1477191929557	e	69
379036	4090182	She has a web address.	She has a web address.	194303061	1477191929627	1477191929729	b	66
379036	4090182	She has a web address.	She has a web address.	194303065	1477191929789	1477191929892	 	32
379036	4090182	She has a web address.	She has a web address.	194303069	1477191930104	1477191930229	a	65
379036	4090182	She has a web address.	She has a web address.	194303070	1477191930380	1477191930472	d	68
379036	4090182	She has a web address.	She has a web address.	194303074	1477191930538	1477191930645	d	68
379036	4090182	She has a web address.	She has a web address.	194303176	1477191930733	1477191930907	r	82
379036	4090182	She has a web address.	She has a web address.	194303179	1477191930922	1477191931070	e	69
379036	4090182	She has a web address.	She has a web address.	194303183	1477191931176	1477191931287	s	83
379036	4090182	She has a web address.	She has a web address.	194303189	1477191931361	1477191931503	s	83
379036	4090195	A gift isn't necessary.	A gift isn't necesary.	194303736	1477191934082	1477191935524	SHIFT	16
379036	4090195	A gift isn't necessary.	A gift isn't necesary.	194303733	1477191935231	1477191935418	CAPS_LOCK	20
379036	4090195	A gift isn't necessary.	A gift isn't necesary.	194303729	1477191935261	1477191935381	a	65
379036	4090195	A gift isn't necessary.	A gift isn't necesary.	194303738	1477191936433	1477191936594	CAPS_LOCK	20
379036	4090195	A gift isn't necessary.	A gift isn't necesary.	194303740	1477191936676	1477191936807	BKSP	8
379036	4090195	A gift isn't necessary.	A gift isn't necesary.	194303739	1477191936701	1477191936761	F12	123
379036	4090195	A gift isn't necessary.	A gift isn't necesary.	194304196	1477191937087	1477191952073	A	65
379036	4090195	A gift isn't necessary.	A gift isn't necesary.	194303742	1477191943425	1477191943567	 	32
379036	4090195	A gift isn't necessary.	A gift isn't necesary.	194303745	1477191944581	1477191944774	g	71
379036	4090195	A gift isn't necessary.	A gift isn't necesary.	194303843	1477191944715	1477191944862	i	73
379036	4090195	A gift isn't necessary.	A gift isn't necesary.	194303845	1477191945166	1477191945322	f	70
379036	4090195	A gift isn't necessary.	A gift isn't necesary.	194303849	1477191945400	1477191945630	t	84
379036	4090195	A gift isn't necessary.	A gift isn't necesary.	194303850	1477191945627	1477191945765	 	32
379036	4090195	A gift isn't necessary.	A gift isn't necesary.	194303852	1477191947090	1477191947252	i	73
379036	4090195	A gift isn't necessary.	A gift isn't necesary.	194303931	1477191947229	1477191947396	s	83
379036	4090195	A gift isn't necessary.	A gift isn't necesary.	194303935	1477191947366	1477191947485	n	78
379036	4090195	A gift isn't necessary.	A gift isn't necesary.	194303939	1477191948103	1477191948243	'	222
379036	4090195	A gift isn't necessary.	A gift isn't necesary.	194303945	1477191948260	1477191948475	t	84
379036	4090195	A gift isn't necessary.	A gift isn't necesary.	194303951	1477191948479	1477191948640	 	32
379036	4090195	A gift isn't necessary.	A gift isn't necesary.	194303957	1477191949377	1477191949484	n	78
379036	4090195	A gift isn't necessary.	A gift isn't necesary.	194304034	1477191949550	1477191949729	e	69
379036	4090195	A gift isn't necessary.	A gift isn't necesary.	194304038	1477191950127	1477191950323	c	67
379036	4090195	A gift isn't necessary.	A gift isn't necesary.	194304042	1477191951112	1477191951283	e	69
379036	4090195	A gift isn't necessary.	A gift isn't necesary.	194304048	1477191951399	1477191951449	s	83
379036	4090195	A gift isn't necessary.	A gift isn't necesary.	194304052	1477191951588	1477191951691	s	83
379036	4090195	A gift isn't necessary.	A gift isn't necesary.	194304200	1477191953580	1477191953762	r	82
379036	4090195	A gift isn't necessary.	A gift isn't necesary.	194304203	1477191954430	1477191954616	y	89
379036	4090195	A gift isn't necessary.	A gift isn't necesary.	194304205	1477191955705	1477191955824	.	190
379036	4090216	I am unavailable for the 1PM meeting.	A am unavailable for the 1PM meeting	194304420	1477191959533	1477191959697	A	65
379036	4090216	I am unavailable for the 1PM meeting.	A am unavailable for the 1PM meeting	194304424	1477191959856	1477191959999	 	32
379036	4090216	I am unavailable for the 1PM meeting.	A am unavailable for the 1PM meeting	194304428	1477191960386	1477191960586	a	65
379036	4090216	I am unavailable for the 1PM meeting.	A am unavailable for the 1PM meeting	194304432	1477191960451	1477191960594	m	77
379036	4090216	I am unavailable for the 1PM meeting.	A am unavailable for the 1PM meeting	194304436	1477191960644	1477191960807	 	32
379036	4090216	I am unavailable for the 1PM meeting.	A am unavailable for the 1PM meeting	194304522	1477191961752	1477191962010	u	85
379036	4090216	I am unavailable for the 1PM meeting.	A am unavailable for the 1PM meeting	194304524	1477191961866	1477191962078	n	78
379036	4090216	I am unavailable for the 1PM meeting.	A am unavailable for the 1PM meeting	194304528	1477191962065	1477191962303	a	65
379036	4090216	I am unavailable for the 1PM meeting.	A am unavailable for the 1PM meeting	194304530	1477191962979	1477191963215	v	86
379036	4090216	I am unavailable for the 1PM meeting.	A am unavailable for the 1PM meeting	194304719	1477191963157	1477191963380	a	65
379036	4090216	I am unavailable for the 1PM meeting.	A am unavailable for the 1PM meeting	194304725	1477191963786	1477191963906	l	76
379036	4090216	I am unavailable for the 1PM meeting.	A am unavailable for the 1PM meeting	194304729	1477191964907	1477191965019	BKSP	8
379036	4090216	I am unavailable for the 1PM meeting.	A am unavailable for the 1PM meeting	194304733	1477191965290	1477191965401	i	73
379036	4090216	I am unavailable for the 1PM meeting.	A am unavailable for the 1PM meeting	194304737	1477191965516	1477191965610	l	76
379036	4090216	I am unavailable for the 1PM meeting.	A am unavailable for the 1PM meeting	194304739	1477191966446	1477191966580	i	73
379036	4090216	I am unavailable for the 1PM meeting.	A am unavailable for the 1PM meeting	194304743	1477191967157	1477191967340	BKSP	8
379036	4090216	I am unavailable for the 1PM meeting.	A am unavailable for the 1PM meeting	194304747	1477191967497	1477191967693	a	65
379036	4090216	I am unavailable for the 1PM meeting.	A am unavailable for the 1PM meeting	194304811	1477191968411	1477191968615	b	66
379036	4090216	I am unavailable for the 1PM meeting.	A am unavailable for the 1PM meeting	194304814	1477191968600	1477191968729	k	76
379036	4090216	I am unavailable for the 1PM meeting.	A am unavailable for the 1PM meeting	194304816	1477191968913	1477191968944	e	69
379036	4090216	I am unavailable for the 1PM meeting.	A am unavailable for the 1PM meeting	194304819	1477191969140	1477191969249	BKSP	8
379036	4090216	I am unavailable for the 1PM meeting.	A am unavailable for the 1PM meeting	194304821	1477191969346	1477191969596	BKSP	8
379036	4090216	I am unavailable for the 1PM meeting.	A am unavailable for the 1PM meeting	194304822	1477191969601	1477191969807	e	69
379036	4090216	I am unavailable for the 1PM meeting.	A am unavailable for the 1PM meeting	194304890	1477191970348	1477191970481	 	32
379036	4090216	I am unavailable for the 1PM meeting.	A am unavailable for the 1PM meeting	194304891	1477191971356	1477191971544	f	70
379036	4090216	I am unavailable for the 1PM meeting.	A am unavailable for the 1PM meeting	194304892	1477191971472	1477191971637	o	79
379036	4090216	I am unavailable for the 1PM meeting.	A am unavailable for the 1PM meeting	194304893	1477191971594	1477191971801	r	82
379036	4090216	I am unavailable for the 1PM meeting.	A am unavailable for the 1PM meeting	194305019	1477191971796	1477191971928	 	32
379036	4090216	I am unavailable for the 1PM meeting.	A am unavailable for the 1PM meeting	194305022	1477191971939	1477191972183	t	84
379036	4090216	I am unavailable for the 1PM meeting.	A am unavailable for the 1PM meeting	194305023	1477191972107	1477191972288	h	72
379036	4090216	I am unavailable for the 1PM meeting.	A am unavailable for the 1PM meeting	194305025	1477191972290	1477191972494	e	69
379036	4090216	I am unavailable for the 1PM meeting.	A am unavailable for the 1PM meeting	194305027	1477191972478	1477191972621	 	32
379036	4090216	I am unavailable for the 1PM meeting.	A am unavailable for the 1PM meeting	194305029	1477191974055	1477191974209	1	49
379036	4090216	I am unavailable for the 1PM meeting.	A am unavailable for the 1PM meeting	194305175	1477191974544	1477191974658	p	80
379036	4090216	I am unavailable for the 1PM meeting.	A am unavailable for the 1PM meeting	194305177	1477191975025	1477191975180	BKSP	8
379036	4090216	I am unavailable for the 1PM meeting.	A am unavailable for the 1PM meeting	194305182	1477191975187	1477191976240	SHIFT	16
379036	4090216	I am unavailable for the 1PM meeting.	A am unavailable for the 1PM meeting	194305178	1477191975947	1477191976128	P	80
379036	4090216	I am unavailable for the 1PM meeting.	A am unavailable for the 1PM meeting	194305180	1477191976066	1477191976204	M	77
379036	4090216	I am unavailable for the 1PM meeting.	A am unavailable for the 1PM meeting	194305184	1477191976259	1477191976446	 	32
379036	4090216	I am unavailable for the 1PM meeting.	A am unavailable for the 1PM meeting	194305187	1477191977053	1477191977166	m	77
379036	4090216	I am unavailable for the 1PM meeting.	A am unavailable for the 1PM meeting	194305252	1477191977261	1477191977402	e	69
379036	4090216	I am unavailable for the 1PM meeting.	A am unavailable for the 1PM meeting	194305257	1477191977484	1477191977650	e	69
379036	4090216	I am unavailable for the 1PM meeting.	A am unavailable for the 1PM meeting	194305262	1477191977642	1477191977874	t	84
379036	4090216	I am unavailable for the 1PM meeting.	A am unavailable for the 1PM meeting	194305265	1477191978790	1477191978995	i	73
379036	4090216	I am unavailable for the 1PM meeting.	A am unavailable for the 1PM meeting	194305269	1477191978881	1477191979075	n	78
379036	4090216	I am unavailable for the 1PM meeting.	A am unavailable for the 1PM meeting	194305271	1477191978987	1477191979184	g	71
379036	4090238	But he added the list given was still incomplete.	But he added the list given was still incomplete	194305456	1477191981622	1477191982531	SHIFT	16
379036	4090238	But he added the list given was still incomplete.	But he added the list given was still incomplete	194305455	1477191982363	1477191982473	B	66
379036	4090238	But he added the list given was still incomplete.	But he added the list given was still incomplete	194305457	1477191982849	1477191982966	u	85
379036	4090238	But he added the list given was still incomplete.	But he added the list given was still incomplete	194305458	1477191982918	1477191983144	t	84
379036	4090238	But he added the list given was still incomplete.	But he added the list given was still incomplete	194305460	1477191983131	1477191983345	 	32
379036	4090238	But he added the list given was still incomplete.	But he added the list given was still incomplete	194305461	1477191984041	1477191984133	h	72
379036	4090238	But he added the list given was still incomplete.	But he added the list given was still incomplete	194305510	1477191984171	1477191984346	e	69
379036	4090238	But he added the list given was still incomplete.	But he added the list given was still incomplete	194305515	1477191984349	1477191984492	 	32
379036	4090238	But he added the list given was still incomplete.	But he added the list given was still incomplete	194305519	1477191984554	1477191984697	a	65
379036	4090238	But he added the list given was still incomplete.	But he added the list given was still incomplete	194305523	1477191984860	1477191985004	d	68
379036	4090238	But he added the list given was still incomplete.	But he added the list given was still incomplete	194305527	1477191985096	1477191985251	d	68
379036	4090238	But he added the list given was still incomplete.	But he added the list given was still incomplete	194305594	1477191985441	1477191985578	e	69
379036	4090238	But he added the list given was still incomplete.	But he added the list given was still incomplete	194305592	1477191985470	1477191985495	w	87
379036	4090238	But he added the list given was still incomplete.	But he added the list given was still incomplete	194305598	1477191986062	1477191986208	BKSP	8
379036	4090238	But he added the list given was still incomplete.	But he added the list given was still incomplete	194305603	1477191986266	1477191986425	d	68
379036	4090238	But he added the list given was still incomplete.	But he added the list given was still incomplete	194305608	1477191986571	1477191986734	 	32
379036	4090238	But he added the list given was still incomplete.	But he added the list given was still incomplete	194305612	1477191987362	1477191987608	t	84
379036	4090238	But he added the list given was still incomplete.	But he added the list given was still incomplete	194305680	1477191987538	1477191987678	h	72
379036	4090238	But he added the list given was still incomplete.	But he added the list given was still incomplete	194305685	1477191987667	1477191987899	e	69
379036	4090238	But he added the list given was still incomplete.	But he added the list given was still incomplete	194305682	1477191987691	1477191987868	r	82
379036	4090238	But he added the list given was still incomplete.	But he added the list given was still incomplete	194305689	1477191987931	1477191988121	 	32
379036	4090238	But he added the list given was still incomplete.	But he added the list given was still incomplete	194305692	1477191988623	1477191988683	BKSP	8
379036	4090238	But he added the list given was still incomplete.	But he added the list given was still incomplete	194305694	1477191988775	1477191988951	BKSP	8
379036	4090238	But he added the list given was still incomplete.	But he added the list given was still incomplete	194305695	1477191989007	1477191989134	 	32
379036	4090238	But he added the list given was still incomplete.	But he added the list given was still incomplete	194305697	1477191989644	1477191989735	l	76
379036	4090238	But he added the list given was still incomplete.	But he added the list given was still incomplete	194305783	1477191989851	1477191989972	i	73
379036	4090238	But he added the list given was still incomplete.	But he added the list given was still incomplete	194305789	1477191990224	1477191990408	s	83
379036	4090238	But he added the list given was still incomplete.	But he added the list given was still incomplete	194305785	1477191990292	1477191990394	t	84
379036	4090238	But he added the list given was still incomplete.	But he added the list given was still incomplete	194305791	1477191990509	1477191990659	 	32
379036	4090238	But he added the list given was still incomplete.	But he added the list given was still incomplete	194305796	1477191991857	1477191992047	g	71
379036	4090238	But he added the list given was still incomplete.	But he added the list given was still incomplete	194305816	1477191992051	1477191992190	i	73
379036	4090238	But he added the list given was still incomplete.	But he added the list given was still incomplete	194305820	1477191992405	1477191992750	v	86
379036	4090238	But he added the list given was still incomplete.	But he added the list given was still incomplete	194305824	1477191992602	1477191992797	e	69
379036	4090238	But he added the list given was still incomplete.	But he added the list given was still incomplete	194305828	1477191992694	1477191992864	n	78
379036	4090238	But he added the list given was still incomplete.	But he added the list given was still incomplete	194305829	1477191992921	1477191993061	 	32
379036	4090238	But he added the list given was still incomplete.	But he added the list given was still incomplete	194305865	1477191993608	1477191993859	w	87
379036	4090238	But he added the list given was still incomplete.	But he added the list given was still incomplete	194305868	1477191993723	1477191994090	a	65
379036	4090238	But he added the list given was still incomplete.	But he added the list given was still incomplete	194305871	1477191993950	1477191994137	s	83
379036	4090238	But he added the list given was still incomplete.	But he added the list given was still incomplete	194305873	1477191994201	1477191994351	 	32
379036	4090238	But he added the list given was still incomplete.	But he added the list given was still incomplete	194305875	1477191994588	1477191994777	s	83
379036	4090238	But he added the list given was still incomplete.	But he added the list given was still incomplete	194305922	1477191994816	1477191995003	t	84
379036	4090238	But he added the list given was still incomplete.	But he added the list given was still incomplete	194305923	1477191995822	1477191995943	i	73
379036	4090238	But he added the list given was still incomplete.	But he added the list given was still incomplete	194305924	1477191996077	1477191996155	l	76
379036	4090238	But he added the list given was still incomplete.	But he added the list given was still incomplete	194305925	1477191996215	1477191996278	l	76
379036	4090238	But he added the list given was still incomplete.	But he added the list given was still incomplete	194305926	1477191996353	1477191996510	 	32
379036	4090238	But he added the list given was still incomplete.	But he added the list given was still incomplete	194305974	1477191996964	1477191997126	i	73
379036	4090238	But he added the list given was still incomplete.	But he added the list given was still incomplete	194305978	1477191997021	1477191997216	n	78
379036	4090238	But he added the list given was still incomplete.	But he added the list given was still incomplete	194305981	1477191997308	1477191997523	c	67
379036	4090238	But he added the list given was still incomplete.	But he added the list given was still incomplete	194306106	1477191997566	1477191997717	p	79
379036	4090238	But he added the list given was still incomplete.	But he added the list given was still incomplete	194306112	1477191997620	1477191997823	m	77
379036	4090238	But he added the list given was still incomplete.	But he added the list given was still incomplete	194306109	1477191997739	1477191997774	o	79
379036	4090238	But he added the list given was still incomplete.	But he added the list given was still incomplete	194306116	1477191998695	1477191998791	BKSP	8
379036	4090238	But he added the list given was still incomplete.	But he added the list given was still incomplete	194306117	1477191998879	1477191998967	BKSP	8
379036	4090238	But he added the list given was still incomplete.	But he added the list given was still incomplete	194306118	1477191999016	1477191999164	BKSP	8
379036	4090238	But he added the list given was still incomplete.	But he added the list given was still incomplete	194306120	1477192000004	1477192000124	m	77
379036	4090238	But he added the list given was still incomplete.	But he added the list given was still incomplete	194306123	1477192000325	1477192000635	p	80
379036	4090238	But he added the list given was still incomplete.	But he added the list given was still incomplete	194306126	1477192000574	1477192000701	l	76
379036	4090238	But he added the list given was still incomplete.	But he added the list given was still incomplete	194306130	1477192001525	1477192001780	t	84
379036	4090238	But he added the list given was still incomplete.	But he added the list given was still incomplete	194306210	1477192002084	1477192002238	BKSP	8
379036	4090238	But he added the list given was still incomplete.	But he added the list given was still incomplete	194306212	1477192002250	1477192002592	e	69
379036	4090238	But he added the list given was still incomplete.	But he added the list given was still incomplete	194306214	1477192002441	1477192002714	r	82
379036	4090238	But he added the list given was still incomplete.	But he added the list given was still incomplete	194306215	1477192002749	1477192002973	e	69
379036	4090238	But he added the list given was still incomplete.	But he added the list given was still incomplete	194306217	1477192003162	1477192003268	BKSP	8
379036	4090238	But he added the list given was still incomplete.	But he added the list given was still incomplete	194306218	1477192003338	1477192003466	BKSP	8
379036	4090238	But he added the list given was still incomplete.	But he added the list given was still incomplete	194306220	1477192003425	1477192003674	t	84
379036	4090238	But he added the list given was still incomplete.	But he added the list given was still incomplete	194306221	1477192003914	1477192004131	e	69
379036	4090258	We're not a lock for the pole.	We're not a lock for the pole.	194306385	1477192007042	1477192007207	SHIFT	16
379036	4090258	We're not a lock for the pole.	We're not a lock for the pole.	194306392	1477192007282	1477192007740	SHIFT	16
379036	4090258	We're not a lock for the pole.	We're not a lock for the pole.	194306389	1477192007522	1477192007691	W	87
379036	4090258	We're not a lock for the pole.	We're not a lock for the pole.	194306394	1477192008571	1477192008787	e	69
379036	4090258	We're not a lock for the pole.	We're not a lock for the pole.	194306396	1477192008788	1477192008948	'	222
379036	4090258	We're not a lock for the pole.	We're not a lock for the pole.	194306401	1477192009401	1477192009616	r	82
379036	4090258	We're not a lock for the pole.	We're not a lock for the pole.	194306453	1477192009515	1477192009730	e	69
379036	4090258	We're not a lock for the pole.	We're not a lock for the pole.	194306454	1477192009724	1477192009914	 	32
379036	4090258	We're not a lock for the pole.	We're not a lock for the pole.	194306456	1477192010803	1477192011003	n	78
379036	4090258	We're not a lock for the pole.	We're not a lock for the pole.	194306457	1477192010940	1477192011138	o	79
379036	4090258	We're not a lock for the pole.	We're not a lock for the pole.	194306459	1477192010998	1477192011207	t	84
379036	4090258	We're not a lock for the pole.	We're not a lock for the pole.	194306463	1477192011243	1477192011401	 	32
379036	4090258	We're not a lock for the pole.	We're not a lock for the pole.	194306500	1477192011578	1477192011762	a	65
379036	4090258	We're not a lock for the pole.	We're not a lock for the pole.	194306505	1477192011738	1477192011892	 	32
379036	4090258	We're not a lock for the pole.	We're not a lock for the pole.	194306511	1477192012313	1477192012398	l	76
379036	4090258	We're not a lock for the pole.	We're not a lock for the pole.	194306515	1477192012478	1477192012642	o	79
379036	4090258	We're not a lock for the pole.	We're not a lock for the pole.	194306520	1477192012728	1477192012918	c	67
379036	4090258	We're not a lock for the pole.	We're not a lock for the pole.	194306590	1477192012940	1477192013049	k	75
379036	4090258	We're not a lock for the pole.	We're not a lock for the pole.	194306594	1477192013072	1477192013214	 	32
379036	4090258	We're not a lock for the pole.	We're not a lock for the pole.	194306597	1477192014287	1477192014433	f	70
379036	4090258	We're not a lock for the pole.	We're not a lock for the pole.	194306601	1477192014388	1477192014523	o	79
379036	4090258	We're not a lock for the pole.	We're not a lock for the pole.	194306604	1477192014541	1477192014700	r	82
379036	4090258	We're not a lock for the pole.	We're not a lock for the pole.	194306674	1477192014693	1477192014829	 	32
379036	4090258	We're not a lock for the pole.	We're not a lock for the pole.	194306680	1477192014830	1477192015029	t	84
379036	4090258	We're not a lock for the pole.	We're not a lock for the pole.	194306684	1477192014961	1477192015129	h	72
379036	4090258	We're not a lock for the pole.	We're not a lock for the pole.	194306689	1477192015100	1477192015415	e	69
379036	4090258	We're not a lock for the pole.	We're not a lock for the pole.	194306693	1477192015446	1477192015659	 	32
379036	4090258	We're not a lock for the pole.	We're not a lock for the pole.	194306697	1477192016486	1477192016506	p	80
379036	4090258	We're not a lock for the pole.	We're not a lock for the pole.	194306768	1477192017020	1477192017175	p	80
379036	4090258	We're not a lock for the pole.	We're not a lock for the pole.	194306770	1477192017540	1477192017659	BKSP	8
379036	4090258	We're not a lock for the pole.	We're not a lock for the pole.	194306771	1477192018083	1477192018202	o	79
379036	4090258	We're not a lock for the pole.	We're not a lock for the pole.	194306773	1477192018261	1477192018401	l	76
379036	4090258	We're not a lock for the pole.	We're not a lock for the pole.	194306774	1477192018393	1477192018586	e	69
379036	4090258	We're not a lock for the pole.	We're not a lock for the pole.	194306776	1477192018752	1477192018892	/	191
379036	4090258	We're not a lock for the pole.	We're not a lock for the pole.	194306845	1477192019685	1477192019890	e	69
379036	4090258	We're not a lock for the pole.	We're not a lock for the pole.	194306846	1477192019822	1477192019934	BKSP	8
379036	4090258	We're not a lock for the pole.	We're not a lock for the pole.	194306847	1477192020161	1477192020267	.	190
379036	4090258	We're not a lock for the pole.	We're not a lock for the pole.	194306849	1477192021133	1477192021213	BKSP	8
379036	4090258	We're not a lock for the pole.	We're not a lock for the pole.	194306848	1477192021168	1477192021188	F12	123
379036	4090258	We're not a lock for the pole.	We're not a lock for the pole.	194306851	1477192021330	1477192021424	BKSP	8
379036	4090258	We're not a lock for the pole.	We're not a lock for the pole.	194306850	1477192021350	1477192021412	F12	123
379036	4090258	We're not a lock for the pole.	We're not a lock for the pole.	194306852	1477192022121	1477192022239	.	190
379036	4090270	Iraq is particularly keen on getting rid of the oil embargo.	Iraq is particularly keen on getting rid of the oil embargo.	194306939	1477192025092	1477192025588	SHIFT	16
379036	4090270	Iraq is particularly keen on getting rid of the oil embargo.	Iraq is particularly keen on getting rid of the oil embargo.	194306938	1477192025454	1477192025516	I	73
379036	4090270	Iraq is particularly keen on getting rid of the oil embargo.	Iraq is particularly keen on getting rid of the oil embargo.	194306940	1477192025936	1477192026177	r	82
379036	4090270	Iraq is particularly keen on getting rid of the oil embargo.	Iraq is particularly keen on getting rid of the oil embargo.	194306941	1477192026019	1477192026351	a	65
379036	4090270	Iraq is particularly keen on getting rid of the oil embargo.	Iraq is particularly keen on getting rid of the oil embargo.	194306942	1477192027079	1477192027252	q	81
379036	4090270	Iraq is particularly keen on getting rid of the oil embargo.	Iraq is particularly keen on getting rid of the oil embargo.	194306943	1477192027373	1477192027585	 	32
379036	4090270	Iraq is particularly keen on getting rid of the oil embargo.	Iraq is particularly keen on getting rid of the oil embargo.	194307000	1477192028368	1477192028492	i	73
379036	4090270	Iraq is particularly keen on getting rid of the oil embargo.	Iraq is particularly keen on getting rid of the oil embargo.	194307001	1477192028475	1477192028642	s	83
379036	4090270	Iraq is particularly keen on getting rid of the oil embargo.	Iraq is particularly keen on getting rid of the oil embargo.	194307002	1477192028606	1477192028779	 	32
379036	4090270	Iraq is particularly keen on getting rid of the oil embargo.	Iraq is particularly keen on getting rid of the oil embargo.	194307003	1477192029589	1477192029692	p	80
379036	4090270	Iraq is particularly keen on getting rid of the oil embargo.	Iraq is particularly keen on getting rid of the oil embargo.	194307004	1477192029734	1477192030003	a	65
379036	4090270	Iraq is particularly keen on getting rid of the oil embargo.	Iraq is particularly keen on getting rid of the oil embargo.	194307042	1477192030035	1477192030232	r	82
379036	4090270	Iraq is particularly keen on getting rid of the oil embargo.	Iraq is particularly keen on getting rid of the oil embargo.	194307044	1477192030281	1477192030492	t	84
379036	4090270	Iraq is particularly keen on getting rid of the oil embargo.	Iraq is particularly keen on getting rid of the oil embargo.	194307046	1477192030532	1477192030679	i	73
379036	4090270	Iraq is particularly keen on getting rid of the oil embargo.	Iraq is particularly keen on getting rid of the oil embargo.	194307048	1477192031210	1477192031399	c	67
379036	4090270	Iraq is particularly keen on getting rid of the oil embargo.	Iraq is particularly keen on getting rid of the oil embargo.	194307050	1477192031456	1477192031611	u	85
379036	4090270	Iraq is particularly keen on getting rid of the oil embargo.	Iraq is particularly keen on getting rid of the oil embargo.	194307107	1477192032790	1477192032907	l	76
379036	4090270	Iraq is particularly keen on getting rid of the oil embargo.	Iraq is particularly keen on getting rid of the oil embargo.	194307108	1477192032950	1477192033247	a	65
379036	4090270	Iraq is particularly keen on getting rid of the oil embargo.	Iraq is particularly keen on getting rid of the oil embargo.	194307109	1477192033200	1477192033403	r	82
379036	4090270	Iraq is particularly keen on getting rid of the oil embargo.	Iraq is particularly keen on getting rid of the oil embargo.	194307111	1477192033565	1477192033820	y	89
379036	4090270	Iraq is particularly keen on getting rid of the oil embargo.	Iraq is particularly keen on getting rid of the oil embargo.	194307113	1477192033959	1477192034138	 	32
379036	4090270	Iraq is particularly keen on getting rid of the oil embargo.	Iraq is particularly keen on getting rid of the oil embargo.	194307293	1477192034991	1477192035099	F12	123
379036	4090270	Iraq is particularly keen on getting rid of the oil embargo.	Iraq is particularly keen on getting rid of the oil embargo.	194307292	1477192035004	1477192035096	BKSP	8
379036	4090270	Iraq is particularly keen on getting rid of the oil embargo.	Iraq is particularly keen on getting rid of the oil embargo.	194307295	1477192035265	1477192035413	BKSP	8
379036	4090270	Iraq is particularly keen on getting rid of the oil embargo.	Iraq is particularly keen on getting rid of the oil embargo.	194307297	1477192035476	1477192035545	BKSP	8
379036	4090270	Iraq is particularly keen on getting rid of the oil embargo.	Iraq is particularly keen on getting rid of the oil embargo.	194307301	1477192039428	1477192039672	r	82
379036	4090270	Iraq is particularly keen on getting rid of the oil embargo.	Iraq is particularly keen on getting rid of the oil embargo.	194307303	1477192039573	1477192039701	l	76
379036	4090270	Iraq is particularly keen on getting rid of the oil embargo.	Iraq is particularly keen on getting rid of the oil embargo.	194307305	1477192039630	1477192039853	t	89
379036	4090270	Iraq is particularly keen on getting rid of the oil embargo.	Iraq is particularly keen on getting rid of the oil embargo.	194307312	1477192040270	1477192040327	INSERT	45
379036	4090270	Iraq is particularly keen on getting rid of the oil embargo.	Iraq is particularly keen on getting rid of the oil embargo.	194307308	1477192040279	1477192040323	BKSP	8
379036	4090270	Iraq is particularly keen on getting rid of the oil embargo.	Iraq is particularly keen on getting rid of the oil embargo.	194307315	1477192040566	1477192040626	BKSP	8
379036	4090270	Iraq is particularly keen on getting rid of the oil embargo.	Iraq is particularly keen on getting rid of the oil embargo.	194307316	1477192041376	1477192041571	y	89
379036	4090270	Iraq is particularly keen on getting rid of the oil embargo.	Iraq is particularly keen on getting rid of the oil embargo.	194307371	1477192041775	1477192041945	 	32
379036	4090270	Iraq is particularly keen on getting rid of the oil embargo.	Iraq is particularly keen on getting rid of the oil embargo.	194307374	1477192042716	1477192042860	k	75
379036	4090270	Iraq is particularly keen on getting rid of the oil embargo.	Iraq is particularly keen on getting rid of the oil embargo.	194307377	1477192042828	1477192042979	e	69
379036	4090270	Iraq is particularly keen on getting rid of the oil embargo.	Iraq is particularly keen on getting rid of the oil embargo.	194307380	1477192043053	1477192043234	e	69
379036	4090270	Iraq is particularly keen on getting rid of the oil embargo.	Iraq is particularly keen on getting rid of the oil embargo.	194307382	1477192043940	1477192044056	n	78
379036	4090270	Iraq is particularly keen on getting rid of the oil embargo.	Iraq is particularly keen on getting rid of the oil embargo.	194307400	1477192044091	1477192044253	 	32
379036	4090270	Iraq is particularly keen on getting rid of the oil embargo.	Iraq is particularly keen on getting rid of the oil embargo.	194307401	1477192044258	1477192044521	o	79
379036	4090270	Iraq is particularly keen on getting rid of the oil embargo.	Iraq is particularly keen on getting rid of the oil embargo.	194307402	1477192044428	1477192044594	n	78
379036	4090270	Iraq is particularly keen on getting rid of the oil embargo.	Iraq is particularly keen on getting rid of the oil embargo.	194307403	1477192044588	1477192044752	 	32
379036	4090270	Iraq is particularly keen on getting rid of the oil embargo.	Iraq is particularly keen on getting rid of the oil embargo.	194307404	1477192044827	1477192045009	g	71
379036	4090270	Iraq is particularly keen on getting rid of the oil embargo.	Iraq is particularly keen on getting rid of the oil embargo.	194307466	1477192044948	1477192045221	e	69
379036	4090270	Iraq is particularly keen on getting rid of the oil embargo.	Iraq is particularly keen on getting rid of the oil embargo.	194307467	1477192045152	1477192045331	t	84
379036	4090270	Iraq is particularly keen on getting rid of the oil embargo.	Iraq is particularly keen on getting rid of the oil embargo.	194307468	1477192045416	1477192045563	t	84
379036	4090270	Iraq is particularly keen on getting rid of the oil embargo.	Iraq is particularly keen on getting rid of the oil embargo.	194307469	1477192045607	1477192045946	i	85
379036	4090270	Iraq is particularly keen on getting rid of the oil embargo.	Iraq is particularly keen on getting rid of the oil embargo.	194307470	1477192046267	1477192046381	BKSP	8
379036	4090270	Iraq is particularly keen on getting rid of the oil embargo.	Iraq is particularly keen on getting rid of the oil embargo.	194307472	1477192046415	1477192046528	BKSP	8
379036	4090270	Iraq is particularly keen on getting rid of the oil embargo.	Iraq is particularly keen on getting rid of the oil embargo.	194307474	1477192047054	1477192047246	i	73
379036	4090270	Iraq is particularly keen on getting rid of the oil embargo.	Iraq is particularly keen on getting rid of the oil embargo.	194307522	1477192047119	1477192047327	n	78
379036	4090270	Iraq is particularly keen on getting rid of the oil embargo.	Iraq is particularly keen on getting rid of the oil embargo.	194307524	1477192047233	1477192047415	g	71
379036	4090270	Iraq is particularly keen on getting rid of the oil embargo.	Iraq is particularly keen on getting rid of the oil embargo.	194307526	1477192047411	1477192047612	 	32
379036	4090270	Iraq is particularly keen on getting rid of the oil embargo.	Iraq is particularly keen on getting rid of the oil embargo.	194307528	1477192048622	1477192048762	r	82
379036	4090270	Iraq is particularly keen on getting rid of the oil embargo.	Iraq is particularly keen on getting rid of the oil embargo.	194307530	1477192048718	1477192048846	i	73
379036	4090270	Iraq is particularly keen on getting rid of the oil embargo.	Iraq is particularly keen on getting rid of the oil embargo.	194307532	1477192048983	1477192049186	d	68
379036	4090270	Iraq is particularly keen on getting rid of the oil embargo.	Iraq is particularly keen on getting rid of the oil embargo.	194307533	1477192049202	1477192049380	 	32
379036	4090270	Iraq is particularly keen on getting rid of the oil embargo.	Iraq is particularly keen on getting rid of the oil embargo.	194307572	1477192050354	1477192050451	o	79
379036	4090270	Iraq is particularly keen on getting rid of the oil embargo.	Iraq is particularly keen on getting rid of the oil embargo.	194307573	1477192050668	1477192050819	f	70
379036	4090270	Iraq is particularly keen on getting rid of the oil embargo.	Iraq is particularly keen on getting rid of the oil embargo.	194307574	1477192050789	1477192050944	 	32
379036	4090270	Iraq is particularly keen on getting rid of the oil embargo.	Iraq is particularly keen on getting rid of the oil embargo.	194307575	1477192050932	1477192051197	t	84
379036	4090270	Iraq is particularly keen on getting rid of the oil embargo.	Iraq is particularly keen on getting rid of the oil embargo.	194307627	1477192051048	1477192051239	h	72
379036	4090270	Iraq is particularly keen on getting rid of the oil embargo.	Iraq is particularly keen on getting rid of the oil embargo.	194307630	1477192051186	1477192051451	e	69
379036	4090270	Iraq is particularly keen on getting rid of the oil embargo.	Iraq is particularly keen on getting rid of the oil embargo.	194307631	1477192051488	1477192051659	 	32
379036	4090270	Iraq is particularly keen on getting rid of the oil embargo.	Iraq is particularly keen on getting rid of the oil embargo.	194307632	1477192052410	1477192052614	o	79
379036	4090270	Iraq is particularly keen on getting rid of the oil embargo.	Iraq is particularly keen on getting rid of the oil embargo.	194307633	1477192052568	1477192052726	i	73
379036	4090270	Iraq is particularly keen on getting rid of the oil embargo.	Iraq is particularly keen on getting rid of the oil embargo.	194307634	1477192052767	1477192052911	l	76
379036	4090270	Iraq is particularly keen on getting rid of the oil embargo.	Iraq is particularly keen on getting rid of the oil embargo.	194307635	1477192053024	1477192053200	 	32
379036	4090270	Iraq is particularly keen on getting rid of the oil embargo.	Iraq is particularly keen on getting rid of the oil embargo.	194307711	1477192053808	1477192054011	e	69
379036	4090270	Iraq is particularly keen on getting rid of the oil embargo.	Iraq is particularly keen on getting rid of the oil embargo.	194307713	1477192053938	1477192054067	m	77
379036	4090270	Iraq is particularly keen on getting rid of the oil embargo.	Iraq is particularly keen on getting rid of the oil embargo.	194307715	1477192055124	1477192055209	b	66
379036	4090270	Iraq is particularly keen on getting rid of the oil embargo.	Iraq is particularly keen on getting rid of the oil embargo.	194307717	1477192055263	1477192055637	a	65
379036	4090270	Iraq is particularly keen on getting rid of the oil embargo.	Iraq is particularly keen on getting rid of the oil embargo.	194307778	1477192055505	1477192055694	r	82
379036	4090270	Iraq is particularly keen on getting rid of the oil embargo.	Iraq is particularly keen on getting rid of the oil embargo.	194307780	1477192055822	1477192056064	g	71
379036	4090270	Iraq is particularly keen on getting rid of the oil embargo.	Iraq is particularly keen on getting rid of the oil embargo.	194307781	1477192056000	1477192056144	o	79
379036	4090270	Iraq is particularly keen on getting rid of the oil embargo.	Iraq is particularly keen on getting rid of the oil embargo.	194307782	1477192056930	1477192057091	.	190
