PARTICIPANT_ID	TEST_SECTION_ID	SENTENCE	USER_INPUT	KEYSTROKE_ID	PRESS_TIME	RELEASE_TIME	LETTER	KEYCODE
383341	4139936	I haven't seen it yet.	I haven't seen it yet.	196675667	1477289421129	1477289421680	SHIFT	16
383341	4139936	I haven't seen it yet.	I haven't seen it yet.	196675666	1477289421504	1477289421649	I	73
383341	4139936	I haven't seen it yet.	I haven't seen it yet.	196675668	1477289422167	1477289422315	 	32
383341	4139936	I haven't seen it yet.	I haven't seen it yet.	196675669	1477289423129	1477289423313	h	72
383341	4139936	I haven't seen it yet.	I haven't seen it yet.	196675670	1477289423344	1477289423530	a	65
383341	4139936	I haven't seen it yet.	I haven't seen it yet.	196675671	1477289423904	1477289423972	v	86
383341	4139936	I haven't seen it yet.	I haven't seen it yet.	196675762	1477289424082	1477289424200	e	69
383341	4139936	I haven't seen it yet.	I haven't seen it yet.	196675764	1477289424372	1477289424561	 	32
383341	4139936	I haven't seen it yet.	I haven't seen it yet.	196675766	1477289424955	1477289425130	BKSP	8
383341	4139936	I haven't seen it yet.	I haven't seen it yet.	196675768	1477289425742	1477289425836	n	78
383341	4139936	I haven't seen it yet.	I haven't seen it yet.	196675770	1477289426400	1477289426455	'	222
383341	4139936	I haven't seen it yet.	I haven't seen it yet.	196675771	1477289426877	1477289426985	t	84
383341	4139936	I haven't seen it yet.	I haven't seen it yet.	196675814	1477289427032	1477289427135	 	32
383341	4139936	I haven't seen it yet.	I haven't seen it yet.	196675816	1477289427541	1477289427836	s	83
383341	4139936	I haven't seen it yet.	I haven't seen it yet.	196675818	1477289427745	1477289427883	e	69
383341	4139936	I haven't seen it yet.	I haven't seen it yet.	196675820	1477289428195	1477289428302	e	69
383341	4139936	I haven't seen it yet.	I haven't seen it yet.	196675822	1477289428380	1477289428469	n	78
383341	4139936	I haven't seen it yet.	I haven't seen it yet.	196675889	1477289428626	1477289428719	 	32
383341	4139936	I haven't seen it yet.	I haven't seen it yet.	196675890	1477289429394	1477289429485	i	73
383341	4139936	I haven't seen it yet.	I haven't seen it yet.	196675891	1477289429594	1477289429669	t	84
383341	4139936	I haven't seen it yet.	I haven't seen it yet.	196675892	1477289429779	1477289429838	 	32
383341	4139936	I haven't seen it yet.	I haven't seen it yet.	196675893	1477289430404	1477289430502	y	89
383341	4139936	I haven't seen it yet.	I haven't seen it yet.	196675910	1477289430862	1477289431071	e	69
383341	4139936	I haven't seen it yet.	I haven't seen it yet.	196675911	1477289431014	1477289431133	t	84
383341	4139936	I haven't seen it yet.	I haven't seen it yet.	196675912	1477289431730	1477289431835	.	190
383341	4139972	You can have all the horsepower and it won't matter.	You can have all the horsepower and it won't matter.	196676300	1477289440851	1477289441730	SHIFT	16
383341	4139972	You can have all the horsepower and it won't matter.	You can have all the horsepower and it won't matter.	196676297	1477289441541	1477289441714	Y	89
383341	4139972	You can have all the horsepower and it won't matter.	You can have all the horsepower and it won't matter.	196676304	1477289441839	1477289441982	o	79
383341	4139972	You can have all the horsepower and it won't matter.	You can have all the horsepower and it won't matter.	196676306	1477289442811	1477289442887	u	85
383341	4139972	You can have all the horsepower and it won't matter.	You can have all the horsepower and it won't matter.	196676310	1477289443058	1477289443183	 	32
383341	4139972	You can have all the horsepower and it won't matter.	You can have all the horsepower and it won't matter.	196676312	1477289443779	1477289444052	c	67
383341	4139972	You can have all the horsepower and it won't matter.	You can have all the horsepower and it won't matter.	196676342	1477289443977	1477289444131	a	65
383341	4139972	You can have all the horsepower and it won't matter.	You can have all the horsepower and it won't matter.	196676344	1477289444131	1477289444249	n	78
383341	4139972	You can have all the horsepower and it won't matter.	You can have all the horsepower and it won't matter.	196676347	1477289444437	1477289444550	 	32
383341	4139972	You can have all the horsepower and it won't matter.	You can have all the horsepower and it won't matter.	196676350	1477289445084	1477289445262	h	72
383341	4139972	You can have all the horsepower and it won't matter.	You can have all the horsepower and it won't matter.	196676354	1477289445293	1477289445463	a	65
383341	4139972	You can have all the horsepower and it won't matter.	You can have all the horsepower and it won't matter.	196676358	1477289445935	1477289446112	e	69
383341	4139972	You can have all the horsepower and it won't matter.	You can have all the horsepower and it won't matter.	196676432	1477289446112	1477289446282	 	32
383341	4139972	You can have all the horsepower and it won't matter.	You can have all the horsepower and it won't matter.	196676434	1477289446422	1477289446582	a	65
383341	4139972	You can have all the horsepower and it won't matter.	You can have all the horsepower and it won't matter.	196676436	1477289446880	1477289446953	BKSP	8
383341	4139972	You can have all the horsepower and it won't matter.	You can have all the horsepower and it won't matter.	196676438	1477289447064	1477289447213	BKSP	8
383341	4139972	You can have all the horsepower and it won't matter.	You can have all the horsepower and it won't matter.	196676439	1477289447322	1477289447449	BKSP	8
383341	4139972	You can have all the horsepower and it won't matter.	You can have all the horsepower and it won't matter.	196676440	1477289448076	1477289448324	v	86
383341	4139972	You can have all the horsepower and it won't matter.	You can have all the horsepower and it won't matter.	196676441	1477289448339	1477289448498	e	69
383341	4139972	You can have all the horsepower and it won't matter.	You can have all the horsepower and it won't matter.	196676442	1477289448498	1477289448648	 	32
383341	4139972	You can have all the horsepower and it won't matter.	You can have all the horsepower and it won't matter.	196676464	1477289448898	1477289449095	a	65
383341	4139972	You can have all the horsepower and it won't matter.	You can have all the horsepower and it won't matter.	196676465	1477289449753	1477289449836	l	76
383341	4139972	You can have all the horsepower and it won't matter.	You can have all the horsepower and it won't matter.	196676466	1477289449929	1477289450034	l	76
383341	4139972	You can have all the horsepower and it won't matter.	You can have all the horsepower and it won't matter.	196676467	1477289450174	1477289450362	 	32
383341	4139972	You can have all the horsepower and it won't matter.	You can have all the horsepower and it won't matter.	196676468	1477289450518	1477289450648	t	84
383341	4139972	You can have all the horsepower and it won't matter.	You can have all the horsepower and it won't matter.	196676520	1477289450711	1477289450848	h	72
383341	4139972	You can have all the horsepower and it won't matter.	You can have all the horsepower and it won't matter.	196676522	1477289450848	1477289450966	e	69
383341	4139972	You can have all the horsepower and it won't matter.	You can have all the horsepower and it won't matter.	196676524	1477289451075	1477289451186	 	32
383341	4139972	You can have all the horsepower and it won't matter.	You can have all the horsepower and it won't matter.	196676526	1477289452313	1477289452465	h	72
383341	4139972	You can have all the horsepower and it won't matter.	You can have all the horsepower and it won't matter.	196676528	1477289452574	1477289452746	o	79
383341	4139972	You can have all the horsepower and it won't matter.	You can have all the horsepower and it won't matter.	196676596	1477289453451	1477289453614	r	82
383341	4139972	You can have all the horsepower and it won't matter.	You can have all the horsepower and it won't matter.	196676599	1477289453708	1477289453953	s	83
383341	4139972	You can have all the horsepower and it won't matter.	You can have all the horsepower and it won't matter.	196676603	1477289453895	1477289454015	e	69
383341	4139972	You can have all the horsepower and it won't matter.	You can have all the horsepower and it won't matter.	196676607	1477289454405	1477289454517	p	80
383341	4139972	You can have all the horsepower and it won't matter.	You can have all the horsepower and it won't matter.	196676612	1477289455268	1477289455382	o	79
383341	4139972	You can have all the horsepower and it won't matter.	You can have all the horsepower and it won't matter.	196676666	1477289455902	1477289456245	w	87
383341	4139972	You can have all the horsepower and it won't matter.	You can have all the horsepower and it won't matter.	196676668	1477289456064	1477289456328	e	69
383341	4139972	You can have all the horsepower and it won't matter.	You can have all the horsepower and it won't matter.	196676669	1477289456291	1477289456400	r	82
383341	4139972	You can have all the horsepower and it won't matter.	You can have all the horsepower and it won't matter.	196676670	1477289456587	1477289456762	 	32
383341	4139972	You can have all the horsepower and it won't matter.	You can have all the horsepower and it won't matter.	196676672	1477289458078	1477289458215	a	65
383341	4139972	You can have all the horsepower and it won't matter.	You can have all the horsepower and it won't matter.	196676721	1477289458780	1477289458962	n	78
383341	4139972	You can have all the horsepower and it won't matter.	You can have all the horsepower and it won't matter.	196676723	1477289459024	1477289459118	d	68
383341	4139972	You can have all the horsepower and it won't matter.	You can have all the horsepower and it won't matter.	196676724	1477289459212	1477289459332	 	32
383341	4139972	You can have all the horsepower and it won't matter.	You can have all the horsepower and it won't matter.	196676726	1477289460070	1477289460231	i	73
383341	4139972	You can have all the horsepower and it won't matter.	You can have all the horsepower and it won't matter.	196676728	1477289460247	1477289460335	t	84
383341	4139972	You can have all the horsepower and it won't matter.	You can have all the horsepower and it won't matter.	196676801	1477289460476	1477289460584	 	32
383341	4139972	You can have all the horsepower and it won't matter.	You can have all the horsepower and it won't matter.	196676802	1477289461384	1477289461515	w	87
383341	4139972	You can have all the horsepower and it won't matter.	You can have all the horsepower and it won't matter.	196676804	1477289461625	1477289461764	o	79
383341	4139972	You can have all the horsepower and it won't matter.	You can have all the horsepower and it won't matter.	196676807	1477289461936	1477289462065	n	78
383341	4139972	You can have all the horsepower and it won't matter.	You can have all the horsepower and it won't matter.	196676814	1477289462377	1477289462498	'	222
383341	4139972	You can have all the horsepower and it won't matter.	You can have all the horsepower and it won't matter.	196676838	1477289462531	1477289462635	t	84
383341	4139972	You can have all the horsepower and it won't matter.	You can have all the horsepower and it won't matter.	196676839	1477289462744	1477289462896	 	32
383341	4139972	You can have all the horsepower and it won't matter.	You can have all the horsepower and it won't matter.	196676840	1477289463603	1477289463733	m	77
383341	4139972	You can have all the horsepower and it won't matter.	You can have all the horsepower and it won't matter.	196676841	1477289463795	1477289464004	a	65
383341	4139972	You can have all the horsepower and it won't matter.	You can have all the horsepower and it won't matter.	196676882	1477289463962	1477289464115	t	84
383341	4139972	You can have all the horsepower and it won't matter.	You can have all the horsepower and it won't matter.	196676883	1477289464349	1477289464514	t	84
383341	4139972	You can have all the horsepower and it won't matter.	You can have all the horsepower and it won't matter.	196676884	1477289464654	1477289464843	e	69
383341	4139972	You can have all the horsepower and it won't matter.	You can have all the horsepower and it won't matter.	196676885	1477289464798	1477289464917	r	82
383341	4139972	You can have all the horsepower and it won't matter.	You can have all the horsepower and it won't matter.	196676886	1477289465451	1477289465581	.	190
383341	4139992	Is that enough for this week?	Is that enough for this week?	196677080	1477289469658	1477289469889	SHIFT	16
383341	4139992	Is that enough for this week?	Is that enough for this week?	196677083	1477289469842	1477289470011	I	73
383341	4139992	Is that enough for this week?	Is that enough for this week?	196677086	1477289470167	1477289470314	s	83
383341	4139992	Is that enough for this week?	Is that enough for this week?	196677089	1477289471742	1477289471865	 	32
383341	4139992	Is that enough for this week?	Is that enough for this week?	196677092	1477289472271	1477289472429	t	84
383341	4139992	Is that enough for this week?	Is that enough for this week?	196677096	1477289472460	1477289472597	h	72
383341	4139992	Is that enough for this week?	Is that enough for this week?	196677144	1477289472629	1477289472827	a	65
383341	4139992	Is that enough for this week?	Is that enough for this week?	196677146	1477289472811	1477289472931	t	84
383341	4139992	Is that enough for this week?	Is that enough for this week?	196677148	1477289472978	1477289473114	 	32
383341	4139992	Is that enough for this week?	Is that enough for this week?	196677150	1477289473945	1477289474081	e	69
383341	4139992	Is that enough for this week?	Is that enough for this week?	196677154	1477289474144	1477289474265	n	78
383341	4139992	Is that enough for this week?	Is that enough for this week?	196677174	1477289474422	1477289474579	o	79
383341	4139992	Is that enough for this week?	Is that enough for this week?	196677175	1477289474673	1477289474798	u	85
383341	4139992	Is that enough for this week?	Is that enough for this week?	196677177	1477289474923	1477289475032	g	71
383341	4139992	Is that enough for this week?	Is that enough for this week?	196677179	1477289475064	1477289475181	h	72
383341	4139992	Is that enough for this week?	Is that enough for this week?	196677181	1477289475417	1477289475547	 	32
383341	4139992	Is that enough for this week?	Is that enough for this week?	196677233	1477289476003	1477289476147	f	70
383341	4139992	Is that enough for this week?	Is that enough for this week?	196677235	1477289476178	1477289476299	o	79
383341	4139992	Is that enough for this week?	Is that enough for this week?	196677238	1477289476345	1477289476481	r	82
383341	4139992	Is that enough for this week?	Is that enough for this week?	196677241	1477289476528	1477289476634	 	32
383341	4139992	Is that enough for this week?	Is that enough for this week?	196677244	1477289477276	1477289477383	t	84
383341	4139992	Is that enough for this week?	Is that enough for this week?	196677277	1477289477415	1477289477578	h	72
383341	4139992	Is that enough for this week?	Is that enough for this week?	196677281	1477289477640	1477289477765	i	73
383341	4139992	Is that enough for this week?	Is that enough for this week?	196677285	1477289477750	1477289477912	s	83
383341	4139992	Is that enough for this week?	Is that enough for this week?	196677290	1477289477975	1477289478099	 	32
383341	4139992	Is that enough for this week?	Is that enough for this week?	196677294	1477289478756	1477289479002	w	87
383341	4139992	Is that enough for this week?	Is that enough for this week?	196677391	1477289478928	1477289479081	e	69
383341	4139992	Is that enough for this week?	Is that enough for this week?	196677393	1477289479362	1477289479481	e	69
383341	4139992	Is that enough for this week?	Is that enough for this week?	196677395	1477289480063	1477289480228	k	75
383341	4139992	Is that enough for this week?	Is that enough for this week?	196677397	1477289480337	1477289480923	SHIFT	16
383341	4139992	Is that enough for this week?	Is that enough for this week?	196677396	1477289480669	1477289480845	"	222
383341	4139992	Is that enough for this week?	Is that enough for this week?	196677398	1477289481362	1477289481528	BKSP	8
383341	4139992	Is that enough for this week?	Is that enough for this week?	196677401	1477289481733	1477289482217	SHIFT	16
383341	4139992	Is that enough for this week?	Is that enough for this week?	196677399	1477289482124	1477289482186	?	191
383341	4140002	I have some more data coming.	I have some more data coming.	196679044	1477289536496	1477289536812	SHIFT	16
383341	4140002	I have some more data coming.	I have some more data coming.	196679043	1477289536652	1477289536797	I	73
383341	4140002	I have some more data coming.	I have some more data coming.	196679047	1477289537015	1477289537161	 	32
383341	4140002	I have some more data coming.	I have some more data coming.	196679049	1477289537350	1477289537556	h	72
383341	4140002	I have some more data coming.	I have some more data coming.	196679050	1477289537806	1477289537961	a	65
383341	4140002	I have some more data coming.	I have some more data coming.	196679052	1477289538039	1477289538304	v	86
383341	4140002	I have some more data coming.	I have some more data coming.	196679085	1477289538288	1477289538476	e	69
383341	4140002	I have some more data coming.	I have some more data coming.	196679087	1477289538507	1477289538677	 	32
383341	4140002	I have some more data coming.	I have some more data coming.	196679089	1477289539164	1477289539312	s	83
383341	4140002	I have some more data coming.	I have some more data coming.	196679091	1477289539327	1477289539463	o	79
383341	4140002	I have some more data coming.	I have some more data coming.	196679092	1477289539744	1477289539863	m	77
383341	4140002	I have some more data coming.	I have some more data coming.	196679093	1477289539895	1477289540013	e	69
383341	4140002	I have some more data coming.	I have some more data coming.	196679142	1477289540044	1477289540163	 	32
383341	4140002	I have some more data coming.	I have some more data coming.	196679145	1477289540698	1477289540846	m	77
383341	4140002	I have some more data coming.	I have some more data coming.	196679147	1477289541017	1477289541049	o	79
383341	4140002	I have some more data coming.	I have some more data coming.	196679150	1477289541805	1477289541993	r	82
383341	4140002	I have some more data coming.	I have some more data coming.	196679259	1477289541977	1477289542112	e	69
383341	4140002	I have some more data coming.	I have some more data coming.	196679260	1477289542708	1477289542846	 	32
383341	4140002	I have some more data coming.	I have some more data coming.	196679262	1477289543271	1477289543505	s	83
383341	4140002	I have some more data coming.	I have some more data coming.	196679264	1477289543786	1477289543960	BKSP	8
383341	4140002	I have some more data coming.	I have some more data coming.	196679266	1477289543960	1477289544198	d	68
383341	4140002	I have some more data coming.	I have some more data coming.	196679267	1477289544158	1477289544359	a	65
383341	4140002	I have some more data coming.	I have some more data coming.	196679268	1477289545048	1477289545194	t	84
383341	4140002	I have some more data coming.	I have some more data coming.	196679380	1477289550201	1477289550502	 	32
383341	4140002	I have some more data coming.	I have some more data coming.	196679381	1477289551113	1477289551308	c	67
383341	4140002	I have some more data coming.	I have some more data coming.	196679382	1477289551433	1477289551579	o	79
383341	4140002	I have some more data coming.	I have some more data coming.	196679383	1477289551751	1477289551881	m	77
383341	4140002	I have some more data coming.	I have some more data coming.	196679411	1477289551991	1477289552144	i	73
383341	4140002	I have some more data coming.	I have some more data coming.	196679413	1477289552254	1477289552427	n	78
383341	4140002	I have some more data coming.	I have some more data coming.	196679416	1477289552458	1477289552595	g	71
383341	4140002	I have some more data coming.	I have some more data coming.	196679419	1477289553129	1477289553215	.	190
383341	4140042	The Hawks led from late in the first quarter.	The Hawks led from late in the first quarter.	196680097	1477289579890	1477289580427	SHIFT	16
383341	4140042	The Hawks led from late in the first quarter.	The Hawks led from late in the first quarter.	196680096	1477289580274	1477289580427	T	84
383341	4140042	The Hawks led from late in the first quarter.	The Hawks led from late in the first quarter.	196680098	1477289580489	1477289580611	h	72
383341	4140042	The Hawks led from late in the first quarter.	The Hawks led from late in the first quarter.	196680099	1477289580642	1477289580794	e	69
383341	4140042	The Hawks led from late in the first quarter.	The Hawks led from late in the first quarter.	196680100	1477289580857	1477289580962	 	32
383341	4140042	The Hawks led from late in the first quarter.	The Hawks led from late in the first quarter.	196680101	1477289581594	1477289581883	SHIFT	16
383341	4140042	The Hawks led from late in the first quarter.	The Hawks led from late in the first quarter.	196680183	1477289581828	1477289581978	H	72
383341	4140042	The Hawks led from late in the first quarter.	The Hawks led from late in the first quarter.	196680187	1477289582353	1477289582494	w	87
383341	4140042	The Hawks led from late in the first quarter.	The Hawks led from late in the first quarter.	196680189	1477289582556	1477289582694	k	75
383341	4140042	The Hawks led from late in the first quarter.	The Hawks led from late in the first quarter.	196680191	1477289582710	1477289582812	s	83
383341	4140042	The Hawks led from late in the first quarter.	The Hawks led from late in the first quarter.	196680192	1477289582906	1477289583014	 	32
383341	4140042	The Hawks led from late in the first quarter.	The Hawks led from late in the first quarter.	196680193	1477289583263	1477289583891	BKSP	8
383341	4140042	The Hawks led from late in the first quarter.	The Hawks led from late in the first quarter.	196680195	1477289584573	1477289584911	SHIFT	16
383341	4140042	The Hawks led from late in the first quarter.	The Hawks led from late in the first quarter.	196680230	1477289584792	1477289584974	H	72
383341	4140042	The Hawks led from late in the first quarter.	The Hawks led from late in the first quarter.	196680231	1477289585302	1477289585506	a	65
383341	4140042	The Hawks led from late in the first quarter.	The Hawks led from late in the first quarter.	196680232	1477289586024	1477289586145	w	87
383341	4140042	The Hawks led from late in the first quarter.	The Hawks led from late in the first quarter.	196680233	1477289586223	1477289586377	k	75
383341	4140042	The Hawks led from late in the first quarter.	The Hawks led from late in the first quarter.	196680234	1477289586657	1477289586779	s	83
383341	4140042	The Hawks led from late in the first quarter.	The Hawks led from late in the first quarter.	196680236	1477289586857	1477289586963	 	32
383341	4140042	The Hawks led from late in the first quarter.	The Hawks led from late in the first quarter.	196680299	1477289587607	1477289587728	l	76
383341	4140042	The Hawks led from late in the first quarter.	The Hawks led from late in the first quarter.	196680301	1477289587837	1477289587931	e	69
383341	4140042	The Hawks led from late in the first quarter.	The Hawks led from late in the first quarter.	196680303	1477289588072	1477289588194	d	68
383341	4140042	The Hawks led from late in the first quarter.	The Hawks led from late in the first quarter.	196680305	1477289588241	1477289588362	 	32
383341	4140042	The Hawks led from late in the first quarter.	The Hawks led from late in the first quarter.	196680306	1477289588895	1477289589075	f	70
383341	4140042	The Hawks led from late in the first quarter.	The Hawks led from late in the first quarter.	196680328	1477289589123	1477289589229	r	82
383341	4140042	The Hawks led from late in the first quarter.	The Hawks led from late in the first quarter.	196680332	1477289589244	1477289589346	o	79
383341	4140042	The Hawks led from late in the first quarter.	The Hawks led from late in the first quarter.	196680335	1477289589550	1477289589631	m	77
383341	4140042	The Hawks led from late in the first quarter.	The Hawks led from late in the first quarter.	196680339	1477289589805	1477289589897	 	32
383341	4140042	The Hawks led from late in the first quarter.	The Hawks led from late in the first quarter.	196680344	1477289590416	1477289590529	l	76
383341	4140042	The Hawks led from late in the first quarter.	The Hawks led from late in the first quarter.	196680369	1477289590657	1477289590809	a	65
383341	4140042	The Hawks led from late in the first quarter.	The Hawks led from late in the first quarter.	196680371	1477289590825	1477289590930	t	84
383341	4140042	The Hawks led from late in the first quarter.	The Hawks led from late in the first quarter.	196680373	1477289590977	1477289591079	e	69
383341	4140042	The Hawks led from late in the first quarter.	The Hawks led from late in the first quarter.	196680377	1477289591157	1477289591247	 	32
383341	4140042	The Hawks led from late in the first quarter.	The Hawks led from late in the first quarter.	196680379	1477289591829	1477289591897	i	73
383341	4140042	The Hawks led from late in the first quarter.	The Hawks led from late in the first quarter.	196680403	1477289592054	1477289592132	n	78
383341	4140042	The Hawks led from late in the first quarter.	The Hawks led from late in the first quarter.	196680404	1477289592290	1477289592396	 	32
383341	4140042	The Hawks led from late in the first quarter.	The Hawks led from late in the first quarter.	196680405	1477289592443	1477289592546	t	84
383341	4140042	The Hawks led from late in the first quarter.	The Hawks led from late in the first quarter.	196680406	1477289592592	1477289592697	h	72
383341	4140042	The Hawks led from late in the first quarter.	The Hawks led from late in the first quarter.	196680407	1477289592729	1477289592831	e	69
383341	4140042	The Hawks led from late in the first quarter.	The Hawks led from late in the first quarter.	196680408	1477289592925	1477289593013	 	32
383341	4140042	The Hawks led from late in the first quarter.	The Hawks led from late in the first quarter.	196680409	1477289593657	1477289593810	f	70
383341	4140042	The Hawks led from late in the first quarter.	The Hawks led from late in the first quarter.	196680410	1477289593841	1477289593961	i	73
383341	4140042	The Hawks led from late in the first quarter.	The Hawks led from late in the first quarter.	196680411	1477289594055	1477289594210	r	82
383341	4140042	The Hawks led from late in the first quarter.	The Hawks led from late in the first quarter.	196680412	1477289594289	1477289594493	s	83
383341	4140042	The Hawks led from late in the first quarter.	The Hawks led from late in the first quarter.	196680451	1477289594458	1477289594533	t	84
383341	4140042	The Hawks led from late in the first quarter.	The Hawks led from late in the first quarter.	196680453	1477289594611	1477289594728	 	32
383341	4140042	The Hawks led from late in the first quarter.	The Hawks led from late in the first quarter.	196680455	1477289595827	1477289595930	q	81
383341	4140042	The Hawks led from late in the first quarter.	The Hawks led from late in the first quarter.	196680457	1477289596117	1477289596229	u	85
383341	4140042	The Hawks led from late in the first quarter.	The Hawks led from late in the first quarter.	196680459	1477289596323	1477289596492	a	65
383341	4140042	The Hawks led from late in the first quarter.	The Hawks led from late in the first quarter.	196680460	1477289596506	1477289596626	r	82
383341	4140042	The Hawks led from late in the first quarter.	The Hawks led from late in the first quarter.	196680478	1477289596768	1477289596864	t	84
383341	4140042	The Hawks led from late in the first quarter.	The Hawks led from late in the first quarter.	196680480	1477289597051	1477289597192	e	69
383341	4140042	The Hawks led from late in the first quarter.	The Hawks led from late in the first quarter.	196680482	1477289597192	1477289597295	r	82
383341	4140042	The Hawks led from late in the first quarter.	The Hawks led from late in the first quarter.	196680485	1477289597876	1477289597963	.	190
383341	4140059	New switches can also be added to the Paging System.	New switches can also be added to the Paging System.	196680576	1477289601786	1477289602036	SHIFT	16
383341	4140059	New switches can also be added to the Paging System.	New switches can also be added to the Paging System.	196680578	1477289602020	1477289602176	N	78
383341	4140059	New switches can also be added to the Paging System.	New switches can also be added to the Paging System.	196680580	1477289602238	1477289602392	w	87
383341	4140059	New switches can also be added to the Paging System.	New switches can also be added to the Paging System.	196680583	1477289602407	1477289602559	e	69
383341	4140059	New switches can also be added to the Paging System.	New switches can also be added to the Paging System.	196680586	1477289602809	1477289602926	BKSP	8
383341	4140059	New switches can also be added to the Paging System.	New switches can also be added to the Paging System.	196680588	1477289603051	1477289603162	BKSP	8
383341	4140059	New switches can also be added to the Paging System.	New switches can also be added to the Paging System.	196680590	1477289603162	1477289603278	e	69
383341	4140059	New switches can also be added to the Paging System.	New switches can also be added to the Paging System.	196680656	1477289603245	1477289603383	w	87
383341	4140059	New switches can also be added to the Paging System.	New switches can also be added to the Paging System.	196680658	1477289603430	1477289603581	 	32
383341	4140059	New switches can also be added to the Paging System.	New switches can also be added to the Paging System.	196680661	1477289604408	1477289604448	s	83
383341	4140059	New switches can also be added to the Paging System.	New switches can also be added to the Paging System.	196680664	1477289604604	1477289604712	w	87
383341	4140059	New switches can also be added to the Paging System.	New switches can also be added to the Paging System.	196680666	1477289604837	1477289604943	w	87
383341	4140059	New switches can also be added to the Paging System.	New switches can also be added to the Paging System.	196680668	1477289605418	1477289605512	BKSP	8
383341	4140059	New switches can also be added to the Paging System.	New switches can also be added to the Paging System.	196680670	1477289606123	1477289606227	i	73
383341	4140059	New switches can also be added to the Paging System.	New switches can also be added to the Paging System.	196680696	1477289606353	1477289606461	t	84
383341	4140059	New switches can also be added to the Paging System.	New switches can also be added to the Paging System.	196680697	1477289606648	1477289606808	c	67
383341	4140059	New switches can also be added to the Paging System.	New switches can also be added to the Paging System.	196680698	1477289606855	1477289606961	h	72
383341	4140059	New switches can also be added to the Paging System.	New switches can also be added to the Paging System.	196680699	1477289607039	1477289607128	e	69
383341	4140059	New switches can also be added to the Paging System.	New switches can also be added to the Paging System.	196680700	1477289607315	1477289607358	d	83
383341	4140059	New switches can also be added to the Paging System.	New switches can also be added to the Paging System.	196680765	1477289607761	1477289607908	BKSP	8
383341	4140059	New switches can also be added to the Paging System.	New switches can also be added to the Paging System.	196680766	1477289607970	1477289608156	s	83
383341	4140059	New switches can also be added to the Paging System.	New switches can also be added to the Paging System.	196680769	1477289608499	1477289608610	BKSP	8
383341	4140059	New switches can also be added to the Paging System.	New switches can also be added to the Paging System.	196680772	1477289608844	1477289608975	 	32
383341	4140059	New switches can also be added to the Paging System.	New switches can also be added to the Paging System.	196680776	1477289610027	1477289610328	c	67
383341	4140059	New switches can also be added to the Paging System.	New switches can also be added to the Paging System.	196680779	1477289610237	1477289610406	a	65
383341	4140059	New switches can also be added to the Paging System.	New switches can also be added to the Paging System.	196680781	1477289610422	1477289610559	n	78
383341	4140059	New switches can also be added to the Paging System.	New switches can also be added to the Paging System.	196680830	1477289610747	1477289610892	 	32
383341	4140059	New switches can also be added to the Paging System.	New switches can also be added to the Paging System.	196680832	1477289611879	1477289612010	a	65
383341	4140059	New switches can also be added to the Paging System.	New switches can also be added to the Paging System.	196680836	1477289612056	1477289612145	l	76
383341	4140059	New switches can also be added to the Paging System.	New switches can also be added to the Paging System.	196680839	1477289612223	1477289612358	s	83
383341	4140059	New switches can also be added to the Paging System.	New switches can also be added to the Paging System.	196680845	1477289612405	1477289612495	i	73
383341	4140059	New switches can also be added to the Paging System.	New switches can also be added to the Paging System.	196680882	1477289612870	1477289613000	BKSP	8
383341	4140059	New switches can also be added to the Paging System.	New switches can also be added to the Paging System.	196680883	1477289613480	1477289613562	o	79
383341	4140059	New switches can also be added to the Paging System.	New switches can also be added to the Paging System.	196680884	1477289613718	1477289613858	 	32
383341	4140059	New switches can also be added to the Paging System.	New switches can also be added to the Paging System.	196680885	1477289614595	1477289614771	b	66
383341	4140059	New switches can also be added to the Paging System.	New switches can also be added to the Paging System.	196680886	1477289614787	1477289614940	e	69
383341	4140059	New switches can also be added to the Paging System.	New switches can also be added to the Paging System.	196680909	1477289614940	1477289615075	 	32
383341	4140059	New switches can also be added to the Paging System.	New switches can also be added to the Paging System.	196680911	1477289616096	1477289616273	a	65
383341	4140059	New switches can also be added to the Paging System.	New switches can also be added to the Paging System.	196680913	1477289616288	1477289616473	d	68
383341	4140059	New switches can also be added to the Paging System.	New switches can also be added to the Paging System.	196680916	1477289616817	1477289616911	d	68
383341	4140059	New switches can also be added to the Paging System.	New switches can also be added to the Paging System.	196680918	1477289617004	1477289617096	e	69
383341	4140059	New switches can also be added to the Paging System.	New switches can also be added to the Paging System.	196680920	1477289617220	1477289617311	d	68
383341	4140059	New switches can also be added to the Paging System.	New switches can also be added to the Paging System.	196680957	1477289617453	1477289617498	n	78
383341	4140059	New switches can also be added to the Paging System.	New switches can also be added to the Paging System.	196680959	1477289618296	1477289618448	BKSP	8
383341	4140059	New switches can also be added to the Paging System.	New switches can also be added to the Paging System.	196680961	1477289618395	1477289618573	 	32
383341	4140059	New switches can also be added to the Paging System.	New switches can also be added to the Paging System.	196680962	1477289619199	1477289619295	t	84
383341	4140059	New switches can also be added to the Paging System.	New switches can also be added to the Paging System.	196680963	1477289619327	1477289619395	o	79
383341	4140059	New switches can also be added to the Paging System.	New switches can also be added to the Paging System.	196680964	1477289619582	1477289619726	 	32
383341	4140059	New switches can also be added to the Paging System.	New switches can also be added to the Paging System.	196681009	1477289620243	1477289620328	t	84
383341	4140059	New switches can also be added to the Paging System.	New switches can also be added to the Paging System.	196681010	1477289620374	1477289620477	h	72
383341	4140059	New switches can also be added to the Paging System.	New switches can also be added to the Paging System.	196681011	1477289620493	1477289620593	e	69
383341	4140059	New switches can also be added to the Paging System.	New switches can also be added to the Paging System.	196681013	1477289620656	1477289620744	 	32
383341	4140059	New switches can also be added to the Paging System.	New switches can also be added to the Paging System.	196681015	1477289621120	1477289621498	SHIFT	16
383341	4140059	New switches can also be added to the Paging System.	New switches can also be added to the Paging System.	196681045	1477289621434	1477289621561	P	80
383341	4140059	New switches can also be added to the Paging System.	New switches can also be added to the Paging System.	196681048	1477289621873	1477289622039	a	65
383341	4140059	New switches can also be added to the Paging System.	New switches can also be added to the Paging System.	196681051	1477289622164	1477289622339	g	71
383341	4140059	New switches can also be added to the Paging System.	New switches can also be added to the Paging System.	196681054	1477289622339	1477289622445	i	73
383341	4140059	New switches can also be added to the Paging System.	New switches can also be added to the Paging System.	196681057	1477289622570	1477289622724	n	78
383341	4140059	New switches can also be added to the Paging System.	New switches can also be added to the Paging System.	196681059	1477289622755	1477289622876	g	71
383341	4140059	New switches can also be added to the Paging System.	New switches can also be added to the Paging System.	196681130	1477289622909	1477289623009	 	32
383341	4140059	New switches can also be added to the Paging System.	New switches can also be added to the Paging System.	196681131	1477289624015	1477289624444	SHIFT	16
383341	4140059	New switches can also be added to the Paging System.	New switches can also be added to the Paging System.	196681132	1477289624343	1477289624475	S	83
383341	4140059	New switches can also be added to the Paging System.	New switches can also be added to the Paging System.	196681133	1477289624709	1477289624858	y	89
383341	4140059	New switches can also be added to the Paging System.	New switches can also be added to the Paging System.	196681136	1477289624999	1477289625204	s	83
383341	4140059	New switches can also be added to the Paging System.	New switches can also be added to the Paging System.	196681138	1477289625361	1477289625490	t	84
383341	4140059	New switches can also be added to the Paging System.	New switches can also be added to the Paging System.	196681158	1477289625585	1477289625694	e	69
383341	4140059	New switches can also be added to the Paging System.	New switches can also be added to the Paging System.	196681159	1477289625740	1477289625860	m	77
383341	4140059	New switches can also be added to the Paging System.	New switches can also be added to the Paging System.	196681160	1477289626426	1477289626559	.	190
383341	4140073	Is this the only time available?	Is this the only time available?	196681352	1477289631087	1477289631277	SHIFT	16
383341	4140073	Is this the only time available?	Is this the only time available?	196681354	1477289631308	1477289631441	i	73
383341	4140073	Is this the only time available?	Is this the only time available?	196681356	1477289631628	1477289631759	s	83
383341	4140073	Is this the only time available?	Is this the only time available?	196681358	1477289631837	1477289631943	 	32
383341	4140073	Is this the only time available?	Is this the only time available?	196681359	1477289632555	1477289633187	BKSP	8
383341	4140073	Is this the only time available?	Is this the only time available?	196681363	1477289633384	1477289634167	SHIFT	16
383341	4140073	Is this the only time available?	Is this the only time available?	196681361	1477289633824	1477289634020	I	73
383341	4140073	Is this the only time available?	Is this the only time available?	196681400	1477289634130	1477289634243	S	83
383341	4140073	Is this the only time available?	Is this the only time available?	196681403	1477289634307	1477289634425	 	32
383341	4140073	Is this the only time available?	Is this the only time available?	196681406	1477289634900	1477289634947	=	187
383341	4140073	Is this the only time available?	Is this the only time available?	196681409	1477289635072	1477289635270	BKSP	8
383341	4140073	Is this the only time available?	Is this the only time available?	196681413	1477289635395	1477289635478	BKSP	8
383341	4140073	Is this the only time available?	Is this the only time available?	196681415	1477289635588	1477289635726	BKSP	8
383341	4140073	Is this the only time available?	Is this the only time available?	196681417	1477289635742	1477289635891	s	83
383341	4140073	Is this the only time available?	Is this the only time available?	196681419	1477289635922	1477289636043	 	32
383341	4140073	Is this the only time available?	Is this the only time available?	196681421	1477289636450	1477289636544	t	84
383341	4140073	Is this the only time available?	Is this the only time available?	196681450	1477289636576	1477289636723	h	72
383341	4140073	Is this the only time available?	Is this the only time available?	196681453	1477289636832	1477289636958	i	73
383341	4140073	Is this the only time available?	Is this the only time available?	196681455	1477289636958	1477289637107	s	83
383341	4140073	Is this the only time available?	Is this the only time available?	196681456	1477289637171	1477289637276	 	32
383341	4140073	Is this the only time available?	Is this the only time available?	196681457	1477289637779	1477289637862	t	84
383341	4140073	Is this the only time available?	Is this the only time available?	196681483	1477289637877	1477289637993	h	72
383341	4140073	Is this the only time available?	Is this the only time available?	196681485	1477289638009	1477289638125	e	69
383341	4140073	Is this the only time available?	Is this the only time available?	196681487	1477289638172	1477289638275	 	32
383341	4140073	Is this the only time available?	Is this the only time available?	196681489	1477289638904	1477289639025	o	79
383341	4140073	Is this the only time available?	Is this the only time available?	196681492	1477289639134	1477289639243	n	78
383341	4140073	Is this the only time available?	Is this the only time available?	196681532	1477289639353	1477289639506	l	76
383341	4140073	Is this the only time available?	Is this the only time available?	196681534	1477289639662	1477289639745	y	89
383341	4140073	Is this the only time available?	Is this the only time available?	196681536	1477289639932	1477289640027	 	32
383341	4140073	Is this the only time available?	Is this the only time available?	196681538	1477289640560	1477289640644	t	84
383341	4140073	Is this the only time available?	Is this the only time available?	196681540	1477289640706	1477289640741	i	73
383341	4140073	Is this the only time available?	Is this the only time available?	196681554	1477289641687	1477289641762	m	77
383341	4140073	Is this the only time available?	Is this the only time available?	196681555	1477289641793	1477289641910	e	69
383341	4140073	Is this the only time available?	Is this the only time available?	196681556	1477289641925	1477289642027	 	32
383341	4140073	Is this the only time available?	Is this the only time available?	196681557	1477289642638	1477289642807	a	65
383341	4140073	Is this the only time available?	Is this the only time available?	196681558	1477289643417	1477289643666	v	86
383341	4140073	Is this the only time available?	Is this the only time available?	196681597	1477289643651	1477289643853	a	65
383341	4140073	Is this the only time available?	Is this the only time available?	196681598	1477289644323	1477289644410	i	73
383341	4140073	Is this the only time available?	Is this the only time available?	196681600	1477289644613	1477289644757	l	76
383341	4140073	Is this the only time available?	Is this the only time available?	196681602	1477289644882	1477289645039	a	65
383341	4140073	Is this the only time available?	Is this the only time available?	196681604	1477289645382	1477289645555	b	66
383341	4140073	Is this the only time available?	Is this the only time available?	196681621	1477289645540	1477289645705	l	76
383341	4140073	Is this the only time available?	Is this the only time available?	196681622	1477289645752	1477289645905	e	69
383341	4140073	Is this the only time available?	Is this the only time available?	196681623	1477289646264	1477289646595	SHIFT	16
383341	4140073	Is this the only time available?	Is this the only time available?	196681624	1477289646502	1477289646626	?	191
383341	4140081	That's a lot of dollars.	That's a lot of dollars.	196681718	1477289651608	1477289651995	SHIFT	16
383341	4140081	That's a lot of dollars.	That's a lot of dollars.	196681719	1477289651906	1477289652073	T	84
383341	4140081	That's a lot of dollars.	That's a lot of dollars.	196681720	1477289652104	1477289652240	h	72
383341	4140081	That's a lot of dollars.	That's a lot of dollars.	196681721	1477289652443	1477289652680	a	65
383341	4140081	That's a lot of dollars.	That's a lot of dollars.	196681723	1477289652620	1477289652760	t	84
383341	4140081	That's a lot of dollars.	That's a lot of dollars.	196681725	1477289652994	1477289653187	'	222
383341	4140081	That's a lot of dollars.	That's a lot of dollars.	196681758	1477289653203	1477289653340	s	83
383341	4140081	That's a lot of dollars.	That's a lot of dollars.	196681759	1477289653449	1477289653607	 	32
383341	4140081	That's a lot of dollars.	That's a lot of dollars.	196681760	1477289653888	1477289653993	a	65
383341	4140081	That's a lot of dollars.	That's a lot of dollars.	196681761	1477289654024	1477289654141	 	32
383341	4140081	That's a lot of dollars.	That's a lot of dollars.	196681762	1477289654422	1477289654619	l	76
383341	4140081	That's a lot of dollars.	That's a lot of dollars.	196681786	1477289654964	1477289655076	o	79
383341	4140081	That's a lot of dollars.	That's a lot of dollars.	196681787	1477289655107	1477289655193	t	84
383341	4140081	That's a lot of dollars.	That's a lot of dollars.	196681788	1477289655302	1477289655393	 	32
383341	4140081	That's a lot of dollars.	That's a lot of dollars.	196681790	1477289655990	1477289656093	o	79
383341	4140081	That's a lot of dollars.	That's a lot of dollars.	196681792	1477289656218	1477289656342	f	70
383341	4140081	That's a lot of dollars.	That's a lot of dollars.	196681843	1477289656843	1477289656957	 	32
383341	4140081	That's a lot of dollars.	That's a lot of dollars.	196681845	1477289657647	1477289657807	d	68
383341	4140081	That's a lot of dollars.	That's a lot of dollars.	196681848	1477289657823	1477289657910	o	79
383341	4140081	That's a lot of dollars.	That's a lot of dollars.	196681849	1477289658097	1477289658146	l	76
383341	4140081	That's a lot of dollars.	That's a lot of dollars.	196681851	1477289658271	1477289658329	l	76
383341	4140081	That's a lot of dollars.	That's a lot of dollars.	196681885	1477289658408	1477289658555	a	65
383341	4140081	That's a lot of dollars.	That's a lot of dollars.	196681886	1477289659183	1477289659354	r	82
383341	4140081	That's a lot of dollars.	That's a lot of dollars.	196681887	1477289659339	1477289659505	s	83
383341	4140081	That's a lot of dollars.	That's a lot of dollars.	196681888	1477289659929	1477289659979	.	190
383341	4140085	Japan's first man in space was a journalist.	Japan's first man in space was a journalist.	196683931	1477289753431	1477289753661	SHIFT	16
383341	4140085	Japan's first man in space was a journalist.	Japan's first man in space was a journalist.	196683932	1477289753619	1477289753769	J	74
383341	4140085	Japan's first man in space was a journalist.	Japan's first man in space was a journalist.	196683933	1477289753863	1477289754146	a	65
383341	4140085	Japan's first man in space was a journalist.	Japan's first man in space was a journalist.	196683934	1477289754097	1477289754270	p	80
383341	4140085	Japan's first man in space was a journalist.	Japan's first man in space was a journalist.	196683935	1477289754410	1477289754601	a	65
383341	4140085	Japan's first man in space was a journalist.	Japan's first man in space was a journalist.	196683936	1477289754601	1477289754754	n	78
383341	4140085	Japan's first man in space was a journalist.	Japan's first man in space was a journalist.	196684005	1477289756179	1477289756304	'	222
383341	4140085	Japan's first man in space was a journalist.	Japan's first man in space was a journalist.	196684007	1477289756319	1477289756454	s	83
383341	4140085	Japan's first man in space was a journalist.	Japan's first man in space was a journalist.	196684009	1477289756501	1477289756616	 	32
383341	4140085	Japan's first man in space was a journalist.	Japan's first man in space was a journalist.	196684012	1477289757422	1477289757585	f	70
383341	4140085	Japan's first man in space was a journalist.	Japan's first man in space was a journalist.	196684016	1477289757756	1477289757887	i	73
383341	4140085	Japan's first man in space was a journalist.	Japan's first man in space was a journalist.	196684037	1477289758106	1477289758237	r	82
383341	4140085	Japan's first man in space was a journalist.	Japan's first man in space was a journalist.	196684038	1477289758409	1477289758642	s	83
383341	4140085	Japan's first man in space was a journalist.	Japan's first man in space was a journalist.	196684040	1477289758585	1477289758704	t	84
383341	4140085	Japan's first man in space was a journalist.	Japan's first man in space was a journalist.	196684044	1477289758766	1477289758889	 	32
383341	4140085	Japan's first man in space was a journalist.	Japan's first man in space was a journalist.	196684047	1477289759438	1477289759554	m	77
383341	4140085	Japan's first man in space was a journalist.	Japan's first man in space was a journalist.	196684078	1477289759586	1477289759720	a	65
383341	4140085	Japan's first man in space was a journalist.	Japan's first man in space was a journalist.	196684079	1477289759736	1477289759823	n	78
383341	4140085	Japan's first man in space was a journalist.	Japan's first man in space was a journalist.	196684080	1477289759963	1477289760073	 	32
383341	4140085	Japan's first man in space was a journalist.	Japan's first man in space was a journalist.	196684081	1477289760621	1477289760723	i	73
383341	4140085	Japan's first man in space was a journalist.	Japan's first man in space was a journalist.	196684082	1477289760832	1477289760954	n	78
383341	4140085	Japan's first man in space was a journalist.	Japan's first man in space was a journalist.	196684155	1477289761080	1477289761189	 	32
383341	4140085	Japan's first man in space was a journalist.	Japan's first man in space was a journalist.	196684159	1477289761659	1477289761835	s	83
383341	4140085	Japan's first man in space was a journalist.	Japan's first man in space was a journalist.	196684160	1477289761944	1477289762087	p	80
383341	4140085	Japan's first man in space was a journalist.	Japan's first man in space was a journalist.	196684162	1477289762103	1477289762284	a	65
383341	4140085	Japan's first man in space was a journalist.	Japan's first man in space was a journalist.	196684164	1477289762865	1477289763160	c	67
383341	4140085	Japan's first man in space was a journalist.	Japan's first man in space was a journalist.	196684202	1477289763192	1477289763336	r	82
383341	4140085	Japan's first man in space was a journalist.	Japan's first man in space was a journalist.	196684204	1477289763461	1477289763589	 	32
383341	4140085	Japan's first man in space was a journalist.	Japan's first man in space was a journalist.	196684206	1477289763807	1477289764047	BKSP	8
383341	4140085	Japan's first man in space was a journalist.	Japan's first man in space was a journalist.	196684208	1477289764171	1477289764272	BKSP	8
383341	4140085	Japan's first man in space was a journalist.	Japan's first man in space was a journalist.	196684210	1477289764303	1477289764437	e	69
383341	4140085	Japan's first man in space was a journalist.	Japan's first man in space was a journalist.	196684211	1477289764499	1477289764575	 	32
383341	4140085	Japan's first man in space was a journalist.	Japan's first man in space was a journalist.	196684213	1477289764949	1477289765025	w	87
383341	4140085	Japan's first man in space was a journalist.	Japan's first man in space was a journalist.	196684229	1477289765181	1477289765368	a	65
383341	4140085	Japan's first man in space was a journalist.	Japan's first man in space was a journalist.	196684230	1477289765368	1477289765519	s	83
383341	4140085	Japan's first man in space was a journalist.	Japan's first man in space was a journalist.	196684231	1477289765566	1477289765672	 	32
383341	4140085	Japan's first man in space was a journalist.	Japan's first man in space was a journalist.	196684232	1477289765750	1477289765887	a	65
383341	4140085	Japan's first man in space was a journalist.	Japan's first man in space was a journalist.	196684233	1477289765887	1477289765989	 	32
383341	4140085	Japan's first man in space was a journalist.	Japan's first man in space was a journalist.	196684285	1477289766960	1477289767136	j	74
383341	4140085	Japan's first man in space was a journalist.	Japan's first man in space was a journalist.	196684288	1477289767151	1477289767287	o	79
383341	4140085	Japan's first man in space was a journalist.	Japan's first man in space was a journalist.	196684289	1477289767365	1477289767487	u	85
383341	4140085	Japan's first man in space was a journalist.	Japan's first man in space was a journalist.	196684291	1477289767660	1477289767787	r	82
383341	4140085	Japan's first man in space was a journalist.	Japan's first man in space was a journalist.	196684293	1477289767865	1477289768003	n	78
383341	4140085	Japan's first man in space was a journalist.	Japan's first man in space was a journalist.	196684312	1477289768097	1477289768253	a	65
383341	4140085	Japan's first man in space was a journalist.	Japan's first man in space was a journalist.	196684313	1477289768268	1477289768403	l	76
383341	4140085	Japan's first man in space was a journalist.	Japan's first man in space was a journalist.	196684314	1477289768512	1477289768606	i	73
383341	4140085	Japan's first man in space was a journalist.	Japan's first man in space was a journalist.	196684316	1477289768669	1477289768834	s	83
383341	4140085	Japan's first man in space was a journalist.	Japan's first man in space was a journalist.	196684319	1477289768897	1477289769005	t	84
383341	4140085	Japan's first man in space was a journalist.	Japan's first man in space was a journalist.	196684345	1477289769997	1477289770074	.	190
383341	4140145	Jones executive vice president and chief operating officer.	Jones executive vice president and chief operating officer.	196684494	1477289773858	1477289774217	SHIFT	16
383341	4140145	Jones executive vice president and chief operating officer.	Jones executive vice president and chief operating officer.	196684498	1477289774076	1477289774217	J	74
383341	4140145	Jones executive vice president and chief operating officer.	Jones executive vice president and chief operating officer.	196684502	1477289774263	1477289774403	o	79
383341	4140145	Jones executive vice president and chief operating officer.	Jones executive vice president and chief operating officer.	196684508	1477289774559	1477289774719	n	78
383341	4140145	Jones executive vice president and chief operating officer.	Jones executive vice president and chief operating officer.	196684514	1477289774812	1477289774937	e	69
383341	4140145	Jones executive vice president and chief operating officer.	Jones executive vice president and chief operating officer.	196684518	1477289775047	1477289775186	s	83
383341	4140145	Jones executive vice president and chief operating officer.	Jones executive vice president and chief operating officer.	196684568	1477289775202	1477289775322	 	32
383341	4140145	Jones executive vice president and chief operating officer.	Jones executive vice president and chief operating officer.	196684569	1477289776198	1477289776305	e	69
383341	4140145	Jones executive vice president and chief operating officer.	Jones executive vice president and chief operating officer.	196684571	1477289776570	1477289776687	x	88
383341	4140145	Jones executive vice president and chief operating officer.	Jones executive vice president and chief operating officer.	196684573	1477289776812	1477289776923	e	69
383341	4140145	Jones executive vice president and chief operating officer.	Jones executive vice president and chief operating officer.	196684575	1477289777126	1477289777286	c	67
383341	4140145	Jones executive vice president and chief operating officer.	Jones executive vice president and chief operating officer.	196684622	1477289777459	1477289777588	u	85
383341	4140145	Jones executive vice president and chief operating officer.	Jones executive vice president and chief operating officer.	196684624	1477289777603	1477289777738	t	84
383341	4140145	Jones executive vice president and chief operating officer.	Jones executive vice president and chief operating officer.	196684626	1477289777800	1477289777936	i	73
383341	4140145	Jones executive vice president and chief operating officer.	Jones executive vice president and chief operating officer.	196684627	1477289778424	1477289778600	v	86
383341	4140145	Jones executive vice president and chief operating officer.	Jones executive vice president and chief operating officer.	196684628	1477289778615	1477289778753	e	69
383341	4140145	Jones executive vice president and chief operating officer.	Jones executive vice president and chief operating officer.	196684679	1477289778785	1477289778904	 	32
383341	4140145	Jones executive vice president and chief operating officer.	Jones executive vice president and chief operating officer.	196684680	1477289779910	1477289780115	v	86
383341	4140145	Jones executive vice president and chief operating officer.	Jones executive vice president and chief operating officer.	196684681	1477289780131	1477289780316	i	73
383341	4140145	Jones executive vice president and chief operating officer.	Jones executive vice president and chief operating officer.	196684682	1477289780394	1477289780658	c	67
383341	4140145	Jones executive vice president and chief operating officer.	Jones executive vice president and chief operating officer.	196684742	1477289780600	1477289780736	e	69
383341	4140145	Jones executive vice president and chief operating officer.	Jones executive vice president and chief operating officer.	196684745	1477289780814	1477289780938	 	32
383341	4140145	Jones executive vice president and chief operating officer.	Jones executive vice president and chief operating officer.	196684749	1477289781941	1477289782008	p	80
383341	4140145	Jones executive vice president and chief operating officer.	Jones executive vice president and chief operating officer.	196684751	1477289782289	1477289782466	r	82
383341	4140145	Jones executive vice president and chief operating officer.	Jones executive vice president and chief operating officer.	196684753	1477289782451	1477289782555	e	69
383341	4140145	Jones executive vice president and chief operating officer.	Jones executive vice president and chief operating officer.	196684755	1477289782727	1477289782869	s	83
383341	4140145	Jones executive vice president and chief operating officer.	Jones executive vice president and chief operating officer.	196684773	1477289782853	1477289782970	i	73
383341	4140145	Jones executive vice president and chief operating officer.	Jones executive vice president and chief operating officer.	196684774	1477289783113	1477289783285	d	68
383341	4140145	Jones executive vice president and chief operating officer.	Jones executive vice president and chief operating officer.	196684775	1477289783269	1477289783418	e	69
383341	4140145	Jones executive vice president and chief operating officer.	Jones executive vice president and chief operating officer.	196684776	1477289783465	1477289783611	n	78
383341	4140145	Jones executive vice president and chief operating officer.	Jones executive vice president and chief operating officer.	196684777	1477289783627	1477289783723	t	84
383341	4140145	Jones executive vice president and chief operating officer.	Jones executive vice president and chief operating officer.	196684778	1477289783801	1477289783890	 	32
383341	4140145	Jones executive vice president and chief operating officer.	Jones executive vice president and chief operating officer.	196684859	1477289784392	1477289784506	a	65
383341	4140145	Jones executive vice president and chief operating officer.	Jones executive vice president and chief operating officer.	196684860	1477289784506	1477289784620	n	78
383341	4140145	Jones executive vice president and chief operating officer.	Jones executive vice president and chief operating officer.	196684861	1477289784683	1477289784756	d	68
383341	4140145	Jones executive vice president and chief operating officer.	Jones executive vice president and chief operating officer.	196684862	1477289785400	1477289785505	 	32
383341	4140145	Jones executive vice president and chief operating officer.	Jones executive vice president and chief operating officer.	196684863	1477289785832	1477289786000	c	67
383341	4140145	Jones executive vice president and chief operating officer.	Jones executive vice president and chief operating officer.	196684918	1477289786033	1477289786137	h	72
383341	4140145	Jones executive vice president and chief operating officer.	Jones executive vice president and chief operating officer.	196684919	1477289786498	1477289786605	e	69
383341	4140145	Jones executive vice president and chief operating officer.	Jones executive vice president and chief operating officer.	196684920	1477289786667	1477289786833	i	73
383341	4140145	Jones executive vice president and chief operating officer.	Jones executive vice president and chief operating officer.	196684921	1477289787114	1477289787333	f	70
383341	4140145	Jones executive vice president and chief operating officer.	Jones executive vice president and chief operating officer.	196684922	1477289787411	1477289787506	 	32
383341	4140145	Jones executive vice president and chief operating officer.	Jones executive vice president and chief operating officer.	196685035	1477289788119	1477289788222	BKSP	8
383341	4140145	Jones executive vice president and chief operating officer.	Jones executive vice president and chief operating officer.	196685037	1477289788331	1477289788438	BKSP	8
383341	4140145	Jones executive vice president and chief operating officer.	Jones executive vice president and chief operating officer.	196685039	1477289788562	1477289788688	BKSP	8
383341	4140145	Jones executive vice president and chief operating officer.	Jones executive vice president and chief operating officer.	196685042	1477289788797	1477289788889	BKSP	8
383341	4140145	Jones executive vice president and chief operating officer.	Jones executive vice president and chief operating officer.	196685045	1477289789439	1477289789570	i	73
383341	4140145	Jones executive vice president and chief operating officer.	Jones executive vice president and chief operating officer.	196685048	1477289790135	1477289790238	e	69
383341	4140145	Jones executive vice president and chief operating officer.	Jones executive vice president and chief operating officer.	196685051	1477289790285	1477289790387	f	70
383341	4140145	Jones executive vice president and chief operating officer.	Jones executive vice president and chief operating officer.	196685053	1477289790465	1477289790571	 	32
383341	4140145	Jones executive vice president and chief operating officer.	Jones executive vice president and chief operating officer.	196685054	1477289791794	1477289791973	o	79
383341	4140145	Jones executive vice president and chief operating officer.	Jones executive vice president and chief operating officer.	196685071	1477289791935	1477289792103	p	80
383341	4140145	Jones executive vice president and chief operating officer.	Jones executive vice president and chief operating officer.	196685072	1477289792244	1477289792458	e	69
383341	4140145	Jones executive vice president and chief operating officer.	Jones executive vice president and chief operating officer.	196685073	1477289792401	1477289792552	r	82
383341	4140145	Jones executive vice president and chief operating officer.	Jones executive vice president and chief operating officer.	196685074	1477289792676	1477289792903	a	65
383341	4140145	Jones executive vice president and chief operating officer.	Jones executive vice president and chief operating officer.	196685076	1477289792867	1477289792971	t	84
383341	4140145	Jones executive vice president and chief operating officer.	Jones executive vice president and chief operating officer.	196685078	1477289793064	1477289793218	i	73
383341	4140145	Jones executive vice president and chief operating officer.	Jones executive vice president and chief operating officer.	196685133	1477289793658	1477289793755	n	78
383341	4140145	Jones executive vice president and chief operating officer.	Jones executive vice president and chief operating officer.	196685136	1477289793786	1477289793904	g	71
383341	4140145	Jones executive vice president and chief operating officer.	Jones executive vice president and chief operating officer.	196685138	1477289793951	1477289794055	 	32
383341	4140145	Jones executive vice president and chief operating officer.	Jones executive vice president and chief operating officer.	196685142	1477289795432	1477289795538	o	79
383341	4140145	Jones executive vice president and chief operating officer.	Jones executive vice president and chief operating officer.	196685145	1477289795772	1477289795841	f	70
383341	4140145	Jones executive vice president and chief operating officer.	Jones executive vice president and chief operating officer.	196685177	1477289795951	1477289796055	f	70
383341	4140145	Jones executive vice president and chief operating officer.	Jones executive vice president and chief operating officer.	196685181	1477289796102	1477289796220	i	73
383341	4140145	Jones executive vice president and chief operating officer.	Jones executive vice president and chief operating officer.	196685187	1477289796423	1477289796662	c	67
383341	4140145	Jones executive vice president and chief operating officer.	Jones executive vice president and chief operating officer.	196685192	1477289796662	1477289796833	e	69
383341	4140145	Jones executive vice president and chief operating officer.	Jones executive vice president and chief operating officer.	196685222	1477289796833	1477289796954	r	82
383341	4140145	Jones executive vice president and chief operating officer.	Jones executive vice president and chief operating officer.	196685224	1477289797581	1477289797672	.	190
383341	4140161	I am on a plane, sorry.	I am on a plane, sorry.	196686054	1477289822776	1477289823099	SHIFT	16
383341	4140161	I am on a plane, sorry.	I am on a plane, sorry.	196686053	1477289822933	1477289823068	I	73
383341	4140161	I am on a plane, sorry.	I am on a plane, sorry.	196686055	1477289823271	1477289823432	 	32
383341	4140161	I am on a plane, sorry.	I am on a plane, sorry.	196686056	1477289823572	1477289823767	a	65
383341	4140161	I am on a plane, sorry.	I am on a plane, sorry.	196686058	1477289823732	1477289823852	m	77
383341	4140161	I am on a plane, sorry.	I am on a plane, sorry.	196686062	1477289824054	1477289824138	 	32
383341	4140161	I am on a plane, sorry.	I am on a plane, sorry.	196686089	1477289824639	1477289824783	o	79
383341	4140161	I am on a plane, sorry.	I am on a plane, sorry.	196686092	1477289824861	1477289824986	n	78
383341	4140161	I am on a plane, sorry.	I am on a plane, sorry.	196686095	1477289825111	1477289825218	 	32
383341	4140161	I am on a plane, sorry.	I am on a plane, sorry.	196686098	1477289825280	1477289825401	a	65
383341	4140161	I am on a plane, sorry.	I am on a plane, sorry.	196686101	1477289825401	1477289825488	 	32
383341	4140161	I am on a plane, sorry.	I am on a plane, sorry.	196686264	1477289826098	1477289826172	p	80
383341	4140161	I am on a plane, sorry.	I am on a plane, sorry.	196686268	1477289826328	1477289826442	l	76
383341	4140161	I am on a plane, sorry.	I am on a plane, sorry.	196686271	1477289826567	1477289826732	a	65
383341	4140161	I am on a plane, sorry.	I am on a plane, sorry.	196686275	1477289827376	1477289827564	n	78
383341	4140161	I am on a plane, sorry.	I am on a plane, sorry.	196686279	1477289827611	1477289827735	e	69
383341	4140161	I am on a plane, sorry.	I am on a plane, sorry.	196686419	1477289827767	1477289827869	 	32
383341	4140161	I am on a plane, sorry.	I am on a plane, sorry.	196686420	1477289828435	1477289828551	BKSP	8
383341	4140161	I am on a plane, sorry.	I am on a plane, sorry.	196686422	1477289829256	1477289829322	,	188
383341	4140161	I am on a plane, sorry.	I am on a plane, sorry.	196686423	1477289829447	1477289829536	 	32
383341	4140161	I am on a plane, sorry.	I am on a plane, sorry.	196686424	1477289829926	1477289830112	s	83
383341	4140161	I am on a plane, sorry.	I am on a plane, sorry.	196686425	1477289830128	1477289830205	o	79
383341	4140161	I am on a plane, sorry.	I am on a plane, sorry.	196686479	1477289830472	1477289830554	r	82
383341	4140161	I am on a plane, sorry.	I am on a plane, sorry.	196686483	1477289830632	1477289830752	r	82
383341	4140161	I am on a plane, sorry.	I am on a plane, sorry.	196686487	1477289830830	1477289830935	y	89
383341	4140161	I am on a plane, sorry.	I am on a plane, sorry.	196686490	1477289831531	1477289831588	.	190
383341	4140187	Not like you'll get paid for it.	Not like you'll get paid for it.	196687158	1477289856630	1477289856884	SHIFT	16
383341	4140187	Not like you'll get paid for it.	Not like you'll get paid for it.	196687161	1477289856755	1477289856915	N	78
383341	4140187	Not like you'll get paid for it.	Not like you'll get paid for it.	196687164	1477289856977	1477289857178	o	79
383341	4140187	Not like you'll get paid for it.	Not like you'll get paid for it.	196687167	1477289857302	1477289857479	t	84
383341	4140187	Not like you'll get paid for it.	Not like you'll get paid for it.	196687171	1477289857573	1477289857683	 	32
383341	4140187	Not like you'll get paid for it.	Not like you'll get paid for it.	196687176	1477289858436	1477289858551	l	76
383341	4140187	Not like you'll get paid for it.	Not like you'll get paid for it.	196687215	1477289858817	1477289858902	i	73
383341	4140187	Not like you'll get paid for it.	Not like you'll get paid for it.	196687217	1477289859058	1477289859168	k	75
383341	4140187	Not like you'll get paid for it.	Not like you'll get paid for it.	196687220	1477289859183	1477289859284	e	69
383341	4140187	Not like you'll get paid for it.	Not like you'll get paid for it.	196687223	1477289859393	1477289859485	 	32
383341	4140187	Not like you'll get paid for it.	Not like you'll get paid for it.	196687226	1477289860498	1477289860602	y	89
383341	4140187	Not like you'll get paid for it.	Not like you'll get paid for it.	196687281	1477289860634	1477289860765	o	79
383341	4140187	Not like you'll get paid for it.	Not like you'll get paid for it.	196687283	1477289860890	1477289861017	u	85
383341	4140187	Not like you'll get paid for it.	Not like you'll get paid for it.	196687285	1477289861596	1477289861685	'	222
383341	4140187	Not like you'll get paid for it.	Not like you'll get paid for it.	196687287	1477289861997	1477289862257	l	76
383341	4140187	Not like you'll get paid for it.	Not like you'll get paid for it.	196687289	1477289862382	1477289862484	l	76
383341	4140187	Not like you'll get paid for it.	Not like you'll get paid for it.	196687314	1477289862641	1477289862750	 	32
383341	4140187	Not like you'll get paid for it.	Not like you'll get paid for it.	196687315	1477289863346	1477289863481	g	71
383341	4140187	Not like you'll get paid for it.	Not like you'll get paid for it.	196687316	1477289863513	1477289863730	e	69
383341	4140187	Not like you'll get paid for it.	Not like you'll get paid for it.	196687320	1477289863694	1477289863785	t	84
383341	4140187	Not like you'll get paid for it.	Not like you'll get paid for it.	196687323	1477289863894	1477289863985	 	32
383341	4140187	Not like you'll get paid for it.	Not like you'll get paid for it.	196687361	1477289864783	1477289864868	p	80
383341	4140187	Not like you'll get paid for it.	Not like you'll get paid for it.	196687362	1477289864931	1477289865111	a	65
383341	4140187	Not like you'll get paid for it.	Not like you'll get paid for it.	196687364	1477289865143	1477289865250	i	73
383341	4140187	Not like you'll get paid for it.	Not like you'll get paid for it.	196687369	1477289865453	1477289865553	d	68
383341	4140187	Not like you'll get paid for it.	Not like you'll get paid for it.	196687374	1477289865647	1477289865703	 	32
383341	4140187	Not like you'll get paid for it.	Not like you'll get paid for it.	196687444	1477289866363	1477289866498	f	70
383341	4140187	Not like you'll get paid for it.	Not like you'll get paid for it.	196687446	1477289866576	1477289866685	o	79
383341	4140187	Not like you'll get paid for it.	Not like you'll get paid for it.	196687449	1477289866747	1477289866835	r	82
383341	4140187	Not like you'll get paid for it.	Not like you'll get paid for it.	196687452	1477289866913	1477289867001	 	32
383341	4140187	Not like you'll get paid for it.	Not like you'll get paid for it.	196687454	1477289867629	1477289867686	i	73
383341	4140187	Not like you'll get paid for it.	Not like you'll get paid for it.	196687471	1477289867797	1477289867885	t	84
383341	4140187	Not like you'll get paid for it.	Not like you'll get paid for it.	196687473	1477289868181	1477289868237	.	190
383341	4140209	If possible, I'd like to get Amy's opinion.	If possible, I'd like to get Amy's opinion.	196687673	1477289872432	1477289873015	SHIFT	16
383341	4140209	If possible, I'd like to get Amy's opinion.	If possible, I'd like to get Amy's opinion.	196687671	1477289872871	1477289873000	I	73
383341	4140209	If possible, I'd like to get Amy's opinion.	If possible, I'd like to get Amy's opinion.	196687675	1477289873000	1477289873131	F	70
383341	4140209	If possible, I'd like to get Amy's opinion.	If possible, I'd like to get Amy's opinion.	196687677	1477289873240	1477289873366	 	32
383341	4140209	If possible, I'd like to get Amy's opinion.	If possible, I'd like to get Amy's opinion.	196687679	1477289873694	1477289873768	BKSP	8
383341	4140209	If possible, I'd like to get Amy's opinion.	If possible, I'd like to get Amy's opinion.	196687681	1477289873878	1477289873984	BKSP	8
383341	4140209	If possible, I'd like to get Amy's opinion.	If possible, I'd like to get Amy's opinion.	196687684	1477289874580	1477289874684	f	70
383341	4140209	If possible, I'd like to get Amy's opinion.	If possible, I'd like to get Amy's opinion.	196687687	1477289874747	1477289874849	 	32
383341	4140209	If possible, I'd like to get Amy's opinion.	If possible, I'd like to get Amy's opinion.	196687729	1477289875431	1477289875596	p	80
383341	4140209	If possible, I'd like to get Amy's opinion.	If possible, I'd like to get Amy's opinion.	196687730	1477289875580	1477289875715	o	79
383341	4140209	If possible, I'd like to get Amy's opinion.	If possible, I'd like to get Amy's opinion.	196687731	1477289875934	1477289876019	s	83
383341	4140209	If possible, I'd like to get Amy's opinion.	If possible, I'd like to get Amy's opinion.	196687732	1477289876144	1477289876249	s	83
383341	4140209	If possible, I'd like to get Amy's opinion.	If possible, I'd like to get Amy's opinion.	196687733	1477289876437	1477289876566	i	73
383341	4140209	If possible, I'd like to get Amy's opinion.	If possible, I'd like to get Amy's opinion.	196687776	1477289877037	1477289877275	b	66
383341	4140209	If possible, I'd like to get Amy's opinion.	If possible, I'd like to get Amy's opinion.	196687779	1477289877290	1477289877447	l	76
383341	4140209	If possible, I'd like to get Amy's opinion.	If possible, I'd like to get Amy's opinion.	196687782	1477289877478	1477289877599	e	69
383341	4140209	If possible, I'd like to get Amy's opinion.	If possible, I'd like to get Amy's opinion.	196687785	1477289877677	1477289877784	 	32
383341	4140209	If possible, I'd like to get Amy's opinion.	If possible, I'd like to get Amy's opinion.	196687788	1477289878174	1477289878269	BKSP	8
383341	4140209	If possible, I'd like to get Amy's opinion.	If possible, I'd like to get Amy's opinion.	196687789	1477289878864	1477289878920	m	77
383341	4140209	If possible, I'd like to get Amy's opinion.	If possible, I'd like to get Amy's opinion.	196687930	1477289879564	1477289879698	BKSP	8
383341	4140209	If possible, I'd like to get Amy's opinion.	If possible, I'd like to get Amy's opinion.	196687933	1477289879995	1477289880070	,	188
383341	4140209	If possible, I'd like to get Amy's opinion.	If possible, I'd like to get Amy's opinion.	196687934	1477289880226	1477289880333	 	32
383341	4140209	If possible, I'd like to get Amy's opinion.	If possible, I'd like to get Amy's opinion.	196687936	1477289881446	1477289882065	SHIFT	16
383341	4140209	If possible, I'd like to get Amy's opinion.	If possible, I'd like to get Amy's opinion.	196687939	1477289881948	1477289882096	I	73
383341	4140209	If possible, I'd like to get Amy's opinion.	If possible, I'd like to get Amy's opinion.	196687942	1477289882584	1477289882745	'	222
383341	4140209	If possible, I'd like to get Amy's opinion.	If possible, I'd like to get Amy's opinion.	196687945	1477289882761	1477289882882	d	68
383341	4140209	If possible, I'd like to get Amy's opinion.	If possible, I'd like to get Amy's opinion.	196687996	1477289883510	1477289883617	 	32
383341	4140209	If possible, I'd like to get Amy's opinion.	If possible, I'd like to get Amy's opinion.	196687999	1477289884166	1477289884298	l	76
383341	4140209	If possible, I'd like to get Amy's opinion.	If possible, I'd like to get Amy's opinion.	196688000	1477289884345	1477289884482	i	73
383341	4140209	If possible, I'd like to get Amy's opinion.	If possible, I'd like to get Amy's opinion.	196688002	1477289884638	1477289884750	k	75
383341	4140209	If possible, I'd like to get Amy's opinion.	If possible, I'd like to get Amy's opinion.	196688003	1477289884781	1477289884898	e	69
383341	4140209	If possible, I'd like to get Amy's opinion.	If possible, I'd like to get Amy's opinion.	196688055	1477289884962	1477289885066	 	32
383341	4140209	If possible, I'd like to get Amy's opinion.	If possible, I'd like to get Amy's opinion.	196688059	1477289885741	1477289885834	t	84
383341	4140209	If possible, I'd like to get Amy's opinion.	If possible, I'd like to get Amy's opinion.	196688062	1477289885866	1477289885982	o	79
383341	4140209	If possible, I'd like to get Amy's opinion.	If possible, I'd like to get Amy's opinion.	196688066	1477289886169	1477289886283	 	32
383341	4140209	If possible, I'd like to get Amy's opinion.	If possible, I'd like to get Amy's opinion.	196688068	1477289886893	1477289887032	g	71
383341	4140209	If possible, I'd like to get Amy's opinion.	If possible, I'd like to get Amy's opinion.	196688139	1477289887313	1477289887534	e	69
383341	4140209	If possible, I'd like to get Amy's opinion.	If possible, I'd like to get Amy's opinion.	196688142	1477289887463	1477289887597	t	84
383341	4140209	If possible, I'd like to get Amy's opinion.	If possible, I'd like to get Amy's opinion.	196688147	1477289887661	1477289887814	 	32
383341	4140209	If possible, I'd like to get Amy's opinion.	If possible, I'd like to get Amy's opinion.	196688155	1477289888503	1477289889280	SHIFT	16
383341	4140209	If possible, I'd like to get Amy's opinion.	If possible, I'd like to get Amy's opinion.	196688152	1477289889145	1477289889280	A	65
383341	4140209	If possible, I'd like to get Amy's opinion.	If possible, I'd like to get Amy's opinion.	196688158	1477289889358	1477289889497	m	77
383341	4140209	If possible, I'd like to get Amy's opinion.	If possible, I'd like to get Amy's opinion.	196688239	1477289889623	1477289889686	y	89
383341	4140209	If possible, I'd like to get Amy's opinion.	If possible, I'd like to get Amy's opinion.	196688241	1477289890768	1477289890914	'	222
383341	4140209	If possible, I'd like to get Amy's opinion.	If possible, I'd like to get Amy's opinion.	196688243	1477289891007	1477289891147	s	83
383341	4140209	If possible, I'd like to get Amy's opinion.	If possible, I'd like to get Amy's opinion.	196688245	1477289891210	1477289891331	 	32
383341	4140209	If possible, I'd like to get Amy's opinion.	If possible, I'd like to get Amy's opinion.	196688247	1477289892336	1477289892497	o	79
383341	4140209	If possible, I'd like to get Amy's opinion.	If possible, I'd like to get Amy's opinion.	196688275	1477289892466	1477289892583	p	80
383341	4140209	If possible, I'd like to get Amy's opinion.	If possible, I'd like to get Amy's opinion.	196688276	1477289892770	1477289892898	i	73
383341	4140209	If possible, I'd like to get Amy's opinion.	If possible, I'd like to get Amy's opinion.	196688277	1477289893179	1477289893314	n	78
383341	4140209	If possible, I'd like to get Amy's opinion.	If possible, I'd like to get Amy's opinion.	196688278	1477289893441	1477289893700	i	73
383341	4140209	If possible, I'd like to get Amy's opinion.	If possible, I'd like to get Amy's opinion.	196688279	1477289893658	1477289893766	o	79
383341	4140209	If possible, I'd like to get Amy's opinion.	If possible, I'd like to get Amy's opinion.	196688281	1477289893906	1477289893985	n	78
383341	4140209	If possible, I'd like to get Amy's opinion.	If possible, I'd like to get Amy's opinion.	196688309	1477289894879	1477289894952	.	190
383341	4140227	I am almost speechless.	I am almost speechless.	196688406	1477289898297	1477289898566	SHIFT	16
383341	4140227	I am almost speechless.	I am almost speechless.	196688407	1477289898443	1477289898566	I	73
383341	4140227	I am almost speechless.	I am almost speechless.	196688408	1477289898737	1477289898881	 	32
383341	4140227	I am almost speechless.	I am almost speechless.	196688409	1477289898944	1477289899095	a	65
383341	4140227	I am almost speechless.	I am almost speechless.	196688410	1477289899079	1477289899199	m	77
383341	4140227	I am almost speechless.	I am almost speechless.	196688411	1477289899355	1477289899465	 	32
383341	4140227	I am almost speechless.	I am almost speechless.	196688448	1477289899873	1477289900045	a	65
383341	4140227	I am almost speechless.	I am almost speechless.	196688452	1477289900076	1477289900136	l	76
383341	4140227	I am almost speechless.	I am almost speechless.	196688457	1477289900432	1477289900594	m	77
383341	4140227	I am almost speechless.	I am almost speechless.	196688461	1477289900625	1477289900748	o	79
383341	4140227	I am almost speechless.	I am almost speechless.	196688468	1477289900857	1477289901091	s	83
383341	4140227	I am almost speechless.	I am almost speechless.	196688543	1477289901075	1477289901183	t	84
383341	4140227	I am almost speechless.	I am almost speechless.	196688545	1477289901276	1477289901383	 	32
383341	4140227	I am almost speechless.	I am almost speechless.	196688546	1477289902542	1477289902697	s	83
383341	4140227	I am almost speechless.	I am almost speechless.	196688549	1477289902728	1477289902849	p	80
383341	4140227	I am almost speechless.	I am almost speechless.	196688550	1477289902973	1477289903021	e	69
383341	4140227	I am almost speechless.	I am almost speechless.	196688553	1477289903146	1477289903218	e	69
383341	4140227	I am almost speechless.	I am almost speechless.	196688593	1477289903515	1477289903679	c	67
383341	4140227	I am almost speechless.	I am almost speechless.	196688597	1477289903772	1477289903851	h	72
383341	4140227	I am almost speechless.	I am almost speechless.	196688598	1477289904053	1477289904182	l	76
383341	4140227	I am almost speechless.	I am almost speechless.	196688601	1477289904275	1477289904397	e	69
383341	4140227	I am almost speechless.	I am almost speechless.	196688604	1477289904553	1477289904635	s	83
383341	4140227	I am almost speechless.	I am almost speechless.	196688638	1477289904745	1477289904854	s	83
383341	4140227	I am almost speechless.	I am almost speechless.	196688641	1477289905413	1477289905469	.	190
383341	4140232	How are things with you?	How are things with you?	196688871	1477289910781	1477289911031	SHIFT	16
383341	4140232	How are things with you?	How are things with you?	196688873	1477289910906	1477289911078	H	72
383341	4140232	How are things with you?	How are things with you?	196688875	1477289911125	1477289911233	o	79
383341	4140232	How are things with you?	How are things with you?	196688876	1477289911467	1477289911613	w	87
383341	4140232	How are things with you?	How are things with you?	196688878	1477289911691	1477289911830	 	32
383341	4140232	How are things with you?	How are things with you?	196688880	1477289912173	1477289912314	a	65
383341	4140232	How are things with you?	How are things with you?	196689102	1477289913302	1477289913462	r	82
383341	4140232	How are things with you?	How are things with you?	196689104	1477289913446	1477289913580	e	69
383341	4140232	How are things with you?	How are things with you?	196689106	1477289913674	1477289913813	 	32
383341	4140232	How are things with you?	How are things with you?	196689108	1477289918783	1477289918914	t	84
383341	4140232	How are things with you?	How are things with you?	196689110	1477289918930	1477289919063	h	72
383341	4140232	How are things with you?	How are things with you?	196689121	1477289919157	1477289919281	i	73
383341	4140232	How are things with you?	How are things with you?	196689123	1477289919405	1477289919560	n	78
383341	4140232	How are things with you?	How are things with you?	196689125	1477289919515	1477289919834	g	71
383341	4140232	How are things with you?	How are things with you?	196689126	1477289919788	1477289919946	s	83
383341	4140232	How are things with you?	How are things with you?	196689127	1477289920008	1477289920122	 	32
383341	4140232	How are things with you?	How are things with you?	196689171	1477289921054	1477289921227	w	87
383341	4140232	How are things with you?	How are things with you?	196689173	1477289921352	1477289921513	i	73
383341	4140232	How are things with you?	How are things with you?	196689176	1477289921560	1477289921665	t	84
383341	4140232	How are things with you?	How are things with you?	196689179	1477289921743	1477289921847	h	72
383341	4140232	How are things with you?	How are things with you?	196689182	1477289922019	1477289922163	 	32
383341	4140232	How are things with you?	How are things with you?	196689346	1477289922774	1477289922898	y	89
383341	4140232	How are things with you?	How are things with you?	196689349	1477289922913	1477289923063	o	79
383341	4140232	How are things with you?	How are things with you?	196689353	1477289923219	1477289923332	u	85
383341	4140232	How are things with you?	How are things with you?	196689356	1477289923753	1477289924099	SHIFT	16
383341	4140232	How are things with you?	How are things with you?	196689358	1477289924647	1477289925183	CTRL	17
383341	4140232	How are things with you?	How are things with you?	196689359	1477289925494	1477289925765	SHIFT	16
383341	4140232	How are things with you?	How are things with you?	196689360	1477289925650	1477289925827	?	191
