PARTICIPANT_ID	TEST_SECTION_ID	SENTENCE	USER_INPUT	KEYSTROKE_ID	PRESS_TIME	RELEASE_TIME	LETTER	KEYCODE
386235	4168484	Doug Chapman will likely get the start in Bennett s absence.	Doug Champan will likely get the start in Bennett s absence.	198021645	1477328183077	1477328183162	d	68
386235	4168484	Doug Chapman will likely get the start in Bennett s absence.	Doug Champan will likely get the start in Bennett s absence.	198021649	1477328183795	1477328183926	BKSP	8
386235	4168484	Doug Chapman will likely get the start in Bennett s absence.	Doug Champan will likely get the start in Bennett s absence.	198021651	1477328184172	1477328184296	CAPS_LOCK	20
386235	4168484	Doug Chapman will likely get the start in Bennett s absence.	Doug Champan will likely get the start in Bennett s absence.	198021654	1477328184604	1477328184697	D	68
386235	4168484	Doug Chapman will likely get the start in Bennett s absence.	Doug Champan will likely get the start in Bennett s absence.	198021657	1477328184772	1477328184905	CAPS_LOCK	20
386235	4168484	Doug Chapman will likely get the start in Bennett s absence.	Doug Champan will likely get the start in Bennett s absence.	198021660	1477328185737	1477328185814	o	79
386235	4168484	Doug Chapman will likely get the start in Bennett s absence.	Doug Champan will likely get the start in Bennett s absence.	198021662	1477328185977	1477328186066	u	85
386235	4168484	Doug Chapman will likely get the start in Bennett s absence.	Doug Champan will likely get the start in Bennett s absence.	198021666	1477328186637	1477328186731	g	71
386235	4168484	Doug Chapman will likely get the start in Bennett s absence.	Doug Champan will likely get the start in Bennett s absence.	198021717	1477328186965	1477328187047	 	32
386235	4168484	Doug Chapman will likely get the start in Bennett s absence.	Doug Champan will likely get the start in Bennett s absence.	198021719	1477328187709	1477328187781	c	67
386235	4168484	Doug Chapman will likely get the start in Bennett s absence.	Doug Champan will likely get the start in Bennett s absence.	198021722	1477328187926	1477328187987	h	72
386235	4168484	Doug Chapman will likely get the start in Bennett s absence.	Doug Champan will likely get the start in Bennett s absence.	198021724	1477328188420	1477328188528	a	65
386235	4168484	Doug Chapman will likely get the start in Bennett s absence.	Doug Champan will likely get the start in Bennett s absence.	198021726	1477328188664	1477328188725	m	77
386235	4168484	Doug Chapman will likely get the start in Bennett s absence.	Doug Champan will likely get the start in Bennett s absence.	198021810	1477328189064	1477328189149	p	80
386235	4168484	Doug Chapman will likely get the start in Bennett s absence.	Doug Champan will likely get the start in Bennett s absence.	198021812	1477328189586	1477328189694	a	65
386235	4168484	Doug Chapman will likely get the start in Bennett s absence.	Doug Champan will likely get the start in Bennett s absence.	198021814	1477328189761	1477328189822	n	78
386235	4168484	Doug Chapman will likely get the start in Bennett s absence.	Doug Champan will likely get the start in Bennett s absence.	198021817	1477328189991	1477328190066	 	32
386235	4168484	Doug Chapman will likely get the start in Bennett s absence.	Doug Champan will likely get the start in Bennett s absence.	198021823	1477328191213	1477328191280	w	87
386235	4168484	Doug Chapman will likely get the start in Bennett s absence.	Doug Champan will likely get the start in Bennett s absence.	198021861	1477328191529	1477328191594	i	73
386235	4168484	Doug Chapman will likely get the start in Bennett s absence.	Doug Champan will likely get the start in Bennett s absence.	198021862	1477328191758	1477328191830	l	76
386235	4168484	Doug Chapman will likely get the start in Bennett s absence.	Doug Champan will likely get the start in Bennett s absence.	198021863	1477328191897	1477328191973	l	76
386235	4168484	Doug Chapman will likely get the start in Bennett s absence.	Doug Champan will likely get the start in Bennett s absence.	198021864	1477328192134	1477328192205	 	32
386235	4168484	Doug Chapman will likely get the start in Bennett s absence.	Doug Champan will likely get the start in Bennett s absence.	198021865	1477328192463	1477328192546	l	76
386235	4168484	Doug Chapman will likely get the start in Bennett s absence.	Doug Champan will likely get the start in Bennett s absence.	198021970	1477328192727	1477328192792	i	73
386235	4168484	Doug Chapman will likely get the start in Bennett s absence.	Doug Champan will likely get the start in Bennett s absence.	198021972	1477328192937	1477328193014	k	75
386235	4168484	Doug Chapman will likely get the start in Bennett s absence.	Doug Champan will likely get the start in Bennett s absence.	198021976	1477328193252	1477328193329	e	69
386235	4168484	Doug Chapman will likely get the start in Bennett s absence.	Doug Champan will likely get the start in Bennett s absence.	198021980	1477328193472	1477328193549	l	76
386235	4168484	Doug Chapman will likely get the start in Bennett s absence.	Doug Champan will likely get the start in Bennett s absence.	198021984	1477328194803	1477328194932	 	32
386235	4168484	Doug Chapman will likely get the start in Bennett s absence.	Doug Champan will likely get the start in Bennett s absence.	198022091	1477328197036	1477328197133	g	71
386235	4168484	Doug Chapman will likely get the start in Bennett s absence.	Doug Champan will likely get the start in Bennett s absence.	198022094	1477328197207	1477328197306	e	69
386235	4168484	Doug Chapman will likely get the start in Bennett s absence.	Doug Champan will likely get the start in Bennett s absence.	198022097	1477328197309	1477328197376	t	84
386235	4168484	Doug Chapman will likely get the start in Bennett s absence.	Doug Champan will likely get the start in Bennett s absence.	198022100	1477328197540	1477328197619	 	32
386235	4168484	Doug Chapman will likely get the start in Bennett s absence.	Doug Champan will likely get the start in Bennett s absence.	198022103	1477328197780	1477328197852	t	84
386235	4168484	Doug Chapman will likely get the start in Bennett s absence.	Doug Champan will likely get the start in Bennett s absence.	198022123	1477328197946	1477328198012	h	72
386235	4168484	Doug Chapman will likely get the start in Bennett s absence.	Doug Champan will likely get the start in Bennett s absence.	198022126	1477328198066	1477328198147	e	69
386235	4168484	Doug Chapman will likely get the start in Bennett s absence.	Doug Champan will likely get the start in Bennett s absence.	198022130	1477328198184	1477328198255	 	32
386235	4168484	Doug Chapman will likely get the start in Bennett s absence.	Doug Champan will likely get the start in Bennett s absence.	198022137	1477328198367	1477328198417	s	83
386235	4168484	Doug Chapman will likely get the start in Bennett s absence.	Doug Champan will likely get the start in Bennett s absence.	198022141	1477328198690	1477328198777	t	84
386235	4168484	Doug Chapman will likely get the start in Bennett s absence.	Doug Champan will likely get the start in Bennett s absence.	198022287	1477328198858	1477328198958	a	65
386235	4168484	Doug Chapman will likely get the start in Bennett s absence.	Doug Champan will likely get the start in Bennett s absence.	198022290	1477328199180	1477328199256	t	84
386235	4168484	Doug Chapman will likely get the start in Bennett s absence.	Doug Champan will likely get the start in Bennett s absence.	198022293	1477328200697	1477328200820	BKSP	8
386235	4168484	Doug Chapman will likely get the start in Bennett s absence.	Doug Champan will likely get the start in Bennett s absence.	198022295	1477328201513	1477328201652	r	82
386235	4168484	Doug Chapman will likely get the start in Bennett s absence.	Doug Champan will likely get the start in Bennett s absence.	198022298	1477328201798	1477328201946	t	84
386235	4168484	Doug Chapman will likely get the start in Bennett s absence.	Doug Champan will likely get the start in Bennett s absence.	198022299	1477328202154	1477328202252	 	32
386235	4168484	Doug Chapman will likely get the start in Bennett s absence.	Doug Champan will likely get the start in Bennett s absence.	198022487	1477328204044	1477328204120	i	73
386235	4168484	Doug Chapman will likely get the start in Bennett s absence.	Doug Champan will likely get the start in Bennett s absence.	198022489	1477328204317	1477328204379	n	78
386235	4168484	Doug Chapman will likely get the start in Bennett s absence.	Doug Champan will likely get the start in Bennett s absence.	198022491	1477328204909	1477328204998	 	32
386235	4168484	Doug Chapman will likely get the start in Bennett s absence.	Doug Champan will likely get the start in Bennett s absence.	198022492	1477328205513	1477328205651	CAPS_LOCK	20
386235	4168484	Doug Chapman will likely get the start in Bennett s absence.	Doug Champan will likely get the start in Bennett s absence.	198022494	1477328205953	1477328206045	B	66
386235	4168484	Doug Chapman will likely get the start in Bennett s absence.	Doug Champan will likely get the start in Bennett s absence.	198022496	1477328206110	1477328206212	CAPS_LOCK	20
386235	4168484	Doug Chapman will likely get the start in Bennett s absence.	Doug Champan will likely get the start in Bennett s absence.	198022498	1477328206514	1477328206637	e	69
386235	4168484	Doug Chapman will likely get the start in Bennett s absence.	Doug Champan will likely get the start in Bennett s absence.	198022520	1477328206754	1477328206820	n	78
386235	4168484	Doug Chapman will likely get the start in Bennett s absence.	Doug Champan will likely get the start in Bennett s absence.	198022523	1477328206893	1477328206975	n	78
386235	4168484	Doug Chapman will likely get the start in Bennett s absence.	Doug Champan will likely get the start in Bennett s absence.	198022527	1477328207155	1477328207260	e	69
386235	4168484	Doug Chapman will likely get the start in Bennett s absence.	Doug Champan will likely get the start in Bennett s absence.	198022531	1477328207573	1477328207682	t	84
386235	4168484	Doug Chapman will likely get the start in Bennett s absence.	Doug Champan will likely get the start in Bennett s absence.	198022537	1477328207730	1477328207823	t	84
386235	4168484	Doug Chapman will likely get the start in Bennett s absence.	Doug Champan will likely get the start in Bennett s absence.	198022688	1477328208476	1477328208579	 	32
386235	4168484	Doug Chapman will likely get the start in Bennett s absence.	Doug Champan will likely get the start in Bennett s absence.	198022691	1477328209864	1477328209962	s	83
386235	4168484	Doug Chapman will likely get the start in Bennett s absence.	Doug Champan will likely get the start in Bennett s absence.	198022692	1477328210105	1477328210198	 	32
386235	4168484	Doug Chapman will likely get the start in Bennett s absence.	Doug Champan will likely get the start in Bennett s absence.	198022695	1477328211185	1477328211282	a	65
386235	4168484	Doug Chapman will likely get the start in Bennett s absence.	Doug Champan will likely get the start in Bennett s absence.	198022699	1477328211493	1477328211569	b	66
386235	4168484	Doug Chapman will likely get the start in Bennett s absence.	Doug Champan will likely get the start in Bennett s absence.	198022839	1477328211753	1477328211844	s	83
386235	4168484	Doug Chapman will likely get the start in Bennett s absence.	Doug Champan will likely get the start in Bennett s absence.	198022842	1477328212047	1477328212129	e	69
386235	4168484	Doug Chapman will likely get the start in Bennett s absence.	Doug Champan will likely get the start in Bennett s absence.	198022846	1477328212283	1477328212381	n	78
386235	4168484	Doug Chapman will likely get the start in Bennett s absence.	Doug Champan will likely get the start in Bennett s absence.	198022850	1477328214960	1477328215073	c	67
386235	4168484	Doug Chapman will likely get the start in Bennett s absence.	Doug Champan will likely get the start in Bennett s absence.	198022857	1477328215137	1477328215247	e	69
386235	4168484	Doug Chapman will likely get the start in Bennett s absence.	Doug Champan will likely get the start in Bennett s absence.	198023334	1477328216252	1477328216385	.	190
386235	4168484	Doug Chapman will likely get the start in Bennett s absence.	Doug Champan will likely get the start in Bennett s absence.	198023335	1477328220989	1477328221065	BKSP	8
386235	4168484	Doug Chapman will likely get the start in Bennett s absence.	Doug Champan will likely get the start in Bennett s absence.	198023336	1477328221553	1477328221651	CAPS_LOCK	20
386235	4168484	Doug Chapman will likely get the start in Bennett s absence.	Doug Champan will likely get the start in Bennett s absence.	198023338	1477328222235	1477328222327	C	67
386235	4168484	Doug Chapman will likely get the start in Bennett s absence.	Doug Champan will likely get the start in Bennett s absence.	198023340	1477328222573	1477328222650	CAPS_LOCK	20
386235	4168527	So you're ignoring me.	So you're ignring me.	198023840	1477328232570	1477328233614	SHIFT	16
386235	4168527	So you're ignoring me.	So you're ignring me.	198023838	1477328232999	1477328233113	A	65
386235	4168527	So you're ignoring me.	So you're ignring me.	198023846	1477328234021	1477328234134	BKSP	8
386235	4168527	So you're ignoring me.	So you're ignring me.	198023851	1477328234236	1477328234662	SHIFT	16
386235	4168527	So you're ignoring me.	So you're ignring me.	198023856	1477328234570	1477328234681	S	83
386235	4168527	So you're ignoring me.	So you're ignring me.	198023863	1477328235058	1477328235142	o	79
386235	4168527	So you're ignoring me.	So you're ignring me.	198023869	1477328235489	1477328235572	 	32
386235	4168527	So you're ignoring me.	So you're ignring me.	198023877	1477328237509	1477328237591	o	79
386235	4168527	So you're ignoring me.	So you're ignring me.	198024050	1477328237731	1477328237815	u	85
386235	4168527	So you're ignoring me.	So you're ignring me.	198024054	1477328239046	1477328239140	;	186
386235	4168527	So you're ignoring me.	So you're ignring me.	198024059	1477328240178	1477328240249	BKSP	8
386235	4168527	So you're ignoring me.	So you're ignring me.	198024063	1477328240339	1477328240410	BKSP	8
386235	4168527	So you're ignoring me.	So you're ignring me.	198024067	1477328240486	1477328240563	BKSP	8
386235	4168527	So you're ignoring me.	So you're ignring me.	198024070	1477328240639	1477328240711	BKSP	8
386235	4168527	So you're ignoring me.	So you're ignring me.	198024074	1477328241314	1477328241449	 	32
386235	4168527	So you're ignoring me.	So you're ignring me.	198024076	1477328241772	1477328241864	y	89
386235	4168527	So you're ignoring me.	So you're ignring me.	198024080	1477328241967	1477328242027	o	79
386235	4168527	So you're ignoring me.	So you're ignring me.	198024358	1477328242221	1477328242300	u	85
386235	4168527	So you're ignoring me.	So you're ignring me.	198024360	1477328243340	1477328243479	,	188
386235	4168527	So you're ignoring me.	So you're ignring me.	198024362	1477328244405	1477328244499	BKSP	8
386235	4168527	So you're ignoring me.	So you're ignring me.	198024367	1477328247386	1477328247545	'	222
386235	4168527	So you're ignoring me.	So you're ignring me.	198024554	1477328248580	1477328250789	r	82
386235	4168527	So you're ignoring me.	So you're ignring me.	198024372	1477328248779	1477328248871	e	69
386235	4168527	So you're ignoring me.	So you're ignring me.	198024454	1477328248918	1477328248991	 	32
386235	4168527	So you're ignoring me.	So you're ignring me.	198024459	1477328249207	1477328249285	i	73
386235	4168527	So you're ignoring me.	So you're ignring me.	198024465	1477328249986	1477328250079	g	71
386235	4168527	So you're ignoring me.	So you're ignring me.	198024470	1477328250140	1477328250202	n	78
386235	4168527	So you're ignoring me.	So you're ignring me.	198024475	1477328250432	1477328250510	o	79
386235	4168527	So you're ignoring me.	So you're ignring me.	198024557	1477328250851	1477328250923	i	73
386235	4168527	So you're ignoring me.	So you're ignring me.	198024561	1477328251184	1477328251266	n	78
386235	4168527	So you're ignoring me.	So you're ignring me.	198024567	1477328251330	1477328251395	g	71
386235	4168527	So you're ignoring me.	So you're ignring me.	198024571	1477328251426	1477328251493	 	32
386235	4168527	So you're ignoring me.	So you're ignring me.	198024579	1477328251647	1477328251719	m	77
386235	4168527	So you're ignoring me.	So you're ignring me.	198024663	1477328251784	1477328251867	e	69
386235	4168527	So you're ignoring me.	So you're ignring me.	198024665	1477328252915	1477328252991	.	190
386235	4168556	I want to compare the two.	I wanr to compare the two.	198025117	1477328256567	1477328257007	SHIFT	16
386235	4168556	I want to compare the two.	I wanr to compare the two.	198025113	1477328256808	1477328256894	I	73
386235	4168556	I want to compare the two.	I wanr to compare the two.	198025120	1477328257465	1477328257583	 	32
386235	4168556	I want to compare the two.	I wanr to compare the two.	198025125	1477328260266	1477328260390	w	87
386235	4168556	I want to compare the two.	I wanr to compare the two.	198025128	1477328260465	1477328260564	a	65
386235	4168556	I want to compare the two.	I wanr to compare the two.	198025131	1477328260931	1477328261028	n	78
386235	4168556	I want to compare the two.	I wanr to compare the two.	198025256	1477328261081	1477328261216	r	82
386235	4168556	I want to compare the two.	I wanr to compare the two.	198025260	1477328261604	1477328261681	 	32
386235	4168556	I want to compare the two.	I wanr to compare the two.	198025264	1477328262437	1477328262524	t	84
386235	4168556	I want to compare the two.	I wanr to compare the two.	198025268	1477328262679	1477328262772	o	79
386235	4168556	I want to compare the two.	I wanr to compare the two.	198025272	1477328263543	1477328263635	c	67
386235	4168556	I want to compare the two.	I wanr to compare the two.	198025403	1477328264470	1477328264567	BKSP	8
386235	4168556	I want to compare the two.	I wanr to compare the two.	198025405	1477328264606	1477328264735	 	32
386235	4168556	I want to compare the two.	I wanr to compare the two.	198025408	1477328265165	1477328265232	c	67
386235	4168556	I want to compare the two.	I wanr to compare the two.	198025409	1477328265480	1477328265556	o	79
386235	4168556	I want to compare the two.	I wanr to compare the two.	198025411	1477328265775	1477328265837	m	77
386235	4168556	I want to compare the two.	I wanr to compare the two.	198025413	1477328266088	1477328266170	p	80
386235	4168556	I want to compare the two.	I wanr to compare the two.	198025459	1477328266342	1477328266445	a	65
386235	4168556	I want to compare the two.	I wanr to compare the two.	198025461	1477328266525	1477328266631	r	82
386235	4168556	I want to compare the two.	I wanr to compare the two.	198025465	1477328266688	1477328266773	e	69
386235	4168556	I want to compare the two.	I wanr to compare the two.	198025472	1477328266792	1477328266879	 	32
386235	4168556	I want to compare the two.	I wanr to compare the two.	198025479	1477328267016	1477328267093	t	84
386235	4168556	I want to compare the two.	I wanr to compare the two.	198025542	1477328267192	1477328267266	h	72
386235	4168556	I want to compare the two.	I wanr to compare the two.	198025550	1477328267257	1477328267328	e	69
386235	4168556	I want to compare the two.	I wanr to compare the two.	198025555	1477328267354	1477328267432	 	32
386235	4168556	I want to compare the two.	I wanr to compare the two.	198025560	1477328267590	1477328267667	t	84
386235	4168556	I want to compare the two.	I wanr to compare the two.	198025566	1477328268437	1477328268529	w	87
386235	4168556	I want to compare the two.	I wanr to compare the two.	198025618	1477328268538	1477328268613	o	79
386235	4168556	I want to compare the two.	I wanr to compare the two.	198025621	1477328269534	1477328269606	.	190
386235	4168575	I need your help in putting together a new list.	I need your help in putting toghether a new list.	198025982	1477328275567	1477328276068	SHIFT	16
386235	4168575	I need your help in putting together a new list.	I need your help in putting toghether a new list.	198025981	1477328275970	1477328276064	I	73
386235	4168575	I need your help in putting together a new list.	I need your help in putting toghether a new list.	198025983	1477328276280	1477328276383	 	32
386235	4168575	I need your help in putting together a new list.	I need your help in putting toghether a new list.	198025984	1477328276508	1477328276590	n	78
386235	4168575	I need your help in putting together a new list.	I need your help in putting toghether a new list.	198025985	1477328276663	1477328276766	e	69
386235	4168575	I need your help in putting together a new list.	I need your help in putting toghether a new list.	198025986	1477328276867	1477328276951	e	69
386235	4168575	I need your help in putting together a new list.	I need your help in putting toghether a new list.	198026158	1477328277322	1477328277439	d	68
386235	4168575	I need your help in putting together a new list.	I need your help in putting toghether a new list.	198026162	1477328277511	1477328277594	 	32
386235	4168575	I need your help in putting together a new list.	I need your help in putting toghether a new list.	198026166	1477328280175	1477328280273	y	89
386235	4168575	I need your help in putting together a new list.	I need your help in putting toghether a new list.	198026172	1477328280307	1477328280364	o	79
386235	4168575	I need your help in putting together a new list.	I need your help in putting toghether a new list.	198026175	1477328280513	1477328280595	u	85
386235	4168575	I need your help in putting together a new list.	I need your help in putting toghether a new list.	198026363	1477328281494	1477328281591	r	82
386235	4168575	I need your help in putting together a new list.	I need your help in putting toghether a new list.	198026368	1477328281595	1477328281683	 	32
386235	4168575	I need your help in putting together a new list.	I need your help in putting toghether a new list.	198026372	1477328281855	1477328281922	h	72
386235	4168575	I need your help in putting together a new list.	I need your help in putting toghether a new list.	198026376	1477328283455	1477328283522	e	69
386235	4168575	I need your help in putting together a new list.	I need your help in putting toghether a new list.	198026381	1477328283913	1477328283981	l	76
386235	4168575	I need your help in putting together a new list.	I need your help in putting toghether a new list.	198026448	1477328284100	1477328284181	p	80
386235	4168575	I need your help in putting together a new list.	I need your help in putting toghether a new list.	198026452	1477328284516	1477328284593	 	32
386235	4168575	I need your help in putting together a new list.	I need your help in putting toghether a new list.	198026458	1477328284868	1477328284943	i	73
386235	4168575	I need your help in putting together a new list.	I need your help in putting toghether a new list.	198026464	1477328285132	1477328285210	n	78
386235	4168575	I need your help in putting together a new list.	I need your help in putting toghether a new list.	198026472	1477328285326	1477328285393	 	32
386235	4168575	I need your help in putting together a new list.	I need your help in putting toghether a new list.	198026544	1477328285761	1477328285850	p	80
386235	4168575	I need your help in putting together a new list.	I need your help in putting toghether a new list.	198026546	1477328286130	1477328286224	u	85
386235	4168575	I need your help in putting together a new list.	I need your help in putting toghether a new list.	198026547	1477328286413	1477328286510	t	84
386235	4168575	I need your help in putting together a new list.	I need your help in putting toghether a new list.	198026548	1477328286590	1477328286679	t	84
386235	4168575	I need your help in putting together a new list.	I need your help in putting toghether a new list.	198026549	1477328286753	1477328286828	i	73
386235	4168575	I need your help in putting together a new list.	I need your help in putting toghether a new list.	198026744	1477328287026	1477328287114	n	78
386235	4168575	I need your help in putting together a new list.	I need your help in putting toghether a new list.	198026745	1477328287153	1477328287238	f	70
386235	4168575	I need your help in putting together a new list.	I need your help in putting toghether a new list.	198026746	1477328287828	1477328287920	BKSP	8
386235	4168575	I need your help in putting together a new list.	I need your help in putting toghether a new list.	198026748	1477328288523	1477328288623	BKSP	8
386235	4168575	I need your help in putting together a new list.	I need your help in putting toghether a new list.	198026752	1477328290404	1477328290497	n	78
386235	4168575	I need your help in putting together a new list.	I need your help in putting toghether a new list.	198026757	1477328290538	1477328290625	g	71
386235	4168575	I need your help in putting together a new list.	I need your help in putting toghether a new list.	198026761	1477328290670	1477328290756	 	32
386235	4168575	I need your help in putting together a new list.	I need your help in putting toghether a new list.	198026883	1477328291266	1477328291351	t	84
386235	4168575	I need your help in putting together a new list.	I need your help in putting toghether a new list.	198026884	1477328291409	1477328291491	o	79
386235	4168575	I need your help in putting together a new list.	I need your help in putting toghether a new list.	198026885	1477328292513	1477328292585	g	71
386235	4168575	I need your help in putting together a new list.	I need your help in putting toghether a new list.	198026887	1477328292686	1477328292779	h	72
386235	4168575	I need your help in putting together a new list.	I need your help in putting toghether a new list.	198026889	1477328292962	1477328293059	e	69
386235	4168575	I need your help in putting together a new list.	I need your help in putting toghether a new list.	198026986	1477328293098	1477328293163	t	84
386235	4168575	I need your help in putting together a new list.	I need your help in putting toghether a new list.	198026988	1477328293304	1477328293390	h	72
386235	4168575	I need your help in putting together a new list.	I need your help in putting toghether a new list.	198026994	1477328293567	1477328293655	e	69
386235	4168575	I need your help in putting together a new list.	I need your help in putting toghether a new list.	198027000	1477328294177	1477328294280	r	82
386235	4168575	I need your help in putting together a new list.	I need your help in putting toghether a new list.	198027006	1477328294787	1477328294890	 	32
386235	4168575	I need your help in putting together a new list.	I need your help in putting toghether a new list.	198027147	1477328295743	1477328295857	a	65
386235	4168575	I need your help in putting together a new list.	I need your help in putting toghether a new list.	198027153	1477328295914	1477328295992	 	32
386235	4168575	I need your help in putting together a new list.	I need your help in putting toghether a new list.	198027163	1477328296515	1477328296606	n	78
386235	4168575	I need your help in putting together a new list.	I need your help in putting toghether a new list.	198027171	1477328296922	1477328297031	e	69
386235	4168575	I need your help in putting together a new list.	I need your help in putting toghether a new list.	198027181	1477328297179	1477328297266	w	87
386235	4168575	I need your help in putting together a new list.	I need your help in putting toghether a new list.	198027282	1477328297380	1477328297442	 	32
386235	4168575	I need your help in putting together a new list.	I need your help in putting toghether a new list.	198027285	1477328298042	1477328298128	l	76
386235	4168575	I need your help in putting together a new list.	I need your help in putting toghether a new list.	198027289	1477328298284	1477328298369	i	73
386235	4168575	I need your help in putting together a new list.	I need your help in putting toghether a new list.	198027294	1477328298703	1477328298784	s	83
386235	4168575	I need your help in putting together a new list.	I need your help in putting toghether a new list.	198027304	1477328298883	1477328298975	t	84
386235	4168575	I need your help in putting together a new list.	I need your help in putting toghether a new list.	198027367	1477328299856	1477328299921	.	190
386235	4168614	Lynn, got to the office OK.	Lynn, got to the office OK.	198027808	1477328302755	1477328303478	SHIFT	16
386235	4168614	Lynn, got to the office OK.	Lynn, got to the office OK.	198027804	1477328303230	1477328303318	L	76
386235	4168614	Lynn, got to the office OK.	Lynn, got to the office OK.	198027811	1477328305239	1477328305321	y	89
386235	4168614	Lynn, got to the office OK.	Lynn, got to the office OK.	198027814	1477328305561	1477328305626	n	78
386235	4168614	Lynn, got to the office OK.	Lynn, got to the office OK.	198027820	1477328305732	1477328305797	n	78
386235	4168614	Lynn, got to the office OK.	Lynn, got to the office OK.	198027826	1477328306977	1477328307075	,	188
386235	4168614	Lynn, got to the office OK.	Lynn, got to the office OK.	198028041	1477328308067	1477328308174	 	32
386235	4168614	Lynn, got to the office OK.	Lynn, got to the office OK.	198028043	1477328310555	1477328310636	g	71
386235	4168614	Lynn, got to the office OK.	Lynn, got to the office OK.	198028047	1477328310824	1477328310900	o	79
386235	4168614	Lynn, got to the office OK.	Lynn, got to the office OK.	198028051	1477328311013	1477328311099	t	84
386235	4168614	Lynn, got to the office OK.	Lynn, got to the office OK.	198028055	1477328311165	1477328311230	 	32
386235	4168614	Lynn, got to the office OK.	Lynn, got to the office OK.	198028120	1477328311599	1477328311663	t	84
386235	4168614	Lynn, got to the office OK.	Lynn, got to the office OK.	198028122	1477328311738	1477328311753	o	79
386235	4168614	Lynn, got to the office OK.	Lynn, got to the office OK.	198028126	1477328311929	1477328312007	 	32
386235	4168614	Lynn, got to the office OK.	Lynn, got to the office OK.	198028133	1477328312163	1477328312245	t	84
386235	4168614	Lynn, got to the office OK.	Lynn, got to the office OK.	198028140	1477328312334	1477328312422	h	72
386235	4168614	Lynn, got to the office OK.	Lynn, got to the office OK.	198028174	1477328312489	1477328312573	e	69
386235	4168614	Lynn, got to the office OK.	Lynn, got to the office OK.	198028178	1477328312576	1477328312636	 	32
386235	4168614	Lynn, got to the office OK.	Lynn, got to the office OK.	198028182	1477328313065	1477328313142	o	79
386235	4168614	Lynn, got to the office OK.	Lynn, got to the office OK.	198028186	1477328313417	1477328313529	f	70
386235	4168614	Lynn, got to the office OK.	Lynn, got to the office OK.	198028190	1477328313605	1477328313693	f	70
386235	4168614	Lynn, got to the office OK.	Lynn, got to the office OK.	198028252	1477328313798	1477328313891	i	73
386235	4168614	Lynn, got to the office OK.	Lynn, got to the office OK.	198028254	1477328314377	1477328314453	c	67
386235	4168614	Lynn, got to the office OK.	Lynn, got to the office OK.	198028257	1477328314508	1477328314608	e	69
386235	4168614	Lynn, got to the office OK.	Lynn, got to the office OK.	198028259	1477328314589	1477328314661	 	32
386235	4168614	Lynn, got to the office OK.	Lynn, got to the office OK.	198028260	1477328315020	1477328315086	o	79
386235	4168614	Lynn, got to the office OK.	Lynn, got to the office OK.	198028510	1477328315177	1477328315244	k	75
386235	4168614	Lynn, got to the office OK.	Lynn, got to the office OK.	198028514	1477328316281	1477328316357	.	190
386235	4168614	Lynn, got to the office OK.	Lynn, got to the office OK.	198028517	1477328317527	1477328317603	BKSP	8
386235	4168614	Lynn, got to the office OK.	Lynn, got to the office OK.	198028520	1477328317691	1477328317752	BKSP	8
386235	4168614	Lynn, got to the office OK.	Lynn, got to the office OK.	198028522	1477328317839	1477328317929	BKSP	8
386235	4168614	Lynn, got to the office OK.	Lynn, got to the office OK.	198028532	1477328318414	1477328319233	SHIFT	16
386235	4168614	Lynn, got to the office OK.	Lynn, got to the office OK.	198028525	1477328318912	1477328318988	O	79
386235	4168614	Lynn, got to the office OK.	Lynn, got to the office OK.	198028528	1477328319098	1477328319173	K	75
386235	4168614	Lynn, got to the office OK.	Lynn, got to the office OK.	198028536	1477328319749	1477328319814	.	190
386235	4168635	Your friend's defense, however, has other plans.	your friend's defense, however, has other plans.	198028830	1477328324176	1477328324253	y	89
386235	4168635	Your friend's defense, however, has other plans.	your friend's defense, however, has other plans.	198028832	1477328324486	1477328324572	o	79
386235	4168635	Your friend's defense, however, has other plans.	your friend's defense, however, has other plans.	198028836	1477328324723	1477328324804	u	85
386235	4168635	Your friend's defense, however, has other plans.	your friend's defense, however, has other plans.	198028839	1477328324921	1477328325013	r	82
386235	4168635	Your friend's defense, however, has other plans.	your friend's defense, however, has other plans.	198028842	1477328325149	1477328325228	 	32
386235	4168635	Your friend's defense, however, has other plans.	your friend's defense, however, has other plans.	198028954	1477328325843	1477328325914	f	70
386235	4168635	Your friend's defense, however, has other plans.	your friend's defense, however, has other plans.	198028956	1477328326015	1477328326082	r	82
386235	4168635	Your friend's defense, however, has other plans.	your friend's defense, however, has other plans.	198028958	1477328326810	1477328326902	i	73
386235	4168635	Your friend's defense, however, has other plans.	your friend's defense, however, has other plans.	198028960	1477328326961	1477328327055	e	69
386235	4168635	Your friend's defense, however, has other plans.	your friend's defense, however, has other plans.	198028962	1477328327260	1477328327345	n	78
386235	4168635	Your friend's defense, however, has other plans.	your friend's defense, however, has other plans.	198029167	1477328327535	1477328327574	s	83
386235	4168635	Your friend's defense, however, has other plans.	your friend's defense, however, has other plans.	198029170	1477328328067	1477328328118	BKSP	8
386235	4168635	Your friend's defense, however, has other plans.	your friend's defense, however, has other plans.	198029172	1477328328675	1477328328798	d	68
386235	4168635	Your friend's defense, however, has other plans.	your friend's defense, however, has other plans.	198029175	1477328330008	1477328330100	,	188
386235	4168635	Your friend's defense, however, has other plans.	your friend's defense, however, has other plans.	198029180	1477328331050	1477328331127	BKSP	8
386235	4168635	Your friend's defense, however, has other plans.	your friend's defense, however, has other plans.	198029183	1477328331517	1477328331603	;	186
386235	4168635	Your friend's defense, however, has other plans.	your friend's defense, however, has other plans.	198029186	1477328332137	1477328332240	BKSP	8
386235	4168635	Your friend's defense, however, has other plans.	your friend's defense, however, has other plans.	198029190	1477328332811	1477328332872	'	222
386235	4168635	Your friend's defense, however, has other plans.	your friend's defense, however, has other plans.	198029331	1477328333942	1477328334029	s	83
386235	4168635	Your friend's defense, however, has other plans.	your friend's defense, however, has other plans.	198029334	1477328334121	1477328334198	 	32
386235	4168635	Your friend's defense, however, has other plans.	your friend's defense, however, has other plans.	198029336	1477328335321	1477328335415	d	68
386235	4168635	Your friend's defense, however, has other plans.	your friend's defense, however, has other plans.	198029338	1477328335559	1477328335645	e	69
386235	4168635	Your friend's defense, however, has other plans.	your friend's defense, however, has other plans.	198029339	1477328335821	1477328335903	f	70
386235	4168635	Your friend's defense, however, has other plans.	your friend's defense, however, has other plans.	198029448	1477328335969	1477328336026	e	69
386235	4168635	Your friend's defense, however, has other plans.	your friend's defense, however, has other plans.	198029450	1477328336347	1477328336433	n	78
386235	4168635	Your friend's defense, however, has other plans.	your friend's defense, however, has other plans.	198029453	1477328336517	1477328336588	s	83
386235	4168635	Your friend's defense, however, has other plans.	your friend's defense, however, has other plans.	198029456	1477328336733	1477328336810	e	69
386235	4168635	Your friend's defense, however, has other plans.	your friend's defense, however, has other plans.	198029460	1477328338315	1477328338387	,	188
386235	4168635	Your friend's defense, however, has other plans.	your friend's defense, however, has other plans.	198029632	1477328339126	1477328339225	 	32
386235	4168635	Your friend's defense, however, has other plans.	your friend's defense, however, has other plans.	198029634	1477328339785	1477328339856	h	72
386235	4168635	Your friend's defense, however, has other plans.	your friend's defense, however, has other plans.	198029637	1477328340156	1477328340210	o	79
386235	4168635	Your friend's defense, however, has other plans.	your friend's defense, however, has other plans.	198029641	1477328341325	1477328341417	w	87
386235	4168635	Your friend's defense, however, has other plans.	your friend's defense, however, has other plans.	198029645	1477328342175	1477328342282	e	69
386235	4168635	Your friend's defense, however, has other plans.	your friend's defense, however, has other plans.	198029712	1477328342335	1477328342440	v	86
386235	4168635	Your friend's defense, however, has other plans.	your friend's defense, however, has other plans.	198029715	1477328342431	1477328342518	e	69
386235	4168635	Your friend's defense, however, has other plans.	your friend's defense, however, has other plans.	198029718	1477328342645	1477328342721	r	82
386235	4168635	Your friend's defense, however, has other plans.	your friend's defense, however, has other plans.	198029720	1477328343193	1477328343280	,	188
386235	4168635	Your friend's defense, however, has other plans.	your friend's defense, however, has other plans.	198029723	1477328344032	1477328344106	 	32
386235	4168635	Your friend's defense, however, has other plans.	your friend's defense, however, has other plans.	198029806	1477328344959	1477328345047	h	72
386235	4168635	Your friend's defense, however, has other plans.	your friend's defense, however, has other plans.	198029809	1477328345081	1477328345173	a	65
386235	4168635	Your friend's defense, however, has other plans.	your friend's defense, however, has other plans.	198029811	1477328345314	1477328345410	s	83
386235	4168635	Your friend's defense, however, has other plans.	your friend's defense, however, has other plans.	198029814	1477328345455	1477328345537	 	32
386235	4168635	Your friend's defense, however, has other plans.	your friend's defense, however, has other plans.	198029816	1477328346078	1477328346156	o	79
386235	4168635	Your friend's defense, however, has other plans.	your friend's defense, however, has other plans.	198029862	1477328346399	1477328346486	t	84
386235	4168635	Your friend's defense, however, has other plans.	your friend's defense, however, has other plans.	198029865	1477328346605	1477328346716	h	72
386235	4168635	Your friend's defense, however, has other plans.	your friend's defense, however, has other plans.	198029869	1477328346790	1477328346863	e	69
386235	4168635	Your friend's defense, however, has other plans.	your friend's defense, however, has other plans.	198029873	1477328346971	1477328347033	r	82
386235	4168635	Your friend's defense, however, has other plans.	your friend's defense, however, has other plans.	198029877	1477328347091	1477328347173	 	32
386235	4168635	Your friend's defense, however, has other plans.	your friend's defense, however, has other plans.	198029951	1477328347553	1477328347619	p	80
386235	4168635	Your friend's defense, however, has other plans.	your friend's defense, however, has other plans.	198029952	1477328347733	1477328347810	l	76
386235	4168635	Your friend's defense, however, has other plans.	your friend's defense, however, has other plans.	198029953	1477328347754	1477328347859	a	65
386235	4168635	Your friend's defense, however, has other plans.	your friend's defense, however, has other plans.	198029954	1477328347963	1477328348040	m	77
386235	4168635	Your friend's defense, however, has other plans.	your friend's defense, however, has other plans.	198029957	1477328348677	1477328348749	BKSP	8
386235	4168635	Your friend's defense, however, has other plans.	your friend's defense, however, has other plans.	198029960	1477328349139	1477328349227	n	78
386235	4168635	Your friend's defense, however, has other plans.	your friend's defense, however, has other plans.	198030041	1477328349328	1477328349409	s	83
386235	4168635	Your friend's defense, however, has other plans.	your friend's defense, however, has other plans.	198030044	1477328350584	1477328350636	.	190
386235	4168664	She is most familiar with our computer systems.	She is most familiar with or computer systems.	198030270	1477328353623	1477328354423	SHIFT	16
386235	4168664	She is most familiar with our computer systems.	She is most familiar with or computer systems.	198030268	1477328354246	1477328354353	S	83
386235	4168664	She is most familiar with our computer systems.	She is most familiar with or computer systems.	198030272	1477328354827	1477328354926	h	72
386235	4168664	She is most familiar with our computer systems.	She is most familiar with or computer systems.	198030274	1477328354998	1477328355113	e	69
386235	4168664	She is most familiar with our computer systems.	She is most familiar with or computer systems.	198030276	1477328355250	1477328355331	 	32
386235	4168664	She is most familiar with our computer systems.	She is most familiar with or computer systems.	198030279	1477328356503	1477328356598	i	73
386235	4168664	She is most familiar with our computer systems.	She is most familiar with or computer systems.	198030351	1477328356665	1477328356749	s	83
386235	4168664	She is most familiar with our computer systems.	She is most familiar with or computer systems.	198030356	1477328356812	1477328356885	 	32
386235	4168664	She is most familiar with our computer systems.	She is most familiar with or computer systems.	198030360	1477328357200	1477328357256	m	77
386235	4168664	She is most familiar with our computer systems.	She is most familiar with or computer systems.	198030364	1477328357537	1477328357608	o	79
386235	4168664	She is most familiar with our computer systems.	She is most familiar with or computer systems.	198030366	1477328357898	1477328357984	s	83
386235	4168664	She is most familiar with our computer systems.	She is most familiar with or computer systems.	198030422	1477328358068	1477328358144	t	84
386235	4168664	She is most familiar with our computer systems.	She is most familiar with or computer systems.	198030424	1477328358304	1477328358390	 	32
386235	4168664	She is most familiar with our computer systems.	She is most familiar with or computer systems.	198030428	1477328358562	1477328358626	f	70
386235	4168664	She is most familiar with our computer systems.	She is most familiar with or computer systems.	198030430	1477328358769	1477328358845	a	65
386235	4168664	She is most familiar with our computer systems.	She is most familiar with or computer systems.	198030434	1477328359091	1477328359168	m	77
386235	4168664	She is most familiar with our computer systems.	She is most familiar with or computer systems.	198030520	1477328359365	1477328359431	i	73
386235	4168664	She is most familiar with our computer systems.	She is most familiar with or computer systems.	198030523	1477328359613	1477328359680	l	76
386235	4168664	She is most familiar with our computer systems.	She is most familiar with or computer systems.	198030526	1477328359812	1477328359882	i	73
386235	4168664	She is most familiar with our computer systems.	She is most familiar with or computer systems.	198030530	1477328360212	1477328360325	a	65
386235	4168664	She is most familiar with our computer systems.	She is most familiar with or computer systems.	198030900	1477328360368	1477328368780	r	82
386235	4168664	She is most familiar with our computer systems.	She is most familiar with or computer systems.	198030534	1477328360653	1477328360731	 	32
386235	4168664	She is most familiar with our computer systems.	She is most familiar with or computer systems.	198030744	1477328364754	1477328364830	w	87
386235	4168664	She is most familiar with our computer systems.	She is most familiar with or computer systems.	198030747	1477328364973	1477328365049	i	73
386235	4168664	She is most familiar with our computer systems.	She is most familiar with or computer systems.	198030752	1477328365557	1477328365633	t	84
386235	4168664	She is most familiar with our computer systems.	She is most familiar with or computer systems.	198030756	1477328365653	1477328365742	h	72
386235	4168664	She is most familiar with our computer systems.	She is most familiar with or computer systems.	198030758	1477328366326	1477328366441	 	32
386235	4168664	She is most familiar with our computer systems.	She is most familiar with or computer systems.	198030890	1477328367347	1477328367433	o	79
386235	4168664	She is most familiar with our computer systems.	She is most familiar with or computer systems.	198030893	1477328367628	1477328367698	u	85
386235	4168664	She is most familiar with our computer systems.	She is most familiar with or computer systems.	198030895	1477328367784	1477328367841	u	85
386235	4168664	She is most familiar with our computer systems.	She is most familiar with or computer systems.	198030898	1477328368421	1477328368519	BKSP	8
386235	4168664	She is most familiar with our computer systems.	She is most familiar with or computer systems.	198030901	1477328369096	1477328369205	 	32
386235	4168664	She is most familiar with our computer systems.	She is most familiar with or computer systems.	198030903	1477328369827	1477328369934	c	67
386235	4168664	She is most familiar with our computer systems.	She is most familiar with or computer systems.	198030970	1477328369954	1477328370024	o	79
386235	4168664	She is most familiar with our computer systems.	She is most familiar with or computer systems.	198030974	1477328370493	1477328370554	m	77
386235	4168664	She is most familiar with our computer systems.	She is most familiar with or computer systems.	198030978	1477328370944	1477328371025	p	80
386235	4168664	She is most familiar with our computer systems.	She is most familiar with or computer systems.	198030981	1477328371258	1477328371342	u	85
386235	4168664	She is most familiar with our computer systems.	She is most familiar with or computer systems.	198030983	1477328371676	1477328371756	t	84
386235	4168664	She is most familiar with our computer systems.	She is most familiar with or computer systems.	198031061	1477328371828	1477328371936	e	69
386235	4168664	She is most familiar with our computer systems.	She is most familiar with or computer systems.	198031066	1477328372043	1477328372129	r	82
386235	4168664	She is most familiar with our computer systems.	She is most familiar with or computer systems.	198031070	1477328372841	1477328372932	 	32
386235	4168664	She is most familiar with our computer systems.	She is most familiar with or computer systems.	198031075	1477328373653	1477328373751	s	83
386235	4168664	She is most familiar with our computer systems.	She is most familiar with or computer systems.	198031079	1477328373942	1477328374024	y	89
386235	4168664	She is most familiar with our computer systems.	She is most familiar with or computer systems.	198031205	1477328374200	1477328374314	s	83
386235	4168664	She is most familiar with our computer systems.	She is most familiar with or computer systems.	198031206	1477328374500	1477328374586	t	84
386235	4168664	She is most familiar with our computer systems.	She is most familiar with or computer systems.	198031207	1477328374782	1477328374873	e	69
386235	4168664	She is most familiar with our computer systems.	She is most familiar with or computer systems.	198031209	1477328376359	1477328376442	m	77
386235	4168664	She is most familiar with our computer systems.	She is most familiar with or computer systems.	198031210	1477328376761	1477328376843	s	83
386235	4168664	She is most familiar with our computer systems.	She is most familiar with or computer systems.	198031249	1477328377264	1477328377347	.	190
386235	4168687	Please stay on top of the security issue.	Please stay on top of the seurity issue.	198031573	1477328382008	1477328382512	CAPS_LOCK	20
386235	4168687	Please stay on top of the security issue.	Please stay on top of the seurity issue.	198031577	1477328382817	1477328382902	P	80
386235	4168687	Please stay on top of the security issue.	Please stay on top of the seurity issue.	198031581	1477328382985	1477328383102	CAPS_LOCK	20
386235	4168687	Please stay on top of the security issue.	Please stay on top of the seurity issue.	198031586	1477328383183	1477328383267	l	76
386235	4168687	Please stay on top of the security issue.	Please stay on top of the seurity issue.	198031937	1477328383811	1477328384279	e	69
386235	4168687	Please stay on top of the security issue.	Please stay on top of the seurity issue.	198031591	1477328383927	1477328384013	a	65
386235	4168687	Please stay on top of the security issue.	Please stay on top of the seurity issue.	198031595	1477328384034	1477328384112	s	83
386235	4168687	Please stay on top of the security issue.	Please stay on top of the seurity issue.	198031939	1477328386123	1477328386211	BKSP	8
386235	4168687	Please stay on top of the security issue.	Please stay on top of the seurity issue.	198031943	1477328386848	1477328386925	s	83
386235	4168687	Please stay on top of the security issue.	Please stay on top of the seurity issue.	198031947	1477328387050	1477328387141	e	69
386235	4168687	Please stay on top of the security issue.	Please stay on top of the seurity issue.	198031951	1477328387225	1477328387322	 	32
386235	4168687	Please stay on top of the security issue.	Please stay on top of the seurity issue.	198031958	1477328390385	1477328390447	s	83
386235	4168687	Please stay on top of the security issue.	Please stay on top of the seurity issue.	198032088	1477328390706	1477328392917	t	84
386235	4168687	Please stay on top of the security issue.	Please stay on top of the seurity issue.	198031966	1477328390792	1477328390879	a	65
386235	4168687	Please stay on top of the security issue.	Please stay on top of the seurity issue.	198032019	1477328391977	1477328392045	y	89
386235	4168687	Please stay on top of the security issue.	Please stay on top of the seurity issue.	198032021	1477328392123	1477328392221	 	32
386235	4168687	Please stay on top of the security issue.	Please stay on top of the seurity issue.	198032024	1477328392287	1477328392359	o	79
386235	4168687	Please stay on top of the security issue.	Please stay on top of the seurity issue.	198032026	1477328392538	1477328392614	n	78
386235	4168687	Please stay on top of the security issue.	Please stay on top of the seurity issue.	198032029	1477328392665	1477328392741	 	32
386235	4168687	Please stay on top of the security issue.	Please stay on top of the seurity issue.	198032092	1477328393044	1477328393125	h	72
386235	4168687	Please stay on top of the security issue.	Please stay on top of the seurity issue.	198032095	1477328393153	1477328393257	e	69
386235	4168687	Please stay on top of the security issue.	Please stay on top of the seurity issue.	198032096	1477328393305	1477328393361	 	32
386235	4168687	Please stay on top of the security issue.	Please stay on top of the seurity issue.	198032097	1477328393550	1477328393622	t	84
386235	4168687	Please stay on top of the security issue.	Please stay on top of the seurity issue.	198032100	1477328393776	1477328393838	i	73
386235	4168687	Please stay on top of the security issue.	Please stay on top of the seurity issue.	198032176	1477328394397	1477328394459	BKSP	8
386235	4168687	Please stay on top of the security issue.	Please stay on top of the seurity issue.	198032180	1477328394740	1477328394815	o	79
386235	4168687	Please stay on top of the security issue.	Please stay on top of the seurity issue.	198032184	1477328394932	1477328395012	p	80
386235	4168687	Please stay on top of the security issue.	Please stay on top of the seurity issue.	198032187	1477328395065	1477328395162	 	32
386235	4168687	Please stay on top of the security issue.	Please stay on top of the seurity issue.	198032189	1477328395267	1477328395338	o	79
386235	4168687	Please stay on top of the security issue.	Please stay on top of the seurity issue.	198032190	1477328395652	1477328395729	f	70
386235	4168687	Please stay on top of the security issue.	Please stay on top of the seurity issue.	198032226	1477328395772	1477328395844	 	32
386235	4168687	Please stay on top of the security issue.	Please stay on top of the seurity issue.	198032233	1477328396086	1477328396127	t	84
386235	4168687	Please stay on top of the security issue.	Please stay on top of the seurity issue.	198032238	1477328396259	1477328396353	h	72
386235	4168687	Please stay on top of the security issue.	Please stay on top of the seurity issue.	198032243	1477328396407	1477328396521	e	69
386235	4168687	Please stay on top of the security issue.	Please stay on top of the seurity issue.	198032246	1477328396525	1477328396638	 	32
386235	4168687	Please stay on top of the security issue.	Please stay on top of the seurity issue.	198032411	1477328397297	1477328397363	s	83
386235	4168687	Please stay on top of the security issue.	Please stay on top of the seurity issue.	198032416	1477328397547	1477328397623	e	69
386235	4168687	Please stay on top of the security issue.	Please stay on top of the seurity issue.	198032420	1477328398511	1477328398602	u	85
386235	4168687	Please stay on top of the security issue.	Please stay on top of the seurity issue.	198032424	1477328399086	1477328399161	r	82
386235	4168687	Please stay on top of the security issue.	Please stay on top of the seurity issue.	198032427	1477328399248	1477328399340	i	73
386235	4168687	Please stay on top of the security issue.	Please stay on top of the seurity issue.	198032450	1477328399369	1477328399447	t	84
386235	4168687	Please stay on top of the security issue.	Please stay on top of the seurity issue.	198032453	1477328399520	1477328399596	y	89
386235	4168687	Please stay on top of the security issue.	Please stay on top of the seurity issue.	198032457	1477328399767	1477328399882	 	32
386235	4168687	Please stay on top of the security issue.	Please stay on top of the seurity issue.	198032460	1477328400258	1477328400346	i	73
386235	4168687	Please stay on top of the security issue.	Please stay on top of the seurity issue.	198032464	1477328400753	1477328400856	s	83
386235	4168687	Please stay on top of the security issue.	Please stay on top of the seurity issue.	198033448	1477328400935	1477328401038	s	83
386235	4168687	Please stay on top of the security issue.	Please stay on top of the seurity issue.	198033454	1477328401162	1477328401296	u	85
386235	4168687	Please stay on top of the security issue.	Please stay on top of the seurity issue.	198033461	1477328401284	1477328401348	e	69
386235	4168687	Please stay on top of the security issue.	Please stay on top of the seurity issue.	198033466	1477328408037	1477328408198	 	32
386235	4168687	Please stay on top of the security issue.	Please stay on top of the seurity issue.	198033471	1477328414501	1477328414563	BKSP	8
386235	4168687	Please stay on top of the security issue.	Please stay on top of the seurity issue.	198033477	1477328414673	1477328414739	BKSP	8
386235	4168687	Please stay on top of the security issue.	Please stay on top of the seurity issue.	198033483	1477328414839	1477328414908	BKSP	8
386235	4168687	Please stay on top of the security issue.	Please stay on top of the seurity issue.	198033489	1477328416918	1477328417021	BKSP	8
386235	4168687	Please stay on top of the security issue.	Please stay on top of the seurity issue.	198033496	1477328423350	1477328423422	.	190
386235	4168726	Let me know if I can be of help.	Let me know if I can be of help.	198033856	1477328426215	1477328426354	CAPS_LOCK	20
386235	4168726	Let me know if I can be of help.	Let me know if I can be of help.	198033857	1477328426677	1477328426796	L	76
386235	4168726	Let me know if I can be of help.	Let me know if I can be of help.	198033858	1477328426768	1477328426876	CAPS_LOCK	20
386235	4168726	Let me know if I can be of help.	Let me know if I can be of help.	198033860	1477328427203	1477328427321	e	69
386235	4168726	Let me know if I can be of help.	Let me know if I can be of help.	198033864	1477328427333	1477328427360	t	84
386235	4168726	Let me know if I can be of help.	Let me know if I can be of help.	198033867	1477328427617	1477328427714	 	32
386235	4168726	Let me know if I can be of help.	Let me know if I can be of help.	198033871	1477328431940	1477328432016	m	77
386235	4168726	Let me know if I can be of help.	Let me know if I can be of help.	198033936	1477328432059	1477328432141	e	69
386235	4168726	Let me know if I can be of help.	Let me know if I can be of help.	198033937	1477328432153	1477328432241	 	32
386235	4168726	Let me know if I can be of help.	Let me know if I can be of help.	198033939	1477328432636	1477328432725	k	75
386235	4168726	Let me know if I can be of help.	Let me know if I can be of help.	198033940	1477328432918	1477328432990	n	78
386235	4168726	Let me know if I can be of help.	Let me know if I can be of help.	198033941	1477328433355	1477328433448	o	79
386235	4168726	Let me know if I can be of help.	Let me know if I can be of help.	198034043	1477328433497	1477328433570	w	87
386235	4168726	Let me know if I can be of help.	Let me know if I can be of help.	198034048	1477328433683	1477328433762	 	32
386235	4168726	Let me know if I can be of help.	Let me know if I can be of help.	198034055	1477328434537	1477328434623	i	73
386235	4168726	Let me know if I can be of help.	Let me know if I can be of help.	198034067	1477328435240	1477328435281	f	70
386235	4168726	Let me know if I can be of help.	Let me know if I can be of help.	198034076	1477328435370	1477328435452	 	32
386235	4168726	Let me know if I can be of help.	Let me know if I can be of help.	198034168	1477328435890	1477328436004	CAPS_LOCK	20
386235	4168726	Let me know if I can be of help.	Let me know if I can be of help.	198034171	1477328436198	1477328436272	I	73
386235	4168726	Let me know if I can be of help.	Let me know if I can be of help.	198034174	1477328436327	1477328436455	CAPS_LOCK	20
386235	4168726	Let me know if I can be of help.	Let me know if I can be of help.	198034175	1477328436712	1477328436805	 	32
386235	4168726	Let me know if I can be of help.	Let me know if I can be of help.	198034178	1477328437112	1477328437194	c	67
386235	4168726	Let me know if I can be of help.	Let me know if I can be of help.	198034180	1477328437292	1477328437379	a	65
386235	4168726	Let me know if I can be of help.	Let me know if I can be of help.	198034182	1477328437493	1477328437570	m	77
386235	4168726	Let me know if I can be of help.	Let me know if I can be of help.	198034292	1477328437847	1477328437914	 	32
386235	4168726	Let me know if I can be of help.	Let me know if I can be of help.	198034294	1477328438503	1477328438566	BKSP	8
386235	4168726	Let me know if I can be of help.	Let me know if I can be of help.	198034298	1477328438648	1477328438723	BKSP	8
386235	4168726	Let me know if I can be of help.	Let me know if I can be of help.	198034303	1477328439473	1477328439533	n	78
386235	4168726	Let me know if I can be of help.	Let me know if I can be of help.	198034306	1477328439674	1477328439739	 	32
386235	4168726	Let me know if I can be of help.	Let me know if I can be of help.	198034308	1477328440164	1477328440236	b	66
386235	4168726	Let me know if I can be of help.	Let me know if I can be of help.	198034310	1477328440247	1477328440322	e	69
386235	4168726	Let me know if I can be of help.	Let me know if I can be of help.	198034406	1477328440357	1477328440443	 	32
386235	4168726	Let me know if I can be of help.	Let me know if I can be of help.	198034408	1477328442034	1477328442095	o	79
386235	4168726	Let me know if I can be of help.	Let me know if I can be of help.	198034411	1477328442296	1477328442367	f	70
386235	4168726	Let me know if I can be of help.	Let me know if I can be of help.	198034414	1477328442379	1477328442456	 	32
386235	4168726	Let me know if I can be of help.	Let me know if I can be of help.	198034417	1477328442845	1477328442912	h	72
386235	4168726	Let me know if I can be of help.	Let me know if I can be of help.	198034479	1477328443195	1477328443276	e	69
386235	4168726	Let me know if I can be of help.	Let me know if I can be of help.	198034485	1477328443533	1477328443594	l	76
386235	4168726	Let me know if I can be of help.	Let me know if I can be of help.	198034493	1477328443965	1477328444037	p	80
386235	4168726	Let me know if I can be of help.	Let me know if I can be of help.	198034500	1477328444291	1477328444347	.	190
386235	4168744	She called and wants to come over this AM.	She called and wants to come over this AM.	198034868	1477328447040	1477328447146	CAPS_LOCK	20
386235	4168744	She called and wants to come over this AM.	She called and wants to come over this AM.	198034871	1477328449088	1477328449155	S	83
386235	4168744	She called and wants to come over this AM.	She called and wants to come over this AM.	198034873	1477328449324	1477328449402	H	72
386235	4168744	She called and wants to come over this AM.	She called and wants to come over this AM.	198034876	1477328450203	1477328450290	BKSP	8
386235	4168744	She called and wants to come over this AM.	She called and wants to come over this AM.	198034879	1477328450450	1477328450546	CAPS_LOCK	20
386235	4168744	She called and wants to come over this AM.	She called and wants to come over this AM.	198034882	1477328450948	1477328451048	e	69
386235	4168744	She called and wants to come over this AM.	She called and wants to come over this AM.	198034886	1477328451700	1477328451776	BKSP	8
386235	4168744	She called and wants to come over this AM.	She called and wants to come over this AM.	198034891	1477328452230	1477328452297	h	72
386235	4168744	She called and wants to come over this AM.	She called and wants to come over this AM.	198034896	1477328452349	1477328452431	e	69
386235	4168744	She called and wants to come over this AM.	She called and wants to come over this AM.	198034957	1477328452533	1477328452610	 	32
386235	4168744	She called and wants to come over this AM.	She called and wants to come over this AM.	198034959	1477328453728	1477328453790	c	67
386235	4168744	She called and wants to come over this AM.	She called and wants to come over this AM.	198034962	1477328453966	1477328454046	a	65
386235	4168744	She called and wants to come over this AM.	She called and wants to come over this AM.	198034965	1477328454176	1477328454251	l	76
386235	4168744	She called and wants to come over this AM.	She called and wants to come over this AM.	198034969	1477328454319	1477328454404	l	76
386235	4168744	She called and wants to come over this AM.	She called and wants to come over this AM.	198035077	1477328454473	1477328454565	e	69
386235	4168744	She called and wants to come over this AM.	She called and wants to come over this AM.	198035080	1477328454710	1477328454796	d	68
386235	4168744	She called and wants to come over this AM.	She called and wants to come over this AM.	198035083	1477328454861	1477328454944	 	32
386235	4168744	She called and wants to come over this AM.	She called and wants to come over this AM.	198035086	1477328456140	1477328456224	a	65
386235	4168744	She called and wants to come over this AM.	She called and wants to come over this AM.	198035088	1477328456485	1477328456562	n	78
386235	4168744	She called and wants to come over this AM.	She called and wants to come over this AM.	198035175	1477328456724	1477328456803	d	68
386235	4168744	She called and wants to come over this AM.	She called and wants to come over this AM.	198035177	1477328456873	1477328456959	 	32
386235	4168744	She called and wants to come over this AM.	She called and wants to come over this AM.	198035179	1477328457646	1477328457744	w	87
386235	4168744	She called and wants to come over this AM.	She called and wants to come over this AM.	198035835	1477328458232	1477328468514	a	65
386235	4168744	She called and wants to come over this AM.	She called and wants to come over this AM.	198035181	1477328458923	1477328458974	n	78
386235	4168744	She called and wants to come over this AM.	She called and wants to come over this AM.	198035267	1477328459267	1477328459343	t	84
386235	4168744	She called and wants to come over this AM.	She called and wants to come over this AM.	198035269	1477328459425	1477328459471	s	83
386235	4168744	She called and wants to come over this AM.	She called and wants to come over this AM.	198035272	1477328460263	1477328460350	 	32
386235	4168744	She called and wants to come over this AM.	She called and wants to come over this AM.	198035278	1477328460910	1477328461006	t	84
386235	4168744	She called and wants to come over this AM.	She called and wants to come over this AM.	198035284	1477328461065	1477328461141	o	79
386235	4168744	She called and wants to come over this AM.	She called and wants to come over this AM.	198035344	1477328461273	1477328461358	 	32
386235	4168744	She called and wants to come over this AM.	She called and wants to come over this AM.	198035346	1477328462047	1477328462118	c	67
386235	4168744	She called and wants to come over this AM.	She called and wants to come over this AM.	198035348	1477328462268	1477328462346	o	79
386235	4168744	She called and wants to come over this AM.	She called and wants to come over this AM.	198035351	1477328462522	1477328462608	m	77
386235	4168744	She called and wants to come over this AM.	She called and wants to come over this AM.	198035355	1477328462668	1477328462760	e	69
386235	4168744	She called and wants to come over this AM.	She called and wants to come over this AM.	198035474	1477328462835	1477328462887	 	32
386235	4168744	She called and wants to come over this AM.	She called and wants to come over this AM.	198035477	1477328464453	1477328464511	o	79
386235	4168744	She called and wants to come over this AM.	She called and wants to come over this AM.	198035480	1477328464949	1477328465025	v	86
386235	4168744	She called and wants to come over this AM.	She called and wants to come over this AM.	198035483	1477328465066	1477328465154	e	69
386235	4168744	She called and wants to come over this AM.	She called and wants to come over this AM.	198035486	1477328465270	1477328465356	r	82
386235	4168744	She called and wants to come over this AM.	She called and wants to come over this AM.	198035545	1477328465463	1477328465545	 	32
386235	4168744	She called and wants to come over this AM.	She called and wants to come over this AM.	198035549	1477328466016	1477328466082	t	84
386235	4168744	She called and wants to come over this AM.	She called and wants to come over this AM.	198035551	1477328466243	1477328466299	h	72
386235	4168744	She called and wants to come over this AM.	She called and wants to come over this AM.	198035553	1477328466498	1477328466595	i	73
386235	4168744	She called and wants to come over this AM.	She called and wants to come over this AM.	198035555	1477328466716	1477328466792	s	83
386235	4168744	She called and wants to come over this AM.	She called and wants to come over this AM.	198035833	1477328466882	1477328466964	 	32
386235	4168744	She called and wants to come over this AM.	She called and wants to come over this AM.	198035834	1477328467656	1477328467766	CAPS_LOCK	20
386235	4168744	She called and wants to come over this AM.	She called and wants to come over this AM.	198035836	1477328468602	1477328468677	M	77
386235	4168744	She called and wants to come over this AM.	She called and wants to come over this AM.	198035838	1477328468879	1477328468951	.	190
386235	4168744	She called and wants to come over this AM.	She called and wants to come over this AM.	198035841	1477328470526	1477328470581	BKSP	8
386235	4168744	She called and wants to come over this AM.	She called and wants to come over this AM.	198035843	1477328470660	1477328470749	BKSP	8
386235	4168744	She called and wants to come over this AM.	She called and wants to come over this AM.	198035846	1477328470826	1477328470893	BKSP	8
386235	4168744	She called and wants to come over this AM.	She called and wants to come over this AM.	198035850	1477328471469	1477328471586	 	32
386235	4168744	She called and wants to come over this AM.	She called and wants to come over this AM.	198035852	1477328472159	1477328472248	A	65
386235	4168744	She called and wants to come over this AM.	She called and wants to come over this AM.	198035875	1477328472478	1477328472549	M	77
386235	4168744	She called and wants to come over this AM.	She called and wants to come over this AM.	198035877	1477328472852	1477328472918	.	190
386235	4168770	But he added the list given was still incomplete.	But he added the list given as still incompelete.	198036083	1477328476340	1477328476411	B	66
386235	4168770	But he added the list given was still incomplete.	But he added the list given as still incompelete.	198036085	1477328476464	1477328476602	CAPS_LOCK	20
386235	4168770	But he added the list given was still incomplete.	But he added the list given as still incompelete.	198036088	1477328476957	1477328477054	u	85
386235	4168770	But he added the list given was still incomplete.	But he added the list given as still incompelete.	198036091	1477328477255	1477328477323	t	84
386235	4168770	But he added the list given was still incomplete.	But he added the list given as still incompelete.	198036094	1477328477481	1477328477568	 	32
386235	4168770	But he added the list given was still incomplete.	But he added the list given as still incompelete.	198036096	1477328478326	1477328478398	h	72
386235	4168770	But he added the list given was still incomplete.	But he added the list given as still incompelete.	198036119	1477328478450	1477328478530	e	69
386235	4168770	But he added the list given was still incomplete.	But he added the list given as still incompelete.	198036123	1477328478556	1477328478638	 	32
386235	4168770	But he added the list given was still incomplete.	But he added the list given as still incompelete.	198036430	1477328478779	1477328486578	a	65
386235	4168770	But he added the list given was still incomplete.	But he added the list given as still incompelete.	198036126	1477328479032	1477328479117	d	68
386235	4168770	But he added the list given was still incomplete.	But he added the list given as still incompelete.	198036129	1477328479203	1477328479264	d	68
386235	4168770	But he added the list given was still incomplete.	But he added the list given as still incompelete.	198036184	1477328479413	1477328479491	e	69
386235	4168770	But he added the list given was still incomplete.	But he added the list given as still incompelete.	198036186	1477328479622	1477328479699	d	68
386235	4168770	But he added the list given was still incomplete.	But he added the list given as still incompelete.	198036189	1477328479852	1477328479927	 	32
386235	4168770	But he added the list given was still incomplete.	But he added the list given as still incompelete.	198036193	1477328480331	1477328480396	t	84
386235	4168770	But he added the list given was still incomplete.	But he added the list given as still incompelete.	198036196	1477328480529	1477328480624	h	72
386235	4168770	But he added the list given was still incomplete.	But he added the list given as still incompelete.	198036282	1477328480664	1477328480740	e	69
386235	4168770	But he added the list given was still incomplete.	But he added the list given as still incompelete.	198036284	1477328480796	1477328480888	 	32
386235	4168770	But he added the list given was still incomplete.	But he added the list given as still incompelete.	198036285	1477328481508	1477328481565	l	76
386235	4168770	But he added the list given was still incomplete.	But he added the list given as still incompelete.	198036287	1477328481710	1477328481789	i	73
386235	4168770	But he added the list given was still incomplete.	But he added the list given as still incompelete.	198036289	1477328482239	1477328482311	s	83
386235	4168770	But he added the list given was still incomplete.	But he added the list given as still incompelete.	198036367	1477328482379	1477328482454	t	84
386235	4168770	But he added the list given was still incomplete.	But he added the list given as still incompelete.	198036368	1477328482647	1477328482733	 	32
386235	4168770	But he added the list given was still incomplete.	But he added the list given as still incompelete.	198036369	1477328484067	1477328484156	g	71
386235	4168770	But he added the list given was still incomplete.	But he added the list given as still incompelete.	198036370	1477328484412	1477328484504	i	73
386235	4168770	But he added the list given was still incomplete.	But he added the list given as still incompelete.	198036372	1477328484886	1477328484962	v	86
386235	4168770	But he added the list given was still incomplete.	But he added the list given as still incompelete.	198036412	1477328485196	1477328485259	e	69
386235	4168770	But he added the list given was still incomplete.	But he added the list given as still incompelete.	198036416	1477328485392	1477328485471	n	78
386235	4168770	But he added the list given was still incomplete.	But he added the list given as still incompelete.	198036420	1477328485604	1477328485686	 	32
386235	4168770	But he added the list given was still incomplete.	But he added the list given as still incompelete.	198036425	1477328486261	1477328486337	w	87
386235	4168770	But he added the list given was still incomplete.	But he added the list given as still incompelete.	198036435	1477328486710	1477328486796	s	83
386235	4168770	But he added the list given was still incomplete.	But he added the list given as still incompelete.	198036493	1477328486871	1477328486957	 	32
386235	4168770	But he added the list given was still incomplete.	But he added the list given as still incompelete.	198036494	1477328488025	1477328488091	s	83
386235	4168770	But he added the list given was still incomplete.	But he added the list given as still incompelete.	198036498	1477328488469	1477328488548	t	84
386235	4168770	But he added the list given was still incomplete.	But he added the list given as still incompelete.	198036503	1477328488667	1477328488735	i	73
386235	4168770	But he added the list given was still incomplete.	But he added the list given as still incompelete.	198036507	1477328488870	1477328488935	l	76
386235	4168770	But he added the list given was still incomplete.	But he added the list given as still incompelete.	198036549	1477328488990	1477328489078	l	76
386235	4168770	But he added the list given was still incomplete.	But he added the list given as still incompelete.	198036555	1477328489135	1477328489224	 	32
386235	4168770	But he added the list given was still incomplete.	But he added the list given as still incompelete.	198036560	1477328489492	1477328489568	i	73
386235	4168770	But he added the list given was still incomplete.	But he added the list given as still incompelete.	198036566	1477328489751	1477328489839	n	78
386235	4168770	But he added the list given was still incomplete.	But he added the list given as still incompelete.	198036574	1477328490202	1477328490289	c	67
386235	4168770	But he added the list given was still incomplete.	But he added the list given as still incompelete.	198036744	1477328490473	1477328490538	o	79
386235	4168770	But he added the list given was still incomplete.	But he added the list given as still incompelete.	198036746	1477328491047	1477328491130	p	80
386235	4168770	But he added the list given was still incomplete.	But he added the list given as still incompelete.	198036749	1477328492953	1477328493041	BKSP	8
386235	4168770	But he added the list given was still incomplete.	But he added the list given as still incompelete.	198036754	1477328493373	1477328493459	m	77
386235	4168770	But he added the list given was still incomplete.	But he added the list given as still incompelete.	198036758	1477328493821	1477328493908	p	80
386235	4168770	But he added the list given was still incomplete.	But he added the list given as still incompelete.	198036763	1477328494195	1477328494273	e	69
386235	4168770	But he added the list given was still incomplete.	But he added the list given as still incompelete.	198036847	1477328494422	1477328494483	l	76
386235	4168770	But he added the list given was still incomplete.	But he added the list given as still incompelete.	198036849	1477328494565	1477328494637	e	69
386235	4168770	But he added the list given was still incomplete.	But he added the list given as still incompelete.	198036853	1477328495233	1477328495320	t	84
386235	4168770	But he added the list given was still incomplete.	But he added the list given as still incompelete.	198036857	1477328495346	1477328495381	e	69
386235	4168770	But he added the list given was still incomplete.	But he added the list given as still incompelete.	198036862	1477328496405	1477328496497	/	191
386235	4168770	But he added the list given was still incomplete.	But he added the list given as still incompelete.	198036931	1477328497165	1477328497252	BKSP	8
386235	4168770	But he added the list given was still incomplete.	But he added the list given as still incompelete.	198036933	1477328497631	1477328497776	.	190
386235	4168791	Giants, but he didn't finish it.	Giants,but he didn't finish it.	198037158	1477328501090	1477328501193	CAPS_LOCK	20
386235	4168791	Giants, but he didn't finish it.	Giants,but he didn't finish it.	198037161	1477328501783	1477328501887	G	71
386235	4168791	Giants, but he didn't finish it.	Giants,but he didn't finish it.	198037165	1477328501940	1477328502052	CAPS_LOCK	20
386235	4168791	Giants, but he didn't finish it.	Giants,but he didn't finish it.	198037169	1477328502704	1477328502811	i	73
386235	4168791	Giants, but he didn't finish it.	Giants,but he didn't finish it.	198037173	1477328503011	1477328503124	a	65
386235	4168791	Giants, but he didn't finish it.	Giants,but he didn't finish it.	198037177	1477328503381	1477328503488	n	78
386235	4168791	Giants, but he didn't finish it.	Giants,but he didn't finish it.	198037181	1477328503832	1477328503936	t	84
386235	4168791	Giants, but he didn't finish it.	Giants,but he didn't finish it.	198037441	1477328504223	1477328504331	s	83
386235	4168791	Giants, but he didn't finish it.	Giants,but he didn't finish it.	198037442	1477328506846	1477328506939	,	188
386235	4168791	Giants, but he didn't finish it.	Giants,but he didn't finish it.	198037443	1477328508122	1477328508205	b	66
386235	4168791	Giants, but he didn't finish it.	Giants,but he didn't finish it.	198037444	1477328508603	1477328508696	u	85
386235	4168791	Giants, but he didn't finish it.	Giants,but he didn't finish it.	198037445	1477328508931	1477328509025	t	84
386235	4168791	Giants, but he didn't finish it.	Giants,but he didn't finish it.	198037520	1477328509305	1477328509381	 	32
386235	4168791	Giants, but he didn't finish it.	Giants,but he didn't finish it.	198037524	1477328510116	1477328510192	h	72
386235	4168791	Giants, but he didn't finish it.	Giants,but he didn't finish it.	198037529	1477328510271	1477328510358	e	69
386235	4168791	Giants, but he didn't finish it.	Giants,but he didn't finish it.	198037533	1477328510382	1477328510465	 	32
386235	4168791	Giants, but he didn't finish it.	Giants,but he didn't finish it.	198037536	1477328510636	1477328510713	d	68
386235	4168791	Giants, but he didn't finish it.	Giants,but he didn't finish it.	198037677	1477328511016	1477328511113	i	73
386235	4168791	Giants, but he didn't finish it.	Giants,but he didn't finish it.	198037681	1477328511207	1477328511304	d	68
386235	4168791	Giants, but he didn't finish it.	Giants,but he didn't finish it.	198037685	1477328511551	1477328511617	n	78
386235	4168791	Giants, but he didn't finish it.	Giants,but he didn't finish it.	198037687	1477328512453	1477328512535	'	222
386235	4168791	Giants, but he didn't finish it.	Giants,but he didn't finish it.	198037689	1477328513224	1477328513322	n	78
386235	4168791	Giants, but he didn't finish it.	Giants,but he didn't finish it.	198037838	1477328515539	1477328515621	BKSP	8
386235	4168791	Giants, but he didn't finish it.	Giants,but he didn't finish it.	198037840	1477328515754	1477328515878	t	84
386235	4168791	Giants, but he didn't finish it.	Giants,but he didn't finish it.	198037842	1477328516267	1477328516354	 	32
386235	4168791	Giants, but he didn't finish it.	Giants,but he didn't finish it.	198037844	1477328517061	1477328517136	f	70
386235	4168791	Giants, but he didn't finish it.	Giants,but he didn't finish it.	198037848	1477328517400	1477328517507	i	73
386235	4168791	Giants, but he didn't finish it.	Giants,but he didn't finish it.	198037853	1477328518028	1477328518100	n	78
386235	4168791	Giants, but he didn't finish it.	Giants,but he didn't finish it.	198037897	1477328518358	1477328518447	i	73
386235	4168791	Giants, but he didn't finish it.	Giants,but he didn't finish it.	198037901	1477328519272	1477328519349	s	83
386235	4168791	Giants, but he didn't finish it.	Giants,but he didn't finish it.	198037905	1477328519392	1477328519463	h	72
386235	4168791	Giants, but he didn't finish it.	Giants,but he didn't finish it.	198037909	1477328519589	1477328519671	 	32
386235	4168791	Giants, but he didn't finish it.	Giants,but he didn't finish it.	198037911	1477328519825	1477328519902	i	73
386235	4168791	Giants, but he didn't finish it.	Giants,but he didn't finish it.	198037926	1477328519934	1477328520017	t	84
386235	4168791	Giants, but he didn't finish it.	Giants,but he didn't finish it.	198037929	1477328520305	1477328520373	.	190
386235	4168812	Tonight is my anniversary.	Tonight is my anniversary.	198038085	1477328523191	1477328523392	CAPS_LOCK	20
386235	4168812	Tonight is my anniversary.	Tonight is my anniversary.	198038089	1477328523615	1477328523697	T	84
386235	4168812	Tonight is my anniversary.	Tonight is my anniversary.	198038091	1477328523791	1477328523950	CAPS_LOCK	20
386235	4168812	Tonight is my anniversary.	Tonight is my anniversary.	198038093	1477328524406	1477328524495	o	79
386235	4168812	Tonight is my anniversary.	Tonight is my anniversary.	198038095	1477328524836	1477328524909	n	78
386235	4168812	Tonight is my anniversary.	Tonight is my anniversary.	198038099	1477328525139	1477328525221	i	73
386235	4168812	Tonight is my anniversary.	Tonight is my anniversary.	198038105	1477328525447	1477328525519	g	71
386235	4168812	Tonight is my anniversary.	Tonight is my anniversary.	198038164	1477328525640	1477328525711	h	72
386235	4168812	Tonight is my anniversary.	Tonight is my anniversary.	198038167	1477328525851	1477328525922	t	84
386235	4168812	Tonight is my anniversary.	Tonight is my anniversary.	198038170	1477328526751	1477328526843	 	32
386235	4168812	Tonight is my anniversary.	Tonight is my anniversary.	198038173	1477328527367	1477328527449	i	73
386235	4168812	Tonight is my anniversary.	Tonight is my anniversary.	198038176	1477328527738	1477328527824	s	83
386235	4168812	Tonight is my anniversary.	Tonight is my anniversary.	198038228	1477328527874	1477328527942	 	32
386235	4168812	Tonight is my anniversary.	Tonight is my anniversary.	198038231	1477328528291	1477328528363	m	77
386235	4168812	Tonight is my anniversary.	Tonight is my anniversary.	198038233	1477328528545	1477328528617	y	89
386235	4168812	Tonight is my anniversary.	Tonight is my anniversary.	198038237	1477328528801	1477328528883	 	32
386235	4168812	Tonight is my anniversary.	Tonight is my anniversary.	198038241	1477328529445	1477328529569	a	65
386235	4168812	Tonight is my anniversary.	Tonight is my anniversary.	198038314	1477328529646	1477328529727	n	78
386235	4168812	Tonight is my anniversary.	Tonight is my anniversary.	198038316	1477328529865	1477328529922	n	78
386235	4168812	Tonight is my anniversary.	Tonight is my anniversary.	198038318	1477328530507	1477328530583	e	69
386235	4168812	Tonight is my anniversary.	Tonight is my anniversary.	198038321	1477328530907	1477328530981	v	86
386235	4168812	Tonight is my anniversary.	Tonight is my anniversary.	198038323	1477328531081	1477328531157	e	69
386235	4168812	Tonight is my anniversary.	Tonight is my anniversary.	198038500	1477328531303	1477328531379	r	82
386235	4168812	Tonight is my anniversary.	Tonight is my anniversary.	198038505	1477328533013	1477328533121	BKSP	8
386235	4168812	Tonight is my anniversary.	Tonight is my anniversary.	198038507	1477328533209	1477328533333	BKSP	8
386235	4168812	Tonight is my anniversary.	Tonight is my anniversary.	198038510	1477328533377	1477328533474	BKSP	8
386235	4168812	Tonight is my anniversary.	Tonight is my anniversary.	198038513	1477328534348	1477328534415	i	73
386235	4168812	Tonight is my anniversary.	Tonight is my anniversary.	198038516	1477328535146	1477328535225	v	86
386235	4168812	Tonight is my anniversary.	Tonight is my anniversary.	198038518	1477328535362	1477328535458	e	69
386235	4168812	Tonight is my anniversary.	Tonight is my anniversary.	198038519	1477328535578	1477328535661	r	82
386235	4168812	Tonight is my anniversary.	Tonight is my anniversary.	198038620	1477328537564	1477328537620	s	83
386235	4168812	Tonight is my anniversary.	Tonight is my anniversary.	198038624	1477328537757	1477328537877	a	65
386235	4168812	Tonight is my anniversary.	Tonight is my anniversary.	198038628	1477328538124	1477328538202	r	82
386235	4168812	Tonight is my anniversary.	Tonight is my anniversary.	198038630	1477328538258	1477328538350	y	89
386235	4168812	Tonight is my anniversary.	Tonight is my anniversary.	198038633	1477328539068	1477328539150	.	190
386235	4168834	I just tracked down Steve.	I just tracked down steve.	198038957	1477328543988	1477328544107	CAPS_LOCK	20
386235	4168834	I just tracked down Steve.	I just tracked down steve.	198038959	1477328544293	1477328544387	I	73
386235	4168834	I just tracked down Steve.	I just tracked down steve.	198038961	1477328544424	1477328544547	CAPS_LOCK	20
386235	4168834	I just tracked down Steve.	I just tracked down steve.	198038963	1477328544630	1477328544713	 	32
386235	4168834	I just tracked down Steve.	I just tracked down steve.	198038965	1477328545111	1477328545172	j	74
386235	4168834	I just tracked down Steve.	I just tracked down steve.	198038968	1477328545733	1477328545824	u	85
386235	4168834	I just tracked down Steve.	I just tracked down steve.	198038971	1477328546319	1477328546395	s	83
386235	4168834	I just tracked down Steve.	I just tracked down steve.	198039050	1477328546498	1477328546570	t	84
386235	4168834	I just tracked down Steve.	I just tracked down steve.	198039051	1477328546749	1477328546825	 	32
386235	4168834	I just tracked down Steve.	I just tracked down steve.	198039052	1477328547053	1477328547124	t	84
386235	4168834	I just tracked down Steve.	I just tracked down steve.	198039054	1477328547279	1477328547354	r	82
386235	4168834	I just tracked down Steve.	I just tracked down steve.	198039056	1477328547796	1477328547893	a	65
386235	4168834	I just tracked down Steve.	I just tracked down steve.	198039136	1477328548502	1477328548574	c	67
386235	4168834	I just tracked down Steve.	I just tracked down steve.	198039139	1477328548648	1477328548744	k	75
386235	4168834	I just tracked down Steve.	I just tracked down steve.	198039142	1477328549189	1477328549287	e	69
386235	4168834	I just tracked down Steve.	I just tracked down steve.	198039144	1477328549413	1477328549511	d	68
386235	4168834	I just tracked down Steve.	I just tracked down steve.	198039147	1477328549693	1477328549779	 	32
386235	4168834	I just tracked down Steve.	I just tracked down steve.	198039200	1477328550855	1477328550947	d	68
386235	4168834	I just tracked down Steve.	I just tracked down steve.	198039202	1477328551281	1477328551378	o	79
386235	4168834	I just tracked down Steve.	I just tracked down steve.	198039205	1477328551719	1477328551802	w	87
386235	4168834	I just tracked down Steve.	I just tracked down steve.	198039207	1477328551857	1477328551934	n	78
386235	4168834	I just tracked down Steve.	I just tracked down steve.	198039209	1477328552102	1477328552187	 	32
386235	4168834	I just tracked down Steve.	I just tracked down steve.	198039292	1477328553058	1477328553150	s	83
386235	4168834	I just tracked down Steve.	I just tracked down steve.	198039295	1477328553284	1477328553351	t	84
386235	4168834	I just tracked down Steve.	I just tracked down steve.	198039297	1477328553460	1477328553552	e	69
386235	4168834	I just tracked down Steve.	I just tracked down steve.	198039300	1477328553566	1477328553664	v	86
386235	4168834	I just tracked down Steve.	I just tracked down steve.	198039302	1477328553699	1477328553785	e	69
386235	4168834	I just tracked down Steve.	I just tracked down steve.	198039341	1477328554622	1477328554693	.	190
386235	4168847	The informal costs have to disappear.	The informal costa have to disappear.	198039563	1477328557902	1477328558020	CAPS_LOCK	20
386235	4168847	The informal costs have to disappear.	The informal costa have to disappear.	198039564	1477328558494	1477328558581	T	84
386235	4168847	The informal costs have to disappear.	The informal costa have to disappear.	198039565	1477328558656	1477328558765	CAPS_LOCK	20
386235	4168847	The informal costs have to disappear.	The informal costa have to disappear.	198039567	1477328558859	1477328558941	h	72
386235	4168847	The informal costs have to disappear.	The informal costa have to disappear.	198039569	1477328559204	1477328559314	e	69
386235	4168847	The informal costs have to disappear.	The informal costa have to disappear.	198039571	1477328559299	1477328559379	 	32
386235	4168847	The informal costs have to disappear.	The informal costa have to disappear.	198039573	1477328559796	1477328559879	i	73
386235	4168847	The informal costs have to disappear.	The informal costa have to disappear.	198039617	1477328560070	1477328560158	n	78
386235	4168847	The informal costs have to disappear.	The informal costa have to disappear.	198039618	1477328560443	1477328560535	f	70
386235	4168847	The informal costs have to disappear.	The informal costa have to disappear.	198039619	1477328560696	1477328560780	o	79
386235	4168847	The informal costs have to disappear.	The informal costa have to disappear.	198039620	1477328560987	1477328561059	r	82
386235	4168847	The informal costs have to disappear.	The informal costa have to disappear.	198039621	1477328561472	1477328561542	m	77
386235	4168847	The informal costs have to disappear.	The informal costa have to disappear.	198039698	1477328561881	1477328561983	a	65
386235	4168847	The informal costs have to disappear.	The informal costa have to disappear.	198039701	1477328562002	1477328562087	l	76
386235	4168847	The informal costs have to disappear.	The informal costa have to disappear.	198039703	1477328562458	1477328562534	 	32
386235	4168847	The informal costs have to disappear.	The informal costa have to disappear.	198039707	1477328563194	1477328563261	c	67
386235	4168847	The informal costs have to disappear.	The informal costa have to disappear.	198039712	1477328563506	1477328563597	o	79
386235	4168847	The informal costs have to disappear.	The informal costa have to disappear.	198039859	1477328564128	1477328564224	t	84
386235	4168847	The informal costs have to disappear.	The informal costa have to disappear.	198039861	1477328564267	1477328564343	s	83
386235	4168847	The informal costs have to disappear.	The informal costa have to disappear.	198039864	1477328565563	1477328565629	BKSP	8
386235	4168847	The informal costs have to disappear.	The informal costa have to disappear.	198039865	1477328566193	1477328566260	s	83
386235	4168847	The informal costs have to disappear.	The informal costa have to disappear.	198039868	1477328566442	1477328566522	t	84
386235	4168847	The informal costs have to disappear.	The informal costa have to disappear.	198039870	1477328566712	1477328566843	a	65
386235	4168847	The informal costs have to disappear.	The informal costa have to disappear.	198039967	1477328567260	1477328567336	 	32
386235	4168847	The informal costs have to disappear.	The informal costa have to disappear.	198039969	1477328568836	1477328568913	h	72
386235	4168847	The informal costs have to disappear.	The informal costa have to disappear.	198039972	1477328569158	1477328569288	a	65
386235	4168847	The informal costs have to disappear.	The informal costa have to disappear.	198039976	1477328569507	1477328569588	v	86
386235	4168847	The informal costs have to disappear.	The informal costa have to disappear.	198039978	1477328569668	1477328569776	e	69
386235	4168847	The informal costs have to disappear.	The informal costa have to disappear.	198040128	1477328569793	1477328569860	 	32
386235	4168847	The informal costs have to disappear.	The informal costa have to disappear.	198040130	1477328570577	1477328570680	t	84
386235	4168847	The informal costs have to disappear.	The informal costa have to disappear.	198040132	1477328570840	1477328570938	o	79
386235	4168847	The informal costs have to disappear.	The informal costa have to disappear.	198040134	1477328571330	1477328571448	 	32
386235	4168847	The informal costs have to disappear.	The informal costa have to disappear.	198040136	1477328573844	1477328573952	d	68
386235	4168847	The informal costs have to disappear.	The informal costa have to disappear.	198040176	1477328574258	1477328574361	i	73
386235	4168847	The informal costs have to disappear.	The informal costa have to disappear.	198040177	1477328574492	1477328574579	s	83
386235	4168847	The informal costs have to disappear.	The informal costa have to disappear.	198040178	1477328574823	1477328574979	a	65
386235	4168847	The informal costs have to disappear.	The informal costa have to disappear.	198040179	1477328575508	1477328575537	p	80
386235	4168847	The informal costs have to disappear.	The informal costa have to disappear.	198040180	1477328575721	1477328575823	p	80
386235	4168847	The informal costs have to disappear.	The informal costa have to disappear.	198040216	1477328575941	1477328576033	e	69
386235	4168847	The informal costs have to disappear.	The informal costa have to disappear.	198040217	1477328576252	1477328576391	a	65
386235	4168847	The informal costs have to disappear.	The informal costa have to disappear.	198040218	1477328576527	1477328576641	r	82
386235	4168847	The informal costs have to disappear.	The informal costa have to disappear.	198040219	1477328577659	1477328577778	.	190
