PARTICIPANT_ID	TEST_SECTION_ID	SENTENCE	USER_INPUT	KEYSTROKE_ID	PRESS_TIME	RELEASE_TIME	LETTER	KEYCODE
389476	4203544	Amy will be here to cover.	Amy will be here to cover.	199685876	1477360954567	1477360955142	SHIFT	16
389476	4203544	Amy will be here to cover.	Amy will be here to cover.	199685878	1477360955045	1477360955176	A	65
389476	4203544	Amy will be here to cover.	Amy will be here to cover.	199685880	1477360955275	1477360955383	m	77
389476	4203544	Amy will be here to cover.	Amy will be here to cover.	199685882	1477360955420	1477360955506	y	89
389476	4203544	Amy will be here to cover.	Amy will be here to cover.	199685885	1477360955542	1477360955631	 	32
389476	4203544	Amy will be here to cover.	Amy will be here to cover.	199685889	1477360955665	1477360955783	w	87
389476	4203544	Amy will be here to cover.	Amy will be here to cover.	199685940	1477360955771	1477360955842	i	73
389476	4203544	Amy will be here to cover.	Amy will be here to cover.	199685942	1477360955952	1477360956015	l	76
389476	4203544	Amy will be here to cover.	Amy will be here to cover.	199685946	1477360956069	1477360956135	l	76
389476	4203544	Amy will be here to cover.	Amy will be here to cover.	199685950	1477360956220	1477360956277	 	32
389476	4203544	Amy will be here to cover.	Amy will be here to cover.	199685953	1477360956382	1477360956469	b	66
389476	4203544	Amy will be here to cover.	Amy will be here to cover.	199685957	1477360956564	1477360956662	e	69
389476	4203544	Amy will be here to cover.	Amy will be here to cover.	199685972	1477360956596	1477360956671	 	32
389476	4203544	Amy will be here to cover.	Amy will be here to cover.	199685974	1477360956780	1477360956858	h	72
389476	4203544	Amy will be here to cover.	Amy will be here to cover.	199685977	1477360956879	1477360956998	e	69
389476	4203544	Amy will be here to cover.	Amy will be here to cover.	199685979	1477360956970	1477360957091	r	82
389476	4203544	Amy will be here to cover.	Amy will be here to cover.	199685981	1477360957069	1477360957174	e	69
389476	4203544	Amy will be here to cover.	Amy will be here to cover.	199686005	1477360957162	1477360957253	 	32
389476	4203544	Amy will be here to cover.	Amy will be here to cover.	199686007	1477360957288	1477360957384	t	84
389476	4203544	Amy will be here to cover.	Amy will be here to cover.	199686010	1477360957393	1477360957485	o	79
389476	4203544	Amy will be here to cover.	Amy will be here to cover.	199686013	1477360957562	1477360957647	 	32
389476	4203544	Amy will be here to cover.	Amy will be here to cover.	199686016	1477360957655	1477360957784	c	67
389476	4203544	Amy will be here to cover.	Amy will be here to cover.	199686088	1477360957760	1477360957844	o	79
389476	4203544	Amy will be here to cover.	Amy will be here to cover.	199686091	1477360957891	1477360957963	v	86
389476	4203544	Amy will be here to cover.	Amy will be here to cover.	199686094	1477360958066	1477360958209	e	69
389476	4203544	Amy will be here to cover.	Amy will be here to cover.	199686096	1477360958163	1477360958289	r	82
389476	4203544	Amy will be here to cover.	Amy will be here to cover.	199686099	1477360958257	1477360958379	.	190
389476	4203555	I doubt that it is forecasted.	I doubt that it is forecasted.	199686300	1477360964425	1477360964771	SHIFT	16
389476	4203555	I doubt that it is forecasted.	I doubt that it is forecasted.	199686298	1477360964677	1477360964755	I	73
389476	4203555	I doubt that it is forecasted.	I doubt that it is forecasted.	199686301	1477360964863	1477360964959	 	32
389476	4203555	I doubt that it is forecasted.	I doubt that it is forecasted.	199686305	1477360965157	1477360965252	d	68
389476	4203555	I doubt that it is forecasted.	I doubt that it is forecasted.	199686310	1477360965271	1477360965383	o	79
389476	4203555	I doubt that it is forecasted.	I doubt that it is forecasted.	199686342	1477360965336	1477360965424	u	85
389476	4203555	I doubt that it is forecasted.	I doubt that it is forecasted.	199686346	1477360965559	1477360965641	b	66
389476	4203555	I doubt that it is forecasted.	I doubt that it is forecasted.	199686354	1477360965890	1477360965986	t	84
389476	4203555	I doubt that it is forecasted.	I doubt that it is forecasted.	199686360	1477360966065	1477360966177	 	32
389476	4203555	I doubt that it is forecasted.	I doubt that it is forecasted.	199686364	1477360966224	1477360966330	t	84
389476	4203555	I doubt that it is forecasted.	I doubt that it is forecasted.	199686386	1477360966319	1477360966401	h	72
389476	4203555	I doubt that it is forecasted.	I doubt that it is forecasted.	199686392	1477360966489	1477360966582	a	65
389476	4203555	I doubt that it is forecasted.	I doubt that it is forecasted.	199686397	1477360966544	1477360966613	t	84
389476	4203555	I doubt that it is forecasted.	I doubt that it is forecasted.	199686402	1477360966731	1477360966797	 	32
389476	4203555	I doubt that it is forecasted.	I doubt that it is forecasted.	199686406	1477360966870	1477360966966	i	73
389476	4203555	I doubt that it is forecasted.	I doubt that it is forecasted.	199686410	1477360966992	1477360967086	t	84
389476	4203555	I doubt that it is forecasted.	I doubt that it is forecasted.	199686448	1477360967135	1477360967210	 	32
389476	4203555	I doubt that it is forecasted.	I doubt that it is forecasted.	199686449	1477360967324	1477360967426	i	73
389476	4203555	I doubt that it is forecasted.	I doubt that it is forecasted.	199686450	1477360967494	1477360967579	s	83
389476	4203555	I doubt that it is forecasted.	I doubt that it is forecasted.	199686452	1477360967678	1477360967773	 	32
389476	4203555	I doubt that it is forecasted.	I doubt that it is forecasted.	199686454	1477360967929	1477360968025	f	70
389476	4203555	I doubt that it is forecasted.	I doubt that it is forecasted.	199686522	1477360968054	1477360968138	o	79
389476	4203555	I doubt that it is forecasted.	I doubt that it is forecasted.	199686524	1477360968226	1477360968318	r	82
389476	4203555	I doubt that it is forecasted.	I doubt that it is forecasted.	199686528	1477360968895	1477360969012	e	69
389476	4203555	I doubt that it is forecasted.	I doubt that it is forecasted.	199686530	1477360969321	1477360969444	BKSP	8
389476	4203555	I doubt that it is forecasted.	I doubt that it is forecasted.	199686533	1477360969779	1477360969915	e	69
389476	4203555	I doubt that it is forecasted.	I doubt that it is forecasted.	199686537	1477360970014	1477360970117	c	67
389476	4203555	I doubt that it is forecasted.	I doubt that it is forecasted.	199686592	1477360970201	1477360970317	a	65
389476	4203555	I doubt that it is forecasted.	I doubt that it is forecasted.	199686596	1477360970275	1477360970377	s	83
389476	4203555	I doubt that it is forecasted.	I doubt that it is forecasted.	199686602	1477360970620	1477360970809	e	69
389476	4203555	I doubt that it is forecasted.	I doubt that it is forecasted.	199686605	1477360970723	1477360970866	d	68
389476	4203555	I doubt that it is forecasted.	I doubt that it is forecasted.	199686607	1477360971726	1477360971814	BKSP	8
389476	4203555	I doubt that it is forecasted.	I doubt that it is forecasted.	199686609	1477360971887	1477360971954	BKSP	8
389476	4203555	I doubt that it is forecasted.	I doubt that it is forecasted.	199686611	1477360972398	1477360972480	t	84
389476	4203555	I doubt that it is forecasted.	I doubt that it is forecasted.	199686620	1477360972562	1477360972747	e	69
389476	4203555	I doubt that it is forecasted.	I doubt that it is forecasted.	199686621	1477360972666	1477360972829	d	68
389476	4203565	Tried to call but couldn't reach you.	Tried to call but could'nt reach you.	199686996	1477360972814	1477360981843	.	190
389476	4203565	Tried to call but couldn't reach you.	Tried to call but could'nt reach you.	199686781	1477360976294	1477360976746	SHIFT	16
389476	4203565	Tried to call but couldn't reach you.	Tried to call but could'nt reach you.	199686782	1477360976660	1477360976756	T	84
389476	4203565	Tried to call but couldn't reach you.	Tried to call but could'nt reach you.	199686783	1477360976845	1477360976946	r	82
389476	4203565	Tried to call but couldn't reach you.	Tried to call but could'nt reach you.	199686784	1477360976982	1477360977088	i	73
389476	4203565	Tried to call but couldn't reach you.	Tried to call but could'nt reach you.	199686787	1477360977061	1477360977239	e	69
389476	4203565	Tried to call but couldn't reach you.	Tried to call but could'nt reach you.	199686803	1477360977157	1477360977278	d	68
389476	4203565	Tried to call but couldn't reach you.	Tried to call but could'nt reach you.	199686804	1477360977286	1477360977371	 	32
389476	4203565	Tried to call but couldn't reach you.	Tried to call but could'nt reach you.	199686805	1477360977396	1477360977479	t	84
389476	4203565	Tried to call but couldn't reach you.	Tried to call but could'nt reach you.	199686806	1477360977487	1477360977553	o	79
389476	4203565	Tried to call but couldn't reach you.	Tried to call but could'nt reach you.	199686807	1477360977627	1477360977721	 	32
389476	4203565	Tried to call but couldn't reach you.	Tried to call but could'nt reach you.	199686826	1477360977693	1477360977774	c	67
389476	4203565	Tried to call but couldn't reach you.	Tried to call but could'nt reach you.	199686831	1477360977826	1477360977929	a	65
389476	4203565	Tried to call but couldn't reach you.	Tried to call but could'nt reach you.	199686835	1477360977882	1477360977939	l	76
389476	4203565	Tried to call but couldn't reach you.	Tried to call but could'nt reach you.	199686840	1477360977997	1477360978076	l	76
389476	4203565	Tried to call but couldn't reach you.	Tried to call but could'nt reach you.	199686844	1477360978145	1477360978228	 	32
389476	4203565	Tried to call but couldn't reach you.	Tried to call but could'nt reach you.	199686847	1477360978316	1477360978388	b	66
389476	4203565	Tried to call but couldn't reach you.	Tried to call but could'nt reach you.	199686865	1477360978426	1477360978517	u	85
389476	4203565	Tried to call but couldn't reach you.	Tried to call but could'nt reach you.	199686867	1477360978601	1477360978680	t	84
389476	4203565	Tried to call but couldn't reach you.	Tried to call but could'nt reach you.	199686869	1477360978718	1477360978806	 	32
389476	4203565	Tried to call but couldn't reach you.	Tried to call but could'nt reach you.	199686872	1477360978855	1477360978953	c	67
389476	4203565	Tried to call but couldn't reach you.	Tried to call but could'nt reach you.	199686875	1477360978960	1477360979056	o	79
389476	4203565	Tried to call but couldn't reach you.	Tried to call but could'nt reach you.	199686923	1477360979010	1477360979086	u	85
389476	4203565	Tried to call but couldn't reach you.	Tried to call but could'nt reach you.	199686925	1477360979173	1477360979265	l	76
389476	4203565	Tried to call but couldn't reach you.	Tried to call but could'nt reach you.	199686928	1477360979373	1477360979465	d	68
389476	4203565	Tried to call but couldn't reach you.	Tried to call but could'nt reach you.	199686930	1477360980055	1477360980141	'	222
389476	4203565	Tried to call but couldn't reach you.	Tried to call but could'nt reach you.	199686933	1477360980312	1477360980404	n	78
389476	4203565	Tried to call but couldn't reach you.	Tried to call but could'nt reach you.	199686936	1477360980458	1477360980531	t	84
389476	4203565	Tried to call but couldn't reach you.	Tried to call but could'nt reach you.	199686945	1477360980538	1477360980614	 	32
389476	4203565	Tried to call but couldn't reach you.	Tried to call but could'nt reach you.	199686947	1477360980662	1477360980764	r	82
389476	4203565	Tried to call but couldn't reach you.	Tried to call but could'nt reach you.	199686948	1477360980728	1477360980823	e	69
389476	4203565	Tried to call but couldn't reach you.	Tried to call but could'nt reach you.	199686950	1477360980930	1477360981063	a	65
389476	4203565	Tried to call but couldn't reach you.	Tried to call but could'nt reach you.	199686959	1477360981015	1477360981126	c	67
389476	4203565	Tried to call but couldn't reach you.	Tried to call but could'nt reach you.	199686960	1477360981070	1477360981136	h	72
389476	4203565	Tried to call but couldn't reach you.	Tried to call but could'nt reach you.	199686961	1477360981246	1477360981324	 	32
389476	4203565	Tried to call but couldn't reach you.	Tried to call but could'nt reach you.	199686962	1477360981375	1477360981464	y	89
389476	4203565	Tried to call but couldn't reach you.	Tried to call but could'nt reach you.	199686963	1477360981441	1477360981549	o	79
389476	4203565	Tried to call but couldn't reach you.	Tried to call but could'nt reach you.	199686993	1477360981527	1477360981560	u	85
389476	4203577	Or let's get creative.	Or let's get creative.	199687239	1477360985906	1477360986470	SHIFT	16
389476	4203577	Or let's get creative.	Or let's get creative.	199687236	1477360986358	1477360986460	O	79
389476	4203577	Or let's get creative.	Or let's get creative.	199687245	1477360986724	1477360986841	r	82
389476	4203577	Or let's get creative.	Or let's get creative.	199687249	1477360987052	1477360987164	 	32
389476	4203577	Or let's get creative.	Or let's get creative.	199687253	1477360987400	1477360987513	l	76
389476	4203577	Or let's get creative.	Or let's get creative.	199687256	1477360987605	1477360987747	e	69
389476	4203577	Or let's get creative.	Or let's get creative.	199687274	1477360987716	1477360987831	t	84
389476	4203577	Or let's get creative.	Or let's get creative.	199687277	1477360988215	1477360988341	'	222
389476	4203577	Or let's get creative.	Or let's get creative.	199687280	1477360988536	1477360988650	s	83
389476	4203577	Or let's get creative.	Or let's get creative.	199687283	1477360988680	1477360988778	 	32
389476	4203577	Or let's get creative.	Or let's get creative.	199687287	1477360988828	1477360988926	g	71
389476	4203577	Or let's get creative.	Or let's get creative.	199687294	1477360988975	1477360989124	e	69
389476	4203577	Or let's get creative.	Or let's get creative.	199687323	1477360989095	1477360989204	t	84
389476	4203577	Or let's get creative.	Or let's get creative.	199687325	1477360989287	1477360989387	 	32
389476	4203577	Or let's get creative.	Or let's get creative.	199687331	1477360989611	1477360989684	c	67
389476	4203577	Or let's get creative.	Or let's get creative.	199687334	1477360989795	1477360989890	r	82
389476	4203577	Or let's get creative.	Or let's get creative.	199687339	1477360989844	1477360989931	e	69
389476	4203577	Or let's get creative.	Or let's get creative.	199687344	1477360990035	1477360990148	a	65
389476	4203577	Or let's get creative.	Or let's get creative.	199687349	1477360990266	1477360990332	t	84
389476	4203577	Or let's get creative.	Or let's get creative.	199687350	1477360990340	1477360990409	i	73
389476	4203577	Or let's get creative.	Or let's get creative.	199687351	1477360990515	1477360990589	v	86
389476	4203577	Or let's get creative.	Or let's get creative.	199687353	1477360990636	1477360990779	e	69
389476	4203577	Or let's get creative.	Or let's get creative.	199687359	1477360990766	1477360990855	.	190
389476	4203587	We need a process to deal with this.	We need a process to deal with this.	199687548	1477360994266	1477360994760	SHIFT	16
389476	4203587	We need a process to deal with this.	We need a process to deal with this.	199687549	1477360994667	1477360994786	W	87
389476	4203587	We need a process to deal with this.	We need a process to deal with this.	199687551	1477360994847	1477360994944	e	69
389476	4203587	We need a process to deal with this.	We need a process to deal with this.	199687554	1477360994963	1477360995045	 	32
389476	4203587	We need a process to deal with this.	We need a process to deal with this.	199687557	1477360995139	1477360995210	n	78
389476	4203587	We need a process to deal with this.	We need a process to deal with this.	199687560	1477360995249	1477360995317	e	69
389476	4203587	We need a process to deal with this.	We need a process to deal with this.	199687595	1477360995385	1477360995487	e	69
389476	4203587	We need a process to deal with this.	We need a process to deal with this.	199687600	1477360995466	1477360995566	d	68
389476	4203587	We need a process to deal with this.	We need a process to deal with this.	199687602	1477360995623	1477360995741	 	32
389476	4203587	We need a process to deal with this.	We need a process to deal with this.	199687604	1477360995867	1477360995980	a	65
389476	4203587	We need a process to deal with this.	We need a process to deal with this.	199687605	1477360996053	1477360996141	 	32
389476	4203587	We need a process to deal with this.	We need a process to deal with this.	199687631	1477360996237	1477360996341	p	80
389476	4203587	We need a process to deal with this.	We need a process to deal with this.	199687633	1477360996348	1477360996436	r	82
389476	4203587	We need a process to deal with this.	We need a process to deal with this.	199687635	1477360996480	1477360996553	o	79
389476	4203587	We need a process to deal with this.	We need a process to deal with this.	199687637	1477360996585	1477360996663	c	67
389476	4203587	We need a process to deal with this.	We need a process to deal with this.	199687638	1477360996704	1477360996804	e	69
389476	4203587	We need a process to deal with this.	We need a process to deal with this.	199687644	1477360996909	1477360996957	s	83
389476	4203587	We need a process to deal with this.	We need a process to deal with this.	199687645	1477360997009	1477360997094	s	83
389476	4203587	We need a process to deal with this.	We need a process to deal with this.	199687646	1477360997112	1477360997202	 	32
389476	4203587	We need a process to deal with this.	We need a process to deal with this.	199687647	1477360997252	1477360997321	t	84
389476	4203587	We need a process to deal with this.	We need a process to deal with this.	199687661	1477360997299	1477360997374	o	79
389476	4203587	We need a process to deal with this.	We need a process to deal with this.	199687664	1477360997444	1477360997536	 	32
389476	4203587	We need a process to deal with this.	We need a process to deal with this.	199687666	1477360997524	1477360997634	d	68
389476	4203587	We need a process to deal with this.	We need a process to deal with this.	199687668	1477360997595	1477360997693	e	69
389476	4203587	We need a process to deal with this.	We need a process to deal with this.	199687670	1477360997792	1477360997921	a	65
389476	4203587	We need a process to deal with this.	We need a process to deal with this.	199687682	1477360997868	1477360997938	l	76
389476	4203587	We need a process to deal with this.	We need a process to deal with this.	199687685	1477360998010	1477360998102	 	32
389476	4203587	We need a process to deal with this.	We need a process to deal with this.	199687689	1477360998135	1477360998242	w	87
389476	4203587	We need a process to deal with this.	We need a process to deal with this.	199687691	1477360998220	1477360998294	i	73
389476	4203587	We need a process to deal with this.	We need a process to deal with this.	199687693	1477360998363	1477360998452	t	84
389476	4203587	We need a process to deal with this.	We need a process to deal with this.	199687705	1477360998404	1477360998476	h	72
389476	4203587	We need a process to deal with this.	We need a process to deal with this.	199687708	1477360998580	1477360998667	 	32
389476	4203587	We need a process to deal with this.	We need a process to deal with this.	199687712	1477360998676	1477360998808	t	84
389476	4203587	We need a process to deal with this.	We need a process to deal with this.	199687714	1477360998787	1477360998865	h	72
389476	4203587	We need a process to deal with this.	We need a process to deal with this.	199687719	1477360998960	1477360999051	s	83
389476	4203587	We need a process to deal with this.	We need a process to deal with this.	199687724	1477360999121	1477360999193	.	190
389476	4203587	We need a process to deal with this.	We need a process to deal with this.	199687776	1477360999560	1477360999643	BKSP	8
389476	4203587	We need a process to deal with this.	We need a process to deal with this.	199687778	1477360999712	1477360999814	BKSP	8
389476	4203587	We need a process to deal with this.	We need a process to deal with this.	199687781	1477361000135	1477361000196	i	73
389476	4203587	We need a process to deal with this.	We need a process to deal with this.	199687784	1477361000237	1477361000346	s	83
389476	4203593	She is scheduled to appear in New York on the Maury Povitch Show.	She is scheduled to appear in New York on the Maury Povitch Show.	199687997	1477361005634	1477361006092	SHIFT	16
389476	4203593	She is scheduled to appear in New York on the Maury Povitch Show.	She is scheduled to appear in New York on the Maury Povitch Show.	199688000	1477361006002	1477361006102	S	83
389476	4203593	She is scheduled to appear in New York on the Maury Povitch Show.	She is scheduled to appear in New York on the Maury Povitch Show.	199688002	1477361006120	1477361006197	h	72
389476	4203593	She is scheduled to appear in New York on the Maury Povitch Show.	She is scheduled to appear in New York on the Maury Povitch Show.	199688006	1477361006236	1477361006335	e	69
389476	4203593	She is scheduled to appear in New York on the Maury Povitch Show.	She is scheduled to appear in New York on the Maury Povitch Show.	199688011	1477361006316	1477361006386	 	32
389476	4203593	She is scheduled to appear in New York on the Maury Povitch Show.	She is scheduled to appear in New York on the Maury Povitch Show.	199688015	1477361006464	1477361006570	i	73
389476	4203593	She is scheduled to appear in New York on the Maury Povitch Show.	She is scheduled to appear in New York on the Maury Povitch Show.	199688043	1477361006589	1477361006687	s	83
389476	4203593	She is scheduled to appear in New York on the Maury Povitch Show.	She is scheduled to appear in New York on the Maury Povitch Show.	199688046	1477361006718	1477361006807	 	32
389476	4203593	She is scheduled to appear in New York on the Maury Povitch Show.	She is scheduled to appear in New York on the Maury Povitch Show.	199688050	1477361006849	1477361007023	s	83
389476	4203593	She is scheduled to appear in New York on the Maury Povitch Show.	She is scheduled to appear in New York on the Maury Povitch Show.	199688053	1477361007001	1477361007110	c	67
389476	4203593	She is scheduled to appear in New York on the Maury Povitch Show.	She is scheduled to appear in New York on the Maury Povitch Show.	199688056	1477361007142	1477361007210	h	72
389476	4203593	She is scheduled to appear in New York on the Maury Povitch Show.	She is scheduled to appear in New York on the Maury Povitch Show.	199688082	1477361007319	1477361007496	e	69
389476	4203593	She is scheduled to appear in New York on the Maury Povitch Show.	She is scheduled to appear in New York on the Maury Povitch Show.	199688085	1477361007449	1477361007546	d	68
389476	4203593	She is scheduled to appear in New York on the Maury Povitch Show.	She is scheduled to appear in New York on the Maury Povitch Show.	199688089	1477361007630	1477361007716	u	85
389476	4203593	She is scheduled to appear in New York on the Maury Povitch Show.	She is scheduled to appear in New York on the Maury Povitch Show.	199688093	1477361007836	1477361007918	l	76
389476	4203593	She is scheduled to appear in New York on the Maury Povitch Show.	She is scheduled to appear in New York on the Maury Povitch Show.	199688096	1477361007959	1477361008139	e	69
389476	4203593	She is scheduled to appear in New York on the Maury Povitch Show.	She is scheduled to appear in New York on the Maury Povitch Show.	199688108	1477361008055	1477361008171	d	68
389476	4203593	She is scheduled to appear in New York on the Maury Povitch Show.	She is scheduled to appear in New York on the Maury Povitch Show.	199688112	1477361008156	1477361008262	 	32
389476	4203593	She is scheduled to appear in New York on the Maury Povitch Show.	She is scheduled to appear in New York on the Maury Povitch Show.	199688114	1477361008311	1477361008423	t	84
389476	4203593	She is scheduled to appear in New York on the Maury Povitch Show.	She is scheduled to appear in New York on the Maury Povitch Show.	199688118	1477361008396	1477361008475	o	79
389476	4203593	She is scheduled to appear in New York on the Maury Povitch Show.	She is scheduled to appear in New York on the Maury Povitch Show.	199688123	1477361008563	1477361008644	 	32
389476	4203593	She is scheduled to appear in New York on the Maury Povitch Show.	She is scheduled to appear in New York on the Maury Povitch Show.	199688126	1477361008708	1477361008814	a	65
389476	4203593	She is scheduled to appear in New York on the Maury Povitch Show.	She is scheduled to appear in New York on the Maury Povitch Show.	199688135	1477361008792	1477361008856	p	80
389476	4203593	She is scheduled to appear in New York on the Maury Povitch Show.	She is scheduled to appear in New York on the Maury Povitch Show.	199688138	1477361008924	1477361008996	p	80
389476	4203593	She is scheduled to appear in New York on the Maury Povitch Show.	She is scheduled to appear in New York on the Maury Povitch Show.	199688141	1477361009002	1477361009119	e	69
389476	4203593	She is scheduled to appear in New York on the Maury Povitch Show.	She is scheduled to appear in New York on the Maury Povitch Show.	199688144	1477361009128	1477361009281	a	65
389476	4203593	She is scheduled to appear in New York on the Maury Povitch Show.	She is scheduled to appear in New York on the Maury Povitch Show.	199688148	1477361009269	1477361009390	r	82
389476	4203593	She is scheduled to appear in New York on the Maury Povitch Show.	She is scheduled to appear in New York on the Maury Povitch Show.	199688152	1477361009397	1477361009500	 	32
389476	4203593	She is scheduled to appear in New York on the Maury Povitch Show.	She is scheduled to appear in New York on the Maury Povitch Show.	199688175	1477361009747	1477361009889	i	73
389476	4203593	She is scheduled to appear in New York on the Maury Povitch Show.	She is scheduled to appear in New York on the Maury Povitch Show.	199688176	1477361009856	1477361009929	n	78
389476	4203593	She is scheduled to appear in New York on the Maury Povitch Show.	She is scheduled to appear in New York on the Maury Povitch Show.	199688177	1477361010020	1477361010106	 	32
389476	4203593	She is scheduled to appear in New York on the Maury Povitch Show.	She is scheduled to appear in New York on the Maury Povitch Show.	199688178	1477361010135	1477361010296	SHIFT	16
389476	4203593	She is scheduled to appear in New York on the Maury Povitch Show.	She is scheduled to appear in New York on the Maury Povitch Show.	199688179	1477361010245	1477361010316	N	78
389476	4203593	She is scheduled to appear in New York on the Maury Povitch Show.	She is scheduled to appear in New York on the Maury Povitch Show.	199688181	1477361010442	1477361010565	e	69
389476	4203593	She is scheduled to appear in New York on the Maury Povitch Show.	She is scheduled to appear in New York on the Maury Povitch Show.	199688201	1477361010517	1477361010616	w	87
389476	4203593	She is scheduled to appear in New York on the Maury Povitch Show.	She is scheduled to appear in New York on the Maury Povitch Show.	199688203	1477361010633	1477361010720	 	32
389476	4203593	She is scheduled to appear in New York on the Maury Povitch Show.	She is scheduled to appear in New York on the Maury Povitch Show.	199688207	1477361010743	1477361010952	SHIFT	16
389476	4203593	She is scheduled to appear in New York on the Maury Povitch Show.	She is scheduled to appear in New York on the Maury Povitch Show.	199688211	1477361010903	1477361010969	Y	89
389476	4203593	She is scheduled to appear in New York on the Maury Povitch Show.	She is scheduled to appear in New York on the Maury Povitch Show.	199688216	1477361011077	1477361011165	o	79
389476	4203593	She is scheduled to appear in New York on the Maury Povitch Show.	She is scheduled to appear in New York on the Maury Povitch Show.	199688222	1477361011193	1477361011301	r	82
389476	4203593	She is scheduled to appear in New York on the Maury Povitch Show.	She is scheduled to appear in New York on the Maury Povitch Show.	199688243	1477361011290	1477361011366	k	75
389476	4203593	She is scheduled to appear in New York on the Maury Povitch Show.	She is scheduled to appear in New York on the Maury Povitch Show.	199688245	1477361011473	1477361011546	 	32
389476	4203593	She is scheduled to appear in New York on the Maury Povitch Show.	She is scheduled to appear in New York on the Maury Povitch Show.	199688248	1477361011620	1477361011713	o	79
389476	4203593	She is scheduled to appear in New York on the Maury Povitch Show.	She is scheduled to appear in New York on the Maury Povitch Show.	199688250	1477361011679	1477361011742	n	78
389476	4203593	She is scheduled to appear in New York on the Maury Povitch Show.	She is scheduled to appear in New York on the Maury Povitch Show.	199688251	1477361011814	1477361011885	 	32
389476	4203593	She is scheduled to appear in New York on the Maury Povitch Show.	She is scheduled to appear in New York on the Maury Povitch Show.	199688254	1477361011894	1477361011999	t	84
389476	4203593	She is scheduled to appear in New York on the Maury Povitch Show.	She is scheduled to appear in New York on the Maury Povitch Show.	199688279	1477361012008	1477361012081	h	72
389476	4203593	She is scheduled to appear in New York on the Maury Povitch Show.	She is scheduled to appear in New York on the Maury Povitch Show.	199688282	1477361012119	1477361012213	e	69
389476	4203593	She is scheduled to appear in New York on the Maury Povitch Show.	She is scheduled to appear in New York on the Maury Povitch Show.	199688283	1477361012226	1477361012310	 	32
389476	4203593	She is scheduled to appear in New York on the Maury Povitch Show.	She is scheduled to appear in New York on the Maury Povitch Show.	199688285	1477361012532	1477361012630	m	77
389476	4203593	She is scheduled to appear in New York on the Maury Povitch Show.	She is scheduled to appear in New York on the Maury Povitch Show.	199688287	1477361012868	1477361012944	BKSP	8
389476	4203593	She is scheduled to appear in New York on the Maury Povitch Show.	She is scheduled to appear in New York on the Maury Povitch Show.	199688308	1477361013056	1477361013265	SHIFT	16
389476	4203593	She is scheduled to appear in New York on the Maury Povitch Show.	She is scheduled to appear in New York on the Maury Povitch Show.	199688290	1477361013157	1477361013239	M	77
389476	4203593	She is scheduled to appear in New York on the Maury Povitch Show.	She is scheduled to appear in New York on the Maury Povitch Show.	199688309	1477361013377	1477361013508	a	65
389476	4203593	She is scheduled to appear in New York on the Maury Povitch Show.	She is scheduled to appear in New York on the Maury Povitch Show.	199688310	1477361013523	1477361013610	u	85
389476	4203593	She is scheduled to appear in New York on the Maury Povitch Show.	She is scheduled to appear in New York on the Maury Povitch Show.	199688311	1477361013695	1477361013782	r	82
389476	4203593	She is scheduled to appear in New York on the Maury Povitch Show.	She is scheduled to appear in New York on the Maury Povitch Show.	199688312	1477361013841	1477361013913	y	89
389476	4203593	She is scheduled to appear in New York on the Maury Povitch Show.	She is scheduled to appear in New York on the Maury Povitch Show.	199688313	1477361014010	1477361014096	 	32
389476	4203593	She is scheduled to appear in New York on the Maury Povitch Show.	She is scheduled to appear in New York on the Maury Povitch Show.	199688338	1477361014153	1477361014484	SHIFT	16
389476	4203593	She is scheduled to appear in New York on the Maury Povitch Show.	She is scheduled to appear in New York on the Maury Povitch Show.	199688336	1477361014391	1477361014454	P	80
389476	4203593	She is scheduled to appear in New York on the Maury Povitch Show.	She is scheduled to appear in New York on the Maury Povitch Show.	199688344	1477361014717	1477361014818	o	79
389476	4203593	She is scheduled to appear in New York on the Maury Povitch Show.	She is scheduled to appear in New York on the Maury Povitch Show.	199688349	1477361015120	1477361015220	v	86
389476	4203593	She is scheduled to appear in New York on the Maury Povitch Show.	She is scheduled to appear in New York on the Maury Povitch Show.	199688352	1477361015309	1477361015402	i	73
389476	4203593	She is scheduled to appear in New York on the Maury Povitch Show.	She is scheduled to appear in New York on the Maury Povitch Show.	199688355	1477361015507	1477361015593	t	84
389476	4203593	She is scheduled to appear in New York on the Maury Povitch Show.	She is scheduled to appear in New York on the Maury Povitch Show.	199688384	1477361015752	1477361015882	c	67
389476	4203593	She is scheduled to appear in New York on the Maury Povitch Show.	She is scheduled to appear in New York on the Maury Povitch Show.	199688386	1477361015866	1477361015964	h	72
389476	4203593	She is scheduled to appear in New York on the Maury Povitch Show.	She is scheduled to appear in New York on the Maury Povitch Show.	199688388	1477361016082	1477361016178	 	32
389476	4203593	She is scheduled to appear in New York on the Maury Povitch Show.	She is scheduled to appear in New York on the Maury Povitch Show.	199688390	1477361016499	1477361016840	SHIFT	16
389476	4203593	She is scheduled to appear in New York on the Maury Povitch Show.	She is scheduled to appear in New York on the Maury Povitch Show.	199688393	1477361016758	1477361016866	S	83
389476	4203593	She is scheduled to appear in New York on the Maury Povitch Show.	She is scheduled to appear in New York on the Maury Povitch Show.	199688395	1477361016879	1477361016953	h	72
389476	4203593	She is scheduled to appear in New York on the Maury Povitch Show.	She is scheduled to appear in New York on the Maury Povitch Show.	199688410	1477361017030	1477361017122	o	79
389476	4203593	She is scheduled to appear in New York on the Maury Povitch Show.	She is scheduled to appear in New York on the Maury Povitch Show.	199688411	1477361017153	1477361017266	w	87
389476	4203609	Did you differ from me?	Did you differ from me?	199688553	1477361021410	1477361021794	SHIFT	16
389476	4203609	Did you differ from me?	Did you differ from me?	199688554	1477361021715	1477361021823	D	68
389476	4203609	Did you differ from me?	Did you differ from me?	199688555	1477361021886	1477361021994	i	73
389476	4203609	Did you differ from me?	Did you differ from me?	199688556	1477361022002	1477361022101	d	68
389476	4203609	Did you differ from me?	Did you differ from me?	199688558	1477361022109	1477361022207	 	32
389476	4203609	Did you differ from me?	Did you differ from me?	199688560	1477361022268	1477361022338	y	89
389476	4203609	Did you differ from me?	Did you differ from me?	199688566	1477361022319	1477361022420	o	79
389476	4203609	Did you differ from me?	Did you differ from me?	199688567	1477361022386	1477361022463	u	85
389476	4203609	Did you differ from me?	Did you differ from me?	199688569	1477361022568	1477361022662	 	32
389476	4203609	Did you differ from me?	Did you differ from me?	199688571	1477361022711	1477361022804	d	68
389476	4203609	Did you differ from me?	Did you differ from me?	199688573	1477361022813	1477361022881	i	73
389476	4203609	Did you differ from me?	Did you differ from me?	199688578	1477361022939	1477361023005	f	70
389476	4203609	Did you differ from me?	Did you differ from me?	199688615	1477361023073	1477361023130	f	70
389476	4203609	Did you differ from me?	Did you differ from me?	199688618	1477361023204	1477361023339	e	69
389476	4203609	Did you differ from me?	Did you differ from me?	199688619	1477361023281	1477361023403	r	82
389476	4203609	Did you differ from me?	Did you differ from me?	199688620	1477361023757	1477361023864	 	32
389476	4203609	Did you differ from me?	Did you differ from me?	199688621	1477361023873	1477361023987	f	70
389476	4203609	Did you differ from me?	Did you differ from me?	199688648	1477361023971	1477361024117	r	82
389476	4203609	Did you differ from me?	Did you differ from me?	199688650	1477361024035	1477361024147	o	79
389476	4203609	Did you differ from me?	Did you differ from me?	199688652	1477361024098	1477361024179	m	77
389476	4203609	Did you differ from me?	Did you differ from me?	199688655	1477361024268	1477361024341	 	32
389476	4203609	Did you differ from me?	Did you differ from me?	199688660	1477361024418	1477361024519	m	77
389476	4203609	Did you differ from me?	Did you differ from me?	199688666	1477361024666	1477361024778	e	69
389476	4203609	Did you differ from me?	Did you differ from me?	199688663	1477361024765	1477361024909	SHIFT	16
389476	4203609	Did you differ from me?	Did you differ from me?	199688668	1477361024846	1477361024929	?	191
389476	4203615	We have lots of paper stuff.	We have lots of paper stuff.	199688836	1477361028505	1477361028916	SHIFT	16
389476	4203615	We have lots of paper stuff.	We have lots of paper stuff.	199688841	1477361028833	1477361028956	W	87
389476	4203615	We have lots of paper stuff.	We have lots of paper stuff.	199688847	1477361029048	1477361029135	e	69
389476	4203615	We have lots of paper stuff.	We have lots of paper stuff.	199688849	1477361029149	1477361029231	 	32
389476	4203615	We have lots of paper stuff.	We have lots of paper stuff.	199688853	1477361029303	1477361029391	h	72
389476	4203615	We have lots of paper stuff.	We have lots of paper stuff.	199688855	1477361029420	1477361029527	a	65
389476	4203615	We have lots of paper stuff.	We have lots of paper stuff.	199688875	1477361029502	1477361029587	v	86
389476	4203615	We have lots of paper stuff.	We have lots of paper stuff.	199688878	1477361029627	1477361029719	e	69
389476	4203615	We have lots of paper stuff.	We have lots of paper stuff.	199688881	1477361029697	1477361029785	 	32
389476	4203615	We have lots of paper stuff.	We have lots of paper stuff.	199688884	1477361029903	1477361029981	l	76
389476	4203615	We have lots of paper stuff.	We have lots of paper stuff.	199688886	1477361030093	1477361030162	o	79
389476	4203615	We have lots of paper stuff.	We have lots of paper stuff.	199688888	1477361030229	1477361030316	t	84
389476	4203615	We have lots of paper stuff.	We have lots of paper stuff.	199688896	1477361030351	1477361030463	s	83
389476	4203615	We have lots of paper stuff.	We have lots of paper stuff.	199688901	1477361030451	1477361030516	 	32
389476	4203615	We have lots of paper stuff.	We have lots of paper stuff.	199688904	1477361030591	1477361030674	o	79
389476	4203615	We have lots of paper stuff.	We have lots of paper stuff.	199688909	1477361030661	1477361030737	f	70
389476	4203615	We have lots of paper stuff.	We have lots of paper stuff.	199688913	1477361030761	1477361030818	 	32
389476	4203615	We have lots of paper stuff.	We have lots of paper stuff.	199688932	1477361030900	1477361030994	p	80
389476	4203615	We have lots of paper stuff.	We have lots of paper stuff.	199688937	1477361031000	1477361031101	a	65
389476	4203615	We have lots of paper stuff.	We have lots of paper stuff.	199688940	1477361031109	1477361031211	p	80
389476	4203615	We have lots of paper stuff.	We have lots of paper stuff.	199688943	1477361031259	1477361031380	e	69
389476	4203615	We have lots of paper stuff.	We have lots of paper stuff.	199688955	1477361031339	1477361031442	r	82
389476	4203615	We have lots of paper stuff.	We have lots of paper stuff.	199688956	1477361031430	1477361031529	 	32
389476	4203615	We have lots of paper stuff.	We have lots of paper stuff.	199688957	1477361031536	1477361031653	s	83
389476	4203615	We have lots of paper stuff.	We have lots of paper stuff.	199688958	1477361031711	1477361031794	t	84
389476	4203615	We have lots of paper stuff.	We have lots of paper stuff.	199688959	1477361031803	1477361031884	u	85
389476	4203615	We have lots of paper stuff.	We have lots of paper stuff.	199688960	1477361031924	1477361032006	f	70
389476	4203615	We have lots of paper stuff.	We have lots of paper stuff.	199688983	1477361032063	1477361032145	f	70
389476	4203623	Opposition leaders have urged him to call off the visit.	Opposition leaders have urged him to call off the visit.	199689276	1477361037836	1477361038243	SHIFT	16
389476	4203623	Opposition leaders have urged him to call off the visit.	Opposition leaders have urged him to call off the visit.	199689278	1477361038160	1477361038269	O	79
389476	4203623	Opposition leaders have urged him to call off the visit.	Opposition leaders have urged him to call off the visit.	199689279	1477361038406	1477361038469	p	80
389476	4203623	Opposition leaders have urged him to call off the visit.	Opposition leaders have urged him to call off the visit.	199689280	1477361038538	1477361038605	p	80
389476	4203623	Opposition leaders have urged him to call off the visit.	Opposition leaders have urged him to call off the visit.	199689281	1477361038699	1477361038802	o	79
389476	4203623	Opposition leaders have urged him to call off the visit.	Opposition leaders have urged him to call off the visit.	199689282	1477361038830	1477361038943	s	83
389476	4203623	Opposition leaders have urged him to call off the visit.	Opposition leaders have urged him to call off the visit.	199689293	1477361039000	1477361039093	i	73
389476	4203623	Opposition leaders have urged him to call off the visit.	Opposition leaders have urged him to call off the visit.	199689295	1477361039164	1477361039249	t	84
389476	4203623	Opposition leaders have urged him to call off the visit.	Opposition leaders have urged him to call off the visit.	199689297	1477361039263	1477361039375	i	73
389476	4203623	Opposition leaders have urged him to call off the visit.	Opposition leaders have urged him to call off the visit.	199689298	1477361039337	1477361039440	o	79
389476	4203623	Opposition leaders have urged him to call off the visit.	Opposition leaders have urged him to call off the visit.	199689300	1477361039544	1477361039641	n	78
389476	4203623	Opposition leaders have urged him to call off the visit.	Opposition leaders have urged him to call off the visit.	199689348	1477361039725	1477361039798	 	32
389476	4203623	Opposition leaders have urged him to call off the visit.	Opposition leaders have urged him to call off the visit.	199689352	1477361039886	1477361039979	l	76
389476	4203623	Opposition leaders have urged him to call off the visit.	Opposition leaders have urged him to call off the visit.	199689356	1477361040294	1477361040396	e	69
389476	4203623	Opposition leaders have urged him to call off the visit.	Opposition leaders have urged him to call off the visit.	199689361	1477361040404	1477361040568	a	65
389476	4203623	Opposition leaders have urged him to call off the visit.	Opposition leaders have urged him to call off the visit.	199689366	1477361040852	1477361040927	d	68
389476	4203623	Opposition leaders have urged him to call off the visit.	Opposition leaders have urged him to call off the visit.	199689399	1477361041056	1477361041238	e	69
389476	4203623	Opposition leaders have urged him to call off the visit.	Opposition leaders have urged him to call off the visit.	199689402	1477361041196	1477361041304	r	82
389476	4203623	Opposition leaders have urged him to call off the visit.	Opposition leaders have urged him to call off the visit.	199689404	1477361041412	1477361041541	s	83
389476	4203623	Opposition leaders have urged him to call off the visit.	Opposition leaders have urged him to call off the visit.	199689409	1477361041588	1477361041694	 	32
389476	4203623	Opposition leaders have urged him to call off the visit.	Opposition leaders have urged him to call off the visit.	199689412	1477361041913	1477361041984	h	72
389476	4203623	Opposition leaders have urged him to call off the visit.	Opposition leaders have urged him to call off the visit.	199689443	1477361041999	1477361042116	a	65
389476	4203623	Opposition leaders have urged him to call off the visit.	Opposition leaders have urged him to call off the visit.	199689447	1477361042094	1477361042179	v	86
389476	4203623	Opposition leaders have urged him to call off the visit.	Opposition leaders have urged him to call off the visit.	199689450	1477361042223	1477361042315	e	69
389476	4203623	Opposition leaders have urged him to call off the visit.	Opposition leaders have urged him to call off the visit.	199689452	1477361042292	1477361042385	 	32
389476	4203623	Opposition leaders have urged him to call off the visit.	Opposition leaders have urged him to call off the visit.	199689454	1477361042478	1477361042570	u	85
389476	4203623	Opposition leaders have urged him to call off the visit.	Opposition leaders have urged him to call off the visit.	199689485	1477361042579	1477361042680	r	82
389476	4203623	Opposition leaders have urged him to call off the visit.	Opposition leaders have urged him to call off the visit.	199689488	1477361042791	1477361042892	g	71
389476	4203623	Opposition leaders have urged him to call off the visit.	Opposition leaders have urged him to call off the visit.	199689490	1477361043001	1477361043158	e	69
389476	4203623	Opposition leaders have urged him to call off the visit.	Opposition leaders have urged him to call off the visit.	199689492	1477361043099	1477361043219	d	68
389476	4203623	Opposition leaders have urged him to call off the visit.	Opposition leaders have urged him to call off the visit.	199689494	1477361043262	1477361043369	 	32
389476	4203623	Opposition leaders have urged him to call off the visit.	Opposition leaders have urged him to call off the visit.	199689518	1477361043551	1477361043629	h	72
389476	4203623	Opposition leaders have urged him to call off the visit.	Opposition leaders have urged him to call off the visit.	199689520	1477361043701	1477361043800	i	73
389476	4203623	Opposition leaders have urged him to call off the visit.	Opposition leaders have urged him to call off the visit.	199689523	1477361043772	1477361043863	m	77
389476	4203623	Opposition leaders have urged him to call off the visit.	Opposition leaders have urged him to call off the visit.	199689525	1477361043971	1477361044081	 	32
389476	4203623	Opposition leaders have urged him to call off the visit.	Opposition leaders have urged him to call off the visit.	199689528	1477361044143	1477361044228	t	84
389476	4203623	Opposition leaders have urged him to call off the visit.	Opposition leaders have urged him to call off the visit.	199689541	1477361044248	1477361044336	o	79
389476	4203623	Opposition leaders have urged him to call off the visit.	Opposition leaders have urged him to call off the visit.	199689542	1477361044434	1477361044529	 	32
389476	4203623	Opposition leaders have urged him to call off the visit.	Opposition leaders have urged him to call off the visit.	199689545	1477361044538	1477361044622	c	67
389476	4203623	Opposition leaders have urged him to call off the visit.	Opposition leaders have urged him to call off the visit.	199689548	1477361044711	1477361044811	a	65
389476	4203623	Opposition leaders have urged him to call off the visit.	Opposition leaders have urged him to call off the visit.	199689568	1477361044762	1477361044831	l	76
389476	4203623	Opposition leaders have urged him to call off the visit.	Opposition leaders have urged him to call off the visit.	199689570	1477361044902	1477361044950	l	76
389476	4203623	Opposition leaders have urged him to call off the visit.	Opposition leaders have urged him to call off the visit.	199689572	1477361045052	1477361045102	 	32
389476	4203623	Opposition leaders have urged him to call off the visit.	Opposition leaders have urged him to call off the visit.	199689573	1477361045183	1477361045286	o	79
389476	4203623	Opposition leaders have urged him to call off the visit.	Opposition leaders have urged him to call off the visit.	199689574	1477361045351	1477361045427	f	70
389476	4203623	Opposition leaders have urged him to call off the visit.	Opposition leaders have urged him to call off the visit.	199689575	1477361045502	1477361045588	f	70
389476	4203623	Opposition leaders have urged him to call off the visit.	Opposition leaders have urged him to call off the visit.	199689585	1477361045608	1477361045700	 	32
389476	4203623	Opposition leaders have urged him to call off the visit.	Opposition leaders have urged him to call off the visit.	199689588	1477361045738	1477361045816	t	84
389476	4203623	Opposition leaders have urged him to call off the visit.	Opposition leaders have urged him to call off the visit.	199689590	1477361045823	1477361045899	h	72
389476	4203623	Opposition leaders have urged him to call off the visit.	Opposition leaders have urged him to call off the visit.	199689592	1477361045943	1477361046047	e	69
389476	4203623	Opposition leaders have urged him to call off the visit.	Opposition leaders have urged him to call off the visit.	199689625	1477361046034	1477361046126	 	32
389476	4203623	Opposition leaders have urged him to call off the visit.	Opposition leaders have urged him to call off the visit.	199689626	1477361046157	1477361046262	v	86
389476	4203623	Opposition leaders have urged him to call off the visit.	Opposition leaders have urged him to call off the visit.	199689628	1477361046249	1477361046346	i	73
389476	4203623	Opposition leaders have urged him to call off the visit.	Opposition leaders have urged him to call off the visit.	199689632	1477361046566	1477361046675	s	83
389476	4203623	Opposition leaders have urged him to call off the visit.	Opposition leaders have urged him to call off the visit.	199689636	1477361046762	1477361046869	i	73
389476	4203623	Opposition leaders have urged him to call off the visit.	Opposition leaders have urged him to call off the visit.	199689644	1477361046887	1477361046969	s	83
389476	4203623	Opposition leaders have urged him to call off the visit.	Opposition leaders have urged him to call off the visit.	199689676	1477361047099	1477361047184	t	84
389476	4203623	Opposition leaders have urged him to call off the visit.	Opposition leaders have urged him to call off the visit.	199689677	1477361047432	1477361047494	BKSP	8
389476	4203623	Opposition leaders have urged him to call off the visit.	Opposition leaders have urged him to call off the visit.	199689678	1477361047568	1477361047665	BKSP	8
389476	4203623	Opposition leaders have urged him to call off the visit.	Opposition leaders have urged him to call off the visit.	199689679	1477361047699	1477361047806	t	84
389476	4203636	Did you ever hear anything?.	Did you ever hear anything?.	199689847	1477361050869	1477361052179	SHIFT	16
389476	4203636	Did you ever hear anything?.	Did you ever hear anything?.	199689850	1477361052080	1477361052189	D	68
389476	4203636	Did you ever hear anything?.	Did you ever hear anything?.	199689852	1477361052347	1477361052450	i	73
389476	4203636	Did you ever hear anything?.	Did you ever hear anything?.	199689853	1477361052456	1477361052553	d	68
389476	4203636	Did you ever hear anything?.	Did you ever hear anything?.	199689854	1477361052577	1477361052665	 	32
389476	4203636	Did you ever hear anything?.	Did you ever hear anything?.	199689855	1477361052760	1477361052832	y	89
389476	4203636	Did you ever hear anything?.	Did you ever hear anything?.	199689880	1477361052810	1477361052923	o	79
389476	4203636	Did you ever hear anything?.	Did you ever hear anything?.	199689881	1477361052880	1477361052956	u	85
389476	4203636	Did you ever hear anything?.	Did you ever hear anything?.	199689884	1477361053074	1477361053156	 	32
389476	4203636	Did you ever hear anything?.	Did you ever hear anything?.	199689888	1477361053216	1477361053339	e	69
389476	4203636	Did you ever hear anything?.	Did you ever hear anything?.	199689891	1477361053363	1477361053445	v	86
389476	4203636	Did you ever hear anything?.	Did you ever hear anything?.	199689893	1477361053532	1477361053658	e	69
389476	4203636	Did you ever hear anything?.	Did you ever hear anything?.	199689934	1477361053614	1477361053719	r	82
389476	4203636	Did you ever hear anything?.	Did you ever hear anything?.	199689938	1477361053727	1477361053795	 	32
389476	4203636	Did you ever hear anything?.	Did you ever hear anything?.	199689942	1477361053884	1477361053981	h	72
389476	4203636	Did you ever hear anything?.	Did you ever hear anything?.	199689945	1477361054272	1477361054380	e	69
389476	4203636	Did you ever hear anything?.	Did you ever hear anything?.	199689947	1477361054482	1477361054624	a	65
389476	4203636	Did you ever hear anything?.	Did you ever hear anything?.	199689950	1477361054638	1477361054751	r	82
389476	4203636	Did you ever hear anything?.	Did you ever hear anything?.	199689960	1477361054797	1477361054900	 	32
389476	4203636	Did you ever hear anything?.	Did you ever hear anything?.	199689961	1477361054938	1477361055051	a	65
389476	4203636	Did you ever hear anything?.	Did you ever hear anything?.	199689962	1477361055032	1477361055105	n	78
389476	4203636	Did you ever hear anything?.	Did you ever hear anything?.	199689963	1477361055267	1477361055369	y	89
389476	4203636	Did you ever hear anything?.	Did you ever hear anything?.	199689964	1477361055453	1477361055550	t	84
389476	4203636	Did you ever hear anything?.	Did you ever hear anything?.	199690008	1477361055498	1477361055568	h	72
389476	4203636	Did you ever hear anything?.	Did you ever hear anything?.	199690011	1477361055605	1477361055704	i	73
389476	4203636	Did you ever hear anything?.	Did you ever hear anything?.	199690014	1477361055672	1477361055780	n	78
389476	4203636	Did you ever hear anything?.	Did you ever hear anything?.	199690016	1477361055752	1477361055852	g	71
389476	4203636	Did you ever hear anything?.	Did you ever hear anything?.	199690022	1477361055989	1477361056238	SHIFT	16
389476	4203636	Did you ever hear anything?.	Did you ever hear anything?.	199690019	1477361056094	1477361056226	?	191
389476	4203642	Lavo called it, never mind though.	Lavo called i, never mind though.	199690182	1477361061092	1477361061526	SHIFT	16
389476	4203642	Lavo called it, never mind though.	Lavo called i, never mind though.	199690184	1477361061458	1477361061550	L	76
389476	4203642	Lavo called it, never mind though.	Lavo called i, never mind though.	199690186	1477361061649	1477361061768	a	65
389476	4203642	Lavo called it, never mind though.	Lavo called i, never mind though.	199690188	1477361061916	1477361062029	v	86
389476	4203642	Lavo called it, never mind though.	Lavo called i, never mind though.	199690190	1477361062016	1477361062120	o	79
389476	4203642	Lavo called it, never mind though.	Lavo called i, never mind though.	199690193	1477361062260	1477361062362	 	32
389476	4203642	Lavo called it, never mind though.	Lavo called i, never mind though.	199690208	1477361062384	1477361062468	c	67
389476	4203642	Lavo called it, never mind though.	Lavo called i, never mind though.	199690210	1477361062542	1477361062668	a	65
389476	4203642	Lavo called it, never mind though.	Lavo called i, never mind though.	199690213	1477361062608	1477361062678	l	76
389476	4203642	Lavo called it, never mind though.	Lavo called i, never mind though.	199690216	1477361062725	1477361062822	l	76
389476	4203642	Lavo called it, never mind though.	Lavo called i, never mind though.	199690219	1477361062830	1477361062982	e	69
389476	4203642	Lavo called it, never mind though.	Lavo called i, never mind though.	199690258	1477361062909	1477361063034	d	68
389476	4203642	Lavo called it, never mind though.	Lavo called i, never mind though.	199690257	1477361062956	1477361063023	 	32
389476	4203642	Lavo called it, never mind though.	Lavo called i, never mind though.	199690259	1477361063112	1477361063216	i	73
389476	4203642	Lavo called it, never mind though.	Lavo called i, never mind though.	199690260	1477361063788	1477361063877	,	188
389476	4203642	Lavo called it, never mind though.	Lavo called i, never mind though.	199690261	1477361063979	1477361064047	 	32
389476	4203642	Lavo called it, never mind though.	Lavo called i, never mind though.	199690262	1477361064137	1477361064223	n	78
389476	4203642	Lavo called it, never mind though.	Lavo called i, never mind though.	199690263	1477361064246	1477361064384	e	69
389476	4203642	Lavo called it, never mind though.	Lavo called i, never mind though.	199690280	1477361064394	1477361064473	v	86
389476	4203642	Lavo called it, never mind though.	Lavo called i, never mind though.	199690282	1477361064580	1477361064748	e	69
389476	4203642	Lavo called it, never mind though.	Lavo called i, never mind though.	199690285	1477361064682	1477361064835	r	82
389476	4203642	Lavo called it, never mind though.	Lavo called i, never mind though.	199690289	1477361064842	1477361064895	 	32
389476	4203642	Lavo called it, never mind though.	Lavo called i, never mind though.	199690294	1477361064977	1477361065069	m	77
389476	4203642	Lavo called it, never mind though.	Lavo called i, never mind though.	199690302	1477361065124	1477361065255	i	73
389476	4203642	Lavo called it, never mind though.	Lavo called i, never mind though.	199690303	1477361065196	1477361065278	n	78
389476	4203642	Lavo called it, never mind though.	Lavo called i, never mind though.	199690304	1477361065326	1477361065408	d	68
389476	4203642	Lavo called it, never mind though.	Lavo called i, never mind though.	199690305	1477361065414	1477361065512	 	32
389476	4203642	Lavo called it, never mind though.	Lavo called i, never mind though.	199690307	1477361065600	1477361065689	t	84
389476	4203642	Lavo called it, never mind though.	Lavo called i, never mind though.	199690336	1477361065656	1477361065731	h	72
389476	4203642	Lavo called it, never mind though.	Lavo called i, never mind though.	199690340	1477361065786	1477361065900	o	79
389476	4203642	Lavo called it, never mind though.	Lavo called i, never mind though.	199690343	1477361065867	1477361065950	u	85
389476	4203642	Lavo called it, never mind though.	Lavo called i, never mind though.	199690345	1477361065992	1477361066024	g	71
389476	4203642	Lavo called it, never mind though.	Lavo called i, never mind though.	199690347	1477361066038	1477361066120	h	72
389476	4203652	We are down to 3 employees here in Denver.	We are down to 3 employees here in Denver.	199690492	1477361069989	1477361070619	SHIFT	16
389476	4203652	We are down to 3 employees here in Denver.	We are down to 3 employees here in Denver.	199690496	1477361070547	1477361070671	W	87
389476	4203652	We are down to 3 employees here in Denver.	We are down to 3 employees here in Denver.	199690498	1477361070770	1477361070866	e	69
389476	4203652	We are down to 3 employees here in Denver.	We are down to 3 employees here in Denver.	199690502	1477361070920	1477361071014	 	32
389476	4203652	We are down to 3 employees here in Denver.	We are down to 3 employees here in Denver.	199690505	1477361071026	1477361071118	a	65
389476	4203652	We are down to 3 employees here in Denver.	We are down to 3 employees here in Denver.	199690509	1477361071217	1477361071329	r	82
389476	4203652	We are down to 3 employees here in Denver.	We are down to 3 employees here in Denver.	199690515	1477361071302	1477361071398	e	69
389476	4203652	We are down to 3 employees here in Denver.	We are down to 3 employees here in Denver.	199690516	1477361071405	1477361071498	 	32
389476	4203652	We are down to 3 employees here in Denver.	We are down to 3 employees here in Denver.	199690518	1477361071520	1477361071618	d	68
389476	4203652	We are down to 3 employees here in Denver.	We are down to 3 employees here in Denver.	199690520	1477361071625	1477361071721	o	79
389476	4203652	We are down to 3 employees here in Denver.	We are down to 3 employees here in Denver.	199690522	1477361071709	1477361071824	w	87
389476	4203652	We are down to 3 employees here in Denver.	We are down to 3 employees here in Denver.	199690550	1477361071811	1477361071884	n	78
389476	4203652	We are down to 3 employees here in Denver.	We are down to 3 employees here in Denver.	199690552	1477361071959	1477361072045	 	32
389476	4203652	We are down to 3 employees here in Denver.	We are down to 3 employees here in Denver.	199690554	1477361072053	1477361072145	t	84
389476	4203652	We are down to 3 employees here in Denver.	We are down to 3 employees here in Denver.	199690555	1477361072152	1477361072225	o	79
389476	4203652	We are down to 3 employees here in Denver.	We are down to 3 employees here in Denver.	199690556	1477361072299	1477361072399	 	32
389476	4203652	We are down to 3 employees here in Denver.	We are down to 3 employees here in Denver.	199690558	1477361072633	1477361072747	3	51
389476	4203652	We are down to 3 employees here in Denver.	We are down to 3 employees here in Denver.	199690571	1477361072786	1477361072871	 	32
389476	4203652	We are down to 3 employees here in Denver.	We are down to 3 employees here in Denver.	199690574	1477361072905	1477361073012	e	69
389476	4203652	We are down to 3 employees here in Denver.	We are down to 3 employees here in Denver.	199690578	1477361073000	1477361073069	m	77
389476	4203652	We are down to 3 employees here in Denver.	We are down to 3 employees here in Denver.	199690583	1477361073136	1477361073238	p	80
389476	4203652	We are down to 3 employees here in Denver.	We are down to 3 employees here in Denver.	199690627	1477361073215	1477361073293	l	76
389476	4203652	We are down to 3 employees here in Denver.	We are down to 3 employees here in Denver.	199690629	1477361073360	1477361073474	o	79
389476	4203652	We are down to 3 employees here in Denver.	We are down to 3 employees here in Denver.	199690633	1477361073625	1477361073697	y	89
389476	4203652	We are down to 3 employees here in Denver.	We are down to 3 employees here in Denver.	199690638	1477361073706	1477361073815	e	69
389476	4203652	We are down to 3 employees here in Denver.	We are down to 3 employees here in Denver.	199690641	1477361073923	1477361073979	s	83
389476	4203652	We are down to 3 employees here in Denver.	We are down to 3 employees here in Denver.	199690643	1477361074053	1477361074141	s	83
389476	4203652	We are down to 3 employees here in Denver.	We are down to 3 employees here in Denver.	199690675	1477361074604	1477361074675	BKSP	8
389476	4203652	We are down to 3 employees here in Denver.	We are down to 3 employees here in Denver.	199690677	1477361074749	1477361074834	BKSP	8
389476	4203652	We are down to 3 employees here in Denver.	We are down to 3 employees here in Denver.	199690678	1477361074871	1477361074967	e	69
389476	4203652	We are down to 3 employees here in Denver.	We are down to 3 employees here in Denver.	199690679	1477361075076	1477361075198	s	83
389476	4203652	We are down to 3 employees here in Denver.	We are down to 3 employees here in Denver.	199690680	1477361075211	1477361075308	 	32
389476	4203652	We are down to 3 employees here in Denver.	We are down to 3 employees here in Denver.	199690682	1477361075469	1477361075568	h	72
389476	4203652	We are down to 3 employees here in Denver.	We are down to 3 employees here in Denver.	199690684	1477361075575	1477361075698	e	69
389476	4203652	We are down to 3 employees here in Denver.	We are down to 3 employees here in Denver.	199690702	1477361075669	1477361075783	r	82
389476	4203652	We are down to 3 employees here in Denver.	We are down to 3 employees here in Denver.	199690704	1477361075768	1477361075904	e	69
389476	4203652	We are down to 3 employees here in Denver.	We are down to 3 employees here in Denver.	199690705	1477361075892	1477361075970	 	32
389476	4203652	We are down to 3 employees here in Denver.	We are down to 3 employees here in Denver.	199690707	1477361076053	1477361076163	i	73
389476	4203652	We are down to 3 employees here in Denver.	We are down to 3 employees here in Denver.	199690708	1477361076124	1477361076207	n	78
389476	4203652	We are down to 3 employees here in Denver.	We are down to 3 employees here in Denver.	199690710	1477361076312	1477361076406	 	32
389476	4203652	We are down to 3 employees here in Denver.	We are down to 3 employees here in Denver.	199690794	1477361076603	1477361077067	SHIFT	16
389476	4203652	We are down to 3 employees here in Denver.	We are down to 3 employees here in Denver.	199690792	1477361076854	1477361077020	D	68
389476	4203652	We are down to 3 employees here in Denver.	We are down to 3 employees here in Denver.	199690796	1477361077421	1477361077493	e	69
389476	4203652	We are down to 3 employees here in Denver.	We are down to 3 employees here in Denver.	199690799	1477361077592	1477361077660	n	78
389476	4203652	We are down to 3 employees here in Denver.	We are down to 3 employees here in Denver.	199690802	1477361077830	1477361077924	v	86
389476	4203652	We are down to 3 employees here in Denver.	We are down to 3 employees here in Denver.	199690807	1477361078021	1477361078206	e	69
389476	4203652	We are down to 3 employees here in Denver.	We are down to 3 employees here in Denver.	199690823	1477361078139	1477361078287	r	82
389476	4203661	We sold the UK business to AEP.	We sold the UK business to AEP.	199691283	1477361078891	1477361087851	.	190
389476	4203661	We sold the UK business to AEP.	We sold the UK business to AEP.	199691063	1477361082193	1477361082662	SHIFT	16
389476	4203661	We sold the UK business to AEP.	We sold the UK business to AEP.	199691065	1477361082573	1477361082692	W	87
389476	4203661	We sold the UK business to AEP.	We sold the UK business to AEP.	199691067	1477361082810	1477361082913	e	69
389476	4203661	We sold the UK business to AEP.	We sold the UK business to AEP.	199691069	1477361082942	1477361083039	 	32
389476	4203661	We sold the UK business to AEP.	We sold the UK business to AEP.	199691073	1477361083193	1477361083319	s	83
389476	4203661	We sold the UK business to AEP.	We sold the UK business to AEP.	199691086	1477361083252	1477361083329	o	79
389476	4203661	We sold the UK business to AEP.	We sold the UK business to AEP.	199691088	1477361083393	1477361083502	l	76
389476	4203661	We sold the UK business to AEP.	We sold the UK business to AEP.	199691091	1477361083486	1477361083572	d	68
389476	4203661	We sold the UK business to AEP.	We sold the UK business to AEP.	199691094	1477361083616	1477361083689	 	32
389476	4203661	We sold the UK business to AEP.	We sold the UK business to AEP.	199691097	1477361083726	1477361083830	t	84
389476	4203661	We sold the UK business to AEP.	We sold the UK business to AEP.	199691137	1477361083818	1477361083904	h	72
389476	4203661	We sold the UK business to AEP.	We sold the UK business to AEP.	199691140	1477361083913	1477361084011	e	69
389476	4203661	We sold the UK business to AEP.	We sold the UK business to AEP.	199691142	1477361084043	1477361084135	 	32
389476	4203661	We sold the UK business to AEP.	We sold the UK business to AEP.	199691150	1477361084143	1477361084923	SHIFT	16
389476	4203661	We sold the UK business to AEP.	We sold the UK business to AEP.	199691144	1477361084437	1477361084518	U	85
389476	4203661	We sold the UK business to AEP.	We sold the UK business to AEP.	199691147	1477361084613	1477361084719	K	75
389476	4203661	We sold the UK business to AEP.	We sold the UK business to AEP.	199691175	1477361084841	1477361084949	 	32
389476	4203661	We sold the UK business to AEP.	We sold the UK business to AEP.	199691177	1477361085127	1477361085214	b	66
389476	4203661	We sold the UK business to AEP.	We sold the UK business to AEP.	199691179	1477361085297	1477361085390	u	85
389476	4203661	We sold the UK business to AEP.	We sold the UK business to AEP.	199691181	1477361085402	1477361085513	s	83
389476	4203661	We sold the UK business to AEP.	We sold the UK business to AEP.	199691183	1477361085521	1477361085645	i	73
389476	4203661	We sold the UK business to AEP.	We sold the UK business to AEP.	199691198	1477361085596	1477361085698	n	78
389476	4203661	We sold the UK business to AEP.	We sold the UK business to AEP.	199691199	1477361085726	1477361085840	e	69
389476	4203661	We sold the UK business to AEP.	We sold the UK business to AEP.	199691200	1477361085945	1477361086017	s	83
389476	4203661	We sold the UK business to AEP.	We sold the UK business to AEP.	199691201	1477361086110	1477361086161	s	83
389476	4203661	We sold the UK business to AEP.	We sold the UK business to AEP.	199691203	1477361086204	1477361086301	 	32
389476	4203661	We sold the UK business to AEP.	We sold the UK business to AEP.	199691206	1477361086400	1477361086495	t	84
389476	4203661	We sold the UK business to AEP.	We sold the UK business to AEP.	199691266	1477361086473	1477361086552	o	79
389476	4203661	We sold the UK business to AEP.	We sold the UK business to AEP.	199691270	1477361086633	1477361086724	 	32
389476	4203661	We sold the UK business to AEP.	We sold the UK business to AEP.	199691281	1477361086738	1477361087500	SHIFT	16
389476	4203661	We sold the UK business to AEP.	We sold the UK business to AEP.	199691273	1477361086939	1477361087075	A	65
389476	4203661	We sold the UK business to AEP.	We sold the UK business to AEP.	199691276	1477361087160	1477361087296	E	69
389476	4203661	We sold the UK business to AEP.	We sold the UK business to AEP.	199691278	1477361087335	1477361087436	P	80
389476	4203667	Let me know if you can't open it.	Let me know if you can't open it.	199691448	1477361091139	1477361091561	SHIFT	16
389476	4203667	Let me know if you can't open it.	Let me know if you can't open it.	199691449	1477361091504	1477361091596	L	76
389476	4203667	Let me know if you can't open it.	Let me know if you can't open it.	199691450	1477361091724	1477361091864	e	69
389476	4203667	Let me know if you can't open it.	Let me know if you can't open it.	199691451	1477361091852	1477361091927	t	84
389476	4203667	Let me know if you can't open it.	Let me know if you can't open it.	199691452	1477361091881	1477361091957	 	32
389476	4203667	Let me know if you can't open it.	Let me know if you can't open it.	199691453	1477361092046	1477361092145	m	77
389476	4203667	Let me know if you can't open it.	Let me know if you can't open it.	199691470	1477361092182	1477361092284	e	69
389476	4203667	Let me know if you can't open it.	Let me know if you can't open it.	199691473	1477361092272	1477361092354	 	32
389476	4203667	Let me know if you can't open it.	Let me know if you can't open it.	199691479	1477361092442	1477361092520	k	75
389476	4203667	Let me know if you can't open it.	Let me know if you can't open it.	199691486	1477361092496	1477361092580	n	78
389476	4203667	Let me know if you can't open it.	Let me know if you can't open it.	199691492	1477361092708	1477361092828	i	73
389476	4203667	Let me know if you can't open it.	Let me know if you can't open it.	199691563	1477361092887	1477361092993	w	87
389476	4203667	Let me know if you can't open it.	Let me know if you can't open it.	199691564	1477361093298	1477361093360	BKSP	8
389476	4203667	Let me know if you can't open it.	Let me know if you can't open it.	199691566	1477361093423	1477361093477	BKSP	8
389476	4203667	Let me know if you can't open it.	Let me know if you can't open it.	199691568	1477361093682	1477361093808	o	79
389476	4203667	Let me know if you can't open it.	Let me know if you can't open it.	199691570	1477361093855	1477361093953	w	87
389476	4203667	Let me know if you can't open it.	Let me know if you can't open it.	199691572	1477361094016	1477361094112	 	32
389476	4203667	Let me know if you can't open it.	Let me know if you can't open it.	199691574	1477361094226	1477361094329	i	73
389476	4203667	Let me know if you can't open it.	Let me know if you can't open it.	199691595	1477361094391	1477361094432	f	70
389476	4203667	Let me know if you can't open it.	Let me know if you can't open it.	199691597	1477361094912	1477361095008	 	32
389476	4203667	Let me know if you can't open it.	Let me know if you can't open it.	199691600	1477361095191	1477361095267	y	89
389476	4203667	Let me know if you can't open it.	Let me know if you can't open it.	199691603	1477361095245	1477361095364	o	79
389476	4203667	Let me know if you can't open it.	Let me know if you can't open it.	199691650	1477361095313	1477361095416	u	85
389476	4203667	Let me know if you can't open it.	Let me know if you can't open it.	199691653	1477361095525	1477361095620	 	32
389476	4203667	Let me know if you can't open it.	Let me know if you can't open it.	199691656	1477361095700	1477361095792	c	67
389476	4203667	Let me know if you can't open it.	Let me know if you can't open it.	199691659	1477361095837	1477361095970	a	65
389476	4203667	Let me know if you can't open it.	Let me know if you can't open it.	199691666	1477361095977	1477361096053	n	78
389476	4203667	Let me know if you can't open it.	Let me know if you can't open it.	199691670	1477361096549	1477361096646	'	222
389476	4203667	Let me know if you can't open it.	Let me know if you can't open it.	199691692	1477361096794	1477361096883	t	84
389476	4203667	Let me know if you can't open it.	Let me know if you can't open it.	199691694	1477361096890	1477361096953	 	32
389476	4203667	Let me know if you can't open it.	Let me know if you can't open it.	199691697	1477361097095	1477361097184	o	79
389476	4203667	Let me know if you can't open it.	Let me know if you can't open it.	199691700	1477361097155	1477361097248	p	80
389476	4203667	Let me know if you can't open it.	Let me know if you can't open it.	199691703	1477361097256	1477361097366	e	69
389476	4203667	Let me know if you can't open it.	Let me know if you can't open it.	199691729	1477361097347	1477361097406	n	78
389476	4203667	Let me know if you can't open it.	Let me know if you can't open it.	199691732	1477361097491	1477361097554	 	32
389476	4203667	Let me know if you can't open it.	Let me know if you can't open it.	199691736	1477361097623	1477361097691	i	73
389476	4203667	Let me know if you can't open it.	Let me know if you can't open it.	199691741	1477361097709	1477361097802	t	84
389476	4203667	Let me know if you can't open it.	Let me know if you can't open it.	199691746	1477361097844	1477361097957	.	190
389476	4203679	Sources said the officers will be part of the coordination office.	Sources said the officers will be part of the coordination office.	199692099	1477361104426	1477361104953	SHIFT	16
389476	4203679	Sources said the officers will be part of the coordination office.	Sources said the officers will be part of the coordination office.	199692101	1477361104883	1477361104984	S	83
389476	4203679	Sources said the officers will be part of the coordination office.	Sources said the officers will be part of the coordination office.	199692104	1477361105080	1477361105176	p	79
389476	4203679	Sources said the officers will be part of the coordination office.	Sources said the officers will be part of the coordination office.	199692107	1477361105156	1477361105256	u	85
389476	4203679	Sources said the officers will be part of the coordination office.	Sources said the officers will be part of the coordination office.	199692111	1477361105527	1477361105603	BKSP	8
389476	4203679	Sources said the officers will be part of the coordination office.	Sources said the officers will be part of the coordination office.	199692115	1477361105698	1477361105754	BKSP	8
389476	4203679	Sources said the officers will be part of the coordination office.	Sources said the officers will be part of the coordination office.	199692118	1477361106373	1477361106462	u	85
389476	4203679	Sources said the officers will be part of the coordination office.	Sources said the officers will be part of the coordination office.	199692133	1477361106518	1477361106604	r	82
389476	4203679	Sources said the officers will be part of the coordination office.	Sources said the officers will be part of the coordination office.	199692135	1477361106745	1477361106837	c	67
389476	4203679	Sources said the officers will be part of the coordination office.	Sources said the officers will be part of the coordination office.	199692137	1477361106882	1477361106965	e	69
389476	4203679	Sources said the officers will be part of the coordination office.	Sources said the officers will be part of the coordination office.	199692138	1477361107073	1477361107199	s	83
389476	4203679	Sources said the officers will be part of the coordination office.	Sources said the officers will be part of the coordination office.	199692182	1477361107188	1477361107290	 	32
389476	4203679	Sources said the officers will be part of the coordination office.	Sources said the officers will be part of the coordination office.	199692184	1477361107339	1477361107502	s	83
389476	4203679	Sources said the officers will be part of the coordination office.	Sources said the officers will be part of the coordination office.	199692185	1477361107466	1477361107605	a	65
389476	4203679	Sources said the officers will be part of the coordination office.	Sources said the officers will be part of the coordination office.	199692186	1477361107613	1477361107691	i	73
389476	4203679	Sources said the officers will be part of the coordination office.	Sources said the officers will be part of the coordination office.	199692187	1477361107709	1477361107823	d	68
389476	4203679	Sources said the officers will be part of the coordination office.	Sources said the officers will be part of the coordination office.	199692188	1477361107845	1477361107936	 	32
389476	4203679	Sources said the officers will be part of the coordination office.	Sources said the officers will be part of the coordination office.	199692201	1477361107962	1477361108058	t	84
389476	4203679	Sources said the officers will be part of the coordination office.	Sources said the officers will be part of the coordination office.	199692203	1477361108076	1477361108149	h	72
389476	4203679	Sources said the officers will be part of the coordination office.	Sources said the officers will be part of the coordination office.	199692206	1477361108187	1477361108290	e	69
389476	4203679	Sources said the officers will be part of the coordination office.	Sources said the officers will be part of the coordination office.	199692210	1477361108310	1477361108390	 	32
389476	4203679	Sources said the officers will be part of the coordination office.	Sources said the officers will be part of the coordination office.	199692216	1477361108480	1477361108565	o	79
389476	4203679	Sources said the officers will be part of the coordination office.	Sources said the officers will be part of the coordination office.	199692245	1477361108626	1477361108707	f	70
389476	4203679	Sources said the officers will be part of the coordination office.	Sources said the officers will be part of the coordination office.	199692248	1477361108762	1477361108855	f	70
389476	4203679	Sources said the officers will be part of the coordination office.	Sources said the officers will be part of the coordination office.	199692250	1477361108866	1477361108959	i	73
389476	4203679	Sources said the officers will be part of the coordination office.	Sources said the officers will be part of the coordination office.	199692251	1477361108968	1477361109066	c	67
389476	4203679	Sources said the officers will be part of the coordination office.	Sources said the officers will be part of the coordination office.	199692253	1477361109149	1477361109300	e	69
389476	4203679	Sources said the officers will be part of the coordination office.	Sources said the officers will be part of the coordination office.	199692300	1477361109320	1477361109458	r	82
389476	4203679	Sources said the officers will be part of the coordination office.	Sources said the officers will be part of the coordination office.	199692302	1477361109536	1477361109664	s	83
389476	4203679	Sources said the officers will be part of the coordination office.	Sources said the officers will be part of the coordination office.	199692303	1477361109708	1477361109804	 	32
389476	4203679	Sources said the officers will be part of the coordination office.	Sources said the officers will be part of the coordination office.	199692305	1477361109839	1477361109964	w	87
389476	4203679	Sources said the officers will be part of the coordination office.	Sources said the officers will be part of the coordination office.	199692307	1477361110278	1477361110367	i	73
389476	4203679	Sources said the officers will be part of the coordination office.	Sources said the officers will be part of the coordination office.	199692323	1477361110491	1477361110557	l	76
389476	4203679	Sources said the officers will be part of the coordination office.	Sources said the officers will be part of the coordination office.	199692329	1477361110615	1477361110680	l	76
389476	4203679	Sources said the officers will be part of the coordination office.	Sources said the officers will be part of the coordination office.	199692333	1477361110774	1477361110840	 	32
389476	4203679	Sources said the officers will be part of the coordination office.	Sources said the officers will be part of the coordination office.	199692338	1477361110908	1477361111017	b	66
389476	4203679	Sources said the officers will be part of the coordination office.	Sources said the officers will be part of the coordination office.	199692342	1477361111060	1477361111149	e	69
389476	4203679	Sources said the officers will be part of the coordination office.	Sources said the officers will be part of the coordination office.	199692389	1477361111126	1477361111211	 	32
389476	4203679	Sources said the officers will be part of the coordination office.	Sources said the officers will be part of the coordination office.	199692391	1477361111307	1477361111411	p	80
389476	4203679	Sources said the officers will be part of the coordination office.	Sources said the officers will be part of the coordination office.	199692393	1477361111500	1477361111614	a	65
389476	4203679	Sources said the officers will be part of the coordination office.	Sources said the officers will be part of the coordination office.	199692395	1477361111768	1477361111894	r	82
389476	4203679	Sources said the officers will be part of the coordination office.	Sources said the officers will be part of the coordination office.	199692397	1477361111858	1477361111976	t	84
389476	4203679	Sources said the officers will be part of the coordination office.	Sources said the officers will be part of the coordination office.	199692412	1477361111910	1477361111993	 	32
389476	4203679	Sources said the officers will be part of the coordination office.	Sources said the officers will be part of the coordination office.	199692413	1477361112065	1477361112158	o	79
389476	4203679	Sources said the officers will be part of the coordination office.	Sources said the officers will be part of the coordination office.	199692415	1477361112172	1477361112279	f	70
389476	4203679	Sources said the officers will be part of the coordination office.	Sources said the officers will be part of the coordination office.	199692418	1477361112267	1477361112339	 	32
389476	4203679	Sources said the officers will be part of the coordination office.	Sources said the officers will be part of the coordination office.	199692421	1477361112415	1477361112492	t	84
389476	4203679	Sources said the officers will be part of the coordination office.	Sources said the officers will be part of the coordination office.	199692455	1477361112469	1477361112542	h	72
389476	4203679	Sources said the officers will be part of the coordination office.	Sources said the officers will be part of the coordination office.	199692460	1477361112613	1477361112711	e	69
389476	4203679	Sources said the officers will be part of the coordination office.	Sources said the officers will be part of the coordination office.	199692464	1477361112699	1477361112801	 	32
389476	4203679	Sources said the officers will be part of the coordination office.	Sources said the officers will be part of the coordination office.	199692469	1477361112920	1477361113006	c	67
389476	4203679	Sources said the officers will be part of the coordination office.	Sources said the officers will be part of the coordination office.	199692476	1477361113053	1477361113126	o	79
389476	4203679	Sources said the officers will be part of the coordination office.	Sources said the officers will be part of the coordination office.	199692481	1477361113203	1477361113283	o	79
389476	4203679	Sources said the officers will be part of the coordination office.	Sources said the officers will be part of the coordination office.	199692495	1477361113334	1477361113408	r	82
389476	4203679	Sources said the officers will be part of the coordination office.	Sources said the officers will be part of the coordination office.	199692496	1477361113526	1477361113642	d	68
389476	4203679	Sources said the officers will be part of the coordination office.	Sources said the officers will be part of the coordination office.	199692498	1477361113678	1477361113812	i	73
389476	4203679	Sources said the officers will be part of the coordination office.	Sources said the officers will be part of the coordination office.	199692500	1477361113768	1477361113865	n	78
389476	4203679	Sources said the officers will be part of the coordination office.	Sources said the officers will be part of the coordination office.	199692504	1477361113894	1477361114002	a	65
389476	4203679	Sources said the officers will be part of the coordination office.	Sources said the officers will be part of the coordination office.	199692526	1477361114134	1477361114236	t	84
389476	4203679	Sources said the officers will be part of the coordination office.	Sources said the officers will be part of the coordination office.	199692530	1477361114185	1477361114308	i	73
389476	4203679	Sources said the officers will be part of the coordination office.	Sources said the officers will be part of the coordination office.	199692534	1477361114256	1477361114338	o	79
389476	4203679	Sources said the officers will be part of the coordination office.	Sources said the officers will be part of the coordination office.	199692539	1477361114445	1477361114518	n	78
389476	4203679	Sources said the officers will be part of the coordination office.	Sources said the officers will be part of the coordination office.	199692544	1477361114601	1477361114683	 	32
389476	4203679	Sources said the officers will be part of the coordination office.	Sources said the officers will be part of the coordination office.	199692564	1477361114768	1477361114854	o	79
389476	4203679	Sources said the officers will be part of the coordination office.	Sources said the officers will be part of the coordination office.	199692565	1477361114908	1477361114974	f	70
389476	4203679	Sources said the officers will be part of the coordination office.	Sources said the officers will be part of the coordination office.	199692566	1477361115029	1477361115123	f	70
389476	4203679	Sources said the officers will be part of the coordination office.	Sources said the officers will be part of the coordination office.	199692568	1477361115155	1477361115249	i	73
389476	4203679	Sources said the officers will be part of the coordination office.	Sources said the officers will be part of the coordination office.	199692590	1477361115237	1477361115369	c	67
389476	4203679	Sources said the officers will be part of the coordination office.	Sources said the officers will be part of the coordination office.	199692593	1477361115376	1477361115490	e	69
389476	4203679	Sources said the officers will be part of the coordination office.	Sources said the officers will be part of the coordination office.	199692597	1477361115469	1477361115582	.	190
