PARTICIPANT_ID	TEST_SECTION_ID	SENTENCE	USER_INPUT	KEYSTROKE_ID	PRESS_TIME	RELEASE_TIME	LETTER	KEYCODE
39395	428031	The Columbia mission takes off from the Kennedy space centre.	The Columbia mission takes off from the Kennedy space centre. 	20372860	1472473094476	1472473094731	SHIFT	16
39395	428031	The Columbia mission takes off from the Kennedy space centre.	The Columbia mission takes off from the Kennedy space centre. 	20372863	1472473094670	1472473094827	T	84
39395	428031	The Columbia mission takes off from the Kennedy space centre.	The Columbia mission takes off from the Kennedy space centre. 	20372867	1472473094773	1472473094897	h	72
39395	428031	The Columbia mission takes off from the Kennedy space centre.	The Columbia mission takes off from the Kennedy space centre. 	20372873	1472473094904	1472473095035	e	69
39395	428031	The Columbia mission takes off from the Kennedy space centre.	The Columbia mission takes off from the Kennedy space centre. 	20372876	1472473095050	1472473095140	 	32
39395	428031	The Columbia mission takes off from the Kennedy space centre.	The Columbia mission takes off from the Kennedy space centre. 	20372879	1472473095512	1472473096043	SHIFT	16
39395	428031	The Columbia mission takes off from the Kennedy space centre.	The Columbia mission takes off from the Kennedy space centre. 	20372891	1472473095955	1472473096096	C	67
39395	428031	The Columbia mission takes off from the Kennedy space centre.	The Columbia mission takes off from the Kennedy space centre. 	20372894	1472473096056	1472473096164	o	79
39395	428031	The Columbia mission takes off from the Kennedy space centre.	The Columbia mission takes off from the Kennedy space centre. 	20372898	1472473096255	1472473096405	l	76
39395	428031	The Columbia mission takes off from the Kennedy space centre.	The Columbia mission takes off from the Kennedy space centre. 	20372900	1472473096686	1472473096774	u	85
39395	428031	The Columbia mission takes off from the Kennedy space centre.	The Columbia mission takes off from the Kennedy space centre. 	20372904	1472473096889	1472473097009	m	77
39395	428031	The Columbia mission takes off from the Kennedy space centre.	The Columbia mission takes off from the Kennedy space centre. 	20372906	1472473097025	1472473097120	b	66
39395	428031	The Columbia mission takes off from the Kennedy space centre.	The Columbia mission takes off from the Kennedy space centre. 	20372961	1472473097149	1472473097252	i	73
39395	428031	The Columbia mission takes off from the Kennedy space centre.	The Columbia mission takes off from the Kennedy space centre. 	20372964	1472473097375	1472473097572	a	65
39395	428031	The Columbia mission takes off from the Kennedy space centre.	The Columbia mission takes off from the Kennedy space centre. 	20372968	1472473097576	1472473097675	 	32
39395	428031	The Columbia mission takes off from the Kennedy space centre.	The Columbia mission takes off from the Kennedy space centre. 	20372974	1472473097948	1472473098080	m	77
39395	428031	The Columbia mission takes off from the Kennedy space centre.	The Columbia mission takes off from the Kennedy space centre. 	20372980	1472473098121	1472473098230	i	73
39395	428031	The Columbia mission takes off from the Kennedy space centre.	The Columbia mission takes off from the Kennedy space centre. 	20373000	1472473098223	1472473098307	s	83
39395	428031	The Columbia mission takes off from the Kennedy space centre.	The Columbia mission takes off from the Kennedy space centre. 	20373004	1472473098382	1472473098461	s	83
39395	428031	The Columbia mission takes off from the Kennedy space centre.	The Columbia mission takes off from the Kennedy space centre. 	20373005	1472473098466	1472473098623	i	73
39395	428031	The Columbia mission takes off from the Kennedy space centre.	The Columbia mission takes off from the Kennedy space centre. 	20373006	1472473098628	1472473098777	o	79
39395	428031	The Columbia mission takes off from the Kennedy space centre.	The Columbia mission takes off from the Kennedy space centre. 	20373007	1472473098801	1472473098884	n	78
39395	428031	The Columbia mission takes off from the Kennedy space centre.	The Columbia mission takes off from the Kennedy space centre. 	20373008	1472473098916	1472473098995	 	32
39395	428031	The Columbia mission takes off from the Kennedy space centre.	The Columbia mission takes off from the Kennedy space centre. 	20373027	1472473099061	1472473099173	t	84
39395	428031	The Columbia mission takes off from the Kennedy space centre.	The Columbia mission takes off from the Kennedy space centre. 	20373033	1472473099215	1472473099334	k	65
39395	428031	The Columbia mission takes off from the Kennedy space centre.	The Columbia mission takes off from the Kennedy space centre. 	20373039	1472473099400	1472473099495	e	69
39395	428031	The Columbia mission takes off from the Kennedy space centre.	The Columbia mission takes off from the Kennedy space centre. 	20373043	1472473099619	1472473099673	e	69
39395	428031	The Columbia mission takes off from the Kennedy space centre.	The Columbia mission takes off from the Kennedy space centre. 	20373093	1472473100295	1472473100350	BKSP	8
39395	428031	The Columbia mission takes off from the Kennedy space centre.	The Columbia mission takes off from the Kennedy space centre. 	20373095	1472473100355	1472473100470	s	83
39395	428031	The Columbia mission takes off from the Kennedy space centre.	The Columbia mission takes off from the Kennedy space centre. 	20373100	1472473100511	1472473100614	 	32
39395	428031	The Columbia mission takes off from the Kennedy space centre.	The Columbia mission takes off from the Kennedy space centre. 	20373104	1472473100796	1472473100917	o	79
39395	428031	The Columbia mission takes off from the Kennedy space centre.	The Columbia mission takes off from the Kennedy space centre. 	20373107	1472473100922	1472473100999	f	70
39395	428031	The Columbia mission takes off from the Kennedy space centre.	The Columbia mission takes off from the Kennedy space centre. 	20373108	1472473101197	1472473101318	 	32
39395	428031	The Columbia mission takes off from the Kennedy space centre.	The Columbia mission takes off from the Kennedy space centre. 	20373237	1472473101533	1472473101633	r	82
39395	428031	The Columbia mission takes off from the Kennedy space centre.	The Columbia mission takes off from the Kennedy space centre. 	20373241	1472473101638	1472473101752	o	79
39395	428031	The Columbia mission takes off from the Kennedy space centre.	The Columbia mission takes off from the Kennedy space centre. 	20373245	1472473101781	1472473101864	m	77
39395	428031	The Columbia mission takes off from the Kennedy space centre.	The Columbia mission takes off from the Kennedy space centre. 	20373248	1472473102261	1472473102327	BKSP	8
39395	428031	The Columbia mission takes off from the Kennedy space centre.	The Columbia mission takes off from the Kennedy space centre. 	20373251	1472473102417	1472473102488	BKSP	8
39395	428031	The Columbia mission takes off from the Kennedy space centre.	The Columbia mission takes off from the Kennedy space centre. 	20373254	1472473102545	1472473102615	BKSP	8
39395	428031	The Columbia mission takes off from the Kennedy space centre.	The Columbia mission takes off from the Kennedy space centre. 	20373257	1472473102764	1472473102909	f	70
39395	428031	The Columbia mission takes off from the Kennedy space centre.	The Columbia mission takes off from the Kennedy space centre. 	20373260	1472473103386	1472473103457	BKSP	8
39395	428031	The Columbia mission takes off from the Kennedy space centre.	The Columbia mission takes off from the Kennedy space centre. 	20373266	1472473103971	1472473104075	BKSP	8
39395	428031	The Columbia mission takes off from the Kennedy space centre.	The Columbia mission takes off from the Kennedy space centre. 	20373271	1472473104273	1472473104427	f	70
39395	428031	The Columbia mission takes off from the Kennedy space centre.	The Columbia mission takes off from the Kennedy space centre. 	20373312	1472473104420	1472473104525	 	32
39395	428031	The Columbia mission takes off from the Kennedy space centre.	The Columbia mission takes off from the Kennedy space centre. 	20373316	1472473104558	1472473104658	f	70
39395	428031	The Columbia mission takes off from the Kennedy space centre.	The Columbia mission takes off from the Kennedy space centre. 	20373319	1472473104754	1472473104850	o	82
39395	428031	The Columbia mission takes off from the Kennedy space centre.	The Columbia mission takes off from the Kennedy space centre. 	20373322	1472473104917	1472473105040	m	77
39395	428031	The Columbia mission takes off from the Kennedy space centre.	The Columbia mission takes off from the Kennedy space centre. 	20373325	1472473105045	1472473105088	 	32
39395	428031	The Columbia mission takes off from the Kennedy space centre.	The Columbia mission takes off from the Kennedy space centre. 	20373339	1472473105154	1472473105258	t	84
39395	428031	The Columbia mission takes off from the Kennedy space centre.	The Columbia mission takes off from the Kennedy space centre. 	20373344	1472473105213	1472473105311	h	72
39395	428031	The Columbia mission takes off from the Kennedy space centre.	The Columbia mission takes off from the Kennedy space centre. 	20373350	1472473105575	1472473105662	e	69
39395	428031	The Columbia mission takes off from the Kennedy space centre.	The Columbia mission takes off from the Kennedy space centre. 	20373359	1472473105811	1472473105890	 	32
39395	428031	The Columbia mission takes off from the Kennedy space centre.	The Columbia mission takes off from the Kennedy space centre. 	20373440	1472473105956	1472473106204	SHIFT	16
39395	428031	The Columbia mission takes off from the Kennedy space centre.	The Columbia mission takes off from the Kennedy space centre. 	20373366	1472473106041	1472473106177	K	75
39395	428031	The Columbia mission takes off from the Kennedy space centre.	The Columbia mission takes off from the Kennedy space centre. 	20373443	1472473106270	1472473106366	i	73
39395	428031	The Columbia mission takes off from the Kennedy space centre.	The Columbia mission takes off from the Kennedy space centre. 	20373447	1472473106763	1472473106834	BKSP	8
39395	428031	The Columbia mission takes off from the Kennedy space centre.	The Columbia mission takes off from the Kennedy space centre. 	20373449	1472473106891	1472473107011	e	69
39395	428031	The Columbia mission takes off from the Kennedy space centre.	The Columbia mission takes off from the Kennedy space centre. 	20373453	1472473107044	1472473107159	n	78
39395	428031	The Columbia mission takes off from the Kennedy space centre.	The Columbia mission takes off from the Kennedy space centre. 	20373456	1472473107258	1472473107336	n	78
39395	428031	The Columbia mission takes off from the Kennedy space centre.	The Columbia mission takes off from the Kennedy space centre. 	20373459	1472473107759	1472473107839	e	69
39395	428031	The Columbia mission takes off from the Kennedy space centre.	The Columbia mission takes off from the Kennedy space centre. 	20373490	1472473107949	1472473108042	d	68
39395	428031	The Columbia mission takes off from the Kennedy space centre.	The Columbia mission takes off from the Kennedy space centre. 	20373495	1472473108035	1472473108124	y	89
39395	428031	The Columbia mission takes off from the Kennedy space centre.	The Columbia mission takes off from the Kennedy space centre. 	20373502	1472473108185	1472473108272	 	32
39395	428031	The Columbia mission takes off from the Kennedy space centre.	The Columbia mission takes off from the Kennedy space centre. 	20373506	1472473108621	1472473108753	s	83
39395	428031	The Columbia mission takes off from the Kennedy space centre.	The Columbia mission takes off from the Kennedy space centre. 	20373511	1472473108786	1472473108914	p	80
39395	428031	The Columbia mission takes off from the Kennedy space centre.	The Columbia mission takes off from the Kennedy space centre. 	20373601	1472473109080	1472473109246	a	65
39395	428031	The Columbia mission takes off from the Kennedy space centre.	The Columbia mission takes off from the Kennedy space centre. 	20373606	1472473109312	1472473109407	c	67
39395	428031	The Columbia mission takes off from the Kennedy space centre.	The Columbia mission takes off from the Kennedy space centre. 	20373610	1472473109888	1472473110008	e	69
39395	428031	The Columbia mission takes off from the Kennedy space centre.	The Columbia mission takes off from the Kennedy space centre. 	20373617	1472473110041	1472473110144	 	32
39395	428031	The Columbia mission takes off from the Kennedy space centre.	The Columbia mission takes off from the Kennedy space centre. 	20373621	1472473110252	1472473110368	c	67
39395	428031	The Columbia mission takes off from the Kennedy space centre.	The Columbia mission takes off from the Kennedy space centre. 	20373646	1472473110450	1472473110568	e	69
39395	428031	The Columbia mission takes off from the Kennedy space centre.	The Columbia mission takes off from the Kennedy space centre. 	20373648	1472473110534	1472473110670	n	78
39395	428031	The Columbia mission takes off from the Kennedy space centre.	The Columbia mission takes off from the Kennedy space centre. 	20373650	1472473110663	1472473110742	t	84
39395	428031	The Columbia mission takes off from the Kennedy space centre.	The Columbia mission takes off from the Kennedy space centre. 	20373655	1472473110841	1472473110923	r	82
39395	428031	The Columbia mission takes off from the Kennedy space centre.	The Columbia mission takes off from the Kennedy space centre. 	20373657	1472473111006	1472473111109	e	69
39395	428031	The Columbia mission takes off from the Kennedy space centre.	The Columbia mission takes off from the Kennedy space centre. 	20373744	1472473111274	1472473111386	.	190
39395	428031	The Columbia mission takes off from the Kennedy space centre.	The Columbia mission takes off from the Kennedy space centre. 	20373748	1472473111775	1472473111912	 	32
39395	428059	Will call later to explain.	Will call later to explain.	20373972	1472473114796	1472473115209	SHIFT	16
39395	428059	Will call later to explain.	Will call later to explain.	20373976	1472473115076	1472473115244	W	87
39395	428059	Will call later to explain.	Will call later to explain.	20373980	1472473115451	1472473115583	i	73
39395	428059	Will call later to explain.	Will call later to explain.	20373983	1472473115732	1472473115769	l	76
39395	428059	Will call later to explain.	Will call later to explain.	20373985	1472473115859	1472473115980	l	76
39395	428059	Will call later to explain.	Will call later to explain.	20373987	1472473116179	1472473116340	 	32
39395	428059	Will call later to explain.	Will call later to explain.	20374030	1472473116808	1472473116921	c	67
39395	428059	Will call later to explain.	Will call later to explain.	20374034	1472473116970	1472473117107	a	65
39395	428059	Will call later to explain.	Will call later to explain.	20374037	1472473117038	1472473117139	l	76
39395	428059	Will call later to explain.	Will call later to explain.	20374040	1472473117204	1472473117317	l	76
39395	428059	Will call later to explain.	Will call later to explain.	20374064	1472473117251	1472473117370	 	32
39395	428059	Will call later to explain.	Will call later to explain.	20374067	1472473117419	1472473117552	l	76
39395	428059	Will call later to explain.	Will call later to explain.	20374071	1472473117519	1472473117663	a	65
39395	428059	Will call later to explain.	Will call later to explain.	20374074	1472473117643	1472473117766	t	84
39395	428059	Will call later to explain.	Will call later to explain.	20374077	1472473117815	1472473117945	e	69
39395	428059	Will call later to explain.	Will call later to explain.	20374114	1472473117938	1472473118026	r	82
39395	428059	Will call later to explain.	Will call later to explain.	20374120	1472473118054	1472473118137	 	32
39395	428059	Will call later to explain.	Will call later to explain.	20374126	1472473118203	1472473118306	t	84
39395	428059	Will call later to explain.	Will call later to explain.	20374128	1472473118286	1472473118418	o	79
39395	428059	Will call later to explain.	Will call later to explain.	20374134	1472473118385	1472473118465	 	32
39395	428059	Will call later to explain.	Will call later to explain.	20374138	1472473118531	1472473118651	e	69
39395	428059	Will call later to explain.	Will call later to explain.	20374204	1472473118807	1472473118945	x	88
39395	428059	Will call later to explain.	Will call later to explain.	20374207	1472473118994	1472473119143	p	80
39395	428059	Will call later to explain.	Will call later to explain.	20374210	1472473119487	1472473119591	l	76
39395	428059	Will call later to explain.	Will call later to explain.	20374212	1472473119706	1472473119827	a	65
39395	428059	Will call later to explain.	Will call later to explain.	20374271	1472473119774	1472473119891	i	73
39395	428059	Will call later to explain.	Will call later to explain.	20374274	1472473119949	1472473120052	n	78
39395	428059	Will call later to explain.	Will call later to explain.	20374278	1472473120168	1472473120305	.	190
39395	428066	The Fed has not taken an official position on the issue.	The Fed has not taken an official position on the issue./	20374415	1472473122532	1472473122729	SHIFT	16
39395	428066	The Fed has not taken an official position on the issue.	The Fed has not taken an official position on the issue./	20374416	1472473122667	1472473122794	T	84
39395	428066	The Fed has not taken an official position on the issue.	The Fed has not taken an official position on the issue./	20374417	1472473122762	1472473122846	h	72
39395	428066	The Fed has not taken an official position on the issue.	The Fed has not taken an official position on the issue./	20374419	1472473122862	1472473122991	e	69
39395	428066	The Fed has not taken an official position on the issue.	The Fed has not taken an official position on the issue./	20374422	1472473122996	1472473123128	 	32
39395	428066	The Fed has not taken an official position on the issue.	The Fed has not taken an official position on the issue./	20374423	1472473123310	1472473123506	SHIFT	16
39395	428066	The Fed has not taken an official position on the issue.	The Fed has not taken an official position on the issue./	20374454	1472473123440	1472473123549	F	70
39395	428066	The Fed has not taken an official position on the issue.	The Fed has not taken an official position on the issue./	20374456	1472473123611	1472473123732	e	69
39395	428066	The Fed has not taken an official position on the issue.	The Fed has not taken an official position on the issue./	20374461	1472473123793	1472473123880	d	68
39395	428066	The Fed has not taken an official position on the issue.	The Fed has not taken an official position on the issue./	20374465	1472473123930	1472473124034	 	32
39395	428066	The Fed has not taken an official position on the issue.	The Fed has not taken an official position on the issue./	20374468	1472473124050	1472473124162	h	72
39395	428066	The Fed has not taken an official position on the issue.	The Fed has not taken an official position on the issue./	20374492	1472473124084	1472473124226	a	65
39395	428066	The Fed has not taken an official position on the issue.	The Fed has not taken an official position on the issue./	20374495	1472473124271	1472473124408	s	83
39395	428066	The Fed has not taken an official position on the issue.	The Fed has not taken an official position on the issue./	20374500	1472473124457	1472473124586	 	32
39395	428066	The Fed has not taken an official position on the issue.	The Fed has not taken an official position on the issue./	20374505	1472473124635	1472473124755	n	78
39395	428066	The Fed has not taken an official position on the issue.	The Fed has not taken an official position on the issue./	20374509	1472473124805	1472473124955	o	79
39395	428066	The Fed has not taken an official position on the issue.	The Fed has not taken an official position on the issue./	20374554	1472473124934	1472473125056	t	84
39395	428066	The Fed has not taken an official position on the issue.	The Fed has not taken an official position on the issue./	20374556	1472473125139	1472473125276	 	32
39395	428066	The Fed has not taken an official position on the issue.	The Fed has not taken an official position on the issue./	20374561	1472473125532	1472473125653	t	84
39395	428066	The Fed has not taken an official position on the issue.	The Fed has not taken an official position on the issue./	20374564	1472473125685	1472473125835	a	65
39395	428066	The Fed has not taken an official position on the issue.	The Fed has not taken an official position on the issue./	20374567	1472473125803	1472473125904	k	75
39395	428066	The Fed has not taken an official position on the issue.	The Fed has not taken an official position on the issue./	20374569	1472473125909	1472473126016	e	69
39395	428066	The Fed has not taken an official position on the issue.	The Fed has not taken an official position on the issue./	20374591	1472473126065	1472473126151	n	78
39395	428066	The Fed has not taken an official position on the issue.	The Fed has not taken an official position on the issue./	20374593	1472473126275	1472473126374	 	32
39395	428066	The Fed has not taken an official position on the issue.	The Fed has not taken an official position on the issue./	20374596	1472473126424	1472473126565	a	65
39395	428066	The Fed has not taken an official position on the issue.	The Fed has not taken an official position on the issue./	20374600	1472473126570	1472473126651	n	78
39395	428066	The Fed has not taken an official position on the issue.	The Fed has not taken an official position on the issue./	20374603	1472473126692	1472473126838	 	32
39395	428066	The Fed has not taken an official position on the issue.	The Fed has not taken an official position on the issue./	20374668	1472473127077	1472473127207	o	79
39395	428066	The Fed has not taken an official position on the issue.	The Fed has not taken an official position on the issue./	20374672	1472473127212	1472473127272	f	70
39395	428066	The Fed has not taken an official position on the issue.	The Fed has not taken an official position on the issue./	20374675	1472473127346	1472473127441	f	70
39395	428066	The Fed has not taken an official position on the issue.	The Fed has not taken an official position on the issue./	20374682	1472473127540	1472473127655	i	73
39395	428066	The Fed has not taken an official position on the issue.	The Fed has not taken an official position on the issue./	20374686	1472473127688	1472473127823	c	67
39395	428066	The Fed has not taken an official position on the issue.	The Fed has not taken an official position on the issue./	20374727	1472473127815	1472473127920	i	73
39395	428066	The Fed has not taken an official position on the issue.	The Fed has not taken an official position on the issue./	20374729	1472473128152	1472473128314	a	65
39395	428066	The Fed has not taken an official position on the issue.	The Fed has not taken an official position on the issue./	20374734	1472473128260	1472473128408	l	76
39395	428066	The Fed has not taken an official position on the issue.	The Fed has not taken an official position on the issue./	20374741	1472473128413	1472473128494	 	32
39395	428066	The Fed has not taken an official position on the issue.	The Fed has not taken an official position on the issue./	20374746	1472473128635	1472473128784	p	80
39395	428066	The Fed has not taken an official position on the issue.	The Fed has not taken an official position on the issue./	20374755	1472473128825	1472473129002	o	79
39395	428066	The Fed has not taken an official position on the issue.	The Fed has not taken an official position on the issue./	20374818	1472473128994	1472473129066	s	83
39395	428066	The Fed has not taken an official position on the issue.	The Fed has not taken an official position on the issue./	20374821	1472473129422	1472473129534	i	73
39395	428066	The Fed has not taken an official position on the issue.	The Fed has not taken an official position on the issue./	20374823	1472473129592	1472473129671	t	84
39395	428066	The Fed has not taken an official position on the issue.	The Fed has not taken an official position on the issue./	20374825	1472473129795	1472473129963	i	73
39395	428066	The Fed has not taken an official position on the issue.	The Fed has not taken an official position on the issue./	20374826	1472473129967	1472473130141	o	79
39395	428066	The Fed has not taken an official position on the issue.	The Fed has not taken an official position on the issue./	20374859	1472473130134	1472473130249	n	78
39395	428066	The Fed has not taken an official position on the issue.	The Fed has not taken an official position on the issue./	20374863	1472473130254	1472473130358	 	32
39395	428066	The Fed has not taken an official position on the issue.	The Fed has not taken an official position on the issue./	20374867	1472473130350	1472473130489	o	79
39395	428066	The Fed has not taken an official position on the issue.	The Fed has not taken an official position on the issue./	20374873	1472473130504	1472473130634	n	78
39395	428066	The Fed has not taken an official position on the issue.	The Fed has not taken an official position on the issue./	20374876	1472473130639	1472473130721	 	32
39395	428066	The Fed has not taken an official position on the issue.	The Fed has not taken an official position on the issue./	20374879	1472473130753	1472473130858	t	84
39395	428066	The Fed has not taken an official position on the issue.	The Fed has not taken an official position on the issue./	20374890	1472473130804	1472473130924	h	72
39395	428066	The Fed has not taken an official position on the issue.	The Fed has not taken an official position on the issue./	20374895	1472473130929	1472473131022	e	69
39395	428066	The Fed has not taken an official position on the issue.	The Fed has not taken an official position on the issue./	20374904	1472473131050	1472473131180	 	32
39395	428066	The Fed has not taken an official position on the issue.	The Fed has not taken an official position on the issue./	20374911	1472473131109	1472473131206	i	73
39395	428066	The Fed has not taken an official position on the issue.	The Fed has not taken an official position on the issue./	20374917	1472473131256	1472473131356	s	83
39395	428066	The Fed has not taken an official position on the issue.	The Fed has not taken an official position on the issue./	20374921	1472473131450	1472473131538	s	83
39395	428066	The Fed has not taken an official position on the issue.	The Fed has not taken an official position on the issue./	20374985	1472473131653	1472473131765	u	85
39395	428066	The Fed has not taken an official position on the issue.	The Fed has not taken an official position on the issue./	20374989	1472473131781	1472473131864	r	82
39395	428066	The Fed has not taken an official position on the issue.	The Fed has not taken an official position on the issue./	20374991	1472473132411	1472473132465	BKSP	8
39395	428066	The Fed has not taken an official position on the issue.	The Fed has not taken an official position on the issue./	20374993	1472473132497	1472473132567	e	69
39395	428066	The Fed has not taken an official position on the issue.	The Fed has not taken an official position on the issue./	20374997	1472473133245	1472473133300	/	190
39395	428085	The second deal in question which needs to be resolved asap.	The second deal in question which needs to be resolved asap.	20375115	1472473134874	1472473135121	SHIFT	16
39395	428085	The second deal in question which needs to be resolved asap.	The second deal in question which needs to be resolved asap.	20375119	1472473135067	1472473135227	T	84
39395	428085	The second deal in question which needs to be resolved asap.	The second deal in question which needs to be resolved asap.	20375121	1472473135161	1472473135289	h	72
39395	428085	The second deal in question which needs to be resolved asap.	The second deal in question which needs to be resolved asap.	20375125	1472473135294	1472473135430	e	69
39395	428085	The second deal in question which needs to be resolved asap.	The second deal in question which needs to be resolved asap.	20375129	1472473135435	1472473135583	 	32
39395	428085	The second deal in question which needs to be resolved asap.	The second deal in question which needs to be resolved asap.	20375134	1472473135707	1472473135827	s	83
39395	428085	The second deal in question which needs to be resolved asap.	The second deal in question which needs to be resolved asap.	20375201	1472473135955	1472473136008	e	69
39395	428085	The second deal in question which needs to be resolved asap.	The second deal in question which needs to be resolved asap.	20375204	1472473136523	1472473136674	c	67
39395	428085	The second deal in question which needs to be resolved asap.	The second deal in question which needs to be resolved asap.	20375206	1472473136666	1472473136772	o	79
39395	428085	The second deal in question which needs to be resolved asap.	The second deal in question which needs to be resolved asap.	20375207	1472473136796	1472473136896	n	78
39395	428085	The second deal in question which needs to be resolved asap.	The second deal in question which needs to be resolved asap.	20375211	1472473136901	1472473136998	d	68
39395	428085	The second deal in question which needs to be resolved asap.	The second deal in question which needs to be resolved asap.	20375256	1472473137014	1472473137176	 	32
39395	428085	The second deal in question which needs to be resolved asap.	The second deal in question which needs to be resolved asap.	20375259	1472473137275	1472473137370	d	68
39395	428085	The second deal in question which needs to be resolved asap.	The second deal in question which needs to be resolved asap.	20375262	1472473137482	1472473137569	e	69
39395	428085	The second deal in question which needs to be resolved asap.	The second deal in question which needs to be resolved asap.	20375267	1472473137651	1472473137755	a	65
39395	428085	The second deal in question which needs to be resolved asap.	The second deal in question which needs to be resolved asap.	20375272	1472473137760	1472473137841	l	76
39395	428085	The second deal in question which needs to be resolved asap.	The second deal in question which needs to be resolved asap.	20375302	1472473138139	1472473138289	 	32
39395	428085	The second deal in question which needs to be resolved asap.	The second deal in question which needs to be resolved asap.	20375306	1472473138304	1472473138408	i	73
39395	428085	The second deal in question which needs to be resolved asap.	The second deal in question which needs to be resolved asap.	20375310	1472473138457	1472473138578	n	78
39395	428085	The second deal in question which needs to be resolved asap.	The second deal in question which needs to be resolved asap.	20375312	1472473138610	1472473138710	 	32
39395	428085	The second deal in question which needs to be resolved asap.	The second deal in question which needs to be resolved asap.	20375316	1472473138877	1472473139004	q	81
39395	428085	The second deal in question which needs to be resolved asap.	The second deal in question which needs to be resolved asap.	20375373	1472473139019	1472473139090	u	85
39395	428085	The second deal in question which needs to be resolved asap.	The second deal in question which needs to be resolved asap.	20375378	1472473139131	1472473139234	e	69
39395	428085	The second deal in question which needs to be resolved asap.	The second deal in question which needs to be resolved asap.	20375382	1472473139284	1472473139383	s	83
39395	428085	The second deal in question which needs to be resolved asap.	The second deal in question which needs to be resolved asap.	20375386	1472473139441	1472473139523	t	84
39395	428085	The second deal in question which needs to be resolved asap.	The second deal in question which needs to be resolved asap.	20375389	1472473139547	1472473139688	i	73
39395	428085	The second deal in question which needs to be resolved asap.	The second deal in question which needs to be resolved asap.	20375418	1472473139660	1472473139824	o	79
39395	428085	The second deal in question which needs to be resolved asap.	The second deal in question which needs to be resolved asap.	20375424	1472473139848	1472473139952	n	78
39395	428085	The second deal in question which needs to be resolved asap.	The second deal in question which needs to be resolved asap.	20375428	1472473139997	1472473140101	 	32
39395	428085	The second deal in question which needs to be resolved asap.	The second deal in question which needs to be resolved asap.	20375436	1472473140216	1472473140378	w	87
39395	428085	The second deal in question which needs to be resolved asap.	The second deal in question which needs to be resolved asap.	20375443	1472473140325	1472473140430	h	72
39395	428085	The second deal in question which needs to be resolved asap.	The second deal in question which needs to be resolved asap.	20375549	1472473140504	1472473140682	c	67
39395	428085	The second deal in question which needs to be resolved asap.	The second deal in question which needs to be resolved asap.	20375448	1472473140567	1472473140671	i	73
39395	428085	The second deal in question which needs to be resolved asap.	The second deal in question which needs to be resolved asap.	20375553	1472473140752	1472473140822	h	72
39395	428085	The second deal in question which needs to be resolved asap.	The second deal in question which needs to be resolved asap.	20375555	1472473140888	1472473141000	 	32
39395	428085	The second deal in question which needs to be resolved asap.	The second deal in question which needs to be resolved asap.	20375556	1472473141527	1472473141597	BKSP	8
39395	428085	The second deal in question which needs to be resolved asap.	The second deal in question which needs to be resolved asap.	20375557	1472473141675	1472473141745	BKSP	8
39395	428085	The second deal in question which needs to be resolved asap.	The second deal in question which needs to be resolved asap.	20375559	1472473141811	1472473141881	BKSP	8
39395	428085	The second deal in question which needs to be resolved asap.	The second deal in question which needs to be resolved asap.	20375561	1472473141955	1472473142042	BKSP	8
39395	428085	The second deal in question which needs to be resolved asap.	The second deal in question which needs to be resolved asap.	20375564	1472473142589	1472473142743	i	73
39395	428085	The second deal in question which needs to be resolved asap.	The second deal in question which needs to be resolved asap.	20375568	1472473142859	1472473142997	c	67
39395	428085	The second deal in question which needs to be resolved asap.	The second deal in question which needs to be resolved asap.	20375608	1472473142990	1472473143103	h	72
39395	428085	The second deal in question which needs to be resolved asap.	The second deal in question which needs to be resolved asap.	20375613	1472473143131	1472473143218	 	32
39395	428085	The second deal in question which needs to be resolved asap.	The second deal in question which needs to be resolved asap.	20375618	1472473143346	1472473143450	n	78
39395	428085	The second deal in question which needs to be resolved asap.	The second deal in question which needs to be resolved asap.	20375623	1472473143479	1472473143549	e	69
39395	428085	The second deal in question which needs to be resolved asap.	The second deal in question which needs to be resolved asap.	20375627	1472473143631	1472473143701	e	69
39395	428085	The second deal in question which needs to be resolved asap.	The second deal in question which needs to be resolved asap.	20375630	1472473143812	1472473143878	d	68
39395	428085	The second deal in question which needs to be resolved asap.	The second deal in question which needs to be resolved asap.	20375654	1472473144018	1472473144105	s	83
39395	428085	The second deal in question which needs to be resolved asap.	The second deal in question which needs to be resolved asap.	20375656	1472473144154	1472473144241	 	32
39395	428085	The second deal in question which needs to be resolved asap.	The second deal in question which needs to be resolved asap.	20375658	1472473144320	1472473144422	t	84
39395	428085	The second deal in question which needs to be resolved asap.	The second deal in question which needs to be resolved asap.	20375662	1472473144438	1472473144558	o	79
39395	428085	The second deal in question which needs to be resolved asap.	The second deal in question which needs to be resolved asap.	20375665	1472473144582	1472473144619	 	32
39395	428085	The second deal in question which needs to be resolved asap.	The second deal in question which needs to be resolved asap.	20375737	1472473144717	1472473144804	b	66
39395	428085	The second deal in question which needs to be resolved asap.	The second deal in question which needs to be resolved asap.	20375742	1472473144918	1472473144989	e	82
39395	428085	The second deal in question which needs to be resolved asap.	The second deal in question which needs to be resolved asap.	20375749	1472473145131	1472473145243	 	32
39395	428085	The second deal in question which needs to be resolved asap.	The second deal in question which needs to be resolved asap.	20375754	1472473145466	1472473145548	BKSP	8
39395	428085	The second deal in question which needs to be resolved asap.	The second deal in question which needs to be resolved asap.	20375757	1472473145622	1472473145688	BKSP	8
39395	428085	The second deal in question which needs to be resolved asap.	The second deal in question which needs to be resolved asap.	20375762	1472473145745	1472473145808	BKSP	8
39395	428085	The second deal in question which needs to be resolved asap.	The second deal in question which needs to be resolved asap.	20375765	1472473145874	1472473146053	e	69
39395	428085	The second deal in question which needs to be resolved asap.	The second deal in question which needs to be resolved asap.	20375783	1472473146068	1472473146152	 	32
39395	428085	The second deal in question which needs to be resolved asap.	The second deal in question which needs to be resolved asap.	20375788	1472473146217	1472473146312	r	82
39395	428085	The second deal in question which needs to be resolved asap.	The second deal in question which needs to be resolved asap.	20375794	1472473146345	1472473146439	e	69
39395	428085	The second deal in question which needs to be resolved asap.	The second deal in question which needs to be resolved asap.	20375800	1472473146485	1472473146602	s	83
39395	428085	The second deal in question which needs to be resolved asap.	The second deal in question which needs to be resolved asap.	20375805	1472473146607	1472473146717	o	79
39395	428085	The second deal in question which needs to be resolved asap.	The second deal in question which needs to be resolved asap.	20375864	1472473146816	1472473146915	l	76
39395	428085	The second deal in question which needs to be resolved asap.	The second deal in question which needs to be resolved asap.	20375867	1472473147110	1472473147189	v	86
39395	428085	The second deal in question which needs to be resolved asap.	The second deal in question which needs to be resolved asap.	20375869	1472473147321	1472473147441	e	69
39395	428085	The second deal in question which needs to be resolved asap.	The second deal in question which needs to be resolved asap.	20375874	1472473147519	1472473147573	d	68
39395	428085	The second deal in question which needs to be resolved asap.	The second deal in question which needs to be resolved asap.	20375877	1472473147921	1472473148008	 	32
39395	428085	The second deal in question which needs to be resolved asap.	The second deal in question which needs to be resolved asap.	20375932	1472473148252	1472473148401	a	65
39395	428085	The second deal in question which needs to be resolved asap.	The second deal in question which needs to be resolved asap.	20375933	1472473148434	1472473148570	s	83
39395	428085	The second deal in question which needs to be resolved asap.	The second deal in question which needs to be resolved asap.	20375936	1472473148649	1472473148754	a	65
39395	428085	The second deal in question which needs to be resolved asap.	The second deal in question which needs to be resolved asap.	20375938	1472473148759	1472473148915	p	80
39395	428085	The second deal in question which needs to be resolved asap.	The second deal in question which needs to be resolved asap.	20375942	1472473149359	1472473149497	.	190
39395	428104	Let me consult my partner and get back with you in the morning.	Let me consult my partner and get back with you in the morning.	20376102	1472473151627	1472473151816	SHIFT	16
39395	428104	Let me consult my partner and get back with you in the morning.	Let me consult my partner and get back with you in the morning.	20376103	1472473151729	1472473151886	L	76
39395	428104	Let me consult my partner and get back with you in the morning.	Let me consult my partner and get back with you in the morning.	20376106	1472473151848	1472473151987	e	69
39395	428104	Let me consult my partner and get back with you in the morning.	Let me consult my partner and get back with you in the morning.	20376107	1472473152028	1472473152173	t	84
39395	428104	Let me consult my partner and get back with you in the morning.	Let me consult my partner and get back with you in the morning.	20376110	1472473152272	1472473152356	 	32
39395	428104	Let me consult my partner and get back with you in the morning.	Let me consult my partner and get back with you in the morning.	20376141	1472473152349	1472473152460	m	77
39395	428104	Let me consult my partner and get back with you in the morning.	Let me consult my partner and get back with you in the morning.	20376146	1472473152430	1472473152561	e	69
39395	428104	Let me consult my partner and get back with you in the morning.	Let me consult my partner and get back with you in the morning.	20376153	1472473152566	1472473152689	 	32
39395	428104	Let me consult my partner and get back with you in the morning.	Let me consult my partner and get back with you in the morning.	20376160	1472473152805	1472473152951	c	67
39395	428104	Let me consult my partner and get back with you in the morning.	Let me consult my partner and get back with you in the morning.	20376167	1472473152864	1472473153026	o	79
39395	428104	Let me consult my partner and get back with you in the morning.	Let me consult my partner and get back with you in the morning.	20376221	1472473153019	1472473153142	n	78
39395	428104	Let me consult my partner and get back with you in the morning.	Let me consult my partner and get back with you in the morning.	20376227	1472473153135	1472473153240	s	83
39395	428104	Let me consult my partner and get back with you in the morning.	Let me consult my partner and get back with you in the morning.	20376234	1472473153281	1472473153384	u	85
39395	428104	Let me consult my partner and get back with you in the morning.	Let me consult my partner and get back with you in the morning.	20376240	1472473153728	1472473153839	l	76
39395	428104	Let me consult my partner and get back with you in the morning.	Let me consult my partner and get back with you in the morning.	20376248	1472473154067	1472473154221	t	84
39395	428104	Let me consult my partner and get back with you in the morning.	Let me consult my partner and get back with you in the morning.	20376254	1472473154254	1472473154380	 	32
39395	428104	Let me consult my partner and get back with you in the morning.	Let me consult my partner and get back with you in the morning.	20376280	1472473154347	1472473154440	m	77
39395	428104	Let me consult my partner and get back with you in the morning.	Let me consult my partner and get back with you in the morning.	20376283	1472473154555	1472473154660	y	89
39395	428104	Let me consult my partner and get back with you in the morning.	Let me consult my partner and get back with you in the morning.	20376286	1472473154665	1472473154796	 	32
39395	428104	Let me consult my partner and get back with you in the morning.	Let me consult my partner and get back with you in the morning.	20376291	1472473154945	1472473155061	p	80
39395	428104	Let me consult my partner and get back with you in the morning.	Let me consult my partner and get back with you in the morning.	20376296	1472473155094	1472473155282	a	65
39395	428104	Let me consult my partner and get back with you in the morning.	Let me consult my partner and get back with you in the morning.	20376349	1472473155245	1472473155379	r	82
39395	428104	Let me consult my partner and get back with you in the morning.	Let me consult my partner and get back with you in the morning.	20376353	1472473155478	1472473155557	t	84
39395	428104	Let me consult my partner and get back with you in the morning.	Let me consult my partner and get back with you in the morning.	20376358	1472473155738	1472473155876	n	78
39395	428104	Let me consult my partner and get back with you in the morning.	Let me consult my partner and get back with you in the morning.	20376361	1472473155881	1472473156009	e	69
39395	428104	Let me consult my partner and get back with you in the morning.	Let me consult my partner and get back with you in the morning.	20376367	1472473156002	1472473156124	r	82
39395	428104	Let me consult my partner and get back with you in the morning.	Let me consult my partner and get back with you in the morning.	20376372	1472473156339	1472473156510	a	65
39395	428104	Let me consult my partner and get back with you in the morning.	Let me consult my partner and get back with you in the morning.	20376415	1472473156891	1472473156974	BKSP	8
39395	428104	Let me consult my partner and get back with you in the morning.	Let me consult my partner and get back with you in the morning.	20376419	1472473157006	1472473157156	 	32
39395	428104	Let me consult my partner and get back with you in the morning.	Let me consult my partner and get back with you in the morning.	20376425	1472473157149	1472473157338	a	65
39395	428104	Let me consult my partner and get back with you in the morning.	Let me consult my partner and get back with you in the morning.	20376429	1472473157364	1472473157477	b	78
39395	428104	Let me consult my partner and get back with you in the morning.	Let me consult my partner and get back with you in the morning.	20376434	1472473157612	1472473157683	d	68
39395	428104	Let me consult my partner and get back with you in the morning.	Let me consult my partner and get back with you in the morning.	20376500	1472473157889	1472473157959	BKSP	8
39395	428104	Let me consult my partner and get back with you in the morning.	Let me consult my partner and get back with you in the morning.	20376504	1472473158037	1472473158086	BKSP	8
39395	428104	Let me consult my partner and get back with you in the morning.	Let me consult my partner and get back with you in the morning.	20376506	1472473158152	1472473158222	BKSP	8
39395	428104	Let me consult my partner and get back with you in the morning.	Let me consult my partner and get back with you in the morning.	20376511	1472473158786	1472473158915	n	78
39395	428104	Let me consult my partner and get back with you in the morning.	Let me consult my partner and get back with you in the morning.	20376515	1472473158920	1472473159002	d	68
39395	428104	Let me consult my partner and get back with you in the morning.	Let me consult my partner and get back with you in the morning.	20376521	1472473159118	1472473159200	 	32
39395	428104	Let me consult my partner and get back with you in the morning.	Let me consult my partner and get back with you in the morning.	20376525	1472473159328	1472473159415	g	71
39395	428104	Let me consult my partner and get back with you in the morning.	Let me consult my partner and get back with you in the morning.	20376528	1472473159505	1472473159604	e	69
39395	428104	Let me consult my partner and get back with you in the morning.	Let me consult my partner and get back with you in the morning.	20376588	1472473159636	1472473159731	r	82
39395	428104	Let me consult my partner and get back with you in the morning.	Let me consult my partner and get back with you in the morning.	20376584	1472473159663	1472473159721	t	84
39395	428104	Let me consult my partner and get back with you in the morning.	Let me consult my partner and get back with you in the morning.	20376591	1472473159772	1472473159951	 	32
39395	428104	Let me consult my partner and get back with you in the morning.	Let me consult my partner and get back with you in the morning.	20376592	1472473160245	1472473160327	BKSP	8
39395	428104	Let me consult my partner and get back with you in the morning.	Let me consult my partner and get back with you in the morning.	20376594	1472473160393	1472473160505	BKSP	8
39395	428104	Let me consult my partner and get back with you in the morning.	Let me consult my partner and get back with you in the morning.	20376596	1472473160562	1472473160649	BKSP	8
39395	428104	Let me consult my partner and get back with you in the morning.	Let me consult my partner and get back with you in the morning.	20376599	1472473160756	1472473160889	t	84
39395	428104	Let me consult my partner and get back with you in the morning.	Let me consult my partner and get back with you in the morning.	20376601	1472473160913	1472473161034	 	32
39395	428104	Let me consult my partner and get back with you in the morning.	Let me consult my partner and get back with you in the morning.	20376631	1472473161133	1472473161236	b	66
39395	428104	Let me consult my partner and get back with you in the morning.	Let me consult my partner and get back with you in the morning.	20376636	1472473161310	1472473161527	a	65
39395	428104	Let me consult my partner and get back with you in the morning.	Let me consult my partner and get back with you in the morning.	20376640	1472473161532	1472473161665	c	67
39395	428104	Let me consult my partner and get back with you in the morning.	Let me consult my partner and get back with you in the morning.	20376642	1472473161658	1472473161763	k	75
39395	428104	Let me consult my partner and get back with you in the morning.	Let me consult my partner and get back with you in the morning.	20376645	1472473161870	1472473161958	 	32
39395	428104	Let me consult my partner and get back with you in the morning.	Let me consult my partner and get back with you in the morning.	20376765	1472473162468	1472473162586	w	87
39395	428104	Let me consult my partner and get back with you in the morning.	Let me consult my partner and get back with you in the morning.	20376767	1472473162579	1472473162659	o	79
39395	428104	Let me consult my partner and get back with you in the morning.	Let me consult my partner and get back with you in the morning.	20376770	1472473163131	1472473163210	BKSP	8
39395	428104	Let me consult my partner and get back with you in the morning.	Let me consult my partner and get back with you in the morning.	20376773	1472473163637	1472473163740	i	73
39395	428104	Let me consult my partner and get back with you in the morning.	Let me consult my partner and get back with you in the morning.	20376777	1472473163803	1472473163907	t	84
39395	428104	Let me consult my partner and get back with you in the morning.	Let me consult my partner and get back with you in the morning.	20376875	1472473163870	1472473163997	h	72
39395	428104	Let me consult my partner and get back with you in the morning.	Let me consult my partner and get back with you in the morning.	20376879	1472473164002	1472473164095	 	32
39395	428104	Let me consult my partner and get back with you in the morning.	Let me consult my partner and get back with you in the morning.	20376883	1472473164245	1472473164307	u	89
39395	428104	Let me consult my partner and get back with you in the morning.	Let me consult my partner and get back with you in the morning.	20376887	1472473165024	1472473165111	BKSP	8
39395	428104	Let me consult my partner and get back with you in the morning.	Let me consult my partner and get back with you in the morning.	20376890	1472473165343	1472473165426	o	79
39395	428104	Let me consult my partner and get back with you in the morning.	Let me consult my partner and get back with you in the morning.	20376893	1472473165574	1472473165644	u	85
39395	428104	Let me consult my partner and get back with you in the morning.	Let me consult my partner and get back with you in the morning.	20376944	1472473165735	1472473165855	 	32
39395	428104	Let me consult my partner and get back with you in the morning.	Let me consult my partner and get back with you in the morning.	20376947	1472473165963	1472473166095	i	73
39395	428104	Let me consult my partner and get back with you in the morning.	Let me consult my partner and get back with you in the morning.	20376948	1472473166161	1472473166265	n	78
39395	428104	Let me consult my partner and get back with you in the morning.	Let me consult my partner and get back with you in the morning.	20376951	1472473166270	1472473166314	 	32
39395	428104	Let me consult my partner and get back with you in the morning.	Let me consult my partner and get back with you in the morning.	20376952	1472473166388	1472473166505	t	84
39395	428104	Let me consult my partner and get back with you in the morning.	Let me consult my partner and get back with you in the morning.	20377013	1472473166434	1472473166531	h	72
39395	428104	Let me consult my partner and get back with you in the morning.	Let me consult my partner and get back with you in the morning.	20377014	1472473166559	1472473166672	e	69
39395	428104	Let me consult my partner and get back with you in the morning.	Let me consult my partner and get back with you in the morning.	20377016	1472473166688	1472473166808	 	32
39395	428104	Let me consult my partner and get back with you in the morning.	Let me consult my partner and get back with you in the morning.	20377019	1472473167039	1472473167192	m	77
39395	428104	Let me consult my partner and get back with you in the morning.	Let me consult my partner and get back with you in the morning.	20377022	1472473167208	1472473167358	o	79
39395	428104	Let me consult my partner and get back with you in the morning.	Let me consult my partner and get back with you in the morning.	20377026	1472473167718	1472473167780	i	73
39395	428104	Let me consult my partner and get back with you in the morning.	Let me consult my partner and get back with you in the morning.	20377089	1472473168124	1472473168186	BKSP	8
39395	428104	Let me consult my partner and get back with you in the morning.	Let me consult my partner and get back with you in the morning.	20377097	1472473168318	1472473168368	r	82
39395	428104	Let me consult my partner and get back with you in the morning.	Let me consult my partner and get back with you in the morning.	20377101	1472473168550	1472473168719	n	78
39395	428104	Let me consult my partner and get back with you in the morning.	Let me consult my partner and get back with you in the morning.	20377107	1472473168748	1472473168851	i	73
39395	428104	Let me consult my partner and get back with you in the morning.	Let me consult my partner and get back with you in the morning.	20377112	1472473168893	1472473169005	n	78
39395	428104	Let me consult my partner and get back with you in the morning.	Let me consult my partner and get back with you in the morning.	20377138	1472473168969	1472473169074	g	71
39395	428104	Let me consult my partner and get back with you in the morning.	Let me consult my partner and get back with you in the morning.	20377140	1472473169181	1472473169284	.	190
39395	428132	Thanks for all you are doing.	Thanks for all you are doing.	20377430	1472473171218	1472473171372	SHIFT	16
39395	428132	Thanks for all you are doing.	Thanks for all you are doing.	20377433	1472473171377	1472473171492	t	84
39395	428132	Thanks for all you are doing.	Thanks for all you are doing.	20377438	1472473171439	1472473171561	h	72
39395	428132	Thanks for all you are doing.	Thanks for all you are doing.	20377441	1472473171656	1472473171726	a	65
39395	428132	Thanks for all you are doing.	Thanks for all you are doing.	20377448	1472473171908	1472473171974	n	78
39395	428132	Thanks for all you are doing.	Thanks for all you are doing.	20377455	1472473172205	1472473172276	BKSP	8
39395	428132	Thanks for all you are doing.	Thanks for all you are doing.	20377461	1472473172341	1472473172412	BKSP	8
39395	428132	Thanks for all you are doing.	Thanks for all you are doing.	20377466	1472473172478	1472473172540	BKSP	8
39395	428132	Thanks for all you are doing.	Thanks for all you are doing.	20377470	1472473172614	1472473172685	BKSP	8
39395	428132	Thanks for all you are doing.	Thanks for all you are doing.	20377473	1472473172990	1472473173253	SHIFT	16
39395	428132	Thanks for all you are doing.	Thanks for all you are doing.	20377551	1472473173188	1472473173380	T	84
39395	428132	Thanks for all you are doing.	Thanks for all you are doing.	20377554	1472473173529	1472473173633	h	72
39395	428132	Thanks for all you are doing.	Thanks for all you are doing.	20377558	1472473173723	1472473173819	a	65
39395	428132	Thanks for all you are doing.	Thanks for all you are doing.	20377561	1472473173757	1472473173846	n	78
39395	428132	Thanks for all you are doing.	Thanks for all you are doing.	20377567	1472473173912	1472473174023	k	75
39395	428132	Thanks for all you are doing.	Thanks for all you are doing.	20377570	1472473174584	1472473174750	 	32
39395	428132	Thanks for all you are doing.	Thanks for all you are doing.	20377627	1472473175114	1472473175193	BKSP	8
39395	428132	Thanks for all you are doing.	Thanks for all you are doing.	20377630	1472473175234	1472473175354	s	83
39395	428132	Thanks for all you are doing.	Thanks for all you are doing.	20377634	1472473175379	1472473175499	 	32
39395	428132	Thanks for all you are doing.	Thanks for all you are doing.	20377637	1472473175540	1472473175675	f	70
39395	428132	Thanks for all you are doing.	Thanks for all you are doing.	20377641	1472473175667	1472473175778	o	79
39395	428132	Thanks for all you are doing.	Thanks for all you are doing.	20377717	1472473175771	1472473175872	r	82
39395	428132	Thanks for all you are doing.	Thanks for all you are doing.	20377720	1472473175938	1472473176053	 	32
39395	428132	Thanks for all you are doing.	Thanks for all you are doing.	20377724	1472473176110	1472473176222	a	65
39395	428132	Thanks for all you are doing.	Thanks for all you are doing.	20377731	1472473176371	1472473176466	l	76
39395	428132	Thanks for all you are doing.	Thanks for all you are doing.	20377735	1472473176544	1472473176628	l	76
39395	428132	Thanks for all you are doing.	Thanks for all you are doing.	20377737	1472473176633	1472473176730	 	32
39395	428132	Thanks for all you are doing.	Thanks for all you are doing.	20377774	1472473176875	1472473176970	y	89
39395	428132	Thanks for all you are doing.	Thanks for all you are doing.	20377779	1472473176994	1472473177162	o	79
39395	428132	Thanks for all you are doing.	Thanks for all you are doing.	20377781	1472473177155	1472473177235	u	85
39395	428132	Thanks for all you are doing.	Thanks for all you are doing.	20377786	1472473177301	1472473177422	 	32
39395	428132	Thanks for all you are doing.	Thanks for all you are doing.	20377792	1472473177496	1472473177653	a	65
39395	428132	Thanks for all you are doing.	Thanks for all you are doing.	20377821	1472473177662	1472473177762	r	82
39395	428132	Thanks for all you are doing.	Thanks for all you are doing.	20377822	1472473177820	1472473177915	e	69
39395	428132	Thanks for all you are doing.	Thanks for all you are doing.	20377828	1472473177939	1472473178059	 	32
39395	428132	Thanks for all you are doing.	Thanks for all you are doing.	20377831	1472473178126	1472473178205	d	68
39395	428132	Thanks for all you are doing.	Thanks for all you are doing.	20377833	1472473178234	1472473178417	i	73
39395	428132	Thanks for all you are doing.	Thanks for all you are doing.	20377930	1472473178422	1472473178578	o	79
39395	428132	Thanks for all you are doing.	Thanks for all you are doing.	20377936	1472473179093	1472473179176	BKSP	8
39395	428132	Thanks for all you are doing.	Thanks for all you are doing.	20377944	1472473179242	1472473179296	BKSP	8
39395	428132	Thanks for all you are doing.	Thanks for all you are doing.	20377949	1472473179768	1472473179946	o	79
39395	428132	Thanks for all you are doing.	Thanks for all you are doing.	20377957	1472473179975	1472473180095	i	73
39395	428132	Thanks for all you are doing.	Thanks for all you are doing.	20377963	1472473180141	1472473180340	n	78
39395	428132	Thanks for all you are doing.	Thanks for all you are doing.	20377976	1472473180287	1472473180367	g	71
39395	428132	Thanks for all you are doing.	Thanks for all you are doing.	20377979	1472473180466	1472473180569	.	190
39395	428148	Are you back in town?	Are you back in town?	20378297	1472473182605	1472473183388	SHIFT	16
39395	428148	Are you back in town?	Are you back in town?	20378302	1472473183266	1472473183398	S	65
39395	428148	Are you back in town?	Are you back in town?	20378308	1472473183798	1472473183877	BKSP	8
39395	428148	Are you back in town?	Are you back in town?	20378314	1472473183976	1472473184087	r	82
39395	428148	Are you back in town?	Are you back in town?	20378320	1472473184261	1472473184411	 	32
39395	428148	Are you back in town?	Are you back in town?	20378326	1472473184887	1472473184970	BKSP	8
39395	428148	Are you back in town?	Are you back in town?	20378331	1472473185011	1472473185144	e	69
39395	428148	Are you back in town?	Are you back in town?	20378498	1472473185189	1472473185343	 	32
39395	428148	Are you back in town?	Are you back in town?	20378501	1472473185757	1472473185802	y	89
39395	428148	Are you back in town?	Are you back in town?	20378505	1472473185831	1472473185917	o	79
39395	428148	Are you back in town?	Are you back in town?	20378512	1472473187090	1472473187211	u	85
39395	428148	Are you back in town?	Are you back in town?	20378523	1472473187216	1472473187343	 	32
39395	428148	Are you back in town?	Are you back in town?	20378556	1472473187442	1472473187559	b	66
39395	428148	Are you back in town?	Are you back in town?	20378560	1472473187624	1472473187807	a	65
39395	428148	Are you back in town?	Are you back in town?	20378565	1472473187840	1472473187990	c	67
39395	428148	Are you back in town?	Are you back in town?	20378569	1472473187983	1472473188046	k	75
39395	428148	Are you back in town?	Are you back in town?	20378572	1472473188095	1472473188196	 	32
39395	428148	Are you back in town?	Are you back in town?	20378606	1472473188189	1472473188286	i	73
39395	428148	Are you back in town?	Are you back in town?	20378612	1472473188344	1472473188473	n	78
39395	428148	Are you back in town?	Are you back in town?	20378619	1472473188478	1472473188559	 	32
39395	428148	Are you back in town?	Are you back in town?	20378624	1472473188641	1472473188766	t	84
39395	428148	Are you back in town?	Are you back in town?	20378631	1472473188717	1472473188857	o	79
39395	428148	Are you back in town?	Are you back in town?	20378637	1472473188862	1472473188999	w	87
39395	428148	Are you back in town?	Are you back in town?	20378739	1472473188992	1472473189096	n	78
39395	428148	Are you back in town?	Are you back in town?	20378742	1472473190361	1472473190423	?	191
39395	428163	2nd since so many people are out of the office until then.	2nd since so many people are out of the office until then.	20378955	1472473193205	1472473193336	2	50
39395	428163	2nd since so many people are out of the office until then.	2nd since so many people are out of the office until then.	20378956	1472473193368	1472473193484	n	78
39395	428163	2nd since so many people are out of the office until then.	2nd since so many people are out of the office until then.	20378957	1472473193489	1472473193587	d	68
39395	428163	2nd since so many people are out of the office until then.	2nd since so many people are out of the office until then.	20378958	1472473193669	1472473193768	 	32
39395	428163	2nd since so many people are out of the office until then.	2nd since so many people are out of the office until then.	20378959	1472473194066	1472473194196	s	83
39395	428163	2nd since so many people are out of the office until then.	2nd since so many people are out of the office until then.	20379017	1472473194163	1472473194277	i	73
39395	428163	2nd since so many people are out of the office until then.	2nd since so many people are out of the office until then.	20379020	1472473194770	1472473194895	n	78
39395	428163	2nd since so many people are out of the office until then.	2nd since so many people are out of the office until then.	20379025	1472473194900	1472473195010	c	67
39395	428163	2nd since so many people are out of the office until then.	2nd since so many people are out of the office until then.	20379029	1472473195085	1472473195188	e	69
39395	428163	2nd since so many people are out of the office until then.	2nd since so many people are out of the office until then.	20379031	1472473195238	1472473195343	 	32
39395	428163	2nd since so many people are out of the office until then.	2nd since so many people are out of the office until then.	20379053	1472473195336	1472473195476	s	83
39395	428163	2nd since so many people are out of the office until then.	2nd since so many people are out of the office until then.	20379057	1472473195414	1472473195558	o	79
39395	428163	2nd since so many people are out of the office until then.	2nd since so many people are out of the office until then.	20379061	1472473195562	1472473195633	 	32
39395	428163	2nd since so many people are out of the office until then.	2nd since so many people are out of the office until then.	20379063	1472473195626	1472473195750	m	77
39395	428163	2nd since so many people are out of the office until then.	2nd since so many people are out of the office until then.	20379067	1472473195743	1472473195873	a	65
39395	428163	2nd since so many people are out of the office until then.	2nd since so many people are out of the office until then.	20379071	1472473195879	1472473195926	n	78
39395	428163	2nd since so many people are out of the office until then.	2nd since so many people are out of the office until then.	20379154	1472473196100	1472473196182	y	89
39395	428163	2nd since so many people are out of the office until then.	2nd since so many people are out of the office until then.	20379161	1472473196297	1472473196409	 	32
39395	428163	2nd since so many people are out of the office until then.	2nd since so many people are out of the office until then.	20379165	1472473196492	1472473196629	p	80
39395	428163	2nd since so many people are out of the office until then.	2nd since so many people are out of the office until then.	20379172	1472473196653	1472473196735	e	69
39395	428163	2nd since so many people are out of the office until then.	2nd since so many people are out of the office until then.	20379177	1472473197033	1472473197149	o	79
39395	428163	2nd since so many people are out of the office until then.	2nd since so many people are out of the office until then.	20379262	1472473197256	1472473197393	p	80
39395	428163	2nd since so many people are out of the office until then.	2nd since so many people are out of the office until then.	20379265	1472473197525	1472473197670	l	76
39395	428163	2nd since so many people are out of the office until then.	2nd since so many people are out of the office until then.	20379275	1472473198210	1472473198292	e	69
39395	428163	2nd since so many people are out of the office until then.	2nd since so many people are out of the office until then.	20379281	1472473198342	1472473198470	 	32
39395	428163	2nd since so many people are out of the office until then.	2nd since so many people are out of the office until then.	20379288	1472473198503	1472473198641	a	65
39395	428163	2nd since so many people are out of the office until then.	2nd since so many people are out of the office until then.	20379319	1472473198620	1472473198735	r	82
39395	428163	2nd since so many people are out of the office until then.	2nd since so many people are out of the office until then.	20379323	1472473198776	1472473198887	e	69
39395	428163	2nd since so many people are out of the office until then.	2nd since so many people are out of the office until then.	20379329	1472473198920	1472473199037	 	32
39395	428163	2nd since so many people are out of the office until then.	2nd since so many people are out of the office until then.	20379333	1472473198971	1472473199144	o	79
39395	428163	2nd since so many people are out of the office until then.	2nd since so many people are out of the office until then.	20379336	1472473199115	1472473199229	u	85
39395	428163	2nd since so many people are out of the office until then.	2nd since so many people are out of the office until then.	20379340	1472473199261	1472473199381	t	84
39395	428163	2nd since so many people are out of the office until then.	2nd since so many people are out of the office until then.	20379421	1472473199480	1472473199558	 	32
39395	428163	2nd since so many people are out of the office until then.	2nd since so many people are out of the office until then.	20379426	1472473199599	1472473199648	f	70
39395	428163	2nd since so many people are out of the office until then.	2nd since so many people are out of the office until then.	20379429	1472473200153	1472473200224	BKSP	8
39395	428163	2nd since so many people are out of the office until then.	2nd since so many people are out of the office until then.	20379433	1472473200654	1472473200809	o	79
39395	428163	2nd since so many people are out of the office until then.	2nd since so many people are out of the office until then.	20379438	1472473200814	1472473200903	f	70
39395	428163	2nd since so many people are out of the office until then.	2nd since so many people are out of the office until then.	20379449	1472473200952	1472473201082	 	32
39395	428163	2nd since so many people are out of the office until then.	2nd since so many people are out of the office until then.	20379480	1472473201075	1472473201160	t	84
39395	428163	2nd since so many people are out of the office until then.	2nd since so many people are out of the office until then.	20379483	1472473201127	1472473201228	h	72
39395	428163	2nd since so many people are out of the office until then.	2nd since so many people are out of the office until then.	20379487	1472473201261	1472473201373	e	69
39395	428163	2nd since so many people are out of the office until then.	2nd since so many people are out of the office until then.	20379494	1472473201414	1472473201534	 	32
39395	428163	2nd since so many people are out of the office until then.	2nd since so many people are out of the office until then.	20379502	1472473201612	1472473201717	o	79
39395	428163	2nd since so many people are out of the office until then.	2nd since so many people are out of the office until then.	20379508	1472473201722	1472473201803	f	70
39395	428163	2nd since so many people are out of the office until then.	2nd since so many people are out of the office until then.	20379559	1472473201877	1472473201949	f	70
39395	428163	2nd since so many people are out of the office until then.	2nd since so many people are out of the office until then.	20379562	1472473201942	1472473202022	i	73
39395	428163	2nd since so many people are out of the office until then.	2nd since so many people are out of the office until then.	20379567	1472473202079	1472473202166	c	67
39395	428163	2nd since so many people are out of the office until then.	2nd since so many people are out of the office until then.	20379570	1472473202282	1472473202348	e	69
39395	428163	2nd since so many people are out of the office until then.	2nd since so many people are out of the office until then.	20379573	1472473202675	1472473202820	 	32
39395	428163	2nd since so many people are out of the office until then.	2nd since so many people are out of the office until then.	20379641	1472473202844	1472473202947	u	85
39395	428163	2nd since so many people are out of the office until then.	2nd since so many people are out of the office until then.	20379643	1472473203046	1472473203166	n	78
39395	428163	2nd since so many people are out of the office until then.	2nd since so many people are out of the office until then.	20379645	1472473203631	1472473203713	t	84
39395	428163	2nd since so many people are out of the office until then.	2nd since so many people are out of the office until then.	20379646	1472473203763	1472473203850	i	73
39395	428163	2nd since so many people are out of the office until then.	2nd since so many people are out of the office until then.	20379648	1472473203932	1472473204048	l	76
39395	428163	2nd since so many people are out of the office until then.	2nd since so many people are out of the office until then.	20379665	1472473204064	1472473204147	 	32
39395	428163	2nd since so many people are out of the office until then.	2nd since so many people are out of the office until then.	20379669	1472473204179	1472473204288	t	84
39395	428163	2nd since so many people are out of the office until then.	2nd since so many people are out of the office until then.	20379671	1472473204255	1472473204390	h	72
39395	428163	2nd since so many people are out of the office until then.	2nd since so many people are out of the office until then.	20379673	1472473204395	1472473204485	e	69
39395	428163	2nd since so many people are out of the office until then.	2nd since so many people are out of the office until then.	20379706	1472473204465	1472473204587	n	78
39395	428163	2nd since so many people are out of the office until then.	2nd since so many people are out of the office until then.	20379711	1472473204694	1472473204827	.	190
39395	428185	I'll ask, he just came by.	I'll ask, he just came by.	20379936	1472473206957	1472473207113	I	73
39395	428185	I'll ask, he just came by.	I'll ask, he just came by.	20379945	1472473207419	1472473207556	'	222
39395	428185	I'll ask, he just came by.	I'll ask, he just came by.	20379951	1472473207721	1472473207850	l	76
39395	428185	I'll ask, he just came by.	I'll ask, he just came by.	20379960	1472473207899	1472473208019	l	76
39395	428185	I'll ask, he just came by.	I'll ask, he just came by.	20379968	1472473208043	1472473208160	 	32
39395	428185	I'll ask, he just came by.	I'll ask, he just came by.	20380028	1472473208292	1472473208430	a	65
39395	428185	I'll ask, he just came by.	I'll ask, he just came by.	20380032	1472473208435	1472473208580	s	83
39395	428185	I'll ask, he just came by.	I'll ask, he just came by.	20380034	1472473208547	1472473208681	k	75
39395	428185	I'll ask, he just came by.	I'll ask, he just came by.	20380038	1472473208793	1472473208914	,	188
39395	428185	I'll ask, he just came by.	I'll ask, he just came by.	20380045	1472473208979	1472473209091	 	32
39395	428185	I'll ask, he just came by.	I'll ask, he just came by.	20380093	1472473209169	1472473209299	h	72
39395	428185	I'll ask, he just came by.	I'll ask, he just came by.	20380098	1472473209304	1472473209436	e	69
39395	428185	I'll ask, he just came by.	I'll ask, he just came by.	20380103	1472473209441	1472473209489	 	32
39395	428185	I'll ask, he just came by.	I'll ask, he just came by.	20380109	1472473209588	1472473209700	j	74
39395	428185	I'll ask, he just came by.	I'll ask, he just came by.	20380112	1472473209807	1472473209911	u	85
39395	428185	I'll ask, he just came by.	I'll ask, he just came by.	20380142	1472473209874	1472473209959	s	83
39395	428185	I'll ask, he just came by.	I'll ask, he just came by.	20380145	1472473210008	1472473210128	t	84
39395	428185	I'll ask, he just came by.	I'll ask, he just came by.	20380150	1472473210173	1472473210284	 	32
39395	428185	I'll ask, he just came by.	I'll ask, he just came by.	20380156	1472473210342	1472473210471	c	67
39395	428185	I'll ask, he just came by.	I'll ask, he just came by.	20380163	1472473210520	1472473210671	a	65
39395	428185	I'll ask, he just came by.	I'll ask, he just came by.	20380272	1472473210605	1472473210761	m	77
39395	428185	I'll ask, he just came by.	I'll ask, he just came by.	20380275	1472473210766	1472473210846	 	32
39395	428185	I'll ask, he just came by.	I'll ask, he just came by.	20380279	1472473210941	1472473211062	b	66
39395	428185	I'll ask, he just came by.	I'll ask, he just came by.	20380281	1472473211042	1472473211160	y	89
39395	428185	I'll ask, he just came by.	I'll ask, he just came by.	20380283	1472473211633	1472473211703	BKSP	8
39395	428185	I'll ask, he just came by.	I'll ask, he just came by.	20380285	1472473211793	1472473211847	BKSP	8
39395	428185	I'll ask, he just came by.	I'll ask, he just came by.	20380287	1472473211921	1472473212024	BKSP	8
39395	428185	I'll ask, he just came by.	I'll ask, he just came by.	20380288	1472473212239	1472473212389	e	69
39395	428185	I'll ask, he just came by.	I'll ask, he just came by.	20380291	1472473212421	1472473212538	 	32
39395	428185	I'll ask, he just came by.	I'll ask, he just came by.	20380352	1472473212649	1472473212752	b	66
39395	428185	I'll ask, he just came by.	I'll ask, he just came by.	20380354	1472473212810	1472473212880	y	89
39395	428185	I'll ask, he just came by.	I'll ask, he just came by.	20380355	1472473212963	1472473213145	l	76
39395	428185	I'll ask, he just came by.	I'll ask, he just came by.	20380357	1472473213576	1472473213671	BKSP	8
39395	428185	I'll ask, he just came by.	I'll ask, he just came by.	20380360	1472473213919	1472473213969	.	190
39395	428199	A growing number of US households are joining the middle class.	A growing number of US households are joining the middle class.	20380561	1472473216512	1472473216792	SHIFT	16
39395	428199	A growing number of US households are joining the middle class.	A growing number of US households are joining the middle class.	20380564	1472473216689	1472473216823	A	65
39395	428199	A growing number of US households are joining the middle class.	A growing number of US households are joining the middle class.	20380569	1472473216868	1472473217012	 	32
39395	428199	A growing number of US households are joining the middle class.	A growing number of US households are joining the middle class.	20380573	1472473217256	1472473217368	g	71
39395	428199	A growing number of US households are joining the middle class.	A growing number of US households are joining the middle class.	20380580	1472473217451	1472473217546	r	82
39395	428199	A growing number of US households are joining the middle class.	A growing number of US households are joining the middle class.	20380584	1472473217604	1472473217653	o	79
39395	428199	A growing number of US households are joining the middle class.	A growing number of US households are joining the middle class.	20380643	1472473218242	1472473218346	w	87
39395	428199	A growing number of US households are joining the middle class.	A growing number of US households are joining the middle class.	20380648	1472473218412	1472473218528	i	73
39395	428199	A growing number of US households are joining the middle class.	A growing number of US households are joining the middle class.	20380653	1472473218619	1472473218756	n	78
39395	428199	A growing number of US households are joining the middle class.	A growing number of US households are joining the middle class.	20380659	1472473218761	1472473218869	g	71
39395	428199	A growing number of US households are joining the middle class.	A growing number of US households are joining the middle class.	20380664	1472473218873	1472473219022	 	32
39395	428199	A growing number of US households are joining the middle class.	A growing number of US households are joining the middle class.	20380714	1472473219137	1472473219265	n	78
39395	428199	A growing number of US households are joining the middle class.	A growing number of US households are joining the middle class.	20380716	1472473219397	1472473219501	u	85
39395	428199	A growing number of US households are joining the middle class.	A growing number of US households are joining the middle class.	20380719	1472473219616	1472473219716	m	77
39395	428199	A growing number of US households are joining the middle class.	A growing number of US households are joining the middle class.	20380721	1472473219740	1472473219822	b	66
39395	428199	A growing number of US households are joining the middle class.	A growing number of US households are joining the middle class.	20380724	1472473219930	1472473220033	e	69
39395	428199	A growing number of US households are joining the middle class.	A growing number of US households are joining the middle class.	20380769	1472473220074	1472473220194	r	82
39395	428199	A growing number of US households are joining the middle class.	A growing number of US households are joining the middle class.	20380771	1472473220338	1472473220458	 	32
39395	428199	A growing number of US households are joining the middle class.	A growing number of US households are joining the middle class.	20380774	1472473220503	1472473220658	o	79
39395	428199	A growing number of US households are joining the middle class.	A growing number of US households are joining the middle class.	20380776	1472473220588	1472473220757	f	70
39395	428199	A growing number of US households are joining the middle class.	A growing number of US households are joining the middle class.	20380901	1472473220750	1472473220872	 	32
39395	428199	A growing number of US households are joining the middle class.	A growing number of US households are joining the middle class.	20380910	1472473220946	1472473221522	SHIFT	16
39395	428199	A growing number of US households are joining the middle class.	A growing number of US households are joining the middle class.	20380905	1472473221064	1472473221168	U	85
39395	428199	A growing number of US households are joining the middle class.	A growing number of US households are joining the middle class.	20380907	1472473221284	1472473221454	A	65
39395	428199	A growing number of US households are joining the middle class.	A growing number of US households are joining the middle class.	20380914	1472473221895	1472473221982	BKSP	8
39395	428199	A growing number of US households are joining the middle class.	A growing number of US households are joining the middle class.	20380918	1472473222119	1472473222243	WIN	91
39395	428199	A growing number of US households are joining the middle class.	A growing number of US households are joining the middle class.	20380919	1472473222156	1472473222254	SHIFT	16
39395	428199	A growing number of US households are joining the middle class.	A growing number of US households are joining the middle class.	20380922	1472473222352	1472473222725	SHIFT	16
39395	428199	A growing number of US households are joining the middle class.	A growing number of US households are joining the middle class.	20380926	1472473222579	1472473222727	S	83
39395	428199	A growing number of US households are joining the middle class.	A growing number of US households are joining the middle class.	20380929	1472473222920	1472473223058	 	32
39395	428199	A growing number of US households are joining the middle class.	A growing number of US households are joining the middle class.	20380932	1472473223103	1472473223254	h	72
39395	428199	A growing number of US households are joining the middle class.	A growing number of US households are joining the middle class.	20380955	1472473223259	1472473223374	o	79
39395	428199	A growing number of US households are joining the middle class.	A growing number of US households are joining the middle class.	20380960	1472473223390	1472473223493	u	85
39395	428199	A growing number of US households are joining the middle class.	A growing number of US households are joining the middle class.	20380968	1472473223542	1472473223662	s	83
39395	428199	A growing number of US households are joining the middle class.	A growing number of US households are joining the middle class.	20380974	1472473223985	1472473224090	e	69
39395	428199	A growing number of US households are joining the middle class.	A growing number of US households are joining the middle class.	20381081	1472473224083	1472473224197	l	76
39395	428199	A growing number of US households are joining the middle class.	A growing number of US households are joining the middle class.	20381086	1472473224744	1472473224814	BKSP	8
39395	428199	A growing number of US households are joining the middle class.	A growing number of US households are joining the middle class.	20381094	1472473225325	1472473225462	h	72
39395	428199	A growing number of US households are joining the middle class.	A growing number of US households are joining the middle class.	20381099	1472473225518	1472473225655	o	79
39395	428199	A growing number of US households are joining the middle class.	A growing number of US households are joining the middle class.	20381103	1472473225738	1472473225833	l	76
39395	428199	A growing number of US households are joining the middle class.	A growing number of US households are joining the middle class.	20381106	1472473225805	1472473225885	d	68
39395	428199	A growing number of US households are joining the middle class.	A growing number of US households are joining the middle class.	20381108	1472473226009	1472473226108	s	83
39395	428199	A growing number of US households are joining the middle class.	A growing number of US households are joining the middle class.	20381150	1472473226175	1472473226292	 	32
39395	428199	A growing number of US households are joining the middle class.	A growing number of US households are joining the middle class.	20381152	1472473226415	1472473226569	a	65
39395	428199	A growing number of US households are joining the middle class.	A growing number of US households are joining the middle class.	20381156	1472473226619	1472473226684	r	82
39395	428199	A growing number of US households are joining the middle class.	A growing number of US households are joining the middle class.	20381159	1472473226866	1472473226998	e	69
39395	428199	A growing number of US households are joining the middle class.	A growing number of US households are joining the middle class.	20381164	1472473227064	1472473227150	 	32
39395	428199	A growing number of US households are joining the middle class.	A growing number of US households are joining the middle class.	20381225	1472473227448	1472473227585	j	74
39395	428199	A growing number of US households are joining the middle class.	A growing number of US households are joining the middle class.	20381228	1472473227718	1472473227871	o	79
39395	428199	A growing number of US households are joining the middle class.	A growing number of US households are joining the middle class.	20381231	1472473227933	1472473228053	i	73
39395	428199	A growing number of US households are joining the middle class.	A growing number of US households are joining the middle class.	20381232	1472473228131	1472473228286	n	78
39395	428199	A growing number of US households are joining the middle class.	A growing number of US households are joining the middle class.	20381234	1472473228291	1472473228351	g	71
39395	428199	A growing number of US households are joining the middle class.	A growing number of US households are joining the middle class.	20381340	1472473228965	1472473229035	BKSP	8
39395	428199	A growing number of US households are joining the middle class.	A growing number of US households are joining the middle class.	20381343	1472473229591	1472473229711	i	73
39395	428199	A growing number of US households are joining the middle class.	A growing number of US households are joining the middle class.	20381346	1472473229757	1472473229869	n	78
39395	428199	A growing number of US households are joining the middle class.	A growing number of US households are joining the middle class.	20381348	1472473229874	1472473229981	g	71
39395	428199	A growing number of US households are joining the middle class.	A growing number of US households are joining the middle class.	20381349	1472473229986	1472473230034	 	32
39395	428199	A growing number of US households are joining the middle class.	A growing number of US households are joining the middle class.	20381351	1472473230130	1472473230197	h	84
39395	428199	A growing number of US households are joining the middle class.	A growing number of US households are joining the middle class.	20381403	1472473230281	1472473230394	e	69
39395	428199	A growing number of US households are joining the middle class.	A growing number of US households are joining the middle class.	20381410	1472473230455	1472473230571	 	32
39395	428199	A growing number of US households are joining the middle class.	A growing number of US households are joining the middle class.	20381414	1472473230620	1472473230757	m	77
39395	428199	A growing number of US households are joining the middle class.	A growing number of US households are joining the middle class.	20381418	1472473230785	1472473230889	i	73
39395	428199	A growing number of US households are joining the middle class.	A growing number of US households are joining the middle class.	20381423	1472473230894	1472473230958	d	68
39395	428199	A growing number of US households are joining the middle class.	A growing number of US households are joining the middle class.	20381450	1472473231037	1472473231122	d	68
39395	428199	A growing number of US households are joining the middle class.	A growing number of US households are joining the middle class.	20381454	1472473231115	1472473231237	l	76
39395	428199	A growing number of US households are joining the middle class.	A growing number of US households are joining the middle class.	20381460	1472473231217	1472473231306	e	69
39395	428199	A growing number of US households are joining the middle class.	A growing number of US households are joining the middle class.	20381465	1472473231355	1472473231492	 	32
39395	428199	A growing number of US households are joining the middle class.	A growing number of US households are joining the middle class.	20381470	1472473231524	1472473231620	s	83
39395	428199	A growing number of US households are joining the middle class.	A growing number of US households are joining the middle class.	20381543	1472473231926	1472473231988	BKSP	8
39395	428199	A growing number of US households are joining the middle class.	A growing number of US households are joining the middle class.	20381546	1472473232029	1472473232145	c	67
39395	428199	A growing number of US households are joining the middle class.	A growing number of US households are joining the middle class.	20381550	1472473232377	1472473232547	l	76
39395	428199	A growing number of US households are joining the middle class.	A growing number of US households are joining the middle class.	20381554	1472473232630	1472473232679	a	65
39395	428199	A growing number of US households are joining the middle class.	A growing number of US households are joining the middle class.	20381560	1472473232977	1472473233098	s	83
39395	428199	A growing number of US households are joining the middle class.	A growing number of US households are joining the middle class.	20381566	1472473233180	1472473233246	s	83
39395	428199	A growing number of US households are joining the middle class.	A growing number of US households are joining the middle class.	20381568	1472473233312	1472473233407	.	190
39395	428220	You can have all the horsepower and it won't matter.	You cna have all the horsepower and it won't matter.	20381735	1472473235487	1472473235706	SHIFT	16
39395	428220	You can have all the horsepower and it won't matter.	You cna have all the horsepower and it won't matter.	20381737	1472473235589	1472473235716	Y	89
39395	428220	You can have all the horsepower and it won't matter.	You cna have all the horsepower and it won't matter.	20381740	1472473235731	1472473235861	o	79
39395	428220	You can have all the horsepower and it won't matter.	You cna have all the horsepower and it won't matter.	20381748	1472473235841	1472473235970	u	85
39395	428220	You can have all the horsepower and it won't matter.	You cna have all the horsepower and it won't matter.	20381752	1472473236049	1472473236195	 	32
39395	428220	You can have all the horsepower and it won't matter.	You cna have all the horsepower and it won't matter.	20381756	1472473236277	1472473236428	c	67
39395	428220	You can have all the horsepower and it won't matter.	You cna have all the horsepower and it won't matter.	20381783	1472473236421	1472473236539	n	78
39395	428220	You can have all the horsepower and it won't matter.	You cna have all the horsepower and it won't matter.	20381787	1472473236454	1472473236574	a	65
39395	428220	You can have all the horsepower and it won't matter.	You cna have all the horsepower and it won't matter.	20381795	1472473236620	1472473236753	 	32
39395	428220	You can have all the horsepower and it won't matter.	You cna have all the horsepower and it won't matter.	20381801	1472473236747	1472473236832	h	72
39395	428220	You can have all the horsepower and it won't matter.	You cna have all the horsepower and it won't matter.	20381806	1472473236811	1472473236917	a	65
39395	428220	You can have all the horsepower and it won't matter.	You cna have all the horsepower and it won't matter.	20381811	1472473236990	1472473237086	v	86
39395	428220	You can have all the horsepower and it won't matter.	You cna have all the horsepower and it won't matter.	20381831	1472473237174	1472473237280	e	69
39395	428220	You can have all the horsepower and it won't matter.	You cna have all the horsepower and it won't matter.	20381832	1472473237320	1472473237433	 	32
39395	428220	You can have all the horsepower and it won't matter.	You cna have all the horsepower and it won't matter.	20381834	1472473237482	1472473237582	a	65
39395	428220	You can have all the horsepower and it won't matter.	You cna have all the horsepower and it won't matter.	20381835	1472473237665	1472473237730	l	76
39395	428220	You can have all the horsepower and it won't matter.	You cna have all the horsepower and it won't matter.	20381839	1472473237812	1472473237891	l	76
39395	428220	You can have all the horsepower and it won't matter.	You cna have all the horsepower and it won't matter.	20381883	1472473237896	1472473237986	 	32
39395	428220	You can have all the horsepower and it won't matter.	You cna have all the horsepower and it won't matter.	20381885	1472473238035	1472473238148	t	84
39395	428220	You can have all the horsepower and it won't matter.	You cna have all the horsepower and it won't matter.	20381887	1472473238095	1472473238183	h	72
39395	428220	You can have all the horsepower and it won't matter.	You cna have all the horsepower and it won't matter.	20381889	1472473238257	1472473238319	e	69
39395	428220	You can have all the horsepower and it won't matter.	You cna have all the horsepower and it won't matter.	20381891	1472473238351	1472473238505	 	32
39395	428220	You can have all the horsepower and it won't matter.	You cna have all the horsepower and it won't matter.	20381962	1472473238633	1472473238719	h	72
39395	428220	You can have all the horsepower and it won't matter.	You cna have all the horsepower and it won't matter.	20381965	1472473238781	1472473239076	SHIFT	16
39395	428220	You can have all the horsepower and it won't matter.	You cna have all the horsepower and it won't matter.	20381971	1472473239258	1472473239353	o	79
39395	428220	You can have all the horsepower and it won't matter.	You cna have all the horsepower and it won't matter.	20381974	1472473239398	1472473239497	r	82
39395	428220	You can have all the horsepower and it won't matter.	You cna have all the horsepower and it won't matter.	20381978	1472473239579	1472473239700	s	83
39395	428220	You can have all the horsepower and it won't matter.	You cna have all the horsepower and it won't matter.	20381983	1472473240027	1472473240131	e	69
39395	428220	You can have all the horsepower and it won't matter.	You cna have all the horsepower and it won't matter.	20382049	1472473240213	1472473240356	p	80
39395	428220	You can have all the horsepower and it won't matter.	You cna have all the horsepower and it won't matter.	20382053	1472473240349	1472473240433	o	79
39395	428220	You can have all the horsepower and it won't matter.	You cna have all the horsepower and it won't matter.	20382058	1472473241206	1472473241326	w	87
39395	428220	You can have all the horsepower and it won't matter.	You cna have all the horsepower and it won't matter.	20382062	1472473241392	1472473241505	e	69
39395	428220	You can have all the horsepower and it won't matter.	You cna have all the horsepower and it won't matter.	20382087	1472473241498	1472473241621	r	82
39395	428220	You can have all the horsepower and it won't matter.	You cna have all the horsepower and it won't matter.	20382090	1472473241627	1472473241737	 	32
39395	428220	You can have all the horsepower and it won't matter.	You cna have all the horsepower and it won't matter.	20382093	1472473241770	1472473241942	a	65
39395	428220	You can have all the horsepower and it won't matter.	You cna have all the horsepower and it won't matter.	20382097	1472473241863	1472473241980	n	78
39395	428220	You can have all the horsepower and it won't matter.	You cna have all the horsepower and it won't matter.	20382100	1472473241947	1472473242030	d	68
39395	428220	You can have all the horsepower and it won't matter.	You cna have all the horsepower and it won't matter.	20382103	1472473242055	1472473242178	 	32
39395	428220	You can have all the horsepower and it won't matter.	You cna have all the horsepower and it won't matter.	20382118	1472473242170	1472473242272	i	73
39395	428220	You can have all the horsepower and it won't matter.	You cna have all the horsepower and it won't matter.	20382123	1472473242265	1472473242349	t	84
39395	428220	You can have all the horsepower and it won't matter.	You cna have all the horsepower and it won't matter.	20382127	1472473242381	1472473242502	 	32
39395	428220	You can have all the horsepower and it won't matter.	You cna have all the horsepower and it won't matter.	20382133	1472473242530	1472473242697	w	87
39395	428220	You can have all the horsepower and it won't matter.	You cna have all the horsepower and it won't matter.	20382140	1472473242593	1472473242743	o	79
39395	428220	You can have all the horsepower and it won't matter.	You cna have all the horsepower and it won't matter.	20382252	1472473242735	1472473242862	n	78
39395	428220	You can have all the horsepower and it won't matter.	You cna have all the horsepower and it won't matter.	20382255	1472473242829	1472473242946	t	84
39395	428220	You can have all the horsepower and it won't matter.	You cna have all the horsepower and it won't matter.	20382259	1472473243477	1472473243547	BKSP	8
39395	428220	You can have all the horsepower and it won't matter.	You cna have all the horsepower and it won't matter.	20382262	1472473243962	1472473244041	'	222
39395	428220	You can have all the horsepower and it won't matter.	You cna have all the horsepower and it won't matter.	20382266	1472473244120	1472473244273	t	84
39395	428220	You can have all the horsepower and it won't matter.	You cna have all the horsepower and it won't matter.	20382271	1472473244398	1472473244552	 	32
39395	428220	You can have all the horsepower and it won't matter.	You cna have all the horsepower and it won't matter.	20382275	1472473244850	1472473244962	m	77
39395	428220	You can have all the horsepower and it won't matter.	You cna have all the horsepower and it won't matter.	20382299	1472473244986	1472473245132	a	65
39395	428220	You can have all the horsepower and it won't matter.	You cna have all the horsepower and it won't matter.	20382303	1472473245137	1472473245351	t	84
39395	428220	You can have all the horsepower and it won't matter.	You cna have all the horsepower and it won't matter.	20382307	1472473245608	1472473245707	t	84
39395	428220	You can have all the horsepower and it won't matter.	You cna have all the horsepower and it won't matter.	20382308	1472473245806	1472473245915	e	69
39395	428220	You can have all the horsepower and it won't matter.	You cna have all the horsepower and it won't matter.	20382341	1472473245908	1472473246042	r	82
39395	428220	You can have all the horsepower and it won't matter.	You cna have all the horsepower and it won't matter.	20382346	1472473246340	1472473246393	.	190
39395	428243	Because there is traffic.	Because there is traffic.	20382467	1472473248037	1472473248338	SHIFT	16
39395	428243	Because there is traffic.	Because there is traffic.	20382473	1472473248288	1472473248406	B	66
39395	428243	Because there is traffic.	Because there is traffic.	20382479	1472473248505	1472473248609	e	69
39395	428243	Because there is traffic.	Because there is traffic.	20382484	1472473249057	1472473249185	c	67
39395	428243	Because there is traffic.	Because there is traffic.	20382489	1472473249259	1472473249409	a	65
39395	428243	Because there is traffic.	Because there is traffic.	20382516	1472473249377	1472473249488	u	85
39395	428243	Because there is traffic.	Because there is traffic.	20382518	1472473249481	1472473249585	s	83
39395	428243	Because there is traffic.	Because there is traffic.	20382523	1472473249726	1472473249863	e	69
39395	428243	Because there is traffic.	Because there is traffic.	20382526	1472473249937	1472473250034	 	32
39395	428243	Because there is traffic.	Because there is traffic.	20382533	1472473250115	1472473250165	h	84
39395	428243	Because there is traffic.	Because there is traffic.	20382563	1472473250262	1472473250378	e	69
39395	428243	Because there is traffic.	Because there is traffic.	20382569	1472473250372	1472473250476	r	82
39395	428243	Because there is traffic.	Because there is traffic.	20382580	1472473250534	1472473250620	e	69
39395	428243	Because there is traffic.	Because there is traffic.	20382588	1472473250736	1472473250854	 	32
39395	428243	Because there is traffic.	Because there is traffic.	20382677	1472473250847	1472473250946	i	73
39395	428243	Because there is traffic.	Because there is traffic.	20382681	1472473250939	1472473251027	s	83
39395	428243	Because there is traffic.	Because there is traffic.	20382686	1472473251043	1472473251146	 	32
39395	428243	Because there is traffic.	Because there is traffic.	20382689	1472473252077	1472473252189	t	84
39395	428243	Because there is traffic.	Because there is traffic.	20382694	1472473252280	1472473252350	r	82
39395	428243	Because there is traffic.	Because there is traffic.	20382697	1472473252399	1472473252591	a	65
39395	428243	Because there is traffic.	Because there is traffic.	20382740	1472473252621	1472473252674	f	70
39395	428243	Because there is traffic.	Because there is traffic.	20382744	1472473252731	1472473252827	f	70
39395	428243	Because there is traffic.	Because there is traffic.	20382747	1472473252859	1472473252947	i	73
39395	428243	Because there is traffic.	Because there is traffic.	20382752	1472473252926	1472473253056	c	67
39395	428243	Because there is traffic.	Because there is traffic.	20382757	1472473253637	1472473253691	.	190
39395	428248	Police and the alleged bank robbers exchanged fire.	Police and the alleged bank robbers exchanged fire.	20382938	1472473255371	1472473255626	SHIFT	16
39395	428248	Police and the alleged bank robbers exchanged fire.	Police and the alleged bank robbers exchanged fire.	20382934	1472473255455	1472473255565	P	80
39395	428248	Police and the alleged bank robbers exchanged fire.	Police and the alleged bank robbers exchanged fire.	20382944	1472473255558	1472473255795	O	79
39395	428248	Police and the alleged bank robbers exchanged fire.	Police and the alleged bank robbers exchanged fire.	20382949	1472473255873	1472473255993	l	76
39395	428248	Police and the alleged bank robbers exchanged fire.	Police and the alleged bank robbers exchanged fire.	20382953	1472473256337	1472473256408	BKSP	8
39395	428248	Police and the alleged bank robbers exchanged fire.	Police and the alleged bank robbers exchanged fire.	20382955	1472473256466	1472473256544	BKSP	8
39395	428248	Police and the alleged bank robbers exchanged fire.	Police and the alleged bank robbers exchanged fire.	20382959	1472473257134	1472473257226	o	79
39395	428248	Police and the alleged bank robbers exchanged fire.	Police and the alleged bank robbers exchanged fire.	20382964	1472473257354	1472473257426	l	190
39395	428248	Police and the alleged bank robbers exchanged fire.	Police and the alleged bank robbers exchanged fire.	20383080	1472473257984	1472473258121	l	76
39395	428248	Police and the alleged bank robbers exchanged fire.	Police and the alleged bank robbers exchanged fire.	20383085	1472473258315	1472473258394	BKSP	8
39395	428248	Police and the alleged bank robbers exchanged fire.	Police and the alleged bank robbers exchanged fire.	20383090	1472473258493	1472473258554	BKSP	8
39395	428248	Police and the alleged bank robbers exchanged fire.	Police and the alleged bank robbers exchanged fire.	20383097	1472473258633	1472473258715	BKSP	8
39395	428248	Police and the alleged bank robbers exchanged fire.	Police and the alleged bank robbers exchanged fire.	20383101	1472473259388	1472473259501	l	76
39395	428248	Police and the alleged bank robbers exchanged fire.	Police and the alleged bank robbers exchanged fire.	20383103	1472473259682	1472473259782	i	73
39395	428248	Police and the alleged bank robbers exchanged fire.	Police and the alleged bank robbers exchanged fire.	20383108	1472473259877	1472473259997	c	67
39395	428248	Police and the alleged bank robbers exchanged fire.	Police and the alleged bank robbers exchanged fire.	20383111	1472473260087	1472473260220	e	69
39395	428248	Police and the alleged bank robbers exchanged fire.	Police and the alleged bank robbers exchanged fire.	20383116	1472473260225	1472473260352	 	32
39395	428248	Police and the alleged bank robbers exchanged fire.	Police and the alleged bank robbers exchanged fire.	20383120	1472473260385	1472473260531	a	65
39395	428248	Police and the alleged bank robbers exchanged fire.	Police and the alleged bank robbers exchanged fire.	20383125	1472473260494	1472473260600	n	78
39395	428248	Police and the alleged bank robbers exchanged fire.	Police and the alleged bank robbers exchanged fire.	20383128	1472473260605	1472473260700	d	68
39395	428248	Police and the alleged bank robbers exchanged fire.	Police and the alleged bank robbers exchanged fire.	20383177	1472473260693	1472473260829	 	32
39395	428248	Police and the alleged bank robbers exchanged fire.	Police and the alleged bank robbers exchanged fire.	20383183	1472473260822	1472473260940	t	84
39395	428248	Police and the alleged bank robbers exchanged fire.	Police and the alleged bank robbers exchanged fire.	20383191	1472473260874	1472473260966	h	72
39395	428248	Police and the alleged bank robbers exchanged fire.	Police and the alleged bank robbers exchanged fire.	20383198	1472473260999	1472473261153	e	69
39395	428248	Police and the alleged bank robbers exchanged fire.	Police and the alleged bank robbers exchanged fire.	20383203	1472473261158	1472473261269	 	32
39395	428248	Police and the alleged bank robbers exchanged fire.	Police and the alleged bank robbers exchanged fire.	20383208	1472473261359	1472473261496	a	65
39395	428248	Police and the alleged bank robbers exchanged fire.	Police and the alleged bank robbers exchanged fire.	20383247	1472473261511	1472473261623	l	76
39395	428248	Police and the alleged bank robbers exchanged fire.	Police and the alleged bank robbers exchanged fire.	20383250	1472473261705	1472473261792	l	76
39395	428248	Police and the alleged bank robbers exchanged fire.	Police and the alleged bank robbers exchanged fire.	20383253	1472473261891	1472473262007	e	69
39395	428248	Police and the alleged bank robbers exchanged fire.	Police and the alleged bank robbers exchanged fire.	20383258	1472473262114	1472473262168	d	68
39395	428248	Police and the alleged bank robbers exchanged fire.	Police and the alleged bank robbers exchanged fire.	20383262	1472473262533	1472473262616	BKSP	8
39395	428248	Police and the alleged bank robbers exchanged fire.	Police and the alleged bank robbers exchanged fire.	20383267	1472473262640	1472473262736	g	71
39395	428248	Police and the alleged bank robbers exchanged fire.	Police and the alleged bank robbers exchanged fire.	20383293	1472473262827	1472473262956	e	69
39395	428248	Police and the alleged bank robbers exchanged fire.	Police and the alleged bank robbers exchanged fire.	20383294	1472473263151	1472473263246	d	68
39395	428248	Police and the alleged bank robbers exchanged fire.	Police and the alleged bank robbers exchanged fire.	20383296	1472473263391	1472473263511	 	32
39395	428248	Police and the alleged bank robbers exchanged fire.	Police and the alleged bank robbers exchanged fire.	20383298	1472473263643	1472473263746	b	66
39395	428248	Police and the alleged bank robbers exchanged fire.	Police and the alleged bank robbers exchanged fire.	20383300	1472473263879	1472473264034	a	65
39395	428248	Police and the alleged bank robbers exchanged fire.	Police and the alleged bank robbers exchanged fire.	20383358	1472473264039	1472473264111	n	78
39395	428248	Police and the alleged bank robbers exchanged fire.	Police and the alleged bank robbers exchanged fire.	20383361	1472473264177	1472473264280	i	73
39395	428248	Police and the alleged bank robbers exchanged fire.	Police and the alleged bank robbers exchanged fire.	20383366	1472473264322	1472473264424	 	32
39395	428248	Police and the alleged bank robbers exchanged fire.	Police and the alleged bank robbers exchanged fire.	20383370	1472473264855	1472473264921	BKSP	8
39395	428248	Police and the alleged bank robbers exchanged fire.	Police and the alleged bank robbers exchanged fire.	20383373	1472473264995	1472473265082	BKSP	8
39395	428248	Police and the alleged bank robbers exchanged fire.	Police and the alleged bank robbers exchanged fire.	20383378	1472473265458	1472473265591	k	75
39395	428248	Police and the alleged bank robbers exchanged fire.	Police and the alleged bank robbers exchanged fire.	20383382	1472473265636	1472473265724	 	32
39395	428248	Police and the alleged bank robbers exchanged fire.	Police and the alleged bank robbers exchanged fire.	20383467	1472473265848	1472473265961	r	82
39395	428248	Police and the alleged bank robbers exchanged fire.	Police and the alleged bank robbers exchanged fire.	20383471	1472473265924	1472473266054	o	79
39395	428248	Police and the alleged bank robbers exchanged fire.	Police and the alleged bank robbers exchanged fire.	20383476	1472473266852	1472473266918	b	66
39395	428248	Police and the alleged bank robbers exchanged fire.	Police and the alleged bank robbers exchanged fire.	20383479	1472473266992	1472473267063	b	66
39395	428248	Police and the alleged bank robbers exchanged fire.	Police and the alleged bank robbers exchanged fire.	20383482	1472473267245	1472473267398	e	69
39395	428248	Police and the alleged bank robbers exchanged fire.	Police and the alleged bank robbers exchanged fire.	20383510	1472473267422	1472473267568	r	82
39395	428248	Police and the alleged bank robbers exchanged fire.	Police and the alleged bank robbers exchanged fire.	20383512	1472473267617	1472473267737	s	83
39395	428248	Police and the alleged bank robbers exchanged fire.	Police and the alleged bank robbers exchanged fire.	20383514	1472473267770	1472473267869	 	32
39395	428248	Police and the alleged bank robbers exchanged fire.	Police and the alleged bank robbers exchanged fire.	20383515	1472473267914	1472473268035	e	69
39395	428248	Police and the alleged bank robbers exchanged fire.	Police and the alleged bank robbers exchanged fire.	20383517	1472473268126	1472473268246	x	88
39395	428248	Police and the alleged bank robbers exchanged fire.	Police and the alleged bank robbers exchanged fire.	20383554	1472473268328	1472473268389	h	72
39395	428248	Police and the alleged bank robbers exchanged fire.	Police and the alleged bank robbers exchanged fire.	20383555	1472473268812	1472473268882	BKSP	8
39395	428248	Police and the alleged bank robbers exchanged fire.	Police and the alleged bank robbers exchanged fire.	20383557	1472473268973	1472473269093	c	67
39395	428248	Police and the alleged bank robbers exchanged fire.	Police and the alleged bank robbers exchanged fire.	20383559	1472473269221	1472473269350	h	72
39395	428248	Police and the alleged bank robbers exchanged fire.	Police and the alleged bank robbers exchanged fire.	20383563	1472473269382	1472473269554	a	65
39395	428248	Police and the alleged bank robbers exchanged fire.	Police and the alleged bank robbers exchanged fire.	20383567	1472473269559	1472473269687	n	78
39395	428248	Police and the alleged bank robbers exchanged fire.	Police and the alleged bank robbers exchanged fire.	20383584	1472473269692	1472473269806	g	71
39395	428248	Police and the alleged bank robbers exchanged fire.	Police and the alleged bank robbers exchanged fire.	20383590	1472473269897	1472473270013	e	69
39395	428248	Police and the alleged bank robbers exchanged fire.	Police and the alleged bank robbers exchanged fire.	20383599	1472473270112	1472473270230	d	68
39395	428248	Police and the alleged bank robbers exchanged fire.	Police and the alleged bank robbers exchanged fire.	20383609	1472473270290	1472473270422	 	32
39395	428248	Police and the alleged bank robbers exchanged fire.	Police and the alleged bank robbers exchanged fire.	20383615	1472473270467	1472473270579	f	70
39395	428248	Police and the alleged bank robbers exchanged fire.	Police and the alleged bank robbers exchanged fire.	20383664	1472473271022	1472473271126	i	73
39395	428248	Police and the alleged bank robbers exchanged fire.	Police and the alleged bank robbers exchanged fire.	20383667	1472473271150	1472473271238	r	82
39395	428248	Police and the alleged bank robbers exchanged fire.	Police and the alleged bank robbers exchanged fire.	20383671	1472473271303	1472473271406	e	69
39395	428248	Police and the alleged bank robbers exchanged fire.	Police and the alleged bank robbers exchanged fire.	20383674	1472473271605	1472473271742	.	190
39395	428267	Hence the importannce of the media bidding battle in Britain.	Hence the importannce of the media bidding battle in Britain.	20383782	1472473273830	1472473274031	SHIFT	16
39395	428267	Hence the importannce of the media bidding battle in Britain.	Hence the importannce of the media bidding battle in Britain.	20383784	1472473273982	1472473274098	H	72
39395	428267	Hence the importannce of the media bidding battle in Britain.	Hence the importannce of the media bidding battle in Britain.	20383786	1472473274076	1472473274198	e	69
39395	428267	Hence the importannce of the media bidding battle in Britain.	Hence the importannce of the media bidding battle in Britain.	20383790	1472473274521	1472473274620	n	78
39395	428267	Hence the importannce of the media bidding battle in Britain.	Hence the importannce of the media bidding battle in Britain.	20383794	1472473274653	1472473274772	c	67
39395	428267	Hence the importannce of the media bidding battle in Britain.	Hence the importannce of the media bidding battle in Britain.	20383798	1472473274851	1472473274966	e	69
39395	428267	Hence the importannce of the media bidding battle in Britain.	Hence the importannce of the media bidding battle in Britain.	20383813	1472473274982	1472473275052	 	32
39395	428267	Hence the importannce of the media bidding battle in Britain.	Hence the importannce of the media bidding battle in Britain.	20383815	1472473275110	1472473275218	t	84
39395	428267	Hence the importannce of the media bidding battle in Britain.	Hence the importannce of the media bidding battle in Britain.	20383816	1472473275185	1472473275283	h	72
39395	428267	Hence the importannce of the media bidding battle in Britain.	Hence the importannce of the media bidding battle in Britain.	20383817	1472473275288	1472473275424	e	69
39395	428267	Hence the importannce of the media bidding battle in Britain.	Hence the importannce of the media bidding battle in Britain.	20383818	1472473275429	1472473275560	 	32
39395	428267	Hence the importannce of the media bidding battle in Britain.	Hence the importannce of the media bidding battle in Britain.	20383893	1472473275825	1472473276124	SHIFT	16
39395	428267	Hence the importannce of the media bidding battle in Britain.	Hence the importannce of the media bidding battle in Britain.	20383890	1472473275960	1472473276039	I	73
39395	428267	Hence the importannce of the media bidding battle in Britain.	Hence the importannce of the media bidding battle in Britain.	20383896	1472473276613	1472473276683	BKSP	8
39395	428267	Hence the importannce of the media bidding battle in Britain.	Hence the importannce of the media bidding battle in Britain.	20383898	1472473277148	1472473277285	i	73
39395	428267	Hence the importannce of the media bidding battle in Britain.	Hence the importannce of the media bidding battle in Britain.	20383902	1472473277351	1472473277488	m	77
39395	428267	Hence the importannce of the media bidding battle in Britain.	Hence the importannce of the media bidding battle in Britain.	20383905	1472473277512	1472473277634	p	80
39395	428267	Hence the importannce of the media bidding battle in Britain.	Hence the importannce of the media bidding battle in Britain.	20383946	1472473277627	1472473277741	o	79
39395	428267	Hence the importannce of the media bidding battle in Britain.	Hence the importannce of the media bidding battle in Britain.	20383951	1472473277848	1472473277968	r	82
39395	428267	Hence the importannce of the media bidding battle in Britain.	Hence the importannce of the media bidding battle in Britain.	20383956	1472473278042	1472473278160	t	84
39395	428267	Hence the importannce of the media bidding battle in Britain.	Hence the importannce of the media bidding battle in Britain.	20383960	1472473278153	1472473278368	a	65
39395	428267	Hence the importannce of the media bidding battle in Britain.	Hence the importannce of the media bidding battle in Britain.	20383964	1472473278272	1472473278379	n	78
39395	428267	Hence the importannce of the media bidding battle in Britain.	Hence the importannce of the media bidding battle in Britain.	20383967	1472473278686	1472473278834	n	78
39395	428267	Hence the importannce of the media bidding battle in Britain.	Hence the importannce of the media bidding battle in Britain.	20383979	1472473278850	1472473278962	c	67
39395	428267	Hence the importannce of the media bidding battle in Britain.	Hence the importannce of the media bidding battle in Britain.	20383982	1472473279019	1472473279164	e	69
39395	428267	Hence the importannce of the media bidding battle in Britain.	Hence the importannce of the media bidding battle in Britain.	20383990	1472473279169	1472473279289	 	32
39395	428267	Hence the importannce of the media bidding battle in Britain.	Hence the importannce of the media bidding battle in Britain.	20383995	1472473279282	1472473279429	o	79
39395	428267	Hence the importannce of the media bidding battle in Britain.	Hence the importannce of the media bidding battle in Britain.	20384029	1472473279380	1472473279477	f	70
39395	428267	Hence the importannce of the media bidding battle in Britain.	Hence the importannce of the media bidding battle in Britain.	20384033	1472473279517	1472473279639	 	32
39395	428267	Hence the importannce of the media bidding battle in Britain.	Hence the importannce of the media bidding battle in Britain.	20384034	1472473279632	1472473279705	t	84
39395	428267	Hence the importannce of the media bidding battle in Britain.	Hence the importannce of the media bidding battle in Britain.	20384036	1472473279668	1472473279791	h	72
39395	428267	Hence the importannce of the media bidding battle in Britain.	Hence the importannce of the media bidding battle in Britain.	20384038	1472473279796	1472473279903	e	69
39395	428267	Hence the importannce of the media bidding battle in Britain.	Hence the importannce of the media bidding battle in Britain.	20384041	1472473279998	1472473280130	m	77
39395	428267	Hence the importannce of the media bidding battle in Britain.	Hence the importannce of the media bidding battle in Britain.	20384122	1472473280728	1472473280799	BKSP	8
39395	428267	Hence the importannce of the media bidding battle in Britain.	Hence the importannce of the media bidding battle in Britain.	20384123	1472473280864	1472473281018	 	32
39395	428267	Hence the importannce of the media bidding battle in Britain.	Hence the importannce of the media bidding battle in Britain.	20384125	1472473281233	1472473281397	m	77
39395	428267	Hence the importannce of the media bidding battle in Britain.	Hence the importannce of the media bidding battle in Britain.	20384128	1472473281367	1472473281498	e	69
39395	428267	Hence the importannce of the media bidding battle in Britain.	Hence the importannce of the media bidding battle in Britain.	20384131	1472473281580	1472473281679	d	68
39395	428267	Hence the importannce of the media bidding battle in Britain.	Hence the importannce of the media bidding battle in Britain.	20384136	1472473281703	1472473281836	i	73
39395	428267	Hence the importannce of the media bidding battle in Britain.	Hence the importannce of the media bidding battle in Britain.	20384207	1472473281877	1472473282030	a	65
39395	428267	Hence the importannce of the media bidding battle in Britain.	Hence the importannce of the media bidding battle in Britain.	20384210	1472473282063	1472473282162	 	32
39395	428267	Hence the importannce of the media bidding battle in Britain.	Hence the importannce of the media bidding battle in Britain.	20384215	1472473282261	1472473282375	v	66
39395	428267	Hence the importannce of the media bidding battle in Britain.	Hence the importannce of the media bidding battle in Britain.	20384218	1472473282832	1472473282920	BKSP	8
39395	428267	Hence the importannce of the media bidding battle in Britain.	Hence the importannce of the media bidding battle in Britain.	20384220	1472473283392	1472473283478	i	73
39395	428267	Hence the importannce of the media bidding battle in Britain.	Hence the importannce of the media bidding battle in Britain.	20384240	1472473283552	1472473283606	d	68
39395	428267	Hence the importannce of the media bidding battle in Britain.	Hence the importannce of the media bidding battle in Britain.	20384244	1472473283722	1472473283788	d	68
39395	428267	Hence the importannce of the media bidding battle in Britain.	Hence the importannce of the media bidding battle in Britain.	20384248	1472473283833	1472473283945	i	73
39395	428267	Hence the importannce of the media bidding battle in Britain.	Hence the importannce of the media bidding battle in Britain.	20384252	1472473283990	1472473284112	n	78
39395	428267	Hence the importannce of the media bidding battle in Britain.	Hence the importannce of the media bidding battle in Britain.	20384255	1472473284117	1472473284181	g	71
39395	428267	Hence the importannce of the media bidding battle in Britain.	Hence the importannce of the media bidding battle in Britain.	20384289	1472473284264	1472473284380	 	32
39395	428267	Hence the importannce of the media bidding battle in Britain.	Hence the importannce of the media bidding battle in Britain.	20384291	1472473284504	1472473284540	b	66
39395	428267	Hence the importannce of the media bidding battle in Britain.	Hence the importannce of the media bidding battle in Britain.	20384294	1472473284631	1472473284776	a	65
39395	428267	Hence the importannce of the media bidding battle in Britain.	Hence the importannce of the media bidding battle in Britain.	20384297	1472473284858	1472473284952	t	84
39395	428267	Hence the importannce of the media bidding battle in Britain.	Hence the importannce of the media bidding battle in Britain.	20384301	1472473285027	1472473285126	t	84
39395	428267	Hence the importannce of the media bidding battle in Britain.	Hence the importannce of the media bidding battle in Britain.	20384377	1472473285233	1472473285307	l	76
39395	428267	Hence the importannce of the media bidding battle in Britain.	Hence the importannce of the media bidding battle in Britain.	20384381	1472473285683	1472473285795	e	69
39395	428267	Hence the importannce of the media bidding battle in Britain.	Hence the importannce of the media bidding battle in Britain.	20384387	1472473285990	1472473286093	i	73
39395	428267	Hence the importannce of the media bidding battle in Britain.	Hence the importannce of the media bidding battle in Britain.	20384395	1472473286176	1472473286296	n	78
39395	428267	Hence the importannce of the media bidding battle in Britain.	Hence the importannce of the media bidding battle in Britain.	20384402	1472473286669	1472473286751	BKSP	8
39395	428267	Hence the importannce of the media bidding battle in Britain.	Hence the importannce of the media bidding battle in Britain.	20384406	1472473286842	1472473286928	BKSP	8
39395	428267	Hence the importannce of the media bidding battle in Britain.	Hence the importannce of the media bidding battle in Britain.	20384409	1472473287144	1472473287243	 	32
39395	428267	Hence the importannce of the media bidding battle in Britain.	Hence the importannce of the media bidding battle in Britain.	20384552	1472473287259	1472473287329	j	74
39395	428267	Hence the importannce of the media bidding battle in Britain.	Hence the importannce of the media bidding battle in Britain.	20384555	1472473288394	1472473288481	BKSP	8
39395	428267	Hence the importannce of the media bidding battle in Britain.	Hence the importannce of the media bidding battle in Britain.	20384560	1472473289213	1472473289341	i	73
39395	428267	Hence the importannce of the media bidding battle in Britain.	Hence the importannce of the media bidding battle in Britain.	20384565	1472473289432	1472473289531	n	78
39395	428267	Hence the importannce of the media bidding battle in Britain.	Hence the importannce of the media bidding battle in Britain.	20384570	1472473289780	1472473289930	 	32
39395	428267	Hence the importannce of the media bidding battle in Britain.	Hence the importannce of the media bidding battle in Britain.	20384575	1472473290128	1472473290443	SHIFT	16
39395	428267	Hence the importannce of the media bidding battle in Britain.	Hence the importannce of the media bidding battle in Britain.	20384660	1472473290394	1472473290492	V	66
39395	428267	Hence the importannce of the media bidding battle in Britain.	Hence the importannce of the media bidding battle in Britain.	20384663	1472473290941	1472473291069	BKSP	8
39395	428267	Hence the importannce of the media bidding battle in Britain.	Hence the importannce of the media bidding battle in Britain.	20384665	1472473291583	1472473291726	r	82
39395	428267	Hence the importannce of the media bidding battle in Britain.	Hence the importannce of the media bidding battle in Britain.	20384667	1472473291719	1472473291824	i	73
39395	428267	Hence the importannce of the media bidding battle in Britain.	Hence the importannce of the media bidding battle in Britain.	20384669	1472473291853	1472473291948	t	84
39395	428267	Hence the importannce of the media bidding battle in Britain.	Hence the importannce of the media bidding battle in Britain.	20384671	1472473292105	1472473292267	a	65
39395	428267	Hence the importannce of the media bidding battle in Britain.	Hence the importannce of the media bidding battle in Britain.	20384675	1472473292272	1472473292387	i	73
39395	428267	Hence the importannce of the media bidding battle in Britain.	Hence the importannce of the media bidding battle in Britain.	20384720	1472473292453	1472473292589	n	78
39395	428267	Hence the importannce of the media bidding battle in Britain.	Hence the importannce of the media bidding battle in Britain.	20384722	1472473292755	1472473292975	.	190
39395	428288	Call me if you have any questions.	Call me if you have any questions.	20384828	1472473294786	1472473295036	SHIFT	16
39395	428288	Call me if you have any questions.	Call me if you have any questions.	20384830	1472473295041	1472473295114	c	67
39395	428288	Call me if you have any questions.	Call me if you have any questions.	20384833	1472473295375	1472473295495	a	65
39395	428288	Call me if you have any questions.	Call me if you have any questions.	20384837	1472473295578	1472473295648	l	76
39395	428288	Call me if you have any questions.	Call me if you have any questions.	20384841	1472473295743	1472473295847	l	76
39395	428288	Call me if you have any questions.	Call me if you have any questions.	20384845	1472473295852	1472473295925	 	32
39395	428288	Call me if you have any questions.	Call me if you have any questions.	20384926	1472473296181	1472473296243	BKSP	8
39395	428288	Call me if you have any questions.	Call me if you have any questions.	20384928	1472473296321	1472473296400	BKSP	8
39395	428288	Call me if you have any questions.	Call me if you have any questions.	20384930	1472473296449	1472473296548	BKSP	8
39395	428288	Call me if you have any questions.	Call me if you have any questions.	20384932	1472473296606	1472473296692	BKSP	8
39395	428288	Call me if you have any questions.	Call me if you have any questions.	20384933	1472473296766	1472473296865	BKSP	8
39395	428288	Call me if you have any questions.	Call me if you have any questions.	20384934	1472473297097	1472473297451	SHIFT	16
39395	428288	Call me if you have any questions.	Call me if you have any questions.	20384935	1472473297381	1472473297586	C	67
39395	428288	Call me if you have any questions.	Call me if you have any questions.	20384937	1472473297631	1472473297781	a	65
39395	428288	Call me if you have any questions.	Call me if you have any questions.	20384938	1472473297715	1472473297833	l	76
39395	428288	Call me if you have any questions.	Call me if you have any questions.	20384940	1472473297908	1472473298070	l	76
39395	428288	Call me if you have any questions.	Call me if you have any questions.	20384941	1472473298075	1472473298190	 	32
39395	428288	Call me if you have any questions.	Call me if you have any questions.	20384945	1472473298239	1472473298373	m	77
39395	428288	Call me if you have any questions.	Call me if you have any questions.	20384946	1472473298319	1472473298450	e	69
39395	428288	Call me if you have any questions.	Call me if you have any questions.	20384947	1472473298455	1472473298537	 	32
39395	428288	Call me if you have any questions.	Call me if you have any questions.	20384948	1472473298561	1472473298687	i	73
39395	428288	Call me if you have any questions.	Call me if you have any questions.	20384972	1472473298638	1472473298756	f	70
39395	428288	Call me if you have any questions.	Call me if you have any questions.	20384975	1472473298868	1472473298963	y	89
39395	428288	Call me if you have any questions.	Call me if you have any questions.	20384981	1472473298996	1472473299139	o	79
39395	428288	Call me if you have any questions.	Call me if you have any questions.	20384985	1472473299131	1472473299200	u	85
39395	428288	Call me if you have any questions.	Call me if you have any questions.	20384989	1472473299205	1472473299294	 	32
39395	428288	Call me if you have any questions.	Call me if you have any questions.	20384993	1472473299405	1472473299526	h	72
39395	428288	Call me if you have any questions.	Call me if you have any questions.	20385126	1472473299473	1472473299619	a	65
39395	428288	Call me if you have any questions.	Call me if you have any questions.	20385128	1472473299652	1472473299755	v	86
39395	428288	Call me if you have any questions.	Call me if you have any questions.	20385132	1472473299838	1472473299971	e	69
39395	428288	Call me if you have any questions.	Call me if you have any questions.	20385137	1472473300343	1472473300409	BKSP	8
39395	428288	Call me if you have any questions.	Call me if you have any questions.	20385139	1472473300488	1472473300603	BKSP	8
39395	428288	Call me if you have any questions.	Call me if you have any questions.	20385142	1472473300619	1472473300739	BKSP	8
39395	428288	Call me if you have any questions.	Call me if you have any questions.	20385144	1472473300805	1472473300892	BKSP	8
39395	428288	Call me if you have any questions.	Call me if you have any questions.	20385147	1472473300958	1472473301053	BKSP	8
39395	428288	Call me if you have any questions.	Call me if you have any questions.	20385150	1472473301169	1472473301252	BKSP	8
39395	428288	Call me if you have any questions.	Call me if you have any questions.	20385154	1472473301325	1472473301428	BKSP	8
39395	428288	Call me if you have any questions.	Call me if you have any questions.	20385158	1472473301490	1472473301576	BKSP	8
39395	428288	Call me if you have any questions.	Call me if you have any questions.	20385163	1472473301742	1472473301874	 	32
39395	428288	Call me if you have any questions.	Call me if you have any questions.	20385165	1472473302180	1472473302300	y	89
39395	428288	Call me if you have any questions.	Call me if you have any questions.	20385167	1472473302349	1472473302504	o	79
39395	428288	Call me if you have any questions.	Call me if you have any questions.	20385172	1472473302484	1472473302589	u	85
39395	428288	Call me if you have any questions.	Call me if you have any questions.	20385175	1472473302721	1472473302787	 	32
39395	428288	Call me if you have any questions.	Call me if you have any questions.	20385177	1472473302886	1472473303003	h	72
39395	428288	Call me if you have any questions.	Call me if you have any questions.	20385181	1472473302996	1472473303118	a	65
39395	428288	Call me if you have any questions.	Call me if you have any questions.	20385183	1472473303163	1472473303262	v	86
39395	428288	Call me if you have any questions.	Call me if you have any questions.	20385186	1472473303353	1472473303486	e	69
39395	428288	Call me if you have any questions.	Call me if you have any questions.	20385242	1472473303511	1472473303630	 	32
39395	428288	Call me if you have any questions.	Call me if you have any questions.	20385246	1472473303646	1472473303747	n	78
39395	428288	Call me if you have any questions.	Call me if you have any questions.	20385250	1472473303714	1472473303847	a	65
39395	428288	Call me if you have any questions.	Call me if you have any questions.	20385253	1472473303880	1472473303968	y	89
39395	428288	Call me if you have any questions.	Call me if you have any questions.	20385257	1472473304295	1472473304364	BKSP	8
39395	428288	Call me if you have any questions.	Call me if you have any questions.	20385261	1472473304447	1472473304517	BKSP	8
39395	428288	Call me if you have any questions.	Call me if you have any questions.	20385263	1472473304579	1472473304661	BKSP	8
39395	428288	Call me if you have any questions.	Call me if you have any questions.	20385265	1472473304793	1472473304960	a	65
39395	428288	Call me if you have any questions.	Call me if you have any questions.	20385286	1472473304977	1472473305054	n	78
39395	428288	Call me if you have any questions.	Call me if you have any questions.	20385290	1472473305170	1472473305239	y	89
39395	428288	Call me if you have any questions.	Call me if you have any questions.	20385294	1472473305272	1472473305400	 	32
39395	428288	Call me if you have any questions.	Call me if you have any questions.	20385298	1472473305515	1472473305644	q	81
39395	428288	Call me if you have any questions.	Call me if you have any questions.	20385301	1472473305649	1472473305747	u	85
39395	428288	Call me if you have any questions.	Call me if you have any questions.	20385347	1472473305797	1472473305901	e	69
39395	428288	Call me if you have any questions.	Call me if you have any questions.	20385349	1472473305966	1472473306086	s	83
39395	428288	Call me if you have any questions.	Call me if you have any questions.	20385350	1472473306127	1472473306233	t	84
39395	428288	Call me if you have any questions.	Call me if you have any questions.	20385352	1472473306276	1472473306530	i	73
39395	428288	Call me if you have any questions.	Call me if you have any questions.	20385354	1472473306729	1472473306875	o	79
39395	428288	Call me if you have any questions.	Call me if you have any questions.	20385399	1472473306957	1472473307087	n	78
39395	428288	Call me if you have any questions.	Call me if you have any questions.	20385403	1472473307347	1472473307593	s	83
39395	428288	Call me if you have any questions.	Call me if you have any questions.	20385406	1472473307598	1472473307704	.	190
