PARTICIPANT_ID	TEST_SECTION_ID	SENTENCE	USER_INPUT	KEYSTROKE_ID	PRESS_TIME	RELEASE_TIME	LETTER	KEYCODE
398379	4300723	Martha Stewart will not be dining with us this Thanksgiving.	Martha Stewart will not be dining with us this Thanksgiving	204303174	1477472761929	1477472762167	CAPS_LOCK	20
398379	4300723	Martha Stewart will not be dining with us this Thanksgiving.	Martha Stewart will not be dining with us this Thanksgiving	204303175	1477472762170	1477472762248	m	77
398379	4300723	Martha Stewart will not be dining with us this Thanksgiving.	Martha Stewart will not be dining with us this Thanksgiving	204303176	1477472762359	1477472762483	CAPS_LOCK	20
398379	4300723	Martha Stewart will not be dining with us this Thanksgiving.	Martha Stewart will not be dining with us this Thanksgiving	204303177	1477472762596	1477472762718	A	65
398379	4300723	Martha Stewart will not be dining with us this Thanksgiving.	Martha Stewart will not be dining with us this Thanksgiving	204303178	1477472762876	1477472762956	R	82
398379	4300723	Martha Stewart will not be dining with us this Thanksgiving.	Martha Stewart will not be dining with us this Thanksgiving	204303179	1477472763107	1477472763178	T	84
398379	4300723	Martha Stewart will not be dining with us this Thanksgiving.	Martha Stewart will not be dining with us this Thanksgiving	204303180	1477472763875	1477472763956	BKSP	8
398379	4300723	Martha Stewart will not be dining with us this Thanksgiving.	Martha Stewart will not be dining with us this Thanksgiving	204303181	1477472764030	1477472764111	BKSP	8
398379	4300723	Martha Stewart will not be dining with us this Thanksgiving.	Martha Stewart will not be dining with us this Thanksgiving	204303182	1477472764148	1477472764229	BKSP	8
398379	4300723	Martha Stewart will not be dining with us this Thanksgiving.	Martha Stewart will not be dining with us this Thanksgiving	204303183	1477472764342	1477472764422	BKSP	8
398379	4300723	Martha Stewart will not be dining with us this Thanksgiving.	Martha Stewart will not be dining with us this Thanksgiving	204303184	1477472764956	1477472765075	M	77
398379	4300723	Martha Stewart will not be dining with us this Thanksgiving.	Martha Stewart will not be dining with us this Thanksgiving	204303192	1477472765150	1477472765275	CAPS_LOCK	20
398379	4300723	Martha Stewart will not be dining with us this Thanksgiving.	Martha Stewart will not be dining with us this Thanksgiving	204303193	1477472765569	1477472765657	a	65
398379	4300723	Martha Stewart will not be dining with us this Thanksgiving.	Martha Stewart will not be dining with us this Thanksgiving	204303194	1477472766303	1477472766353	r	82
398379	4300723	Martha Stewart will not be dining with us this Thanksgiving.	Martha Stewart will not be dining with us this Thanksgiving	204303195	1477472766466	1477472766546	t	84
398379	4300723	Martha Stewart will not be dining with us this Thanksgiving.	Martha Stewart will not be dining with us this Thanksgiving	204303196	1477472766659	1477472766739	h	72
398379	4300723	Martha Stewart will not be dining with us this Thanksgiving.	Martha Stewart will not be dining with us this Thanksgiving	204303197	1477472766889	1477472767008	a	65
398379	4300723	Martha Stewart will not be dining with us this Thanksgiving.	Martha Stewart will not be dining with us this Thanksgiving	204303222	1477472767082	1477472767200	 	32
398379	4300723	Martha Stewart will not be dining with us this Thanksgiving.	Martha Stewart will not be dining with us this Thanksgiving	204303223	1477472767389	1477472767513	CAPS_LOCK	20
398379	4300723	Martha Stewart will not be dining with us this Thanksgiving.	Martha Stewart will not be dining with us this Thanksgiving	204303224	1477472767970	1477472768050	S	83
398379	4300723	Martha Stewart will not be dining with us this Thanksgiving.	Martha Stewart will not be dining with us this Thanksgiving	204303225	1477472768087	1477472768211	CAPS_LOCK	20
398379	4300723	Martha Stewart will not be dining with us this Thanksgiving.	Martha Stewart will not be dining with us this Thanksgiving	204303226	1477472768361	1477472768441	t	84
398379	4300723	Martha Stewart will not be dining with us this Thanksgiving.	Martha Stewart will not be dining with us this Thanksgiving	204303227	1477472768592	1477472768672	e	69
398379	4300723	Martha Stewart will not be dining with us this Thanksgiving.	Martha Stewart will not be dining with us this Thanksgiving	204303228	1477472768746	1477472768866	w	87
398379	4300723	Martha Stewart will not be dining with us this Thanksgiving.	Martha Stewart will not be dining with us this Thanksgiving	204303255	1477472768977	1477472769103	a	65
398379	4300723	Martha Stewart will not be dining with us this Thanksgiving.	Martha Stewart will not be dining with us this Thanksgiving	204303256	1477472769106	1477472769182	r	82
398379	4300723	Martha Stewart will not be dining with us this Thanksgiving.	Martha Stewart will not be dining with us this Thanksgiving	204303257	1477472770018	1477472770136	t	84
398379	4300723	Martha Stewart will not be dining with us this Thanksgiving.	Martha Stewart will not be dining with us this Thanksgiving	204303258	1477472770173	1477472770291	 	32
398379	4300723	Martha Stewart will not be dining with us this Thanksgiving.	Martha Stewart will not be dining with us this Thanksgiving	204303259	1477472770781	1477472770864	w	87
398379	4300723	Martha Stewart will not be dining with us this Thanksgiving.	Martha Stewart will not be dining with us this Thanksgiving	204303270	1477472771014	1477472771094	i	73
398379	4300723	Martha Stewart will not be dining with us this Thanksgiving.	Martha Stewart will not be dining with us this Thanksgiving	204303271	1477472771206	1477472771254	l	76
398379	4300723	Martha Stewart will not be dining with us this Thanksgiving.	Martha Stewart will not be dining with us this Thanksgiving	204303272	1477472771323	1477472771405	l	76
398379	4300723	Martha Stewart will not be dining with us this Thanksgiving.	Martha Stewart will not be dining with us this Thanksgiving	204303273	1477472771515	1477472771633	 	32
398379	4300723	Martha Stewart will not be dining with us this Thanksgiving.	Martha Stewart will not be dining with us this Thanksgiving	204303274	1477472771859	1477472771940	n	78
398379	4300723	Martha Stewart will not be dining with us this Thanksgiving.	Martha Stewart will not be dining with us this Thanksgiving	204303286	1477472772067	1477472772147	o	79
398379	4300723	Martha Stewart will not be dining with us this Thanksgiving.	Martha Stewart will not be dining with us this Thanksgiving	204303290	1477472772381	1477472772461	t	84
398379	4300723	Martha Stewart will not be dining with us this Thanksgiving.	Martha Stewart will not be dining with us this Thanksgiving	204303293	1477472772535	1477472772654	 	32
398379	4300723	Martha Stewart will not be dining with us this Thanksgiving.	Martha Stewart will not be dining with us this Thanksgiving	204303296	1477472773413	1477472773493	b	66
398379	4300723	Martha Stewart will not be dining with us this Thanksgiving.	Martha Stewart will not be dining with us this Thanksgiving	204303299	1477472773612	1477472773732	e	69
398379	4300723	Martha Stewart will not be dining with us this Thanksgiving.	Martha Stewart will not be dining with us this Thanksgiving	204303331	1477472773766	1477472773847	 	32
398379	4300723	Martha Stewart will not be dining with us this Thanksgiving.	Martha Stewart will not be dining with us this Thanksgiving	204303332	1477472774606	1477472774724	d	68
398379	4300723	Martha Stewart will not be dining with us this Thanksgiving.	Martha Stewart will not be dining with us this Thanksgiving	204303333	1477472774875	1477472774954	i	73
398379	4300723	Martha Stewart will not be dining with us this Thanksgiving.	Martha Stewart will not be dining with us this Thanksgiving	204303335	1477472775105	1477472775184	n	78
398379	4300723	Martha Stewart will not be dining with us this Thanksgiving.	Martha Stewart will not be dining with us this Thanksgiving	204303337	1477472775220	1477472775339	i	73
398379	4300723	Martha Stewart will not be dining with us this Thanksgiving.	Martha Stewart will not be dining with us this Thanksgiving	204303361	1477472775451	1477472775504	n	78
398379	4300723	Martha Stewart will not be dining with us this Thanksgiving.	Martha Stewart will not be dining with us this Thanksgiving	204303363	1477472775654	1477472775734	g	71
398379	4300723	Martha Stewart will not be dining with us this Thanksgiving.	Martha Stewart will not be dining with us this Thanksgiving	204303365	1477472775808	1477472775889	 	32
398379	4300723	Martha Stewart will not be dining with us this Thanksgiving.	Martha Stewart will not be dining with us this Thanksgiving	204303366	1477472776419	1477472776539	w	87
398379	4300723	Martha Stewart will not be dining with us this Thanksgiving.	Martha Stewart will not be dining with us this Thanksgiving	204303367	1477472776611	1477472776691	i	73
398379	4300723	Martha Stewart will not be dining with us this Thanksgiving.	Martha Stewart will not be dining with us this Thanksgiving	204303387	1477472776879	1477472776959	t	84
398379	4300723	Martha Stewart will not be dining with us this Thanksgiving.	Martha Stewart will not be dining with us this Thanksgiving	204303390	1477472777033	1477472777113	h	72
398379	4300723	Martha Stewart will not be dining with us this Thanksgiving.	Martha Stewart will not be dining with us this Thanksgiving	204303392	1477472777188	1477472777270	 	32
398379	4300723	Martha Stewart will not be dining with us this Thanksgiving.	Martha Stewart will not be dining with us this Thanksgiving	204303394	1477472777800	1477472777853	u	85
398379	4300723	Martha Stewart will not be dining with us this Thanksgiving.	Martha Stewart will not be dining with us this Thanksgiving	204303396	1477472777963	1477472778047	s	83
398379	4300723	Martha Stewart will not be dining with us this Thanksgiving.	Martha Stewart will not be dining with us this Thanksgiving	204303420	1477472778084	1477472778164	 	32
398379	4300723	Martha Stewart will not be dining with us this Thanksgiving.	Martha Stewart will not be dining with us this Thanksgiving	204303421	1477472778315	1477472778394	t	84
398379	4300723	Martha Stewart will not be dining with us this Thanksgiving.	Martha Stewart will not be dining with us this Thanksgiving	204303422	1477472778468	1477472778557	h	72
398379	4300723	Martha Stewart will not be dining with us this Thanksgiving.	Martha Stewart will not be dining with us this Thanksgiving	204303423	1477472778787	1477472778867	i	73
398379	4300723	Martha Stewart will not be dining with us this Thanksgiving.	Martha Stewart will not be dining with us this Thanksgiving	204303424	1477472778945	1477472779131	s	83
398379	4300723	Martha Stewart will not be dining with us this Thanksgiving.	Martha Stewart will not be dining with us this Thanksgiving	204303447	1477472779060	1477472779180	 	32
398379	4300723	Martha Stewart will not be dining with us this Thanksgiving.	Martha Stewart will not be dining with us this Thanksgiving	204303448	1477472779330	1477472779503	CAPS_LOCK	20
398379	4300723	Martha Stewart will not be dining with us this Thanksgiving.	Martha Stewart will not be dining with us this Thanksgiving	204303449	1477472779450	1477472779533	T	84
398379	4300723	Martha Stewart will not be dining with us this Thanksgiving.	Martha Stewart will not be dining with us this Thanksgiving	204303451	1477472779570	1477472779693	CAPS_LOCK	20
398379	4300723	Martha Stewart will not be dining with us this Thanksgiving.	Martha Stewart will not be dining with us this Thanksgiving	204303453	1477472779768	1477472779842	h	72
398379	4300723	Martha Stewart will not be dining with us this Thanksgiving.	Martha Stewart will not be dining with us this Thanksgiving	204303455	1477472779998	1477472780116	a	65
398379	4300723	Martha Stewart will not be dining with us this Thanksgiving.	Martha Stewart will not be dining with us this Thanksgiving	204303457	1477472780456	1477472780527	n	78
398379	4300723	Martha Stewart will not be dining with us this Thanksgiving.	Martha Stewart will not be dining with us this Thanksgiving	204303461	1477472780623	1477472780703	k	75
398379	4300723	Martha Stewart will not be dining with us this Thanksgiving.	Martha Stewart will not be dining with us this Thanksgiving	204303486	1477472780815	1477472780895	s	83
398379	4300723	Martha Stewart will not be dining with us this Thanksgiving.	Martha Stewart will not be dining with us this Thanksgiving	204303488	1477472781349	1477472781429	g	71
398379	4300723	Martha Stewart will not be dining with us this Thanksgiving.	Martha Stewart will not be dining with us this Thanksgiving	204303490	1477472781541	1477472781621	i	73
398379	4300723	Martha Stewart will not be dining with us this Thanksgiving.	Martha Stewart will not be dining with us this Thanksgiving	204303491	1477472781999	1477472782079	v	86
398379	4300723	Martha Stewart will not be dining with us this Thanksgiving.	Martha Stewart will not be dining with us this Thanksgiving	204303492	1477472782081	1477472782195	i	73
398379	4300723	Martha Stewart will not be dining with us this Thanksgiving.	Martha Stewart will not be dining with us this Thanksgiving	204303519	1477472782308	1477472782388	n	78
398379	4300723	Martha Stewart will not be dining with us this Thanksgiving.	Martha Stewart will not be dining with us this Thanksgiving	204303520	1477472782500	1477472782580	g	71
398379	4300730	Bob, I'll pick San Diego as my winner.	Bob, I'll pick San Diego as my winner	204303557	1477472786706	1477472786855	CAPS_LOCK	20
398379	4300730	Bob, I'll pick San Diego as my winner.	Bob, I'll pick San Diego as my winner	204303558	1477472787082	1477472787200	B	66
398379	4300730	Bob, I'll pick San Diego as my winner.	Bob, I'll pick San Diego as my winner	204303559	1477472787275	1477472787399	CAPS_LOCK	20
398379	4300730	Bob, I'll pick San Diego as my winner.	Bob, I'll pick San Diego as my winner	204303560	1477472787435	1477472787515	o	79
398379	4300730	Bob, I'll pick San Diego as my winner.	Bob, I'll pick San Diego as my winner	204303561	1477472787779	1477472787851	b	66
398379	4300730	Bob, I'll pick San Diego as my winner.	Bob, I'll pick San Diego as my winner	204303562	1477472788251	1477472788330	,	188
398379	4300730	Bob, I'll pick San Diego as my winner.	Bob, I'll pick San Diego as my winner	204303563	1477472788423	1477472788541	 	32
398379	4300730	Bob, I'll pick San Diego as my winner.	Bob, I'll pick San Diego as my winner	204303643	1477472789552	1477472789695	CAPS_LOCK	20
398379	4300730	Bob, I'll pick San Diego as my winner.	Bob, I'll pick San Diego as my winner	204303644	1477472790458	1477472790559	I	73
398379	4300730	Bob, I'll pick San Diego as my winner.	Bob, I'll pick San Diego as my winner	204303645	1477472790689	1477472790779	CAPS_LOCK	20
398379	4300730	Bob, I'll pick San Diego as my winner.	Bob, I'll pick San Diego as my winner	204303646	1477472791059	1477472791113	'	222
398379	4300730	Bob, I'll pick San Diego as my winner.	Bob, I'll pick San Diego as my winner	204303647	1477472792111	1477472792185	l	76
398379	4300730	Bob, I'll pick San Diego as my winner.	Bob, I'll pick San Diego as my winner	204303648	1477472792227	1477472792346	l	76
398379	4300730	Bob, I'll pick San Diego as my winner.	Bob, I'll pick San Diego as my winner	204303649	1477472792420	1477472792538	 	32
398379	4300730	Bob, I'll pick San Diego as my winner.	Bob, I'll pick San Diego as my winner	204303676	1477472793106	1477472793186	p	80
398379	4300730	Bob, I'll pick San Diego as my winner.	Bob, I'll pick San Diego as my winner	204303678	1477472793337	1477472793416	i	73
398379	4300730	Bob, I'll pick San Diego as my winner.	Bob, I'll pick San Diego as my winner	204303680	1477472793794	1477472793874	c	67
398379	4300730	Bob, I'll pick San Diego as my winner.	Bob, I'll pick San Diego as my winner	204303682	1477472793986	1477472794066	k	75
398379	4300730	Bob, I'll pick San Diego as my winner.	Bob, I'll pick San Diego as my winner	204303683	1477472794178	1477472794296	 	32
398379	4300730	Bob, I'll pick San Diego as my winner.	Bob, I'll pick San Diego as my winner	204303699	1477472794447	1477472794571	CAPS_LOCK	20
398379	4300730	Bob, I'll pick San Diego as my winner.	Bob, I'll pick San Diego as my winner	204303700	1477472794988	1477472795069	S	83
398379	4300730	Bob, I'll pick San Diego as my winner.	Bob, I'll pick San Diego as my winner	204303701	1477472795105	1477472795229	CAPS_LOCK	20
398379	4300730	Bob, I'll pick San Diego as my winner.	Bob, I'll pick San Diego as my winner	204303702	1477472795494	1477472795611	a	65
398379	4300730	Bob, I'll pick San Diego as my winner.	Bob, I'll pick San Diego as my winner	204303703	1477472795647	1477472795765	n	78
398379	4300730	Bob, I'll pick San Diego as my winner.	Bob, I'll pick San Diego as my winner	204303704	1477472795840	1477472795996	 	32
398379	4300730	Bob, I'll pick San Diego as my winner.	Bob, I'll pick San Diego as my winner	204303705	1477472796108	1477472796232	CAPS_LOCK	20
398379	4300730	Bob, I'll pick San Diego as my winner.	Bob, I'll pick San Diego as my winner	204303706	1477472796650	1477472796730	D	68
398379	4300730	Bob, I'll pick San Diego as my winner.	Bob, I'll pick San Diego as my winner	204303732	1477472796805	1477472796928	CAPS_LOCK	20
398379	4300730	Bob, I'll pick San Diego as my winner.	Bob, I'll pick San Diego as my winner	204303734	1477472797193	1477472797247	i	73
398379	4300730	Bob, I'll pick San Diego as my winner.	Bob, I'll pick San Diego as my winner	204303736	1477472797549	1477472797629	e	69
398379	4300730	Bob, I'll pick San Diego as my winner.	Bob, I'll pick San Diego as my winner	204303737	1477472797742	1477472797810	g	71
398379	4300730	Bob, I'll pick San Diego as my winner.	Bob, I'll pick San Diego as my winner	204303738	1477472797972	1477472798052	o	79
398379	4300730	Bob, I'll pick San Diego as my winner.	Bob, I'll pick San Diego as my winner	204303739	1477472798164	1477472798282	 	32
398379	4300730	Bob, I'll pick San Diego as my winner.	Bob, I'll pick San Diego as my winner	204303764	1477472798927	1477472799044	a	65
398379	4300730	Bob, I'll pick San Diego as my winner.	Bob, I'll pick San Diego as my winner	204303765	1477472799157	1477472799237	s	83
398379	4300730	Bob, I'll pick San Diego as my winner.	Bob, I'll pick San Diego as my winner	204303766	1477472799273	1477472799355	 	32
398379	4300730	Bob, I'll pick San Diego as my winner.	Bob, I'll pick San Diego as my winner	204303767	1477472799890	1477472799974	m	77
398379	4300730	Bob, I'll pick San Diego as my winner.	Bob, I'll pick San Diego as my winner	204303768	1477472800276	1477472800356	y	89
398379	4300730	Bob, I'll pick San Diego as my winner.	Bob, I'll pick San Diego as my winner	204303780	1477472800430	1477472800548	 	32
398379	4300730	Bob, I'll pick San Diego as my winner.	Bob, I'll pick San Diego as my winner	204303781	1477472800660	1477472800778	w	87
398379	4300730	Bob, I'll pick San Diego as my winner.	Bob, I'll pick San Diego as my winner	204303783	1477472800890	1477472800970	i	73
398379	4300730	Bob, I'll pick San Diego as my winner.	Bob, I'll pick San Diego as my winner	204303785	1477472801158	1477472801238	n	78
398379	4300730	Bob, I'll pick San Diego as my winner.	Bob, I'll pick San Diego as my winner	204303787	1477472801312	1477472801393	n	78
398379	4300730	Bob, I'll pick San Diego as my winner.	Bob, I'll pick San Diego as my winner	204303810	1477472801505	1477472801585	e	69
398379	4300730	Bob, I'll pick San Diego as my winner.	Bob, I'll pick San Diego as my winner	204303811	1477472801697	1477472801777	r	82
398379	4300740	We're not aware of any possible changes at Stanford Stadium.	We're not aware of any possible changes at Stanford Stadium.	204303934	1477472806194	1477472806356	CAPS_LOCK	20
398379	4300740	We're not aware of any possible changes at Stanford Stadium.	We're not aware of any possible changes at Stanford Stadium.	204303936	1477472806430	1477472806511	W	87
398379	4300740	We're not aware of any possible changes at Stanford Stadium.	We're not aware of any possible changes at Stanford Stadium.	204303938	1477472806585	1477472806671	CAPS_LOCK	20
398379	4300740	We're not aware of any possible changes at Stanford Stadium.	We're not aware of any possible changes at Stanford Stadium.	204303940	1477472806859	1477472806939	e	69
398379	4300740	We're not aware of any possible changes at Stanford Stadium.	We're not aware of any possible changes at Stanford Stadium.	204303942	1477472807740	1477472807816	'	222
398379	4300740	We're not aware of any possible changes at Stanford Stadium.	We're not aware of any possible changes at Stanford Stadium.	204303944	1477472808118	1477472808235	e	69
398379	4300740	We're not aware of any possible changes at Stanford Stadium.	We're not aware of any possible changes at Stanford Stadium.	204303945	1477472808310	1477472808389	w	87
398379	4300740	We're not aware of any possible changes at Stanford Stadium.	We're not aware of any possible changes at Stanford Stadium.	204304014	1477472808392	1477472808506	 	32
398379	4300740	We're not aware of any possible changes at Stanford Stadium.	We're not aware of any possible changes at Stanford Stadium.	204304016	1477472809227	1477472809345	BKSP	8
398379	4300740	We're not aware of any possible changes at Stanford Stadium.	We're not aware of any possible changes at Stanford Stadium.	204304019	1477472809381	1477472809499	BKSP	8
398379	4300740	We're not aware of any possible changes at Stanford Stadium.	We're not aware of any possible changes at Stanford Stadium.	204304023	1477472809573	1477472809653	BKSP	8
398379	4300740	We're not aware of any possible changes at Stanford Stadium.	We're not aware of any possible changes at Stanford Stadium.	204304027	1477472810297	1477472810377	r	82
398379	4300740	We're not aware of any possible changes at Stanford Stadium.	We're not aware of any possible changes at Stanford Stadium.	204304030	1477472810489	1477472810575	e	69
398379	4300740	We're not aware of any possible changes at Stanford Stadium.	We're not aware of any possible changes at Stanford Stadium.	204304032	1477472810578	1477472810692	 	32
398379	4300740	We're not aware of any possible changes at Stanford Stadium.	We're not aware of any possible changes at Stanford Stadium.	204304034	1477472811260	1477472811340	n	78
398379	4300740	We're not aware of any possible changes at Stanford Stadium.	We're not aware of any possible changes at Stanford Stadium.	204304052	1477472811416	1477472811495	o	79
398379	4300740	We're not aware of any possible changes at Stanford Stadium.	We're not aware of any possible changes at Stanford Stadium.	204304054	1477472811683	1477472811762	t	84
398379	4300740	We're not aware of any possible changes at Stanford Stadium.	We're not aware of any possible changes at Stanford Stadium.	204304057	1477472811798	1477472811917	 	32
398379	4300740	We're not aware of any possible changes at Stanford Stadium.	We're not aware of any possible changes at Stanford Stadium.	204304060	1477472811991	1477472812109	a	65
398379	4300740	We're not aware of any possible changes at Stanford Stadium.	We're not aware of any possible changes at Stanford Stadium.	204304064	1477472812598	1477472812652	w	87
398379	4300740	We're not aware of any possible changes at Stanford Stadium.	We're not aware of any possible changes at Stanford Stadium.	204304109	1477472812679	1477472812797	a	65
398379	4300740	We're not aware of any possible changes at Stanford Stadium.	We're not aware of any possible changes at Stanford Stadium.	204304110	1477472813403	1477472813468	r	82
398379	4300740	We're not aware of any possible changes at Stanford Stadium.	We're not aware of any possible changes at Stanford Stadium.	204304111	1477472813557	1477472813638	e	69
398379	4300740	We're not aware of any possible changes at Stanford Stadium.	We're not aware of any possible changes at Stanford Stadium.	204304113	1477472813939	1477472814057	 	32
398379	4300740	We're not aware of any possible changes at Stanford Stadium.	We're not aware of any possible changes at Stanford Stadium.	204304116	1477472814536	1477472814592	o	79
398379	4300740	We're not aware of any possible changes at Stanford Stadium.	We're not aware of any possible changes at Stanford Stadium.	204304142	1477472814816	1477472814896	f	70
398379	4300740	We're not aware of any possible changes at Stanford Stadium.	We're not aware of any possible changes at Stanford Stadium.	204304144	1477472814932	1477472815051	 	32
398379	4300740	We're not aware of any possible changes at Stanford Stadium.	We're not aware of any possible changes at Stanford Stadium.	204304146	1477472815125	1477472815242	a	65
398379	4300740	We're not aware of any possible changes at Stanford Stadium.	We're not aware of any possible changes at Stanford Stadium.	204304148	1477472815317	1477472815397	n	78
398379	4300740	We're not aware of any possible changes at Stanford Stadium.	We're not aware of any possible changes at Stanford Stadium.	204304150	1477472815547	1477472815627	y	89
398379	4300740	We're not aware of any possible changes at Stanford Stadium.	We're not aware of any possible changes at Stanford Stadium.	204304181	1477472815701	1477472815819	 	32
398379	4300740	We're not aware of any possible changes at Stanford Stadium.	We're not aware of any possible changes at Stanford Stadium.	204304182	1477472816997	1477472817076	p	80
398379	4300740	We're not aware of any possible changes at Stanford Stadium.	We're not aware of any possible changes at Stanford Stadium.	204304183	1477472817189	1477472817269	o	79
398379	4300740	We're not aware of any possible changes at Stanford Stadium.	We're not aware of any possible changes at Stanford Stadium.	204304184	1477472817381	1477472817499	s	83
398379	4300740	We're not aware of any possible changes at Stanford Stadium.	We're not aware of any possible changes at Stanford Stadium.	204304185	1477472817574	1477472817657	s	83
398379	4300740	We're not aware of any possible changes at Stanford Stadium.	We're not aware of any possible changes at Stanford Stadium.	204304206	1477472817693	1477472817774	i	73
398379	4300740	We're not aware of any possible changes at Stanford Stadium.	We're not aware of any possible changes at Stanford Stadium.	204304208	1477472817924	1477472818041	b	66
398379	4300740	We're not aware of any possible changes at Stanford Stadium.	We're not aware of any possible changes at Stanford Stadium.	204304209	1477472818267	1477472818347	l	76
398379	4300740	We're not aware of any possible changes at Stanford Stadium.	We're not aware of any possible changes at Stanford Stadium.	204304210	1477472818390	1477472818508	e	69
398379	4300740	We're not aware of any possible changes at Stanford Stadium.	We're not aware of any possible changes at Stanford Stadium.	204304211	1477472818544	1477472818666	 	32
398379	4300740	We're not aware of any possible changes at Stanford Stadium.	We're not aware of any possible changes at Stanford Stadium.	204304230	1477472819306	1477472819386	c	67
398379	4300740	We're not aware of any possible changes at Stanford Stadium.	We're not aware of any possible changes at Stanford Stadium.	204304232	1477472819498	1477472819579	h	72
398379	4300740	We're not aware of any possible changes at Stanford Stadium.	We're not aware of any possible changes at Stanford Stadium.	204304235	1477472819653	1477472819733	a	65
398379	4300740	We're not aware of any possible changes at Stanford Stadium.	We're not aware of any possible changes at Stanford Stadium.	204304238	1477472820269	1477472820323	n	78
398379	4300740	We're not aware of any possible changes at Stanford Stadium.	We're not aware of any possible changes at Stanford Stadium.	204304239	1477472820615	1477472820734	g	71
398379	4300740	We're not aware of any possible changes at Stanford Stadium.	We're not aware of any possible changes at Stanford Stadium.	204304248	1477472820728	1477472820848	e	69
398379	4300740	We're not aware of any possible changes at Stanford Stadium.	We're not aware of any possible changes at Stanford Stadium.	204304249	1477472820927	1477472821044	s	83
398379	4300740	We're not aware of any possible changes at Stanford Stadium.	We're not aware of any possible changes at Stanford Stadium.	204304250	1477472821047	1477472821161	 	32
398379	4300740	We're not aware of any possible changes at Stanford Stadium.	We're not aware of any possible changes at Stanford Stadium.	204304251	1477472821424	1477472821543	a	65
398379	4300740	We're not aware of any possible changes at Stanford Stadium.	We're not aware of any possible changes at Stanford Stadium.	204304253	1477472822187	1477472822266	t	84
398379	4300740	We're not aware of any possible changes at Stanford Stadium.	We're not aware of any possible changes at Stanford Stadium.	204304255	1477472822303	1477472822421	 	32
398379	4300740	We're not aware of any possible changes at Stanford Stadium.	We're not aware of any possible changes at Stanford Stadium.	204304313	1477472823560	1477472823722	CAPS_LOCK	20
398379	4300740	We're not aware of any possible changes at Stanford Stadium.	We're not aware of any possible changes at Stanford Stadium.	204304314	1477472823987	1477472824067	S	83
398379	4300740	We're not aware of any possible changes at Stanford Stadium.	We're not aware of any possible changes at Stanford Stadium.	204304319	1477472824108	1477472824232	CAPS_LOCK	20
398379	4300740	We're not aware of any possible changes at Stanford Stadium.	We're not aware of any possible changes at Stanford Stadium.	204304323	1477472824381	1477472824462	t	84
398379	4300740	We're not aware of any possible changes at Stanford Stadium.	We're not aware of any possible changes at Stanford Stadium.	204304327	1477472824536	1477472824654	a	65
398379	4300740	We're not aware of any possible changes at Stanford Stadium.	We're not aware of any possible changes at Stanford Stadium.	204304333	1477472824994	1477472825084	n	78
398379	4300740	We're not aware of any possible changes at Stanford Stadium.	We're not aware of any possible changes at Stanford Stadium.	204304338	1477472825842	1477472825929	d	68
398379	4300740	We're not aware of any possible changes at Stanford Stadium.	We're not aware of any possible changes at Stanford Stadium.	204304373	1477472826306	1477472826425	BKSP	8
398379	4300740	We're not aware of any possible changes at Stanford Stadium.	We're not aware of any possible changes at Stanford Stadium.	204304375	1477472826650	1477472826768	f	70
398379	4300740	We're not aware of any possible changes at Stanford Stadium.	We're not aware of any possible changes at Stanford Stadium.	204304378	1477472826841	1477472826922	o	79
398379	4300740	We're not aware of any possible changes at Stanford Stadium.	We're not aware of any possible changes at Stanford Stadium.	204304381	1477472827185	1477472827265	r	82
398379	4300740	We're not aware of any possible changes at Stanford Stadium.	We're not aware of any possible changes at Stanford Stadium.	204304385	1477472827415	1477472827533	d	68
398379	4300740	We're not aware of any possible changes at Stanford Stadium.	We're not aware of any possible changes at Stanford Stadium.	204304389	1477472827607	1477472827725	 	32
398379	4300740	We're not aware of any possible changes at Stanford Stadium.	We're not aware of any possible changes at Stanford Stadium.	204304474	1477472828179	1477472828305	CAPS_LOCK	20
398379	4300740	We're not aware of any possible changes at Stanford Stadium.	We're not aware of any possible changes at Stanford Stadium.	204304476	1477472828299	1477472828382	S	83
398379	4300740	We're not aware of any possible changes at Stanford Stadium.	We're not aware of any possible changes at Stanford Stadium.	204304478	1477472828456	1477472828542	CAPS_LOCK	20
398379	4300740	We're not aware of any possible changes at Stanford Stadium.	We're not aware of any possible changes at Stanford Stadium.	204304479	1477472828692	1477472828772	t	84
398379	4300740	We're not aware of any possible changes at Stanford Stadium.	We're not aware of any possible changes at Stanford Stadium.	204304480	1477472828884	1477472829002	a	65
398379	4300740	We're not aware of any possible changes at Stanford Stadium.	We're not aware of any possible changes at Stanford Stadium.	204304481	1477472830598	1477472830716	d	68
398379	4300740	We're not aware of any possible changes at Stanford Stadium.	We're not aware of any possible changes at Stanford Stadium.	204304482	1477472830866	1477472830950	i	73
398379	4300740	We're not aware of any possible changes at Stanford Stadium.	We're not aware of any possible changes at Stanford Stadium.	204304527	1477472831247	1477472831300	u	85
398379	4300740	We're not aware of any possible changes at Stanford Stadium.	We're not aware of any possible changes at Stanford Stadium.	204304529	1477472831591	1477472831671	m	77
398379	4300740	We're not aware of any possible changes at Stanford Stadium.	We're not aware of any possible changes at Stanford Stadium.	204304531	1477472832505	1477472832586	.	190
398379	4300749	Please call me if you see any problems.	Please call me if you see any problems	204304597	1477472835933	1477472836095	CAPS_LOCK	20
398379	4300749	Please call me if you see any problems.	Please call me if you see any problems	204304600	1477472836208	1477472836288	P	80
398379	4300749	Please call me if you see any problems.	Please call me if you see any problems	204304603	1477472836363	1477472836486	CAPS_LOCK	20
398379	4300749	Please call me if you see any problems.	Please call me if you see any problems	204304604	1477472836523	1477472836603	l	76
398379	4300749	Please call me if you see any problems.	Please call me if you see any problems	204304605	1477472836942	1477472837021	e	69
398379	4300749	Please call me if you see any problems.	Please call me if you see any problems	204304606	1477472837058	1477472837139	a	65
398379	4300749	Please call me if you see any problems.	Please call me if you see any problems	204304607	1477472837252	1477472837331	s	83
398379	4300749	Please call me if you see any problems.	Please call me if you see any problems	204304627	1477472837975	1477472838055	e	69
398379	4300749	Please call me if you see any problems.	Please call me if you see any problems	204304630	1477472838129	1477472838247	 	32
398379	4300749	Please call me if you see any problems.	Please call me if you see any problems	204304633	1477472838397	1477472838477	c	67
398379	4300749	Please call me if you see any problems.	Please call me if you see any problems	204304635	1477472838589	1477472838707	a	65
398379	4300749	Please call me if you see any problems.	Please call me if you see any problems	204304637	1477472838781	1477472838861	l	76
398379	4300749	Please call me if you see any problems.	Please call me if you see any problems	204304644	1477472838935	1477472839016	l	76
398379	4300749	Please call me if you see any problems.	Please call me if you see any problems	204304646	1477472839092	1477472839207	 	32
398379	4300749	Please call me if you see any problems.	Please call me if you see any problems	204304648	1477472839320	1477472839400	m	77
398379	4300749	Please call me if you see any problems.	Please call me if you see any problems	204304650	1477472839436	1477472839554	e	69
398379	4300749	Please call me if you see any problems.	Please call me if you see any problems	204304652	1477472839556	1477472839670	 	32
398379	4300749	Please call me if you see any problems.	Please call me if you see any problems	204304688	1477472840181	1477472840242	i	73
398379	4300749	Please call me if you see any problems.	Please call me if you see any problems	204304689	1477472840581	1477472840661	f	70
398379	4300749	Please call me if you see any problems.	Please call me if you see any problems	204304690	1477472840698	1477472840816	 	32
398379	4300749	Please call me if you see any problems.	Please call me if you see any problems	204304692	1477472840928	1477472841008	y	89
398379	4300749	Please call me if you see any problems.	Please call me if you see any problems	204304694	1477472841122	1477472841200	o	79
398379	4300749	Please call me if you see any problems.	Please call me if you see any problems	204304727	1477472841313	1477472841392	u	85
398379	4300749	Please call me if you see any problems.	Please call me if you see any problems	204304728	1477472841428	1477472841546	 	32
398379	4300749	Please call me if you see any problems.	Please call me if you see any problems	204304729	1477472842000	1477472842118	s	83
398379	4300749	Please call me if you see any problems.	Please call me if you see any problems	204304730	1477472842533	1477472842651	e	69
398379	4300749	Please call me if you see any problems.	Please call me if you see any problems	204304732	1477472842725	1477472842805	e	69
398379	4300749	Please call me if you see any problems.	Please call me if you see any problems	204304769	1477472842917	1477472843035	 	32
398379	4300749	Please call me if you see any problems.	Please call me if you see any problems	204304770	1477472843456	1477472843522	g	71
398379	4300749	Please call me if you see any problems.	Please call me if you see any problems	204304771	1477472843799	1477472843917	 	32
398379	4300749	Please call me if you see any problems.	Please call me if you see any problems	204304772	1477472844332	1477472844412	BKSP	8
398379	4300749	Please call me if you see any problems.	Please call me if you see any problems	204304774	1477472844487	1477472844567	BKSP	8
398379	4300749	Please call me if you see any problems.	Please call me if you see any problems	204304776	1477472844868	1477472844988	a	65
398379	4300749	Please call me if you see any problems.	Please call me if you see any problems	204304778	1477472845062	1477472845142	n	78
398379	4300749	Please call me if you see any problems.	Please call me if you see any problems	204304796	1477472845292	1477472845372	y	89
398379	4300749	Please call me if you see any problems.	Please call me if you see any problems	204304797	1477472845409	1477472845507	 	32
398379	4300749	Please call me if you see any problems.	Please call me if you see any problems	204304798	1477472846075	1477472846193	p	80
398379	4300749	Please call me if you see any problems.	Please call me if you see any problems	204304799	1477472846691	1477472846766	r	82
398379	4300749	Please call me if you see any problems.	Please call me if you see any problems	204304800	1477472846838	1477472846918	o	79
398379	4300749	Please call me if you see any problems.	Please call me if you see any problems	204304836	1477472847144	1477472847205	n	78
398379	4300749	Please call me if you see any problems.	Please call me if you see any problems	204304838	1477472847613	1477472847729	BKSP	8
398379	4300749	Please call me if you see any problems.	Please call me if you see any problems	204304840	1477472848069	1477472848149	b	66
398379	4300749	Please call me if you see any problems.	Please call me if you see any problems	204304842	1477472848261	1477472848341	l	76
398379	4300749	Please call me if you see any problems.	Please call me if you see any problems	204304844	1477472848567	1477472848685	e	69
398379	4300749	Please call me if you see any problems.	Please call me if you see any problems	204304846	1477472849367	1477472849436	m	77
398379	4300749	Please call me if you see any problems.	Please call me if you see any problems	204304884	1477472849597	1477472849672	s	83
398379	4300755	The single between the two versions is the treatment of foreign banks.	The Single between the two versions is the treatment of foreign banks.	204304996	1477472854299	1477472854490	CAPS_LOCK	20
398379	4300755	The single between the two versions is the treatment of foreign banks.	The Single between the two versions is the treatment of foreign banks.	204304998	1477472854419	1477472854539	T	84
398379	4300755	The single between the two versions is the treatment of foreign banks.	The Single between the two versions is the treatment of foreign banks.	204305001	1477472854576	1477472854699	CAPS_LOCK	20
398379	4300755	The single between the two versions is the treatment of foreign banks.	The Single between the two versions is the treatment of foreign banks.	204305005	1477472854702	1477472854780	h	72
398379	4300755	The single between the two versions is the treatment of foreign banks.	The Single between the two versions is the treatment of foreign banks.	204305010	1477472855297	1477472855387	e	69
398379	4300755	The single between the two versions is the treatment of foreign banks.	The Single between the two versions is the treatment of foreign banks.	204305013	1477472855461	1477472855580	 	32
398379	4300755	The single between the two versions is the treatment of foreign banks.	The Single between the two versions is the treatment of foreign banks.	204305016	1477472855654	1477472855780	CAPS_LOCK	20
398379	4300755	The single between the two versions is the treatment of foreign banks.	The Single between the two versions is the treatment of foreign banks.	204305053	1477472855774	1477472855856	S	83
398379	4300755	The single between the two versions is the treatment of foreign banks.	The Single between the two versions is the treatment of foreign banks.	204305054	1477472855893	1477472856016	CAPS_LOCK	20
398379	4300755	The single between the two versions is the treatment of foreign banks.	The Single between the two versions is the treatment of foreign banks.	204305055	1477472856584	1477472856664	i	73
398379	4300755	The single between the two versions is the treatment of foreign banks.	The Single between the two versions is the treatment of foreign banks.	204305056	1477472856889	1477472857008	n	78
398379	4300755	The single between the two versions is the treatment of foreign banks.	The Single between the two versions is the treatment of foreign banks.	204305057	1477472857195	1477472857275	g	71
398379	4300755	The single between the two versions is the treatment of foreign banks.	The Single between the two versions is the treatment of foreign banks.	204305058	1477472858186	1477472858266	l	76
398379	4300755	The single between the two versions is the treatment of foreign banks.	The Single between the two versions is the treatment of foreign banks.	204305060	1477472858416	1477472858496	e	69
398379	4300755	The single between the two versions is the treatment of foreign banks.	The Single between the two versions is the treatment of foreign banks.	204305074	1477472858532	1477472858612	 	32
398379	4300755	The single between the two versions is the treatment of foreign banks.	The Single between the two versions is the treatment of foreign banks.	204305077	1477472858762	1477472858842	b	66
398379	4300755	The single between the two versions is the treatment of foreign banks.	The Single between the two versions is the treatment of foreign banks.	204305080	1477472859030	1477472859148	e	69
398379	4300755	The single between the two versions is the treatment of foreign banks.	The Single between the two versions is the treatment of foreign banks.	204305083	1477472859222	1477472859302	t	84
398379	4300755	The single between the two versions is the treatment of foreign banks.	The Single between the two versions is the treatment of foreign banks.	204305085	1477472859376	1477472859456	w	87
398379	4300755	The single between the two versions is the treatment of foreign banks.	The Single between the two versions is the treatment of foreign banks.	204305102	1477472859606	1477472859686	e	69
398379	4300755	The single between the two versions is the treatment of foreign banks.	The Single between the two versions is the treatment of foreign banks.	204305104	1477472859760	1477472859887	e	69
398379	4300755	The single between the two versions is the treatment of foreign banks.	The Single between the two versions is the treatment of foreign banks.	204305106	1477472860446	1477472860566	n	78
398379	4300755	The single between the two versions is the treatment of foreign banks.	The Single between the two versions is the treatment of foreign banks.	204305108	1477472860600	1477472860680	 	32
398379	4300755	The single between the two versions is the treatment of foreign banks.	The Single between the two versions is the treatment of foreign banks.	204305110	1477472860830	1477472860910	t	84
398379	4300755	The single between the two versions is the treatment of foreign banks.	The Single between the two versions is the treatment of foreign banks.	204305128	1477472860985	1477472861064	h	72
398379	4300755	The single between the two versions is the treatment of foreign banks.	The Single between the two versions is the treatment of foreign banks.	204305129	1477472861101	1477472861219	e	69
398379	4300755	The single between the two versions is the treatment of foreign banks.	The Single between the two versions is the treatment of foreign banks.	204305131	1477472861221	1477472861335	 	32
398379	4300755	The single between the two versions is the treatment of foreign banks.	The Single between the two versions is the treatment of foreign banks.	204305133	1477472861824	1477472861878	t	84
398379	4300755	The single between the two versions is the treatment of foreign banks.	The Single between the two versions is the treatment of foreign banks.	204305135	1477472862094	1477472862212	w	87
398379	4300755	The single between the two versions is the treatment of foreign banks.	The Single between the two versions is the treatment of foreign banks.	204305173	1477472862476	1477472862594	o	79
398379	4300755	The single between the two versions is the treatment of foreign banks.	The Single between the two versions is the treatment of foreign banks.	204305174	1477472862706	1477472862824	 	32
398379	4300755	The single between the two versions is the treatment of foreign banks.	The Single between the two versions is the treatment of foreign banks.	204305175	1477472863543	1477472863661	v	86
398379	4300755	The single between the two versions is the treatment of foreign banks.	The Single between the two versions is the treatment of foreign banks.	204305176	1477472863735	1477472863853	e	69
398379	4300755	The single between the two versions is the treatment of foreign banks.	The Single between the two versions is the treatment of foreign banks.	204305177	1477472863890	1477472863970	r	82
398379	4300755	The single between the two versions is the treatment of foreign banks.	The Single between the two versions is the treatment of foreign banks.	204305206	1477472864082	1477472864200	s	83
398379	4300755	The single between the two versions is the treatment of foreign banks.	The Single between the two versions is the treatment of foreign banks.	204305208	1477472864350	1477472864419	i	73
398379	4300755	The single between the two versions is the treatment of foreign banks.	The Single between the two versions is the treatment of foreign banks.	204305210	1477472864504	1477472864575	o	79
398379	4300755	The single between the two versions is the treatment of foreign banks.	The Single between the two versions is the treatment of foreign banks.	204305212	1477472864734	1477472864852	n	78
398379	4300755	The single between the two versions is the treatment of foreign banks.	The Single between the two versions is the treatment of foreign banks.	204305214	1477472865002	1477472865119	s	83
398379	4300755	The single between the two versions is the treatment of foreign banks.	The Single between the two versions is the treatment of foreign banks.	204305245	1477472865383	1477472865501	 	32
398379	4300755	The single between the two versions is the treatment of foreign banks.	The Single between the two versions is the treatment of foreign banks.	204305248	1477472865840	1477472865920	i	73
398379	4300755	The single between the two versions is the treatment of foreign banks.	The Single between the two versions is the treatment of foreign banks.	204305249	1477472865994	1477472866112	s	83
398379	4300755	The single between the two versions is the treatment of foreign banks.	The Single between the two versions is the treatment of foreign banks.	204305251	1477472866115	1477472866190	 	32
398379	4300755	The single between the two versions is the treatment of foreign banks.	The Single between the two versions is the treatment of foreign banks.	204305253	1477472866378	1477472866458	t	84
398379	4300755	The single between the two versions is the treatment of foreign banks.	The Single between the two versions is the treatment of foreign banks.	204305279	1477472866570	1477472866651	h	72
398379	4300755	The single between the two versions is the treatment of foreign banks.	The Single between the two versions is the treatment of foreign banks.	204305283	1477472866914	1477472867032	e	69
398379	4300755	The single between the two versions is the treatment of foreign banks.	The Single between the two versions is the treatment of foreign banks.	204305286	1477472867144	1477472867262	 	32
398379	4300755	The single between the two versions is the treatment of foreign banks.	The Single between the two versions is the treatment of foreign banks.	204305289	1477472867791	1477472867871	t	84
398379	4300755	The single between the two versions is the treatment of foreign banks.	The Single between the two versions is the treatment of foreign banks.	204305292	1477472867983	1477472868063	r	82
398379	4300755	The single between the two versions is the treatment of foreign banks.	The Single between the two versions is the treatment of foreign banks.	204305309	1477472868175	1477472868256	e	69
398379	4300755	The single between the two versions is the treatment of foreign banks.	The Single between the two versions is the treatment of foreign banks.	204305312	1477472868405	1477472868563	a	65
398379	4300755	The single between the two versions is the treatment of foreign banks.	The Single between the two versions is the treatment of foreign banks.	204305315	1477472868863	1477472868942	t	84
398379	4300755	The single between the two versions is the treatment of foreign banks.	The Single between the two versions is the treatment of foreign banks.	204305318	1477472869244	1477472869324	m	77
398379	4300755	The single between the two versions is the treatment of foreign banks.	The Single between the two versions is the treatment of foreign banks.	204305319	1477472869474	1477472869591	e	69
398379	4300755	The single between the two versions is the treatment of foreign banks.	The Single between the two versions is the treatment of foreign banks.	204305334	1477472869594	1477472869677	n	78
398379	4300755	The single between the two versions is the treatment of foreign banks.	The Single between the two versions is the treatment of foreign banks.	204305336	1477472869820	1477472869900	t	84
398379	4300755	The single between the two versions is the treatment of foreign banks.	The Single between the two versions is the treatment of foreign banks.	204305338	1477472869936	1477472870054	 	32
398379	4300755	The single between the two versions is the treatment of foreign banks.	The Single between the two versions is the treatment of foreign banks.	204305340	1477472870774	1477472870854	o	79
398379	4300755	The single between the two versions is the treatment of foreign banks.	The Single between the two versions is the treatment of foreign banks.	204305342	1477472870966	1477472871083	f	70
398379	4300755	The single between the two versions is the treatment of foreign banks.	The Single between the two versions is the treatment of foreign banks.	204305384	1477472871087	1477472871200	 	32
398379	4300755	The single between the two versions is the treatment of foreign banks.	The Single between the two versions is the treatment of foreign banks.	204305386	1477472871806	1477472871886	f	70
398379	4300755	The single between the two versions is the treatment of foreign banks.	The Single between the two versions is the treatment of foreign banks.	204305388	1477472872453	1477472872534	o	79
398379	4300755	The single between the two versions is the treatment of foreign banks.	The Single between the two versions is the treatment of foreign banks.	204305390	1477472872835	1477472872915	r	82
398379	4300755	The single between the two versions is the treatment of foreign banks.	The Single between the two versions is the treatment of foreign banks.	204305391	1477472873027	1477472873145	e	69
398379	4300755	The single between the two versions is the treatment of foreign banks.	The Single between the two versions is the treatment of foreign banks.	204305407	1477472873333	1477472873413	i	73
398379	4300755	The single between the two versions is the treatment of foreign banks.	The Single between the two versions is the treatment of foreign banks.	204305410	1477472873600	1477472873680	g	71
398379	4300755	The single between the two versions is the treatment of foreign banks.	The Single between the two versions is the treatment of foreign banks.	204305413	1477472873792	1477472873872	n	78
398379	4300755	The single between the two versions is the treatment of foreign banks.	The Single between the two versions is the treatment of foreign banks.	204305415	1477472873947	1477472874027	 	32
398379	4300755	The single between the two versions is the treatment of foreign banks.	The Single between the two versions is the treatment of foreign banks.	204305417	1477472874138	1477472874227	b	66
398379	4300755	The single between the two versions is the treatment of foreign banks.	The Single between the two versions is the treatment of foreign banks.	204305468	1477472874339	1477472874457	a	65
398379	4300755	The single between the two versions is the treatment of foreign banks.	The Single between the two versions is the treatment of foreign banks.	204305469	1477472875025	1477472875115	n	78
398379	4300755	The single between the two versions is the treatment of foreign banks.	The Single between the two versions is the treatment of foreign banks.	204305470	1477472875227	1477472875307	k	75
398379	4300755	The single between the two versions is the treatment of foreign banks.	The Single between the two versions is the treatment of foreign banks.	204305471	1477472875495	1477472875575	s	83
398379	4300755	The single between the two versions is the treatment of foreign banks.	The Single between the two versions is the treatment of foreign banks.	204305472	1477472876449	1477472876527	.	190
398379	4300764	You snooze, you lose!	You snooze, you lose!	204305554	1477472879836	1477472879922	CAPS_LOCK	20
398379	4300764	You snooze, you lose!	You snooze, you lose!	204305555	1477472880723	1477472880802	Y	89
398379	4300764	You snooze, you lose!	You snooze, you lose!	204305556	1477472880877	1477472881000	CAPS_LOCK	20
398379	4300764	You snooze, you lose!	You snooze, you lose!	204305557	1477472881074	1477472881155	o	79
398379	4300764	You snooze, you lose!	You snooze, you lose!	204305558	1477472881343	1477472881423	u	85
398379	4300764	You snooze, you lose!	You snooze, you lose!	204305559	1477472881573	1477472881653	 	32
398379	4300764	You snooze, you lose!	You snooze, you lose!	204305560	1477472882411	1477472882529	s	83
398379	4300764	You snooze, you lose!	You snooze, you lose!	204305569	1477472882678	1477472882759	n	78
398379	4300764	You snooze, you lose!	You snooze, you lose!	204305570	1477472882870	1477472882954	o	79
398379	4300764	You snooze, you lose!	You snooze, you lose!	204305571	1477472883025	1477472883111	o	79
398379	4300764	You snooze, you lose!	You snooze, you lose!	204305572	1477472883558	1477472883676	z	90
398379	4300764	You snooze, you lose!	You snooze, you lose!	204305573	1477472883788	1477472883907	e	69
398379	4300764	You snooze, you lose!	You snooze, you lose!	204305584	1477472883942	1477472884060	,	188
398379	4300764	You snooze, you lose!	You snooze, you lose!	204305586	1477472884097	1477472884253	 	32
398379	4300764	You snooze, you lose!	You snooze, you lose!	204305588	1477472884713	1477472884786	y	89
398379	4300764	You snooze, you lose!	You snooze, you lose!	204305590	1477472884936	1477472885054	o	79
398379	4300764	You snooze, you lose!	You snooze, you lose!	204305592	1477472885130	1477472885208	u	85
398379	4300764	You snooze, you lose!	You snooze, you lose!	204305619	1477472885282	1477472885400	 	32
398379	4300764	You snooze, you lose!	You snooze, you lose!	204305620	1477472885664	1477472885744	l	76
398379	4300764	You snooze, you lose!	You snooze, you lose!	204305621	1477472885894	1477472885972	o	79
398379	4300764	You snooze, you lose!	You snooze, you lose!	204305622	1477472886010	1477472886090	o	79
398379	4300764	You snooze, you lose!	You snooze, you lose!	204305624	1477472886240	1477472886320	s	83
398379	4300764	You snooze, you lose!	You snooze, you lose!	204305678	1477472886432	1477472886512	e	69
398379	4300764	You snooze, you lose!	You snooze, you lose!	204305680	1477472888031	1477472888111	BKSP	8
398379	4300764	You snooze, you lose!	You snooze, you lose!	204305683	1477472888188	1477472888266	BKSP	8
398379	4300764	You snooze, you lose!	You snooze, you lose!	204305685	1477472888567	1477472888647	BKSP	8
398379	4300764	You snooze, you lose!	You snooze, you lose!	204305687	1477472889182	1477472889260	s	83
398379	4300764	You snooze, you lose!	You snooze, you lose!	204305688	1477472889372	1477472889492	e	69
398379	4300764	You snooze, you lose!	You snooze, you lose!	204305689	1477472890165	1477472890619	SHIFT	16
398379	4300764	You snooze, you lose!	You snooze, you lose!	204305690	1477472890544	1477472890627	!	49
398379	4300772	There is substantially no difference between us.	There is substantially no difference between us.	204305752	1477472893935	1477472894164	CAPS_LOCK	20
398379	4300772	There is substantially no difference between us.	There is substantially no difference between us.	204305754	1477472894093	1477472894176	T	84
398379	4300772	There is substantially no difference between us.	There is substantially no difference between us.	204305756	1477472894212	1477472894336	CAPS_LOCK	20
398379	4300772	There is substantially no difference between us.	There is substantially no difference between us.	204305759	1477472894410	1477472894490	h	72
398379	4300772	There is substantially no difference between us.	There is substantially no difference between us.	204305761	1477472894602	1477472894720	e	69
398379	4300772	There is substantially no difference between us.	There is substantially no difference between us.	204305763	1477472894794	1477472894875	r	82
398379	4300772	There is substantially no difference between us.	There is substantially no difference between us.	204305765	1477472895024	1477472895093	e	69
398379	4300772	There is substantially no difference between us.	There is substantially no difference between us.	204305806	1477472895332	1477472895451	 	32
398379	4300772	There is substantially no difference between us.	There is substantially no difference between us.	204305808	1477472896320	1477472896440	i	73
398379	4300772	There is substantially no difference between us.	There is substantially no difference between us.	204305813	1477472896512	1477472896592	s	83
398379	4300772	There is substantially no difference between us.	There is substantially no difference between us.	204305817	1477472896628	1477472896746	 	32
398379	4300772	There is substantially no difference between us.	There is substantially no difference between us.	204305819	1477472897162	1477472897280	s	83
398379	4300772	There is substantially no difference between us.	There is substantially no difference between us.	204305845	1477472897356	1477472897434	u	85
398379	4300772	There is substantially no difference between us.	There is substantially no difference between us.	204305850	1477472897659	1477472897740	b	66
398379	4300772	There is substantially no difference between us.	There is substantially no difference between us.	204305852	1477472897816	1477472897932	s	83
398379	4300772	There is substantially no difference between us.	There is substantially no difference between us.	204305856	1477472898271	1477472898351	t	84
398379	4300772	There is substantially no difference between us.	There is substantially no difference between us.	204305860	1477472898501	1477472898618	a	65
398379	4300772	There is substantially no difference between us.	There is substantially no difference between us.	204305869	1477472898769	1477472898849	n	78
398379	4300772	There is substantially no difference between us.	There is substantially no difference between us.	204305872	1477472899112	1477472899199	t	84
398379	4300772	There is substantially no difference between us.	There is substantially no difference between us.	204305877	1477472899304	1477472899384	i	73
398379	4300772	There is substantially no difference between us.	There is substantially no difference between us.	204305881	1477472899496	1477472899651	a	65
398379	4300772	There is substantially no difference between us.	There is substantially no difference between us.	204305885	1477472899654	1477472899730	l	76
398379	4300772	There is substantially no difference between us.	There is substantially no difference between us.	204305920	1477472899804	1477472899884	l	76
398379	4300772	There is substantially no difference between us.	There is substantially no difference between us.	204305922	1477472900110	1477472900202	y	89
398379	4300772	There is substantially no difference between us.	There is substantially no difference between us.	204305924	1477472900264	1477472900382	 	32
398379	4300772	There is substantially no difference between us.	There is substantially no difference between us.	204305928	1477472901026	1477472901106	n	78
398379	4300772	There is substantially no difference between us.	There is substantially no difference between us.	204305931	1477472901180	1477472901300	o	79
398379	4300772	There is substantially no difference between us.	There is substantially no difference between us.	204305940	1477472901372	1477472901490	 	32
398379	4300772	There is substantially no difference between us.	There is substantially no difference between us.	204305941	1477472901716	1477472901802	d	68
398379	4300772	There is substantially no difference between us.	There is substantially no difference between us.	204305942	1477472901914	1477472901994	i	73
398379	4300772	There is substantially no difference between us.	There is substantially no difference between us.	204305943	1477472902257	1477472902338	f	70
398379	4300772	There is substantially no difference between us.	There is substantially no difference between us.	204305944	1477472902412	1477472902496	f	70
398379	4300772	There is substantially no difference between us.	There is substantially no difference between us.	204305968	1477472902604	1477472902692	e	69
398379	4300772	There is substantially no difference between us.	There is substantially no difference between us.	204305969	1477472902695	1477472902770	r	82
398379	4300772	There is substantially no difference between us.	There is substantially no difference between us.	204305971	1477472902883	1477472903038	e	69
398379	4300772	There is substantially no difference between us.	There is substantially no difference between us.	204305973	1477472903302	1477472903382	n	78
398379	4300772	There is substantially no difference between us.	There is substantially no difference between us.	204305975	1477472903532	1477472903612	c	67
398379	4300772	There is substantially no difference between us.	There is substantially no difference between us.	204306002	1477472903724	1477472903804	e	69
398379	4300772	There is substantially no difference between us.	There is substantially no difference between us.	204306004	1477472904029	1477472904147	 	32
398379	4300772	There is substantially no difference between us.	There is substantially no difference between us.	204306006	1477472904791	1477472904909	b	66
398379	4300772	There is substantially no difference between us.	There is substantially no difference between us.	204306008	1477472905021	1477472905138	e	69
398379	4300772	There is substantially no difference between us.	There is substantially no difference between us.	204306010	1477472905141	1477472905217	t	84
398379	4300772	There is substantially no difference between us.	There is substantially no difference between us.	204306014	1477472905329	1477472905447	w	87
398379	4300772	There is substantially no difference between us.	There is substantially no difference between us.	204306020	1477472905559	1477472905678	e	69
398379	4300772	There is substantially no difference between us.	There is substantially no difference between us.	204306024	1477472905905	1477472905979	n	78
398379	4300772	There is substantially no difference between us.	There is substantially no difference between us.	204306028	1477472906022	1477472906140	 	32
398379	4300772	There is substantially no difference between us.	There is substantially no difference between us.	204306048	1477472906289	1477472906335	u	85
398379	4300772	There is substantially no difference between us.	There is substantially no difference between us.	204306050	1477472906597	1477472906675	s	83
398379	4300772	There is substantially no difference between us.	There is substantially no difference between us.	204306052	1477472907204	1477472907287	.	190
398379	4300779	Richardson is battling a shoulder injury.	Richardson is battling a shouler injury.	204306144	1477472909566	1477472909689	CAPS_LOCK	20
398379	4300779	Richardson is battling a shoulder injury.	Richardson is battling a shouler injury.	204306146	1477472910490	1477472910609	R	82
398379	4300779	Richardson is battling a shoulder injury.	Richardson is battling a shouler injury.	204306148	1477472910645	1477472910768	CAPS_LOCK	20
398379	4300779	Richardson is battling a shoulder injury.	Richardson is battling a shouler injury.	204306150	1477472911100	1477472911154	i	73
398379	4300779	Richardson is battling a shoulder injury.	Richardson is battling a shouler injury.	204306153	1477472911223	1477472911348	c	67
398379	4300779	Richardson is battling a shoulder injury.	Richardson is battling a shouler injury.	204306156	1477472911385	1477472911465	h	72
398379	4300779	Richardson is battling a shoulder injury.	Richardson is battling a shouler injury.	204306161	1477472911619	1477472911770	a	65
398379	4300779	Richardson is battling a shoulder injury.	Richardson is battling a shouler injury.	204306183	1477472911773	1477472911849	r	82
398379	4300779	Richardson is battling a shoulder injury.	Richardson is battling a shouler injury.	204306185	1477472911999	1477472912117	d	68
398379	4300779	Richardson is battling a shoulder injury.	Richardson is battling a shouler injury.	204306187	1477472912229	1477472912308	s	83
398379	4300779	Richardson is battling a shoulder injury.	Richardson is battling a shouler injury.	204306189	1477472912534	1477472912614	o	79
398379	4300779	Richardson is battling a shoulder injury.	Richardson is battling a shouler injury.	204306191	1477472912764	1477472912844	n	78
398379	4300779	Richardson is battling a shoulder injury.	Richardson is battling a shouler injury.	204306212	1477472912919	1477472913037	 	32
398379	4300779	Richardson is battling a shoulder injury.	Richardson is battling a shouler injury.	204306213	1477472913519	1477472913570	i	73
398379	4300779	Richardson is battling a shoulder injury.	Richardson is battling a shouler injury.	204306215	1477472913644	1477472913763	s	83
398379	4300779	Richardson is battling a shoulder injury.	Richardson is battling a shouler injury.	204306217	1477472913720	1477472913841	 	32
398379	4300779	Richardson is battling a shoulder injury.	Richardson is battling a shouler injury.	204306219	1477472913953	1477472914033	b	66
398379	4300779	Richardson is battling a shoulder injury.	Richardson is battling a shouler injury.	204306251	1477472914107	1477472914225	a	65
398379	4300779	Richardson is battling a shoulder injury.	Richardson is battling a shouler injury.	204306254	1477472914374	1477472914455	t	84
398379	4300779	Richardson is battling a shoulder injury.	Richardson is battling a shouler injury.	204306258	1477472914529	1477472914609	t	84
398379	4300779	Richardson is battling a shoulder injury.	Richardson is battling a shouler injury.	204306260	1477472915139	1477472915142	l	76
398379	4300779	Richardson is battling a shoulder injury.	Richardson is battling a shouler injury.	204306262	1477472915292	1477472915372	i	73
398379	4300779	Richardson is battling a shoulder injury.	Richardson is battling a shouler injury.	204306271	1477472915484	1477472915564	n	78
398379	4300779	Richardson is battling a shoulder injury.	Richardson is battling a shouler injury.	204306272	1477472915685	1477472915765	g	71
398379	4300779	Richardson is battling a shoulder injury.	Richardson is battling a shouler injury.	204306273	1477472915801	1477472915956	 	32
398379	4300779	Richardson is battling a shoulder injury.	Richardson is battling a shouler injury.	204306274	1477472915993	1477472916129	a	65
398379	4300779	Richardson is battling a shoulder injury.	Richardson is battling a shouler injury.	204306275	1477472916132	1477472916247	 	32
398379	4300779	Richardson is battling a shoulder injury.	Richardson is battling a shouler injury.	204306291	1477472916737	1477472916855	s	83
398379	4300779	Richardson is battling a shoulder injury.	Richardson is battling a shouler injury.	204306292	1477472916930	1477472917009	h	72
398379	4300779	Richardson is battling a shoulder injury.	Richardson is battling a shouler injury.	204306293	1477472917314	1477472917381	u	85
398379	4300779	Richardson is battling a shoulder injury.	Richardson is battling a shouler injury.	204306294	1477472917506	1477472917585	l	76
398379	4300779	Richardson is battling a shoulder injury.	Richardson is battling a shouler injury.	204306334	1477472917698	1477472917778	d	68
398379	4300779	Richardson is battling a shoulder injury.	Richardson is battling a shouler injury.	204306339	1477472918120	1477472918239	r	82
398379	4300779	Richardson is battling a shoulder injury.	Richardson is battling a shouler injury.	204306341	1477472918274	1477472918430	 	32
398379	4300779	Richardson is battling a shoulder injury.	Richardson is battling a shouler injury.	204306342	1477472918997	1477472919115	i	73
398379	4300779	Richardson is battling a shoulder injury.	Richardson is battling a shouler injury.	204306343	1477472919227	1477472919307	n	78
398379	4300779	Richardson is battling a shoulder injury.	Richardson is battling a shouler injury.	204306370	1477472919837	1477472919917	j	74
398379	4300779	Richardson is battling a shoulder injury.	Richardson is battling a shouler injury.	204306371	1477472919991	1477472920071	u	85
398379	4300779	Richardson is battling a shoulder injury.	Richardson is battling a shouler injury.	204306372	1477472920410	1477472920490	r	82
398379	4300779	Richardson is battling a shoulder injury.	Richardson is battling a shouler injury.	204306373	1477472920602	1477472920682	y	89
398379	4300779	Richardson is battling a shoulder injury.	Richardson is battling a shouler injury.	204306374	1477472921478	1477472921549	.	190
398379	4300783	We will be dining fashionably late.	We will be dining fashonably late	204306471	1477472924144	1477472924306	CAPS_LOCK	20
398379	4300783	We will be dining fashionably late.	We will be dining fashonably late	204306473	1477472924608	1477472924745	CAPS_LOCK	20
398379	4300783	We will be dining fashionably late.	We will be dining fashonably late	204306474	1477472925262	1477472925417	w	87
398379	4300783	We will be dining fashionably late.	We will be dining fashonably late	204306475	1477472925719	1477472925869	CAPS_LOCK	20
398379	4300783	We will be dining fashionably late.	We will be dining fashonably late	204306476	1477472926069	1477472926149	W	87
398379	4300783	We will be dining fashionably late.	We will be dining fashonably late	204306477	1477472926682	1477472926762	BKSP	8
398379	4300783	We will be dining fashionably late.	We will be dining fashonably late	204306478	1477472926818	1477472926898	BKSP	8
398379	4300783	We will be dining fashionably late.	We will be dining fashonably late	204306480	1477472927431	1477472927549	W	87
398379	4300783	We will be dining fashionably late.	We will be dining fashonably late	204306482	1477472927586	1477472927709	CAPS_LOCK	20
398379	4300783	We will be dining fashionably late.	We will be dining fashonably late	204306484	1477472927746	1477472927826	e	69
398379	4300783	We will be dining fashionably late.	We will be dining fashonably late	204306486	1477472928167	1477472928284	 	32
398379	4300783	We will be dining fashionably late.	We will be dining fashonably late	204306499	1477472928624	1477472928703	w	87
398379	4300783	We will be dining fashionably late.	We will be dining fashonably late	204306500	1477472928739	1477472928819	i	73
398379	4300783	We will be dining fashionably late.	We will be dining fashonably late	204306501	1477472928932	1477472928976	l	76
398379	4300783	We will be dining fashionably late.	We will be dining fashonably late	204306502	1477472929048	1477472929128	l	76
398379	4300783	We will be dining fashionably late.	We will be dining fashonably late	204306503	1477472929278	1477472929396	 	32
398379	4300783	We will be dining fashionably late.	We will be dining fashonably late	204306518	1477472929964	1477472930044	b	66
398379	4300783	We will be dining fashionably late.	We will be dining fashonably late	204306519	1477472930118	1477472930198	e	69
398379	4300783	We will be dining fashionably late.	We will be dining fashonably late	204306520	1477472930201	1477472930315	 	32
398379	4300783	We will be dining fashionably late.	We will be dining fashonably late	204306521	1477472930464	1477472930545	d	68
398379	4300783	We will be dining fashionably late.	We will be dining fashonably late	204306523	1477472931073	1477472931192	i	73
398379	4300783	We will be dining fashionably late.	We will be dining fashonably late	204306542	1477472931304	1477472931384	n	78
398379	4300783	We will be dining fashionably late.	We will be dining fashonably late	204306544	1477472931458	1477472931538	i	73
398379	4300783	We will be dining fashionably late.	We will be dining fashonably late	204306546	1477472931650	1477472931730	n	78
398379	4300783	We will be dining fashionably late.	We will be dining fashonably late	204306548	1477472931842	1477472931922	g	71
398379	4300783	We will be dining fashionably late.	We will be dining fashonably late	204306549	1477472931959	1477472932077	 	32
398379	4300783	We will be dining fashionably late.	We will be dining fashonably late	204306567	1477472932530	1477472932610	f	70
398379	4300783	We will be dining fashionably late.	We will be dining fashonably late	204306568	1477472932684	1477472932764	a	65
398379	4300783	We will be dining fashionably late.	We will be dining fashonably late	204306569	1477472932914	1477472932994	s	83
398379	4300783	We will be dining fashionably late.	We will be dining fashonably late	204306570	1477472933182	1477472933262	h	72
398379	4300783	We will be dining fashionably late.	We will be dining fashonably late	204306571	1477472933374	1477472933454	i	73
398379	4300783	We will be dining fashionably late.	We will be dining fashonably late	204306604	1477472933872	1477472933952	n	78
398379	4300783	We will be dining fashionably late.	We will be dining fashonably late	204306605	1477472934064	1477472934182	a	65
398379	4300783	We will be dining fashionably late.	We will be dining fashonably late	204306606	1477472934597	1477472934677	b	66
398379	4300783	We will be dining fashionably late.	We will be dining fashonably late	204306607	1477472934789	1477472934869	l	76
398379	4300783	We will be dining fashionably late.	We will be dining fashonably late	204306609	1477472935208	1477472935288	y	89
398379	4300783	We will be dining fashionably late.	We will be dining fashonably late	204306652	1477472935344	1477472935462	 	32
398379	4300783	We will be dining fashionably late.	We will be dining fashonably late	204306654	1477472936488	1477472936566	l	76
398379	4300783	We will be dining fashionably late.	We will be dining fashonably late	204306655	1477472936678	1477472936796	a	65
398379	4300783	We will be dining fashionably late.	We will be dining fashonably late	204306657	1477472936870	1477472936950	t	84
398379	4300783	We will be dining fashionably late.	We will be dining fashonably late	204306659	1477472937100	1477472937180	e	69
398379	4300789	Ruth, here is an estimated November purchase.	Ruth, here is an estimated November purchase.	204306783	1477472940470	1477472940632	CAPS_LOCK	20
398379	4300789	Ruth, here is an estimated November purchase.	Ruth, here is an estimated November purchase.	204306785	1477472940668	1477472940748	R	82
398379	4300789	Ruth, here is an estimated November purchase.	Ruth, here is an estimated November purchase.	204306787	1477472940785	1477472940908	CAPS_LOCK	20
398379	4300789	Ruth, here is an estimated November purchase.	Ruth, here is an estimated November purchase.	204306788	1477472941285	1477472941334	u	85
398379	4300789	Ruth, here is an estimated November purchase.	Ruth, here is an estimated November purchase.	204306789	1477472941554	1477472941642	t	84
398379	4300789	Ruth, here is an estimated November purchase.	Ruth, here is an estimated November purchase.	204306790	1477472941754	1477472941834	h	72
398379	4300789	Ruth, here is an estimated November purchase.	Ruth, here is an estimated November purchase.	204306791	1477472942558	1477472942634	,	188
398379	4300789	Ruth, here is an estimated November purchase.	Ruth, here is an estimated November purchase.	204306832	1477472942710	1477472942826	 	32
398379	4300789	Ruth, here is an estimated November purchase.	Ruth, here is an estimated November purchase.	204306833	1477472943393	1477472943473	h	72
398379	4300789	Ruth, here is an estimated November purchase.	Ruth, here is an estimated November purchase.	204306834	1477472943547	1477472943666	e	69
398379	4300789	Ruth, here is an estimated November purchase.	Ruth, here is an estimated November purchase.	204306835	1477472943777	1477472943857	t	84
398379	4300789	Ruth, here is an estimated November purchase.	Ruth, here is an estimated November purchase.	204306837	1477472944577	1477472944733	BKSP	8
398379	4300789	Ruth, here is an estimated November purchase.	Ruth, here is an estimated November purchase.	204306839	1477472945034	1477472945114	r	82
398379	4300789	Ruth, here is an estimated November purchase.	Ruth, here is an estimated November purchase.	204306866	1477472945191	1477472945269	e	69
398379	4300789	Ruth, here is an estimated November purchase.	Ruth, here is an estimated November purchase.	204306867	1477472945305	1477472945404	 	32
398379	4300789	Ruth, here is an estimated November purchase.	Ruth, here is an estimated November purchase.	204306869	1477472945857	1477472945936	i	73
398379	4300789	Ruth, here is an estimated November purchase.	Ruth, here is an estimated November purchase.	204306871	1477472946011	1477472946129	s	83
398379	4300789	Ruth, here is an estimated November purchase.	Ruth, here is an estimated November purchase.	204306873	1477472946165	1477472946284	 	32
398379	4300789	Ruth, here is an estimated November purchase.	Ruth, here is an estimated November purchase.	204306936	1477472946357	1477472946476	a	65
398379	4300789	Ruth, here is an estimated November purchase.	Ruth, here is an estimated November purchase.	204306938	1477472946511	1477472946591	n	78
398379	4300789	Ruth, here is an estimated November purchase.	Ruth, here is an estimated November purchase.	204306942	1477472946741	1477472946809	 	32
398379	4300789	Ruth, here is an estimated November purchase.	Ruth, here is an estimated November purchase.	204306945	1477472947655	1477472947811	e	69
398379	4300789	Ruth, here is an estimated November purchase.	Ruth, here is an estimated November purchase.	204306948	1477472947924	1477472948041	s	83
398379	4300789	Ruth, here is an estimated November purchase.	Ruth, here is an estimated November purchase.	204306966	1477472948229	1477472948309	t	84
398379	4300789	Ruth, here is an estimated November purchase.	Ruth, here is an estimated November purchase.	204306969	1477472948420	1477472948501	i	73
398379	4300789	Ruth, here is an estimated November purchase.	Ruth, here is an estimated November purchase.	204306971	1477472948650	1477472948741	m	77
398379	4300789	Ruth, here is an estimated November purchase.	Ruth, here is an estimated November purchase.	204306972	1477472948815	1477472948895	a	65
398379	4300789	Ruth, here is an estimated November purchase.	Ruth, here is an estimated November purchase.	204306973	1477472948969	1477472949049	t	84
398379	4300789	Ruth, here is an estimated November purchase.	Ruth, here is an estimated November purchase.	204307053	1477472949313	1477472949385	e	69
398379	4300789	Ruth, here is an estimated November purchase.	Ruth, here is an estimated November purchase.	204307055	1477472949466	1477472949547	d	68
398379	4300789	Ruth, here is an estimated November purchase.	Ruth, here is an estimated November purchase.	204307056	1477472949587	1477472949701	 	32
398379	4300789	Ruth, here is an estimated November purchase.	Ruth, here is an estimated November purchase.	204307058	1477472950040	1477472950202	CAPS_LOCK	20
398379	4300789	Ruth, here is an estimated November purchase.	Ruth, here is an estimated November purchase.	204307060	1477472950543	1477472950623	N	78
398379	4300789	Ruth, here is an estimated November purchase.	Ruth, here is an estimated November purchase.	204307063	1477472950698	1477472950822	CAPS_LOCK	20
398379	4300789	Ruth, here is an estimated November purchase.	Ruth, here is an estimated November purchase.	204307065	1477472950896	1477472950959	o	79
398379	4300789	Ruth, here is an estimated November purchase.	Ruth, here is an estimated November purchase.	204307092	1477472951368	1477472951448	v	86
398379	4300789	Ruth, here is an estimated November purchase.	Ruth, here is an estimated November purchase.	204307093	1477472951598	1477472951678	e	69
398379	4300789	Ruth, here is an estimated November purchase.	Ruth, here is an estimated November purchase.	204307094	1477472951828	1477472951946	m	77
398379	4300789	Ruth, here is an estimated November purchase.	Ruth, here is an estimated November purchase.	204307095	1477472952361	1477472952444	b	66
398379	4300789	Ruth, here is an estimated November purchase.	Ruth, here is an estimated November purchase.	204307096	1477472952516	1477472952595	w	87
398379	4300789	Ruth, here is an estimated November purchase.	Ruth, here is an estimated November purchase.	204307120	1477472952707	1477472952825	e	69
398379	4300789	Ruth, here is an estimated November purchase.	Ruth, here is an estimated November purchase.	204307121	1477472952861	1477472952979	r	82
398379	4300789	Ruth, here is an estimated November purchase.	Ruth, here is an estimated November purchase.	204307124	1477472953015	1477472953133	 	32
398379	4300789	Ruth, here is an estimated November purchase.	Ruth, here is an estimated November purchase.	204307127	1477472953548	1477472953666	BKSP	8
398379	4300789	Ruth, here is an estimated November purchase.	Ruth, here is an estimated November purchase.	204307130	1477472953740	1477472953820	BKSP	8
398379	4300789	Ruth, here is an estimated November purchase.	Ruth, here is an estimated November purchase.	204307133	1477472953895	1477472953975	BKSP	8
398379	4300789	Ruth, here is an estimated November purchase.	Ruth, here is an estimated November purchase.	204307136	1477472954049	1477472954139	BKSP	8
398379	4300789	Ruth, here is an estimated November purchase.	Ruth, here is an estimated November purchase.	204307138	1477472954210	1477472954283	BKSP	8
398379	4300789	Ruth, here is an estimated November purchase.	Ruth, here is an estimated November purchase.	204307139	1477472954889	1477472954969	b	66
398379	4300789	Ruth, here is an estimated November purchase.	Ruth, here is an estimated November purchase.	204307140	1477472955043	1477472955161	e	69
398379	4300789	Ruth, here is an estimated November purchase.	Ruth, here is an estimated November purchase.	204307159	1477472955197	1477472955277	r	82
398379	4300789	Ruth, here is an estimated November purchase.	Ruth, here is an estimated November purchase.	204307162	1477472955352	1477472955469	 	32
398379	4300789	Ruth, here is an estimated November purchase.	Ruth, here is an estimated November purchase.	204307167	1477472956113	1477472956193	p	80
398379	4300789	Ruth, here is an estimated November purchase.	Ruth, here is an estimated November purchase.	204307170	1477472956457	1477472956536	u	85
398379	4300789	Ruth, here is an estimated November purchase.	Ruth, here is an estimated November purchase.	204307172	1477472956762	1477472956842	r	82
398379	4300789	Ruth, here is an estimated November purchase.	Ruth, here is an estimated November purchase.	204307188	1477472956992	1477472957072	c	67
398379	4300789	Ruth, here is an estimated November purchase.	Ruth, here is an estimated November purchase.	204307189	1477472957146	1477472957226	h	72
398379	4300789	Ruth, here is an estimated November purchase.	Ruth, here is an estimated November purchase.	204307191	1477472957338	1477472957459	a	65
398379	4300789	Ruth, here is an estimated November purchase.	Ruth, here is an estimated November purchase.	204307193	1477472957682	1477472957731	s	83
398379	4300789	Ruth, here is an estimated November purchase.	Ruth, here is an estimated November purchase.	204307196	1477472957836	1477472957954	e	69
398379	4300789	Ruth, here is an estimated November purchase.	Ruth, here is an estimated November purchase.	204307216	1477472958484	1477472958542	.	190
398379	4300796	Please stay on top of the security issue.	Please stay on top of the security issue.	204307259	1477472960578	1477472960740	CAPS_LOCK	20
398379	4300796	Please stay on top of the security issue.	Please stay on top of the security issue.	204307262	1477472960967	1477472961064	P	80
398379	4300796	Please stay on top of the security issue.	Please stay on top of the security issue.	204307265	1477472961139	1477472961262	CAPS_LOCK	20
398379	4300796	Please stay on top of the security issue.	Please stay on top of the security issue.	204307268	1477472961299	1477472961359	l	76
398379	4300796	Please stay on top of the security issue.	Please stay on top of the security issue.	204307271	1477472961607	1477472961722	e	69
398379	4300796	Please stay on top of the security issue.	Please stay on top of the security issue.	204307274	1477472961872	1477472961990	a	65
398379	4300796	Please stay on top of the security issue.	Please stay on top of the security issue.	204307277	1477472962106	1477472962169	s	83
398379	4300796	Please stay on top of the security issue.	Please stay on top of the security issue.	204307294	1477472962336	1477472962416	e	69
398379	4300796	Please stay on top of the security issue.	Please stay on top of the security issue.	204307295	1477472962528	1477472962652	 	32
398379	4300796	Please stay on top of the security issue.	Please stay on top of the security issue.	204307296	1477472962948	1477472963066	s	83
398379	4300796	Please stay on top of the security issue.	Please stay on top of the security issue.	204307297	1477472963291	1477472963370	t	84
398379	4300796	Please stay on top of the security issue.	Please stay on top of the security issue.	204307298	1477472963408	1477472963531	a	65
398379	4300796	Please stay on top of the security issue.	Please stay on top of the security issue.	204307305	1477472963485	1477472963566	y	89
398379	4300796	Please stay on top of the security issue.	Please stay on top of the security issue.	204307307	1477472963678	1477472963796	 	32
398379	4300796	Please stay on top of the security issue.	Please stay on top of the security issue.	204307309	1477472964325	1477472964405	o	79
398379	4300796	Please stay on top of the security issue.	Please stay on top of the security issue.	204307311	1477472964555	1477472964646	n	78
398379	4300796	Please stay on top of the security issue.	Please stay on top of the security issue.	204307313	1477472964720	1477472964800	 	32
398379	4300796	Please stay on top of the security issue.	Please stay on top of the security issue.	204307315	1477472964950	1477472965030	t	84
398379	4300796	Please stay on top of the security issue.	Please stay on top of the security issue.	204307347	1477472965180	1477472965260	o	79
398379	4300796	Please stay on top of the security issue.	Please stay on top of the security issue.	204307348	1477472965334	1477472965414	p	80
398379	4300796	Please stay on top of the security issue.	Please stay on top of the security issue.	204307349	1477472965526	1477472965644	 	32
398379	4300796	Please stay on top of the security issue.	Please stay on top of the security issue.	204307350	1477472966402	1477472966497	o	79
398379	4300796	Please stay on top of the security issue.	Please stay on top of the security issue.	204307351	1477472966836	1477472966916	f	70
398379	4300796	Please stay on top of the security issue.	Please stay on top of the security issue.	204307367	1477472966952	1477472967070	 	32
398379	4300796	Please stay on top of the security issue.	Please stay on top of the security issue.	204307368	1477472967144	1477472967224	t	84
398379	4300796	Please stay on top of the security issue.	Please stay on top of the security issue.	204307369	1477472967336	1477472967398	h	72
398379	4300796	Please stay on top of the security issue.	Please stay on top of the security issue.	204307370	1477472967425	1477472967542	e	69
398379	4300796	Please stay on top of the security issue.	Please stay on top of the security issue.	204307371	1477472967546	1477472967621	 	32
398379	4300796	Please stay on top of the security issue.	Please stay on top of the security issue.	204307399	1477472967847	1477472967965	s	83
398379	4300796	Please stay on top of the security issue.	Please stay on top of the security issue.	204307400	1477472968342	1477472968422	e	69
398379	4300796	Please stay on top of the security issue.	Please stay on top of the security issue.	204307401	1477472968762	1477472968879	c	67
398379	4300796	Please stay on top of the security issue.	Please stay on top of the security issue.	204307402	1477472969067	1477472969186	u	85
398379	4300796	Please stay on top of the security issue.	Please stay on top of the security issue.	204307403	1477472969486	1477472969566	r	82
398379	4300796	Please stay on top of the security issue.	Please stay on top of the security issue.	204307428	1477472969716	1477472969796	i	73
398379	4300796	Please stay on top of the security issue.	Please stay on top of the security issue.	204307429	1477472970059	1477472970128	t	84
398379	4300796	Please stay on top of the security issue.	Please stay on top of the security issue.	204307430	1477472970214	1477472970293	y	89
398379	4300796	Please stay on top of the security issue.	Please stay on top of the security issue.	204307431	1477472970975	1477472971055	 	32
398379	4300796	Please stay on top of the security issue.	Please stay on top of the security issue.	204307432	1477472971584	1477472971702	i	73
398379	4300796	Please stay on top of the security issue.	Please stay on top of the security issue.	204307450	1477472971776	1477472971856	s	83
398379	4300796	Please stay on top of the security issue.	Please stay on top of the security issue.	204307451	1477472971933	1477472972049	s	83
398379	4300796	Please stay on top of the security issue.	Please stay on top of the security issue.	204307452	1477472972578	1477472972658	u	85
398379	4300796	Please stay on top of the security issue.	Please stay on top of the security issue.	204307453	1477472972770	1477472972850	e	69
398379	4300796	Please stay on top of the security issue.	Please stay on top of the security issue.	204307454	1477472973113	1477472973193	.	190
398379	4300803	John, can you give Konni a call?	John, can you give Konni a call?	204307514	1477472976507	1477472976644	CAPS_LOCK	20
398379	4300803	John, can you give Konni a call?	John, can you give Konni a call?	204307515	1477472976985	1477472977065	J	74
398379	4300803	John, can you give Konni a call?	John, can you give Konni a call?	204307516	1477472977144	1477472977305	CAPS_LOCK	20
398379	4300803	John, can you give Konni a call?	John, can you give Konni a call?	204307517	1477472977308	1477472977384	o	79
398379	4300803	John, can you give Konni a call?	John, can you give Konni a call?	204307518	1477472977647	1477472977728	h	72
398379	4300803	John, can you give Konni a call?	John, can you give Konni a call?	204307519	1477472977840	1477472977915	n	78
398379	4300803	John, can you give Konni a call?	John, can you give Konni a call?	204307521	1477472978185	1477472978248	,	188
398379	4300803	John, can you give Konni a call?	John, can you give Konni a call?	204307559	1477472978299	1477472978418	 	32
398379	4300803	John, can you give Konni a call?	John, can you give Konni a call?	204307560	1477472979023	1477472979144	c	67
398379	4300803	John, can you give Konni a call?	John, can you give Konni a call?	204307561	1477472979215	1477472979333	a	65
398379	4300803	John, can you give Konni a call?	John, can you give Konni a call?	204307562	1477472980700	1477472980780	n	78
398379	4300803	John, can you give Konni a call?	John, can you give Konni a call?	204307563	1477472980930	1477472981048	 	32
398379	4300803	John, can you give Konni a call?	John, can you give Konni a call?	204307610	1477472981122	1477472981202	y	89
398379	4300803	John, can you give Konni a call?	John, can you give Konni a call?	204307611	1477472981738	1477472981791	o	79
398379	4300803	John, can you give Konni a call?	John, can you give Konni a call?	204307612	1477472982113	1477472982192	u	85
398379	4300803	John, can you give Konni a call?	John, can you give Konni a call?	204307613	1477472982418	1477472982517	 	32
398379	4300803	John, can you give Konni a call?	John, can you give Konni a call?	204307615	1477472983617	1477472983697	g	71
398379	4300803	John, can you give Konni a call?	John, can you give Konni a call?	204307633	1477472983772	1477472983852	i	73
398379	4300803	John, can you give Konni a call?	John, can you give Konni a call?	204307636	1477472984115	1477472984195	v	86
398379	4300803	John, can you give Konni a call?	John, can you give Konni a call?	204307638	1477472984270	1477472984349	e	69
398379	4300803	John, can you give Konni a call?	John, can you give Konni a call?	204307640	1477472984385	1477472984503	 	32
398379	4300803	John, can you give Konni a call?	John, can you give Konni a call?	204307641	1477472984653	1477472984777	CAPS_LOCK	20
398379	4300803	John, can you give Konni a call?	John, can you give Konni a call?	204307642	1477472984891	1477472985008	K	75
398379	4300803	John, can you give Konni a call?	John, can you give Konni a call?	204307680	1477472985045	1477472985168	CAPS_LOCK	20
398379	4300803	John, can you give Konni a call?	John, can you give Konni a call?	204307681	1477472985243	1477472985307	p	79
398379	4300803	John, can you give Konni a call?	John, can you give Konni a call?	204307682	1477472985911	1477472986027	BKSP	8
398379	4300803	John, can you give Konni a call?	John, can you give Konni a call?	204307683	1477472986823	1477472986903	n	78
398379	4300803	John, can you give Konni a call?	John, can you give Konni a call?	204307685	1477472986977	1477472987058	n	78
398379	4300803	John, can you give Konni a call?	John, can you give Konni a call?	204307687	1477472987131	1477472987249	i	73
398379	4300803	John, can you give Konni a call?	John, can you give Konni a call?	204307700	1477472987817	1477472987935	 	32
398379	4300803	John, can you give Konni a call?	John, can you give Konni a call?	204307703	1477472988047	1477472988164	a	65
398379	4300803	John, can you give Konni a call?	John, can you give Konni a call?	204307706	1477472988167	1477472988282	 	32
398379	4300803	John, can you give Konni a call?	John, can you give Konni a call?	204307709	1477472988507	1477472988586	c	67
398379	4300803	John, can you give Konni a call?	John, can you give Konni a call?	204307711	1477472988737	1477472988855	a	65
398379	4300803	John, can you give Konni a call?	John, can you give Konni a call?	204307717	1477472988967	1477472989042	l	76
398379	4300803	John, can you give Konni a call?	John, can you give Konni a call?	204307719	1477472989082	1477472989163	l	76
398379	4300803	John, can you give Konni a call?	John, can you give Konni a call?	204307721	1477472989694	1477472990189	SHIFT	16
398379	4300803	John, can you give Konni a call?	John, can you give Konni a call?	204307723	1477472990109	1477472990267	?	191
398379	4300808	Very foggy this morning.	Very foggy this morning.	204307769	1477472992662	1477472992862	CAPS_LOCK	20
398379	4300808	Very foggy this morning.	Very foggy this morning.	204307770	1477472993089	1477472993207	V	86
398379	4300808	Very foggy this morning.	Very foggy this morning.	204307771	1477472993244	1477472993367	CAPS_LOCK	20
398379	4300808	Very foggy this morning.	Very foggy this morning.	204307772	1477472993479	1477472993545	e	69
398379	4300808	Very foggy this morning.	Very foggy this morning.	204307773	1477472993672	1477472993736	r	82
398379	4300808	Very foggy this morning.	Very foggy this morning.	204307774	1477472994366	1477472994446	y	89
398379	4300808	Very foggy this morning.	Very foggy this morning.	204307775	1477472994522	1477472994642	 	32
398379	4300808	Very foggy this morning.	Very foggy this morning.	204307808	1477472995358	1477472995438	f	70
398379	4300808	Very foggy this morning.	Very foggy this morning.	204307810	1477472995701	1477472995781	o	79
398379	4300808	Very foggy this morning.	Very foggy this morning.	204307812	1477472996158	1477472996239	g	71
398379	4300808	Very foggy this morning.	Very foggy this morning.	204307815	1477472996313	1477472996393	g	71
398379	4300808	Very foggy this morning.	Very foggy this morning.	204307817	1477472996542	1477472996623	y	89
398379	4300808	Very foggy this morning.	Very foggy this morning.	204307874	1477472997162	1477472999216	 	32
398379	4300808	Very foggy this morning.	Very foggy this morning.	204307852	1477472997685	1477472997765	t	84
398379	4300808	Very foggy this morning.	Very foggy this morning.	204307853	1477472997877	1477472997957	h	72
398379	4300808	Very foggy this morning.	Very foggy this morning.	204307854	1477472998752	1477472998833	i	73
398379	4300808	Very foggy this morning.	Very foggy this morning.	204307855	1477472998982	1477472999100	s	83
398379	4300808	Very foggy this morning.	Very foggy this morning.	204307877	1477472999329	1477472999409	m	77
398379	4300808	Very foggy this morning.	Very foggy this morning.	204307878	1477472999498	1477472999578	o	79
398379	4300808	Very foggy this morning.	Very foggy this morning.	204307879	1477473000031	1477473000111	r	82
398379	4300808	Very foggy this morning.	Very foggy this morning.	204307880	1477473000374	1477473000454	n	78
398379	4300808	Very foggy this morning.	Very foggy this morning.	204307881	1477473000566	1477473000684	i	73
398379	4300808	Very foggy this morning.	Very foggy this morning.	204307906	1477473000758	1477473000838	n	78
398379	4300808	Very foggy this morning.	Very foggy this morning.	204307908	1477473000950	1477473001030	g	71
398379	4300808	Very foggy this morning.	Very foggy this morning.	204307910	1477473001565	1477473001618	.	190
398379	4300813	Thanks for sending this.	Thanks for sending this.	204307967	1477473003734	1477473003934	CAPS_LOCK	20
398379	4300813	Thanks for sending this.	Thanks for sending this.	204307969	1477473004009	1477473004089	T	84
398379	4300813	Thanks for sending this.	Thanks for sending this.	204307970	1477473004126	1477473004249	CAPS_LOCK	20
398379	4300813	Thanks for sending this.	Thanks for sending this.	204307971	1477473004285	1477473004368	h	72
398379	4300813	Thanks for sending this.	Thanks for sending this.	204307972	1477473004515	1477473004633	a	65
398379	4300813	Thanks for sending this.	Thanks for sending this.	204307973	1477473005125	1477473005178	n	78
398379	4300813	Thanks for sending this.	Thanks for sending this.	204307974	1477473005251	1477473005344	k	75
398379	4300813	Thanks for sending this.	Thanks for sending this.	204307993	1477473005570	1477473005650	s	83
398379	4300813	Thanks for sending this.	Thanks for sending this.	204307994	1477473005686	1477473005805	 	32
398379	4300813	Thanks for sending this.	Thanks for sending this.	204307995	1477473005954	1477473006034	f	70
398379	4300813	Thanks for sending this.	Thanks for sending this.	204307996	1477473006230	1477473006301	o	79
398379	4300813	Thanks for sending this.	Thanks for sending this.	204307998	1477473006527	1477473006607	r	82
398379	4300813	Thanks for sending this.	Thanks for sending this.	204308015	1477473006684	1477473006780	 	32
398379	4300813	Thanks for sending this.	Thanks for sending this.	204308017	1477473006854	1477473006976	s	83
398379	4300813	Thanks for sending this.	Thanks for sending this.	204308019	1477473007084	1477473007202	e	69
398379	4300813	Thanks for sending this.	Thanks for sending this.	204308021	1477473007352	1477473007432	n	78
398379	4300813	Thanks for sending this.	Thanks for sending this.	204308023	1477473007506	1477473007624	d	68
398379	4300813	Thanks for sending this.	Thanks for sending this.	204308042	1477473007660	1477473007778	i	73
398379	4300813	Thanks for sending this.	Thanks for sending this.	204308043	1477473007890	1477473007970	n	78
398379	4300813	Thanks for sending this.	Thanks for sending this.	204308044	1477473008089	1477473008162	g	71
398379	4300813	Thanks for sending this.	Thanks for sending this.	204308045	1477473008237	1477473008355	 	32
398379	4300813	Thanks for sending this.	Thanks for sending this.	204308046	1477473008504	1477473008575	t	84
398379	4300813	Thanks for sending this.	Thanks for sending this.	204308067	1477473008705	1477473008785	h	72
398379	4300813	Thanks for sending this.	Thanks for sending this.	204308068	1477473009304	1477473009357	i	73
398379	4300813	Thanks for sending this.	Thanks for sending this.	204308069	1477473009582	1477473009699	s	83
398379	4300813	Thanks for sending this.	Thanks for sending this.	204308070	1477473010001	1477473010071	.	190
398379	4300816	This is a most unfortunate news release.	This is a most unfortunate news release.	204308117	1477473012761	1477473012961	CAPS_LOCK	20
398379	4300816	This is a most unfortunate news release.	This is a most unfortunate news release.	204308118	1477473012997	1477473013078	T	84
398379	4300816	This is a most unfortunate news release.	This is a most unfortunate news release.	204308119	1477473013152	1477473013276	CAPS_LOCK	20
398379	4300816	This is a most unfortunate news release.	This is a most unfortunate news release.	204308120	1477473013312	1477473013392	h	72
398379	4300816	This is a most unfortunate news release.	This is a most unfortunate news release.	204308121	1477473013555	1477473013647	i	73
398379	4300816	This is a most unfortunate news release.	This is a most unfortunate news release.	204308122	1477473013875	1477473014015	s	83
398379	4300816	This is a most unfortunate news release.	This is a most unfortunate news release.	204308152	1477473013949	1477473014069	 	32
398379	4300816	This is a most unfortunate news release.	This is a most unfortunate news release.	204308154	1477473014181	1477473014261	i	73
398379	4300816	This is a most unfortunate news release.	This is a most unfortunate news release.	204308156	1477473014341	1477473014458	s	83
398379	4300816	This is a most unfortunate news release.	This is a most unfortunate news release.	204308158	1477473014416	1477473014536	 	32
398379	4300816	This is a most unfortunate news release.	This is a most unfortunate news release.	204308159	1477473015179	1477473015335	a	65
398379	4300816	This is a most unfortunate news release.	This is a most unfortunate news release.	204308160	1477473015338	1477473015471	 	32
398379	4300816	This is a most unfortunate news release.	This is a most unfortunate news release.	204308193	1477473015564	1477473015644	m	77
398379	4300816	This is a most unfortunate news release.	This is a most unfortunate news release.	204308194	1477473015720	1477473015798	o	79
398379	4300816	This is a most unfortunate news release.	This is a most unfortunate news release.	204308195	1477473015986	1477473016104	s	83
398379	4300816	This is a most unfortunate news release.	This is a most unfortunate news release.	204308196	1477473017204	1477473017284	t	84
398379	4300816	This is a most unfortunate news release.	This is a most unfortunate news release.	204308197	1477473017320	1477473017438	 	32
398379	4300816	This is a most unfortunate news release.	This is a most unfortunate news release.	204308224	1477473017815	1477473017895	u	85
398379	4300816	This is a most unfortunate news release.	This is a most unfortunate news release.	204308225	1477473018009	1477473018087	n	78
398379	4300816	This is a most unfortunate news release.	This is a most unfortunate news release.	204308226	1477473018389	1477473018544	f	70
398379	4300816	This is a most unfortunate news release.	This is a most unfortunate news release.	204308227	1477473018618	1477473018699	o	79
398379	4300816	This is a most unfortunate news release.	This is a most unfortunate news release.	204308228	1477473018962	1477473019042	r	82
398379	4300816	This is a most unfortunate news release.	This is a most unfortunate news release.	204308239	1477473019154	1477473019234	t	84
398379	4300816	This is a most unfortunate news release.	This is a most unfortunate news release.	204308240	1477473019308	1477473019426	u	85
398379	4300816	This is a most unfortunate news release.	This is a most unfortunate news release.	204308241	1477473019576	1477473019693	n	78
398379	4300816	This is a most unfortunate news release.	This is a most unfortunate news release.	204308242	1477473019730	1477473019886	a	65
398379	4300816	This is a most unfortunate news release.	This is a most unfortunate news release.	204308243	1477473019922	1477473020002	t	84
398379	4300816	This is a most unfortunate news release.	This is a most unfortunate news release.	204308259	1477473020190	1477473020270	e	69
398379	4300816	This is a most unfortunate news release.	This is a most unfortunate news release.	204308260	1477473020344	1477473020462	 	32
398379	4300816	This is a most unfortunate news release.	This is a most unfortunate news release.	204308261	1477473021258	1477473021338	n	78
398379	4300816	This is a most unfortunate news release.	This is a most unfortunate news release.	204308262	1477473021450	1477473021530	e	69
398379	4300816	This is a most unfortunate news release.	This is a most unfortunate news release.	204308263	1477473021604	1477473021722	w	87
398379	4300816	This is a most unfortunate news release.	This is a most unfortunate news release.	204308280	1477473021834	1477473021914	s	83
398379	4300816	This is a most unfortunate news release.	This is a most unfortunate news release.	204308281	1477473021988	1477473022068	 	32
398379	4300816	This is a most unfortunate news release.	This is a most unfortunate news release.	204308283	1477473022407	1477473022488	r	82
398379	4300816	This is a most unfortunate news release.	This is a most unfortunate news release.	204308285	1477473022567	1477473022648	e	69
398379	4300816	This is a most unfortunate news release.	This is a most unfortunate news release.	204308289	1477473022949	1477473023029	l	76
398379	4300816	This is a most unfortunate news release.	This is a most unfortunate news release.	204308318	1477473023292	1477473023375	e	69
398379	4300816	This is a most unfortunate news release.	This is a most unfortunate news release.	204308321	1477473023499	1477473023564	a	65
398379	4300816	This is a most unfortunate news release.	This is a most unfortunate news release.	204308323	1477473023676	1477473023756	s	83
398379	4300816	This is a most unfortunate news release.	This is a most unfortunate news release.	204308325	1477473023868	1477473023987	e	69
398379	4300816	This is a most unfortunate news release.	This is a most unfortunate news release.	204308327	1477473024744	1477473024824	.	190
