PARTICIPANT_ID	TEST_SECTION_ID	SENTENCE	USER_INPUT	KEYSTROKE_ID	PRESS_TIME	RELEASE_TIME	LETTER	KEYCODE
403715	4358501	A gift isn't necessary.	A gift isn't necessary.	207027014	1477524488999	1477524489244	SHIFT	16
403715	4358501	A gift isn't necessary.	A gift isn't necessary.	207027018	1477524489147	1477524489294	A	65
403715	4358501	A gift isn't necessary.	A gift isn't necessary.	207027022	1477524489313	1477524489482	 	32
403715	4358501	A gift isn't necessary.	A gift isn't necessary.	207027028	1477524490414	1477524490530	g	71
403715	4358501	A gift isn't necessary.	A gift isn't necessary.	207027034	1477524490540	1477524490670	i	73
403715	4358501	A gift isn't necessary.	A gift isn't necessary.	207027042	1477524490690	1477524490767	f	70
403715	4358501	A gift isn't necessary.	A gift isn't necessary.	207027053	1477524490869	1477524490962	t	84
403715	4358501	A gift isn't necessary.	A gift isn't necessary.	207027056	1477524490934	1477524491073	 	32
403715	4358501	A gift isn't necessary.	A gift isn't necessary.	207027059	1477524490998	1477524491151	i	73
403715	4358501	A gift isn't necessary.	A gift isn't necessary.	207027062	1477524491240	1477524491350	s	83
403715	4358501	A gift isn't necessary.	A gift isn't necessary.	207027089	1477524491321	1477524491435	n	78
403715	4358501	A gift isn't necessary.	A gift isn't necessary.	207027092	1477524491523	1477524491685	'	222
403715	4358501	A gift isn't necessary.	A gift isn't necessary.	207027096	1477524491653	1477524491764	t	84
403715	4358501	A gift isn't necessary.	A gift isn't necessary.	207027101	1477524491753	1477524491899	 	32
403715	4358501	A gift isn't necessary.	A gift isn't necessary.	207027105	1477524491980	1477524492127	n	78
403715	4358501	A gift isn't necessary.	A gift isn't necessary.	207027139	1477524492065	1477524492165	e	69
403715	4358501	A gift isn't necessary.	A gift isn't necessary.	207027143	1477524492274	1477524492355	c	67
403715	4358501	A gift isn't necessary.	A gift isn't necessary.	207027146	1477524492469	1477524492566	e	69
403715	4358501	A gift isn't necessary.	A gift isn't necessary.	207027150	1477524492668	1477524492716	s	83
403715	4358501	A gift isn't necessary.	A gift isn't necessary.	207027155	1477524492809	1477524492844	s	83
403715	4358501	A gift isn't necessary.	A gift isn't necessary.	207027157	1477524493174	1477524493282	a	65
403715	4358501	A gift isn't necessary.	A gift isn't necessary.	207027183	1477524493376	1477524493473	r	82
403715	4358501	A gift isn't necessary.	A gift isn't necessary.	207027185	1477524493444	1477524493550	y	89
403715	4358501	A gift isn't necessary.	A gift isn't necessary.	207027188	1477524493729	1477524493865	.	190
403715	4358509	History repeated itself last season when Tenerife beat Madrid.	History repeated itself last season when Tenerife beat Madrid.	207027311	1477524496007	1477524496231	SHIFT	16
403715	4358509	History repeated itself last season when Tenerife beat Madrid.	History repeated itself last season when Tenerife beat Madrid.	207027317	1477524496164	1477524496339	H	72
403715	4358509	History repeated itself last season when Tenerife beat Madrid.	History repeated itself last season when Tenerife beat Madrid.	207027322	1477524496332	1477524496478	i	73
403715	4358509	History repeated itself last season when Tenerife beat Madrid.	History repeated itself last season when Tenerife beat Madrid.	207027327	1477524496422	1477524496520	s	83
403715	4358509	History repeated itself last season when Tenerife beat Madrid.	History repeated itself last season when Tenerife beat Madrid.	207027331	1477524496630	1477524496755	t	84
403715	4358509	History repeated itself last season when Tenerife beat Madrid.	History repeated itself last season when Tenerife beat Madrid.	207027387	1477524496747	1477524496877	o	79
403715	4358509	History repeated itself last season when Tenerife beat Madrid.	History repeated itself last season when Tenerife beat Madrid.	207027391	1477524496893	1477524497016	r	82
403715	4358509	History repeated itself last season when Tenerife beat Madrid.	History repeated itself last season when Tenerife beat Madrid.	207027395	1477524497023	1477524497185	y	89
403715	4358509	History repeated itself last season when Tenerife beat Madrid.	History repeated itself last season when Tenerife beat Madrid.	207027398	1477524497133	1477524497279	 	32
403715	4358509	History repeated itself last season when Tenerife beat Madrid.	History repeated itself last season when Tenerife beat Madrid.	207027402	1477524497399	1477524497484	r	82
403715	4358509	History repeated itself last season when Tenerife beat Madrid.	History repeated itself last season when Tenerife beat Madrid.	207027406	1477524497581	1477524497682	e	69
403715	4358509	History repeated itself last season when Tenerife beat Madrid.	History repeated itself last season when Tenerife beat Madrid.	207027426	1477524497695	1477524497802	p	80
403715	4358509	History repeated itself last season when Tenerife beat Madrid.	History repeated itself last season when Tenerife beat Madrid.	207027427	1477524497792	1477524497902	e	69
403715	4358509	History repeated itself last season when Tenerife beat Madrid.	History repeated itself last season when Tenerife beat Madrid.	207027428	1477524498049	1477524498156	a	65
403715	4358509	History repeated itself last season when Tenerife beat Madrid.	History repeated itself last season when Tenerife beat Madrid.	207027429	1477524498266	1477524498373	t	84
403715	4358509	History repeated itself last season when Tenerife beat Madrid.	History repeated itself last season when Tenerife beat Madrid.	207027430	1477524498412	1477524498510	e	69
403715	4358509	History repeated itself last season when Tenerife beat Madrid.	History repeated itself last season when Tenerife beat Madrid.	207027462	1477524498578	1477524498691	d	68
403715	4358509	History repeated itself last season when Tenerife beat Madrid.	History repeated itself last season when Tenerife beat Madrid.	207027463	1477524498643	1477524498795	 	32
403715	4358509	History repeated itself last season when Tenerife beat Madrid.	History repeated itself last season when Tenerife beat Madrid.	207027464	1477524498714	1477524498863	i	73
403715	4358509	History repeated itself last season when Tenerife beat Madrid.	History repeated itself last season when Tenerife beat Madrid.	207027465	1477524498844	1477524498915	s	83
403715	4358509	History repeated itself last season when Tenerife beat Madrid.	History repeated itself last season when Tenerife beat Madrid.	207027467	1477524499110	1477524499245	BKSP	8
403715	4358509	History repeated itself last season when Tenerife beat Madrid.	History repeated itself last season when Tenerife beat Madrid.	207027514	1477524499213	1477524499335	r	82
403715	4358509	History repeated itself last season when Tenerife beat Madrid.	History repeated itself last season when Tenerife beat Madrid.	207027518	1477524499420	1477524499517	s	83
403715	4358509	History repeated itself last season when Tenerife beat Madrid.	History repeated itself last season when Tenerife beat Madrid.	207027522	1477524499600	1477524499697	e	69
403715	4358509	History repeated itself last season when Tenerife beat Madrid.	History repeated itself last season when Tenerife beat Madrid.	207027528	1477524499675	1477524499801	l	76
403715	4358509	History repeated itself last season when Tenerife beat Madrid.	History repeated itself last season when Tenerife beat Madrid.	207027532	1477524499814	1477524499921	f	70
403715	4358509	History repeated itself last season when Tenerife beat Madrid.	History repeated itself last season when Tenerife beat Madrid.	207027537	1477524499922	1477524500044	 	32
403715	4358509	History repeated itself last season when Tenerife beat Madrid.	History repeated itself last season when Tenerife beat Madrid.	207027565	1477524500054	1477524500220	l	76
403715	4358509	History repeated itself last season when Tenerife beat Madrid.	History repeated itself last season when Tenerife beat Madrid.	207027568	1477524500191	1477524500333	a	65
403715	4358509	History repeated itself last season when Tenerife beat Madrid.	History repeated itself last season when Tenerife beat Madrid.	207027571	1477524500307	1477524500434	s	83
403715	4358509	History repeated itself last season when Tenerife beat Madrid.	History repeated itself last season when Tenerife beat Madrid.	207027572	1477524500563	1477524500679	t	84
403715	4358509	History repeated itself last season when Tenerife beat Madrid.	History repeated itself last season when Tenerife beat Madrid.	207027573	1477524500910	1477524501046	 	32
403715	4358509	History repeated itself last season when Tenerife beat Madrid.	History repeated itself last season when Tenerife beat Madrid.	207027625	1477524501387	1477524501503	s	83
403715	4358509	History repeated itself last season when Tenerife beat Madrid.	History repeated itself last season when Tenerife beat Madrid.	207027627	1477524501578	1477524501672	e	69
403715	4358509	History repeated itself last season when Tenerife beat Madrid.	History repeated itself last season when Tenerife beat Madrid.	207027631	1477524501743	1477524501886	a	65
403715	4358509	History repeated itself last season when Tenerife beat Madrid.	History repeated itself last season when Tenerife beat Madrid.	207027633	1477524501831	1477524501999	s	83
403715	4358509	History repeated itself last season when Tenerife beat Madrid.	History repeated itself last season when Tenerife beat Madrid.	207027647	1477524501915	1477524502097	o	79
403715	4358509	History repeated itself last season when Tenerife beat Madrid.	History repeated itself last season when Tenerife beat Madrid.	207027652	1477524501987	1477524502161	n	78
403715	4358509	History repeated itself last season when Tenerife beat Madrid.	History repeated itself last season when Tenerife beat Madrid.	207027657	1477524502084	1477524502249	 	32
403715	4358509	History repeated itself last season when Tenerife beat Madrid.	History repeated itself last season when Tenerife beat Madrid.	207027660	1477524502259	1477524502334	w	87
403715	4358509	History repeated itself last season when Tenerife beat Madrid.	History repeated itself last season when Tenerife beat Madrid.	207027663	1477524502504	1477524502641	h	72
403715	4358509	History repeated itself last season when Tenerife beat Madrid.	History repeated itself last season when Tenerife beat Madrid.	207027665	1477524502625	1477524502764	e	69
403715	4358509	History repeated itself last season when Tenerife beat Madrid.	History repeated itself last season when Tenerife beat Madrid.	207027731	1477524502729	1477524502883	n	78
403715	4358509	History repeated itself last season when Tenerife beat Madrid.	History repeated itself last season when Tenerife beat Madrid.	207027732	1477524502825	1477524502958	 	32
403715	4358509	History repeated itself last season when Tenerife beat Madrid.	History repeated itself last season when Tenerife beat Madrid.	207027735	1477524502948	1477524503274	SHIFT	16
403715	4358509	History repeated itself last season when Tenerife beat Madrid.	History repeated itself last season when Tenerife beat Madrid.	207027737	1477524503186	1477524503309	T	84
403715	4358509	History repeated itself last season when Tenerife beat Madrid.	History repeated itself last season when Tenerife beat Madrid.	207027738	1477524503408	1477524503521	e	69
403715	4358509	History repeated itself last season when Tenerife beat Madrid.	History repeated itself last season when Tenerife beat Madrid.	207027740	1477524503499	1477524503619	n	78
403715	4358509	History repeated itself last season when Tenerife beat Madrid.	History repeated itself last season when Tenerife beat Madrid.	207027741	1477524504074	1477524504181	e	69
403715	4358509	History repeated itself last season when Tenerife beat Madrid.	History repeated itself last season when Tenerife beat Madrid.	207027784	1477524504419	1477524504513	f	70
403715	4358509	History repeated itself last season when Tenerife beat Madrid.	History repeated itself last season when Tenerife beat Madrid.	207027788	1477524504677	1477524504839	BKSP	8
403715	4358509	History repeated itself last season when Tenerife beat Madrid.	History repeated itself last season when Tenerife beat Madrid.	207027790	1477524504807	1477524504946	r	82
403715	4358509	History repeated itself last season when Tenerife beat Madrid.	History repeated itself last season when Tenerife beat Madrid.	207027792	1477524504947	1477524505095	i	73
403715	4358509	History repeated itself last season when Tenerife beat Madrid.	History repeated itself last season when Tenerife beat Madrid.	207027794	1477524505114	1477524505199	f	70
403715	4358509	History repeated itself last season when Tenerife beat Madrid.	History repeated itself last season when Tenerife beat Madrid.	207027796	1477524505400	1477524505527	e	69
403715	4358509	History repeated itself last season when Tenerife beat Madrid.	History repeated itself last season when Tenerife beat Madrid.	207027828	1477524505522	1477524505669	 	32
403715	4358509	History repeated itself last season when Tenerife beat Madrid.	History repeated itself last season when Tenerife beat Madrid.	207027831	1477524505821	1477524505964	b	66
403715	4358509	History repeated itself last season when Tenerife beat Madrid.	History repeated itself last season when Tenerife beat Madrid.	207027834	1477524505898	1477524506009	e	69
403715	4358509	History repeated itself last season when Tenerife beat Madrid.	History repeated itself last season when Tenerife beat Madrid.	207027836	1477524506070	1477524506154	a	65
403715	4358509	History repeated itself last season when Tenerife beat Madrid.	History repeated itself last season when Tenerife beat Madrid.	207027839	1477524506253	1477524506359	t	84
403715	4358509	History repeated itself last season when Tenerife beat Madrid.	History repeated itself last season when Tenerife beat Madrid.	207027894	1477524506318	1477524506454	 	32
403715	4358509	History repeated itself last season when Tenerife beat Madrid.	History repeated itself last season when Tenerife beat Madrid.	207027896	1477524506470	1477524506710	SHIFT	16
403715	4358509	History repeated itself last season when Tenerife beat Madrid.	History repeated itself last season when Tenerife beat Madrid.	207027900	1477524506668	1477524506768	M	77
403715	4358509	History repeated itself last season when Tenerife beat Madrid.	History repeated itself last season when Tenerife beat Madrid.	207027904	1477524506827	1477524506931	a	65
403715	4358509	History repeated itself last season when Tenerife beat Madrid.	History repeated itself last season when Tenerife beat Madrid.	207027907	1477524507046	1477524507162	r	82
403715	4358509	History repeated itself last season when Tenerife beat Madrid.	History repeated itself last season when Tenerife beat Madrid.	207027910	1477524507529	1477524507665	BKSP	8
403715	4358509	History repeated itself last season when Tenerife beat Madrid.	History repeated itself last season when Tenerife beat Madrid.	207027913	1477524507645	1477524507759	d	68
403715	4358509	History repeated itself last season when Tenerife beat Madrid.	History repeated itself last season when Tenerife beat Madrid.	207027918	1477524507765	1477524507891	i	73
403715	4358509	History repeated itself last season when Tenerife beat Madrid.	History repeated itself last season when Tenerife beat Madrid.	207028016	1477524508149	1477524508292	BKSP	8
403715	4358509	History repeated itself last season when Tenerife beat Madrid.	History repeated itself last season when Tenerife beat Madrid.	207028021	1477524508250	1477524508373	r	82
403715	4358509	History repeated itself last season when Tenerife beat Madrid.	History repeated itself last season when Tenerife beat Madrid.	207028027	1477524508376	1477524508509	i	73
403715	4358509	History repeated itself last season when Tenerife beat Madrid.	History repeated itself last season when Tenerife beat Madrid.	207028032	1477524508513	1477524508614	d	68
403715	4358509	History repeated itself last season when Tenerife beat Madrid.	History repeated itself last season when Tenerife beat Madrid.	207028036	1477524508679	1477524508812	.	190
403715	4358509	History repeated itself last season when Tenerife beat Madrid.	History repeated itself last season when Tenerife beat Madrid.	207028038	1477524510426	1477524510555	BKSP	8
403715	4358509	History repeated itself last season when Tenerife beat Madrid.	History repeated itself last season when Tenerife beat Madrid.	207028040	1477524510610	1477524510736	t	84
403715	4358523	Brian Mitchell will likely serve as Duce Staley's backup.	Brian Mitchell will likely serve as Duce Staley's backup.	207028104	1477524512434	1477524512875	SHIFT	16
403715	4358523	Brian Mitchell will likely serve as Duce Staley's backup.	Brian Mitchell will likely serve as Duce Staley's backup.	207028105	1477524512808	1477524512926	B	66
403715	4358523	Brian Mitchell will likely serve as Duce Staley's backup.	Brian Mitchell will likely serve as Duce Staley's backup.	207028106	1477524512949	1477524513089	r	82
403715	4358523	Brian Mitchell will likely serve as Duce Staley's backup.	Brian Mitchell will likely serve as Duce Staley's backup.	207028107	1477524513066	1477524513186	i	73
403715	4358523	Brian Mitchell will likely serve as Duce Staley's backup.	Brian Mitchell will likely serve as Duce Staley's backup.	207028108	1477524513180	1477524513309	a	65
403715	4358523	Brian Mitchell will likely serve as Duce Staley's backup.	Brian Mitchell will likely serve as Duce Staley's backup.	207028141	1477524513264	1477524513423	n	78
403715	4358523	Brian Mitchell will likely serve as Duce Staley's backup.	Brian Mitchell will likely serve as Duce Staley's backup.	207028144	1477524513368	1477524513550	 	32
403715	4358523	Brian Mitchell will likely serve as Duce Staley's backup.	Brian Mitchell will likely serve as Duce Staley's backup.	207028147	1477524513430	1477524513647	SHIFT	16
403715	4358523	Brian Mitchell will likely serve as Duce Staley's backup.	Brian Mitchell will likely serve as Duce Staley's backup.	207028150	1477524513569	1477524513770	M	77
403715	4358523	Brian Mitchell will likely serve as Duce Staley's backup.	Brian Mitchell will likely serve as Duce Staley's backup.	207028152	1477524513757	1477524513897	i	73
403715	4358523	Brian Mitchell will likely serve as Duce Staley's backup.	Brian Mitchell will likely serve as Duce Staley's backup.	207028153	1477524513867	1477524513977	t	84
403715	4358523	Brian Mitchell will likely serve as Duce Staley's backup.	Brian Mitchell will likely serve as Duce Staley's backup.	207028154	1477524514108	1477524514213	c	67
403715	4358523	Brian Mitchell will likely serve as Duce Staley's backup.	Brian Mitchell will likely serve as Duce Staley's backup.	207028166	1477524514206	1477524514319	h	72
403715	4358523	Brian Mitchell will likely serve as Duce Staley's backup.	Brian Mitchell will likely serve as Duce Staley's backup.	207028170	1477524514342	1477524514478	e	69
403715	4358523	Brian Mitchell will likely serve as Duce Staley's backup.	Brian Mitchell will likely serve as Duce Staley's backup.	207028174	1477524514423	1477524514578	l	76
403715	4358523	Brian Mitchell will likely serve as Duce Staley's backup.	Brian Mitchell will likely serve as Duce Staley's backup.	207028178	1477524514634	1477524514854	l	76
403715	4358523	Brian Mitchell will likely serve as Duce Staley's backup.	Brian Mitchell will likely serve as Duce Staley's backup.	207028182	1477524514796	1477524514952	 	32
403715	4358523	Brian Mitchell will likely serve as Duce Staley's backup.	Brian Mitchell will likely serve as Duce Staley's backup.	207028206	1477524514880	1477524515035	w	87
403715	4358523	Brian Mitchell will likely serve as Duce Staley's backup.	Brian Mitchell will likely serve as Duce Staley's backup.	207028210	1477524515008	1477524515166	i	73
403715	4358523	Brian Mitchell will likely serve as Duce Staley's backup.	Brian Mitchell will likely serve as Duce Staley's backup.	207028215	1477524515091	1477524515260	l	76
403715	4358523	Brian Mitchell will likely serve as Duce Staley's backup.	Brian Mitchell will likely serve as Duce Staley's backup.	207028218	1477524515356	1477524515533	l	76
403715	4358523	Brian Mitchell will likely serve as Duce Staley's backup.	Brian Mitchell will likely serve as Duce Staley's backup.	207028222	1477524515444	1477524515638	 	32
403715	4358523	Brian Mitchell will likely serve as Duce Staley's backup.	Brian Mitchell will likely serve as Duce Staley's backup.	207028238	1477524515593	1477524515797	l	76
403715	4358523	Brian Mitchell will likely serve as Duce Staley's backup.	Brian Mitchell will likely serve as Duce Staley's backup.	207028240	1477524515697	1477524515849	i	73
403715	4358523	Brian Mitchell will likely serve as Duce Staley's backup.	Brian Mitchell will likely serve as Duce Staley's backup.	207028247	1477524515895	1477524516027	k	75
403715	4358523	Brian Mitchell will likely serve as Duce Staley's backup.	Brian Mitchell will likely serve as Duce Staley's backup.	207028252	1477524515995	1477524516131	e	69
403715	4358523	Brian Mitchell will likely serve as Duce Staley's backup.	Brian Mitchell will likely serve as Duce Staley's backup.	207028258	1477524516079	1477524516229	l	76
403715	4358523	Brian Mitchell will likely serve as Duce Staley's backup.	Brian Mitchell will likely serve as Duce Staley's backup.	207028261	1477524516309	1477524516465	y	89
403715	4358523	Brian Mitchell will likely serve as Duce Staley's backup.	Brian Mitchell will likely serve as Duce Staley's backup.	207028291	1477524516384	1477524516548	 	32
403715	4358523	Brian Mitchell will likely serve as Duce Staley's backup.	Brian Mitchell will likely serve as Duce Staley's backup.	207028292	1477524516446	1477524516560	s	83
403715	4358523	Brian Mitchell will likely serve as Duce Staley's backup.	Brian Mitchell will likely serve as Duce Staley's backup.	207028294	1477524516628	1477524516722	e	69
403715	4358523	Brian Mitchell will likely serve as Duce Staley's backup.	Brian Mitchell will likely serve as Duce Staley's backup.	207028297	1477524516790	1477524516871	r	82
403715	4358523	Brian Mitchell will likely serve as Duce Staley's backup.	Brian Mitchell will likely serve as Duce Staley's backup.	207028300	1477524517152	1477524517285	v	86
403715	4358523	Brian Mitchell will likely serve as Duce Staley's backup.	Brian Mitchell will likely serve as Duce Staley's backup.	207028303	1477524517356	1477524517486	e	69
403715	4358523	Brian Mitchell will likely serve as Duce Staley's backup.	Brian Mitchell will likely serve as Duce Staley's backup.	207028370	1477524517454	1477524517600	 	32
403715	4358523	Brian Mitchell will likely serve as Duce Staley's backup.	Brian Mitchell will likely serve as Duce Staley's backup.	207028372	1477524517622	1477524517742	a	65
403715	4358523	Brian Mitchell will likely serve as Duce Staley's backup.	Brian Mitchell will likely serve as Duce Staley's backup.	207028376	1477524518067	1477524518206	s	83
403715	4358523	Brian Mitchell will likely serve as Duce Staley's backup.	Brian Mitchell will likely serve as Duce Staley's backup.	207028378	1477524518151	1477524518281	 	32
403715	4358523	Brian Mitchell will likely serve as Duce Staley's backup.	Brian Mitchell will likely serve as Duce Staley's backup.	207028380	1477524518281	1477524518495	SHIFT	16
403715	4358523	Brian Mitchell will likely serve as Duce Staley's backup.	Brian Mitchell will likely serve as Duce Staley's backup.	207028381	1477524518411	1477524518527	D	68
403715	4358523	Brian Mitchell will likely serve as Duce Staley's backup.	Brian Mitchell will likely serve as Duce Staley's backup.	207028382	1477524518555	1477524518670	u	85
403715	4358523	Brian Mitchell will likely serve as Duce Staley's backup.	Brian Mitchell will likely serve as Duce Staley's backup.	207028414	1477524518641	1477524518751	c	67
403715	4358523	Brian Mitchell will likely serve as Duce Staley's backup.	Brian Mitchell will likely serve as Duce Staley's backup.	207028417	1477524518838	1477524518958	e	69
403715	4358523	Brian Mitchell will likely serve as Duce Staley's backup.	Brian Mitchell will likely serve as Duce Staley's backup.	207028420	1477524518929	1477524519069	 	32
403715	4358523	Brian Mitchell will likely serve as Duce Staley's backup.	Brian Mitchell will likely serve as Duce Staley's backup.	207028425	1477524519042	1477524519238	SHIFT	16
403715	4358523	Brian Mitchell will likely serve as Duce Staley's backup.	Brian Mitchell will likely serve as Duce Staley's backup.	207028433	1477524519144	1477524519260	S	83
403715	4358523	Brian Mitchell will likely serve as Duce Staley's backup.	Brian Mitchell will likely serve as Duce Staley's backup.	207028439	1477524519384	1477524519487	t	84
403715	4358523	Brian Mitchell will likely serve as Duce Staley's backup.	Brian Mitchell will likely serve as Duce Staley's backup.	207028444	1477524519577	1477524519700	a	65
403715	4358523	Brian Mitchell will likely serve as Duce Staley's backup.	Brian Mitchell will likely serve as Duce Staley's backup.	207028476	1477524519668	1477524519820	l	76
403715	4358523	Brian Mitchell will likely serve as Duce Staley's backup.	Brian Mitchell will likely serve as Duce Staley's backup.	207028478	1477524519872	1477524519982	e	69
403715	4358523	Brian Mitchell will likely serve as Duce Staley's backup.	Brian Mitchell will likely serve as Duce Staley's backup.	207028479	1477524519966	1477524520077	y	89
403715	4358523	Brian Mitchell will likely serve as Duce Staley's backup.	Brian Mitchell will likely serve as Duce Staley's backup.	207028480	1477524520151	1477524520327	'	222
403715	4358523	Brian Mitchell will likely serve as Duce Staley's backup.	Brian Mitchell will likely serve as Duce Staley's backup.	207028481	1477524520289	1477524520424	s	83
403715	4358523	Brian Mitchell will likely serve as Duce Staley's backup.	Brian Mitchell will likely serve as Duce Staley's backup.	207028500	1477524520401	1477524520531	 	32
403715	4358523	Brian Mitchell will likely serve as Duce Staley's backup.	Brian Mitchell will likely serve as Duce Staley's backup.	207028502	1477524520515	1477524520638	b	66
403715	4358523	Brian Mitchell will likely serve as Duce Staley's backup.	Brian Mitchell will likely serve as Duce Staley's backup.	207028504	1477524520625	1477524520729	a	65
403715	4358523	Brian Mitchell will likely serve as Duce Staley's backup.	Brian Mitchell will likely serve as Duce Staley's backup.	207028505	1477524520794	1477524520881	c	67
403715	4358523	Brian Mitchell will likely serve as Duce Staley's backup.	Brian Mitchell will likely serve as Duce Staley's backup.	207028506	1477524520882	1477524521011	k	75
403715	4358523	Brian Mitchell will likely serve as Duce Staley's backup.	Brian Mitchell will likely serve as Duce Staley's backup.	207028507	1477524521117	1477524521272	u	85
403715	4358523	Brian Mitchell will likely serve as Duce Staley's backup.	Brian Mitchell will likely serve as Duce Staley's backup.	207028513	1477524521208	1477524521343	p	80
403715	4358523	Brian Mitchell will likely serve as Duce Staley's backup.	Brian Mitchell will likely serve as Duce Staley's backup.	207028516	1477524521408	1477524521564	.	190
403715	4358532	He said the operating theatres were barely functioning.	He said the operating theatres were barely functioning.	207028599	1477524523139	1477524523331	SHIFT	16
403715	4358532	He said the operating theatres were barely functioning.	He said the operating theatres were barely functioning.	207028604	1477524523257	1477524523376	H	72
403715	4358532	He said the operating theatres were barely functioning.	He said the operating theatres were barely functioning.	207028607	1477524523364	1477524523487	e	69
403715	4358532	He said the operating theatres were barely functioning.	He said the operating theatres were barely functioning.	207028609	1477524523458	1477524523590	 	32
403715	4358532	He said the operating theatres were barely functioning.	He said the operating theatres were barely functioning.	207028612	1477524523578	1477524523691	s	83
403715	4358532	He said the operating theatres were barely functioning.	He said the operating theatres were barely functioning.	207028616	1477524523711	1477524523837	a	65
403715	4358532	He said the operating theatres were barely functioning.	He said the operating theatres were barely functioning.	207028635	1477524523785	1477524523902	i	73
403715	4358532	He said the operating theatres were barely functioning.	He said the operating theatres were barely functioning.	207028640	1477524523905	1477524523990	d	68
403715	4358532	He said the operating theatres were barely functioning.	He said the operating theatres were barely functioning.	207028644	1477524523997	1477524524123	 	32
403715	4358532	He said the operating theatres were barely functioning.	He said the operating theatres were barely functioning.	207028647	1477524524110	1477524524229	t	84
403715	4358532	He said the operating theatres were barely functioning.	He said the operating theatres were barely functioning.	207028648	1477524524210	1477524524333	h	72
403715	4358532	He said the operating theatres were barely functioning.	He said the operating theatres were barely functioning.	207028676	1477524524295	1477524524418	e	69
403715	4358532	He said the operating theatres were barely functioning.	He said the operating theatres were barely functioning.	207028680	1477524524383	1477524524522	 	32
403715	4358532	He said the operating theatres were barely functioning.	He said the operating theatres were barely functioning.	207028682	1477524524525	1477524524726	o	79
403715	4358532	He said the operating theatres were barely functioning.	He said the operating theatres were barely functioning.	207028684	1477524524688	1477524524833	p	80
403715	4358532	He said the operating theatres were barely functioning.	He said the operating theatres were barely functioning.	207028686	1477524524804	1477524524921	e	69
403715	4358532	He said the operating theatres were barely functioning.	He said the operating theatres were barely functioning.	207028688	1477524524989	1477524525096	r	82
403715	4358532	He said the operating theatres were barely functioning.	He said the operating theatres were barely functioning.	207028697	1477524525168	1477524525288	a	65
403715	4358532	He said the operating theatres were barely functioning.	He said the operating theatres were barely functioning.	207028700	1477524525374	1477524525493	t	84
403715	4358532	He said the operating theatres were barely functioning.	He said the operating theatres were barely functioning.	207028703	1477524525435	1477524525581	i	73
403715	4358532	He said the operating theatres were barely functioning.	He said the operating theatres were barely functioning.	207028706	1477524525500	1477524525636	n	78
403715	4358532	He said the operating theatres were barely functioning.	He said the operating theatres were barely functioning.	207028742	1477524525614	1477524525718	g	71
403715	4358532	He said the operating theatres were barely functioning.	He said the operating theatres were barely functioning.	207028744	1477524525728	1477524525844	 	32
403715	4358532	He said the operating theatres were barely functioning.	He said the operating theatres were barely functioning.	207028745	1477524525916	1477524526055	t	84
403715	4358532	He said the operating theatres were barely functioning.	He said the operating theatres were barely functioning.	207028746	1477524526078	1477524526207	h	72
403715	4358532	He said the operating theatres were barely functioning.	He said the operating theatres were barely functioning.	207028747	1477524526220	1477524526344	e	69
403715	4358532	He said the operating theatres were barely functioning.	He said the operating theatres were barely functioning.	207028748	1477524526395	1477524526512	a	65
403715	4358532	He said the operating theatres were barely functioning.	He said the operating theatres were barely functioning.	207028781	1477524526609	1477524526729	t	84
403715	4358532	He said the operating theatres were barely functioning.	He said the operating theatres were barely functioning.	207028786	1477524526965	1477524527088	r	82
403715	4358532	He said the operating theatres were barely functioning.	He said the operating theatres were barely functioning.	207028790	1477524527147	1477524527254	e	69
403715	4358532	He said the operating theatres were barely functioning.	He said the operating theatres were barely functioning.	207028793	1477524527312	1477524527438	s	83
403715	4358532	He said the operating theatres were barely functioning.	He said the operating theatres were barely functioning.	207028806	1477524527422	1477524527558	 	32
403715	4358532	He said the operating theatres were barely functioning.	He said the operating theatres were barely functioning.	207028807	1477524527533	1477524527649	w	87
403715	4358532	He said the operating theatres were barely functioning.	He said the operating theatres were barely functioning.	207028808	1477524527704	1477524527824	e	69
403715	4358532	He said the operating theatres were barely functioning.	He said the operating theatres were barely functioning.	207028809	1477524527902	1477524528006	r	82
403715	4358532	He said the operating theatres were barely functioning.	He said the operating theatres were barely functioning.	207028810	1477524528074	1477524528178	e	69
403715	4358532	He said the operating theatres were barely functioning.	He said the operating theatres were barely functioning.	207028828	1477524528123	1477524528308	 	32
403715	4358532	He said the operating theatres were barely functioning.	He said the operating theatres were barely functioning.	207028829	1477524528278	1477524528385	b	69
403715	4358532	He said the operating theatres were barely functioning.	He said the operating theatres were barely functioning.	207028830	1477524528597	1477524528701	BKSP	8
403715	4358532	He said the operating theatres were barely functioning.	He said the operating theatres were barely functioning.	207028832	1477524528763	1477524528866	BKSP	8
403715	4358532	He said the operating theatres were barely functioning.	He said the operating theatres were barely functioning.	207028836	1477524529003	1477524529132	b	66
403715	4358532	He said the operating theatres were barely functioning.	He said the operating theatres were barely functioning.	207028842	1477524529090	1477524529207	e	69
403715	4358532	He said the operating theatres were barely functioning.	He said the operating theatres were barely functioning.	207028847	1477524529269	1477524529356	a	65
403715	4358532	He said the operating theatres were barely functioning.	He said the operating theatres were barely functioning.	207028939	1477524529515	1477524529619	r	82
403715	4358532	He said the operating theatres were barely functioning.	He said the operating theatres were barely functioning.	207028943	1477524529725	1477524529848	BKSP	8
403715	4358532	He said the operating theatres were barely functioning.	He said the operating theatres were barely functioning.	207028948	1477524529897	1477524530017	BKSP	8
403715	4358532	He said the operating theatres were barely functioning.	He said the operating theatres were barely functioning.	207028953	1477524529991	1477524530114	r	82
403715	4358532	He said the operating theatres were barely functioning.	He said the operating theatres were barely functioning.	207028958	1477524530422	1477524530531	BKSP	8
403715	4358532	He said the operating theatres were barely functioning.	He said the operating theatres were barely functioning.	207028962	1477524530583	1477524530687	BKSP	8
403715	4358532	He said the operating theatres were barely functioning.	He said the operating theatres were barely functioning.	207028966	1477524530726	1477524530852	a	65
403715	4358532	He said the operating theatres were barely functioning.	He said the operating theatres were barely functioning.	207028971	1477524530921	1477524531040	r	82
403715	4358532	He said the operating theatres were barely functioning.	He said the operating theatres were barely functioning.	207028975	1477524531123	1477524531211	e	69
403715	4358532	He said the operating theatres were barely functioning.	He said the operating theatres were barely functioning.	207028984	1477524531276	1477524531409	l	76
403715	4358532	He said the operating theatres were barely functioning.	He said the operating theatres were barely functioning.	207028986	1477524531480	1477524531642	y	89
403715	4358532	He said the operating theatres were barely functioning.	He said the operating theatres were barely functioning.	207028989	1477524531587	1477524531740	 	32
403715	4358532	He said the operating theatres were barely functioning.	He said the operating theatres were barely functioning.	207028994	1477524531870	1477524531981	f	70
403715	4358532	He said the operating theatres were barely functioning.	He said the operating theatres were barely functioning.	207029000	1477524531984	1477524532117	u	85
403715	4358532	He said the operating theatres were barely functioning.	He said the operating theatres were barely functioning.	207029029	1477524532203	1477524532332	n	78
403715	4358532	He said the operating theatres were barely functioning.	He said the operating theatres were barely functioning.	207029032	1477524532391	1477524532485	c	67
403715	4358532	He said the operating theatres were barely functioning.	He said the operating theatres were barely functioning.	207029035	1477524532711	1477524532795	t	84
403715	4358532	He said the operating theatres were barely functioning.	He said the operating theatres were barely functioning.	207029040	1477524532769	1477524532908	i	73
403715	4358532	He said the operating theatres were barely functioning.	He said the operating theatres were barely functioning.	207029044	1477524533079	1477524533234	o	79
403715	4358532	He said the operating theatres were barely functioning.	He said the operating theatres were barely functioning.	207029066	1477524533186	1477524533363	n	78
403715	4358532	He said the operating theatres were barely functioning.	He said the operating theatres were barely functioning.	207029068	1477524533328	1477524533494	i	73
403715	4358532	He said the operating theatres were barely functioning.	He said the operating theatres were barely functioning.	207029070	1477524533442	1477524533565	n	78
403715	4358532	He said the operating theatres were barely functioning.	He said the operating theatres were barely functioning.	207029072	1477524533552	1477524533678	g	71
403715	4358542	The Jets will try to control the ball and the clock against the Rams.	The Jets will try to control the ball and the clock against the Rams.	207029197	1477524535824	1477524536139	SHIFT	16
403715	4358542	The Jets will try to control the ball and the clock against the Rams.	The Jets will try to control the ball and the clock against the Rams.	207029200	1477524536107	1477524536229	T	84
403715	4358542	The Jets will try to control the ball and the clock against the Rams.	The Jets will try to control the ball and the clock against the Rams.	207029203	1477524536243	1477524536373	h	72
403715	4358542	The Jets will try to control the ball and the clock against the Rams.	The Jets will try to control the ball and the clock against the Rams.	207029206	1477524536341	1477524536457	e	69
403715	4358542	The Jets will try to control the ball and the clock against the Rams.	The Jets will try to control the ball and the clock against the Rams.	207029208	1477524536428	1477524536587	 	32
403715	4358542	The Jets will try to control the ball and the clock against the Rams.	The Jets will try to control the ball and the clock against the Rams.	207029210	1477524536694	1477524536925	SHIFT	16
403715	4358542	The Jets will try to control the ball and the clock against the Rams.	The Jets will try to control the ball and the clock against the Rams.	207029225	1477524536846	1477524536963	J	74
403715	4358542	The Jets will try to control the ball and the clock against the Rams.	The Jets will try to control the ball and the clock against the Rams.	207029230	1477524536976	1477524537096	e	69
403715	4358542	The Jets will try to control the ball and the clock against the Rams.	The Jets will try to control the ball and the clock against the Rams.	207029234	1477524537222	1477524537352	t	84
403715	4358542	The Jets will try to control the ball and the clock against the Rams.	The Jets will try to control the ball and the clock against the Rams.	207029238	1477524537457	1477524537583	s	83
403715	4358542	The Jets will try to control the ball and the clock against the Rams.	The Jets will try to control the ball and the clock against the Rams.	207029245	1477524537525	1477524537672	 	32
403715	4358542	The Jets will try to control the ball and the clock against the Rams.	The Jets will try to control the ball and the clock against the Rams.	207029266	1477524537664	1477524537817	w	87
403715	4358542	The Jets will try to control the ball and the clock against the Rams.	The Jets will try to control the ball and the clock against the Rams.	207029269	1477524537709	1477524537856	i	73
403715	4358542	The Jets will try to control the ball and the clock against the Rams.	The Jets will try to control the ball and the clock against the Rams.	207029274	1477524537788	1477524537911	l	76
403715	4358542	The Jets will try to control the ball and the clock against the Rams.	The Jets will try to control the ball and the clock against the Rams.	207029278	1477524537949	1477524538128	l	76
403715	4358542	The Jets will try to control the ball and the clock against the Rams.	The Jets will try to control the ball and the clock against the Rams.	207029281	1477524538047	1477524538225	 	32
403715	4358542	The Jets will try to control the ball and the clock against the Rams.	The Jets will try to control the ball and the clock against the Rams.	207029291	1477524538144	1477524538264	t	84
403715	4358542	The Jets will try to control the ball and the clock against the Rams.	The Jets will try to control the ball and the clock against the Rams.	207029293	1477524538329	1477524538455	r	82
403715	4358542	The Jets will try to control the ball and the clock against the Rams.	The Jets will try to control the ball and the clock against the Rams.	207029298	1477524538414	1477524538560	y	89
403715	4358542	The Jets will try to control the ball and the clock against the Rams.	The Jets will try to control the ball and the clock against the Rams.	207029301	1477524538491	1477524538640	 	32
403715	4358542	The Jets will try to control the ball and the clock against the Rams.	The Jets will try to control the ball and the clock against the Rams.	207029308	1477524538621	1477524538761	t	84
403715	4358542	The Jets will try to control the ball and the clock against the Rams.	The Jets will try to control the ball and the clock against the Rams.	207029326	1477524538726	1477524538913	o	79
403715	4358542	The Jets will try to control the ball and the clock against the Rams.	The Jets will try to control the ball and the clock against the Rams.	207029327	1477524538832	1477524538981	 	32
403715	4358542	The Jets will try to control the ball and the clock against the Rams.	The Jets will try to control the ball and the clock against the Rams.	207029328	1477524539109	1477524539238	c	67
403715	4358542	The Jets will try to control the ball and the clock against the Rams.	The Jets will try to control the ball and the clock against the Rams.	207029330	1477524539180	1477524539326	o	79
403715	4358542	The Jets will try to control the ball and the clock against the Rams.	The Jets will try to control the ball and the clock against the Rams.	207029334	1477524539251	1477524539392	n	78
403715	4358542	The Jets will try to control the ball and the clock against the Rams.	The Jets will try to control the ball and the clock against the Rams.	207029361	1477524539384	1477524539504	t	84
403715	4358542	The Jets will try to control the ball and the clock against the Rams.	The Jets will try to control the ball and the clock against the Rams.	207029364	1477524539585	1477524539686	r	82
403715	4358542	The Jets will try to control the ball and the clock against the Rams.	The Jets will try to control the ball and the clock against the Rams.	207029367	1477524539702	1477524539812	o	79
403715	4358542	The Jets will try to control the ball and the clock against the Rams.	The Jets will try to control the ball and the clock against the Rams.	207029370	1477524539890	1477524540040	l	76
403715	4358542	The Jets will try to control the ball and the clock against the Rams.	The Jets will try to control the ball and the clock against the Rams.	207029375	1477524540056	1477524540208	 	32
403715	4358542	The Jets will try to control the ball and the clock against the Rams.	The Jets will try to control the ball and the clock against the Rams.	207029394	1477524540179	1477524540305	t	84
403715	4358542	The Jets will try to control the ball and the clock against the Rams.	The Jets will try to control the ball and the clock against the Rams.	207029397	1477524540290	1477524540409	h	72
403715	4358542	The Jets will try to control the ball and the clock against the Rams.	The Jets will try to control the ball and the clock against the Rams.	207029399	1477524540390	1477524540516	e	69
403715	4358542	The Jets will try to control the ball and the clock against the Rams.	The Jets will try to control the ball and the clock against the Rams.	207029400	1477524540472	1477524540604	 	32
403715	4358542	The Jets will try to control the ball and the clock against the Rams.	The Jets will try to control the ball and the clock against the Rams.	207029401	1477524540643	1477524540753	b	66
403715	4358542	The Jets will try to control the ball and the clock against the Rams.	The Jets will try to control the ball and the clock against the Rams.	207029402	1477524540760	1477524540873	a	65
403715	4358542	The Jets will try to control the ball and the clock against the Rams.	The Jets will try to control the ball and the clock against the Rams.	207029414	1477524540857	1477524540967	l	76
403715	4358542	The Jets will try to control the ball and the clock against the Rams.	The Jets will try to control the ball and the clock against the Rams.	207029419	1477524541016	1477524541178	l	76
403715	4358542	The Jets will try to control the ball and the clock against the Rams.	The Jets will try to control the ball and the clock against the Rams.	207029422	1477524541120	1477524541262	 	32
403715	4358542	The Jets will try to control the ball and the clock against the Rams.	The Jets will try to control the ball and the clock against the Rams.	207029427	1477524541481	1477524541601	a	65
403715	4358542	The Jets will try to control the ball and the clock against the Rams.	The Jets will try to control the ball and the clock against the Rams.	207029430	1477524541559	1477524541693	n	78
403715	4358542	The Jets will try to control the ball and the clock against the Rams.	The Jets will try to control the ball and the clock against the Rams.	207029432	1477524541686	1477524541786	d	68
403715	4358542	The Jets will try to control the ball and the clock against the Rams.	The Jets will try to control the ball and the clock against the Rams.	207029434	1477524541786	1477524541919	 	32
403715	4358542	The Jets will try to control the ball and the clock against the Rams.	The Jets will try to control the ball and the clock against the Rams.	207029436	1477524541903	1477524542013	t	84
403715	4358542	The Jets will try to control the ball and the clock against the Rams.	The Jets will try to control the ball and the clock against the Rams.	207029438	1477524541988	1477524542094	h	72
403715	4358542	The Jets will try to control the ball and the clock against the Rams.	The Jets will try to control the ball and the clock against the Rams.	207029440	1477524542078	1477524542194	e	69
403715	4358542	The Jets will try to control the ball and the clock against the Rams.	The Jets will try to control the ball and the clock against the Rams.	207029462	1477524542175	1477524542301	 	32
403715	4358542	The Jets will try to control the ball and the clock against the Rams.	The Jets will try to control the ball and the clock against the Rams.	207029466	1477524542379	1477524542503	c	67
403715	4358542	The Jets will try to control the ball and the clock against the Rams.	The Jets will try to control the ball and the clock against the Rams.	207029470	1477524542464	1477524542574	l	76
403715	4358542	The Jets will try to control the ball and the clock against the Rams.	The Jets will try to control the ball and the clock against the Rams.	207029475	1477524542633	1477524542743	o	79
403715	4358542	The Jets will try to control the ball and the clock against the Rams.	The Jets will try to control the ball and the clock against the Rams.	207029478	1477524542701	1477524542824	c	67
403715	4358542	The Jets will try to control the ball and the clock against the Rams.	The Jets will try to control the ball and the clock against the Rams.	207029491	1477524542815	1477524542976	k	75
403715	4358542	The Jets will try to control the ball and the clock against the Rams.	The Jets will try to control the ball and the clock against the Rams.	207029494	1477524542931	1477524543057	 	32
403715	4358542	The Jets will try to control the ball and the clock against the Rams.	The Jets will try to control the ball and the clock against the Rams.	207029497	1477524543019	1477524543125	a	65
403715	4358542	The Jets will try to control the ball and the clock against the Rams.	The Jets will try to control the ball and the clock against the Rams.	207029501	1477524543214	1477524543321	g	71
403715	4358542	The Jets will try to control the ball and the clock against the Rams.	The Jets will try to control the ball and the clock against the Rams.	207029504	1477524543413	1477524543509	a	65
403715	4358542	The Jets will try to control the ball and the clock against the Rams.	The Jets will try to control the ball and the clock against the Rams.	207029519	1477524543448	1477524543609	i	73
403715	4358542	The Jets will try to control the ball and the clock against the Rams.	The Jets will try to control the ball and the clock against the Rams.	207029521	1477524543513	1477524543665	n	78
403715	4358542	The Jets will try to control the ball and the clock against the Rams.	The Jets will try to control the ball and the clock against the Rams.	207029523	1477524543607	1477524543711	s	83
403715	4358542	The Jets will try to control the ball and the clock against the Rams.	The Jets will try to control the ball and the clock against the Rams.	207029525	1477524543827	1477524543924	t	84
403715	4358542	The Jets will try to control the ball and the clock against the Rams.	The Jets will try to control the ball and the clock against the Rams.	207029527	1477524543895	1477524544012	 	32
403715	4358542	The Jets will try to control the ball and the clock against the Rams.	The Jets will try to control the ball and the clock against the Rams.	207029529	1477524544018	1477524544132	t	84
403715	4358542	The Jets will try to control the ball and the clock against the Rams.	The Jets will try to control the ball and the clock against the Rams.	207029553	1477524544099	1477524544235	h	72
403715	4358542	The Jets will try to control the ball and the clock against the Rams.	The Jets will try to control the ball and the clock against the Rams.	207029558	1477524544200	1477524544336	e	69
403715	4358542	The Jets will try to control the ball and the clock against the Rams.	The Jets will try to control the ball and the clock against the Rams.	207029564	1477524544294	1477524544423	 	32
403715	4358542	The Jets will try to control the ball and the clock against the Rams.	The Jets will try to control the ball and the clock against the Rams.	207029568	1477524544427	1477524544628	SHIFT	16
403715	4358542	The Jets will try to control the ball and the clock against the Rams.	The Jets will try to control the ball and the clock against the Rams.	207029569	1477524544554	1477524544673	R	82
403715	4358542	The Jets will try to control the ball and the clock against the Rams.	The Jets will try to control the ball and the clock against the Rams.	207029571	1477524544738	1477524544861	a	65
403715	4358542	The Jets will try to control the ball and the clock against the Rams.	The Jets will try to control the ball and the clock against the Rams.	207029575	1477524544846	1477524544946	m	77
403715	4358542	The Jets will try to control the ball and the clock against the Rams.	The Jets will try to control the ball and the clock against the Rams.	207029576	1477524544949	1477524545085	s	83
403715	4358553	They launched a counter attack and retook positions they had lost.	They launched a counter attack and retook positions they had lost.	207029686	1477524546932	1477524547140	SHIFT	16
403715	4358553	They launched a counter attack and retook positions they had lost.	They launched a counter attack and retook positions they had lost.	207029688	1477524547059	1477524547169	T	84
403715	4358553	They launched a counter attack and retook positions they had lost.	They launched a counter attack and retook positions they had lost.	207029689	1477524547175	1477524547305	h	72
403715	4358553	They launched a counter attack and retook positions they had lost.	They launched a counter attack and retook positions they had lost.	207029690	1477524547289	1477524547416	e	69
403715	4358553	They launched a counter attack and retook positions they had lost.	They launched a counter attack and retook positions they had lost.	207029691	1477524547406	1477524547555	y	89
403715	4358553	They launched a counter attack and retook positions they had lost.	They launched a counter attack and retook positions they had lost.	207029716	1477524547487	1477524547629	 	32
403715	4358553	They launched a counter attack and retook positions they had lost.	They launched a counter attack and retook positions they had lost.	207029719	1477524547652	1477524547805	l	76
403715	4358553	They launched a counter attack and retook positions they had lost.	They launched a counter attack and retook positions they had lost.	207029722	1477524547737	1477524547847	a	65
403715	4358553	They launched a counter attack and retook positions they had lost.	They launched a counter attack and retook positions they had lost.	207029725	1477524547896	1477524548026	u	85
403715	4358553	They launched a counter attack and retook positions they had lost.	They launched a counter attack and retook positions they had lost.	207029728	1477524548111	1477524548224	n	78
403715	4358553	They launched a counter attack and retook positions they had lost.	They launched a counter attack and retook positions they had lost.	207029742	1477524548172	1477524548289	c	67
403715	4358553	They launched a counter attack and retook positions they had lost.	They launched a counter attack and retook positions they had lost.	207029743	1477524548315	1477524548444	h	72
403715	4358553	They launched a counter attack and retook positions they had lost.	They launched a counter attack and retook positions they had lost.	207029744	1477524548435	1477524548545	e	69
403715	4358553	They launched a counter attack and retook positions they had lost.	They launched a counter attack and retook positions they had lost.	207029745	1477524548607	1477524548724	d	68
403715	4358553	They launched a counter attack and retook positions they had lost.	They launched a counter attack and retook positions they had lost.	207029746	1477524548692	1477524548818	 	32
403715	4358553	They launched a counter attack and retook positions they had lost.	They launched a counter attack and retook positions they had lost.	207029768	1477524548808	1477524548922	a	65
403715	4358553	They launched a counter attack and retook positions they had lost.	They launched a counter attack and retook positions they had lost.	207029772	1477524548883	1477524549035	 	32
403715	4358553	They launched a counter attack and retook positions they had lost.	They launched a counter attack and retook positions they had lost.	207029774	1477524549032	1477524549162	c	67
403715	4358553	They launched a counter attack and retook positions they had lost.	They launched a counter attack and retook positions they had lost.	207029779	1477524549054	1477524549239	o	79
403715	4358553	They launched a counter attack and retook positions they had lost.	They launched a counter attack and retook positions they had lost.	207029782	1477524549159	1477524549269	u	85
403715	4358553	They launched a counter attack and retook positions they had lost.	They launched a counter attack and retook positions they had lost.	207029787	1477524549350	1477524549470	n	78
403715	4358553	They launched a counter attack and retook positions they had lost.	They launched a counter attack and retook positions they had lost.	207029805	1477524549388	1477524549502	t	84
403715	4358553	They launched a counter attack and retook positions they had lost.	They launched a counter attack and retook positions they had lost.	207029809	1477524549554	1477524549690	e	69
403715	4358553	They launched a counter attack and retook positions they had lost.	They launched a counter attack and retook positions they had lost.	207029815	1477524549622	1477524549752	r	82
403715	4358553	They launched a counter attack and retook positions they had lost.	They launched a counter attack and retook positions they had lost.	207029819	1477524549720	1477524549851	 	32
403715	4358553	They launched a counter attack and retook positions they had lost.	They launched a counter attack and retook positions they had lost.	207029824	1477524549843	1477524549940	a	65
403715	4358553	They launched a counter attack and retook positions they had lost.	They launched a counter attack and retook positions they had lost.	207029828	1477524550041	1477524550134	t	84
403715	4358553	They launched a counter attack and retook positions they had lost.	They launched a counter attack and retook positions they had lost.	207029843	1477524550187	1477524550290	t	84
403715	4358553	They launched a counter attack and retook positions they had lost.	They launched a counter attack and retook positions they had lost.	207029845	1477524550378	1477524550471	a	65
403715	4358553	They launched a counter attack and retook positions they had lost.	They launched a counter attack and retook positions they had lost.	207029848	1477524550546	1477524550656	c	67
403715	4358553	They launched a counter attack and retook positions they had lost.	They launched a counter attack and retook positions they had lost.	207029850	1477524550617	1477524550789	k	75
403715	4358553	They launched a counter attack and retook positions they had lost.	They launched a counter attack and retook positions they had lost.	207029861	1477524550704	1477524550850	 	32
403715	4358553	They launched a counter attack and retook positions they had lost.	They launched a counter attack and retook positions they had lost.	207029863	1477524550831	1477524550960	a	65
403715	4358553	They launched a counter attack and retook positions they had lost.	They launched a counter attack and retook positions they had lost.	207029865	1477524550938	1477524551091	n	78
403715	4358553	They launched a counter attack and retook positions they had lost.	They launched a counter attack and retook positions they had lost.	207029867	1477524551081	1477524551197	d	68
403715	4358553	They launched a counter attack and retook positions they had lost.	They launched a counter attack and retook positions they had lost.	207029870	1477524551175	1477524551301	 	32
403715	4358553	They launched a counter attack and retook positions they had lost.	They launched a counter attack and retook positions they had lost.	207029871	1477524551356	1477524551479	t	84
403715	4358553	They launched a counter attack and retook positions they had lost.	They launched a counter attack and retook positions they had lost.	207029877	1477524551663	1477524551825	BKSP	8
403715	4358553	They launched a counter attack and retook positions they had lost.	They launched a counter attack and retook positions they had lost.	207029879	1477524551783	1477524551890	r	82
403715	4358553	They launched a counter attack and retook positions they had lost.	They launched a counter attack and retook positions they had lost.	207029881	1477524551951	1477524552042	e	69
403715	4358553	They launched a counter attack and retook positions they had lost.	They launched a counter attack and retook positions they had lost.	207029883	1477524552132	1477524552232	t	84
403715	4358553	They launched a counter attack and retook positions they had lost.	They launched a counter attack and retook positions they had lost.	207029885	1477524552194	1477524552297	o	79
403715	4358553	They launched a counter attack and retook positions they had lost.	They launched a counter attack and retook positions they had lost.	207029888	1477524552352	1477524552450	o	79
403715	4358553	They launched a counter attack and retook positions they had lost.	They launched a counter attack and retook positions they had lost.	207029959	1477524552505	1477524552648	o	79
403715	4358553	They launched a counter attack and retook positions they had lost.	They launched a counter attack and retook positions they had lost.	207029961	1477524552576	1477524552771	k	75
403715	4358553	They launched a counter attack and retook positions they had lost.	They launched a counter attack and retook positions they had lost.	207029962	1477524552680	1477524552819	 	32
403715	4358553	They launched a counter attack and retook positions they had lost.	They launched a counter attack and retook positions they had lost.	207029964	1477524552986	1477524553144	p	80
403715	4358553	They launched a counter attack and retook positions they had lost.	They launched a counter attack and retook positions they had lost.	207029966	1477524553260	1477524553380	BKSP	8
403715	4358553	They launched a counter attack and retook positions they had lost.	They launched a counter attack and retook positions they had lost.	207029967	1477524553439	1477524553543	BKSP	8
403715	4358553	They launched a counter attack and retook positions they had lost.	They launched a counter attack and retook positions they had lost.	207029969	1477524553579	1477524553666	BKSP	8
403715	4358553	They launched a counter attack and retook positions they had lost.	They launched a counter attack and retook positions they had lost.	207029972	1477524553702	1477524553793	BKSP	8
403715	4358553	They launched a counter attack and retook positions they had lost.	They launched a counter attack and retook positions they had lost.	207029976	1477524554035	1477524554245	k	75
403715	4358553	They launched a counter attack and retook positions they had lost.	They launched a counter attack and retook positions they had lost.	207029993	1477524554184	1477524554335	 	32
403715	4358553	They launched a counter attack and retook positions they had lost.	They launched a counter attack and retook positions they had lost.	207029996	1477524554352	1477524554563	p	80
403715	4358553	They launched a counter attack and retook positions they had lost.	They launched a counter attack and retook positions they had lost.	207030000	1477524554466	1477524554671	o	79
403715	4358553	They launched a counter attack and retook positions they had lost.	They launched a counter attack and retook positions they had lost.	207030004	1477524554694	1477524554818	s	83
403715	4358553	They launched a counter attack and retook positions they had lost.	They launched a counter attack and retook positions they had lost.	207030007	1477524554807	1477524554933	i	73
403715	4358553	They launched a counter attack and retook positions they had lost.	They launched a counter attack and retook positions they had lost.	207030011	1477524554946	1477524555086	t	84
403715	4358553	They launched a counter attack and retook positions they had lost.	They launched a counter attack and retook positions they had lost.	207030034	1477524555027	1477524555160	i	73
403715	4358553	They launched a counter attack and retook positions they had lost.	They launched a counter attack and retook positions they had lost.	207030038	1477524555089	1477524555235	o	79
403715	4358553	They launched a counter attack and retook positions they had lost.	They launched a counter attack and retook positions they had lost.	207030042	1477524555290	1477524555433	n	78
403715	4358553	They launched a counter attack and retook positions they had lost.	They launched a counter attack and retook positions they had lost.	207030046	1477524555453	1477524555556	e	69
403715	4358553	They launched a counter attack and retook positions they had lost.	They launched a counter attack and retook positions they had lost.	207030051	1477524555713	1477524555849	BKSP	8
403715	4358553	They launched a counter attack and retook positions they had lost.	They launched a counter attack and retook positions they had lost.	207030057	1477524555811	1477524555904	s	83
403715	4358553	They launched a counter attack and retook positions they had lost.	They launched a counter attack and retook positions they had lost.	207030060	1477524555960	1477524556088	 	32
403715	4358553	They launched a counter attack and retook positions they had lost.	They launched a counter attack and retook positions they had lost.	207030067	1477524556044	1477524556166	t	84
403715	4358553	They launched a counter attack and retook positions they had lost.	They launched a counter attack and retook positions they had lost.	207030068	1477524556124	1477524556236	h	72
403715	4358553	They launched a counter attack and retook positions they had lost.	They launched a counter attack and retook positions they had lost.	207030069	1477524556225	1477524556345	e	69
403715	4358553	They launched a counter attack and retook positions they had lost.	They launched a counter attack and retook positions they had lost.	207030070	1477524556326	1477524556475	y	89
403715	4358553	They launched a counter attack and retook positions they had lost.	They launched a counter attack and retook positions they had lost.	207030072	1477524556423	1477524556569	 	32
403715	4358553	They launched a counter attack and retook positions they had lost.	They launched a counter attack and retook positions they had lost.	207030076	1477524556592	1477524556721	h	72
403715	4358553	They launched a counter attack and retook positions they had lost.	They launched a counter attack and retook positions they had lost.	207030087	1477524556650	1477524556760	a	65
403715	4358553	They launched a counter attack and retook positions they had lost.	They launched a counter attack and retook positions they had lost.	207030091	1477524556793	1477524556926	d	68
403715	4358553	They launched a counter attack and retook positions they had lost.	They launched a counter attack and retook positions they had lost.	207030093	1477524556874	1477524557017	 	32
403715	4358553	They launched a counter attack and retook positions they had lost.	They launched a counter attack and retook positions they had lost.	207030097	1477524556962	1477524557098	l	76
403715	4358553	They launched a counter attack and retook positions they had lost.	They launched a counter attack and retook positions they had lost.	207030099	1477524557140	1477524557247	o	79
403715	4358553	They launched a counter attack and retook positions they had lost.	They launched a counter attack and retook positions they had lost.	207030106	1477524557189	1477524557305	s	83
403715	4358553	They launched a counter attack and retook positions they had lost.	They launched a counter attack and retook positions they had lost.	207030108	1477524557395	1477524557508	t	84
403715	4358563	Call me if you have any questions.	Call me if you have any questions.	207030168	1477524559078	1477524559322	SHIFT	16
403715	4358563	Call me if you have any questions.	Call me if you have any questions.	207030172	1477524559260	1477524559370	C	67
403715	4358563	Call me if you have any questions.	Call me if you have any questions.	207030176	1477524559459	1477524559575	a	65
403715	4358563	Call me if you have any questions.	Call me if you have any questions.	207030182	1477524559559	1477524559666	l	76
403715	4358563	Call me if you have any questions.	Call me if you have any questions.	207030186	1477524559708	1477524559861	l	76
403715	4358563	Call me if you have any questions.	Call me if you have any questions.	207030197	1477524559790	1477524559945	 	32
403715	4358563	Call me if you have any questions.	Call me if you have any questions.	207030198	1477524559897	1477524560029	m	77
403715	4358563	Call me if you have any questions.	Call me if you have any questions.	207030199	1477524559975	1477524560107	e	69
403715	4358563	Call me if you have any questions.	Call me if you have any questions.	207030201	1477524560098	1477524560289	 	32
403715	4358563	Call me if you have any questions.	Call me if you have any questions.	207030203	1477524560244	1477524560389	i	73
403715	4358563	Call me if you have any questions.	Call me if you have any questions.	207030215	1477524560387	1477524560506	f	70
403715	4358563	Call me if you have any questions.	Call me if you have any questions.	207030217	1477524560458	1477524560620	 	32
403715	4358563	Call me if you have any questions.	Call me if you have any questions.	207030221	1477524560586	1477524560704	y	89
403715	4358563	Call me if you have any questions.	Call me if you have any questions.	207030224	1477524560672	1477524560886	o	79
403715	4358563	Call me if you have any questions.	Call me if you have any questions.	207030245	1477524560795	1477524560951	u	85
403715	4358563	Call me if you have any questions.	Call me if you have any questions.	207030247	1477524560880	1477524561058	 	32
403715	4358563	Call me if you have any questions.	Call me if you have any questions.	207030249	1477524561022	1477524561149	h	72
403715	4358563	Call me if you have any questions.	Call me if you have any questions.	207030251	1477524561084	1477524561175	a	65
403715	4358563	Call me if you have any questions.	Call me if you have any questions.	207030253	1477524561253	1477524561379	v	86
403715	4358563	Call me if you have any questions.	Call me if you have any questions.	207030255	1477524561441	1477524561545	e	69
403715	4358563	Call me if you have any questions.	Call me if you have any questions.	207030277	1477524561512	1477524561635	 	32
403715	4358563	Call me if you have any questions.	Call me if you have any questions.	207030279	1477524561658	1477524561749	a	65
403715	4358563	Call me if you have any questions.	Call me if you have any questions.	207030280	1477524561720	1477524561824	n	78
403715	4358563	Call me if you have any questions.	Call me if you have any questions.	207030281	1477524561937	1477524562103	y	89
403715	4358563	Call me if you have any questions.	Call me if you have any questions.	207030282	1477524562038	1477524562187	 	32
403715	4358563	Call me if you have any questions.	Call me if you have any questions.	207030283	1477524562362	1477524562501	q	81
403715	4358563	Call me if you have any questions.	Call me if you have any questions.	207030295	1477524562485	1477524562612	u	85
403715	4358563	Call me if you have any questions.	Call me if you have any questions.	207030296	1477524562635	1477524562738	e	69
403715	4358563	Call me if you have any questions.	Call me if you have any questions.	207030297	1477524562835	1477524562909	s	83
403715	4358563	Call me if you have any questions.	Call me if you have any questions.	207030299	1477524563046	1477524563114	t	84
403715	4358563	Call me if you have any questions.	Call me if you have any questions.	207030302	1477524563068	1477524563185	i	73
403715	4358563	Call me if you have any questions.	Call me if you have any questions.	207030326	1477524563114	1477524563253	o	79
403715	4358563	Call me if you have any questions.	Call me if you have any questions.	207030329	1477524563315	1477524563422	n	78
403715	4358563	Call me if you have any questions.	Call me if you have any questions.	207030334	1477524563569	1477524563647	s	83
403715	4358569	Suggest you get facts before judging anyone.	Suggest you get facts before judging anyone.	207030395	1477524565587	1477524565812	SHIFT	16
403715	4358569	Suggest you get facts before judging anyone.	Suggest you get facts before judging anyone.	207030398	1477524565746	1477524565857	S	83
403715	4358569	Suggest you get facts before judging anyone.	Suggest you get facts before judging anyone.	207030401	1477524565873	1477524566019	u	85
403715	4358569	Suggest you get facts before judging anyone.	Suggest you get facts before judging anyone.	207030404	1477524566032	1477524566133	g	71
403715	4358569	Suggest you get facts before judging anyone.	Suggest you get facts before judging anyone.	207030407	1477524566177	1477524566288	g	71
403715	4358569	Suggest you get facts before judging anyone.	Suggest you get facts before judging anyone.	207030409	1477524566318	1477524566422	e	69
403715	4358569	Suggest you get facts before judging anyone.	Suggest you get facts before judging anyone.	207030416	1477524566507	1477524566603	s	83
403715	4358569	Suggest you get facts before judging anyone.	Suggest you get facts before judging anyone.	207030418	1477524566688	1477524566810	t	84
403715	4358569	Suggest you get facts before judging anyone.	Suggest you get facts before judging anyone.	207030420	1477524566763	1477524566918	 	32
403715	4358569	Suggest you get facts before judging anyone.	Suggest you get facts before judging anyone.	207030421	1477524566867	1477524567008	y	89
403715	4358569	Suggest you get facts before judging anyone.	Suggest you get facts before judging anyone.	207030438	1477524566956	1477524567144	o	79
403715	4358569	Suggest you get facts before judging anyone.	Suggest you get facts before judging anyone.	207030442	1477524567076	1477524567232	u	85
403715	4358569	Suggest you get facts before judging anyone.	Suggest you get facts before judging anyone.	207030447	1477524567158	1477524567297	 	32
403715	4358569	Suggest you get facts before judging anyone.	Suggest you get facts before judging anyone.	207030451	1477524567264	1477524567390	g	71
403715	4358569	Suggest you get facts before judging anyone.	Suggest you get facts before judging anyone.	207030456	1477524567420	1477524567540	e	69
403715	4358569	Suggest you get facts before judging anyone.	Suggest you get facts before judging anyone.	207030461	1477524567567	1477524567715	t	84
403715	4358569	Suggest you get facts before judging anyone.	Suggest you get facts before judging anyone.	207030481	1477524567689	1477524567825	 	32
403715	4358569	Suggest you get facts before judging anyone.	Suggest you get facts before judging anyone.	207030482	1477524567848	1477524567949	f	70
403715	4358569	Suggest you get facts before judging anyone.	Suggest you get facts before judging anyone.	207030483	1477524568023	1477524568124	a	65
403715	4358569	Suggest you get facts before judging anyone.	Suggest you get facts before judging anyone.	207030484	1477524568179	1477524568282	c	67
403715	4358569	Suggest you get facts before judging anyone.	Suggest you get facts before judging anyone.	207030485	1477524568379	1477524568477	t	84
403715	4358569	Suggest you get facts before judging anyone.	Suggest you get facts before judging anyone.	207030486	1477524568576	1477524568689	s	83
403715	4358569	Suggest you get facts before judging anyone.	Suggest you get facts before judging anyone.	207030511	1477524568663	1477524568793	 	32
403715	4358569	Suggest you get facts before judging anyone.	Suggest you get facts before judging anyone.	207030513	1477524568780	1477524568913	b	66
403715	4358569	Suggest you get facts before judging anyone.	Suggest you get facts before judging anyone.	207030518	1477524568835	1477524568952	e	69
403715	4358569	Suggest you get facts before judging anyone.	Suggest you get facts before judging anyone.	207030521	1477524569024	1477524569153	f	70
403715	4358569	Suggest you get facts before judging anyone.	Suggest you get facts before judging anyone.	207030525	1477524569198	1477524569312	o	79
403715	4358569	Suggest you get facts before judging anyone.	Suggest you get facts before judging anyone.	207030541	1477524569270	1477524569377	r	82
403715	4358569	Suggest you get facts before judging anyone.	Suggest you get facts before judging anyone.	207030543	1477524569445	1477524569556	e	69
403715	4358569	Suggest you get facts before judging anyone.	Suggest you get facts before judging anyone.	207030544	1477524569542	1477524569678	 	32
403715	4358569	Suggest you get facts before judging anyone.	Suggest you get facts before judging anyone.	207030546	1477524569742	1477524569864	j	74
403715	4358569	Suggest you get facts before judging anyone.	Suggest you get facts before judging anyone.	207030547	1477524569942	1477524570071	u	85
403715	4358569	Suggest you get facts before judging anyone.	Suggest you get facts before judging anyone.	207030575	1477524570016	1477524570129	d	68
403715	4358569	Suggest you get facts before judging anyone.	Suggest you get facts before judging anyone.	207030577	1477524570331	1477524570448	g	71
403715	4358569	Suggest you get facts before judging anyone.	Suggest you get facts before judging anyone.	207030580	1477524570477	1477524570649	i	73
403715	4358569	Suggest you get facts before judging anyone.	Suggest you get facts before judging anyone.	207030583	1477524570571	1477524570714	n	78
403715	4358569	Suggest you get facts before judging anyone.	Suggest you get facts before judging anyone.	207030585	1477524570722	1477524570847	g	71
403715	4358569	Suggest you get facts before judging anyone.	Suggest you get facts before judging anyone.	207030587	1477524570909	1477524571065	 	32
403715	4358569	Suggest you get facts before judging anyone.	Suggest you get facts before judging anyone.	207030605	1477524571303	1477524571416	a	65
403715	4358569	Suggest you get facts before judging anyone.	Suggest you get facts before judging anyone.	207030608	1477524571397	1477524571523	n	78
403715	4358569	Suggest you get facts before judging anyone.	Suggest you get facts before judging anyone.	207030611	1477524571610	1477524571740	y	89
403715	4358569	Suggest you get facts before judging anyone.	Suggest you get facts before judging anyone.	207030614	1477524571782	1477524571974	o	79
403715	4358569	Suggest you get facts before judging anyone.	Suggest you get facts before judging anyone.	207030621	1477524571886	1477524572022	n	78
403715	4358569	Suggest you get facts before judging anyone.	Suggest you get facts before judging anyone.	207030622	1477524571954	1477524572090	e	69
403715	4358574	I will likely not be available.	I will likely not be available.	207030672	1477524574066	1477524574242	SHIFT	16
403715	4358574	I will likely not be available.	I will likely not be available.	207030674	1477524574163	1477524574326	I	73
403715	4358574	I will likely not be available.	I will likely not be available.	207030676	1477524574254	1477524574423	 	32
403715	4358574	I will likely not be available.	I will likely not be available.	207030677	1477524574352	1477524574494	w	87
403715	4358574	I will likely not be available.	I will likely not be available.	207030679	1477524574446	1477524574582	i	73
403715	4358574	I will likely not be available.	I will likely not be available.	207030701	1477524574524	1477524574666	l	76
403715	4358574	I will likely not be available.	I will likely not be available.	207030704	1477524574725	1477524574858	l	76
403715	4358574	I will likely not be available.	I will likely not be available.	207030705	1477524574790	1477524574981	 	32
403715	4358574	I will likely not be available.	I will likely not be available.	207030707	1477524574929	1477524575166	l	76
403715	4358574	I will likely not be available.	I will likely not be available.	207030708	1477524575066	1477524575227	i	73
403715	4358574	I will likely not be available.	I will likely not be available.	207030709	1477524575234	1477524575360	e	69
403715	4358574	I will likely not be available.	I will likely not be available.	207030762	1477524575292	1477524575409	k	75
403715	4358574	I will likely not be available.	I will likely not be available.	207030764	1477524575481	1477524575636	l	76
403715	4358574	I will likely not be available.	I will likely not be available.	207030768	1477524575738	1477524575861	BKSP	8
403715	4358574	I will likely not be available.	I will likely not be available.	207030770	1477524575913	1477524576042	BKSP	8
403715	4358574	I will likely not be available.	I will likely not be available.	207030772	1477524576098	1477524576205	BKSP	8
403715	4358574	I will likely not be available.	I will likely not be available.	207030773	1477524576312	1477524576461	k	75
403715	4358574	I will likely not be available.	I will likely not be available.	207030774	1477524576458	1477524576584	e	69
403715	4358574	I will likely not be available.	I will likely not be available.	207030775	1477524576558	1477524576714	l	76
403715	4358574	I will likely not be available.	I will likely not be available.	207030778	1477524576782	1477524576928	y	89
403715	4358574	I will likely not be available.	I will likely not be available.	207030776	1477524576873	1477524577019	 	32
403715	4358574	I will likely not be available.	I will likely not be available.	207030777	1477524577042	1477524577191	n	78
403715	4358574	I will likely not be available.	I will likely not be available.	207030779	1477524577127	1477524577281	o	79
403715	4358574	I will likely not be available.	I will likely not be available.	207030780	1477524577236	1477524577369	t	84
403715	4358574	I will likely not be available.	I will likely not be available.	207030781	1477524577330	1477524577476	 	32
403715	4358574	I will likely not be available.	I will likely not be available.	207030807	1477524577460	1477524577603	b	66
403715	4358574	I will likely not be available.	I will likely not be available.	207030810	1477524577567	1477524577681	e	69
403715	4358574	I will likely not be available.	I will likely not be available.	207030813	1477524577655	1477524577801	 	32
403715	4358574	I will likely not be available.	I will likely not be available.	207030817	1477524577791	1477524577895	a	65
403715	4358574	I will likely not be available.	I will likely not be available.	207030820	1477524577984	1477524578088	v	86
403715	4358574	I will likely not be available.	I will likely not be available.	207030824	1477524578185	1477524578302	a	65
403715	4358574	I will likely not be available.	I will likely not be available.	207030827	1477524578237	1477524578392	i	73
403715	4358574	I will likely not be available.	I will likely not be available.	207030828	1477524578327	1477524578486	l	76
403715	4358574	I will likely not be available.	I will likely not be available.	207030829	1477524578506	1477524578600	a	65
403715	4358574	I will likely not be available.	I will likely not be available.	207030830	1477524578693	1477524578826	b	66
403715	4358574	I will likely not be available.	I will likely not be available.	207030831	1477524578778	1477524578875	l	76
403715	4358574	I will likely not be available.	I will likely not be available.	207030832	1477524578907	1477524579014	e	69
403715	4358580	We are somewhat emasculated bystanders.	We are somewhat emasculated bystanders.	207030895	1477524580671	1477524580903	SHIFT	16
403715	4358580	We are somewhat emasculated bystanders.	We are somewhat emasculated bystanders.	207030896	1477524580799	1477524580925	W	87
403715	4358580	We are somewhat emasculated bystanders.	We are somewhat emasculated bystanders.	207030897	1477524580999	1477524581116	e	69
403715	4358580	We are somewhat emasculated bystanders.	We are somewhat emasculated bystanders.	207030898	1477524581091	1477524581236	 	32
403715	4358580	We are somewhat emasculated bystanders.	We are somewhat emasculated bystanders.	207030899	1477524581204	1477524581307	a	65
403715	4358580	We are somewhat emasculated bystanders.	We are somewhat emasculated bystanders.	207030900	1477524581389	1477524581496	r	82
403715	4358580	We are somewhat emasculated bystanders.	We are somewhat emasculated bystanders.	207030922	1477524581557	1477524581655	e	69
403715	4358580	We are somewhat emasculated bystanders.	We are somewhat emasculated bystanders.	207030924	1477524581656	1477524581781	 	32
403715	4358580	We are somewhat emasculated bystanders.	We are somewhat emasculated bystanders.	207030925	1477524581759	1477524581891	s	83
403715	4358580	We are somewhat emasculated bystanders.	We are somewhat emasculated bystanders.	207030926	1477524581843	1477524582005	o	79
403715	4358580	We are somewhat emasculated bystanders.	We are somewhat emasculated bystanders.	207030947	1477524581937	1477524582087	m	77
403715	4358580	We are somewhat emasculated bystanders.	We are somewhat emasculated bystanders.	207030949	1477524582011	1477524582151	e	69
403715	4358580	We are somewhat emasculated bystanders.	We are somewhat emasculated bystanders.	207030951	1477524582286	1477524582413	w	87
403715	4358580	We are somewhat emasculated bystanders.	We are somewhat emasculated bystanders.	207030953	1477524582387	1477524582517	h	72
403715	4358580	We are somewhat emasculated bystanders.	We are somewhat emasculated bystanders.	207030954	1477524582607	1477524582723	a	65
403715	4358580	We are somewhat emasculated bystanders.	We are somewhat emasculated bystanders.	207030955	1477524582828	1477524582957	t	84
403715	4358580	We are somewhat emasculated bystanders.	We are somewhat emasculated bystanders.	207030987	1477524582931	1477524583067	 	32
403715	4358580	We are somewhat emasculated bystanders.	We are somewhat emasculated bystanders.	207030991	1477524583448	1477524583571	e	69
403715	4358580	We are somewhat emasculated bystanders.	We are somewhat emasculated bystanders.	207030997	1477524583591	1477524583711	m	77
403715	4358580	We are somewhat emasculated bystanders.	We are somewhat emasculated bystanders.	207031003	1477524583666	1477524583782	a	65
403715	4358580	We are somewhat emasculated bystanders.	We are somewhat emasculated bystanders.	207031007	1477524583854	1477524583938	s	83
403715	4358580	We are somewhat emasculated bystanders.	We are somewhat emasculated bystanders.	207031010	1477524584067	1477524584139	c	67
403715	4358580	We are somewhat emasculated bystanders.	We are somewhat emasculated bystanders.	207031035	1477524584165	1477524584311	u	85
403715	4358580	We are somewhat emasculated bystanders.	We are somewhat emasculated bystanders.	207031038	1477524584265	1477524584432	l	76
403715	4358580	We are somewhat emasculated bystanders.	We are somewhat emasculated bystanders.	207031043	1477524584421	1477524584525	a	65
403715	4358580	We are somewhat emasculated bystanders.	We are somewhat emasculated bystanders.	207031049	1477524584610	1477524584720	t	84
403715	4358580	We are somewhat emasculated bystanders.	We are somewhat emasculated bystanders.	207031054	1477524584760	1477524584857	e	69
403715	4358580	We are somewhat emasculated bystanders.	We are somewhat emasculated bystanders.	207031080	1477524584938	1477524585039	d	68
403715	4358580	We are somewhat emasculated bystanders.	We are somewhat emasculated bystanders.	207031083	1477524585006	1477524585146	 	32
403715	4358580	We are somewhat emasculated bystanders.	We are somewhat emasculated bystanders.	207031087	1477524585178	1477524585291	b	66
403715	4358580	We are somewhat emasculated bystanders.	We are somewhat emasculated bystanders.	207031089	1477524585272	1477524585418	y	89
403715	4358580	We are somewhat emasculated bystanders.	We are somewhat emasculated bystanders.	207031090	1477524585473	1477524585558	s	83
403715	4358580	We are somewhat emasculated bystanders.	We are somewhat emasculated bystanders.	207031107	1477524585685	1477524585792	t	84
403715	4358580	We are somewhat emasculated bystanders.	We are somewhat emasculated bystanders.	207031110	1477524585867	1477524585970	a	65
403715	4358580	We are somewhat emasculated bystanders.	We are somewhat emasculated bystanders.	207031114	1477524585938	1477524586048	n	78
403715	4358580	We are somewhat emasculated bystanders.	We are somewhat emasculated bystanders.	207031119	1477524586149	1477524586260	d	68
403715	4358580	We are somewhat emasculated bystanders.	We are somewhat emasculated bystanders.	207031124	1477524586328	1477524586425	e	69
403715	4358580	We are somewhat emasculated bystanders.	We are somewhat emasculated bystanders.	207031132	1477524586484	1477524586587	r	82
403715	4358580	We are somewhat emasculated bystanders.	We are somewhat emasculated bystanders.	207031135	1477524586665	1477524586759	s	83
403715	4358587	Would you mind taking the lead on this?	Would you mind taking the lead on this?	207031202	1477524588450	1477524588639	SHIFT	16
403715	4358587	Would you mind taking the lead on this?	Would you mind taking the lead on this?	207031205	1477524588564	1477524588693	W	87
403715	4358587	Would you mind taking the lead on this?	Would you mind taking the lead on this?	207031209	1477524588681	1477524588826	o	79
403715	4358587	Would you mind taking the lead on this?	Would you mind taking the lead on this?	207031214	1477524588758	1477524588885	u	85
403715	4358587	Would you mind taking the lead on this?	Would you mind taking the lead on this?	207031215	1477524588885	1477524589028	l	76
403715	4358587	Would you mind taking the lead on this?	Would you mind taking the lead on this?	207031224	1477524588937	1477524589074	d	68
403715	4358587	Would you mind taking the lead on this?	Would you mind taking the lead on this?	207031227	1477524589063	1477524589217	 	32
403715	4358587	Would you mind taking the lead on this?	Would you mind taking the lead on this?	207031231	1477524589210	1477524589335	y	89
403715	4358587	Would you mind taking the lead on this?	Would you mind taking the lead on this?	207031234	1477524589293	1477524589492	o	79
403715	4358587	Would you mind taking the lead on this?	Would you mind taking the lead on this?	207031237	1477524589414	1477524589540	u	85
403715	4358587	Would you mind taking the lead on this?	Would you mind taking the lead on this?	207031273	1477524589494	1477524589615	 	32
403715	4358587	Would you mind taking the lead on this?	Would you mind taking the lead on this?	207031276	1477524589664	1477524589796	m	77
403715	4358587	Would you mind taking the lead on this?	Would you mind taking the lead on this?	207031279	1477524589767	1477524589839	a	65
403715	4358587	Would you mind taking the lead on this?	Would you mind taking the lead on this?	207031282	1477524589829	1477524589988	i	73
403715	4358587	Would you mind taking the lead on this?	Would you mind taking the lead on this?	207031284	1477524589907	1477524590056	n	78
403715	4358587	Would you mind taking the lead on this?	Would you mind taking the lead on this?	207031285	1477524590150	1477524590267	BKSP	8
403715	4358587	Would you mind taking the lead on this?	Would you mind taking the lead on this?	207031287	1477524590319	1477524590426	BKSP	8
403715	4358587	Would you mind taking the lead on this?	Would you mind taking the lead on this?	207031289	1477524590465	1477524590510	BKSP	8
403715	4358587	Would you mind taking the lead on this?	Would you mind taking the lead on this?	207031292	1477524590666	1477524590857	i	73
403715	4358587	Would you mind taking the lead on this?	Would you mind taking the lead on this?	207031296	1477524590779	1477524590942	n	78
403715	4358587	Would you mind taking the lead on this?	Would you mind taking the lead on this?	207031301	1477524590881	1477524591000	d	68
403715	4358587	Would you mind taking the lead on this?	Would you mind taking the lead on this?	207031306	1477524591003	1477524591146	 	32
403715	4358587	Would you mind taking the lead on this?	Would you mind taking the lead on this?	207031312	1477524591315	1477524591432	t	84
403715	4358587	Would you mind taking the lead on this?	Would you mind taking the lead on this?	207031319	1477524591510	1477524591623	a	65
403715	4358587	Would you mind taking the lead on this?	Would you mind taking the lead on this?	207031318	1477524591574	1477524591705	k	75
403715	4358587	Would you mind taking the lead on this?	Would you mind taking the lead on this?	207031323	1477524591718	1477524591938	i	73
403715	4358587	Would you mind taking the lead on this?	Would you mind taking the lead on this?	207031329	1477524591809	1477524592003	n	78
403715	4358587	Would you mind taking the lead on this?	Would you mind taking the lead on this?	207031332	1477524591932	1477524592029	g	71
403715	4358587	Would you mind taking the lead on this?	Would you mind taking the lead on this?	207031336	1477524592091	1477524592226	 	32
403715	4358587	Would you mind taking the lead on this?	Would you mind taking the lead on this?	207031359	1477524592172	1477524592308	t	84
403715	4358587	Would you mind taking the lead on this?	Would you mind taking the lead on this?	207031363	1477524592272	1477524592398	h	72
403715	4358587	Would you mind taking the lead on this?	Would you mind taking the lead on this?	207031366	1477524592376	1477524592486	e	69
403715	4358587	Would you mind taking the lead on this?	Would you mind taking the lead on this?	207031367	1477524592464	1477524592590	 	32
403715	4358587	Would you mind taking the lead on this?	Would you mind taking the lead on this?	207031368	1477524592642	1477524592785	l	76
403715	4358587	Would you mind taking the lead on this?	Would you mind taking the lead on this?	207031373	1477524592736	1477524592840	e	69
403715	4358587	Would you mind taking the lead on this?	Would you mind taking the lead on this?	207031376	1477524592892	1477524592980	a	65
403715	4358587	Would you mind taking the lead on this?	Would you mind taking the lead on this?	207031380	1477524593009	1477524593122	d	68
403715	4358587	Would you mind taking the lead on this?	Would you mind taking the lead on this?	207031385	1477524593074	1477524593249	 	32
403715	4358587	Would you mind taking the lead on this?	Would you mind taking the lead on this?	207031390	1477524593152	1477524593362	o	79
403715	4358587	Would you mind taking the lead on this?	Would you mind taking the lead on this?	207031399	1477524593262	1477524593417	n	78
403715	4358587	Would you mind taking the lead on this?	Would you mind taking the lead on this?	207031403	1477524593365	1477524593512	 	32
403715	4358587	Would you mind taking the lead on this?	Would you mind taking the lead on this?	207031408	1477524593427	1477524593537	t	84
403715	4358587	Would you mind taking the lead on this?	Would you mind taking the lead on this?	207031412	1477524593557	1477524593687	h	72
403715	4358587	Would you mind taking the lead on this?	Would you mind taking the lead on this?	207031414	1477524593609	1477524593735	i	73
403715	4358587	Would you mind taking the lead on this?	Would you mind taking the lead on this?	207031433	1477524593706	1477524593818	s	83
403715	4358587	Would you mind taking the lead on this?	Would you mind taking the lead on this?	207031435	1477524593898	1477524594103	SHIFT	16
403715	4358587	Would you mind taking the lead on this?	Would you mind taking the lead on this?	207031436	1477524593963	1477524594121	?	191
403715	4358593	I short paid the August invoice.	I short paid the August invoice	207031498	1477524595957	1477524596214	SHIFT	16
403715	4358593	I short paid the August invoice.	I short paid the August invoice	207031500	1477524596135	1477524596311	I	73
403715	4358593	I short paid the August invoice.	I short paid the August invoice	207031503	1477524596230	1477524596369	 	32
403715	4358593	I short paid the August invoice.	I short paid the August invoice	207031506	1477524596304	1477524596441	s	83
403715	4358593	I short paid the August invoice.	I short paid the August invoice	207031509	1477524596408	1477524596580	h	72
403715	4358593	I short paid the August invoice.	I short paid the August invoice	207031539	1477524596492	1477524596707	o	79
403715	4358593	I short paid the August invoice.	I short paid the August invoice	207031544	1477524596940	1477524597047	r	82
403715	4358593	I short paid the August invoice.	I short paid the August invoice	207031548	1477524597155	1477524597276	t	84
403715	4358593	I short paid the August invoice.	I short paid the August invoice	207031550	1477524597252	1477524597415	 	32
403715	4358593	I short paid the August invoice.	I short paid the August invoice	207031551	1477524597422	1477524597558	p	80
403715	4358593	I short paid the August invoice.	I short paid the August invoice	207031555	1477524597526	1477524597636	a	65
403715	4358593	I short paid the August invoice.	I short paid the August invoice	207031559	1477524597617	1477524597756	i	73
403715	4358593	I short paid the August invoice.	I short paid the August invoice	207031561	1477524597714	1477524597835	d	68
403715	4358593	I short paid the August invoice.	I short paid the August invoice	207031565	1477524597828	1477524597955	 	32
403715	4358593	I short paid the August invoice.	I short paid the August invoice	207031568	1477524597941	1477524598052	t	84
403715	4358593	I short paid the August invoice.	I short paid the August invoice	207031596	1477524598013	1477524598138	h	72
403715	4358593	I short paid the August invoice.	I short paid the August invoice	207031597	1477524598128	1477524598235	e	69
403715	4358593	I short paid the August invoice.	I short paid the August invoice	207031599	1477524598227	1477524598360	 	32
403715	4358593	I short paid the August invoice.	I short paid the August invoice	207031603	1477524598344	1477524598552	SHIFT	16
403715	4358593	I short paid the August invoice.	I short paid the August invoice	207031607	1477524598470	1477524598568	A	65
403715	4358593	I short paid the August invoice.	I short paid the August invoice	207031612	1477524598597	1477524598720	u	85
403715	4358593	I short paid the August invoice.	I short paid the August invoice	207031615	1477524598759	1477524598885	g	71
403715	4358593	I short paid the August invoice.	I short paid the August invoice	207031634	1477524598909	1477524599040	u	85
403715	4358593	I short paid the August invoice.	I short paid the August invoice	207031638	1477524599028	1477524599119	s	83
403715	4358593	I short paid the August invoice.	I short paid the August invoice	207031640	1477524599239	1477524599346	t	84
403715	4358593	I short paid the August invoice.	I short paid the August invoice	207031643	1477524599327	1477524599473	 	32
403715	4358593	I short paid the August invoice.	I short paid the August invoice	207031689	1477524599434	1477524599615	i	73
403715	4358593	I short paid the August invoice.	I short paid the August invoice	207031695	1477524599544	1477524599693	n	78
403715	4358593	I short paid the August invoice.	I short paid the August invoice	207031700	1477524599716	1477524599758	v	86
403715	4358593	I short paid the August invoice.	I short paid the August invoice	207031706	1477524599854	1477524599896	v	86
403715	4358593	I short paid the August invoice.	I short paid the August invoice	207031710	1477524600018	1477524600135	o	79
403715	4358593	I short paid the August invoice.	I short paid the August invoice	207031711	1477524600280	1477524600394	BKSP	8
403715	4358593	I short paid the August invoice.	I short paid the August invoice	207031712	1477524600446	1477524600576	BKSP	8
403715	4358593	I short paid the August invoice.	I short paid the August invoice	207031713	1477524600589	1477524600796	o	79
403715	4358593	I short paid the August invoice.	I short paid the August invoice	207031714	1477524600709	1477524600861	i	73
403715	4358593	I short paid the August invoice.	I short paid the August invoice	207031715	1477524600800	1477524600916	c	67
403715	4358593	I short paid the August invoice.	I short paid the August invoice	207031716	1477524600966	1477524601101	e	69
403715	4358596	She is taking over Global Finance Legal.	She is taking over Global Finance Legal.	207031804	1477524603074	1477524603347	SHIFT	16
403715	4358596	She is taking over Global Finance Legal.	She is taking over Global Finance Legal.	207031805	1477524603291	1477524603392	S	83
403715	4358596	She is taking over Global Finance Legal.	She is taking over Global Finance Legal.	207031806	1477524603366	1477524603479	h	72
403715	4358596	She is taking over Global Finance Legal.	She is taking over Global Finance Legal.	207031807	1477524603484	1477524603599	e	69
403715	4358596	She is taking over Global Finance Legal.	She is taking over Global Finance Legal.	207031808	1477524603554	1477524603721	 	32
403715	4358596	She is taking over Global Finance Legal.	She is taking over Global Finance Legal.	207031828	1477524603658	1477524603810	i	73
403715	4358596	She is taking over Global Finance Legal.	She is taking over Global Finance Legal.	207031831	1477524603713	1477524603814	s	83
403715	4358596	She is taking over Global Finance Legal.	She is taking over Global Finance Legal.	207031834	1477524603915	1477524604055	 	32
403715	4358596	She is taking over Global Finance Legal.	She is taking over Global Finance Legal.	207031839	1477524604042	1477524604148	t	84
403715	4358596	She is taking over Global Finance Legal.	She is taking over Global Finance Legal.	207031844	1477524604231	1477524604339	a	65
403715	4358596	She is taking over Global Finance Legal.	She is taking over Global Finance Legal.	207031848	1477524604270	1477524604394	k	75
403715	4358596	She is taking over Global Finance Legal.	She is taking over Global Finance Legal.	207031851	1477524604397	1477524604563	i	73
403715	4358596	She is taking over Global Finance Legal.	She is taking over Global Finance Legal.	207031858	1477524604498	1477524604657	n	78
403715	4358596	She is taking over Global Finance Legal.	She is taking over Global Finance Legal.	207031863	1477524604595	1477524604713	g	71
403715	4358596	She is taking over Global Finance Legal.	She is taking over Global Finance Legal.	207031869	1477524604702	1477524604846	 	32
403715	4358596	She is taking over Global Finance Legal.	She is taking over Global Finance Legal.	207031874	1477524604835	1477524604978	o	79
403715	4358596	She is taking over Global Finance Legal.	She is taking over Global Finance Legal.	207031877	1477524605049	1477524605159	v	86
403715	4358596	She is taking over Global Finance Legal.	She is taking over Global Finance Legal.	207031880	1477524605247	1477524605380	e	69
403715	4358596	She is taking over Global Finance Legal.	She is taking over Global Finance Legal.	207031899	1477524605319	1477524605448	r	82
403715	4358596	She is taking over Global Finance Legal.	She is taking over Global Finance Legal.	207031901	1477524605382	1477524605516	 	32
403715	4358596	She is taking over Global Finance Legal.	She is taking over Global Finance Legal.	207031902	1477524605546	1477524606009	SHIFT	16
403715	4358596	She is taking over Global Finance Legal.	She is taking over Global Finance Legal.	207031903	1477524605887	1477524606028	B	66
403715	4358596	She is taking over Global Finance Legal.	She is taking over Global Finance Legal.	207031904	1477524606072	1477524606175	l	76
403715	4358596	She is taking over Global Finance Legal.	She is taking over Global Finance Legal.	207031905	1477524606444	1477524606567	BKSP	8
403715	4358596	She is taking over Global Finance Legal.	She is taking over Global Finance Legal.	207031906	1477524606613	1477524606717	BKSP	8
403715	4358596	She is taking over Global Finance Legal.	She is taking over Global Finance Legal.	207031907	1477524606828	1477524607066	SHIFT	16
403715	4358596	She is taking over Global Finance Legal.	She is taking over Global Finance Legal.	207031908	1477524606994	1477524607115	G	71
403715	4358596	She is taking over Global Finance Legal.	She is taking over Global Finance Legal.	207031914	1477524607110	1477524607215	l	76
403715	4358596	She is taking over Global Finance Legal.	She is taking over Global Finance Legal.	207031917	1477524607265	1477524607372	o	79
403715	4358596	She is taking over Global Finance Legal.	She is taking over Global Finance Legal.	207031920	1477524607288	1477524607382	b	66
403715	4358596	She is taking over Global Finance Legal.	She is taking over Global Finance Legal.	207031923	1477524607466	1477524607576	a	65
403715	4358596	She is taking over Global Finance Legal.	She is taking over Global Finance Legal.	207031925	1477524607534	1477524607716	l	76
403715	4358596	She is taking over Global Finance Legal.	She is taking over Global Finance Legal.	207031973	1477524607635	1477524607790	 	32
403715	4358596	She is taking over Global Finance Legal.	She is taking over Global Finance Legal.	207031974	1477524607716	1477524607930	SHIFT	16
403715	4358596	She is taking over Global Finance Legal.	She is taking over Global Finance Legal.	207031977	1477524607845	1477524607939	G	71
403715	4358596	She is taking over Global Finance Legal.	She is taking over Global Finance Legal.	207031981	1477524608190	1477524608336	BKSP	8
403715	4358596	She is taking over Global Finance Legal.	She is taking over Global Finance Legal.	207031983	1477524608313	1477524608501	SHIFT	16
403715	4358596	She is taking over Global Finance Legal.	She is taking over Global Finance Legal.	207031985	1477524608395	1477524608527	F	70
403715	4358596	She is taking over Global Finance Legal.	She is taking over Global Finance Legal.	207031987	1477524608531	1477524608680	i	73
403715	4358596	She is taking over Global Finance Legal.	She is taking over Global Finance Legal.	207031989	1477524608615	1477524608745	n	78
403715	4358596	She is taking over Global Finance Legal.	She is taking over Global Finance Legal.	207031990	1477524608813	1477524608930	c	67
403715	4358596	She is taking over Global Finance Legal.	She is taking over Global Finance Legal.	207031991	1477524609105	1477524609249	BKSP	8
403715	4358596	She is taking over Global Finance Legal.	She is taking over Global Finance Legal.	207031992	1477524609246	1477524609372	a	65
403715	4358596	She is taking over Global Finance Legal.	She is taking over Global Finance Legal.	207031993	1477524609346	1477524609482	n	78
403715	4358596	She is taking over Global Finance Legal.	She is taking over Global Finance Legal.	207031994	1477524609495	1477524609576	c	67
403715	4358596	She is taking over Global Finance Legal.	She is taking over Global Finance Legal.	207031996	1477524609777	1477524609888	e	69
403715	4358596	She is taking over Global Finance Legal.	She is taking over Global Finance Legal.	207032019	1477524609881	1477524610023	 	32
403715	4358596	She is taking over Global Finance Legal.	She is taking over Global Finance Legal.	207032021	1477524610029	1477524610383	SHIFT	16
403715	4358596	She is taking over Global Finance Legal.	She is taking over Global Finance Legal.	207032022	1477524610289	1477524610406	L	76
403715	4358596	She is taking over Global Finance Legal.	She is taking over Global Finance Legal.	207032024	1477524610483	1477524610594	e	69
403715	4358596	She is taking over Global Finance Legal.	She is taking over Global Finance Legal.	207032025	1477524610708	1477524610799	g	71
403715	4358596	She is taking over Global Finance Legal.	She is taking over Global Finance Legal.	207032028	1477524610894	1477524611005	a	65
403715	4358596	She is taking over Global Finance Legal.	She is taking over Global Finance Legal.	207032033	1477524610976	1477524611092	l	76
403715	4358606	Ava, please put me on the list.	Ava, please put me on the list.	207032100	1477524612739	1477524612967	SHIFT	16
403715	4358606	Ava, please put me on the list.	Ava, please put me on the list.	207032102	1477524612901	1477524613005	A	65
403715	4358606	Ava, please put me on the list.	Ava, please put me on the list.	207032103	1477524613113	1477524613227	v	86
403715	4358606	Ava, please put me on the list.	Ava, please put me on the list.	207032104	1477524613329	1477524613439	a	65
403715	4358606	Ava, please put me on the list.	Ava, please put me on the list.	207032105	1477524613394	1477524613576	,	188
403715	4358606	Ava, please put me on the list.	Ava, please put me on the list.	207032126	1477524613488	1477524613660	 	32
403715	4358606	Ava, please put me on the list.	Ava, please put me on the list.	207032130	1477524613677	1477524613864	p	80
403715	4358606	Ava, please put me on the list.	Ava, please put me on the list.	207032133	1477524613777	1477524613948	l	76
403715	4358606	Ava, please put me on the list.	Ava, please put me on the list.	207032135	1477524613881	1477524613978	e	69
403715	4358606	Ava, please put me on the list.	Ava, please put me on the list.	207032137	1477524614039	1477524614156	a	65
403715	4358606	Ava, please put me on the list.	Ava, please put me on the list.	207032145	1477524614108	1477524614224	s	83
403715	4358606	Ava, please put me on the list.	Ava, please put me on the list.	207032146	1477524614328	1477524614425	e	69
403715	4358606	Ava, please put me on the list.	Ava, please put me on the list.	207032148	1477524614403	1477524614568	 	32
403715	4358606	Ava, please put me on the list.	Ava, please put me on the list.	207032150	1477524614490	1477524614688	p	80
403715	4358606	Ava, please put me on the list.	Ava, please put me on the list.	207032152	1477524614610	1477524614756	u	85
403715	4358606	Ava, please put me on the list.	Ava, please put me on the list.	207032183	1477524614707	1477524614843	t	84
403715	4358606	Ava, please put me on the list.	Ava, please put me on the list.	207032188	1477524614824	1477524614983	 	32
403715	4358606	Ava, please put me on the list.	Ava, please put me on the list.	207032191	1477524615061	1477524615203	m	77
403715	4358606	Ava, please put me on the list.	Ava, please put me on the list.	207032193	1477524615162	1477524615298	e	69
403715	4358606	Ava, please put me on the list.	Ava, please put me on the list.	207032195	1477524615262	1477524615451	 	32
403715	4358606	Ava, please put me on the list.	Ava, please put me on the list.	207032197	1477524615383	1477524615564	o	79
403715	4358606	Ava, please put me on the list.	Ava, please put me on the list.	207032198	1477524615507	1477524615661	n	78
403715	4358606	Ava, please put me on the list.	Ava, please put me on the list.	207032199	1477524615609	1477524615739	 	32
403715	4358606	Ava, please put me on the list.	Ava, please put me on the list.	207032200	1477524615664	1477524615814	t	84
403715	4358606	Ava, please put me on the list.	Ava, please put me on the list.	207032202	1477524615817	1477524615960	h	72
403715	4358606	Ava, please put me on the list.	Ava, please put me on the list.	207032222	1477524615914	1477524616041	e	69
403715	4358606	Ava, please put me on the list.	Ava, please put me on the list.	207032225	1477524615995	1477524616170	 	32
403715	4358606	Ava, please put me on the list.	Ava, please put me on the list.	207032228	1477524616176	1477524616371	l	76
403715	4358606	Ava, please put me on the list.	Ava, please put me on the list.	207032231	1477524616297	1477524616433	i	73
403715	4358606	Ava, please put me on the list.	Ava, please put me on the list.	207032230	1477524616339	1477524616420	s	83
403715	4358606	Ava, please put me on the list.	Ava, please put me on the list.	207032232	1477524616540	1477524616660	t	84
403715	4358613	Please look over and let me know.	Please look over and let me know.	207032301	1477524618289	1477524618445	SHIFT	16
403715	4358613	Please look over and let me know.	Please look over and let me know.	207032302	1477524618351	1477524618526	P	80
403715	4358613	Please look over and let me know.	Please look over and let me know.	207032304	1477524618446	1477524618597	l	76
403715	4358613	Please look over and let me know.	Please look over and let me know.	207032305	1477524618552	1477524618652	e	69
403715	4358613	Please look over and let me know.	Please look over and let me know.	207032306	1477524618711	1477524618837	a	65
403715	4358613	Please look over and let me know.	Please look over and let me know.	207032330	1477524618782	1477524618903	s	83
403715	4358613	Please look over and let me know.	Please look over and let me know.	207032332	1477524618984	1477524619094	e	69
403715	4358613	Please look over and let me know.	Please look over and let me know.	207032334	1477524619042	1477524619191	 	32
403715	4358613	Please look over and let me know.	Please look over and let me know.	207032336	1477524619116	1477524619243	l	76
403715	4358613	Please look over and let me know.	Please look over and let me know.	207032338	1477524619326	1477524619433	o	79
403715	4358613	Please look over and let me know.	Please look over and let me know.	207032341	1477524619481	1477524619640	o	79
403715	4358613	Please look over and let me know.	Please look over and let me know.	207032355	1477524619562	1477524619763	k	75
403715	4358613	Please look over and let me know.	Please look over and let me know.	207032357	1477524619673	1477524619838	 	32
403715	4358613	Please look over and let me know.	Please look over and let me know.	207032359	1477524619796	1477524619958	o	79
403715	4358613	Please look over and let me know.	Please look over and let me know.	207032361	1477524619929	1477524620030	v	86
403715	4358613	Please look over and let me know.	Please look over and let me know.	207032364	1477524620087	1477524620247	e	69
403715	4358613	Please look over and let me know.	Please look over and let me know.	207032376	1477524620172	1477524620309	r	82
403715	4358613	Please look over and let me know.	Please look over and let me know.	207032379	1477524620250	1477524620374	 	32
403715	4358613	Please look over and let me know.	Please look over and let me know.	207032380	1477524620383	1477524620494	a	65
403715	4358613	Please look over and let me know.	Please look over and let me know.	207032383	1477524620432	1477524620552	n	78
403715	4358613	Please look over and let me know.	Please look over and let me know.	207032387	1477524620598	1477524620718	d	68
403715	4358613	Please look over and let me know.	Please look over and let me know.	207032403	1477524620711	1477524620859	 	32
403715	4358613	Please look over and let me know.	Please look over and let me know.	207032405	1477524620844	1477524620999	l	76
403715	4358613	Please look over and let me know.	Please look over and let me know.	207032408	1477524620951	1477524621045	e	69
403715	4358613	Please look over and let me know.	Please look over and let me know.	207032410	1477524621135	1477524621234	t	84
403715	4358613	Please look over and let me know.	Please look over and let me know.	207032413	1477524621260	1477524621391	 	32
403715	4358613	Please look over and let me know.	Please look over and let me know.	207032430	1477524621387	1477524621523	m	77
403715	4358613	Please look over and let me know.	Please look over and let me know.	207032435	1477524621474	1477524621607	e	69
403715	4358613	Please look over and let me know.	Please look over and let me know.	207032440	1477524621584	1477524621740	 	32
403715	4358613	Please look over and let me know.	Please look over and let me know.	207032443	1477524621704	1477524621847	k	75
403715	4358613	Please look over and let me know.	Please look over and let me know.	207032445	1477524621902	1477524622071	n	78
403715	4358613	Please look over and let me know.	Please look over and let me know.	207032446	1477524621990	1477524622127	o	79
403715	4358613	Please look over and let me know.	Please look over and let me know.	207032448	1477524622080	1477524622213	w	87
