PARTICIPANT_ID	TEST_SECTION_ID	SENTENCE	USER_INPUT	KEYSTROKE_ID	PRESS_TIME	RELEASE_TIME	LETTER	KEYCODE
404889	4372435	This is all so unreal.	This is all so unreal.	207686943	1477539935728	1477539938083	CAPS_LOCK	20
404889	4372435	This is all so unreal.	This is all so unreal.	207686930	1477539935958	1477539935980	G	71
404889	4372435	This is all so unreal.	This is all so unreal.	207686933	1477539936458	1477539936522	BKSP	8
404889	4372435	This is all so unreal.	This is all so unreal.	207686936	1477539936620	1477539936694	BKSP	8
404889	4372435	This is all so unreal.	This is all so unreal.	207686938	1477539937761	1477539937848	T	84
404889	4372435	This is all so unreal.	This is all so unreal.	207686947	1477539938319	1477539938455	h	72
404889	4372435	This is all so unreal.	This is all so unreal.	207686948	1477539938435	1477539938562	i	73
404889	4372435	This is all so unreal.	This is all so unreal.	207686950	1477539938603	1477539938696	s	83
404889	4372435	This is all so unreal.	This is all so unreal.	207686959	1477539938668	1477539938735	 	32
404889	4372435	This is all so unreal.	This is all so unreal.	207686961	1477539938797	1477539938921	i	73
404889	4372435	This is all so unreal.	This is all so unreal.	207686962	1477539938965	1477539939036	s	83
404889	4372435	This is all so unreal.	This is all so unreal.	207686963	1477539939037	1477539939105	 	32
404889	4372435	This is all so unreal.	This is all so unreal.	207686966	1477539939186	1477539939310	a	65
404889	4372435	This is all so unreal.	This is all so unreal.	207686983	1477539939283	1477539939364	l	76
404889	4372435	This is all so unreal.	This is all so unreal.	207686985	1477539939427	1477539939558	l	76
404889	4372435	This is all so unreal.	This is all so unreal.	207686987	1477539939533	1477539939650	 	32
404889	4372435	This is all so unreal.	This is all so unreal.	207686988	1477539939692	1477539939816	s	83
404889	4372435	This is all so unreal.	This is all so unreal.	207686990	1477539939820	1477539939954	o	79
404889	4372435	This is all so unreal.	This is all so unreal.	207687005	1477539939904	1477539940059	 	32
404889	4372435	This is all so unreal.	This is all so unreal.	207687006	1477539940259	1477539940409	u	85
404889	4372435	This is all so unreal.	This is all so unreal.	207687007	1477539940355	1477539940484	n	78
404889	4372435	This is all so unreal.	This is all so unreal.	207687008	1477539940706	1477539940797	r	82
404889	4372435	This is all so unreal.	This is all so unreal.	207687009	1477539940879	1477539940986	e	69
404889	4372435	This is all so unreal.	This is all so unreal.	207687011	1477539941146	1477539941256	a	65
404889	4372435	This is all so unreal.	This is all so unreal.	207687023	1477539941209	1477539941337	l	76
404889	4372435	This is all so unreal.	This is all so unreal.	207687024	1477539941455	1477539941582	.	190
404889	4372442	Avoid starting either back in Week 10 if at all possible.	Avoid starting either back in Week 10 if at all possible.	207687110	1477539943430	1477539943667	CAPS_LOCK	20
404889	4372442	Avoid starting either back in Week 10 if at all possible.	Avoid starting either back in Week 10 if at all possible.	207687105	1477539943530	1477539943645	A	65
404889	4372442	Avoid starting either back in Week 10 if at all possible.	Avoid starting either back in Week 10 if at all possible.	207687114	1477539944048	1477539944155	v	86
404889	4372442	Avoid starting either back in Week 10 if at all possible.	Avoid starting either back in Week 10 if at all possible.	207687117	1477539944246	1477539944334	o	79
404889	4372442	Avoid starting either back in Week 10 if at all possible.	Avoid starting either back in Week 10 if at all possible.	207687119	1477539944483	1477539944574	i	73
404889	4372442	Avoid starting either back in Week 10 if at all possible.	Avoid starting either back in Week 10 if at all possible.	207687120	1477539944668	1477539944763	d	68
404889	4372442	Avoid starting either back in Week 10 if at all possible.	Avoid starting either back in Week 10 if at all possible.	207687129	1477539944825	1477539944924	 	32
404889	4372442	Avoid starting either back in Week 10 if at all possible.	Avoid starting either back in Week 10 if at all possible.	207687130	1477539945376	1477539945487	s	83
404889	4372442	Avoid starting either back in Week 10 if at all possible.	Avoid starting either back in Week 10 if at all possible.	207687131	1477539945553	1477539945628	t	84
404889	4372442	Avoid starting either back in Week 10 if at all possible.	Avoid starting either back in Week 10 if at all possible.	207687133	1477539945646	1477539945756	a	65
404889	4372442	Avoid starting either back in Week 10 if at all possible.	Avoid starting either back in Week 10 if at all possible.	207687135	1477539945859	1477539945969	r	82
404889	4372442	Avoid starting either back in Week 10 if at all possible.	Avoid starting either back in Week 10 if at all possible.	207687149	1477539946134	1477539946173	t	84
404889	4372442	Avoid starting either back in Week 10 if at all possible.	Avoid starting either back in Week 10 if at all possible.	207687151	1477539946157	1477539946329	i	73
404889	4372442	Avoid starting either back in Week 10 if at all possible.	Avoid starting either back in Week 10 if at all possible.	207687153	1477539946491	1477539946578	n	78
404889	4372442	Avoid starting either back in Week 10 if at all possible.	Avoid starting either back in Week 10 if at all possible.	207687155	1477539946625	1477539946727	g	71
404889	4372442	Avoid starting either back in Week 10 if at all possible.	Avoid starting either back in Week 10 if at all possible.	207687157	1477539946735	1477539946803	 	32
404889	4372442	Avoid starting either back in Week 10 if at all possible.	Avoid starting either back in Week 10 if at all possible.	207687184	1477539947510	1477539947633	e	69
404889	4372442	Avoid starting either back in Week 10 if at all possible.	Avoid starting either back in Week 10 if at all possible.	207687186	1477539947635	1477539947733	i	73
404889	4372442	Avoid starting either back in Week 10 if at all possible.	Avoid starting either back in Week 10 if at all possible.	207687187	1477539947796	1477539947888	t	84
404889	4372442	Avoid starting either back in Week 10 if at all possible.	Avoid starting either back in Week 10 if at all possible.	207687188	1477539947904	1477539948006	h	72
404889	4372442	Avoid starting either back in Week 10 if at all possible.	Avoid starting either back in Week 10 if at all possible.	207687209	1477539948004	1477539948107	e	69
404889	4372442	Avoid starting either back in Week 10 if at all possible.	Avoid starting either back in Week 10 if at all possible.	207687210	1477539948189	1477539948278	r	82
404889	4372442	Avoid starting either back in Week 10 if at all possible.	Avoid starting either back in Week 10 if at all possible.	207687211	1477539948321	1477539948447	 	32
404889	4372442	Avoid starting either back in Week 10 if at all possible.	Avoid starting either back in Week 10 if at all possible.	207687212	1477539948600	1477539948679	b	66
404889	4372442	Avoid starting either back in Week 10 if at all possible.	Avoid starting either back in Week 10 if at all possible.	207687213	1477539948693	1477539948807	a	65
404889	4372442	Avoid starting either back in Week 10 if at all possible.	Avoid starting either back in Week 10 if at all possible.	207687214	1477539948879	1477539949017	c	67
404889	4372442	Avoid starting either back in Week 10 if at all possible.	Avoid starting either back in Week 10 if at all possible.	207687231	1477539949011	1477539949141	k	75
404889	4372442	Avoid starting either back in Week 10 if at all possible.	Avoid starting either back in Week 10 if at all possible.	207687234	1477539949109	1477539949208	 	32
404889	4372442	Avoid starting either back in Week 10 if at all possible.	Avoid starting either back in Week 10 if at all possible.	207687239	1477539949288	1477539949427	i	73
404889	4372442	Avoid starting either back in Week 10 if at all possible.	Avoid starting either back in Week 10 if at all possible.	207687242	1477539949380	1477539949495	n	78
404889	4372442	Avoid starting either back in Week 10 if at all possible.	Avoid starting either back in Week 10 if at all possible.	207687244	1477539949539	1477539949645	a	65
404889	4372442	Avoid starting either back in Week 10 if at all possible.	Avoid starting either back in Week 10 if at all possible.	207687290	1477539949619	1477539949725	 	32
404889	4372442	Avoid starting either back in Week 10 if at all possible.	Avoid starting either back in Week 10 if at all possible.	207687292	1477539949946	1477539950016	BKSP	8
404889	4372442	Avoid starting either back in Week 10 if at all possible.	Avoid starting either back in Week 10 if at all possible.	207687294	1477539950084	1477539950147	BKSP	8
404889	4372442	Avoid starting either back in Week 10 if at all possible.	Avoid starting either back in Week 10 if at all possible.	207687297	1477539950509	1477539950584	 	32
404889	4372442	Avoid starting either back in Week 10 if at all possible.	Avoid starting either back in Week 10 if at all possible.	207687300	1477539950699	1477539950909	CAPS_LOCK	20
404889	4372442	Avoid starting either back in Week 10 if at all possible.	Avoid starting either back in Week 10 if at all possible.	207687303	1477539950789	1477539950931	W	87
404889	4372442	Avoid starting either back in Week 10 if at all possible.	Avoid starting either back in Week 10 if at all possible.	207687307	1477539951087	1477539951181	e	69
404889	4372442	Avoid starting either back in Week 10 if at all possible.	Avoid starting either back in Week 10 if at all possible.	207687312	1477539951240	1477539951332	e	69
404889	4372442	Avoid starting either back in Week 10 if at all possible.	Avoid starting either back in Week 10 if at all possible.	207687314	1477539951343	1477539951539	k	75
404889	4372442	Avoid starting either back in Week 10 if at all possible.	Avoid starting either back in Week 10 if at all possible.	207687352	1477539951541	1477539951607	 	32
404889	4372442	Avoid starting either back in Week 10 if at all possible.	Avoid starting either back in Week 10 if at all possible.	207687353	1477539951973	1477539952119	1	49
404889	4372442	Avoid starting either back in Week 10 if at all possible.	Avoid starting either back in Week 10 if at all possible.	207687354	1477539952153	1477539952251	0	48
404889	4372442	Avoid starting either back in Week 10 if at all possible.	Avoid starting either back in Week 10 if at all possible.	207687355	1477539952350	1477539952448	 	32
404889	4372442	Avoid starting either back in Week 10 if at all possible.	Avoid starting either back in Week 10 if at all possible.	207687356	1477539952984	1477539953070	i	73
404889	4372442	Avoid starting either back in Week 10 if at all possible.	Avoid starting either back in Week 10 if at all possible.	207687395	1477539953186	1477539953297	f	70
404889	4372442	Avoid starting either back in Week 10 if at all possible.	Avoid starting either back in Week 10 if at all possible.	207687397	1477539953315	1477539953389	 	32
404889	4372442	Avoid starting either back in Week 10 if at all possible.	Avoid starting either back in Week 10 if at all possible.	207687398	1477539954032	1477539954178	a	65
404889	4372442	Avoid starting either back in Week 10 if at all possible.	Avoid starting either back in Week 10 if at all possible.	207687399	1477539954389	1477539954488	t	84
404889	4372442	Avoid starting either back in Week 10 if at all possible.	Avoid starting either back in Week 10 if at all possible.	207687400	1477539954506	1477539954604	 	32
404889	4372442	Avoid starting either back in Week 10 if at all possible.	Avoid starting either back in Week 10 if at all possible.	207687416	1477539954648	1477539954766	a	65
404889	4372442	Avoid starting either back in Week 10 if at all possible.	Avoid starting either back in Week 10 if at all possible.	207687419	1477539954769	1477539954826	l	76
404889	4372442	Avoid starting either back in Week 10 if at all possible.	Avoid starting either back in Week 10 if at all possible.	207687422	1477539954902	1477539955022	l	76
404889	4372442	Avoid starting either back in Week 10 if at all possible.	Avoid starting either back in Week 10 if at all possible.	207687425	1477539954999	1477539955098	 	32
404889	4372442	Avoid starting either back in Week 10 if at all possible.	Avoid starting either back in Week 10 if at all possible.	207687429	1477539955229	1477539955407	p	80
404889	4372442	Avoid starting either back in Week 10 if at all possible.	Avoid starting either back in Week 10 if at all possible.	207687446	1477539955358	1477539955474	o	79
404889	4372442	Avoid starting either back in Week 10 if at all possible.	Avoid starting either back in Week 10 if at all possible.	207687448	1477539955461	1477539955569	s	83
404889	4372442	Avoid starting either back in Week 10 if at all possible.	Avoid starting either back in Week 10 if at all possible.	207687452	1477539955635	1477539955711	s	83
404889	4372442	Avoid starting either back in Week 10 if at all possible.	Avoid starting either back in Week 10 if at all possible.	207687455	1477539955814	1477539955966	i	73
404889	4372442	Avoid starting either back in Week 10 if at all possible.	Avoid starting either back in Week 10 if at all possible.	207687458	1477539955988	1477539956092	b	66
404889	4372442	Avoid starting either back in Week 10 if at all possible.	Avoid starting either back in Week 10 if at all possible.	207687461	1477539956203	1477539956294	l	76
404889	4372442	Avoid starting either back in Week 10 if at all possible.	Avoid starting either back in Week 10 if at all possible.	207687469	1477539956388	1477539956487	e	69
404889	4372442	Avoid starting either back in Week 10 if at all possible.	Avoid starting either back in Week 10 if at all possible.	207687471	1477539956557	1477539956675	.	190
404889	4372452	Megan, try this for Phillips.	Megan, try this for Phillips.	207687524	1477539958468	1477539958635	CAPS_LOCK	20
404889	4372452	Megan, try this for Phillips.	Megan, try this for Phillips.	207687525	1477539958556	1477539958650	M	77
404889	4372452	Megan, try this for Phillips.	Megan, try this for Phillips.	207687526	1477539958838	1477539958945	e	69
404889	4372452	Megan, try this for Phillips.	Megan, try this for Phillips.	207687527	1477539959088	1477539959168	g	71
404889	4372452	Megan, try this for Phillips.	Megan, try this for Phillips.	207687528	1477539959337	1477539959463	a	65
404889	4372452	Megan, try this for Phillips.	Megan, try this for Phillips.	207687529	1477539959491	1477539959569	n	78
404889	4372452	Megan, try this for Phillips.	Megan, try this for Phillips.	207687557	1477539959742	1477539959881	,	188
404889	4372452	Megan, try this for Phillips.	Megan, try this for Phillips.	207687558	1477539959854	1477539959950	 	32
404889	4372452	Megan, try this for Phillips.	Megan, try this for Phillips.	207687559	1477539960638	1477539960748	t	84
404889	4372452	Megan, try this for Phillips.	Megan, try this for Phillips.	207687560	1477539960890	1477539960957	r	82
404889	4372452	Megan, try this for Phillips.	Megan, try this for Phillips.	207687561	1477539961299	1477539961407	y	89
404889	4372452	Megan, try this for Phillips.	Megan, try this for Phillips.	207687583	1477539961446	1477539961536	 	32
404889	4372452	Megan, try this for Phillips.	Megan, try this for Phillips.	207687585	1477539962169	1477539962272	t	84
404889	4372452	Megan, try this for Phillips.	Megan, try this for Phillips.	207687586	1477539962333	1477539962456	h	72
404889	4372452	Megan, try this for Phillips.	Megan, try this for Phillips.	207687587	1477539962433	1477539962536	i	73
404889	4372452	Megan, try this for Phillips.	Megan, try this for Phillips.	207687588	1477539962559	1477539962678	s	83
404889	4372452	Megan, try this for Phillips.	Megan, try this for Phillips.	207687602	1477539962697	1477539962784	 	32
404889	4372452	Megan, try this for Phillips.	Megan, try this for Phillips.	207687607	1477539963146	1477539963288	f	70
404889	4372452	Megan, try this for Phillips.	Megan, try this for Phillips.	207687609	1477539963278	1477539963400	o	79
404889	4372452	Megan, try this for Phillips.	Megan, try this for Phillips.	207687610	1477539963393	1477539963508	r	82
404889	4372452	Megan, try this for Phillips.	Megan, try this for Phillips.	207687611	1477539963517	1477539963597	 	32
404889	4372452	Megan, try this for Phillips.	Megan, try this for Phillips.	207687629	1477539963816	1477539963949	CAPS_LOCK	20
404889	4372452	Megan, try this for Phillips.	Megan, try this for Phillips.	207687630	1477539963872	1477539963974	P	80
404889	4372452	Megan, try this for Phillips.	Megan, try this for Phillips.	207687631	1477539964313	1477539964423	h	72
404889	4372452	Megan, try this for Phillips.	Megan, try this for Phillips.	207687632	1477539964404	1477539964487	i	73
404889	4372452	Megan, try this for Phillips.	Megan, try this for Phillips.	207687633	1477539964598	1477539964685	l	76
404889	4372452	Megan, try this for Phillips.	Megan, try this for Phillips.	207687634	1477539964752	1477539964822	l	76
404889	4372452	Megan, try this for Phillips.	Megan, try this for Phillips.	207687655	1477539964931	1477539965069	i	73
404889	4372452	Megan, try this for Phillips.	Megan, try this for Phillips.	207687656	1477539965015	1477539965133	p	80
404889	4372452	Megan, try this for Phillips.	Megan, try this for Phillips.	207687657	1477539965131	1477539965261	s	83
404889	4372452	Megan, try this for Phillips.	Megan, try this for Phillips.	207687658	1477539965459	1477539965574	,	188
404889	4372452	Megan, try this for Phillips.	Megan, try this for Phillips.	207687659	1477539966039	1477539966132	BKSP	8
404889	4372455	She has a web address.	She has a web address.	207687694	1477539968783	1477539969175	CAPS_LOCK	20
404889	4372455	She has a web address.	She has a web address.	207687692	1477539969002	1477539969105	S	83
404889	4372455	She has a web address.	She has a web address.	207687695	1477539969340	1477539969429	h	72
404889	4372455	She has a web address.	She has a web address.	207687696	1477539969491	1477539969614	e	69
404889	4372455	She has a web address.	She has a web address.	207687697	1477539969719	1477539969798	 	32
404889	4372455	She has a web address.	She has a web address.	207687698	1477539970189	1477539970287	h	72
404889	4372455	She has a web address.	She has a web address.	207687705	1477539970312	1477539970410	a	65
404889	4372455	She has a web address.	She has a web address.	207687706	1477539970475	1477539970578	s	83
404889	4372455	She has a web address.	She has a web address.	207687707	1477539970571	1477539970648	 	32
404889	4372455	She has a web address.	She has a web address.	207687708	1477539970692	1477539970838	a	65
404889	4372455	She has a web address.	She has a web address.	207687714	1477539970812	1477539970903	 	32
404889	4372455	She has a web address.	She has a web address.	207687715	1477539971244	1477539971370	w	87
404889	4372455	She has a web address.	She has a web address.	207687716	1477539971467	1477539971586	e	69
404889	4372455	She has a web address.	She has a web address.	207687717	1477539971804	1477539971875	b	66
404889	4372455	She has a web address.	She has a web address.	207687718	1477539971961	1477539972040	 	32
404889	4372455	She has a web address.	She has a web address.	207687730	1477539972025	1477539972144	a	65
404889	4372455	She has a web address.	She has a web address.	207687731	1477539972238	1477539972327	d	68
404889	4372455	She has a web address.	She has a web address.	207687732	1477539972393	1477539972488	d	68
404889	4372455	She has a web address.	She has a web address.	207687733	1477539972586	1477539972677	r	82
404889	4372455	She has a web address.	She has a web address.	207687734	1477539972740	1477539972844	e	69
404889	4372455	She has a web address.	She has a web address.	207687735	1477539972920	1477539973019	s	83
404889	4372455	She has a web address.	She has a web address.	207687736	1477539973060	1477539973203	s	83
404889	4372459	Construction on the complex will begin this year.	Construction on the complex will begin this year.	207687769	1477539975163	1477539975527	CAPS_LOCK	20
404889	4372459	Construction on the complex will begin this year.	Construction on the complex will begin this year.	207687768	1477539975339	1477539975458	C	67
404889	4372459	Construction on the complex will begin this year.	Construction on the complex will begin this year.	207687770	1477539975638	1477539975825	o	79
404889	4372459	Construction on the complex will begin this year.	Construction on the complex will begin this year.	207687772	1477539975790	1477539975909	n	78
404889	4372459	Construction on the complex will begin this year.	Construction on the complex will begin this year.	207687775	1477539975842	1477539975961	s	83
404889	4372459	Construction on the complex will begin this year.	Construction on the complex will begin this year.	207687778	1477539976122	1477539976208	t	84
404889	4372459	Construction on the complex will begin this year.	Construction on the complex will begin this year.	207687783	1477539976273	1477539976381	r	82
404889	4372459	Construction on the complex will begin this year.	Construction on the complex will begin this year.	207687784	1477539976422	1477539976517	u	85
404889	4372459	Construction on the complex will begin this year.	Construction on the complex will begin this year.	207687785	1477539976521	1477539976645	c	67
404889	4372459	Construction on the complex will begin this year.	Construction on the complex will begin this year.	207687786	1477539976821	1477539976937	t	84
404889	4372459	Construction on the complex will begin this year.	Construction on the complex will begin this year.	207687803	1477539976935	1477539977167	i	73
404889	4372459	Construction on the complex will begin this year.	Construction on the complex will begin this year.	207687804	1477539976993	1477539977180	o	79
404889	4372459	Construction on the complex will begin this year.	Construction on the complex will begin this year.	207687805	1477539977085	1477539977220	n	78
404889	4372459	Construction on the complex will begin this year.	Construction on the complex will begin this year.	207687806	1477539977330	1477539977425	 	32
404889	4372459	Construction on the complex will begin this year.	Construction on the complex will begin this year.	207687807	1477539977894	1477539978073	o	79
404889	4372459	Construction on the complex will begin this year.	Construction on the complex will begin this year.	207687821	1477539978009	1477539978119	n	78
404889	4372459	Construction on the complex will begin this year.	Construction on the complex will begin this year.	207687823	1477539978197	1477539978296	 	32
404889	4372459	Construction on the complex will begin this year.	Construction on the complex will begin this year.	207687825	1477539978308	1477539978420	t	84
404889	4372459	Construction on the complex will begin this year.	Construction on the complex will begin this year.	207687827	1477539978418	1477539978532	h	72
404889	4372459	Construction on the complex will begin this year.	Construction on the complex will begin this year.	207687829	1477539978545	1477539978655	e	69
404889	4372459	Construction on the complex will begin this year.	Construction on the complex will begin this year.	207687843	1477539978633	1477539978756	 	32
404889	4372459	Construction on the complex will begin this year.	Construction on the complex will begin this year.	207687845	1477539978847	1477539978958	c	67
404889	4372459	Construction on the complex will begin this year.	Construction on the complex will begin this year.	207687847	1477539978993	1477539979139	o	79
404889	4372459	Construction on the complex will begin this year.	Construction on the complex will begin this year.	207687849	1477539979081	1477539979227	m	77
404889	4372459	Construction on the complex will begin this year.	Construction on the complex will begin this year.	207687850	1477539979518	1477539979649	p	80
404889	4372459	Construction on the complex will begin this year.	Construction on the complex will begin this year.	207687873	1477539979592	1477539979745	l	76
404889	4372459	Construction on the complex will begin this year.	Construction on the complex will begin this year.	207687874	1477539979787	1477539979842	r	82
404889	4372459	Construction on the complex will begin this year.	Construction on the complex will begin this year.	207687875	1477539980111	1477539980212	BKSP	8
404889	4372459	Construction on the complex will begin this year.	Construction on the complex will begin this year.	207687876	1477539980221	1477539980336	e	69
404889	4372459	Construction on the complex will begin this year.	Construction on the complex will begin this year.	207687877	1477539980453	1477539980596	x	88
404889	4372459	Construction on the complex will begin this year.	Construction on the complex will begin this year.	207687878	1477539980598	1477539980672	 	32
404889	4372459	Construction on the complex will begin this year.	Construction on the complex will begin this year.	207687879	1477539981032	1477539981163	w	87
404889	4372459	Construction on the complex will begin this year.	Construction on the complex will begin this year.	207687893	1477539981200	1477539981278	i	73
404889	4372459	Construction on the complex will begin this year.	Construction on the complex will begin this year.	207687895	1477539981363	1477539981455	l	76
404889	4372459	Construction on the complex will begin this year.	Construction on the complex will begin this year.	207687898	1477539981530	1477539981645	l	76
404889	4372459	Construction on the complex will begin this year.	Construction on the complex will begin this year.	207687900	1477539981654	1477539981780	 	32
404889	4372459	Construction on the complex will begin this year.	Construction on the complex will begin this year.	207687902	1477539981874	1477539981963	b	66
404889	4372459	Construction on the complex will begin this year.	Construction on the complex will begin this year.	207687926	1477539982595	1477539982726	e	69
404889	4372459	Construction on the complex will begin this year.	Construction on the complex will begin this year.	207687927	1477539982835	1477539982942	g	71
404889	4372459	Construction on the complex will begin this year.	Construction on the complex will begin this year.	207687928	1477539982915	1477539983069	i	73
404889	4372459	Construction on the complex will begin this year.	Construction on the complex will begin this year.	207687929	1477539983006	1477539983105	n	78
404889	4372459	Construction on the complex will begin this year.	Construction on the complex will begin this year.	207687931	1477539983179	1477539983337	 	32
404889	4372459	Construction on the complex will begin this year.	Construction on the complex will begin this year.	207687941	1477539983545	1477539983660	t	84
404889	4372459	Construction on the complex will begin this year.	Construction on the complex will begin this year.	207687943	1477539983657	1477539983807	h	72
404889	4372459	Construction on the complex will begin this year.	Construction on the complex will begin this year.	207687945	1477539983745	1477539983872	i	73
404889	4372459	Construction on the complex will begin this year.	Construction on the complex will begin this year.	207687948	1477539983889	1477539984012	s	83
404889	4372459	Construction on the complex will begin this year.	Construction on the complex will begin this year.	207687974	1477539983976	1477539984079	 	32
404889	4372459	Construction on the complex will begin this year.	Construction on the complex will begin this year.	207687976	1477539984205	1477539984287	y	89
404889	4372459	Construction on the complex will begin this year.	Construction on the complex will begin this year.	207687978	1477539984305	1477539984407	e	69
404889	4372459	Construction on the complex will begin this year.	Construction on the complex will begin this year.	207687980	1477539984534	1477539984665	a	65
404889	4372459	Construction on the complex will begin this year.	Construction on the complex will begin this year.	207687982	1477539984755	1477539984894	r	82
404889	4372461	I'll let you know after lunch.	I'll let you know after lunch	207688020	1477539987216	1477539987447	CAPS_LOCK	20
404889	4372461	I'll let you know after lunch.	I'll let you know after lunch	207688019	1477539987339	1477539987405	I	73
404889	4372461	I'll let you know after lunch.	I'll let you know after lunch	207688021	1477539987881	1477539987969	'	222
404889	4372461	I'll let you know after lunch.	I'll let you know after lunch	207688022	1477539988182	1477539988260	l	76
404889	4372461	I'll let you know after lunch.	I'll let you know after lunch	207688023	1477539988315	1477539988391	l	76
404889	4372461	I'll let you know after lunch.	I'll let you know after lunch	207688024	1477539988501	1477539988598	 	32
404889	4372461	I'll let you know after lunch.	I'll let you know after lunch	207688033	1477539988617	1477539988744	l	76
404889	4372461	I'll let you know after lunch.	I'll let you know after lunch	207688034	1477539988800	1477539988935	e	69
404889	4372461	I'll let you know after lunch.	I'll let you know after lunch	207688035	1477539989268	1477539989408	t	84
404889	4372461	I'll let you know after lunch.	I'll let you know after lunch	207688037	1477539989386	1477539989485	 	32
404889	4372461	I'll let you know after lunch.	I'll let you know after lunch	207688039	1477539989560	1477539989678	y	89
404889	4372461	I'll let you know after lunch.	I'll let you know after lunch	207688044	1477539989635	1477539989801	o	79
404889	4372461	I'll let you know after lunch.	I'll let you know after lunch	207688045	1477539989719	1477539989818	u	85
404889	4372461	I'll let you know after lunch.	I'll let you know after lunch	207688046	1477539989871	1477539990035	 	32
404889	4372461	I'll let you know after lunch.	I'll let you know after lunch	207688047	1477539990125	1477539990353	k	75
404889	4372461	I'll let you know after lunch.	I'll let you know after lunch	207688057	1477539990220	1477539990375	n	78
404889	4372461	I'll let you know after lunch.	I'll let you know after lunch	207688058	1477539990292	1477539990423	o	79
404889	4372461	I'll let you know after lunch.	I'll let you know after lunch	207688059	1477539990496	1477539990600	w	87
404889	4372461	I'll let you know after lunch.	I'll let you know after lunch	207688060	1477539990655	1477539990745	 	32
404889	4372461	I'll let you know after lunch.	I'll let you know after lunch	207688061	1477539990965	1477539991079	a	65
404889	4372461	I'll let you know after lunch.	I'll let you know after lunch	207688062	1477539991163	1477539991285	f	70
404889	4372461	I'll let you know after lunch.	I'll let you know after lunch	207688063	1477539991370	1477539991455	t	84
404889	4372461	I'll let you know after lunch.	I'll let you know after lunch	207688071	1477539991549	1477539991651	e	69
404889	4372461	I'll let you know after lunch.	I'll let you know after lunch	207688072	1477539991740	1477539991834	r	82
404889	4372461	I'll let you know after lunch.	I'll let you know after lunch	207688073	1477539991844	1477539991918	 	32
404889	4372461	I'll let you know after lunch.	I'll let you know after lunch	207688074	1477539992047	1477539992149	l	76
404889	4372461	I'll let you know after lunch.	I'll let you know after lunch	207688075	1477539992244	1477539992408	u	85
404889	4372461	I'll let you know after lunch.	I'll let you know after lunch	207688087	1477539992404	1477539992530	n	78
404889	4372461	I'll let you know after lunch.	I'll let you know after lunch	207688088	1477539992588	1477539992686	c	67
404889	4372461	I'll let you know after lunch.	I'll let you know after lunch	207688089	1477539992668	1477539992766	h	72
404889	4372467	Are you in today?	Are you in today?	207688124	1477539995174	1477539995444	CAPS_LOCK	20
404889	4372467	Are you in today?	Are you in today?	207688126	1477539995363	1477539995469	A	65
404889	4372467	Are you in today?	Are you in today?	207688128	1477539995743	1477539995845	r	82
404889	4372467	Are you in today?	Are you in today?	207688129	1477539995907	1477539996037	e	69
404889	4372467	Are you in today?	Are you in today?	207688130	1477539996055	1477539996157	 	32
404889	4372467	Are you in today?	Are you in today?	207688131	1477539996234	1477539996344	y	89
404889	4372467	Are you in today?	Are you in today?	207688142	1477539996330	1477539996482	o	79
404889	4372467	Are you in today?	Are you in today?	207688146	1477539996382	1477539996516	u	85
404889	4372467	Are you in today?	Are you in today?	207688149	1477539996478	1477539996596	 	32
404889	4372467	Are you in today?	Are you in today?	207688151	1477539996661	1477539996823	i	73
404889	4372467	Are you in today?	Are you in today?	207688153	1477539996777	1477539996891	n	78
404889	4372467	Are you in today?	Are you in today?	207688154	1477539996975	1477539997069	t	84
404889	4372467	Are you in today?	Are you in today?	207688165	1477539997451	1477539997496	 	32
404889	4372467	Are you in today?	Are you in today?	207688166	1477539997605	1477539997652	BKSP	8
404889	4372467	Are you in today?	Are you in today?	207688168	1477539997794	1477539997844	BKSP	8
404889	4372467	Are you in today?	Are you in today?	207688170	1477539998011	1477539998137	 	32
404889	4372467	Are you in today?	Are you in today?	207688173	1477539998234	1477539998329	t	84
404889	4372467	Are you in today?	Are you in today?	207688175	1477539998334	1477539998437	o	79
404889	4372467	Are you in today?	Are you in today?	207688177	1477539998569	1477539998616	d	68
404889	4372467	Are you in today?	Are you in today?	207688195	1477539998914	1477539999005	a	65
404889	4372467	Are you in today?	Are you in today?	207688198	1477539999024	1477539999118	y	89
404889	4372467	Are you in today?	Are you in today?	207688201	1477539999586	1477539999746	SHIFT	16
404889	4372467	Are you in today?	Are you in today?	207688204	1477539999696	1477539999806	?	191
404889	4372468	It's really just technicalities.	It's really just technicalities.	207688271	1477540002227	1477540002427	CAPS_LOCK	20
404889	4372468	It's really just technicalities.	It's really just technicalities.	207688272	1477540002382	1477540002457	I	73
404889	4372468	It's really just technicalities.	It's really just technicalities.	207688273	1477540002771	1477540002870	t	84
404889	4372468	It's really just technicalities.	It's really just technicalities.	207688274	1477540003269	1477540003368	'	222
404889	4372468	It's really just technicalities.	It's really just technicalities.	207688277	1477540003462	1477540003569	s	83
404889	4372468	It's really just technicalities.	It's really just technicalities.	207688280	1477540003601	1477540003672	 	32
404889	4372468	It's really just technicalities.	It's really just technicalities.	207688301	1477540003895	1477540003982	r	82
404889	4372468	It's really just technicalities.	It's really just technicalities.	207688303	1477540004066	1477540004173	e	69
404889	4372468	It's really just technicalities.	It's really just technicalities.	207688305	1477540004304	1477540004412	a	65
404889	4372468	It's really just technicalities.	It's really just technicalities.	207688307	1477540004408	1477540004464	l	76
404889	4372468	It's really just technicalities.	It's really just technicalities.	207688309	1477540004551	1477540004638	l	76
404889	4372468	It's really just technicalities.	It's really just technicalities.	207688318	1477540004799	1477540004909	y	89
404889	4372468	It's really just technicalities.	It's really just technicalities.	207688319	1477540004886	1477540004961	 	32
404889	4372468	It's really just technicalities.	It's really just technicalities.	207688320	1477540005071	1477540005238	j	74
404889	4372468	It's really just technicalities.	It's really just technicalities.	207688321	1477540005179	1477540005306	u	85
404889	4372468	It's really just technicalities.	It's really just technicalities.	207688353	1477540005263	1477540005360	s	83
404889	4372468	It's really just technicalities.	It's really just technicalities.	207688354	1477540005481	1477540005576	t	84
404889	4372468	It's really just technicalities.	It's really just technicalities.	207688355	1477540005878	1477540005957	BKSP	8
404889	4372468	It's really just technicalities.	It's really just technicalities.	207688356	1477540006437	1477540006540	t	84
404889	4372468	It's really just technicalities.	It's really just technicalities.	207688357	1477540006557	1477540006672	 	32
404889	4372468	It's really just technicalities.	It's really just technicalities.	207688358	1477540006908	1477540007007	t	84
404889	4372468	It's really just technicalities.	It's really just technicalities.	207688360	1477540007102	1477540007177	e	69
404889	4372468	It's really just technicalities.	It's really just technicalities.	207688391	1477540007320	1477540007443	c	67
404889	4372468	It's really just technicalities.	It's really just technicalities.	207688392	1477540007416	1477540007551	h	72
404889	4372468	It's really just technicalities.	It's really just technicalities.	207688393	1477540007586	1477540007756	i	73
404889	4372468	It's really just technicalities.	It's really just technicalities.	207688394	1477540007709	1477540007828	n	78
404889	4372468	It's really just technicalities.	It's really just technicalities.	207688395	1477540008102	1477540008192	c	67
404889	4372468	It's really just technicalities.	It's really just technicalities.	207688430	1477540008355	1477540008450	a	65
404889	4372468	It's really just technicalities.	It's really just technicalities.	207688432	1477540008489	1477540008588	l	76
404889	4372468	It's really just technicalities.	It's really just technicalities.	207688435	1477540008679	1477540008758	i	73
404889	4372468	It's really just technicalities.	It's really just technicalities.	207688438	1477540010067	1477540010193	t	84
404889	4372468	It's really just technicalities.	It's really just technicalities.	207688514	1477540010187	1477540010278	i	73
404889	4372468	It's really just technicalities.	It's really just technicalities.	207688515	1477540010405	1477540010500	e	69
404889	4372468	It's really just technicalities.	It's really just technicalities.	207688516	1477540010632	1477540010759	s	83
404889	4372468	It's really just technicalities.	It's really just technicalities.	207688517	1477540010961	1477540011028	.	190
404889	4372468	It's really just technicalities.	It's really just technicalities.	207688518	1477540011200	1477540011247	.	190
404889	4372468	It's really just technicalities.	It's really just technicalities.	207688519	1477540011527	1477540011638	BKSP	8
404889	4372468	It's really just technicalities.	It's really just technicalities.	207688520	1477540013604	1477540013671	BKSP	8
404889	4372468	It's really just technicalities.	It's really just technicalities.	207688521	1477540013740	1477540013815	BKSP	8
404889	4372468	It's really just technicalities.	It's really just technicalities.	207688522	1477540014099	1477540014274	n	78
404889	4372468	It's really just technicalities.	It's really just technicalities.	207688527	1477540014251	1477540014326	i	73
404889	4372473	I hope you went.	I hope you went.	207688592	1477540016519	1477540016672	CAPS_LOCK	20
404889	4372473	I hope you went.	I hope you went.	207688593	1477540016614	1477540016717	I	73
404889	4372473	I hope you went.	I hope you went.	207688594	1477540016818	1477540016917	 	32
404889	4372473	I hope you went.	I hope you went.	207688595	1477540017058	1477540017153	h	72
404889	4372473	I hope you went.	I hope you went.	207688596	1477540017193	1477540017381	o	79
404889	4372473	I hope you went.	I hope you went.	207688628	1477540017286	1477540017409	p	80
404889	4372473	I hope you went.	I hope you went.	207688630	1477540018197	1477540018328	e	69
404889	4372473	I hope you went.	I hope you went.	207688632	1477540018324	1477540018455	 	32
404889	4372473	I hope you went.	I hope you went.	207688635	1477540018520	1477540018635	y	89
404889	4372473	I hope you went.	I hope you went.	207688637	1477540018604	1477540018847	o	79
404889	4372473	I hope you went.	I hope you went.	207688651	1477540018708	1477540018863	u	85
404889	4372473	I hope you went.	I hope you went.	207688653	1477540018800	1477540018896	 	32
404889	4372473	I hope you went.	I hope you went.	207688655	1477540018880	1477540018996	w	87
404889	4372473	I hope you went.	I hope you went.	207688656	1477540019070	1477540019189	e	69
404889	4372473	I hope you went.	I hope you went.	207688657	1477540019190	1477540019257	n	78
404889	4372473	I hope you went.	I hope you went.	207688658	1477540019389	1477540019512	t	84
404889	4372473	I hope you went.	I hope you went.	207688659	1477540019579	1477540019738	.	190
404889	4372475	But let me know which ones you don't get.	But let me know which ones you don't get,	207688682	1477540021757	1477540021924	CAPS_LOCK	20
404889	4372475	But let me know which ones you don't get.	But let me know which ones you don't get,	207688683	1477540021867	1477540021982	B	66
404889	4372475	But let me know which ones you don't get.	But let me know which ones you don't get,	207688684	1477540022040	1477540022126	u	85
404889	4372475	But let me know which ones you don't get.	But let me know which ones you don't get,	207688685	1477540022281	1477540022392	t	84
404889	4372475	But let me know which ones you don't get.	But let me know which ones you don't get,	207688686	1477540022381	1477540022480	 	32
404889	4372475	But let me know which ones you don't get.	But let me know which ones you don't get,	207688687	1477540022529	1477540022644	l	76
404889	4372475	But let me know which ones you don't get.	But let me know which ones you don't get,	207688695	1477540022694	1477540022777	e	69
404889	4372475	But let me know which ones you don't get.	But let me know which ones you don't get,	207688698	1477540023307	1477540023422	t	84
404889	4372475	But let me know which ones you don't get.	But let me know which ones you don't get,	207688700	1477540023435	1477540023514	 	32
404889	4372475	But let me know which ones you don't get.	But let me know which ones you don't get,	207688701	1477540023605	1477540023720	m	77
404889	4372475	But let me know which ones you don't get.	But let me know which ones you don't get,	207688702	1477540023780	1477540023898	e	69
404889	4372475	But let me know which ones you don't get.	But let me know which ones you don't get,	207688709	1477540024004	1477540024123	 	32
404889	4372475	But let me know which ones you don't get.	But let me know which ones you don't get,	207688711	1477540024182	1477540024433	k	75
404889	4372475	But let me know which ones you don't get.	But let me know which ones you don't get,	207688710	1477540024282	1477540024425	n	78
404889	4372475	But let me know which ones you don't get.	But let me know which ones you don't get,	207688712	1477540024358	1477540024508	o	79
404889	4372475	But let me know which ones you don't get.	But let me know which ones you don't get,	207688713	1477540024535	1477540024650	w	87
404889	4372475	But let me know which ones you don't get.	But let me know which ones you don't get,	207688725	1477540024679	1477540024790	 	32
404889	4372475	But let me know which ones you don't get.	But let me know which ones you don't get,	207688728	1477540025099	1477540025201	w	87
404889	4372475	But let me know which ones you don't get.	But let me know which ones you don't get,	207688733	1477540025215	1477540025353	h	72
404889	4372475	But let me know which ones you don't get.	But let me know which ones you don't get,	207688739	1477540025299	1477540025410	i	73
404889	4372475	But let me know which ones you don't get.	But let me know which ones you don't get,	207688740	1477540025466	1477540025576	c	67
404889	4372475	But let me know which ones you don't get.	But let me know which ones you don't get,	207688741	1477540025594	1477540025724	h	72
404889	4372475	But let me know which ones you don't get.	But let me know which ones you don't get,	207688743	1477540025654	1477540025801	 	32
404889	4372475	But let me know which ones you don't get.	But let me know which ones you don't get,	207688744	1477540025883	1477540026077	o	79
404889	4372475	But let me know which ones you don't get.	But let me know which ones you don't get,	207688746	1477540025995	1477540026169	n	78
404889	4372475	But let me know which ones you don't get.	But let me know which ones you don't get,	207688779	1477540026115	1477540026226	e	69
404889	4372475	But let me know which ones you don't get.	But let me know which ones you don't get,	207688781	1477540026343	1477540026470	s	83
404889	4372475	But let me know which ones you don't get.	But let me know which ones you don't get,	207688783	1477540026471	1477540026586	 	32
404889	4372475	But let me know which ones you don't get.	But let me know which ones you don't get,	207688785	1477540026967	1477540027041	y	89
404889	4372475	But let me know which ones you don't get.	But let me know which ones you don't get,	207688787	1477540027327	1477540027553	o	79
404889	4372475	But let me know which ones you don't get.	But let me know which ones you don't get,	207688833	1477540027388	1477540027561	u	85
404889	4372475	But let me know which ones you don't get.	But let me know which ones you don't get,	207688834	1477540027489	1477540027617	 	32
404889	4372475	But let me know which ones you don't get.	But let me know which ones you don't get,	207688836	1477540027663	1477540027762	d	68
404889	4372475	But let me know which ones you don't get.	But let me know which ones you don't get,	207688840	1477540027790	1477540027963	o	79
404889	4372475	But let me know which ones you don't get.	But let me know which ones you don't get,	207688844	1477540027901	1477540028003	n	78
404889	4372475	But let me know which ones you don't get.	But let me know which ones you don't get,	207688847	1477540028259	1477540028349	;	186
404889	4372475	But let me know which ones you don't get.	But let me know which ones you don't get,	207688849	1477540029110	1477540029226	BKSP	8
404889	4372475	But let me know which ones you don't get.	But let me know which ones you don't get,	207688852	1477540029306	1477540029508	;	186
404889	4372475	But let me know which ones you don't get.	But let me know which ones you don't get,	207688877	1477540029640	1477540029802	BKSP	8
404889	4372475	But let me know which ones you don't get.	But let me know which ones you don't get,	207688879	1477540029823	1477540029985	'	222
404889	4372475	But let me know which ones you don't get.	But let me know which ones you don't get,	207688880	1477540030011	1477540030149	t	84
404889	4372475	But let me know which ones you don't get.	But let me know which ones you don't get,	207688881	1477540030353	1477540030471	 	32
404889	4372475	But let me know which ones you don't get.	But let me know which ones you don't get,	207688882	1477540030659	1477540030690	h	72
404889	4372475	But let me know which ones you don't get.	But let me know which ones you don't get,	207688883	1477540030958	1477540031068	BKSP	8
404889	4372475	But let me know which ones you don't get.	But let me know which ones you don't get,	207688884	1477540031160	1477540031258	g	71
404889	4372475	But let me know which ones you don't get.	But let me know which ones you don't get,	207688890	1477540031356	1477540031510	e	69
404889	4372475	But let me know which ones you don't get.	But let me know which ones you don't get,	207688891	1477540031590	1477540031721	t	84
404889	4372475	But let me know which ones you don't get.	But let me know which ones you don't get,	207688892	1477540031718	1477540031852	,	188
404889	4372484	A state supreme court judge is expected to rule on the issue shortly.	A state supreme court judge is expected to rule on the issue shortly.	207688911	1477540033801	1477540034014	CAPS_LOCK	20
404889	4372484	A state supreme court judge is expected to rule on the issue shortly.	A state supreme court judge is expected to rule on the issue shortly.	207688913	1477540033881	1477540034023	A	65
404889	4372484	A state supreme court judge is expected to rule on the issue shortly.	A state supreme court judge is expected to rule on the issue shortly.	207688915	1477540034141	1477540034211	 	32
404889	4372484	A state supreme court judge is expected to rule on the issue shortly.	A state supreme court judge is expected to rule on the issue shortly.	207688917	1477540034330	1477540034436	s	83
404889	4372484	A state supreme court judge is expected to rule on the issue shortly.	A state supreme court judge is expected to rule on the issue shortly.	207688919	1477540034562	1477540034652	t	84
404889	4372484	A state supreme court judge is expected to rule on the issue shortly.	A state supreme court judge is expected to rule on the issue shortly.	207688943	1477540034646	1477540034764	a	65
404889	4372484	A state supreme court judge is expected to rule on the issue shortly.	A state supreme court judge is expected to rule on the issue shortly.	207688944	1477540034792	1477540034862	t	84
404889	4372484	A state supreme court judge is expected to rule on the issue shortly.	A state supreme court judge is expected to rule on the issue shortly.	207688945	1477540034913	1477540035027	e	69
404889	4372484	A state supreme court judge is expected to rule on the issue shortly.	A state supreme court judge is expected to rule on the issue shortly.	207688946	1477540035021	1477540035131	 	32
404889	4372484	A state supreme court judge is expected to rule on the issue shortly.	A state supreme court judge is expected to rule on the issue shortly.	207688947	1477540035296	1477540035414	s	83
404889	4372484	A state supreme court judge is expected to rule on the issue shortly.	A state supreme court judge is expected to rule on the issue shortly.	207688948	1477540035772	1477540035850	u	85
404889	4372484	A state supreme court judge is expected to rule on the issue shortly.	A state supreme court judge is expected to rule on the issue shortly.	207688963	1477540035973	1477540036063	p	80
404889	4372484	A state supreme court judge is expected to rule on the issue shortly.	A state supreme court judge is expected to rule on the issue shortly.	207688964	1477540036172	1477540036254	r	82
404889	4372484	A state supreme court judge is expected to rule on the issue shortly.	A state supreme court judge is expected to rule on the issue shortly.	207688967	1477540036331	1477540036433	e	69
404889	4372484	A state supreme court judge is expected to rule on the issue shortly.	A state supreme court judge is expected to rule on the issue shortly.	207688970	1477540036439	1477540036529	m	77
404889	4372484	A state supreme court judge is expected to rule on the issue shortly.	A state supreme court judge is expected to rule on the issue shortly.	207688973	1477540036539	1477540036653	e	69
404889	4372484	A state supreme court judge is expected to rule on the issue shortly.	A state supreme court judge is expected to rule on the issue shortly.	207688993	1477540036631	1477540036733	 	32
404889	4372484	A state supreme court judge is expected to rule on the issue shortly.	A state supreme court judge is expected to rule on the issue shortly.	207688997	1477540037140	1477540037255	c	67
404889	4372484	A state supreme court judge is expected to rule on the issue shortly.	A state supreme court judge is expected to rule on the issue shortly.	207688999	1477540037273	1477540037403	o	79
404889	4372484	A state supreme court judge is expected to rule on the issue shortly.	A state supreme court judge is expected to rule on the issue shortly.	207689001	1477540037487	1477540037598	u	85
404889	4372484	A state supreme court judge is expected to rule on the issue shortly.	A state supreme court judge is expected to rule on the issue shortly.	207689002	1477540037736	1477540037846	r	82
404889	4372484	A state supreme court judge is expected to rule on the issue shortly.	A state supreme court judge is expected to rule on the issue shortly.	207689003	1477540037933	1477540038019	t	84
404889	4372484	A state supreme court judge is expected to rule on the issue shortly.	A state supreme court judge is expected to rule on the issue shortly.	207689029	1477540038001	1477540038091	 	32
404889	4372484	A state supreme court judge is expected to rule on the issue shortly.	A state supreme court judge is expected to rule on the issue shortly.	207689030	1477540038199	1477540038389	j	74
404889	4372484	A state supreme court judge is expected to rule on the issue shortly.	A state supreme court judge is expected to rule on the issue shortly.	207689032	1477540038319	1477540038457	u	85
404889	4372484	A state supreme court judge is expected to rule on the issue shortly.	A state supreme court judge is expected to rule on the issue shortly.	207689033	1477540038569	1477540038688	d	68
404889	4372484	A state supreme court judge is expected to rule on the issue shortly.	A state supreme court judge is expected to rule on the issue shortly.	207689034	1477540038891	1477540039037	g	71
404889	4372484	A state supreme court judge is expected to rule on the issue shortly.	A state supreme court judge is expected to rule on the issue shortly.	207689035	1477540039105	1477540039208	e	69
404889	4372484	A state supreme court judge is expected to rule on the issue shortly.	A state supreme court judge is expected to rule on the issue shortly.	207689036	1477540039221	1477540039368	 	32
404889	4372484	A state supreme court judge is expected to rule on the issue shortly.	A state supreme court judge is expected to rule on the issue shortly.	207689037	1477540039550	1477540039644	i	73
404889	4372484	A state supreme court judge is expected to rule on the issue shortly.	A state supreme court judge is expected to rule on the issue shortly.	207689038	1477540039701	1477540039843	s	83
404889	4372484	A state supreme court judge is expected to rule on the issue shortly.	A state supreme court judge is expected to rule on the issue shortly.	207689039	1477540039809	1477540039915	 	32
404889	4372484	A state supreme court judge is expected to rule on the issue shortly.	A state supreme court judge is expected to rule on the issue shortly.	207689040	1477540039975	1477540040081	e	69
404889	4372484	A state supreme court judge is expected to rule on the issue shortly.	A state supreme court judge is expected to rule on the issue shortly.	207689052	1477540040317	1477540040432	x	88
404889	4372484	A state supreme court judge is expected to rule on the issue shortly.	A state supreme court judge is expected to rule on the issue shortly.	207689053	1477540040540	1477540040663	p	80
404889	4372484	A state supreme court judge is expected to rule on the issue shortly.	A state supreme court judge is expected to rule on the issue shortly.	207689054	1477540040672	1477540040775	e	69
404889	4372484	A state supreme court judge is expected to rule on the issue shortly.	A state supreme court judge is expected to rule on the issue shortly.	207689055	1477540040889	1477540040996	c	67
404889	4372484	A state supreme court judge is expected to rule on the issue shortly.	A state supreme court judge is expected to rule on the issue shortly.	207689056	1477540041080	1477540041179	t	84
404889	4372484	A state supreme court judge is expected to rule on the issue shortly.	A state supreme court judge is expected to rule on the issue shortly.	207689075	1477540041293	1477540041384	e	69
404889	4372484	A state supreme court judge is expected to rule on the issue shortly.	A state supreme court judge is expected to rule on the issue shortly.	207689077	1477540041720	1477540041815	d	68
404889	4372484	A state supreme court judge is expected to rule on the issue shortly.	A state supreme court judge is expected to rule on the issue shortly.	207689079	1477540041851	1477540041970	 	32
404889	4372484	A state supreme court judge is expected to rule on the issue shortly.	A state supreme court judge is expected to rule on the issue shortly.	207689081	1477540042106	1477540042213	t	84
404889	4372484	A state supreme court judge is expected to rule on the issue shortly.	A state supreme court judge is expected to rule on the issue shortly.	207689082	1477540042242	1477540042397	o	79
404889	4372484	A state supreme court judge is expected to rule on the issue shortly.	A state supreme court judge is expected to rule on the issue shortly.	207689098	1477540042338	1477540042461	 	32
404889	4372484	A state supreme court judge is expected to rule on the issue shortly.	A state supreme court judge is expected to rule on the issue shortly.	207689100	1477540042710	1477540042845	r	82
404889	4372484	A state supreme court judge is expected to rule on the issue shortly.	A state supreme court judge is expected to rule on the issue shortly.	207689102	1477540042883	1477540042954	u	85
404889	4372484	A state supreme court judge is expected to rule on the issue shortly.	A state supreme court judge is expected to rule on the issue shortly.	207689104	1477540043062	1477540043176	l	76
404889	4372484	A state supreme court judge is expected to rule on the issue shortly.	A state supreme court judge is expected to rule on the issue shortly.	207689106	1477540043663	1477540043790	e	69
404889	4372484	A state supreme court judge is expected to rule on the issue shortly.	A state supreme court judge is expected to rule on the issue shortly.	207689108	1477540043814	1477540043901	 	32
404889	4372484	A state supreme court judge is expected to rule on the issue shortly.	A state supreme court judge is expected to rule on the issue shortly.	207689114	1477540043989	1477540044136	o	79
404889	4372484	A state supreme court judge is expected to rule on the issue shortly.	A state supreme court judge is expected to rule on the issue shortly.	207689118	1477540044078	1477540044192	n	78
404889	4372484	A state supreme court judge is expected to rule on the issue shortly.	A state supreme court judge is expected to rule on the issue shortly.	207689121	1477540044273	1477540044371	 	32
404889	4372484	A state supreme court judge is expected to rule on the issue shortly.	A state supreme court judge is expected to rule on the issue shortly.	207689125	1477540044397	1477540044484	t	84
404889	4372484	A state supreme court judge is expected to rule on the issue shortly.	A state supreme court judge is expected to rule on the issue shortly.	207689128	1477540044493	1477540044580	h	72
404889	4372484	A state supreme court judge is expected to rule on the issue shortly.	A state supreme court judge is expected to rule on the issue shortly.	207689134	1477540044623	1477540044733	e	69
404889	4372484	A state supreme court judge is expected to rule on the issue shortly.	A state supreme court judge is expected to rule on the issue shortly.	207689136	1477540044670	1477540044765	 	32
404889	4372484	A state supreme court judge is expected to rule on the issue shortly.	A state supreme court judge is expected to rule on the issue shortly.	207689137	1477540044827	1477540044902	i	73
404889	4372484	A state supreme court judge is expected to rule on the issue shortly.	A state supreme court judge is expected to rule on the issue shortly.	207689139	1477540044911	1477540045006	s	83
404889	4372484	A state supreme court judge is expected to rule on the issue shortly.	A state supreme court judge is expected to rule on the issue shortly.	207689140	1477540045097	1477540045168	s	83
404889	4372484	A state supreme court judge is expected to rule on the issue shortly.	A state supreme court judge is expected to rule on the issue shortly.	207689160	1477540045244	1477540045319	u	85
404889	4372484	A state supreme court judge is expected to rule on the issue shortly.	A state supreme court judge is expected to rule on the issue shortly.	207689161	1477540045421	1477540045524	e	69
404889	4372484	A state supreme court judge is expected to rule on the issue shortly.	A state supreme court judge is expected to rule on the issue shortly.	207689162	1477540045489	1477540045616	 	32
404889	4372484	A state supreme court judge is expected to rule on the issue shortly.	A state supreme court judge is expected to rule on the issue shortly.	207689163	1477540046138	1477540046253	s	83
404889	4372484	A state supreme court judge is expected to rule on the issue shortly.	A state supreme court judge is expected to rule on the issue shortly.	207689164	1477540046311	1477540046422	h	72
404889	4372484	A state supreme court judge is expected to rule on the issue shortly.	A state supreme court judge is expected to rule on the issue shortly.	207689185	1477540046830	1477540046925	o	79
404889	4372484	A state supreme court judge is expected to rule on the issue shortly.	A state supreme court judge is expected to rule on the issue shortly.	207689187	1477540047016	1477540047107	r	82
404889	4372484	A state supreme court judge is expected to rule on the issue shortly.	A state supreme court judge is expected to rule on the issue shortly.	207689190	1477540047209	1477540047292	t	84
404889	4372484	A state supreme court judge is expected to rule on the issue shortly.	A state supreme court judge is expected to rule on the issue shortly.	207689195	1477540047309	1477540047416	l	76
404889	4372484	A state supreme court judge is expected to rule on the issue shortly.	A state supreme court judge is expected to rule on the issue shortly.	207689198	1477540047479	1477540047614	y	89
404889	4372484	A state supreme court judge is expected to rule on the issue shortly.	A state supreme court judge is expected to rule on the issue shortly.	207689208	1477540047693	1477540047848	.	190
404889	4372489	The best-of-seven series moves to Indianapolis, Indiana.	The best-of-seven series move to Indianapolis, Indiana.	207689271	1477540049701	1477540050359	CAPS_LOCK	20
404889	4372489	The best-of-seven series moves to Indianapolis, Indiana.	The best-of-seven series move to Indianapolis, Indiana.	207689270	1477540050249	1477540050336	T	84
404889	4372489	The best-of-seven series moves to Indianapolis, Indiana.	The best-of-seven series move to Indianapolis, Indiana.	207689272	1477540050653	1477540050752	h	72
404889	4372489	The best-of-seven series moves to Indianapolis, Indiana.	The best-of-seven series move to Indianapolis, Indiana.	207689273	1477540050855	1477540050974	e	69
404889	4372489	The best-of-seven series moves to Indianapolis, Indiana.	The best-of-seven series move to Indianapolis, Indiana.	207689275	1477540050975	1477540051070	 	32
404889	4372489	The best-of-seven series moves to Indianapolis, Indiana.	The best-of-seven series move to Indianapolis, Indiana.	207689277	1477540051311	1477540051409	b	66
404889	4372489	The best-of-seven series moves to Indianapolis, Indiana.	The best-of-seven series move to Indianapolis, Indiana.	207689299	1477540051459	1477540051534	e	69
404889	4372489	The best-of-seven series moves to Indianapolis, Indiana.	The best-of-seven series move to Indianapolis, Indiana.	207689302	1477540051649	1477540051772	s	83
404889	4372489	The best-of-seven series moves to Indianapolis, Indiana.	The best-of-seven series move to Indianapolis, Indiana.	207689305	1477540052196	1477540052326	t	84
404889	4372489	The best-of-seven series moves to Indianapolis, Indiana.	The best-of-seven series move to Indianapolis, Indiana.	207689308	1477540052809	1477540052872	-	189
404889	4372489	The best-of-seven series moves to Indianapolis, Indiana.	The best-of-seven series move to Indianapolis, Indiana.	207689311	1477540053197	1477540053296	o	79
404889	4372489	The best-of-seven series moves to Indianapolis, Indiana.	The best-of-seven series move to Indianapolis, Indiana.	207689345	1477540053411	1477540053534	d	68
404889	4372489	The best-of-seven series moves to Indianapolis, Indiana.	The best-of-seven series move to Indianapolis, Indiana.	207689348	1477540054056	1477540054195	BKSP	8
404889	4372489	The best-of-seven series moves to Indianapolis, Indiana.	The best-of-seven series move to Indianapolis, Indiana.	207689350	1477540054229	1477540054344	f	70
404889	4372489	The best-of-seven series moves to Indianapolis, Indiana.	The best-of-seven series move to Indianapolis, Indiana.	207689352	1477540054710	1477540054785	-	189
404889	4372489	The best-of-seven series moves to Indianapolis, Indiana.	The best-of-seven series move to Indianapolis, Indiana.	207689353	1477540054830	1477540054945	s	83
404889	4372489	The best-of-seven series moves to Indianapolis, Indiana.	The best-of-seven series move to Indianapolis, Indiana.	207689354	1477540055048	1477540055143	e	69
404889	4372489	The best-of-seven series moves to Indianapolis, Indiana.	The best-of-seven series move to Indianapolis, Indiana.	207689366	1477540055281	1477540055412	v	86
404889	4372489	The best-of-seven series moves to Indianapolis, Indiana.	The best-of-seven series move to Indianapolis, Indiana.	207689367	1477540055485	1477540055620	e	69
404889	4372489	The best-of-seven series moves to Indianapolis, Indiana.	The best-of-seven series move to Indianapolis, Indiana.	207689368	1477540055569	1477540055700	n	78
404889	4372489	The best-of-seven series moves to Indianapolis, Indiana.	The best-of-seven series move to Indianapolis, Indiana.	207689369	1477540055832	1477540055951	 	32
404889	4372489	The best-of-seven series moves to Indianapolis, Indiana.	The best-of-seven series move to Indianapolis, Indiana.	207689370	1477540056059	1477540056178	s	83
404889	4372489	The best-of-seven series moves to Indianapolis, Indiana.	The best-of-seven series move to Indianapolis, Indiana.	207689385	1477540056308	1477540056423	e	69
404889	4372489	The best-of-seven series moves to Indianapolis, Indiana.	The best-of-seven series move to Indianapolis, Indiana.	207689387	1477540056522	1477540056593	r	82
404889	4372489	The best-of-seven series moves to Indianapolis, Indiana.	The best-of-seven series move to Indianapolis, Indiana.	207689388	1477540056598	1477540056701	i	73
404889	4372489	The best-of-seven series moves to Indianapolis, Indiana.	The best-of-seven series move to Indianapolis, Indiana.	207689389	1477540056715	1477540056825	e	69
404889	4372489	The best-of-seven series moves to Indianapolis, Indiana.	The best-of-seven series move to Indianapolis, Indiana.	207689390	1477540056913	1477540057033	s	83
404889	4372489	The best-of-seven series moves to Indianapolis, Indiana.	The best-of-seven series move to Indianapolis, Indiana.	207689401	1477540057013	1477540057104	 	32
404889	4372489	The best-of-seven series moves to Indianapolis, Indiana.	The best-of-seven series move to Indianapolis, Indiana.	207689402	1477540057214	1477540057357	m	77
404889	4372489	The best-of-seven series moves to Indianapolis, Indiana.	The best-of-seven series move to Indianapolis, Indiana.	207689403	1477540057310	1477540057453	o	79
404889	4372489	The best-of-seven series moves to Indianapolis, Indiana.	The best-of-seven series move to Indianapolis, Indiana.	207689404	1477540057513	1477540057640	v	86
404889	4372489	The best-of-seven series moves to Indianapolis, Indiana.	The best-of-seven series move to Indianapolis, Indiana.	207689405	1477540057708	1477540057879	e	69
404889	4372489	The best-of-seven series moves to Indianapolis, Indiana.	The best-of-seven series move to Indianapolis, Indiana.	207689438	1477540057812	1477540057947	 	32
404889	4372489	The best-of-seven series moves to Indianapolis, Indiana.	The best-of-seven series move to Indianapolis, Indiana.	207689441	1477540058069	1477540058132	i	73
404889	4372489	The best-of-seven series moves to Indianapolis, Indiana.	The best-of-seven series move to Indianapolis, Indiana.	207689444	1477540058680	1477540058787	BKSP	8
404889	4372489	The best-of-seven series moves to Indianapolis, Indiana.	The best-of-seven series move to Indianapolis, Indiana.	207689450	1477540059060	1477540059171	t	84
404889	4372489	The best-of-seven series moves to Indianapolis, Indiana.	The best-of-seven series move to Indianapolis, Indiana.	207689454	1477540059192	1477540059327	o	79
404889	4372489	The best-of-seven series moves to Indianapolis, Indiana.	The best-of-seven series move to Indianapolis, Indiana.	207689458	1477540059276	1477540059443	 	32
404889	4372489	The best-of-seven series moves to Indianapolis, Indiana.	The best-of-seven series move to Indianapolis, Indiana.	207689461	1477540059594	1477540059706	CAPS_LOCK	20
404889	4372489	The best-of-seven series moves to Indianapolis, Indiana.	The best-of-seven series move to Indianapolis, Indiana.	207689470	1477540059628	1477540059732	I	73
404889	4372489	The best-of-seven series moves to Indianapolis, Indiana.	The best-of-seven series move to Indianapolis, Indiana.	207689473	1477540059810	1477540059912	n	78
404889	4372489	The best-of-seven series moves to Indianapolis, Indiana.	The best-of-seven series move to Indianapolis, Indiana.	207689476	1477540060056	1477540060163	d	68
404889	4372489	The best-of-seven series moves to Indianapolis, Indiana.	The best-of-seven series move to Indianapolis, Indiana.	207689478	1477540060202	1477540060306	i	73
404889	4372489	The best-of-seven series moves to Indianapolis, Indiana.	The best-of-seven series move to Indianapolis, Indiana.	207689480	1477540060341	1477540060452	a	65
404889	4372489	The best-of-seven series moves to Indianapolis, Indiana.	The best-of-seven series move to Indianapolis, Indiana.	207689483	1477540060453	1477540060552	n	78
404889	4372489	The best-of-seven series moves to Indianapolis, Indiana.	The best-of-seven series move to Indianapolis, Indiana.	207689509	1477540060782	1477540060917	a	65
404889	4372489	The best-of-seven series moves to Indianapolis, Indiana.	The best-of-seven series move to Indianapolis, Indiana.	207689510	1477540061562	1477540061732	p	80
404889	4372489	The best-of-seven series moves to Indianapolis, Indiana.	The best-of-seven series move to Indianapolis, Indiana.	207689511	1477540061666	1477540061809	o	79
404889	4372489	The best-of-seven series moves to Indianapolis, Indiana.	The best-of-seven series move to Indianapolis, Indiana.	207689512	1477540061850	1477540061961	l	76
404889	4372489	The best-of-seven series moves to Indianapolis, Indiana.	The best-of-seven series move to Indianapolis, Indiana.	207689513	1477540062041	1477540062136	i	73
404889	4372489	The best-of-seven series moves to Indianapolis, Indiana.	The best-of-seven series move to Indianapolis, Indiana.	207689531	1477540062158	1477540062289	s	83
404889	4372489	The best-of-seven series moves to Indianapolis, Indiana.	The best-of-seven series move to Indianapolis, Indiana.	207689532	1477540062258	1477540062353	 	32
404889	4372489	The best-of-seven series moves to Indianapolis, Indiana.	The best-of-seven series move to Indianapolis, Indiana.	207689533	1477540062597	1477540062680	BKSP	8
404889	4372489	The best-of-seven series moves to Indianapolis, Indiana.	The best-of-seven series move to Indianapolis, Indiana.	207689534	1477540062869	1477540063012	,	188
404889	4372489	The best-of-seven series moves to Indianapolis, Indiana.	The best-of-seven series move to Indianapolis, Indiana.	207689535	1477540062989	1477540063064	 	32
404889	4372489	The best-of-seven series moves to Indianapolis, Indiana.	The best-of-seven series move to Indianapolis, Indiana.	207689542	1477540063147	1477540063278	CAPS_LOCK	20
404889	4372489	The best-of-seven series moves to Indianapolis, Indiana.	The best-of-seven series move to Indianapolis, Indiana.	207689536	1477540063177	1477540063259	I	73
404889	4372489	The best-of-seven series moves to Indianapolis, Indiana.	The best-of-seven series move to Indianapolis, Indiana.	207689545	1477540063365	1477540063468	n	78
404889	4372489	The best-of-seven series moves to Indianapolis, Indiana.	The best-of-seven series move to Indianapolis, Indiana.	207689548	1477540063593	1477540063708	d	68
404889	4372489	The best-of-seven series moves to Indianapolis, Indiana.	The best-of-seven series move to Indianapolis, Indiana.	207689551	1477540063709	1477540063820	i	73
404889	4372489	The best-of-seven series moves to Indianapolis, Indiana.	The best-of-seven series move to Indianapolis, Indiana.	207689552	1477540063855	1477540063974	a	65
404889	4372489	The best-of-seven series moves to Indianapolis, Indiana.	The best-of-seven series move to Indianapolis, Indiana.	207689568	1477540063963	1477540064058	n	78
404889	4372489	The best-of-seven series moves to Indianapolis, Indiana.	The best-of-seven series move to Indianapolis, Indiana.	207689571	1477540064121	1477540064211	a	65
404889	4372489	The best-of-seven series moves to Indianapolis, Indiana.	The best-of-seven series move to Indianapolis, Indiana.	207689574	1477540064762	1477540064849	.	190
404889	4372499	I will be out on Friday, but any other day is fine.	I will be out on Friday, but any other day is fine.	207689639	1477540066827	1477540066982	CAPS_LOCK	20
404889	4372499	I will be out on Friday, but any other day is fine.	I will be out on Friday, but any other day is fine.	207689640	1477540066917	1477540066988	I	73
404889	4372499	I will be out on Friday, but any other day is fine.	I will be out on Friday, but any other day is fine.	207689641	1477540067089	1477540067183	 	32
404889	4372499	I will be out on Friday, but any other day is fine.	I will be out on Friday, but any other day is fine.	207689642	1477540067211	1477540067349	w	87
404889	4372499	I will be out on Friday, but any other day is fine.	I will be out on Friday, but any other day is fine.	207689643	1477540067363	1477540067438	i	73
404889	4372499	I will be out on Friday, but any other day is fine.	I will be out on Friday, but any other day is fine.	207689644	1477540067523	1477540067638	l	76
404889	4372499	I will be out on Friday, but any other day is fine.	I will be out on Friday, but any other day is fine.	207689661	1477540067681	1477540067788	l	76
404889	4372499	I will be out on Friday, but any other day is fine.	I will be out on Friday, but any other day is fine.	207689664	1477540067963	1477540068041	 	32
404889	4372499	I will be out on Friday, but any other day is fine.	I will be out on Friday, but any other day is fine.	207689667	1477540068154	1477540068244	b	66
404889	4372499	I will be out on Friday, but any other day is fine.	I will be out on Friday, but any other day is fine.	207689670	1477540068292	1477540068418	e	69
404889	4372499	I will be out on Friday, but any other day is fine.	I will be out on Friday, but any other day is fine.	207689673	1477540068489	1477540068600	 	32
404889	4372499	I will be out on Friday, but any other day is fine.	I will be out on Friday, but any other day is fine.	207689685	1477540068666	1477540068848	o	79
404889	4372499	I will be out on Friday, but any other day is fine.	I will be out on Friday, but any other day is fine.	207689689	1477540068814	1477540068924	u	85
404889	4372499	I will be out on Friday, but any other day is fine.	I will be out on Friday, but any other day is fine.	207689693	1477540068979	1477540069113	t	84
404889	4372499	I will be out on Friday, but any other day is fine.	I will be out on Friday, but any other day is fine.	207689696	1477540069079	1477540069173	 	32
404889	4372499	I will be out on Friday, but any other day is fine.	I will be out on Friday, but any other day is fine.	207689698	1477540069432	1477540069602	o	79
404889	4372499	I will be out on Friday, but any other day is fine.	I will be out on Friday, but any other day is fine.	207689716	1477540069516	1477540069622	n	78
404889	4372499	I will be out on Friday, but any other day is fine.	I will be out on Friday, but any other day is fine.	207689718	1477540069702	1477540069793	 	32
404889	4372499	I will be out on Friday, but any other day is fine.	I will be out on Friday, but any other day is fine.	207689722	1477540069879	1477540070327	CAPS_LOCK	20
404889	4372499	I will be out on Friday, but any other day is fine.	I will be out on Friday, but any other day is fine.	207689720	1477540070094	1477540070220	F	70
404889	4372499	I will be out on Friday, but any other day is fine.	I will be out on Friday, but any other day is fine.	207689725	1477540070560	1477540070666	r	82
404889	4372499	I will be out on Friday, but any other day is fine.	I will be out on Friday, but any other day is fine.	207689730	1477540070719	1477540070816	i	73
404889	4372499	I will be out on Friday, but any other day is fine.	I will be out on Friday, but any other day is fine.	207689734	1477540070865	1477540070960	d	68
404889	4372499	I will be out on Friday, but any other day is fine.	I will be out on Friday, but any other day is fine.	207689765	1477540071101	1477540071235	a	65
404889	4372499	I will be out on Friday, but any other day is fine.	I will be out on Friday, but any other day is fine.	207689766	1477540071247	1477540071375	y	89
404889	4372499	I will be out on Friday, but any other day is fine.	I will be out on Friday, but any other day is fine.	207689768	1477540071791	1477540071913	,	188
404889	4372499	I will be out on Friday, but any other day is fine.	I will be out on Friday, but any other day is fine.	207689770	1477540071899	1477540071977	 	32
404889	4372499	I will be out on Friday, but any other day is fine.	I will be out on Friday, but any other day is fine.	207689772	1477540072117	1477540072267	b	66
404889	4372499	I will be out on Friday, but any other day is fine.	I will be out on Friday, but any other day is fine.	207689806	1477540072233	1477540072342	u	85
404889	4372499	I will be out on Friday, but any other day is fine.	I will be out on Friday, but any other day is fine.	207689809	1477540072480	1477540072592	t	84
404889	4372499	I will be out on Friday, but any other day is fine.	I will be out on Friday, but any other day is fine.	207689812	1477540072572	1477540072699	 	32
404889	4372499	I will be out on Friday, but any other day is fine.	I will be out on Friday, but any other day is fine.	207689815	1477540073175	1477540073305	a	65
404889	4372499	I will be out on Friday, but any other day is fine.	I will be out on Friday, but any other day is fine.	207689818	1477540073359	1477540073485	n	78
404889	4372499	I will be out on Friday, but any other day is fine.	I will be out on Friday, but any other day is fine.	207689820	1477540073609	1477540073695	y	89
404889	4372499	I will be out on Friday, but any other day is fine.	I will be out on Friday, but any other day is fine.	207689827	1477540073704	1477540073819	 	32
404889	4372499	I will be out on Friday, but any other day is fine.	I will be out on Friday, but any other day is fine.	207689828	1477540073847	1477540073967	o	79
404889	4372499	I will be out on Friday, but any other day is fine.	I will be out on Friday, but any other day is fine.	207689830	1477540074008	1477540074105	t	84
404889	4372499	I will be out on Friday, but any other day is fine.	I will be out on Friday, but any other day is fine.	207689833	1477540074104	1477540074202	h	72
404889	4372499	I will be out on Friday, but any other day is fine.	I will be out on Friday, but any other day is fine.	207689836	1477540074231	1477540074337	e	69
404889	4372499	I will be out on Friday, but any other day is fine.	I will be out on Friday, but any other day is fine.	207689849	1477540074426	1477540074528	r	82
404889	4372499	I will be out on Friday, but any other day is fine.	I will be out on Friday, but any other day is fine.	207689850	1477540074547	1477540074637	 	32
404889	4372499	I will be out on Friday, but any other day is fine.	I will be out on Friday, but any other day is fine.	207689851	1477540074737	1477540074839	d	68
404889	4372499	I will be out on Friday, but any other day is fine.	I will be out on Friday, but any other day is fine.	207689852	1477540074964	1477540075079	a	65
404889	4372499	I will be out on Friday, but any other day is fine.	I will be out on Friday, but any other day is fine.	207689876	1477540075067	1477540075134	y	89
404889	4372499	I will be out on Friday, but any other day is fine.	I will be out on Friday, but any other day is fine.	207689877	1477540075256	1477540075350	 	32
404889	4372499	I will be out on Friday, but any other day is fine.	I will be out on Friday, but any other day is fine.	207689878	1477540075704	1477540075734	i	73
404889	4372499	I will be out on Friday, but any other day is fine.	I will be out on Friday, but any other day is fine.	207689879	1477540075906	1477540076032	s	83
404889	4372499	I will be out on Friday, but any other day is fine.	I will be out on Friday, but any other day is fine.	207689880	1477540076051	1477540076157	 	32
404889	4372499	I will be out on Friday, but any other day is fine.	I will be out on Friday, but any other day is fine.	207689881	1477540076285	1477540076403	f	70
404889	4372499	I will be out on Friday, but any other day is fine.	I will be out on Friday, but any other day is fine.	207689885	1477540076385	1477540076519	i	73
404889	4372499	I will be out on Friday, but any other day is fine.	I will be out on Friday, but any other day is fine.	207689886	1477540076469	1477540076579	n	78
404889	4372499	I will be out on Friday, but any other day is fine.	I will be out on Friday, but any other day is fine.	207689887	1477540077210	1477540077340	e	69
404889	4372504	Are you going to call?	Are you going to call?	207689951	1477540079192	1477540079440	CAPS_LOCK	20
404889	4372504	Are you going to call?	Are you going to call?	207689954	1477540079371	1477540079445	A	65
404889	4372504	Are you going to call?	Are you going to call?	207689957	1477540079758	1477540079852	r	82
404889	4372504	Are you going to call?	Are you going to call?	207689960	1477540079921	1477540080031	e	69
404889	4372504	Are you going to call?	Are you going to call?	207689964	1477540080033	1477540080163	 	32
404889	4372504	Are you going to call?	Are you going to call?	207689968	1477540080237	1477540080363	y	89
404889	4372504	Are you going to call?	Are you going to call?	207689985	1477540080382	1477540080632	o	79
404889	4372504	Are you going to call?	Are you going to call?	207689987	1477540080470	1477540080672	u	85
404889	4372504	Are you going to call?	Are you going to call?	207689989	1477540080610	1477540080740	 	32
404889	4372504	Are you going to call?	Are you going to call?	207689992	1477540080984	1477540081086	g	71
404889	4372504	Are you going to call?	Are you going to call?	207689995	1477540081116	1477540081328	o	79
404889	4372504	Are you going to call?	Are you going to call?	207690004	1477540081213	1477540081364	i	73
404889	4372504	Are you going to call?	Are you going to call?	207690007	1477540081306	1477540081388	n	78
404889	4372504	Are you going to call?	Are you going to call?	207690010	1477540081407	1477540081480	g	71
404889	4372504	Are you going to call?	Are you going to call?	207690013	1477540081499	1477540081613	 	32
404889	4372504	Are you going to call?	Are you going to call?	207690015	1477540081630	1477540081725	t	84
404889	4372504	Are you going to call?	Are you going to call?	207690017	1477540081710	1477540081829	o	79
404889	4372504	Are you going to call?	Are you going to call?	207690044	1477540081766	1477540081877	 	32
404889	4372504	Are you going to call?	Are you going to call?	207690046	1477540081929	1477540082035	c	67
404889	4372504	Are you going to call?	Are you going to call?	207690049	1477540082120	1477540082238	a	65
404889	4372504	Are you going to call?	Are you going to call?	207690053	1477540082200	1477540082290	l	76
404889	4372504	Are you going to call?	Are you going to call?	207690056	1477540082349	1477540082447	l	76
404889	4372504	Are you going to call?	Are you going to call?	207690059	1477540082741	1477540082941	SHIFT	16
404889	4372504	Are you going to call?	Are you going to call?	207690052	1477540082911	1477540083001	?	191
404889	4372508	They spent about two hours at Larnaca airport.	They spent about two hours at Larnaca airpot.	207690107	1477540084643	1477540085062	CAPS_LOCK	20
404889	4372508	They spent about two hours at Larnaca airport.	They spent about two hours at Larnaca airpot.	207690105	1477540084946	1477540085037	T	84
404889	4372508	They spent about two hours at Larnaca airport.	They spent about two hours at Larnaca airpot.	207690108	1477540085135	1477540085253	h	72
404889	4372508	They spent about two hours at Larnaca airport.	They spent about two hours at Larnaca airpot.	207690109	1477540085282	1477540085384	e	69
404889	4372508	They spent about two hours at Larnaca airport.	They spent about two hours at Larnaca airpot.	207690111	1477540085329	1477540085444	y	89
404889	4372508	They spent about two hours at Larnaca airport.	They spent about two hours at Larnaca airpot.	207690140	1477540085410	1477540085496	 	32
404889	4372508	They spent about two hours at Larnaca airport.	They spent about two hours at Larnaca airpot.	207690141	1477540085549	1477540085664	s	83
404889	4372508	They spent about two hours at Larnaca airport.	They spent about two hours at Larnaca airpot.	207690142	1477540085702	1477540085737	o	79
404889	4372508	They spent about two hours at Larnaca airport.	They spent about two hours at Larnaca airpot.	207690143	1477540086087	1477540086234	BKSP	8
404889	4372508	They spent about two hours at Larnaca airport.	They spent about two hours at Larnaca airpot.	207690144	1477540086243	1477540086354	p	80
404889	4372508	They spent about two hours at Larnaca airport.	They spent about two hours at Larnaca airpot.	207690145	1477540086363	1477540086490	e	69
404889	4372508	They spent about two hours at Larnaca airport.	They spent about two hours at Larnaca airpot.	207690146	1477540086872	1477540086968	n	78
404889	4372508	They spent about two hours at Larnaca airport.	They spent about two hours at Larnaca airpot.	207690150	1477540087101	1477540087200	t	84
404889	4372508	They spent about two hours at Larnaca airport.	They spent about two hours at Larnaca airpot.	207690154	1477540087254	1477540087333	 	32
404889	4372508	They spent about two hours at Larnaca airport.	They spent about two hours at Larnaca airpot.	207690160	1477540087400	1477540087519	a	65
404889	4372508	They spent about two hours at Larnaca airport.	They spent about two hours at Larnaca airpot.	207690166	1477540087520	1477540087663	b	66
404889	4372508	They spent about two hours at Larnaca airport.	They spent about two hours at Larnaca airpot.	207690195	1477540087584	1477540087807	o	79
404889	4372508	They spent about two hours at Larnaca airport.	They spent about two hours at Larnaca airpot.	207690197	1477540087712	1477540087833	u	85
404889	4372508	They spent about two hours at Larnaca airport.	They spent about two hours at Larnaca airpot.	207690200	1477540087816	1477540087935	t	84
404889	4372508	They spent about two hours at Larnaca airport.	They spent about two hours at Larnaca airpot.	207690203	1477540087937	1477540088031	 	32
404889	4372508	They spent about two hours at Larnaca airport.	They spent about two hours at Larnaca airpot.	207690206	1477540088442	1477540088548	t	84
404889	4372508	They spent about two hours at Larnaca airport.	They spent about two hours at Larnaca airpot.	207690208	1477540088704	1477540088843	w	87
404889	4372508	They spent about two hours at Larnaca airport.	They spent about two hours at Larnaca airpot.	207690236	1477540088841	1477540089036	o	79
404889	4372508	They spent about two hours at Larnaca airport.	They spent about two hours at Larnaca airpot.	207690238	1477540088917	1477540089112	 	32
404889	4372508	They spent about two hours at Larnaca airport.	They spent about two hours at Larnaca airpot.	207690240	1477540089655	1477540089846	h	72
404889	4372508	They spent about two hours at Larnaca airport.	They spent about two hours at Larnaca airpot.	207690242	1477540089739	1477540089990	o	79
404889	4372508	They spent about two hours at Larnaca airport.	They spent about two hours at Larnaca airpot.	207690245	1477540089895	1477540090038	u	85
404889	4372508	They spent about two hours at Larnaca airport.	They spent about two hours at Larnaca airpot.	207690249	1477540090162	1477540090272	r	82
404889	4372508	They spent about two hours at Larnaca airport.	They spent about two hours at Larnaca airpot.	207690273	1477540090446	1477540090573	s	83
404889	4372508	They spent about two hours at Larnaca airport.	They spent about two hours at Larnaca airpot.	207690275	1477540090637	1477540090764	 	32
404889	4372508	They spent about two hours at Larnaca airport.	They spent about two hours at Larnaca airpot.	207690277	1477540090800	1477540090895	a	65
404889	4372508	They spent about two hours at Larnaca airport.	They spent about two hours at Larnaca airpot.	207690278	1477540091089	1477540091187	t	84
404889	4372508	They spent about two hours at Larnaca airport.	They spent about two hours at Larnaca airpot.	207690279	1477540091225	1477540091300	 	32
404889	4372508	They spent about two hours at Larnaca airport.	They spent about two hours at Larnaca airpot.	207690305	1477540091677	1477540091800	l	76
404889	4372508	They spent about two hours at Larnaca airport.	They spent about two hours at Larnaca airpot.	207690394	1477540091878	1477540093305	CAPS_LOCK	20
404889	4372508	They spent about two hours at Larnaca airport.	They spent about two hours at Larnaca airpot.	207690308	1477540092031	1477540092210	A	65
404889	4372508	They spent about two hours at Larnaca airport.	They spent about two hours at Larnaca airpot.	207690311	1477540092385	1477540092500	R	82
404889	4372508	They spent about two hours at Larnaca airport.	They spent about two hours at Larnaca airpot.	207690314	1477540092542	1477540092657	N	78
404889	4372508	They spent about two hours at Larnaca airport.	They spent about two hours at Larnaca airpot.	207690319	1477540092670	1477540092797	A	65
404889	4372508	They spent about two hours at Larnaca airport.	They spent about two hours at Larnaca airpot.	207690387	1477540092893	1477540093016	C	67
404889	4372508	They spent about two hours at Larnaca airport.	They spent about two hours at Larnaca airpot.	207690390	1477540093056	1477540093181	A	65
404889	4372508	They spent about two hours at Larnaca airport.	They spent about two hours at Larnaca airpot.	207690392	1477540093156	1477540093248	 	32
404889	4372508	They spent about two hours at Larnaca airport.	They spent about two hours at Larnaca airpot.	207690396	1477540093800	1477540093883	BKSP	8
404889	4372508	They spent about two hours at Larnaca airport.	They spent about two hours at Larnaca airpot.	207690399	1477540093945	1477540093996	BKSP	8
404889	4372508	They spent about two hours at Larnaca airport.	They spent about two hours at Larnaca airpot.	207690402	1477540094089	1477540094132	BKSP	8
404889	4372508	They spent about two hours at Larnaca airport.	They spent about two hours at Larnaca airpot.	207690404	1477540094198	1477540094241	BKSP	8
404889	4372508	They spent about two hours at Larnaca airport.	They spent about two hours at Larnaca airpot.	207690408	1477540094307	1477540094370	BKSP	8
404889	4372508	They spent about two hours at Larnaca airport.	They spent about two hours at Larnaca airpot.	207690410	1477540094424	1477540094459	BKSP	8
404889	4372508	They spent about two hours at Larnaca airport.	They spent about two hours at Larnaca airpot.	207690412	1477540094539	1477540094690	BKSP	8
404889	4372508	They spent about two hours at Larnaca airport.	They spent about two hours at Larnaca airpot.	207690414	1477540094924	1477540095015	BKSP	8
404889	4372508	They spent about two hours at Larnaca airport.	They spent about two hours at Larnaca airpot.	207690418	1477540095282	1477540095479	CAPS_LOCK	20
404889	4372508	They spent about two hours at Larnaca airport.	They spent about two hours at Larnaca airpot.	207690420	1477540095644	1477540095723	l	76
404889	4372508	They spent about two hours at Larnaca airport.	They spent about two hours at Larnaca airpot.	207690454	1477540095824	1477540096619	CAPS_LOCK	20
404889	4372508	They spent about two hours at Larnaca airport.	They spent about two hours at Larnaca airpot.	207690422	1477540095978	1477540096097	A	65
404889	4372508	They spent about two hours at Larnaca airport.	They spent about two hours at Larnaca airpot.	207690451	1477540096214	1477540096289	BKSP	8
404889	4372508	They spent about two hours at Larnaca airport.	They spent about two hours at Larnaca airpot.	207690452	1477540096352	1477540096439	BKSP	8
404889	4372508	They spent about two hours at Larnaca airport.	They spent about two hours at Larnaca airpot.	207690453	1477540096492	1477540096584	L	76
404889	4372508	They spent about two hours at Larnaca airport.	They spent about two hours at Larnaca airpot.	207690455	1477540096862	1477540097013	a	65
404889	4372508	They spent about two hours at Larnaca airport.	They spent about two hours at Larnaca airpot.	207690457	1477540097238	1477540097349	r	82
404889	4372508	They spent about two hours at Larnaca airport.	They spent about two hours at Larnaca airpot.	207690459	1477540098068	1477540098131	n	78
404889	4372508	They spent about two hours at Larnaca airport.	They spent about two hours at Larnaca airpot.	207690461	1477540098272	1477540098351	a	65
404889	4372508	They spent about two hours at Larnaca airport.	They spent about two hours at Larnaca airpot.	207690506	1477540098911	1477540099054	c	67
404889	4372508	They spent about two hours at Larnaca airport.	They spent about two hours at Larnaca airpot.	207690508	1477540099126	1477540099273	a	65
404889	4372508	They spent about two hours at Larnaca airport.	They spent about two hours at Larnaca airpot.	207690510	1477540099234	1477540099329	 	32
404889	4372508	They spent about two hours at Larnaca airport.	They spent about two hours at Larnaca airpot.	207690512	1477540099593	1477540099729	a	65
404889	4372508	They spent about two hours at Larnaca airport.	They spent about two hours at Larnaca airpot.	207690513	1477540099828	1477540099903	BKSP	8
404889	4372508	They spent about two hours at Larnaca airport.	They spent about two hours at Larnaca airpot.	207690514	1477540099971	1477540100042	BKSP	8
404889	4372508	They spent about two hours at Larnaca airport.	They spent about two hours at Larnaca airpot.	207690517	1477540100099	1477540100230	a	65
404889	4372508	They spent about two hours at Larnaca airport.	They spent about two hours at Larnaca airpot.	207690550	1477540100485	1477540100580	BKSP	8
404889	4372508	They spent about two hours at Larnaca airport.	They spent about two hours at Larnaca airpot.	207690551	1477540100833	1477540100936	 	32
404889	4372508	They spent about two hours at Larnaca airport.	They spent about two hours at Larnaca airpot.	207690552	1477540101012	1477540101147	a	65
404889	4372508	They spent about two hours at Larnaca airport.	They spent about two hours at Larnaca airpot.	207690553	1477540101572	1477540101659	i	73
404889	4372508	They spent about two hours at Larnaca airport.	They spent about two hours at Larnaca airpot.	207690554	1477540101853	1477540101991	r	82
404889	4372508	They spent about two hours at Larnaca airport.	They spent about two hours at Larnaca airpot.	207690560	1477540101989	1477540102140	p	80
404889	4372508	They spent about two hours at Larnaca airport.	They spent about two hours at Larnaca airpot.	207690561	1477540102081	1477540102200	o	79
404889	4372508	They spent about two hours at Larnaca airport.	They spent about two hours at Larnaca airpot.	207690563	1477540102259	1477540102402	t	84
