PARTICIPANT_ID	TEST_SECTION_ID	SENTENCE	USER_INPUT	KEYSTROKE_ID	PRESS_TIME	RELEASE_TIME	LETTER	KEYCODE
414966	4479870	What do you hear?	What do you hear?	212796725	1477664008861	1477664008995	SHIFT	16
414966	4479870	What do you hear?	What do you hear?	212796731	1477664008965	1477664009035	W	87
414966	4479870	What do you hear?	What do you hear?	212796739	1477664009068	1477664009155	h	72
414966	4479870	What do you hear?	What do you hear?	212796742	1477664009124	1477664009227	a	65
414966	4479870	What do you hear?	What do you hear?	212796749	1477664009204	1477664009275	t	84
414966	4479870	What do you hear?	What do you hear?	212796787	1477664009252	1477664009373	 	32
414966	4479870	What do you hear?	What do you hear?	212796798	1477664009372	1477664009452	d	68
414966	4479870	What do you hear?	What do you hear?	212796807	1477664009412	1477664009517	o	79
414966	4479870	What do you hear?	What do you hear?	212796815	1477664009500	1477664009603	 	32
414966	4479870	What do you hear?	What do you hear?	212796823	1477664009564	1477664009651	y	89
414966	4479870	What do you hear?	What do you hear?	212796831	1477664010076	1477664010227	o	79
414966	4479870	What do you hear?	What do you hear?	212796838	1477664010196	1477664010307	u	85
414966	4479870	What do you hear?	What do you hear?	212796842	1477664010284	1477664010411	 	32
414966	4479870	What do you hear?	What do you hear?	212796846	1477664010388	1477664010475	h	72
414966	4479870	What do you hear?	What do you hear?	212796848	1477664010468	1477664010555	e	69
414966	4479870	What do you hear?	What do you hear?	212796849	1477664010516	1477664010603	a	65
414966	4479870	What do you hear?	What do you hear?	212796852	1477664010564	1477664010659	r	82
414966	4479870	What do you hear?	What do you hear?	212796854	1477664010644	1477664010740	SHIFT	16
414966	4480339	Talk to you soon.	Talk to you soon.	212796961	1477664011820	1477664011971	SHIFT	16
414966	4480339	Talk to you soon.	Talk to you soon.	212796967	1477664011924	1477664012003	T	84
414966	4480339	Talk to you soon.	Talk to you soon.	212796973	1477664012012	1477664012091	a	65
414966	4480339	Talk to you soon.	Talk to you soon.	212796979	1477664012108	1477664012180	k	76
414966	4480339	Talk to you soon.	Talk to you soon.	212797002	1477664012212	1477664012331	 	32
414966	4480339	Talk to you soon.	Talk to you soon.	212797007	1477664012308	1477664012411	t	84
414966	4480339	Talk to you soon.	Talk to you soon.	212797012	1477664012356	1477664012443	o	79
414966	4480339	Talk to you soon.	Talk to you soon.	212797015	1477664012460	1477664012573	 	32
414966	4480339	Talk to you soon.	Talk to you soon.	212797019	1477664012556	1477664012627	y	89
414966	4480339	Talk to you soon.	Talk to you soon.	212797021	1477664012644	1477664012739	o	79
414966	4480339	Talk to you soon.	Talk to you soon.	212797031	1477664012732	1477664012811	u	85
414966	4480339	Talk to you soon.	Talk to you soon.	212797035	1477664012780	1477664012883	 	32
414966	4480339	Talk to you soon.	Talk to you soon.	212797040	1477664012852	1477664012947	s	83
414966	4480339	Talk to you soon.	Talk to you soon.	212797044	1477664012924	1477664012979	o	79
414966	4480339	Talk to you soon.	Talk to you soon.	212797047	1477664013052	1477664013139	o	79
414966	4480339	Talk to you soon.	Talk to you soon.	212797059	1477664013100	1477664013187	n	78
414966	4480339	Talk to you soon.	Talk to you soon.	212797065	1477664013251	1477664013347	SHIFT	16
414966	4480342	The statement gave no further details of the incident.	The statement gave no further details of the incident.	212797192	1477664014372	1477664014515	SHIFT	16
414966	4480342	The statement gave no further details of the incident.	The statement gave no further details of the incident.	212797195	1477664014476	1477664014555	T	84
414966	4480342	The statement gave no further details of the incident.	The statement gave no further details of the incident.	212797198	1477664014588	1477664014676	h	72
414966	4480342	The statement gave no further details of the incident.	The statement gave no further details of the incident.	212797205	1477664014652	1477664014739	e	69
414966	4480342	The statement gave no further details of the incident.	The statement gave no further details of the incident.	212797210	1477664014748	1477664014843	 	32
414966	4480342	The statement gave no further details of the incident.	The statement gave no further details of the incident.	212797214	1477664015116	1477664015171	t	84
414966	4480342	The statement gave no further details of the incident.	The statement gave no further details of the incident.	212797241	1477664015412	1477664015483	BKSP	8
414966	4480342	The statement gave no further details of the incident.	The statement gave no further details of the incident.	212797244	1477664015460	1477664015531	s	83
414966	4480342	The statement gave no further details of the incident.	The statement gave no further details of the incident.	212797247	1477664015524	1477664015587	t	84
414966	4480342	The statement gave no further details of the incident.	The statement gave no further details of the incident.	212797252	1477664015596	1477664015707	a	65
414966	4480342	The statement gave no further details of the incident.	The statement gave no further details of the incident.	212797259	1477664015676	1477664015771	t	84
414966	4480342	The statement gave no further details of the incident.	The statement gave no further details of the incident.	212797274	1477664015764	1477664015859	e	69
414966	4480342	The statement gave no further details of the incident.	The statement gave no further details of the incident.	212797277	1477664015852	1477664015923	m	77
414966	4480342	The statement gave no further details of the incident.	The statement gave no further details of the incident.	212797282	1477664015940	1477664016019	e	69
414966	4480342	The statement gave no further details of the incident.	The statement gave no further details of the incident.	212797284	1477664015996	1477664016091	n	78
414966	4480342	The statement gave no further details of the incident.	The statement gave no further details of the incident.	212797290	1477664016076	1477664016171	t	84
414966	4480342	The statement gave no further details of the incident.	The statement gave no further details of the incident.	212797346	1477664016164	1477664016267	 	32
414966	4480342	The statement gave no further details of the incident.	The statement gave no further details of the incident.	212797351	1477664016236	1477664016323	g	71
414966	4480342	The statement gave no further details of the incident.	The statement gave no further details of the incident.	212797354	1477664016308	1477664016379	a	65
414966	4480342	The statement gave no further details of the incident.	The statement gave no further details of the incident.	212797358	1477664016508	1477664016563	v	86
414966	4480342	The statement gave no further details of the incident.	The statement gave no further details of the incident.	212797361	1477664017084	1477664017187	e	69
414966	4480342	The statement gave no further details of the incident.	The statement gave no further details of the incident.	212797364	1477664017204	1477664017299	 	32
414966	4480342	The statement gave no further details of the incident.	The statement gave no further details of the incident.	212797378	1477664017268	1477664017363	n	78
414966	4480342	The statement gave no further details of the incident.	The statement gave no further details of the incident.	212797385	1477664017340	1477664017435	o	79
414966	4480342	The statement gave no further details of the incident.	The statement gave no further details of the incident.	212797390	1477664017436	1477664017547	 	32
414966	4480342	The statement gave no further details of the incident.	The statement gave no further details of the incident.	212797400	1477664017516	1477664017611	f	70
414966	4480342	The statement gave no further details of the incident.	The statement gave no further details of the incident.	212797408	1477664017684	1477664017770	u	85
414966	4480342	The statement gave no further details of the incident.	The statement gave no further details of the incident.	212797422	1477664017763	1477664017827	r	82
414966	4480342	The statement gave no further details of the incident.	The statement gave no further details of the incident.	212797428	1477664017891	1477664017963	h	84
414966	4480342	The statement gave no further details of the incident.	The statement gave no further details of the incident.	212797433	1477664018019	1477664018099	e	69
414966	4480342	The statement gave no further details of the incident.	The statement gave no further details of the incident.	212797440	1477664018075	1477664018162	r	82
414966	4480342	The statement gave no further details of the incident.	The statement gave no further details of the incident.	212797459	1477664018155	1477664018267	 	32
414966	4480342	The statement gave no further details of the incident.	The statement gave no further details of the incident.	212797456	1477664018203	1477664018259	d	68
414966	4480342	The statement gave no further details of the incident.	The statement gave no further details of the incident.	212797462	1477664018339	1477664018443	e	69
414966	4480342	The statement gave no further details of the incident.	The statement gave no further details of the incident.	212797465	1477664018420	1477664018531	t	84
414966	4480342	The statement gave no further details of the incident.	The statement gave no further details of the incident.	212797468	1477664018499	1477664018595	a	65
414966	4480342	The statement gave no further details of the incident.	The statement gave no further details of the incident.	212797497	1477664018579	1477664018683	i	73
414966	4480342	The statement gave no further details of the incident.	The statement gave no further details of the incident.	212797505	1477664018643	1477664018747	l	76
414966	4480342	The statement gave no further details of the incident.	The statement gave no further details of the incident.	212797513	1477664018715	1477664018802	s	83
414966	4480342	The statement gave no further details of the incident.	The statement gave no further details of the incident.	212797520	1477664018796	1477664018891	 	32
414966	4480342	The statement gave no further details of the incident.	The statement gave no further details of the incident.	212797527	1477664018980	1477664019075	o	79
414966	4480342	The statement gave no further details of the incident.	The statement gave no further details of the incident.	212797535	1477664019155	1477664019243	f	70
414966	4480342	The statement gave no further details of the incident.	The statement gave no further details of the incident.	212797540	1477664019275	1477664019395	 	32
414966	4480342	The statement gave no further details of the incident.	The statement gave no further details of the incident.	212797545	1477664019364	1477664019459	t	84
414966	4480342	The statement gave no further details of the incident.	The statement gave no further details of the incident.	212797550	1477664019419	1477664019530	h	72
414966	4480342	The statement gave no further details of the incident.	The statement gave no further details of the incident.	212797555	1477664019507	1477664019603	e	69
414966	4480342	The statement gave no further details of the incident.	The statement gave no further details of the incident.	212797575	1477664019587	1477664019699	 	32
414966	4480342	The statement gave no further details of the incident.	The statement gave no further details of the incident.	212797580	1477664019675	1477664019771	i	73
414966	4480342	The statement gave no further details of the incident.	The statement gave no further details of the incident.	212797583	1477664019739	1477664019851	n	78
414966	4480342	The statement gave no further details of the incident.	The statement gave no further details of the incident.	212797588	1477664019787	1477664019867	c	67
414966	4480342	The statement gave no further details of the incident.	The statement gave no further details of the incident.	212797592	1477664019899	1477664019987	i	73
414966	4480342	The statement gave no further details of the incident.	The statement gave no further details of the incident.	212797597	1477664020003	1477664020043	d	68
414966	4480342	The statement gave no further details of the incident.	The statement gave no further details of the incident.	212797611	1477664020115	1477664020227	e	69
414966	4480342	The statement gave no further details of the incident.	The statement gave no further details of the incident.	212797616	1477664020228	1477664020307	n	78
414966	4480342	The statement gave no further details of the incident.	The statement gave no further details of the incident.	212797624	1477664020324	1477664020419	t	84
414966	4480342	The statement gave no further details of the incident.	The statement gave no further details of the incident.	212797628	1477664020387	1477664020491	SHIFT	16
414966	4480354	Scotty and I will be in NYC.	Scotty and I will be in NYC.	212797718	1477664021851	1477664021979	SHIFT	16
414966	4480354	Scotty and I will be in NYC.	Scotty and I will be in NYC.	212797720	1477664021891	1477664021987	S	83
414966	4480354	Scotty and I will be in NYC.	Scotty and I will be in NYC.	212797725	1477664022059	1477664022123	c	67
414966	4480354	Scotty and I will be in NYC.	Scotty and I will be in NYC.	212797730	1477664022116	1477664022211	o	79
414966	4480354	Scotty and I will be in NYC.	Scotty and I will be in NYC.	212797736	1477664022227	1477664022275	t	84
414966	4480354	Scotty and I will be in NYC.	Scotty and I will be in NYC.	212797741	1477664022347	1477664022435	t	84
414966	4480354	Scotty and I will be in NYC.	Scotty and I will be in NYC.	212797762	1477664022580	1477664022667	y	89
414966	4480354	Scotty and I will be in NYC.	Scotty and I will be in NYC.	212797767	1477664022675	1477664022787	 	32
414966	4480354	Scotty and I will be in NYC.	Scotty and I will be in NYC.	212797769	1477664022763	1477664022835	a	65
414966	4480354	Scotty and I will be in NYC.	Scotty and I will be in NYC.	212797773	1477664022915	1477664023011	d	68
414966	4480354	Scotty and I will be in NYC.	Scotty and I will be in NYC.	212797881	1477664022939	1477664023075	n	78
414966	4480354	Scotty and I will be in NYC.	Scotty and I will be in NYC.	212797882	1477664023083	1477664023243	 	32
414966	4480354	Scotty and I will be in NYC.	Scotty and I will be in NYC.	212797885	1477664023555	1477664023611	BKSP	8
414966	4480354	Scotty and I will be in NYC.	Scotty and I will be in NYC.	212797888	1477664023691	1477664023755	BKSP	8
414966	4480354	Scotty and I will be in NYC.	Scotty and I will be in NYC.	212797891	1477664023827	1477664023899	BKSP	8
414966	4480354	Scotty and I will be in NYC.	Scotty and I will be in NYC.	212797894	1477664024011	1477664024099	n	78
414966	4480354	Scotty and I will be in NYC.	Scotty and I will be in NYC.	212797897	1477664024076	1477664024195	d	68
414966	4480354	Scotty and I will be in NYC.	Scotty and I will be in NYC.	212797899	1477664024163	1477664024283	 	32
414966	4480354	Scotty and I will be in NYC.	Scotty and I will be in NYC.	212797901	1477664024451	1477664024603	SHIFT	16
414966	4480354	Scotty and I will be in NYC.	Scotty and I will be in NYC.	212797913	1477664024515	1477664024651	I	73
414966	4480354	Scotty and I will be in NYC.	Scotty and I will be in NYC.	212797917	1477664024619	1477664024717	 	32
414966	4480354	Scotty and I will be in NYC.	Scotty and I will be in NYC.	212797919	1477664024716	1477664024827	w	87
414966	4480354	Scotty and I will be in NYC.	Scotty and I will be in NYC.	212797921	1477664024779	1477664024859	i	73
414966	4480354	Scotty and I will be in NYC.	Scotty and I will be in NYC.	212797924	1477664024947	1477664025051	l	76
414966	4480354	Scotty and I will be in NYC.	Scotty and I will be in NYC.	212797928	1477664025107	1477664025219	l	76
414966	4480354	Scotty and I will be in NYC.	Scotty and I will be in NYC.	212797958	1477664025179	1477664025315	 	32
414966	4480354	Scotty and I will be in NYC.	Scotty and I will be in NYC.	212797955	1477664025243	1477664025307	b	66
414966	4480354	Scotty and I will be in NYC.	Scotty and I will be in NYC.	212797962	1477664025379	1477664025490	e	69
414966	4480354	Scotty and I will be in NYC.	Scotty and I will be in NYC.	212797967	1477664025483	1477664025587	 	32
414966	4480354	Scotty and I will be in NYC.	Scotty and I will be in NYC.	212797972	1477664025731	1477664025859	i	73
414966	4480354	Scotty and I will be in NYC.	Scotty and I will be in NYC.	212798006	1477664025787	1477664025907	n	78
414966	4480354	Scotty and I will be in NYC.	Scotty and I will be in NYC.	212798008	1477664025915	1477664025987	 	32
414966	4480354	Scotty and I will be in NYC.	Scotty and I will be in NYC.	212798026	1477664026019	1477664026555	SHIFT	16
414966	4480354	Scotty and I will be in NYC.	Scotty and I will be in NYC.	212798012	1477664026075	1477664026155	N	78
414966	4480354	Scotty and I will be in NYC.	Scotty and I will be in NYC.	212798015	1477664026235	1477664026291	Y	89
414966	4480354	Scotty and I will be in NYC.	Scotty and I will be in NYC.	212798020	1477664026275	1477664026371	C	67
414966	4480362	But he added the list given was still incomplete.	But he added the list given was still incomplete.	212798116	1477664027876	1477664028058	SHIFT	16
414966	4480362	But he added the list given was still incomplete.	But he added the list given was still incomplete.	212798121	1477664028019	1477664028090	B	66
414966	4480362	But he added the list given was still incomplete.	But he added the list given was still incomplete.	212798125	1477664028115	1477664028202	u	85
414966	4480362	But he added the list given was still incomplete.	But he added the list given was still incomplete.	212798132	1477664028211	1477664028306	t	84
414966	4480362	But he added the list given was still incomplete.	But he added the list given was still incomplete.	212798139	1477664028283	1477664028394	 	32
414966	4480362	But he added the list given was still incomplete.	But he added the list given was still incomplete.	212798161	1477664028339	1477664028426	h	72
414966	4480362	But he added the list given was still incomplete.	But he added the list given was still incomplete.	212798166	1477664028411	1477664028506	e	69
414966	4480362	But he added the list given was still incomplete.	But he added the list given was still incomplete.	212798169	1477664028499	1477664028562	a	65
414966	4480362	But he added the list given was still incomplete.	But he added the list given was still incomplete.	212798173	1477664028563	1477664028666	 	32
414966	4480362	But he added the list given was still incomplete.	But he added the list given was still incomplete.	212798177	1477664028651	1477664028722	d	68
414966	4480362	But he added the list given was still incomplete.	But he added the list given was still incomplete.	212798180	1477664028787	1477664028858	d	68
414966	4480362	But he added the list given was still incomplete.	But he added the list given was still incomplete.	212798297	1477664028923	1477664028970	e	69
414966	4480362	But he added the list given was still incomplete.	But he added the list given was still incomplete.	212798303	1477664029051	1477664029138	d	68
414966	4480362	But he added the list given was still incomplete.	But he added the list given was still incomplete.	212798308	1477664029227	1477664029290	BKSP	8
414966	4480362	But he added the list given was still incomplete.	But he added the list given was still incomplete.	212798310	1477664029355	1477664029426	BKSP	8
414966	4480362	But he added the list given was still incomplete.	But he added the list given was still incomplete.	212798314	1477664029499	1477664029571	BKSP	8
414966	4480362	But he added the list given was still incomplete.	But he added the list given was still incomplete.	212798316	1477664029643	1477664029722	BKSP	8
414966	4480362	But he added the list given was still incomplete.	But he added the list given was still incomplete.	212798321	1477664029779	1477664029850	BKSP	8
414966	4480362	But he added the list given was still incomplete.	But he added the list given was still incomplete.	212798326	1477664029923	1477664029986	BKSP	8
414966	4480362	But he added the list given was still incomplete.	But he added the list given was still incomplete.	212798332	1477664030107	1477664030218	 	32
414966	4480362	But he added the list given was still incomplete.	But he added the list given was still incomplete.	212798339	1477664030243	1477664030307	a	65
414966	4480362	But he added the list given was still incomplete.	But he added the list given was still incomplete.	212798344	1477664030643	1477664030738	d	68
414966	4480362	But he added the list given was still incomplete.	But he added the list given was still incomplete.	212798352	1477664030827	1477664030890	d	68
414966	4480362	But he added the list given was still incomplete.	But he added the list given was still incomplete.	212798353	1477664030971	1477664031058	e	69
414966	4480362	But he added the list given was still incomplete.	But he added the list given was still incomplete.	212798354	1477664031147	1477664031219	d	68
414966	4480362	But he added the list given was still incomplete.	But he added the list given was still incomplete.	212798356	1477664031251	1477664031362	 	32
414966	4480362	But he added the list given was still incomplete.	But he added the list given was still incomplete.	212798362	1477664031339	1477664031426	t	84
414966	4480362	But he added the list given was still incomplete.	But he added the list given was still incomplete.	212798364	1477664031411	1477664031514	h	72
414966	4480362	But he added the list given was still incomplete.	But he added the list given was still incomplete.	212798366	1477664031483	1477664031570	e	69
414966	4480362	But he added the list given was still incomplete.	But he added the list given was still incomplete.	212798369	1477664031563	1477664031666	 	32
414966	4480362	But he added the list given was still incomplete.	But he added the list given was still incomplete.	212798387	1477664031603	1477664031676	l	76
414966	4480362	But he added the list given was still incomplete.	But he added the list given was still incomplete.	212798392	1477664031651	1477664031738	i	73
414966	4480362	But he added the list given was still incomplete.	But he added the list given was still incomplete.	212798401	1477664031683	1477664031762	s	83
414966	4480362	But he added the list given was still incomplete.	But he added the list given was still incomplete.	212798407	1477664031723	1477664031810	t	84
414966	4480362	But he added the list given was still incomplete.	But he added the list given was still incomplete.	212798412	1477664031803	1477664031914	 	32
414966	4480362	But he added the list given was still incomplete.	But he added the list given was still incomplete.	212798416	1477664031891	1477664031963	g	71
414966	4480362	But he added the list given was still incomplete.	But he added the list given was still incomplete.	212798421	1477664031979	1477664032066	i	73
414966	4480362	But he added the list given was still incomplete.	But he added the list given was still incomplete.	212798435	1477664032043	1477664032123	v	86
414966	4480362	But he added the list given was still incomplete.	But he added the list given was still incomplete.	212798440	1477664032155	1477664032219	e	69
414966	4480362	But he added the list given was still incomplete.	But he added the list given was still incomplete.	212798445	1477664032195	1477664032274	n	78
414966	4480362	But he added the list given was still incomplete.	But he added the list given was still incomplete.	212798452	1477664032243	1477664032362	 	32
414966	4480362	But he added the list given was still incomplete.	But he added the list given was still incomplete.	212798460	1477664032299	1477664032378	w	87
414966	4480362	But he added the list given was still incomplete.	But he added the list given was still incomplete.	212798466	1477664032459	1477664032546	a	65
414966	4480362	But he added the list given was still incomplete.	But he added the list given was still incomplete.	212798504	1477664032522	1477664032602	s	83
414966	4480362	But he added the list given was still incomplete.	But he added the list given was still incomplete.	212798510	1477664032611	1477664032707	 	32
414966	4480362	But he added the list given was still incomplete.	But he added the list given was still incomplete.	212798516	1477664032859	1477664032986	s	83
414966	4480362	But he added the list given was still incomplete.	But he added the list given was still incomplete.	212798520	1477664032979	1477664033074	t	84
414966	4480362	But he added the list given was still incomplete.	But he added the list given was still incomplete.	212798530	1477664033051	1477664033146	i	73
414966	4480362	But he added the list given was still incomplete.	But he added the list given was still incomplete.	212798538	1477664033235	1477664033338	l	76
414966	4480362	But he added the list given was still incomplete.	But he added the list given was still incomplete.	212798557	1477664033387	1477664033482	l	76
414966	4480362	But he added the list given was still incomplete.	But he added the list given was still incomplete.	212798560	1477664033579	1477664033691	 	32
414966	4480362	But he added the list given was still incomplete.	But he added the list given was still incomplete.	212798562	1477664033771	1477664033875	i	73
414966	4480362	But he added the list given was still incomplete.	But he added the list given was still incomplete.	212798567	1477664033811	1477664033930	n	78
414966	4480362	But he added the list given was still incomplete.	But he added the list given was still incomplete.	212798616	1477664033923	1477664034018	c	67
414966	4480362	But he added the list given was still incomplete.	But he added the list given was still incomplete.	212798619	1477664034011	1477664034090	o	79
414966	4480362	But he added the list given was still incomplete.	But he added the list given was still incomplete.	212798622	1477664034283	1477664034362	m	77
414966	4480362	But he added the list given was still incomplete.	But he added the list given was still incomplete.	212798623	1477664034547	1477664034619	p	80
414966	4480362	But he added the list given was still incomplete.	But he added the list given was still incomplete.	212798626	1477664034723	1477664034802	l	76
414966	4480362	But he added the list given was still incomplete.	But he added the list given was still incomplete.	212798654	1477664034786	1477664034858	e	69
414966	4480362	But he added the list given was still incomplete.	But he added the list given was still incomplete.	212798659	1477664034851	1477664034946	t	84
414966	4480362	But he added the list given was still incomplete.	But he added the list given was still incomplete.	212798663	1477664034931	1477664035010	e	69
414966	4480362	But he added the list given was still incomplete.	But he added the list given was still incomplete.	212798666	1477664034970	1477664035058	SHIFT	16
414966	4480374	Do you want to eat lunch somewhere before?	Do you want to eat lunch somewhere before?	212798758	1477664036235	1477664036379	SHIFT	16
414966	4480374	Do you want to eat lunch somewhere before?	Do you want to eat lunch somewhere before?	212798762	1477664036331	1477664036426	D	68
414966	4480374	Do you want to eat lunch somewhere before?	Do you want to eat lunch somewhere before?	212798767	1477664036459	1477664036554	o	79
414966	4480374	Do you want to eat lunch somewhere before?	Do you want to eat lunch somewhere before?	212798771	1477664036539	1477664036643	 	32
414966	4480374	Do you want to eat lunch somewhere before?	Do you want to eat lunch somewhere before?	212798774	1477664036611	1477664036674	y	89
414966	4480374	Do you want to eat lunch somewhere before?	Do you want to eat lunch somewhere before?	212798777	1477664036667	1477664036763	o	79
414966	4480374	Do you want to eat lunch somewhere before?	Do you want to eat lunch somewhere before?	212798779	1477664036731	1477664036827	u	85
414966	4480374	Do you want to eat lunch somewhere before?	Do you want to eat lunch somewhere before?	212798787	1477664036787	1477664036898	 	32
414966	4480374	Do you want to eat lunch somewhere before?	Do you want to eat lunch somewhere before?	212798783	1477664036851	1477664036890	w	87
414966	4480374	Do you want to eat lunch somewhere before?	Do you want to eat lunch somewhere before?	212798791	1477664036979	1477664037066	a	65
414966	4480374	Do you want to eat lunch somewhere before?	Do you want to eat lunch somewhere before?	212798807	1477664037019	1477664037122	n	78
414966	4480374	Do you want to eat lunch somewhere before?	Do you want to eat lunch somewhere before?	212798808	1477664037075	1477664037154	t	84
414966	4480374	Do you want to eat lunch somewhere before?	Do you want to eat lunch somewhere before?	212798811	1477664037179	1477664037282	 	32
414966	4480374	Do you want to eat lunch somewhere before?	Do you want to eat lunch somewhere before?	212798813	1477664037267	1477664037346	t	84
414966	4480374	Do you want to eat lunch somewhere before?	Do you want to eat lunch somewhere before?	212798816	1477664037323	1477664037442	o	79
414966	4480374	Do you want to eat lunch somewhere before?	Do you want to eat lunch somewhere before?	212798885	1477664037435	1477664037490	 	84
414966	4480374	Do you want to eat lunch somewhere before?	Do you want to eat lunch somewhere before?	212798887	1477664037627	1477664037722	e	69
414966	4480374	Do you want to eat lunch somewhere before?	Do you want to eat lunch somewhere before?	212798889	1477664037915	1477664037978	BKSP	8
414966	4480374	Do you want to eat lunch somewhere before?	Do you want to eat lunch somewhere before?	212798891	1477664038058	1477664038114	BKSP	8
414966	4480374	Do you want to eat lunch somewhere before?	Do you want to eat lunch somewhere before?	212798893	1477664038218	1477664038282	 	8
414966	4480374	Do you want to eat lunch somewhere before?	Do you want to eat lunch somewhere before?	212798894	1477664038442	1477664038538	e	69
414966	4480374	Do you want to eat lunch somewhere before?	Do you want to eat lunch somewhere before?	212798895	1477664038578	1477664038690	a	65
414966	4480374	Do you want to eat lunch somewhere before?	Do you want to eat lunch somewhere before?	212798910	1477664038634	1477664038746	t	84
414966	4480374	Do you want to eat lunch somewhere before?	Do you want to eat lunch somewhere before?	212798915	1477664038731	1477664038818	 	32
414966	4480374	Do you want to eat lunch somewhere before?	Do you want to eat lunch somewhere before?	212798919	1477664038802	1477664038858	l	76
414966	4480374	Do you want to eat lunch somewhere before?	Do you want to eat lunch somewhere before?	212798921	1477664038834	1477664038914	u	85
414966	4480374	Do you want to eat lunch somewhere before?	Do you want to eat lunch somewhere before?	212798923	1477664039027	1477664039114	n	78
414966	4480374	Do you want to eat lunch somewhere before?	Do you want to eat lunch somewhere before?	212798924	1477664039122	1477664039210	c	67
414966	4480374	Do you want to eat lunch somewhere before?	Do you want to eat lunch somewhere before?	212798932	1477664039186	1477664039274	h	72
414966	4480374	Do you want to eat lunch somewhere before?	Do you want to eat lunch somewhere before?	212798933	1477664039330	1477664039426	 	32
414966	4480374	Do you want to eat lunch somewhere before?	Do you want to eat lunch somewhere before?	212798935	1477664039362	1477664039458	s	83
414966	4480374	Do you want to eat lunch somewhere before?	Do you want to eat lunch somewhere before?	212798939	1477664039499	1477664039594	m	79
414966	4480374	Do you want to eat lunch somewhere before?	Do you want to eat lunch somewhere before?	212798982	1477664039626	1477664039690	e	69
414966	4480374	Do you want to eat lunch somewhere before?	Do you want to eat lunch somewhere before?	212798985	1477664039770	1477664039866	w	87
414966	4480374	Do you want to eat lunch somewhere before?	Do you want to eat lunch somewhere before?	212798989	1477664039834	1477664039929	h	72
414966	4480374	Do you want to eat lunch somewhere before?	Do you want to eat lunch somewhere before?	212798993	1477664039922	1477664040010	e	69
414966	4480374	Do you want to eat lunch somewhere before?	Do you want to eat lunch somewhere before?	212798998	1477664039962	1477664040066	r	82
414966	4480374	Do you want to eat lunch somewhere before?	Do you want to eat lunch somewhere before?	212799000	1477664040315	1477664040394	e	69
414966	4480374	Do you want to eat lunch somewhere before?	Do you want to eat lunch somewhere before?	212799021	1477664040410	1477664040513	 	32
414966	4480374	Do you want to eat lunch somewhere before?	Do you want to eat lunch somewhere before?	212799023	1477664040506	1477664040570	b	66
414966	4480374	Do you want to eat lunch somewhere before?	Do you want to eat lunch somewhere before?	212799027	1477664040666	1477664040746	e	69
414966	4480374	Do you want to eat lunch somewhere before?	Do you want to eat lunch somewhere before?	212799030	1477664040762	1477664040842	f	70
414966	4480374	Do you want to eat lunch somewhere before?	Do you want to eat lunch somewhere before?	212799041	1477664040834	1477664040921	o	79
414966	4480374	Do you want to eat lunch somewhere before?	Do you want to eat lunch somewhere before?	212799044	1477664040914	1477664040986	r	82
414966	4480374	Do you want to eat lunch somewhere before?	Do you want to eat lunch somewhere before?	212799049	1477664040962	1477664041058	e	69
414966	4480374	Do you want to eat lunch somewhere before?	Do you want to eat lunch somewhere before?	212799055	1477664041026	1477664041098	SHIFT	16
414966	4480383	Bob, I'll pick San Diego as my winner.	Bob, I'll pick San Diego as my winner.	212799151	1477664042434	1477664042594	SHIFT	16
414966	4480383	Bob, I'll pick San Diego as my winner.	Bob, I'll pick San Diego as my winner.	212799156	1477664042562	1477664042642	B	66
414966	4480383	Bob, I'll pick San Diego as my winner.	Bob, I'll pick San Diego as my winner.	212799159	1477664042682	1477664042778	o	79
414966	4480383	Bob, I'll pick San Diego as my winner.	Bob, I'll pick San Diego as my winner.	212799163	1477664042754	1477664042842	b	66
414966	4480383	Bob, I'll pick San Diego as my winner.	Bob, I'll pick San Diego as my winner.	212799165	1477664042850	1477664042970	,	188
414966	4480383	Bob, I'll pick San Diego as my winner.	Bob, I'll pick San Diego as my winner.	212799213	1477664042946	1477664043082	 	32
414966	4480383	Bob, I'll pick San Diego as my winner.	Bob, I'll pick San Diego as my winner.	212799217	1477664043202	1477664043306	SHIFT	16
414966	4480383	Bob, I'll pick San Diego as my winner.	Bob, I'll pick San Diego as my winner.	212799223	1477664043251	1477664043338	I	73
414966	4480383	Bob, I'll pick San Diego as my winner.	Bob, I'll pick San Diego as my winner.	212799227	1477664043426	1477664043490	'	52
414966	4480383	Bob, I'll pick San Diego as my winner.	Bob, I'll pick San Diego as my winner.	212799229	1477664043514	1477664043594	l	76
414966	4480383	Bob, I'll pick San Diego as my winner.	Bob, I'll pick San Diego as my winner.	212799232	1477664043666	1477664043738	l	76
414966	4480383	Bob, I'll pick San Diego as my winner.	Bob, I'll pick San Diego as my winner.	212799237	1477664043843	1477664043914	 	80
414966	4480383	Bob, I'll pick San Diego as my winner.	Bob, I'll pick San Diego as my winner.	212799298	1477664044026	1477664044114	i	73
414966	4480383	Bob, I'll pick San Diego as my winner.	Bob, I'll pick San Diego as my winner.	212799302	1477664044235	1477664044266	c	67
414966	4480383	Bob, I'll pick San Diego as my winner.	Bob, I'll pick San Diego as my winner.	212799305	1477664044386	1477664044450	BKSP	8
414966	4480383	Bob, I'll pick San Diego as my winner.	Bob, I'll pick San Diego as my winner.	212799306	1477664044522	1477664044602	BKSP	8
414966	4480383	Bob, I'll pick San Diego as my winner.	Bob, I'll pick San Diego as my winner.	212799307	1477664044666	1477664044738	BKSP	8
414966	4480383	Bob, I'll pick San Diego as my winner.	Bob, I'll pick San Diego as my winner.	212799309	1477664044802	1477664044890	BKSP	8
414966	4480383	Bob, I'll pick San Diego as my winner.	Bob, I'll pick San Diego as my winner.	212799312	1477664044963	1477664045098	 	32
414966	4480383	Bob, I'll pick San Diego as my winner.	Bob, I'll pick San Diego as my winner.	212799315	1477664045050	1477664045146	p	80
414966	4480383	Bob, I'll pick San Diego as my winner.	Bob, I'll pick San Diego as my winner.	212799332	1477664045106	1477664045178	i	73
414966	4480383	Bob, I'll pick San Diego as my winner.	Bob, I'll pick San Diego as my winner.	212799335	1477664045251	1477664045338	c	67
414966	4480383	Bob, I'll pick San Diego as my winner.	Bob, I'll pick San Diego as my winner.	212799337	1477664045314	1477664045458	k	75
414966	4480383	Bob, I'll pick San Diego as my winner.	Bob, I'll pick San Diego as my winner.	212799339	1477664045435	1477664045522	 	32
414966	4480383	Bob, I'll pick San Diego as my winner.	Bob, I'll pick San Diego as my winner.	212799343	1477664045530	1477664045650	SHIFT	16
414966	4480383	Bob, I'll pick San Diego as my winner.	Bob, I'll pick San Diego as my winner.	212799347	1477664045586	1477664045666	S	83
414966	4480383	Bob, I'll pick San Diego as my winner.	Bob, I'll pick San Diego as my winner.	212799351	1477664045739	1477664045850	a	65
414966	4480383	Bob, I'll pick San Diego as my winner.	Bob, I'll pick San Diego as my winner.	212799356	1477664045795	1477664045890	n	78
414966	4480383	Bob, I'll pick San Diego as my winner.	Bob, I'll pick San Diego as my winner.	212799358	1477664045866	1477664046010	 	32
414966	4480383	Bob, I'll pick San Diego as my winner.	Bob, I'll pick San Diego as my winner.	212799369	1477664045954	1477664046065	SHIFT	16
414966	4480383	Bob, I'll pick San Diego as my winner.	Bob, I'll pick San Diego as my winner.	212799362	1477664045978	1477664046050	D	68
414966	4480383	Bob, I'll pick San Diego as my winner.	Bob, I'll pick San Diego as my winner.	212799376	1477664046059	1477664046169	I	73
414966	4480383	Bob, I'll pick San Diego as my winner.	Bob, I'll pick San Diego as my winner.	212799381	1477664046163	1477664046226	e	69
414966	4480383	Bob, I'll pick San Diego as my winner.	Bob, I'll pick San Diego as my winner.	212799385	1477664046282	1477664046370	g	71
414966	4480383	Bob, I'll pick San Diego as my winner.	Bob, I'll pick San Diego as my winner.	212799446	1477664046330	1477664046442	o	79
414966	4480383	Bob, I'll pick San Diego as my winner.	Bob, I'll pick San Diego as my winner.	212799448	1477664046410	1477664046530	 	32
414966	4480383	Bob, I'll pick San Diego as my winner.	Bob, I'll pick San Diego as my winner.	212799451	1477664046618	1477664046682	BKSP	8
414966	4480383	Bob, I'll pick San Diego as my winner.	Bob, I'll pick San Diego as my winner.	212799454	1477664046754	1477664046827	BKSP	8
414966	4480383	Bob, I'll pick San Diego as my winner.	Bob, I'll pick San Diego as my winner.	212799461	1477664046906	1477664046978	BKSP	8
414966	4480383	Bob, I'll pick San Diego as my winner.	Bob, I'll pick San Diego as my winner.	212799467	1477664047066	1477664047114	BKSP	8
414966	4480383	Bob, I'll pick San Diego as my winner.	Bob, I'll pick San Diego as my winner.	212799477	1477664047178	1477664047242	BKSP	8
414966	4480383	Bob, I'll pick San Diego as my winner.	Bob, I'll pick San Diego as my winner.	212799485	1477664047355	1477664047434	i	73
414966	4480383	Bob, I'll pick San Diego as my winner.	Bob, I'll pick San Diego as my winner.	212799490	1477664047395	1477664047514	e	69
414966	4480383	Bob, I'll pick San Diego as my winner.	Bob, I'll pick San Diego as my winner.	212799493	1477664047498	1477664047594	g	71
414966	4480383	Bob, I'll pick San Diego as my winner.	Bob, I'll pick San Diego as my winner.	212799496	1477664047602	1477664047713	o	79
414966	4480383	Bob, I'll pick San Diego as my winner.	Bob, I'll pick San Diego as my winner.	212799497	1477664047707	1477664047802	 	32
414966	4480383	Bob, I'll pick San Diego as my winner.	Bob, I'll pick San Diego as my winner.	212799498	1477664047818	1477664047866	a	65
414966	4480383	Bob, I'll pick San Diego as my winner.	Bob, I'll pick San Diego as my winner.	212799499	1477664047923	1477664048009	s	83
414966	4480383	Bob, I'll pick San Diego as my winner.	Bob, I'll pick San Diego as my winner.	212799501	1477664048002	1477664048122	 	32
414966	4480383	Bob, I'll pick San Diego as my winner.	Bob, I'll pick San Diego as my winner.	212799503	1477664048162	1477664048290	m	77
414966	4480383	Bob, I'll pick San Diego as my winner.	Bob, I'll pick San Diego as my winner.	212799506	1477664048322	1477664048370	y	89
414966	4480383	Bob, I'll pick San Diego as my winner.	Bob, I'll pick San Diego as my winner.	212799531	1477664048379	1477664048506	 	32
414966	4480383	Bob, I'll pick San Diego as my winner.	Bob, I'll pick San Diego as my winner.	212799533	1477664048579	1477664048666	w	87
414966	4480383	Bob, I'll pick San Diego as my winner.	Bob, I'll pick San Diego as my winner.	212799534	1477664048690	1477664048802	i	73
414966	4480383	Bob, I'll pick San Diego as my winner.	Bob, I'll pick San Diego as my winner.	212799538	1477664048779	1477664048850	n	78
414966	4480383	Bob, I'll pick San Diego as my winner.	Bob, I'll pick San Diego as my winner.	212799543	1477664048906	1477664048996	n	78
414966	4480383	Bob, I'll pick San Diego as my winner.	Bob, I'll pick San Diego as my winner.	212799560	1477664048995	1477664049090	e	69
414966	4480383	Bob, I'll pick San Diego as my winner.	Bob, I'll pick San Diego as my winner.	212799563	1477664049043	1477664049138	r	82
414966	4480383	Bob, I'll pick San Diego as my winner.	Bob, I'll pick San Diego as my winner.	212799565	1477664049082	1477664049170	SHIFT	16
414966	4480394	She started singing along softly with the radio.	She started singing along softly with the radio.	212799675	1477664050250	1477664050458	SHIFT	16
414966	4480394	She started singing along softly with the radio.	She started singing along softly with the radio.	212799676	1477664050418	1477664050498	S	83
414966	4480394	She started singing along softly with the radio.	She started singing along softly with the radio.	212799679	1477664050770	1477664050858	h	72
414966	4480394	She started singing along softly with the radio.	She started singing along softly with the radio.	212799683	1477664050842	1477664050914	e	69
414966	4480394	She started singing along softly with the radio.	She started singing along softly with the radio.	212799688	1477664050922	1477664051034	 	32
414966	4480394	She started singing along softly with the radio.	She started singing along softly with the radio.	212799699	1477664051026	1477664051098	s	83
414966	4480394	She started singing along softly with the radio.	She started singing along softly with the radio.	212799705	1477664051106	1477664051178	t	84
414966	4480394	She started singing along softly with the radio.	She started singing along softly with the radio.	212799711	1477664051186	1477664051306	a	65
414966	4480394	She started singing along softly with the radio.	She started singing along softly with the radio.	212799715	1477664051290	1477664051386	r	82
414966	4480394	She started singing along softly with the radio.	She started singing along softly with the radio.	212799719	1477664051451	1477664051538	t	84
414966	4480394	She started singing along softly with the radio.	She started singing along softly with the radio.	212799724	1477664051515	1477664051578	e	69
414966	4480394	She started singing along softly with the radio.	She started singing along softly with the radio.	212799726	1477664051667	1477664051738	d	68
414966	4480394	She started singing along softly with the radio.	She started singing along softly with the radio.	212799728	1477664051722	1477664051842	 	32
414966	4480394	She started singing along softly with the radio.	She started singing along softly with the radio.	212799730	1477664051827	1477664051922	s	83
414966	4480394	She started singing along softly with the radio.	She started singing along softly with the radio.	212799732	1477664051883	1477664051962	i	73
414966	4480394	She started singing along softly with the radio.	She started singing along softly with the radio.	212799740	1477664051938	1477664052042	n	78
414966	4480394	She started singing along softly with the radio.	She started singing along softly with the radio.	212799744	1477664052011	1477664052106	g	71
414966	4480394	She started singing along softly with the radio.	She started singing along softly with the radio.	212799750	1477664052074	1477664052162	i	73
414966	4480394	She started singing along softly with the radio.	She started singing along softly with the radio.	212799757	1477664052122	1477664052226	n	78
414966	4480394	She started singing along softly with the radio.	She started singing along softly with the radio.	212799765	1477664052171	1477664052274	g	71
414966	4480394	She started singing along softly with the radio.	She started singing along softly with the radio.	212799782	1477664052267	1477664052393	 	32
414966	4480394	She started singing along softly with the radio.	She started singing along softly with the radio.	212799786	1477664052314	1477664052434	a	65
414966	4480394	She started singing along softly with the radio.	She started singing along softly with the radio.	212799790	1477664052370	1477664052442	l	76
414966	4480394	She started singing along softly with the radio.	She started singing along softly with the radio.	212799794	1477664052555	1477664052618	o	79
414966	4480394	She started singing along softly with the radio.	She started singing along softly with the radio.	212799800	1477664052578	1477664052698	n	78
414966	4480394	She started singing along softly with the radio.	She started singing along softly with the radio.	212799829	1477664052643	1477664052746	g	71
414966	4480394	She started singing along softly with the radio.	She started singing along softly with the radio.	212799834	1477664052723	1477664052867	 	32
414966	4480394	She started singing along softly with the radio.	She started singing along softly with the radio.	212799839	1477664052810	1477664052890	s	83
414966	4480394	She started singing along softly with the radio.	She started singing along softly with the radio.	212799845	1477664052850	1477664052954	o	79
414966	4480394	She started singing along softly with the radio.	She started singing along softly with the radio.	212799851	1477664053018	1477664053082	f	70
414966	4480394	She started singing along softly with the radio.	She started singing along softly with the radio.	212799857	1477664053138	1477664053242	t	84
414966	4480394	She started singing along softly with the radio.	She started singing along softly with the radio.	212799842	1477664053162	1477664053257	l	76
414966	4480394	She started singing along softly with the radio.	She started singing along softly with the radio.	212799849	1477664053251	1477664053338	y	89
414966	4480394	She started singing along softly with the radio.	She started singing along softly with the radio.	212799854	1477664053290	1477664053418	 	32
414966	4480394	She started singing along softly with the radio.	She started singing along softly with the radio.	212799862	1477664053371	1477664053474	w	87
414966	4480394	She started singing along softly with the radio.	She started singing along softly with the radio.	212799866	1477664053434	1477664053537	i	73
414966	4480394	She started singing along softly with the radio.	She started singing along softly with the radio.	212799894	1477664053530	1477664053642	t	84
414966	4480394	She started singing along softly with the radio.	She started singing along softly with the radio.	212799896	1477664053650	1477664053738	h	72
414966	4480394	She started singing along softly with the radio.	She started singing along softly with the radio.	212799897	1477664053754	1477664053834	t	84
414966	4480394	She started singing along softly with the radio.	She started singing along softly with the radio.	212799899	1477664053794	1477664053930	 	32
414966	4480394	She started singing along softly with the radio.	She started singing along softly with the radio.	212799901	1477664053986	1477664054066	t	84
414966	4480394	She started singing along softly with the radio.	She started singing along softly with the radio.	212799903	1477664054082	1477664054162	h	72
414966	4480394	She started singing along softly with the radio.	She started singing along softly with the radio.	212799932	1477664054298	1477664054370	BKSP	8
414966	4480394	She started singing along softly with the radio.	She started singing along softly with the radio.	212799938	1477664054426	1477664054498	BKSP	8
414966	4480394	She started singing along softly with the radio.	She started singing along softly with the radio.	212799943	1477664054570	1477664054634	BKSP	8
414966	4480394	She started singing along softly with the radio.	She started singing along softly with the radio.	212799948	1477664054690	1477664054786	BKSP	8
414966	4480394	She started singing along softly with the radio.	She started singing along softly with the radio.	212799954	1477664054754	1477664054850	 	32
414966	4480394	She started singing along softly with the radio.	She started singing along softly with the radio.	212799958	1477664054866	1477664054961	t	84
414966	4480394	She started singing along softly with the radio.	She started singing along softly with the radio.	212799961	1477664054922	1477664055026	h	72
414966	4480394	She started singing along softly with the radio.	She started singing along softly with the radio.	212799964	1477664054955	1477664055050	e	69
414966	4480394	She started singing along softly with the radio.	She started singing along softly with the radio.	212799967	1477664055058	1477664055172	 	32
414966	4480394	She started singing along softly with the radio.	She started singing along softly with the radio.	212799981	1477664055154	1477664055234	r	82
414966	4480394	She started singing along softly with the radio.	She started singing along softly with the radio.	212799986	1477664055194	1477664055282	a	65
414966	4480394	She started singing along softly with the radio.	She started singing along softly with the radio.	212799992	1477664055338	1477664055466	d	68
414966	4480394	She started singing along softly with the radio.	She started singing along softly with the radio.	212800000	1477664055403	1477664055530	i	73
414966	4480394	She started singing along softly with the radio.	She started singing along softly with the radio.	212800005	1477664055507	1477664055570	o	79
414966	4480394	She started singing along softly with the radio.	She started singing along softly with the radio.	212800011	1477664055698	1477664055818	SHIFT	16
414966	4480403	Please respond if anyone has a different view.	Please respond if anoyne has a different view.	212800092	1477664057178	1477664057554	SHIFT	16
414966	4480403	Please respond if anyone has a different view.	Please respond if anoyne has a different view.	212800088	1477664057443	1477664057538	P	80
414966	4480403	Please respond if anyone has a different view.	Please respond if anoyne has a different view.	212800095	1477664057627	1477664057730	l	76
414966	4480403	Please respond if anyone has a different view.	Please respond if anoyne has a different view.	212800100	1477664057682	1477664057754	e	69
414966	4480403	Please respond if anyone has a different view.	Please respond if anoyne has a different view.	212800107	1477664057762	1477664057850	a	65
414966	4480403	Please respond if anyone has a different view.	Please respond if anoyne has a different view.	212800153	1477664057834	1477664057961	s	83
414966	4480403	Please respond if anyone has a different view.	Please respond if anoyne has a different view.	212800156	1477664057955	1477664058042	e	69
414966	4480403	Please respond if anyone has a different view.	Please respond if anoyne has a different view.	212800158	1477664058082	1477664058218	 	32
414966	4480403	Please respond if anyone has a different view.	Please respond if anoyne has a different view.	212800162	1477664058250	1477664058354	r	82
414966	4480403	Please respond if anyone has a different view.	Please respond if anoyne has a different view.	212800165	1477664058546	1477664058618	e	69
414966	4480403	Please respond if anyone has a different view.	Please respond if anoyne has a different view.	212800169	1477664058658	1477664058753	s	83
414966	4480403	Please respond if anyone has a different view.	Please respond if anoyne has a different view.	212800185	1477664058706	1477664058786	p	80
414966	4480403	Please respond if anyone has a different view.	Please respond if anoyne has a different view.	212800188	1477664058890	1477664058962	o	79
414966	4480403	Please respond if anyone has a different view.	Please respond if anoyne has a different view.	212800195	1477664058930	1477664059042	n	78
414966	4480403	Please respond if anyone has a different view.	Please respond if anoyne has a different view.	212800204	1477664058994	1477664059098	d	68
414966	4480403	Please respond if anyone has a different view.	Please respond if anoyne has a different view.	212800211	1477664059122	1477664059210	 	32
414966	4480403	Please respond if anyone has a different view.	Please respond if anoyne has a different view.	212800218	1477664059274	1477664059410	i	73
414966	4480403	Please respond if anyone has a different view.	Please respond if anoyne has a different view.	212800230	1477664059362	1477664059481	f	70
414966	4480403	Please respond if anyone has a different view.	Please respond if anoyne has a different view.	212800233	1477664059458	1477664059586	 	32
414966	4480403	Please respond if anyone has a different view.	Please respond if anoyne has a different view.	212800237	1477664059594	1477664059674	a	65
414966	4480403	Please respond if anyone has a different view.	Please respond if anoyne has a different view.	212800239	1477664059706	1477664059794	n	78
414966	4480403	Please respond if anyone has a different view.	Please respond if anoyne has a different view.	212800241	1477664059802	1477664059922	o	79
414966	4480403	Please respond if anyone has a different view.	Please respond if anoyne has a different view.	212800258	1477664059906	1477664059985	y	89
414966	4480403	Please respond if anyone has a different view.	Please respond if anoyne has a different view.	212800261	1477664060090	1477664060170	n	78
414966	4480403	Please respond if anyone has a different view.	Please respond if anoyne has a different view.	212800265	1477664060178	1477664060266	e	69
414966	4480403	Please respond if anyone has a different view.	Please respond if anoyne has a different view.	212800270	1477664060290	1477664060401	 	32
414966	4480403	Please respond if anyone has a different view.	Please respond if anoyne has a different view.	212800272	1477664060378	1477664060465	h	72
414966	4480403	Please respond if anyone has a different view.	Please respond if anoyne has a different view.	212800284	1477664060450	1477664060514	a	65
414966	4480403	Please respond if anyone has a different view.	Please respond if anoyne has a different view.	212800286	1477664060562	1477664060641	s	83
414966	4480403	Please respond if anyone has a different view.	Please respond if anoyne has a different view.	212800289	1477664060618	1477664060713	 	32
414966	4480403	Please respond if anyone has a different view.	Please respond if anoyne has a different view.	212800294	1477664060730	1477664060794	a	65
414966	4480403	Please respond if anyone has a different view.	Please respond if anoyne has a different view.	212800298	1477664060842	1477664060931	 	32
414966	4480403	Please respond if anyone has a different view.	Please respond if anoyne has a different view.	212800334	1477664060930	1477664061010	d	68
414966	4480403	Please respond if anyone has a different view.	Please respond if anoyne has a different view.	212800339	1477664061050	1477664061121	i	73
414966	4480403	Please respond if anyone has a different view.	Please respond if anoyne has a different view.	212800345	1477664061130	1477664061202	f	70
414966	4480403	Please respond if anyone has a different view.	Please respond if anoyne has a different view.	212800347	1477664061266	1477664061346	f	70
414966	4480403	Please respond if anyone has a different view.	Please respond if anoyne has a different view.	212800353	1477664061386	1477664061489	e	69
414966	4480403	Please respond if anyone has a different view.	Please respond if anoyne has a different view.	212800366	1477664061466	1477664061577	r	82
414966	4480403	Please respond if anyone has a different view.	Please respond if anoyne has a different view.	212800369	1477664061570	1477664061665	e	69
414966	4480403	Please respond if anyone has a different view.	Please respond if anoyne has a different view.	212800372	1477664061634	1477664061745	n	78
414966	4480403	Please respond if anyone has a different view.	Please respond if anoyne has a different view.	212800374	1477664061714	1477664061794	t	84
414966	4480403	Please respond if anyone has a different view.	Please respond if anoyne has a different view.	212800375	1477664061794	1477664061905	 	32
414966	4480403	Please respond if anyone has a different view.	Please respond if anoyne has a different view.	212800392	1477664061882	1477664061962	v	86
414966	4480403	Please respond if anyone has a different view.	Please respond if anoyne has a different view.	212800398	1477664061946	1477664062025	i	73
414966	4480403	Please respond if anyone has a different view.	Please respond if anoyne has a different view.	212800403	1477664062002	1477664062058	e	69
414966	4480403	Please respond if anyone has a different view.	Please respond if anoyne has a different view.	212800406	1477664062090	1477664062193	w	87
414966	4480403	Please respond if anyone has a different view.	Please respond if anoyne has a different view.	212800409	1477664062162	1477664062249	SHIFT	16
414966	4480413	See the list below.	See the list below.	212800491	1477664063538	1477664063666	SHIFT	16
414966	4480413	See the list below.	See the list below.	212800494	1477664063586	1477664063666	S	83
414966	4480413	See the list below.	See the list below.	212800504	1477664063746	1477664063810	e	69
414966	4480413	See the list below.	See the list below.	212800511	1477664063866	1477664063986	e	69
414966	4480413	See the list below.	See the list below.	212800518	1477664063946	1477664064081	 	32
414966	4480413	See the list below.	See the list below.	212800527	1477664064058	1477664064162	t	84
414966	4480413	See the list below.	See the list below.	212800530	1477664064122	1477664064249	h	72
414966	4480413	See the list below.	See the list below.	212800535	1477664064242	1477664064330	e	69
414966	4480413	See the list below.	See the list below.	212800538	1477664064298	1477664064411	 	32
414966	4480413	See the list below.	See the list below.	212800559	1477664064362	1477664064441	l	76
414966	4480413	See the list below.	See the list below.	212800567	1477664064410	1477664064498	i	73
414966	4480413	See the list below.	See the list below.	212800575	1477664064450	1477664064521	s	83
414966	4480413	See the list below.	See the list below.	212800583	1477664064482	1477664064585	t	84
414966	4480413	See the list below.	See the list below.	212800589	1477664064578	1477664064681	 	32
414966	4480413	See the list below.	See the list below.	212800594	1477664064658	1477664064705	b	66
414966	4480413	See the list below.	See the list below.	212800599	1477664064770	1477664064865	e	69
414966	4480413	See the list below.	See the list below.	212800614	1477664064842	1477664064882	l	76
414966	4480413	See the list below.	See the list below.	212800617	1477664064954	1477664065034	o	79
414966	4480413	See the list below.	See the list below.	212800621	1477664065018	1477664065114	w	87
414966	4480413	See the list below.	See the list below.	212800624	1477664065146	1477664065234	SHIFT	16
414966	4480417	Treasa knows the details.	Treasa knows the details.	212800762	1477664066490	1477664066642	SHIFT	16
414966	4480417	Treasa knows the details.	Treasa knows the details.	212800766	1477664066578	1477664066674	T	84
414966	4480417	Treasa knows the details.	Treasa knows the details.	212800770	1477664066738	1477664066866	e	69
414966	4480417	Treasa knows the details.	Treasa knows the details.	212800774	1477664066906	1477664066954	a	65
414966	4480417	Treasa knows the details.	Treasa knows the details.	212800779	1477664067194	1477664067241	BKSP	8
414966	4480417	Treasa knows the details.	Treasa knows the details.	212800786	1477664067306	1477664067395	BKSP	8
414966	4480417	Treasa knows the details.	Treasa knows the details.	212800790	1477664067386	1477664067489	r	82
414966	4480417	Treasa knows the details.	Treasa knows the details.	212800814	1477664067466	1477664067577	e	69
414966	4480417	Treasa knows the details.	Treasa knows the details.	212800818	1477664067546	1477664067657	a	65
414966	4480417	Treasa knows the details.	Treasa knows the details.	212800824	1477664067882	1477664067977	s	83
414966	4480417	Treasa knows the details.	Treasa knows the details.	212800829	1477664068050	1477664068153	a	65
414966	4480417	Treasa knows the details.	Treasa knows the details.	212800834	1477664068130	1477664068217	 	32
414966	4480417	Treasa knows the details.	Treasa knows the details.	212800903	1477664068178	1477664068257	k	75
414966	4480417	Treasa knows the details.	Treasa knows the details.	212800913	1477664068298	1477664068393	n	79
414966	4480417	Treasa knows the details.	Treasa knows the details.	212800920	1477664068450	1477664068569	w	87
414966	4480417	Treasa knows the details.	Treasa knows the details.	212800926	1477664068729	1477664068801	BKSP	8
414966	4480417	Treasa knows the details.	Treasa knows the details.	212800931	1477664068881	1477664068913	BKSP	8
414966	4480417	Treasa knows the details.	Treasa knows the details.	212800934	1477664068985	1477664069081	BKSP	8
414966	4480417	Treasa knows the details.	Treasa knows the details.	212800938	1477664069210	1477664069305	n	78
414966	4480417	Treasa knows the details.	Treasa knows the details.	212800957	1477664069266	1477664069344	o	79
414966	4480417	Treasa knows the details.	Treasa knows the details.	212800962	1477664069338	1477664069473	w	87
414966	4480417	Treasa knows the details.	Treasa knows the details.	212800969	1477664069482	1477664069577	s	83
414966	4480417	Treasa knows the details.	Treasa knows the details.	212800975	1477664069642	1477664069761	 	32
414966	4480417	Treasa knows the details.	Treasa knows the details.	212800979	1477664069738	1477664069825	t	84
414966	4480417	Treasa knows the details.	Treasa knows the details.	212800986	1477664069810	1477664069905	h	72
414966	4480417	Treasa knows the details.	Treasa knows the details.	212800988	1477664069874	1477664069945	e	69
414966	4480417	Treasa knows the details.	Treasa knows the details.	212800992	1477664069970	1477664070081	 	32
414966	4480417	Treasa knows the details.	Treasa knows the details.	212800995	1477664070050	1477664070105	d	68
414966	4480417	Treasa knows the details.	Treasa knows the details.	212801000	1477664070194	1477664070289	e	69
414966	4480417	Treasa knows the details.	Treasa knows the details.	212801022	1477664070257	1477664070369	t	84
414966	4480417	Treasa knows the details.	Treasa knows the details.	212801025	1477664070337	1477664070433	a	65
414966	4480417	Treasa knows the details.	Treasa knows the details.	212801028	1477664070401	1477664070505	i	73
414966	4480417	Treasa knows the details.	Treasa knows the details.	212801031	1477664070458	1477664070537	l	76
414966	4480417	Treasa knows the details.	Treasa knows the details.	212801034	1477664070562	1477664070641	s	83
414966	4480417	Treasa knows the details.	Treasa knows the details.	212801038	1477664070641	1477664070745	SHIFT	16
414966	4480427	I think I played three different courses.	I think I played three different courses.	212801122	1477664072281	1477664072393	SHIFT	16
414966	4480427	I think I played three different courses.	I think I played three different courses.	212801125	1477664072354	1477664072441	I	73
414966	4480427	I think I played three different courses.	I think I played three different courses.	212801130	1477664072506	1477664072641	 	32
414966	4480427	I think I played three different courses.	I think I played three different courses.	212801132	1477664072586	1477664072673	t	84
414966	4480427	I think I played three different courses.	I think I played three different courses.	212801134	1477664072650	1477664072739	h	72
414966	4480427	I think I played three different courses.	I think I played three different courses.	212801204	1477664072722	1477664072849	i	73
414966	4480427	I think I played three different courses.	I think I played three different courses.	212801207	1477664072874	1477664072937	n	78
414966	4480427	I think I played three different courses.	I think I played three different courses.	212801212	1477664073218	1477664073329	k	75
414966	4480427	I think I played three different courses.	I think I played three different courses.	212801220	1477664073338	1477664073433	 	32
414966	4480427	I think I played three different courses.	I think I played three different courses.	212801228	1477664073401	1477664073513	SHIFT	16
414966	4480427	I think I played three different courses.	I think I played three different courses.	212801235	1477664073466	1477664073561	I	73
414966	4480427	I think I played three different courses.	I think I played three different courses.	212801239	1477664073578	1477664073681	 	32
414966	4480427	I think I played three different courses.	I think I played three different courses.	212801255	1477664073657	1477664073721	p	80
414966	4480427	I think I played three different courses.	I think I played three different courses.	212801260	1477664073818	1477664073897	l	76
414966	4480427	I think I played three different courses.	I think I played three different courses.	212801264	1477664073865	1477664073961	a	65
414966	4480427	I think I played three different courses.	I think I played three different courses.	212801268	1477664073945	1477664074041	y	89
414966	4480427	I think I played three different courses.	I think I played three different courses.	212801272	1477664074066	1477664074169	d	68
414966	4480427	I think I played three different courses.	I think I played three different courses.	212801276	1477664074210	1477664074361	 	32
414966	4480427	I think I played three different courses.	I think I played three different courses.	212801363	1477664074434	1477664074529	t	84
414966	4480427	I think I played three different courses.	I think I played three different courses.	212801369	1477664074697	1477664074769	BKSP	8
414966	4480427	I think I played three different courses.	I think I played three different courses.	212801376	1477664074825	1477664074897	BKSP	8
414966	4480427	I think I played three different courses.	I think I played three different courses.	212801381	1477664074985	1477664075017	BKSP	8
414966	4480427	I think I played three different courses.	I think I played three different courses.	212801385	1477664075089	1477664075161	BKSP	8
414966	4480427	I think I played three different courses.	I think I played three different courses.	212801388	1477664075146	1477664075225	e	69
414966	4480427	I think I played three different courses.	I think I played three different courses.	212801393	1477664075425	1477664075489	BKSP	8
414966	4480427	I think I played three different courses.	I think I played three different courses.	212801397	1477664075610	1477664075681	y	89
414966	4480427	I think I played three different courses.	I think I played three different courses.	212801403	1477664075658	1477664075713	e	69
414966	4480427	I think I played three different courses.	I think I played three different courses.	212801410	1477664075802	1477664075905	d	68
414966	4480427	I think I played three different courses.	I think I played three different courses.	212801418	1477664075882	1477664075992	 	32
414966	4480427	I think I played three different courses.	I think I played three different courses.	212801422	1477664075986	1477664076072	t	84
414966	4480427	I think I played three different courses.	I think I played three different courses.	212801427	1477664076066	1477664076169	h	72
414966	4480427	I think I played three different courses.	I think I played three different courses.	212801431	1477664076242	1477664076337	r	82
414966	4480427	I think I played three different courses.	I think I played three different courses.	212801434	1477664076345	1477664076401	e	69
414966	4480427	I think I played three different courses.	I think I played three different courses.	212801437	1477664076482	1477664076537	e	69
414966	4480427	I think I played three different courses.	I think I played three different courses.	212801448	1477664076562	1477664076673	 	32
414966	4480427	I think I played three different courses.	I think I played three different courses.	212801453	1477664076658	1477664076729	d	68
414966	4480427	I think I played three different courses.	I think I played three different courses.	212801460	1477664076722	1477664076801	i	73
414966	4480427	I think I played three different courses.	I think I played three different courses.	212801466	1477664076849	1477664076921	f	70
414966	4480427	I think I played three different courses.	I think I played three different courses.	212801473	1477664077018	1477664077065	f	70
414966	4480427	I think I played three different courses.	I think I played three different courses.	212801485	1477664077178	1477664077257	e	69
414966	4480427	I think I played three different courses.	I think I played three different courses.	212801490	1477664077225	1477664077336	r	82
414966	4480427	I think I played three different courses.	I think I played three different courses.	212801495	1477664077330	1477664077433	e	69
414966	4480427	I think I played three different courses.	I think I played three different courses.	212801500	1477664077434	1477664077529	n	78
414966	4480427	I think I played three different courses.	I think I played three different courses.	212801540	1477664077490	1477664077577	t	84
414966	4480427	I think I played three different courses.	I think I played three different courses.	212801546	1477664077650	1477664077737	 	32
414966	4480427	I think I played three different courses.	I think I played three different courses.	212801557	1477664077833	1477664077921	c	67
414966	4480427	I think I played three different courses.	I think I played three different courses.	212801566	1477664078009	1477664078089	o	79
414966	4480427	I think I played three different courses.	I think I played three different courses.	212801575	1477664078066	1477664078176	u	85
414966	4480427	I think I played three different courses.	I think I played three different courses.	212801596	1477664078145	1477664078217	r	82
414966	4480427	I think I played three different courses.	I think I played three different courses.	212801600	1477664078225	1477664078320	s	83
414966	4480427	I think I played three different courses.	I think I played three different courses.	212801605	1477664078305	1477664078377	e	69
414966	4480427	I think I played three different courses.	I think I played three different courses.	212801611	1477664078417	1477664078529	s	83
414966	4480427	I think I played three different courses.	I think I played three different courses.	212801620	1477664078521	1477664078625	SHIFT	16
414966	4480436	Please leave it to Brian.	Please leave it to Brian.	212801751	1477664079865	1477664080032	SHIFT	16
414966	4480436	Please leave it to Brian.	Please leave it to Brian.	212801747	1477664079945	1477664080025	P	80
414966	4480436	Please leave it to Brian.	Please leave it to Brian.	212801757	1477664080129	1477664080232	l	76
414966	4480436	Please leave it to Brian.	Please leave it to Brian.	212801763	1477664080177	1477664080264	e	69
414966	4480436	Please leave it to Brian.	Please leave it to Brian.	212801766	1477664080249	1477664080321	a	65
414966	4480436	Please leave it to Brian.	Please leave it to Brian.	212801772	1477664080361	1477664080464	s	83
414966	4480436	Please leave it to Brian.	Please leave it to Brian.	212801806	1477664080457	1477664080545	e	69
414966	4480436	Please leave it to Brian.	Please leave it to Brian.	212801815	1477664080553	1477664080673	 	32
414966	4480436	Please leave it to Brian.	Please leave it to Brian.	212801823	1477664080641	1477664080753	l	76
414966	4480436	Please leave it to Brian.	Please leave it to Brian.	212801832	1477664080721	1477664080793	e	69
414966	4480436	Please leave it to Brian.	Please leave it to Brian.	212801839	1477664081057	1477664081153	a	65
414966	4480436	Please leave it to Brian.	Please leave it to Brian.	212801842	1477664081217	1477664081273	v	86
414966	4480436	Please leave it to Brian.	Please leave it to Brian.	212801864	1477664081345	1477664081441	e	69
414966	4480436	Please leave it to Brian.	Please leave it to Brian.	212801869	1477664081449	1477664081568	 	32
414966	4480436	Please leave it to Brian.	Please leave it to Brian.	212801873	1477664081537	1477664081633	i	73
414966	4480436	Please leave it to Brian.	Please leave it to Brian.	212801877	1477664081601	1477664081697	t	84
414966	4480436	Please leave it to Brian.	Please leave it to Brian.	212801882	1477664081721	1477664081816	 	32
414966	4480436	Please leave it to Brian.	Please leave it to Brian.	212801902	1477664081793	1477664081873	t	84
414966	4480436	Please leave it to Brian.	Please leave it to Brian.	212801906	1477664081825	1477664081945	o	79
414966	4480436	Please leave it to Brian.	Please leave it to Brian.	212801908	1477664081929	1477664082025	 	32
414966	4480436	Please leave it to Brian.	Please leave it to Brian.	212801911	1477664082009	1477664082065	b	66
414966	4480436	Please leave it to Brian.	Please leave it to Brian.	212801914	1477664082033	1477664082129	SHIFT	16
414966	4480436	Please leave it to Brian.	Please leave it to Brian.	212801916	1477664082169	1477664082249	r	82
414966	4480436	Please leave it to Brian.	Please leave it to Brian.	212801967	1477664082217	1477664082297	a	65
414966	4480436	Please leave it to Brian.	Please leave it to Brian.	212801969	1477664082265	1477664082353	i	73
414966	4480436	Please leave it to Brian.	Please leave it to Brian.	212801973	1477664082425	1477664082521	n	78
414966	4480436	Please leave it to Brian.	Please leave it to Brian.	212801977	1477664082681	1477664082745	BKSP	8
414966	4480436	Please leave it to Brian.	Please leave it to Brian.	212801983	1477664082825	1477664082897	BKSP	8
414966	4480436	Please leave it to Brian.	Please leave it to Brian.	212801988	1477664082953	1477664083041	BKSP	8
414966	4480436	Please leave it to Brian.	Please leave it to Brian.	212801994	1477664083097	1477664083185	BKSP	8
414966	4480436	Please leave it to Brian.	Please leave it to Brian.	212801998	1477664083233	1477664083313	BKSP	8
414966	4480436	Please leave it to Brian.	Please leave it to Brian.	212802002	1477664083385	1477664083497	SHIFT	16
414966	4480436	Please leave it to Brian.	Please leave it to Brian.	212802008	1477664083465	1477664083520	B	66
414966	4480436	Please leave it to Brian.	Please leave it to Brian.	212802012	1477664083641	1477664083729	i	73
414966	4480436	Please leave it to Brian.	Please leave it to Brian.	212802045	1477664083681	1477664083792	r	82
414966	4480436	Please leave it to Brian.	Please leave it to Brian.	212802049	1477664083785	1477664083897	a	65
414966	4480436	Please leave it to Brian.	Please leave it to Brian.	212802055	1477664083849	1477664083929	n	78
414966	4480436	Please leave it to Brian.	Please leave it to Brian.	212802059	1477664083993	1477664084097	SHIFT	16
414966	4480436	Please leave it to Brian.	Please leave it to Brian.	212802065	1477664084273	1477664084337	BKSP	8
414966	4480436	Please leave it to Brian.	Please leave it to Brian.	212802068	1477664084409	1477664084481	BKSP	8
414966	4480436	Please leave it to Brian.	Please leave it to Brian.	212802074	1477664084569	1477664084601	BKSP	8
414966	4480436	Please leave it to Brian.	Please leave it to Brian.	212802079	1477664084673	1477664084761	BKSP	8
414966	4480436	Please leave it to Brian.	Please leave it to Brian.	212802082	1477664084793	1477664084888	r	82
414966	4480436	Please leave it to Brian.	Please leave it to Brian.	212802087	1477664084881	1477664084969	i	73
414966	4480436	Please leave it to Brian.	Please leave it to Brian.	212802089	1477664084969	1477664085073	a	65
414966	4480436	Please leave it to Brian.	Please leave it to Brian.	212802071	1477664085033	1477664085121	n	78
414966	4480436	Please leave it to Brian.	Please leave it to Brian.	212802075	1477664085169	1477664085297	SHIFT	16
414966	4480451	What a crazy day.	What a crazy day.	212802149	1477664086409	1477664086592	SHIFT	16
414966	4480451	What a crazy day.	What a crazy day.	212802156	1477664086537	1477664086617	W	87
414966	4480451	What a crazy day.	What a crazy day.	212802163	1477664086681	1477664086769	h	72
414966	4480451	What a crazy day.	What a crazy day.	212802172	1477664086737	1477664086825	a	65
414966	4480451	What a crazy day.	What a crazy day.	212802178	1477664086801	1477664086905	t	84
414966	4480451	What a crazy day.	What a crazy day.	212802190	1477664086865	1477664086977	 	32
414966	4480451	What a crazy day.	What a crazy day.	212802192	1477664086929	1477664087001	a	65
414966	4480451	What a crazy day.	What a crazy day.	212802199	1477664087065	1477664087177	 	32
414966	4480451	What a crazy day.	What a crazy day.	212802195	1477664087097	1477664087169	c	67
414966	4480451	What a crazy day.	What a crazy day.	212802206	1477664087233	1477664087337	r	82
414966	4480451	What a crazy day.	What a crazy day.	212802223	1477664087265	1477664087400	a	65
414966	4480451	What a crazy day.	What a crazy day.	212802229	1477664087393	1477664087504	z	90
414966	4480451	What a crazy day.	What a crazy day.	212802235	1477664087489	1477664087568	y	89
414966	4480451	What a crazy day.	What a crazy day.	212802240	1477664087585	1477664087704	 	32
414966	4480451	What a crazy day.	What a crazy day.	212802248	1477664087673	1477664087760	d	68
414966	4480451	What a crazy day.	What a crazy day.	212802301	1477664087753	1477664087864	a	65
414966	4480451	What a crazy day.	What a crazy day.	212802295	1477664087785	1477664087856	y	89
414966	4480451	What a crazy day.	What a crazy day.	212802310	1477664087952	1477664088048	SHIFT	16
414966	4480451	What a crazy day.	What a crazy day.	212802317	1477664088337	1477664088448	SHIFT	16
414966	4480454	I doubt that it is forecasted.	I doubt that it is forecasted.	212802418	1477664090152	1477664090344	SHIFT	16
414966	4480454	I doubt that it is forecasted.	I doubt that it is forecasted.	212802424	1477664090297	1477664090392	I	73
414966	4480454	I doubt that it is forecasted.	I doubt that it is forecasted.	212802430	1477664090457	1477664090592	 	32
414966	4480454	I doubt that it is forecasted.	I doubt that it is forecasted.	212802435	1477664090545	1477664090616	d	68
414966	4480454	I doubt that it is forecasted.	I doubt that it is forecasted.	212802439	1477664090625	1477664090696	o	79
414966	4480454	I doubt that it is forecasted.	I doubt that it is forecasted.	212802471	1477664090648	1477664090760	u	85
414966	4480454	I doubt that it is forecasted.	I doubt that it is forecasted.	212802476	1477664090721	1477664090792	b	66
414966	4480454	I doubt that it is forecasted.	I doubt that it is forecasted.	212802481	1477664090881	1477664090976	t	84
414966	4480454	I doubt that it is forecasted.	I doubt that it is forecasted.	212802487	1477664091313	1477664091423	 	32
414966	4480454	I doubt that it is forecasted.	I doubt that it is forecasted.	212802494	1477664091417	1477664091472	t	84
414966	4480454	I doubt that it is forecasted.	I doubt that it is forecasted.	212802501	1477664091489	1477664091593	h	72
414966	4480454	I doubt that it is forecasted.	I doubt that it is forecasted.	212802514	1477664091577	1477664091664	a	65
414966	4480454	I doubt that it is forecasted.	I doubt that it is forecasted.	212802516	1477664091609	1477664091720	t	84
414966	4480454	I doubt that it is forecasted.	I doubt that it is forecasted.	212802522	1477664091721	1477664091816	 	32
414966	4480454	I doubt that it is forecasted.	I doubt that it is forecasted.	212802525	1477664091785	1477664091888	i	73
414966	4480454	I doubt that it is forecasted.	I doubt that it is forecasted.	212802527	1477664091857	1477664091944	s	83
414966	4480454	I doubt that it is forecasted.	I doubt that it is forecasted.	212802532	1477664091961	1477664092072	 	32
414966	4480454	I doubt that it is forecasted.	I doubt that it is forecasted.	212802581	1477664092248	1477664092320	BKSP	8
414966	4480454	I doubt that it is forecasted.	I doubt that it is forecasted.	212802583	1477664092384	1477664092464	BKSP	8
414966	4480454	I doubt that it is forecasted.	I doubt that it is forecasted.	212802587	1477664092625	1477664092704	t	84
414966	4480454	I doubt that it is forecasted.	I doubt that it is forecasted.	212802592	1477664092713	1477664092824	 	32
414966	4480454	I doubt that it is forecasted.	I doubt that it is forecasted.	212802598	1477664092801	1477664092896	i	73
414966	4480454	I doubt that it is forecasted.	I doubt that it is forecasted.	212802602	1477664092865	1477664092960	s	83
414966	4480454	I doubt that it is forecasted.	I doubt that it is forecasted.	212802606	1477664093057	1477664093112	f	70
414966	4480454	I doubt that it is forecasted.	I doubt that it is forecasted.	212802646	1477664093137	1477664093240	o	79
414966	4480454	I doubt that it is forecasted.	I doubt that it is forecasted.	212802650	1477664093304	1477664093376	r	82
414966	4480454	I doubt that it is forecasted.	I doubt that it is forecasted.	212802653	1477664093472	1477664093544	BKSP	8
414966	4480454	I doubt that it is forecasted.	I doubt that it is forecasted.	212802657	1477664093624	1477664093672	BKSP	8
414966	4480454	I doubt that it is forecasted.	I doubt that it is forecasted.	212802662	1477664093736	1477664093832	BKSP	8
414966	4480454	I doubt that it is forecasted.	I doubt that it is forecasted.	212802665	1477664093825	1477664093944	 	32
414966	4480454	I doubt that it is forecasted.	I doubt that it is forecasted.	212802669	1477664093953	1477664094024	f	70
414966	4480454	I doubt that it is forecasted.	I doubt that it is forecasted.	212802672	1477664093993	1477664094104	o	79
414966	4480454	I doubt that it is forecasted.	I doubt that it is forecasted.	212802677	1477664094113	1477664094192	r	82
414966	4480454	I doubt that it is forecasted.	I doubt that it is forecasted.	212802680	1477664094161	1477664094216	e	69
414966	4480454	I doubt that it is forecasted.	I doubt that it is forecasted.	212802684	1477664094313	1477664094392	c	67
414966	4480454	I doubt that it is forecasted.	I doubt that it is forecasted.	212802687	1477664094449	1477664094536	a	65
414966	4480454	I doubt that it is forecasted.	I doubt that it is forecasted.	212802727	1477664094513	1477664094616	s	83
414966	4480454	I doubt that it is forecasted.	I doubt that it is forecasted.	212802729	1477664094616	1477664094712	t	84
414966	4480454	I doubt that it is forecasted.	I doubt that it is forecasted.	212802731	1477664094705	1477664094760	e	69
414966	4480454	I doubt that it is forecasted.	I doubt that it is forecasted.	212802733	1477664094841	1477664094944	d	68
414966	4480454	I doubt that it is forecasted.	I doubt that it is forecasted.	212802734	1477664094896	1477664094992	SHIFT	16
