PARTICIPANT_ID	TEST_SECTION_ID	SENTENCE	USER_INPUT	KEYSTROKE_ID	PRESS_TIME	RELEASE_TIME	LETTER	KEYCODE
425245	4582337	Will you and KB be around this afternoon?	Will you and KB be around this afternoon?	217604805	1477835991989	1477835992149	SHIFT	16
425245	4582337	Will you and KB be around this afternoon?	Will you and KB be around this afternoon?	217604807	1477835992100	1477835992236	W	87
425245	4582337	Will you and KB be around this afternoon?	Will you and KB be around this afternoon?	217604809	1477835992268	1477835992325	i	73
425245	4582337	Will you and KB be around this afternoon?	Will you and KB be around this afternoon?	217604810	1477835992413	1477835992477	l	76
425245	4582337	Will you and KB be around this afternoon?	Will you and KB be around this afternoon?	217604811	1477835992533	1477835992620	l	76
425245	4582337	Will you and KB be around this afternoon?	Will you and KB be around this afternoon?	217604812	1477835992628	1477835992676	 	32
425245	4582337	Will you and KB be around this afternoon?	Will you and KB be around this afternoon?	217604813	1477835992708	1477835992772	y	89
425245	4582337	Will you and KB be around this afternoon?	Will you and KB be around this afternoon?	217604814	1477835992764	1477835992876	o	79
425245	4582337	Will you and KB be around this afternoon?	Will you and KB be around this afternoon?	217604816	1477835992860	1477835992934	u	85
425245	4582337	Will you and KB be around this afternoon?	Will you and KB be around this afternoon?	217604818	1477835992917	1477835992988	 	32
425245	4582337	Will you and KB be around this afternoon?	Will you and KB be around this afternoon?	217604820	1477835993220	1477835993300	a	65
425245	4582337	Will you and KB be around this afternoon?	Will you and KB be around this afternoon?	217604836	1477835993292	1477835993396	n	78
425245	4582337	Will you and KB be around this afternoon?	Will you and KB be around this afternoon?	217604838	1477835993388	1477835993452	d	68
425245	4582337	Will you and KB be around this afternoon?	Will you and KB be around this afternoon?	217604840	1477835993412	1477835993500	 	32
425245	4582337	Will you and KB be around this afternoon?	Will you and KB be around this afternoon?	217604845	1477835993556	1477835994164	SHIFT	16
425245	4582337	Will you and KB be around this afternoon?	Will you and KB be around this afternoon?	217604842	1477835993652	1477835993716	K	75
425245	4582337	Will you and KB be around this afternoon?	Will you and KB be around this afternoon?	217604844	1477835993972	1477835994092	B	66
425245	4582337	Will you and KB be around this afternoon?	Will you and KB be around this afternoon?	217604846	1477835994172	1477835994276	 	32
425245	4582337	Will you and KB be around this afternoon?	Will you and KB be around this afternoon?	217604861	1477835994284	1477835994324	a	65
425245	4582337	Will you and KB be around this afternoon?	Will you and KB be around this afternoon?	217604863	1477835994604	1477835994660	BKSP	8
425245	4582337	Will you and KB be around this afternoon?	Will you and KB be around this afternoon?	217604865	1477835994668	1477835994756	b	66
425245	4582337	Will you and KB be around this afternoon?	Will you and KB be around this afternoon?	217604867	1477835994764	1477835994852	e	69
425245	4582337	Will you and KB be around this afternoon?	Will you and KB be around this afternoon?	217604868	1477835994884	1477835994972	 	32
425245	4582337	Will you and KB be around this afternoon?	Will you and KB be around this afternoon?	217604869	1477835994980	1477835995116	a	65
425245	4582337	Will you and KB be around this afternoon?	Will you and KB be around this afternoon?	217604870	1477835995100	1477835995188	r	82
425245	4582337	Will you and KB be around this afternoon?	Will you and KB be around this afternoon?	217604874	1477835995204	1477835995284	o	79
425245	4582337	Will you and KB be around this afternoon?	Will you and KB be around this afternoon?	217604872	1477835995236	1477835995276	u	85
425245	4582337	Will you and KB be around this afternoon?	Will you and KB be around this afternoon?	217604876	1477835995380	1477835995460	n	78
425245	4582337	Will you and KB be around this afternoon?	Will you and KB be around this afternoon?	217604878	1477835995428	1477835995508	d	68
425245	4582337	Will you and KB be around this afternoon?	Will you and KB be around this afternoon?	217604880	1477835995484	1477835995580	 	32
425245	4582337	Will you and KB be around this afternoon?	Will you and KB be around this afternoon?	217604881	1477835995684	1477835995756	t	84
425245	4582337	Will you and KB be around this afternoon?	Will you and KB be around this afternoon?	217604882	1477835995772	1477835995884	h	72
425245	4582337	Will you and KB be around this afternoon?	Will you and KB be around this afternoon?	217604883	1477835995828	1477835995916	i	73
425245	4582337	Will you and KB be around this afternoon?	Will you and KB be around this afternoon?	217604885	1477835995876	1477835995956	s	83
425245	4582337	Will you and KB be around this afternoon?	Will you and KB be around this afternoon?	217604889	1477835995956	1477835996028	 	32
425245	4582337	Will you and KB be around this afternoon?	Will you and KB be around this afternoon?	217604896	1477835996068	1477835996148	a	65
425245	4582337	Will you and KB be around this afternoon?	Will you and KB be around this afternoon?	217604897	1477835996188	1477835996236	f	70
425245	4582337	Will you and KB be around this afternoon?	Will you and KB be around this afternoon?	217604898	1477835996364	1477835996444	t	84
425245	4582337	Will you and KB be around this afternoon?	Will you and KB be around this afternoon?	217604899	1477835996420	1477835996548	e	69
425245	4582337	Will you and KB be around this afternoon?	Will you and KB be around this afternoon?	217604905	1477835996532	1477835996612	r	82
425245	4582337	Will you and KB be around this afternoon?	Will you and KB be around this afternoon?	217604906	1477835996828	1477835996916	n	78
425245	4582337	Will you and KB be around this afternoon?	Will you and KB be around this afternoon?	217604908	1477835996964	1477835997020	o	79
425245	4582337	Will you and KB be around this afternoon?	Will you and KB be around this afternoon?	217604910	1477835997108	1477835997164	o	79
425245	4582337	Will you and KB be around this afternoon?	Will you and KB be around this afternoon?	217604912	1477835997228	1477835997292	n	78
425245	4582337	Will you and KB be around this afternoon?	Will you and KB be around this afternoon?	217604915	1477835997532	1477835997628	SHIFT	16
425245	4582340	Email the consent to me.	Email the consent to me.	217604935	1477835999532	1477835999676	SHIFT	16
425245	4582340	Email the consent to me.	Email the consent to me.	217604939	1477835999628	1477835999708	E	69
425245	4582340	Email the consent to me.	Email the consent to me.	217604942	1477835999756	1477835999828	m	77
425245	4582340	Email the consent to me.	Email the consent to me.	217604945	1477835999836	1477835999948	a	65
425245	4582340	Email the consent to me.	Email the consent to me.	217604947	1477835999892	1477835999956	i	73
425245	4582340	Email the consent to me.	Email the consent to me.	217604948	1477836000028	1477836000133	l	76
425245	4582340	Email the consent to me.	Email the consent to me.	217604949	1477836000116	1477836000196	 	32
425245	4582340	Email the consent to me.	Email the consent to me.	217604950	1477836000268	1477836000340	t	84
425245	4582340	Email the consent to me.	Email the consent to me.	217604951	1477836000356	1477836000437	h	72
425245	4582340	Email the consent to me.	Email the consent to me.	217604952	1477836000420	1477836000484	e	69
425245	4582340	Email the consent to me.	Email the consent to me.	217604953	1477836000460	1477836000516	 	32
425245	4582340	Email the consent to me.	Email the consent to me.	217604954	1477836000604	1477836000692	c	67
425245	4582340	Email the consent to me.	Email the consent to me.	217604973	1477836000660	1477836000724	o	79
425245	4582340	Email the consent to me.	Email the consent to me.	217604974	1477836000788	1477836000852	n	78
425245	4582340	Email the consent to me.	Email the consent to me.	217604975	1477836000908	1477836000996	s	83
425245	4582340	Email the consent to me.	Email the consent to me.	217604976	1477836001180	1477836001252	e	69
425245	4582340	Email the consent to me.	Email the consent to me.	217604977	1477836001612	1477836001700	n	78
425245	4582340	Email the consent to me.	Email the consent to me.	217604979	1477836001740	1477836001812	t	84
425245	4582340	Email the consent to me.	Email the consent to me.	217604984	1477836001828	1477836001900	 	32
425245	4582340	Email the consent to me.	Email the consent to me.	217604985	1477836002036	1477836002117	t	84
425245	4582340	Email the consent to me.	Email the consent to me.	217604986	1477836002100	1477836002172	o	79
425245	4582340	Email the consent to me.	Email the consent to me.	217604987	1477836002180	1477836002268	 	32
425245	4582340	Email the consent to me.	Email the consent to me.	217604988	1477836002260	1477836002315	m	77
425245	4582340	Email the consent to me.	Email the consent to me.	217604989	1477836002340	1477836002421	e	69
425245	4582340	Email the consent to me.	Email the consent to me.	217604990	1477836002404	1477836002484	.	190
425245	4582343	Tests Monday showed no structural damage to his shoulder.	Test Monday showed no structural damage to his shoulder.	217605026	1477836004580	1477836004731	SHIFT	16
425245	4582343	Tests Monday showed no structural damage to his shoulder.	Test Monday showed no structural damage to his shoulder.	217605028	1477836004707	1477836004771	T	84
425245	4582343	Tests Monday showed no structural damage to his shoulder.	Test Monday showed no structural damage to his shoulder.	217605030	1477836004827	1477836004892	e	69
425245	4582343	Tests Monday showed no structural damage to his shoulder.	Test Monday showed no structural damage to his shoulder.	217605032	1477836004995	1477836005091	s	83
425245	4582343	Tests Monday showed no structural damage to his shoulder.	Test Monday showed no structural damage to his shoulder.	217605034	1477836005107	1477836005179	t	84
425245	4582343	Tests Monday showed no structural damage to his shoulder.	Test Monday showed no structural damage to his shoulder.	217605035	1477836005203	1477836005299	 	32
425245	4582343	Tests Monday showed no structural damage to his shoulder.	Test Monday showed no structural damage to his shoulder.	217605045	1477836005579	1477836005755	SHIFT	16
425245	4582343	Tests Monday showed no structural damage to his shoulder.	Test Monday showed no structural damage to his shoulder.	217605043	1477836005643	1477836005715	M	77
425245	4582343	Tests Monday showed no structural damage to his shoulder.	Test Monday showed no structural damage to his shoulder.	217605048	1477836005723	1477836005771	O	79
425245	4582343	Tests Monday showed no structural damage to his shoulder.	Test Monday showed no structural damage to his shoulder.	217605050	1477836005843	1477836005907	n	78
425245	4582343	Tests Monday showed no structural damage to his shoulder.	Test Monday showed no structural damage to his shoulder.	217605051	1477836005963	1477836006027	d	68
425245	4582343	Tests Monday showed no structural damage to his shoulder.	Test Monday showed no structural damage to his shoulder.	217605063	1477836006003	1477836006139	a	65
425245	4582343	Tests Monday showed no structural damage to his shoulder.	Test Monday showed no structural damage to his shoulder.	217605066	1477836006179	1477836006243	y	89
425245	4582343	Tests Monday showed no structural damage to his shoulder.	Test Monday showed no structural damage to his shoulder.	217605069	1477836006403	1477836006451	BKSP	8
425245	4582343	Tests Monday showed no structural damage to his shoulder.	Test Monday showed no structural damage to his shoulder.	217605073	1477836006515	1477836006571	BKSP	8
425245	4582343	Tests Monday showed no structural damage to his shoulder.	Test Monday showed no structural damage to his shoulder.	217605077	1477836006659	1477836006715	BKSP	8
425245	4582343	Tests Monday showed no structural damage to his shoulder.	Test Monday showed no structural damage to his shoulder.	217605081	1477836006763	1477836006827	BKSP	8
425245	4582343	Tests Monday showed no structural damage to his shoulder.	Test Monday showed no structural damage to his shoulder.	217605083	1477836006851	1477836006915	BKSP	8
425245	4582343	Tests Monday showed no structural damage to his shoulder.	Test Monday showed no structural damage to his shoulder.	217605087	1477836007187	1477836007243	o	79
425245	4582343	Tests Monday showed no structural damage to his shoulder.	Test Monday showed no structural damage to his shoulder.	217605090	1477836007299	1477836007363	n	78
425245	4582343	Tests Monday showed no structural damage to his shoulder.	Test Monday showed no structural damage to his shoulder.	217605092	1477836007395	1477836007467	d	68
425245	4582343	Tests Monday showed no structural damage to his shoulder.	Test Monday showed no structural damage to his shoulder.	217605098	1477836007427	1477836007563	a	65
425245	4582343	Tests Monday showed no structural damage to his shoulder.	Test Monday showed no structural damage to his shoulder.	217605099	1477836007579	1477836007643	y	89
425245	4582343	Tests Monday showed no structural damage to his shoulder.	Test Monday showed no structural damage to his shoulder.	217605100	1477836007667	1477836007755	 	32
425245	4582343	Tests Monday showed no structural damage to his shoulder.	Test Monday showed no structural damage to his shoulder.	217605101	1477836008067	1477836008147	s	83
425245	4582343	Tests Monday showed no structural damage to his shoulder.	Test Monday showed no structural damage to his shoulder.	217605102	1477836008155	1477836008211	h	72
425245	4582343	Tests Monday showed no structural damage to his shoulder.	Test Monday showed no structural damage to his shoulder.	217605103	1477836008251	1477836008331	o	79
425245	4582343	Tests Monday showed no structural damage to his shoulder.	Test Monday showed no structural damage to his shoulder.	217605115	1477836008363	1477836008451	w	87
425245	4582343	Tests Monday showed no structural damage to his shoulder.	Test Monday showed no structural damage to his shoulder.	217605118	1477836008491	1477836008571	e	69
425245	4582343	Tests Monday showed no structural damage to his shoulder.	Test Monday showed no structural damage to his shoulder.	217605119	1477836008683	1477836008739	d	68
425245	4582343	Tests Monday showed no structural damage to his shoulder.	Test Monday showed no structural damage to his shoulder.	217605122	1477836008763	1477836008827	 	32
425245	4582343	Tests Monday showed no structural damage to his shoulder.	Test Monday showed no structural damage to his shoulder.	217605123	1477836009131	1477836009243	n	78
425245	4582343	Tests Monday showed no structural damage to his shoulder.	Test Monday showed no structural damage to his shoulder.	217605130	1477836009245	1477836009348	o	79
425245	4582343	Tests Monday showed no structural damage to his shoulder.	Test Monday showed no structural damage to his shoulder.	217605132	1477836009331	1477836009411	 	32
425245	4582343	Tests Monday showed no structural damage to his shoulder.	Test Monday showed no structural damage to his shoulder.	217605135	1477836009435	1477836009499	s	83
425245	4582343	Tests Monday showed no structural damage to his shoulder.	Test Monday showed no structural damage to his shoulder.	217605138	1477836009531	1477836009587	t	84
425245	4582343	Tests Monday showed no structural damage to his shoulder.	Test Monday showed no structural damage to his shoulder.	217605142	1477836009643	1477836009723	r	82
425245	4582343	Tests Monday showed no structural damage to his shoulder.	Test Monday showed no structural damage to his shoulder.	217605160	1477836009755	1477836009819	u	85
425245	4582343	Tests Monday showed no structural damage to his shoulder.	Test Monday showed no structural damage to his shoulder.	217605161	1477836009875	1477836009939	c	67
425245	4582343	Tests Monday showed no structural damage to his shoulder.	Test Monday showed no structural damage to his shoulder.	217605162	1477836010443	1477836010491	t	84
425245	4582343	Tests Monday showed no structural damage to his shoulder.	Test Monday showed no structural damage to his shoulder.	217605163	1477836010555	1477836010635	u	85
425245	4582343	Tests Monday showed no structural damage to his shoulder.	Test Monday showed no structural damage to his shoulder.	217605164	1477836010651	1477836010771	r	82
425245	4582343	Tests Monday showed no structural damage to his shoulder.	Test Monday showed no structural damage to his shoulder.	217605167	1477836010739	1477836010859	a	65
425245	4582343	Tests Monday showed no structural damage to his shoulder.	Test Monday showed no structural damage to his shoulder.	217605171	1477836010819	1477836010939	l	76
425245	4582343	Tests Monday showed no structural damage to his shoulder.	Test Monday showed no structural damage to his shoulder.	217605173	1477836010907	1477836010979	 	32
425245	4582343	Tests Monday showed no structural damage to his shoulder.	Test Monday showed no structural damage to his shoulder.	217605175	1477836011155	1477836011235	d	68
425245	4582343	Tests Monday showed no structural damage to his shoulder.	Test Monday showed no structural damage to his shoulder.	217605177	1477836011307	1477836011387	m	77
425245	4582343	Tests Monday showed no structural damage to his shoulder.	Test Monday showed no structural damage to his shoulder.	217605197	1477836011371	1477836011467	a	65
425245	4582343	Tests Monday showed no structural damage to his shoulder.	Test Monday showed no structural damage to his shoulder.	217605198	1477836011515	1477836011643	g	71
425245	4582343	Tests Monday showed no structural damage to his shoulder.	Test Monday showed no structural damage to his shoulder.	217605199	1477836011587	1477836011659	e	69
425245	4582343	Tests Monday showed no structural damage to his shoulder.	Test Monday showed no structural damage to his shoulder.	217605200	1477836011867	1477836011931	BKSP	8
425245	4582343	Tests Monday showed no structural damage to his shoulder.	Test Monday showed no structural damage to his shoulder.	217605202	1477836012011	1477836012083	BKSP	8
425245	4582343	Tests Monday showed no structural damage to his shoulder.	Test Monday showed no structural damage to his shoulder.	217605204	1477836012123	1477836012211	BKSP	8
425245	4582343	Tests Monday showed no structural damage to his shoulder.	Test Monday showed no structural damage to his shoulder.	217605205	1477836012539	1477836012611	BKSP	8
425245	4582343	Tests Monday showed no structural damage to his shoulder.	Test Monday showed no structural damage to his shoulder.	217605206	1477836012651	1477836012739	a	65
425245	4582343	Tests Monday showed no structural damage to his shoulder.	Test Monday showed no structural damage to his shoulder.	217605207	1477836012827	1477836012883	m	77
425245	4582343	Tests Monday showed no structural damage to his shoulder.	Test Monday showed no structural damage to his shoulder.	217605208	1477836012899	1477836013019	a	65
425245	4582343	Tests Monday showed no structural damage to his shoulder.	Test Monday showed no structural damage to his shoulder.	217605214	1477836013059	1477836013163	g	71
425245	4582343	Tests Monday showed no structural damage to his shoulder.	Test Monday showed no structural damage to his shoulder.	217605217	1477836013115	1477836013203	e	69
425245	4582343	Tests Monday showed no structural damage to his shoulder.	Test Monday showed no structural damage to his shoulder.	217605220	1477836013435	1477836013539	 	32
425245	4582343	Tests Monday showed no structural damage to his shoulder.	Test Monday showed no structural damage to his shoulder.	217605223	1477836013595	1477836013683	t	84
425245	4582343	Tests Monday showed no structural damage to his shoulder.	Test Monday showed no structural damage to his shoulder.	217605228	1477836013675	1477836013755	o	79
425245	4582343	Tests Monday showed no structural damage to his shoulder.	Test Monday showed no structural damage to his shoulder.	217605230	1477836013739	1477836013771	 	32
425245	4582343	Tests Monday showed no structural damage to his shoulder.	Test Monday showed no structural damage to his shoulder.	217605232	1477836013819	1477836013939	h	72
425245	4582343	Tests Monday showed no structural damage to his shoulder.	Test Monday showed no structural damage to his shoulder.	217605233	1477836013915	1477836013995	i	73
425245	4582343	Tests Monday showed no structural damage to his shoulder.	Test Monday showed no structural damage to his shoulder.	217605234	1477836013987	1477836014067	s	83
425245	4582343	Tests Monday showed no structural damage to his shoulder.	Test Monday showed no structural damage to his shoulder.	217605248	1477836014051	1477836014131	 	32
425245	4582343	Tests Monday showed no structural damage to his shoulder.	Test Monday showed no structural damage to his shoulder.	217605249	1477836014227	1477836014299	s	83
425245	4582343	Tests Monday showed no structural damage to his shoulder.	Test Monday showed no structural damage to his shoulder.	217605250	1477836014323	1477836014411	h	72
425245	4582343	Tests Monday showed no structural damage to his shoulder.	Test Monday showed no structural damage to his shoulder.	217605251	1477836014443	1477836014571	o	79
425245	4582343	Tests Monday showed no structural damage to his shoulder.	Test Monday showed no structural damage to his shoulder.	217605252	1477836014515	1477836014595	u	85
425245	4582343	Tests Monday showed no structural damage to his shoulder.	Test Monday showed no structural damage to his shoulder.	217605253	1477836014779	1477836014915	l	76
425245	4582343	Tests Monday showed no structural damage to his shoulder.	Test Monday showed no structural damage to his shoulder.	217605260	1477836014987	1477836015059	d	68
425245	4582343	Tests Monday showed no structural damage to his shoulder.	Test Monday showed no structural damage to his shoulder.	217605262	1477836015347	1477836015499	e	69
425245	4582343	Tests Monday showed no structural damage to his shoulder.	Test Monday showed no structural damage to his shoulder.	217605264	1477836015459	1477836015547	r	82
425245	4582343	Tests Monday showed no structural damage to his shoulder.	Test Monday showed no structural damage to his shoulder.	217605266	1477836015563	1477836015635	.	190
425245	4582349	Can you help me here?	Can you help me here?	217605292	1477836017842	1477836018042	SHIFT	16
425245	4582349	Can you help me here?	Can you help me here?	217605293	1477836017994	1477836018074	C	67
425245	4582349	Can you help me here?	Can you help me here?	217605294	1477836018098	1477836018218	a	65
425245	4582349	Can you help me here?	Can you help me here?	217605295	1477836018194	1477836018274	n	78
425245	4582349	Can you help me here?	Can you help me here?	217605296	1477836018266	1477836018346	 	32
425245	4582349	Can you help me here?	Can you help me here?	217605297	1477836018402	1477836018458	y	89
425245	4582349	Can you help me here?	Can you help me here?	217605307	1477836018466	1477836018578	o	79
425245	4582349	Can you help me here?	Can you help me here?	217605311	1477836018538	1477836018586	u	85
425245	4582349	Can you help me here?	Can you help me here?	217605312	1477836018562	1477836018650	 	32
425245	4582349	Can you help me here?	Can you help me here?	217605314	1477836018674	1477836018746	h	72
425245	4582349	Can you help me here?	Can you help me here?	217605316	1477836018762	1477836018858	e	69
425245	4582349	Can you help me here?	Can you help me here?	217605329	1477836018834	1477836018922	l	76
425245	4582349	Can you help me here?	Can you help me here?	217605330	1477836019394	1477836019490	p	80
425245	4582349	Can you help me here?	Can you help me here?	217605331	1477836019514	1477836019570	 	32
425245	4582349	Can you help me here?	Can you help me here?	217605332	1477836019602	1477836019698	m	77
425245	4582349	Can you help me here?	Can you help me here?	217605334	1477836019722	1477836019803	e	69
425245	4582349	Can you help me here?	Can you help me here?	217605345	1477836019786	1477836019858	 	32
425245	4582349	Can you help me here?	Can you help me here?	217605348	1477836019930	1477836020012	h	72
425245	4582349	Can you help me here?	Can you help me here?	217605350	1477836019994	1477836020095	e	69
425245	4582349	Can you help me here?	Can you help me here?	217605351	1477836020106	1477836020234	r	82
425245	4582349	Can you help me here?	Can you help me here?	217605352	1477836020194	1477836020306	e	69
425245	4582349	Can you help me here?	Can you help me here?	217605353	1477836020354	1477836020458	SHIFT	16
425245	4582352	Will follow up today.	Will follow up today.	217605395	1477836022682	1477836022794	SHIFT	16
425245	4582352	Will follow up today.	Will follow up today.	217605397	1477836022762	1477836022858	W	87
425245	4582352	Will follow up today.	Will follow up today.	217605399	1477836022914	1477836022978	i	73
425245	4582352	Will follow up today.	Will follow up today.	217605401	1477836023074	1477836023138	l	76
425245	4582352	Will follow up today.	Will follow up today.	217605403	1477836023202	1477836023307	l	76
425245	4582352	Will follow up today.	Will follow up today.	217605420	1477836023290	1477836023402	 	32
425245	4582352	Will follow up today.	Will follow up today.	217605421	1477836023602	1477836023690	f	70
425245	4582352	Will follow up today.	Will follow up today.	217605422	1477836023738	1477836023794	o	79
425245	4582352	Will follow up today.	Will follow up today.	217605424	1477836023906	1477836023962	l	76
425245	4582352	Will follow up today.	Will follow up today.	217605427	1477836024034	1477836024095	l	76
425245	4582352	Will follow up today.	Will follow up today.	217605434	1477836024178	1477836024226	o	79
425245	4582352	Will follow up today.	Will follow up today.	217605448	1477836024387	1477836024458	w	87
425245	4582352	Will follow up today.	Will follow up today.	217605451	1477836024482	1477836024554	 	32
425245	4582352	Will follow up today.	Will follow up today.	217605454	1477836024618	1477836024731	u	85
425245	4582352	Will follow up today.	Will follow up today.	217605457	1477836024714	1477836024834	o	79
425245	4582352	Will follow up today.	Will follow up today.	217605459	1477836024850	1477836024938	 	32
425245	4582352	Will follow up today.	Will follow up today.	217605475	1477836024994	1477836025083	t	84
425245	4582352	Will follow up today.	Will follow up today.	217605477	1477836025066	1477836025130	o	79
425245	4582352	Will follow up today.	Will follow up today.	217605479	1477836025386	1477836025442	BKSP	8
425245	4582352	Will follow up today.	Will follow up today.	217605481	1477836025522	1477836025578	BKSP	8
425245	4582352	Will follow up today.	Will follow up today.	217605482	1477836025666	1477836025722	BKSP	8
425245	4582352	Will follow up today.	Will follow up today.	217605483	1477836025786	1477836025866	BKSP	8
425245	4582352	Will follow up today.	Will follow up today.	217605484	1477836026010	1477836026106	p	80
425245	4582352	Will follow up today.	Will follow up today.	217605485	1477836026082	1477836026130	 	32
425245	4582352	Will follow up today.	Will follow up today.	217605486	1477836026210	1477836026274	t	84
425245	4582352	Will follow up today.	Will follow up today.	217605491	1477836026290	1477836026362	o	79
425245	4582352	Will follow up today.	Will follow up today.	217605494	1477836026434	1477836026546	d	68
425245	4582352	Will follow up today.	Will follow up today.	217605497	1477836026522	1477836026626	a	65
425245	4582352	Will follow up today.	Will follow up today.	217605499	1477836026578	1477836026642	y	89
425245	4582352	Will follow up today.	Will follow up today.	217605502	1477836026754	1477836026834	.	190
425245	4582356	I'm still in FW.	I'm still on FW.	217605593	1477836028617	1477836028769	SHIFT	16
425245	4582356	I'm still in FW.	I'm still on FW.	217605595	1477836028785	1477836028977	SHIFT	16
425245	4582356	I'm still in FW.	I'm still on FW.	217605594	1477836028889	1477836028961	I	73
425245	4582356	I'm still in FW.	I'm still on FW.	217605596	1477836029057	1477836029129	m	77
425245	4582356	I'm still in FW.	I'm still on FW.	217605597	1477836029497	1477836029537	BKSP	8
425245	4582356	I'm still in FW.	I'm still on FW.	217605598	1477836029721	1477836029777	'	222
425245	4582356	I'm still in FW.	I'm still on FW.	217605599	1477836029953	1477836030041	m	77
425245	4582356	I'm still in FW.	I'm still on FW.	217605601	1477836030121	1477836030225	 	32
425245	4582356	I'm still in FW.	I'm still on FW.	217605619	1477836030257	1477836030329	s	83
425245	4582356	I'm still in FW.	I'm still on FW.	217605621	1477836030345	1477836030433	t	84
425245	4582356	I'm still in FW.	I'm still on FW.	217605624	1477836030465	1477836030529	i	73
425245	4582356	I'm still in FW.	I'm still on FW.	217605627	1477836030617	1477836030665	l	76
425245	4582356	I'm still in FW.	I'm still on FW.	217605628	1477836030745	1477836030817	l	76
425245	4582356	I'm still in FW.	I'm still on FW.	217605633	1477836030825	1477836030897	 	32
425245	4582356	I'm still in FW.	I'm still on FW.	217605635	1477836030929	1477836031009	o	79
425245	4582356	I'm still in FW.	I'm still on FW.	217605637	1477836031033	1477836031113	n	78
425245	4582356	I'm still in FW.	I'm still on FW.	217605640	1477836031121	1477836031193	 	32
425245	4582356	I'm still in FW.	I'm still on FW.	217605658	1477836031265	1477836031721	SHIFT	16
425245	4582356	I'm still in FW.	I'm still on FW.	217605645	1477836031305	1477836031393	F	70
425245	4582356	I'm still in FW.	I'm still on FW.	217605656	1477836031465	1477836031561	W	87
425245	4582356	I'm still in FW.	I'm still on FW.	217605660	1477836031937	1477836032041	.	190
425245	4582359	I had a last minute meeting come up.	I had a last minute meeting come up.	217605697	1477836034193	1477836034297	SHIFT	16
425245	4582359	I had a last minute meeting come up.	I had a last minute meeting come up.	217605698	1477836034297	1477836034457	SHIFT	16
425245	4582359	I had a last minute meeting come up.	I had a last minute meeting come up.	217605699	1477836034409	1477836034481	I	73
425245	4582359	I had a last minute meeting come up.	I had a last minute meeting come up.	217605700	1477836034465	1477836034513	 	32
425245	4582359	I had a last minute meeting come up.	I had a last minute meeting come up.	217605701	1477836034569	1477836034633	h	72
425245	4582359	I had a last minute meeting come up.	I had a last minute meeting come up.	217605702	1477836034641	1477836034737	a	65
425245	4582359	I had a last minute meeting come up.	I had a last minute meeting come up.	217605703	1477836034753	1477836034833	d	68
425245	4582359	I had a last minute meeting come up.	I had a last minute meeting come up.	217605715	1477836034873	1477836034937	 	32
425245	4582359	I had a last minute meeting come up.	I had a last minute meeting come up.	217605718	1477836035049	1477836035105	a	65
425245	4582359	I had a last minute meeting come up.	I had a last minute meeting come up.	217605720	1477836035161	1477836035265	 	32
425245	4582359	I had a last minute meeting come up.	I had a last minute meeting come up.	217605721	1477836035281	1477836035369	l	76
425245	4582359	I had a last minute meeting come up.	I had a last minute meeting come up.	217605722	1477836035361	1477836035561	a	65
425245	4582359	I had a last minute meeting come up.	I had a last minute meeting come up.	217605724	1477836035481	1477836035601	s	83
425245	4582359	I had a last minute meeting come up.	I had a last minute meeting come up.	217605726	1477836035569	1477836035658	t	84
425245	4582359	I had a last minute meeting come up.	I had a last minute meeting come up.	217605728	1477836035641	1477836035753	 	32
425245	4582359	I had a last minute meeting come up.	I had a last minute meeting come up.	217605731	1477836035721	1477836035793	m	77
425245	4582359	I had a last minute meeting come up.	I had a last minute meeting come up.	217605734	1477836035833	1477836035897	i	73
425245	4582359	I had a last minute meeting come up.	I had a last minute meeting come up.	217605742	1477836035945	1477836036009	n	78
425245	4582359	I had a last minute meeting come up.	I had a last minute meeting come up.	217605744	1477836036105	1477836036169	u	85
425245	4582359	I had a last minute meeting come up.	I had a last minute meeting come up.	217605746	1477836036161	1477836036305	t	84
425245	4582359	I had a last minute meeting come up.	I had a last minute meeting come up.	217605748	1477836036257	1477836036361	e	69
425245	4582359	I had a last minute meeting come up.	I had a last minute meeting come up.	217605749	1477836036441	1477836036553	 	32
425245	4582359	I had a last minute meeting come up.	I had a last minute meeting come up.	217605767	1477836036873	1477836036953	m	77
425245	4582359	I had a last minute meeting come up.	I had a last minute meeting come up.	217605768	1477836037033	1477836037097	e	69
425245	4582359	I had a last minute meeting come up.	I had a last minute meeting come up.	217605769	1477836037145	1477836037233	e	69
425245	4582359	I had a last minute meeting come up.	I had a last minute meeting come up.	217605770	1477836037321	1477836037401	t	84
425245	4582359	I had a last minute meeting come up.	I had a last minute meeting come up.	217605771	1477836037409	1477836037465	i	73
425245	4582359	I had a last minute meeting come up.	I had a last minute meeting come up.	217605773	1477836037505	1477836037617	n	78
425245	4582359	I had a last minute meeting come up.	I had a last minute meeting come up.	217605772	1477836037529	1477836037609	g	71
425245	4582359	I had a last minute meeting come up.	I had a last minute meeting come up.	217605774	1477836037633	1477836037705	 	32
425245	4582359	I had a last minute meeting come up.	I had a last minute meeting come up.	217605776	1477836037921	1477836037985	c	67
425245	4582359	I had a last minute meeting come up.	I had a last minute meeting come up.	217605778	1477836037985	1477836038041	o	79
425245	4582359	I had a last minute meeting come up.	I had a last minute meeting come up.	217605791	1477836038145	1477836038233	m	77
425245	4582359	I had a last minute meeting come up.	I had a last minute meeting come up.	217605793	1477836038217	1477836038297	e	69
425245	4582359	I had a last minute meeting come up.	I had a last minute meeting come up.	217605796	1477836038313	1477836038409	 	32
425245	4582359	I had a last minute meeting come up.	I had a last minute meeting come up.	217605799	1477836038529	1477836038617	u	85
425245	4582359	I had a last minute meeting come up.	I had a last minute meeting come up.	217605803	1477836038633	1477836038721	p	80
425245	4582359	I had a last minute meeting come up.	I had a last minute meeting come up.	217605813	1477836038857	1477836038937	.	190
425245	4582364	Thanks for your concern.	Thanks for your concern.	217605885	1477836041000	1477836041112	SHIFT	16
425245	4582364	Thanks for your concern.	Thanks for your concern.	217605887	1477836041081	1477836041160	T	84
425245	4582364	Thanks for your concern.	Thanks for your concern.	217605889	1477836041216	1477836041264	h	72
425245	4582364	Thanks for your concern.	Thanks for your concern.	217605892	1477836041274	1477836041360	a	65
425245	4582364	Thanks for your concern.	Thanks for your concern.	217605895	1477836041352	1477836041472	n	78
425245	4582364	Thanks for your concern.	Thanks for your concern.	217605900	1477836041432	1477836041520	k	75
425245	4582364	Thanks for your concern.	Thanks for your concern.	217605902	1477836041488	1477836041576	s	83
425245	4582364	Thanks for your concern.	Thanks for your concern.	217605904	1477836041592	1477836041680	 	32
425245	4582364	Thanks for your concern.	Thanks for your concern.	217605906	1477836041712	1477836041792	f	70
425245	4582364	Thanks for your concern.	Thanks for your concern.	217605908	1477836041824	1477836041904	o	79
425245	4582364	Thanks for your concern.	Thanks for your concern.	217605912	1477836041896	1477836041984	r	82
425245	4582364	Thanks for your concern.	Thanks for your concern.	217605915	1477836041944	1477836042016	 	32
425245	4582364	Thanks for your concern.	Thanks for your concern.	217605918	1477836042040	1477836042096	y	89
425245	4582364	Thanks for your concern.	Thanks for your concern.	217605920	1477836042112	1477836042216	o	79
425245	4582364	Thanks for your concern.	Thanks for your concern.	217605922	1477836042176	1477836042248	u	85
425245	4582364	Thanks for your concern.	Thanks for your concern.	217605924	1477836042280	1477836042376	r	82
425245	4582364	Thanks for your concern.	Thanks for your concern.	217605955	1477836042392	1477836042472	 	32
425245	4582364	Thanks for your concern.	Thanks for your concern.	217605956	1477836042544	1477836042624	c	67
425245	4582364	Thanks for your concern.	Thanks for your concern.	217605957	1477836042680	1477836042736	o	79
425245	4582364	Thanks for your concern.	Thanks for your concern.	217605958	1477836042768	1477836042864	n	78
425245	4582364	Thanks for your concern.	Thanks for your concern.	217605960	1477836043480	1477836043536	c	67
425245	4582364	Thanks for your concern.	Thanks for your concern.	217605995	1477836043648	1477836043736	e	69
425245	4582364	Thanks for your concern.	Thanks for your concern.	217605997	1477836043784	1477836043880	r	82
425245	4582364	Thanks for your concern.	Thanks for your concern.	217605999	1477836044224	1477836044304	n	78
425245	4582364	Thanks for your concern.	Thanks for your concern.	217606002	1477836044448	1477836044520	.	190
425245	4582366	Still waiting on decision.	Still waiting on decision.	217606067	1477836046656	1477836046872	SHIFT	16
425245	4582366	Still waiting on decision.	Still waiting on decision.	217606070	1477836046808	1477836046880	S	83
425245	4582366	Still waiting on decision.	Still waiting on decision.	217606074	1477836046952	1477836047040	t	84
425245	4582366	Still waiting on decision.	Still waiting on decision.	217606078	1477836047040	1477836047112	i	73
425245	4582366	Still waiting on decision.	Still waiting on decision.	217606082	1477836047216	1477836047264	l	76
425245	4582366	Still waiting on decision.	Still waiting on decision.	217606085	1477836047336	1477836047432	l	76
425245	4582366	Still waiting on decision.	Still waiting on decision.	217606091	1477836047434	1477836047512	 	32
425245	4582366	Still waiting on decision.	Still waiting on decision.	217606092	1477836047600	1477836047744	w	87
425245	4582366	Still waiting on decision.	Still waiting on decision.	217606093	1477836047680	1477836047792	a	65
425245	4582366	Still waiting on decision.	Still waiting on decision.	217606094	1477836047816	1477836047872	i	73
425245	4582366	Still waiting on decision.	Still waiting on decision.	217606095	1477836047904	1477836047968	t	84
425245	4582366	Still waiting on decision.	Still waiting on decision.	217606103	1477836048000	1477836048080	i	73
425245	4582366	Still waiting on decision.	Still waiting on decision.	217606105	1477836048096	1477836048208	n	78
425245	4582366	Still waiting on decision.	Still waiting on decision.	217606107	1477836048160	1477836048216	g	71
425245	4582366	Still waiting on decision.	Still waiting on decision.	217606109	1477836048256	1477836048328	 	32
425245	4582366	Still waiting on decision.	Still waiting on decision.	217606111	1477836048464	1477836048568	o	79
425245	4582366	Still waiting on decision.	Still waiting on decision.	217606127	1477836048600	1477836048696	n	78
425245	4582366	Still waiting on decision.	Still waiting on decision.	217606129	1477836048696	1477836048784	 	32
425245	4582366	Still waiting on decision.	Still waiting on decision.	217606130	1477836048832	1477836048904	d	68
425245	4582366	Still waiting on decision.	Still waiting on decision.	217606131	1477836048992	1477836049048	e	69
425245	4582366	Still waiting on decision.	Still waiting on decision.	217606132	1477836049200	1477836049256	c	67
425245	4582366	Still waiting on decision.	Still waiting on decision.	217606155	1477836049288	1477836049352	i	73
425245	4582366	Still waiting on decision.	Still waiting on decision.	217606156	1477836049976	1477836050056	s	83
425245	4582366	Still waiting on decision.	Still waiting on decision.	217606157	1477836050080	1477836050192	i	73
425245	4582366	Still waiting on decision.	Still waiting on decision.	217606158	1477836050144	1477836050208	o	79
425245	4582366	Still waiting on decision.	Still waiting on decision.	217606159	1477836050288	1477836050368	n	78
425245	4582366	Still waiting on decision.	Still waiting on decision.	217606170	1477836050448	1477836050520	.	190
425245	4582370	What will happen to this project?	What will happen to this project?	217606230	1477836052455	1477836052623	SHIFT	16
425245	4582370	What will happen to this project?	What will happen to this project?	217606232	1477836052583	1477836052647	W	87
425245	4582370	What will happen to this project?	What will happen to this project?	217606236	1477836052823	1477836052911	h	72
425245	4582370	What will happen to this project?	What will happen to this project?	217606238	1477836052888	1477836053039	a	65
425245	4582370	What will happen to this project?	What will happen to this project?	217606246	1477836052991	1477836053055	t	84
425245	4582370	What will happen to this project?	What will happen to this project?	217606247	1477836053024	1477836053127	 	32
425245	4582370	What will happen to this project?	What will happen to this project?	217606248	1477836053184	1477836053290	w	87
425245	4582370	What will happen to this project?	What will happen to this project?	217606249	1477836053271	1477836053335	i	73
425245	4582370	What will happen to this project?	What will happen to this project?	217606250	1477836053431	1477836053487	l	76
425245	4582370	What will happen to this project?	What will happen to this project?	217606251	1477836053567	1477836053647	l	76
425245	4582370	What will happen to this project?	What will happen to this project?	217606254	1477836053623	1477836053695	 	32
425245	4582370	What will happen to this project?	What will happen to this project?	217606256	1477836053743	1477836053807	h	72
425245	4582370	What will happen to this project?	What will happen to this project?	217606259	1477836053831	1477836053903	a	65
425245	4582370	What will happen to this project?	What will happen to this project?	217606263	1477836053935	1477836053975	p	80
425245	4582370	What will happen to this project?	What will happen to this project?	217606264	1477836054055	1477836054119	p	80
425245	4582370	What will happen to this project?	What will happen to this project?	217606267	1477836054159	1477836054231	e	69
425245	4582370	What will happen to this project?	What will happen to this project?	217606280	1477836054287	1477836054367	n	78
425245	4582370	What will happen to this project?	What will happen to this project?	217606282	1477836054567	1477836054639	 	32
425245	4582370	What will happen to this project?	What will happen to this project?	217606283	1477836054663	1477836054735	t	84
425245	4582370	What will happen to this project?	What will happen to this project?	217606284	1477836054751	1477836054831	o	79
425245	4582370	What will happen to this project?	What will happen to this project?	217606298	1477836054807	1477836054855	 	32
425245	4582370	What will happen to this project?	What will happen to this project?	217606299	1477836054911	1477836055039	h	72
425245	4582370	What will happen to this project?	What will happen to this project?	217606300	1477836055007	1477836055079	i	73
425245	4582370	What will happen to this project?	What will happen to this project?	217606301	1477836055311	1477836055367	BKSP	8
425245	4582370	What will happen to this project?	What will happen to this project?	217606302	1477836055479	1477836055543	BKSP	8
425245	4582370	What will happen to this project?	What will happen to this project?	217606303	1477836055583	1477836055663	t	84
425245	4582370	What will happen to this project?	What will happen to this project?	217606304	1477836055695	1477836055791	h	72
425245	4582370	What will happen to this project?	What will happen to this project?	217606310	1477836055743	1477836055815	i	73
425245	4582370	What will happen to this project?	What will happen to this project?	217606311	1477836055823	1477836055888	s	83
425245	4582370	What will happen to this project?	What will happen to this project?	217606312	1477836055871	1477836055959	 	32
425245	4582370	What will happen to this project?	What will happen to this project?	217606313	1477836056015	1477836056092	p	80
425245	4582370	What will happen to this project?	What will happen to this project?	217606314	1477836056119	1477836056191	r	82
425245	4582370	What will happen to this project?	What will happen to this project?	217606315	1477836056215	1477836056271	o	79
425245	4582370	What will happen to this project?	What will happen to this project?	217606339	1477836056575	1477836056663	j	74
425245	4582370	What will happen to this project?	What will happen to this project?	217606340	1477836056711	1477836056759	e	69
425245	4582370	What will happen to this project?	What will happen to this project?	217606341	1477836056879	1477836056935	c	67
425245	4582370	What will happen to this project?	What will happen to this project?	217606342	1477836057031	1477836057087	t	84
425245	4582370	What will happen to this project?	What will happen to this project?	217606343	1477836057175	1477836057263	SHIFT	16
425245	4582370	What will happen to this project?	What will happen to this project?	217606344	1477836057239	1477836057319	?	191
425245	4582377	I haven't really done any studying for it.	I haven't really done any studying for it.	217606410	1477836059599	1477836059863	SHIFT	16
425245	4582377	I haven't really done any studying for it.	I haven't really done any studying for it.	217606407	1477836059735	1477836059807	I	73
425245	4582377	I haven't really done any studying for it.	I haven't really done any studying for it.	217606412	1477836059879	1477836059943	 	32
425245	4582377	I haven't really done any studying for it.	I haven't really done any studying for it.	217606413	1477836060023	1477836060103	h	72
425245	4582377	I haven't really done any studying for it.	I haven't really done any studying for it.	217606415	1477836060119	1477836060199	a	65
425245	4582377	I haven't really done any studying for it.	I haven't really done any studying for it.	217606416	1477836060215	1477836060391	v	86
425245	4582377	I haven't really done any studying for it.	I haven't really done any studying for it.	217606457	1477836060335	1477836060455	e	69
425245	4582377	I haven't really done any studying for it.	I haven't really done any studying for it.	217606459	1477836060943	1477836061023	n	78
425245	4582377	I haven't really done any studying for it.	I haven't really done any studying for it.	217606461	1477836061623	1477836061711	'	222
425245	4582377	I haven't really done any studying for it.	I haven't really done any studying for it.	217606463	1477836061863	1477836061927	t	84
425245	4582377	I haven't really done any studying for it.	I haven't really done any studying for it.	217606465	1477836061991	1477836062071	 	32
425245	4582377	I haven't really done any studying for it.	I haven't really done any studying for it.	217606467	1477836062143	1477836062239	r	82
425245	4582377	I haven't really done any studying for it.	I haven't really done any studying for it.	217606468	1477836062199	1477836062327	e	69
425245	4582377	I haven't really done any studying for it.	I haven't really done any studying for it.	217606469	1477836062287	1477836062391	a	65
425245	4582377	I haven't really done any studying for it.	I haven't really done any studying for it.	217606471	1477836062367	1477836062423	l	76
425245	4582377	I haven't really done any studying for it.	I haven't really done any studying for it.	217606473	1477836062527	1477836062567	l	76
425245	4582377	I haven't really done any studying for it.	I haven't really done any studying for it.	217606475	1477836062639	1477836062711	y	89
425245	4582377	I haven't really done any studying for it.	I haven't really done any studying for it.	217606483	1477836062687	1477836062743	 	32
425245	4582377	I haven't really done any studying for it.	I haven't really done any studying for it.	217606486	1477836062799	1477836062895	d	68
425245	4582377	I haven't really done any studying for it.	I haven't really done any studying for it.	217606490	1477836062847	1477836062902	o	79
425245	4582377	I haven't really done any studying for it.	I haven't really done any studying for it.	217606495	1477836062943	1477836063039	n	78
425245	4582377	I haven't really done any studying for it.	I haven't really done any studying for it.	217606499	1477836063063	1477836063135	e	69
425245	4582377	I haven't really done any studying for it.	I haven't really done any studying for it.	217606502	1477836063159	1477836063231	 	32
425245	4582377	I haven't really done any studying for it.	I haven't really done any studying for it.	217606506	1477836063263	1477836063359	a	65
425245	4582377	I haven't really done any studying for it.	I haven't really done any studying for it.	217606508	1477836063335	1477836063399	n	78
425245	4582377	I haven't really done any studying for it.	I haven't really done any studying for it.	217606511	1477836063519	1477836063575	y	89
425245	4582377	I haven't really done any studying for it.	I haven't really done any studying for it.	217606514	1477836063567	1477836063647	 	32
425245	4582377	I haven't really done any studying for it.	I haven't really done any studying for it.	217606517	1477836063759	1477836063822	s	83
425245	4582377	I haven't really done any studying for it.	I haven't really done any studying for it.	217606543	1477836063903	1477836063967	t	84
425245	4582377	I haven't really done any studying for it.	I haven't really done any studying for it.	217606546	1477836064230	1477836064310	u	85
425245	4582377	I haven't really done any studying for it.	I haven't really done any studying for it.	217606548	1477836064398	1477836064486	d	68
425245	4582377	I haven't really done any studying for it.	I haven't really done any studying for it.	217606550	1477836064558	1477836064630	y	89
425245	4582377	I haven't really done any studying for it.	I haven't really done any studying for it.	217606552	1477836064687	1477836064782	i	73
425245	4582377	I haven't really done any studying for it.	I haven't really done any studying for it.	217606572	1477836064862	1477836064950	n	78
425245	4582377	I haven't really done any studying for it.	I haven't really done any studying for it.	217606574	1477836064966	1477836065046	g	71
425245	4582377	I haven't really done any studying for it.	I haven't really done any studying for it.	217606577	1477836065094	1477836065182	 	32
425245	4582377	I haven't really done any studying for it.	I haven't really done any studying for it.	217606580	1477836065478	1477836065542	f	70
425245	4582377	I haven't really done any studying for it.	I haven't really done any studying for it.	217606583	1477836065574	1477836065662	o	79
425245	4582377	I haven't really done any studying for it.	I haven't really done any studying for it.	217606601	1477836065678	1477836065760	r	82
425245	4582377	I haven't really done any studying for it.	I haven't really done any studying for it.	217606603	1477836065742	1477836065830	 	32
425245	4582377	I haven't really done any studying for it.	I haven't really done any studying for it.	217606605	1477836066102	1477836066158	i	73
425245	4582377	I haven't really done any studying for it.	I haven't really done any studying for it.	217606607	1477836066182	1477836066262	t	84
425245	4582377	I haven't really done any studying for it.	I haven't really done any studying for it.	217606610	1477836066294	1477836066366	.	190
425245	4582382	If it needs to be paid, we will need to add the day to the deal.	If it needs to be paid, we will need to add the day to the deal.	217606650	1477836068318	1477836068486	SHIFT	16
425245	4582382	If it needs to be paid, we will need to add the day to the deal.	If it needs to be paid, we will need to add the day to the deal.	217606651	1477836068430	1477836068534	I	73
425245	4582382	If it needs to be paid, we will need to add the day to the deal.	If it needs to be paid, we will need to add the day to the deal.	217606652	1477836068574	1477836068662	f	70
425245	4582382	If it needs to be paid, we will need to add the day to the deal.	If it needs to be paid, we will need to add the day to the deal.	217606653	1477836068702	1477836068782	 	32
425245	4582382	If it needs to be paid, we will need to add the day to the deal.	If it needs to be paid, we will need to add the day to the deal.	217606654	1477836068838	1477836068934	i	73
425245	4582382	If it needs to be paid, we will need to add the day to the deal.	If it needs to be paid, we will need to add the day to the deal.	217606655	1477836068942	1477836069022	t	84
425245	4582382	If it needs to be paid, we will need to add the day to the deal.	If it needs to be paid, we will need to add the day to the deal.	217606667	1477836068982	1477836069062	 	32
425245	4582382	If it needs to be paid, we will need to add the day to the deal.	If it needs to be paid, we will need to add the day to the deal.	217606668	1477836069134	1477836069216	n	78
425245	4582382	If it needs to be paid, we will need to add the day to the deal.	If it needs to be paid, we will need to add the day to the deal.	217606669	1477836069198	1477836069262	e	69
425245	4582382	If it needs to be paid, we will need to add the day to the deal.	If it needs to be paid, we will need to add the day to the deal.	217606670	1477836069318	1477836069390	e	69
425245	4582382	If it needs to be paid, we will need to add the day to the deal.	If it needs to be paid, we will need to add the day to the deal.	217606671	1477836069494	1477836069662	d	68
425245	4582382	If it needs to be paid, we will need to add the day to the deal.	If it needs to be paid, we will need to add the day to the deal.	217606679	1477836069638	1477836069734	s	83
425245	4582382	If it needs to be paid, we will need to add the day to the deal.	If it needs to be paid, we will need to add the day to the deal.	217606681	1477836069758	1477836069838	 	32
425245	4582382	If it needs to be paid, we will need to add the day to the deal.	If it needs to be paid, we will need to add the day to the deal.	217606683	1477836069846	1477836069918	t	84
425245	4582382	If it needs to be paid, we will need to add the day to the deal.	If it needs to be paid, we will need to add the day to the deal.	217606685	1477836069934	1477836070008	o	79
425245	4582382	If it needs to be paid, we will need to add the day to the deal.	If it needs to be paid, we will need to add the day to the deal.	217606687	1477836069990	1477836070062	 	32
425245	4582382	If it needs to be paid, we will need to add the day to the deal.	If it needs to be paid, we will need to add the day to the deal.	217606689	1477836070086	1477836070184	b	66
425245	4582382	If it needs to be paid, we will need to add the day to the deal.	If it needs to be paid, we will need to add the day to the deal.	217606700	1477836070166	1477836070262	e	69
425245	4582382	If it needs to be paid, we will need to add the day to the deal.	If it needs to be paid, we will need to add the day to the deal.	217606704	1477836070278	1477836070350	 	32
425245	4582382	If it needs to be paid, we will need to add the day to the deal.	If it needs to be paid, we will need to add the day to the deal.	217606707	1477836070366	1477836070454	p	80
425245	4582382	If it needs to be paid, we will need to add the day to the deal.	If it needs to be paid, we will need to add the day to the deal.	217606710	1477836070462	1477836070518	a	65
425245	4582382	If it needs to be paid, we will need to add the day to the deal.	If it needs to be paid, we will need to add the day to the deal.	217606715	1477836070566	1477836070630	i	73
425245	4582382	If it needs to be paid, we will need to add the day to the deal.	If it needs to be paid, we will need to add the day to the deal.	217606717	1477836070774	1477836070846	d	68
425245	4582382	If it needs to be paid, we will need to add the day to the deal.	If it needs to be paid, we will need to add the day to the deal.	217606723	1477836070966	1477836071046	,	188
425245	4582382	If it needs to be paid, we will need to add the day to the deal.	If it needs to be paid, we will need to add the day to the deal.	217606724	1477836071126	1477836071214	 	32
425245	4582382	If it needs to be paid, we will need to add the day to the deal.	If it needs to be paid, we will need to add the day to the deal.	217606726	1477836071454	1477836071550	w	87
425245	4582382	If it needs to be paid, we will need to add the day to the deal.	If it needs to be paid, we will need to add the day to the deal.	217606728	1477836071526	1477836071622	e	69
425245	4582382	If it needs to be paid, we will need to add the day to the deal.	If it needs to be paid, we will need to add the day to the deal.	217606731	1477836071646	1477836071742	 	32
425245	4582382	If it needs to be paid, we will need to add the day to the deal.	If it needs to be paid, we will need to add the day to the deal.	217606749	1477836071750	1477836071862	w	87
425245	4582382	If it needs to be paid, we will need to add the day to the deal.	If it needs to be paid, we will need to add the day to the deal.	217606751	1477836071854	1477836071918	i	73
425245	4582382	If it needs to be paid, we will need to add the day to the deal.	If it needs to be paid, we will need to add the day to the deal.	217606754	1477836072118	1477836072238	l	76
425245	4582382	If it needs to be paid, we will need to add the day to the deal.	If it needs to be paid, we will need to add the day to the deal.	217606757	1477836072822	1477836072942	l	76
425245	4582382	If it needs to be paid, we will need to add the day to the deal.	If it needs to be paid, we will need to add the day to the deal.	217606760	1477836072950	1477836073006	 	32
425245	4582382	If it needs to be paid, we will need to add the day to the deal.	If it needs to be paid, we will need to add the day to the deal.	217606777	1477836073046	1477836073126	n	78
425245	4582382	If it needs to be paid, we will need to add the day to the deal.	If it needs to be paid, we will need to add the day to the deal.	217606781	1477836073142	1477836073190	e	69
425245	4582382	If it needs to be paid, we will need to add the day to the deal.	If it needs to be paid, we will need to add the day to the deal.	217606786	1477836073254	1477836073310	e	69
425245	4582382	If it needs to be paid, we will need to add the day to the deal.	If it needs to be paid, we will need to add the day to the deal.	217606787	1477836073446	1477836073510	d	68
425245	4582382	If it needs to be paid, we will need to add the day to the deal.	If it needs to be paid, we will need to add the day to the deal.	217606790	1477836073558	1477836073638	 	32
425245	4582382	If it needs to be paid, we will need to add the day to the deal.	If it needs to be paid, we will need to add the day to the deal.	217606799	1477836073654	1477836073726	t	84
425245	4582382	If it needs to be paid, we will need to add the day to the deal.	If it needs to be paid, we will need to add the day to the deal.	217606803	1477836073742	1477836073822	o	79
425245	4582382	If it needs to be paid, we will need to add the day to the deal.	If it needs to be paid, we will need to add the day to the deal.	217606805	1477836073800	1477836073862	 	32
425245	4582382	If it needs to be paid, we will need to add the day to the deal.	If it needs to be paid, we will need to add the day to the deal.	217606808	1477836073950	1477836074046	a	65
425245	4582382	If it needs to be paid, we will need to add the day to the deal.	If it needs to be paid, we will need to add the day to the deal.	217606812	1477836074166	1477836074222	d	68
425245	4582382	If it needs to be paid, we will need to add the day to the deal.	If it needs to be paid, we will need to add the day to the deal.	217606828	1477836074246	1477836074334	d	68
425245	4582382	If it needs to be paid, we will need to add the day to the deal.	If it needs to be paid, we will need to add the day to the deal.	217606829	1477836074462	1477836074542	 	32
425245	4582382	If it needs to be paid, we will need to add the day to the deal.	If it needs to be paid, we will need to add the day to the deal.	217606830	1477836074839	1477836074918	t	84
425245	4582382	If it needs to be paid, we will need to add the day to the deal.	If it needs to be paid, we will need to add the day to the deal.	217606831	1477836074974	1477836075053	h	72
425245	4582382	If it needs to be paid, we will need to add the day to the deal.	If it needs to be paid, we will need to add the day to the deal.	217606835	1477836075038	1477836075118	e	69
425245	4582382	If it needs to be paid, we will need to add the day to the deal.	If it needs to be paid, we will need to add the day to the deal.	217606838	1477836075125	1477836075222	 	32
425245	4582382	If it needs to be paid, we will need to add the day to the deal.	If it needs to be paid, we will need to add the day to the deal.	217606841	1477836075254	1477836075366	d	68
425245	4582382	If it needs to be paid, we will need to add the day to the deal.	If it needs to be paid, we will need to add the day to the deal.	217606843	1477836075334	1477836075438	a	65
425245	4582382	If it needs to be paid, we will need to add the day to the deal.	If it needs to be paid, we will need to add the day to the deal.	217606847	1477836075478	1477836075558	y	89
425245	4582382	If it needs to be paid, we will need to add the day to the deal.	If it needs to be paid, we will need to add the day to the deal.	217606866	1477836075534	1477836075598	 	32
425245	4582382	If it needs to be paid, we will need to add the day to the deal.	If it needs to be paid, we will need to add the day to the deal.	217606868	1477836075686	1477836075734	t	84
425245	4582382	If it needs to be paid, we will need to add the day to the deal.	If it needs to be paid, we will need to add the day to the deal.	217606870	1477836075749	1477836075806	o	79
425245	4582382	If it needs to be paid, we will need to add the day to the deal.	If it needs to be paid, we will need to add the day to the deal.	217606872	1477836075974	1477836076053	 	32
425245	4582382	If it needs to be paid, we will need to add the day to the deal.	If it needs to be paid, we will need to add the day to the deal.	217606874	1477836076093	1477836076165	t	84
425245	4582382	If it needs to be paid, we will need to add the day to the deal.	If it needs to be paid, we will need to add the day to the deal.	217606875	1477836076230	1477836076301	h	72
425245	4582382	If it needs to be paid, we will need to add the day to the deal.	If it needs to be paid, we will need to add the day to the deal.	217606878	1477836076269	1477836076350	e	69
425245	4582382	If it needs to be paid, we will need to add the day to the deal.	If it needs to be paid, we will need to add the day to the deal.	217606880	1477836076333	1477836076405	 	32
425245	4582382	If it needs to be paid, we will need to add the day to the deal.	If it needs to be paid, we will need to add the day to the deal.	217606882	1477836076509	1477836076557	d	68
425245	4582382	If it needs to be paid, we will need to add the day to the deal.	If it needs to be paid, we will need to add the day to the deal.	217606884	1477836076638	1477836076725	e	69
425245	4582382	If it needs to be paid, we will need to add the day to the deal.	If it needs to be paid, we will need to add the day to the deal.	217606885	1477836076749	1477836076853	a	65
425245	4582382	If it needs to be paid, we will need to add the day to the deal.	If it needs to be paid, we will need to add the day to the deal.	217606890	1477836076813	1477836076885	l	76
425245	4582382	If it needs to be paid, we will need to add the day to the deal.	If it needs to be paid, we will need to add the day to the deal.	217606891	1477836076998	1477836077061	.	190
425245	4582387	We had a great time!	We had a great time!	217606934	1477836079061	1477836079461	SHIFT	16
425245	4582387	We had a great time!	We had a great time!	217606937	1477836079397	1477836079485	W	87
425245	4582387	We had a great time!	We had a great time!	217606940	1477836079533	1477836079621	e	69
425245	4582387	We had a great time!	We had a great time!	217606941	1477836079653	1477836079725	 	32
425245	4582387	We had a great time!	We had a great time!	217606942	1477836079805	1477836079869	h	72
425245	4582387	We had a great time!	We had a great time!	217606948	1477836079861	1477836080037	a	65
425245	4582387	We had a great time!	We had a great time!	217606949	1477836080013	1477836080149	d	68
425245	4582387	We had a great time!	We had a great time!	217606950	1477836080197	1477836080245	 	32
425245	4582387	We had a great time!	We had a great time!	217606951	1477836080285	1477836080365	a	65
425245	4582387	We had a great time!	We had a great time!	217606952	1477836080373	1477836080437	 	32
425245	4582387	We had a great time!	We had a great time!	217606953	1477836080485	1477836080549	g	71
425245	4582387	We had a great time!	We had a great time!	217606965	1477836080661	1477836080781	r	82
425245	4582387	We had a great time!	We had a great time!	217606967	1477836080709	1477836080847	e	69
425245	4582387	We had a great time!	We had a great time!	217606968	1477836080829	1477836080951	a	65
425245	4582387	We had a great time!	We had a great time!	217606970	1477836080933	1477836081013	t	84
425245	4582387	We had a great time!	We had a great time!	217606972	1477836081029	1477836081133	 	32
425245	4582387	We had a great time!	We had a great time!	217607001	1477836081509	1477836081589	t	84
425245	4582387	We had a great time!	We had a great time!	217607003	1477836081637	1477836081685	i	73
425245	4582387	We had a great time!	We had a great time!	217607006	1477836081765	1477836081845	m	77
425245	4582387	We had a great time!	We had a great time!	217607009	1477836081837	1477836081917	e	69
425245	4582387	We had a great time!	We had a great time!	217607012	1477836082165	1477836082325	SHIFT	16
425245	4582387	We had a great time!	We had a great time!	217607011	1477836082253	1477836082365	!	49
425245	4582390	What do you think?	What do you think?	217607038	1477836084373	1477836084557	SHIFT	16
425245	4582390	What do you think?	What do you think?	217607039	1477836084525	1477836084597	W	87
425245	4582390	What do you think?	What do you think?	217607040	1477836084701	1477836084773	h	72
425245	4582390	What do you think?	What do you think?	217607041	1477836084733	1477836084845	a	65
425245	4582390	What do you think?	What do you think?	217607043	1477836084813	1477836084877	t	84
425245	4582390	What do you think?	What do you think?	217607053	1477836084853	1477836084909	 	32
425245	4582390	What do you think?	What do you think?	217607054	1477836085037	1477836085119	d	68
425245	4582390	What do you think?	What do you think?	217607055	1477836085101	1477836085181	o	79
425245	4582390	What do you think?	What do you think?	217607056	1477836085157	1477836085237	 	32
425245	4582390	What do you think?	What do you think?	217607057	1477836085285	1477836085341	y	89
425245	4582390	What do you think?	What do you think?	217607064	1477836085333	1477836085461	o	79
425245	4582390	What do you think?	What do you think?	217607066	1477836085429	1477836085494	u	85
425245	4582390	What do you think?	What do you think?	217607068	1477836085477	1477836085557	 	32
425245	4582390	What do you think?	What do you think?	217607070	1477836085573	1477836085647	t	84
425245	4582390	What do you think?	What do you think?	217607072	1477836085629	1477836085717	h	72
425245	4582390	What do you think?	What do you think?	217607080	1477836085693	1477836085749	i	73
425245	4582390	What do you think?	What do you think?	217607081	1477836085805	1477836085893	n	78
425245	4582390	What do you think?	What do you think?	217607083	1477836085901	1477836085981	k	75
425245	4582390	What do you think?	What do you think?	217607085	1477836086149	1477836086261	SHIFT	16
425245	4582394	Just thought you oughta know.	Just thought you oughta know.	217607150	1477836088309	1477836088588	SHIFT	16
425245	4582394	Just thought you oughta know.	Just thought you oughta know.	217607148	1477836088509	1477836088564	J	74
425245	4582394	Just thought you oughta know.	Just thought you oughta know.	217607154	1477836088653	1477836088716	u	85
425245	4582394	Just thought you oughta know.	Just thought you oughta know.	217607156	1477836088724	1477836088860	s	83
425245	4582394	Just thought you oughta know.	Just thought you oughta know.	217607158	1477836088845	1477836088932	t	84
425245	4582394	Just thought you oughta know.	Just thought you oughta know.	217607159	1477836088948	1477836089021	 	32
425245	4582394	Just thought you oughta know.	Just thought you oughta know.	217607167	1477836089492	1477836089572	t	84
425245	4582394	Just thought you oughta know.	Just thought you oughta know.	217607169	1477836089549	1477836089620	h	72
425245	4582394	Just thought you oughta know.	Just thought you oughta know.	217607171	1477836089652	1477836089748	o	79
425245	4582394	Just thought you oughta know.	Just thought you oughta know.	217607175	1477836089716	1477836089764	u	85
425245	4582394	Just thought you oughta know.	Just thought you oughta know.	217607178	1477836089772	1477836089836	g	71
425245	4582394	Just thought you oughta know.	Just thought you oughta know.	217607196	1477836089868	1477836089940	h	72
425245	4582394	Just thought you oughta know.	Just thought you oughta know.	217607197	1477836089932	1477836090004	t	84
425245	4582394	Just thought you oughta know.	Just thought you oughta know.	217607198	1477836090100	1477836090196	 	32
425245	4582394	Just thought you oughta know.	Just thought you oughta know.	217607199	1477836090340	1477836090404	y	89
425245	4582394	Just thought you oughta know.	Just thought you oughta know.	217607200	1477836090420	1477836090532	o	79
425245	4582394	Just thought you oughta know.	Just thought you oughta know.	217607207	1477836090492	1477836090564	u	85
425245	4582394	Just thought you oughta know.	Just thought you oughta know.	217607209	1477836090550	1477836090628	 	32
425245	4582394	Just thought you oughta know.	Just thought you oughta know.	217607212	1477836090716	1477836090822	o	79
425245	4582394	Just thought you oughta know.	Just thought you oughta know.	217607214	1477836090804	1477836090822	u	85
425245	4582394	Just thought you oughta know.	Just thought you oughta know.	217607215	1477836091380	1477836091452	g	71
425245	4582394	Just thought you oughta know.	Just thought you oughta know.	217607217	1477836091500	1477836091572	h	72
425245	4582394	Just thought you oughta know.	Just thought you oughta know.	217607231	1477836091564	1477836091644	t	84
425245	4582394	Just thought you oughta know.	Just thought you oughta know.	217607232	1477836091884	1477836091996	a	65
425245	4582394	Just thought you oughta know.	Just thought you oughta know.	217607233	1477836092308	1477836092420	 	32
425245	4582394	Just thought you oughta know.	Just thought you oughta know.	217607234	1477836092484	1477836092548	k	75
425245	4582394	Just thought you oughta know.	Just thought you oughta know.	217607235	1477836092572	1477836092724	n	78
425245	4582394	Just thought you oughta know.	Just thought you oughta know.	217607241	1477836092692	1477836092748	o	79
425245	4582394	Just thought you oughta know.	Just thought you oughta know.	217607244	1477836092780	1477836092868	w	87
425245	4582394	Just thought you oughta know.	Just thought you oughta know.	217607248	1477836092892	1477836092956	.	190
