PARTICIPANT_ID	TEST_SECTION_ID	SENTENCE	USER_INPUT	KEYSTROKE_ID	PRESS_TIME	RELEASE_TIME	LETTER	KEYCODE
427174	4604802	Please feel free to add to it if I missed something.	Please feel free to add to it if I missed something.	218682217	1477876955781	1477876955964	SHIFT	16
427174	4604802	Please feel free to add to it if I missed something.	Please feel free to add to it if I missed something.	218682215	1477876955829	1477876955884	P	80
427174	4604802	Please feel free to add to it if I missed something.	Please feel free to add to it if I missed something.	218682218	1477876956004	1477876956084	l	76
427174	4604802	Please feel free to add to it if I missed something.	Please feel free to add to it if I missed something.	218682220	1477876956125	1477876956268	e	69
427174	4604802	Please feel free to add to it if I missed something.	Please feel free to add to it if I missed something.	218682222	1477876956277	1477876956428	a	65
427174	4604802	Please feel free to add to it if I missed something.	Please feel free to add to it if I missed something.	218682239	1477876956413	1477876956621	s	83
427174	4604802	Please feel free to add to it if I missed something.	Please feel free to add to it if I missed something.	218682240	1477876956605	1477876956660	e	69
427174	4604802	Please feel free to add to it if I missed something.	Please feel free to add to it if I missed something.	218682241	1477876956629	1477876956756	 	32
427174	4604802	Please feel free to add to it if I missed something.	Please feel free to add to it if I missed something.	218682242	1477876956772	1477876956955	f	70
427174	4604802	Please feel free to add to it if I missed something.	Please feel free to add to it if I missed something.	218682243	1477876956949	1477876957076	e	69
427174	4604802	Please feel free to add to it if I missed something.	Please feel free to add to it if I missed something.	218682245	1477876957189	1477876957340	e	69
427174	4604802	Please feel free to add to it if I missed something.	Please feel free to add to it if I missed something.	218682267	1477876957348	1477876957492	l	76
427174	4604802	Please feel free to add to it if I missed something.	Please feel free to add to it if I missed something.	218682268	1477876957429	1477876957571	 	32
427174	4604802	Please feel free to add to it if I missed something.	Please feel free to add to it if I missed something.	218682270	1477876957565	1477876957660	f	70
427174	4604802	Please feel free to add to it if I missed something.	Please feel free to add to it if I missed something.	218682274	1477876957797	1477876957972	r	82
427174	4604802	Please feel free to add to it if I missed something.	Please feel free to add to it if I missed something.	218682290	1477876957853	1477876958108	e	69
427174	4604802	Please feel free to add to it if I missed something.	Please feel free to add to it if I missed something.	218682291	1477876958189	1477876958348	e	69
427174	4604802	Please feel free to add to it if I missed something.	Please feel free to add to it if I missed something.	218682292	1477876958317	1477876958460	 	32
427174	4604802	Please feel free to add to it if I missed something.	Please feel free to add to it if I missed something.	218682294	1477876958437	1477876958556	t	84
427174	4604802	Please feel free to add to it if I missed something.	Please feel free to add to it if I missed something.	218682296	1477876958525	1477876958668	o	79
427174	4604802	Please feel free to add to it if I missed something.	Please feel free to add to it if I missed something.	218682314	1477876958606	1477876958732	 	32
427174	4604802	Please feel free to add to it if I missed something.	Please feel free to add to it if I missed something.	218682316	1477876958773	1477876958916	a	65
427174	4604802	Please feel free to add to it if I missed something.	Please feel free to add to it if I missed something.	218682318	1477876958877	1477876958980	d	68
427174	4604802	Please feel free to add to it if I missed something.	Please feel free to add to it if I missed something.	218682320	1477876959077	1477876959196	d	68
427174	4604802	Please feel free to add to it if I missed something.	Please feel free to add to it if I missed something.	218682323	1477876959221	1477876959364	 	32
427174	4604802	Please feel free to add to it if I missed something.	Please feel free to add to it if I missed something.	218682325	1477876959380	1477876959524	t	84
427174	4604802	Please feel free to add to it if I missed something.	Please feel free to add to it if I missed something.	218682341	1477876959485	1477876959611	o	79
427174	4604802	Please feel free to add to it if I missed something.	Please feel free to add to it if I missed something.	218682342	1477876959573	1477876959716	 	32
427174	4604802	Please feel free to add to it if I missed something.	Please feel free to add to it if I missed something.	218682343	1477876959741	1477876959868	i	73
427174	4604802	Please feel free to add to it if I missed something.	Please feel free to add to it if I missed something.	218682344	1477876959821	1477876959947	t	84
427174	4604802	Please feel free to add to it if I missed something.	Please feel free to add to it if I missed something.	218682345	1477876959933	1477876960051	 	32
427174	4604802	Please feel free to add to it if I missed something.	Please feel free to add to it if I missed something.	218682346	1477876960261	1477876960332	i	73
427174	4604802	Please feel free to add to it if I missed something.	Please feel free to add to it if I missed something.	218682361	1477876960389	1477876960540	f	70
427174	4604802	Please feel free to add to it if I missed something.	Please feel free to add to it if I missed something.	218682363	1477876960493	1477876960612	 	32
427174	4604802	Please feel free to add to it if I missed something.	Please feel free to add to it if I missed something.	218682368	1477876960677	1477876960772	i	73
427174	4604802	Please feel free to add to it if I missed something.	Please feel free to add to it if I missed something.	218682371	1477876961020	1477876961068	BKSP	8
427174	4604802	Please feel free to add to it if I missed something.	Please feel free to add to it if I missed something.	218682374	1477876961100	1477876961267	SHIFT	16
427174	4604802	Please feel free to add to it if I missed something.	Please feel free to add to it if I missed something.	218682378	1477876961189	1477876961332	I	73
427174	4604802	Please feel free to add to it if I missed something.	Please feel free to add to it if I missed something.	218682392	1477876961293	1477876961412	 	32
427174	4604802	Please feel free to add to it if I missed something.	Please feel free to add to it if I missed something.	218682393	1477876961462	1477876961596	m	77
427174	4604802	Please feel free to add to it if I missed something.	Please feel free to add to it if I missed something.	218682394	1477876961529	1477876961643	i	73
427174	4604802	Please feel free to add to it if I missed something.	Please feel free to add to it if I missed something.	218682395	1477876961565	1477876961668	s	83
427174	4604802	Please feel free to add to it if I missed something.	Please feel free to add to it if I missed something.	218682396	1477876961741	1477876961867	s	83
427174	4604802	Please feel free to add to it if I missed something.	Please feel free to add to it if I missed something.	218682412	1477876961853	1477876962028	e	69
427174	4604802	Please feel free to add to it if I missed something.	Please feel free to add to it if I missed something.	218682415	1477876961981	1477876962156	d	68
427174	4604802	Please feel free to add to it if I missed something.	Please feel free to add to it if I missed something.	218682417	1477876962069	1477876962196	 	32
427174	4604802	Please feel free to add to it if I missed something.	Please feel free to add to it if I missed something.	218682419	1477876962167	1477876962324	s	83
427174	4604802	Please feel free to add to it if I missed something.	Please feel free to add to it if I missed something.	218682421	1477876962269	1477876962428	o	79
427174	4604802	Please feel free to add to it if I missed something.	Please feel free to add to it if I missed something.	218682441	1477876962357	1477876962524	e	77
427174	4604802	Please feel free to add to it if I missed something.	Please feel free to add to it if I missed something.	218682442	1477876962589	1477876962685	t	84
427174	4604802	Please feel free to add to it if I missed something.	Please feel free to add to it if I missed something.	218682443	1477876962660	1477876962756	h	72
427174	4604802	Please feel free to add to it if I missed something.	Please feel free to add to it if I missed something.	218682444	1477876962806	1477876962924	i	73
427174	4604802	Please feel free to add to it if I missed something.	Please feel free to add to it if I missed something.	218682445	1477876962868	1477876963012	n	78
427174	4604802	Please feel free to add to it if I missed something.	Please feel free to add to it if I missed something.	218682447	1477876962973	1477876963100	g	71
427174	4604802	Please feel free to add to it if I missed something.	Please feel free to add to it if I missed something.	218682449	1477876963165	1477876963259	.	190
427174	4604809	Contact Lisa Mellencamp on any issues regarding pending litigation.	Contact Lisa Mellencamp on any issues regarding pending litigation.	218682578	1477876970592	1477876970775	SHIFT	16
427174	4604809	Contact Lisa Mellencamp on any issues regarding pending litigation.	Contact Lisa Mellencamp on any issues regarding pending litigation.	218682579	1477876970712	1477876970855	C	67
427174	4604809	Contact Lisa Mellencamp on any issues regarding pending litigation.	Contact Lisa Mellencamp on any issues regarding pending litigation.	218682580	1477876970888	1477876971006	o	79
427174	4604809	Contact Lisa Mellencamp on any issues regarding pending litigation.	Contact Lisa Mellencamp on any issues regarding pending litigation.	218682581	1477876970960	1477876971127	n	78
427174	4604809	Contact Lisa Mellencamp on any issues regarding pending litigation.	Contact Lisa Mellencamp on any issues regarding pending litigation.	218682582	1477876971056	1477876971167	t	84
427174	4604809	Contact Lisa Mellencamp on any issues regarding pending litigation.	Contact Lisa Mellencamp on any issues regarding pending litigation.	218682583	1477876971184	1477876971327	a	65
427174	4604809	Contact Lisa Mellencamp on any issues regarding pending litigation.	Contact Lisa Mellencamp on any issues regarding pending litigation.	218682594	1477876971320	1477876971391	c	67
427174	4604809	Contact Lisa Mellencamp on any issues regarding pending litigation.	Contact Lisa Mellencamp on any issues regarding pending litigation.	218682597	1477876971624	1477876971694	t	84
427174	4604809	Contact Lisa Mellencamp on any issues regarding pending litigation.	Contact Lisa Mellencamp on any issues regarding pending litigation.	218682600	1477876971688	1477876971857	 	32
427174	4604809	Contact Lisa Mellencamp on any issues regarding pending litigation.	Contact Lisa Mellencamp on any issues regarding pending litigation.	218682603	1477876971856	1477876971950	L	16
427174	4604809	Contact Lisa Mellencamp on any issues regarding pending litigation.	Contact Lisa Mellencamp on any issues regarding pending litigation.	218682607	1477876972016	1477876972121	i	73
427174	4604809	Contact Lisa Mellencamp on any issues regarding pending litigation.	Contact Lisa Mellencamp on any issues regarding pending litigation.	218682637	1477876972104	1477876972239	s	83
427174	4604809	Contact Lisa Mellencamp on any issues regarding pending litigation.	Contact Lisa Mellencamp on any issues regarding pending litigation.	218682640	1477876972263	1477876972383	a	65
427174	4604809	Contact Lisa Mellencamp on any issues regarding pending litigation.	Contact Lisa Mellencamp on any issues regarding pending litigation.	218682644	1477876972344	1477876972455	 	32
427174	4604809	Contact Lisa Mellencamp on any issues regarding pending litigation.	Contact Lisa Mellencamp on any issues regarding pending litigation.	218682647	1477876972495	1477876972655	SHIFT	16
427174	4604809	Contact Lisa Mellencamp on any issues regarding pending litigation.	Contact Lisa Mellencamp on any issues regarding pending litigation.	218682653	1477876972576	1477876972735	M	77
427174	4604809	Contact Lisa Mellencamp on any issues regarding pending litigation.	Contact Lisa Mellencamp on any issues regarding pending litigation.	218682658	1477876972671	1477876972815	e	69
427174	4604809	Contact Lisa Mellencamp on any issues regarding pending litigation.	Contact Lisa Mellencamp on any issues regarding pending litigation.	218682663	1477876973160	1477876973223	l	76
427174	4604809	Contact Lisa Mellencamp on any issues regarding pending litigation.	Contact Lisa Mellencamp on any issues regarding pending litigation.	218682674	1477876973320	1477876973383	l	76
427174	4604809	Contact Lisa Mellencamp on any issues regarding pending litigation.	Contact Lisa Mellencamp on any issues regarding pending litigation.	218682676	1477876973400	1477876973534	e	69
427174	4604809	Contact Lisa Mellencamp on any issues regarding pending litigation.	Contact Lisa Mellencamp on any issues regarding pending litigation.	218682678	1477876973512	1477876973662	n	78
427174	4604809	Contact Lisa Mellencamp on any issues regarding pending litigation.	Contact Lisa Mellencamp on any issues regarding pending litigation.	218682680	1477876973727	1477876973846	c	67
427174	4604809	Contact Lisa Mellencamp on any issues regarding pending litigation.	Contact Lisa Mellencamp on any issues regarding pending litigation.	218682694	1477876973840	1477876973983	a	65
427174	4604809	Contact Lisa Mellencamp on any issues regarding pending litigation.	Contact Lisa Mellencamp on any issues regarding pending litigation.	218682695	1477876973928	1477876974079	m	77
427174	4604809	Contact Lisa Mellencamp on any issues regarding pending litigation.	Contact Lisa Mellencamp on any issues regarding pending litigation.	218682696	1477876974015	1477876974166	p	80
427174	4604809	Contact Lisa Mellencamp on any issues regarding pending litigation.	Contact Lisa Mellencamp on any issues regarding pending litigation.	218682698	1477876974135	1477876974263	 	32
427174	4604809	Contact Lisa Mellencamp on any issues regarding pending litigation.	Contact Lisa Mellencamp on any issues regarding pending litigation.	218682701	1477876974279	1477876974406	o	79
427174	4604809	Contact Lisa Mellencamp on any issues regarding pending litigation.	Contact Lisa Mellencamp on any issues regarding pending litigation.	218682718	1477876974367	1477876974551	n	78
427174	4604809	Contact Lisa Mellencamp on any issues regarding pending litigation.	Contact Lisa Mellencamp on any issues regarding pending litigation.	218682719	1477876974471	1477876974590	 	32
427174	4604809	Contact Lisa Mellencamp on any issues regarding pending litigation.	Contact Lisa Mellencamp on any issues regarding pending litigation.	218682720	1477876974559	1477876974711	a	65
427174	4604809	Contact Lisa Mellencamp on any issues regarding pending litigation.	Contact Lisa Mellencamp on any issues regarding pending litigation.	218682721	1477876974719	1477876974831	n	78
427174	4604809	Contact Lisa Mellencamp on any issues regarding pending litigation.	Contact Lisa Mellencamp on any issues regarding pending litigation.	218682722	1477876974959	1477876975110	y	89
427174	4604809	Contact Lisa Mellencamp on any issues regarding pending litigation.	Contact Lisa Mellencamp on any issues regarding pending litigation.	218682747	1477876975047	1477876975159	 	32
427174	4604809	Contact Lisa Mellencamp on any issues regarding pending litigation.	Contact Lisa Mellencamp on any issues regarding pending litigation.	218682750	1477876975199	1477876975310	i	73
427174	4604809	Contact Lisa Mellencamp on any issues regarding pending litigation.	Contact Lisa Mellencamp on any issues regarding pending litigation.	218682753	1477876975320	1477876975438	s	83
427174	4604809	Contact Lisa Mellencamp on any issues regarding pending litigation.	Contact Lisa Mellencamp on any issues regarding pending litigation.	218682755	1477876975496	1477876975623	s	83
427174	4604809	Contact Lisa Mellencamp on any issues regarding pending litigation.	Contact Lisa Mellencamp on any issues regarding pending litigation.	218682757	1477876975583	1477876975742	u	85
427174	4604809	Contact Lisa Mellencamp on any issues regarding pending litigation.	Contact Lisa Mellencamp on any issues regarding pending litigation.	218682768	1477876975711	1477876975894	e	69
427174	4604809	Contact Lisa Mellencamp on any issues regarding pending litigation.	Contact Lisa Mellencamp on any issues regarding pending litigation.	218682771	1477876975839	1477876975983	s	83
427174	4604809	Contact Lisa Mellencamp on any issues regarding pending litigation.	Contact Lisa Mellencamp on any issues regarding pending litigation.	218682774	1477876975991	1477876976127	 	32
427174	4604809	Contact Lisa Mellencamp on any issues regarding pending litigation.	Contact Lisa Mellencamp on any issues regarding pending litigation.	218682777	1477876976231	1477876976391	r	82
427174	4604809	Contact Lisa Mellencamp on any issues regarding pending litigation.	Contact Lisa Mellencamp on any issues regarding pending litigation.	218682779	1477876976335	1477876976511	e	69
427174	4604809	Contact Lisa Mellencamp on any issues regarding pending litigation.	Contact Lisa Mellencamp on any issues regarding pending litigation.	218682780	1477876976519	1477876976646	g	71
427174	4604809	Contact Lisa Mellencamp on any issues regarding pending litigation.	Contact Lisa Mellencamp on any issues regarding pending litigation.	218682787	1477876976679	1477876976830	a	65
427174	4604809	Contact Lisa Mellencamp on any issues regarding pending litigation.	Contact Lisa Mellencamp on any issues regarding pending litigation.	218682789	1477876976799	1477876976903	r	82
427174	4604809	Contact Lisa Mellencamp on any issues regarding pending litigation.	Contact Lisa Mellencamp on any issues regarding pending litigation.	218682791	1477876976975	1477876977109	d	68
427174	4604809	Contact Lisa Mellencamp on any issues regarding pending litigation.	Contact Lisa Mellencamp on any issues regarding pending litigation.	218682793	1477876977103	1477876977239	i	73
427174	4604809	Contact Lisa Mellencamp on any issues regarding pending litigation.	Contact Lisa Mellencamp on any issues regarding pending litigation.	218682804	1477876977183	1477876977431	n	78
427174	4604809	Contact Lisa Mellencamp on any issues regarding pending litigation.	Contact Lisa Mellencamp on any issues regarding pending litigation.	218682803	1477876977264	1477876977406	g	71
427174	4604809	Contact Lisa Mellencamp on any issues regarding pending litigation.	Contact Lisa Mellencamp on any issues regarding pending litigation.	218682807	1477876977375	1477876977511	 	32
427174	4604809	Contact Lisa Mellencamp on any issues regarding pending litigation.	Contact Lisa Mellencamp on any issues regarding pending litigation.	218682810	1477876977719	1477876977838	p	80
427174	4604809	Contact Lisa Mellencamp on any issues regarding pending litigation.	Contact Lisa Mellencamp on any issues regarding pending litigation.	218682812	1477876977815	1477876977943	e	69
427174	4604809	Contact Lisa Mellencamp on any issues regarding pending litigation.	Contact Lisa Mellencamp on any issues regarding pending litigation.	218682822	1477876977935	1477876978039	n	78
427174	4604809	Contact Lisa Mellencamp on any issues regarding pending litigation.	Contact Lisa Mellencamp on any issues regarding pending litigation.	218682824	1477876978063	1477876978182	d	68
427174	4604809	Contact Lisa Mellencamp on any issues regarding pending litigation.	Contact Lisa Mellencamp on any issues regarding pending litigation.	218682825	1477876978191	1477876978262	n	73
427174	4604809	Contact Lisa Mellencamp on any issues regarding pending litigation.	Contact Lisa Mellencamp on any issues regarding pending litigation.	218682826	1477876978311	1477876978414	g	71
427174	4604809	Contact Lisa Mellencamp on any issues regarding pending litigation.	Contact Lisa Mellencamp on any issues regarding pending litigation.	218682836	1477876978422	1477876978558	 	32
427174	4604809	Contact Lisa Mellencamp on any issues regarding pending litigation.	Contact Lisa Mellencamp on any issues regarding pending litigation.	218682837	1477876978623	1477876978694	l	76
427174	4604809	Contact Lisa Mellencamp on any issues regarding pending litigation.	Contact Lisa Mellencamp on any issues regarding pending litigation.	218682838	1477876978784	1477876978886	i	73
427174	4604809	Contact Lisa Mellencamp on any issues regarding pending litigation.	Contact Lisa Mellencamp on any issues regarding pending litigation.	218682839	1477876978855	1477876978967	t	84
427174	4604809	Contact Lisa Mellencamp on any issues regarding pending litigation.	Contact Lisa Mellencamp on any issues regarding pending litigation.	218682840	1477876979063	1477876979166	i	73
427174	4604809	Contact Lisa Mellencamp on any issues regarding pending litigation.	Contact Lisa Mellencamp on any issues regarding pending litigation.	218682841	1477876979271	1477876979374	a	65
427174	4604809	Contact Lisa Mellencamp on any issues regarding pending litigation.	Contact Lisa Mellencamp on any issues regarding pending litigation.	218682859	1477876979575	1477876979662	BKSP	8
427174	4604809	Contact Lisa Mellencamp on any issues regarding pending litigation.	Contact Lisa Mellencamp on any issues regarding pending litigation.	218682860	1477876979631	1477876979750	g	71
427174	4604809	Contact Lisa Mellencamp on any issues regarding pending litigation.	Contact Lisa Mellencamp on any issues regarding pending litigation.	218682861	1477876979799	1477876979934	a	65
427174	4604809	Contact Lisa Mellencamp on any issues regarding pending litigation.	Contact Lisa Mellencamp on any issues regarding pending litigation.	218682863	1477876979903	1477876980030	t	84
427174	4604809	Contact Lisa Mellencamp on any issues regarding pending litigation.	Contact Lisa Mellencamp on any issues regarding pending litigation.	218682865	1477876979983	1477876980054	i	73
427174	4604809	Contact Lisa Mellencamp on any issues regarding pending litigation.	Contact Lisa Mellencamp on any issues regarding pending litigation.	218682867	1477876980143	1477876980253	o	79
427174	4604809	Contact Lisa Mellencamp on any issues regarding pending litigation.	Contact Lisa Mellencamp on any issues regarding pending litigation.	218682872	1477876980207	1477876980325	n	78
427174	4604809	Contact Lisa Mellencamp on any issues regarding pending litigation.	Contact Lisa Mellencamp on any issues regarding pending litigation.	218682874	1477876980463	1477876980542	.	190
427174	4604820	Your voice cheered me up.	Your voice cheered me up.	218682972	1477876983078	1477876983334	SHIFT	16
427174	4604820	Your voice cheered me up.	Your voice cheered me up.	218682970	1477876983215	1477876983310	Y	89
427174	4604820	Your voice cheered me up.	Your voice cheered me up.	218682974	1477876983471	1477876983622	o	79
427174	4604820	Your voice cheered me up.	Your voice cheered me up.	218682976	1477876983535	1477876983717	u	85
427174	4604820	Your voice cheered me up.	Your voice cheered me up.	218682978	1477876983687	1477876983814	r	82
427174	4604820	Your voice cheered me up.	Your voice cheered me up.	218682981	1477876983839	1477876983974	 	32
427174	4604820	Your voice cheered me up.	Your voice cheered me up.	218682991	1477876984022	1477876984143	v	86
427174	4604820	Your voice cheered me up.	Your voice cheered me up.	218682993	1477876984151	1477876984311	o	79
427174	4604820	Your voice cheered me up.	Your voice cheered me up.	218682996	1477876984215	1477876984390	i	73
427174	4604820	Your voice cheered me up.	Your voice cheered me up.	218683001	1477876984303	1477876984455	c	67
427174	4604820	Your voice cheered me up.	Your voice cheered me up.	218683024	1477876984415	1477876984542	e	69
427174	4604820	Your voice cheered me up.	Your voice cheered me up.	218683025	1477876984519	1477876984606	 	32
427174	4604820	Your voice cheered me up.	Your voice cheered me up.	218683026	1477876984663	1477876984765	c	67
427174	4604820	Your voice cheered me up.	Your voice cheered me up.	218683027	1477876984751	1477876984866	h	72
427174	4604820	Your voice cheered me up.	Your voice cheered me up.	218683028	1477876984847	1477876984934	e	69
427174	4604820	Your voice cheered me up.	Your voice cheered me up.	218683030	1477876985039	1477876985174	e	69
427174	4604820	Your voice cheered me up.	Your voice cheered me up.	218683056	1477876985127	1477876985230	r	82
427174	4604820	Your voice cheered me up.	Your voice cheered me up.	218683058	1477876985271	1477876985430	e	69
427174	4604820	Your voice cheered me up.	Your voice cheered me up.	218683060	1477876985383	1477876985518	d	68
427174	4604820	Your voice cheered me up.	Your voice cheered me up.	218683062	1477876985455	1477876985584	 	32
427174	4604820	Your voice cheered me up.	Your voice cheered me up.	218683063	1477876985583	1477876985766	m	77
427174	4604820	Your voice cheered me up.	Your voice cheered me up.	218683077	1477876985655	1477876985790	e	69
427174	4604820	Your voice cheered me up.	Your voice cheered me up.	218683079	1477876985759	1477876985910	 	32
427174	4604820	Your voice cheered me up.	Your voice cheered me up.	218683081	1477876985903	1477876985974	u	85
427174	4604820	Your voice cheered me up.	Your voice cheered me up.	218683083	1477876986063	1477876986142	p	80
427174	4604820	Your voice cheered me up.	Your voice cheered me up.	218683085	1477876986311	1477876986366	.	190
427174	4604823	The reality is there is much less of an advantage than people think.	The reality is there is much less of an advantage than people think.	218683205	1477876990932	1477876991042	SHIFT	16
427174	4604823	The reality is there is much less of an advantage than people think.	The reality is there is much less of an advantage than people think.	218683207	1477876991004	1477876991179	T	84
427174	4604823	The reality is there is much less of an advantage than people think.	The reality is there is much less of an advantage than people think.	218683208	1477876991116	1477876991298	h	72
427174	4604823	The reality is there is much less of an advantage than people think.	The reality is there is much less of an advantage than people think.	218683209	1477876991187	1477876991315	e	69
427174	4604823	The reality is there is much less of an advantage than people think.	The reality is there is much less of an advantage than people think.	218683210	1477876991267	1477876991434	 	32
427174	4604823	The reality is there is much less of an advantage than people think.	The reality is there is much less of an advantage than people think.	218683217	1477876991427	1477876991587	r	82
427174	4604823	The reality is there is much less of an advantage than people think.	The reality is there is much less of an advantage than people think.	218683219	1477876991523	1477876991682	e	69
427174	4604823	The reality is there is much less of an advantage than people think.	The reality is there is much less of an advantage than people think.	218683221	1477876991635	1477876991794	a	65
427174	4604823	The reality is there is much less of an advantage than people think.	The reality is there is much less of an advantage than people think.	218683223	1477876991739	1477876991826	l	76
427174	4604823	The reality is there is much less of an advantage than people think.	The reality is there is much less of an advantage than people think.	218683226	1477876991915	1477876992017	i	73
427174	4604823	The reality is there is much less of an advantage than people think.	The reality is there is much less of an advantage than people think.	218683233	1477876991995	1477876992123	t	84
427174	4604823	The reality is there is much less of an advantage than people think.	The reality is there is much less of an advantage than people think.	218683235	1477876992139	1477876992244	y	89
427174	4604823	The reality is there is much less of an advantage than people think.	The reality is there is much less of an advantage than people think.	218683237	1477876992203	1477876992330	 	32
427174	4604823	The reality is there is much less of an advantage than people think.	The reality is there is much less of an advantage than people think.	218683239	1477876992316	1477876992450	i	73
427174	4604823	The reality is there is much less of an advantage than people think.	The reality is there is much less of an advantage than people think.	218683241	1477876992419	1477876992523	s	83
427174	4604823	The reality is there is much less of an advantage than people think.	The reality is there is much less of an advantage than people think.	218683253	1477876992475	1477876992578	 	32
427174	4604823	The reality is there is much less of an advantage than people think.	The reality is there is much less of an advantage than people think.	218683255	1477876992603	1477876992723	t	84
427174	4604823	The reality is there is much less of an advantage than people think.	The reality is there is much less of an advantage than people think.	218683258	1477876992683	1477876992819	h	72
427174	4604823	The reality is there is much less of an advantage than people think.	The reality is there is much less of an advantage than people think.	218683264	1477876992779	1477876992914	e	69
427174	4604823	The reality is there is much less of an advantage than people think.	The reality is there is much less of an advantage than people think.	218683269	1477876992875	1477876993075	r	82
427174	4604823	The reality is there is much less of an advantage than people think.	The reality is there is much less of an advantage than people think.	218683294	1477876993011	1477876993155	e	69
427174	4604823	The reality is there is much less of an advantage than people think.	The reality is there is much less of an advantage than people think.	218683295	1477876993059	1477876993211	 	32
427174	4604823	The reality is there is much less of an advantage than people think.	The reality is there is much less of an advantage than people think.	218683296	1477876993171	1477876993306	i	73
427174	4604823	The reality is there is much less of an advantage than people think.	The reality is there is much less of an advantage than people think.	218683298	1477876993259	1477876993403	s	83
427174	4604823	The reality is there is much less of an advantage than people think.	The reality is there is much less of an advantage than people think.	218683301	1477876993323	1477876993475	 	32
427174	4604823	The reality is there is much less of an advantage than people think.	The reality is there is much less of an advantage than people think.	218683305	1477876993675	1477876993810	m	77
427174	4604823	The reality is there is much less of an advantage than people think.	The reality is there is much less of an advantage than people think.	218683307	1477876993851	1477876993994	u	85
427174	4604823	The reality is there is much less of an advantage than people think.	The reality is there is much less of an advantage than people think.	218683318	1477876993955	1477876994122	c	67
427174	4604823	The reality is there is much less of an advantage than people think.	The reality is there is much less of an advantage than people think.	218683320	1477876994051	1477876994218	h	72
427174	4604823	The reality is there is much less of an advantage than people think.	The reality is there is much less of an advantage than people think.	218683322	1477876994179	1477876994331	 	32
427174	4604823	The reality is there is much less of an advantage than people think.	The reality is there is much less of an advantage than people think.	218683324	1477876994323	1477876994450	l	76
427174	4604823	The reality is there is much less of an advantage than people think.	The reality is there is much less of an advantage than people think.	218683326	1477876994403	1477876994586	e	69
427174	4604823	The reality is there is much less of an advantage than people think.	The reality is there is much less of an advantage than people think.	218683340	1477876994522	1477876994635	s	83
427174	4604823	The reality is there is much less of an advantage than people think.	The reality is there is much less of an advantage than people think.	218683341	1477876994731	1477876994882	s	83
427174	4604823	The reality is there is much less of an advantage than people think.	The reality is there is much less of an advantage than people think.	218683343	1477876994779	1477876994930	 	32
427174	4604823	The reality is there is much less of an advantage than people think.	The reality is there is much less of an advantage than people think.	218683345	1477876994891	1477876995050	o	79
427174	4604823	The reality is there is much less of an advantage than people think.	The reality is there is much less of an advantage than people think.	218683348	1477876995020	1477876995147	f	70
427174	4604823	The reality is there is much less of an advantage than people think.	The reality is there is much less of an advantage than people think.	218683364	1477876995059	1477876995201	 	32
427174	4604823	The reality is there is much less of an advantage than people think.	The reality is there is much less of an advantage than people think.	218683365	1477876995195	1477876995322	a	65
427174	4604823	The reality is there is much less of an advantage than people think.	The reality is there is much less of an advantage than people think.	218683366	1477876995259	1477876995443	n	78
427174	4604823	The reality is there is much less of an advantage than people think.	The reality is there is much less of an advantage than people think.	218683367	1477876995379	1477876995523	 	32
427174	4604823	The reality is there is much less of an advantage than people think.	The reality is there is much less of an advantage than people think.	218683369	1477876995531	1477876995682	a	65
427174	4604823	The reality is there is much less of an advantage than people think.	The reality is there is much less of an advantage than people think.	218683385	1477876995675	1477876995786	d	68
427174	4604823	The reality is there is much less of an advantage than people think.	The reality is there is much less of an advantage than people think.	218683386	1477876995859	1477876995978	v	86
427174	4604823	The reality is there is much less of an advantage than people think.	The reality is there is much less of an advantage than people think.	218683387	1477876996011	1477876996139	a	65
427174	4604823	The reality is there is much less of an advantage than people think.	The reality is there is much less of an advantage than people think.	218683388	1477876996140	1477876996282	n	78
427174	4604823	The reality is there is much less of an advantage than people think.	The reality is there is much less of an advantage than people think.	218683389	1477876996299	1477876996426	t	84
427174	4604823	The reality is there is much less of an advantage than people think.	The reality is there is much less of an advantage than people think.	218683390	1477876996443	1477876996578	a	65
427174	4604823	The reality is there is much less of an advantage than people think.	The reality is there is much less of an advantage than people think.	218683400	1477876996571	1477876996693	g	71
427174	4604823	The reality is there is much less of an advantage than people think.	The reality is there is much less of an advantage than people think.	218683401	1477876996691	1477876996809	e	69
427174	4604823	The reality is there is much less of an advantage than people think.	The reality is there is much less of an advantage than people think.	218683402	1477876996787	1477876996914	 	32
427174	4604823	The reality is there is much less of an advantage than people think.	The reality is there is much less of an advantage than people think.	218683403	1477876996899	1477876997010	t	84
427174	4604823	The reality is there is much less of an advantage than people think.	The reality is there is much less of an advantage than people think.	218683404	1477876996979	1477876997050	h	72
427174	4604823	The reality is there is much less of an advantage than people think.	The reality is there is much less of an advantage than people think.	218683405	1477876997067	1477876997226	a	65
427174	4604823	The reality is there is much less of an advantage than people think.	The reality is there is much less of an advantage than people think.	218683418	1477876997187	1477876997322	n	78
427174	4604823	The reality is there is much less of an advantage than people think.	The reality is there is much less of an advantage than people think.	218683420	1477876997259	1477876997410	 	32
427174	4604823	The reality is there is much less of an advantage than people think.	The reality is there is much less of an advantage than people think.	218683423	1477876997363	1477876997482	p	80
427174	4604823	The reality is there is much less of an advantage than people think.	The reality is there is much less of an advantage than people think.	218683426	1477876997443	1477876997570	e	69
427174	4604823	The reality is there is much less of an advantage than people think.	The reality is there is much less of an advantage than people think.	218683429	1477876997578	1477876997658	o	79
427174	4604823	The reality is there is much less of an advantage than people think.	The reality is there is much less of an advantage than people think.	218683431	1477876997811	1477876997963	p	80
427174	4604823	The reality is there is much less of an advantage than people think.	The reality is there is much less of an advantage than people think.	218683437	1477876997891	1477876998050	l	76
427174	4604823	The reality is there is much less of an advantage than people think.	The reality is there is much less of an advantage than people think.	218683439	1477876998020	1477876998161	e	69
427174	4604823	The reality is there is much less of an advantage than people think.	The reality is there is much less of an advantage than people think.	218683441	1477876998147	1477876998282	 	32
427174	4604823	The reality is there is much less of an advantage than people think.	The reality is there is much less of an advantage than people think.	218683443	1477876998290	1477876998410	t	84
427174	4604823	The reality is there is much less of an advantage than people think.	The reality is there is much less of an advantage than people think.	218683445	1477876998363	1477876998426	h	72
427174	4604823	The reality is there is much less of an advantage than people think.	The reality is there is much less of an advantage than people think.	218683447	1477876998483	1477876998594	i	73
427174	4604823	The reality is there is much less of an advantage than people think.	The reality is there is much less of an advantage than people think.	218683459	1477876998563	1477876998698	n	78
427174	4604823	The reality is there is much less of an advantage than people think.	The reality is there is much less of an advantage than people think.	218683462	1477876998706	1477876998818	k	75
427174	4604823	The reality is there is much less of an advantage than people think.	The reality is there is much less of an advantage than people think.	218683467	1477876998939	1477876999050	.	190
427174	4604830	Are you sure I don't need to be there?	Are you sure I don't need to be there?	218683554	1477877001876	1477877002035	SHIFT	16
427174	4604830	Are you sure I don't need to be there?	Are you sure I don't need to be there?	218683555	1477877001963	1477877002098	A	65
427174	4604830	Are you sure I don't need to be there?	Are you sure I don't need to be there?	218683556	1477877002163	1477877002306	r	82
427174	4604830	Are you sure I don't need to be there?	Are you sure I don't need to be there?	218683557	1477877002267	1477877002410	e	69
427174	4604830	Are you sure I don't need to be there?	Are you sure I don't need to be there?	218683559	1477877002355	1477877002530	 	32
427174	4604830	Are you sure I don't need to be there?	Are you sure I don't need to be there?	218683568	1477877002459	1477877002562	y	89
427174	4604830	Are you sure I don't need to be there?	Are you sure I don't need to be there?	218683571	1477877002651	1477877002770	o	79
427174	4604830	Are you sure I don't need to be there?	Are you sure I don't need to be there?	218683574	1477877002691	1477877002818	u	85
427174	4604830	Are you sure I don't need to be there?	Are you sure I don't need to be there?	218683576	1477877002778	1477877002933	 	32
427174	4604830	Are you sure I don't need to be there?	Are you sure I don't need to be there?	218683589	1477877002843	1477877002962	s	83
427174	4604830	Are you sure I don't need to be there?	Are you sure I don't need to be there?	218683592	1477877002931	1477877003074	u	85
427174	4604830	Are you sure I don't need to be there?	Are you sure I don't need to be there?	218683595	1477877003043	1477877003146	r	82
427174	4604830	Are you sure I don't need to be there?	Are you sure I don't need to be there?	218683598	1477877003107	1477877003290	e	69
427174	4604830	Are you sure I don't need to be there?	Are you sure I don't need to be there?	218683600	1477877003211	1477877003338	 	32
427174	4604830	Are you sure I don't need to be there?	Are you sure I don't need to be there?	218683602	1477877003306	1477877003506	SHIFT	16
427174	4604830	Are you sure I don't need to be there?	Are you sure I don't need to be there?	218683607	1477877003395	1477877003538	I	73
427174	4604830	Are you sure I don't need to be there?	Are you sure I don't need to be there?	218683609	1477877003483	1477877003610	 	32
427174	4604830	Are you sure I don't need to be there?	Are you sure I don't need to be there?	218683611	1477877003618	1477877003746	d	68
427174	4604830	Are you sure I don't need to be there?	Are you sure I don't need to be there?	218683615	1477877003715	1477877003794	o	79
427174	4604830	Are you sure I don't need to be there?	Are you sure I don't need to be there?	218683618	1477877003747	1477877003906	n	78
427174	4604830	Are you sure I don't need to be there?	Are you sure I don't need to be there?	218683620	1477877003939	1477877004074	'	222
427174	4604830	Are you sure I don't need to be there?	Are you sure I don't need to be there?	218683634	1477877004043	1477877004186	t	84
427174	4604830	Are you sure I don't need to be there?	Are you sure I don't need to be there?	218683635	1477877004147	1477877004330	 	32
427174	4604830	Are you sure I don't need to be there?	Are you sure I don't need to be there?	218683636	1477877004307	1477877004458	n	78
427174	4604830	Are you sure I don't need to be there?	Are you sure I don't need to be there?	218683637	1477877004435	1477877004506	e	69
427174	4604830	Are you sure I don't need to be there?	Are you sure I don't need to be there?	218683638	1477877004619	1477877004778	e	69
427174	4604830	Are you sure I don't need to be there?	Are you sure I don't need to be there?	218683652	1477877004715	1477877004842	d	68
427174	4604830	Are you sure I don't need to be there?	Are you sure I don't need to be there?	218683655	1477877004811	1477877004930	 	32
427174	4604830	Are you sure I don't need to be there?	Are you sure I don't need to be there?	218683656	1477877004946	1477877005090	t	84
427174	4604830	Are you sure I don't need to be there?	Are you sure I don't need to be there?	218683657	1477877005019	1477877005178	o	79
427174	4604830	Are you sure I don't need to be there?	Are you sure I don't need to be there?	218683658	1477877005099	1477877005209	 	32
427174	4604830	Are you sure I don't need to be there?	Are you sure I don't need to be there?	218683663	1477877005195	1477877005354	b	66
427174	4604830	Are you sure I don't need to be there?	Are you sure I don't need to be there?	218683664	1477877005251	1477877005393	e	69
427174	4604830	Are you sure I don't need to be there?	Are you sure I don't need to be there?	218683665	1477877005371	1477877005538	 	32
427174	4604830	Are you sure I don't need to be there?	Are you sure I don't need to be there?	218683666	1477877005466	1477877005562	t	84
427174	4604830	Are you sure I don't need to be there?	Are you sure I don't need to be there?	218683667	1477877005555	1477877005693	h	72
427174	4604830	Are you sure I don't need to be there?	Are you sure I don't need to be there?	218683683	1477877005667	1477877005778	e	69
427174	4604830	Are you sure I don't need to be there?	Are you sure I don't need to be there?	218683685	1477877005747	1477877005922	r	82
427174	4604830	Are you sure I don't need to be there?	Are you sure I don't need to be there?	218683687	1477877005899	1477877006058	e	69
427174	4604830	Are you sure I don't need to be there?	Are you sure I don't need to be there?	218683689	1477877006066	1477877006178	SHIFT	16
427174	4604836	The profit could then go in part to the labour.	The profit could then go in part to the labour.	218683923	1477877015591	1477877015702	SHIFT	16
427174	4604836	The profit could then go in part to the labour.	The profit could then go in part to the labour.	218683929	1477877015631	1477877015798	T	84
427174	4604836	The profit could then go in part to the labour.	The profit could then go in part to the labour.	218683934	1477877015751	1477877015917	h	72
427174	4604836	The profit could then go in part to the labour.	The profit could then go in part to the labour.	218683937	1477877015830	1477877015950	e	69
427174	4604836	The profit could then go in part to the labour.	The profit could then go in part to the labour.	218683941	1477877015911	1477877016070	 	32
427174	4604836	The profit could then go in part to the labour.	The profit could then go in part to the labour.	218683956	1477877016031	1477877016149	p	80
427174	4604836	The profit could then go in part to the labour.	The profit could then go in part to the labour.	218683957	1477877016111	1477877016214	r	82
427174	4604836	The profit could then go in part to the labour.	The profit could then go in part to the labour.	218683958	1477877016270	1477877016390	o	79
427174	4604836	The profit could then go in part to the labour.	The profit could then go in part to the labour.	218683959	1477877016398	1477877016518	f	70
427174	4604836	The profit could then go in part to the labour.	The profit could then go in part to the labour.	218683960	1477877016534	1477877016646	i	73
427174	4604836	The profit could then go in part to the labour.	The profit could then go in part to the labour.	218683962	1477877016663	1477877016797	t	84
427174	4604836	The profit could then go in part to the labour.	The profit could then go in part to the labour.	218683998	1477877016902	1477877017022	 	32
427174	4604836	The profit could then go in part to the labour.	The profit could then go in part to the labour.	218684002	1477877017110	1477877017222	c	67
427174	4604836	The profit could then go in part to the labour.	The profit could then go in part to the labour.	218684005	1477877017231	1477877017390	o	79
427174	4604836	The profit could then go in part to the labour.	The profit could then go in part to the labour.	218684010	1477877017342	1477877017454	u	85
427174	4604836	The profit could then go in part to the labour.	The profit could then go in part to the labour.	218684014	1477877017526	1477877017662	l	76
427174	4604836	The profit could then go in part to the labour.	The profit could then go in part to the labour.	218684027	1477877017566	1477877017702	d	68
427174	4604836	The profit could then go in part to the labour.	The profit could then go in part to the labour.	218684029	1477877017630	1477877017785	 	32
427174	4604836	The profit could then go in part to the labour.	The profit could then go in part to the labour.	218684030	1477877017758	1477877017909	t	84
427174	4604836	The profit could then go in part to the labour.	The profit could then go in part to the labour.	218684033	1477877017807	1477877017917	h	72
427174	4604836	The profit could then go in part to the labour.	The profit could then go in part to the labour.	218684037	1477877017886	1477877018045	e	69
427174	4604836	The profit could then go in part to the labour.	The profit could then go in part to the labour.	218684039	1477877018030	1477877018229	n	78
427174	4604836	The profit could then go in part to the labour.	The profit could then go in part to the labour.	218684050	1477877018126	1477877018261	 	32
427174	4604836	The profit could then go in part to the labour.	The profit could then go in part to the labour.	218684052	1477877018278	1477877018389	g	71
427174	4604836	The profit could then go in part to the labour.	The profit could then go in part to the labour.	218684054	1477877018398	1477877018542	o	79
427174	4604836	The profit could then go in part to the labour.	The profit could then go in part to the labour.	218684057	1477877018486	1477877018646	 	32
427174	4604836	The profit could then go in part to the labour.	The profit could then go in part to the labour.	218684061	1477877018694	1477877018790	i	73
427174	4604836	The profit could then go in part to the labour.	The profit could then go in part to the labour.	218684087	1477877018725	1477877018990	n	78
427174	4604836	The profit could then go in part to the labour.	The profit could then go in part to the labour.	218684089	1477877018894	1477877019030	 	32
427174	4604836	The profit could then go in part to the labour.	The profit could then go in part to the labour.	218684094	1477877018991	1477877019150	p	80
427174	4604836	The profit could then go in part to the labour.	The profit could then go in part to the labour.	218684097	1477877019134	1477877019269	a	65
427174	4604836	The profit could then go in part to the labour.	The profit could then go in part to the labour.	218684100	1477877019230	1477877019341	r	82
427174	4604836	The profit could then go in part to the labour.	The profit could then go in part to the labour.	218684103	1477877019446	1477877019573	t	84
427174	4604836	The profit could then go in part to the labour.	The profit could then go in part to the labour.	218684114	1477877019510	1477877019671	 	32
427174	4604836	The profit could then go in part to the labour.	The profit could then go in part to the labour.	218684117	1477877019654	1477877019829	t	84
427174	4604836	The profit could then go in part to the labour.	The profit could then go in part to the labour.	218684120	1477877019726	1477877019909	o	79
427174	4604836	The profit could then go in part to the labour.	The profit could then go in part to the labour.	218684124	1477877019838	1477877019982	 	32
427174	4604836	The profit could then go in part to the labour.	The profit could then go in part to the labour.	218684128	1477877019894	1477877020086	t	84
427174	4604836	The profit could then go in part to the labour.	The profit could then go in part to the labour.	218684145	1477877020024	1477877020230	h	72
427174	4604836	The profit could then go in part to the labour.	The profit could then go in part to the labour.	218684147	1477877020118	1477877020245	e	69
427174	4604836	The profit could then go in part to the labour.	The profit could then go in part to the labour.	218684150	1477877020214	1477877020342	 	32
427174	4604836	The profit could then go in part to the labour.	The profit could then go in part to the labour.	218684154	1477877020398	1477877020509	l	76
427174	4604836	The profit could then go in part to the labour.	The profit could then go in part to the labour.	218684158	1477877020486	1477877020640	a	65
427174	4604836	The profit could then go in part to the labour.	The profit could then go in part to the labour.	218684180	1477877020622	1477877020702	b	66
427174	4604836	The profit could then go in part to the labour.	The profit could then go in part to the labour.	218684185	1477877020806	1477877020941	o	79
427174	4604836	The profit could then go in part to the labour.	The profit could then go in part to the labour.	218684188	1477877020990	1477877021093	r	82
427174	4604836	The profit could then go in part to the labour.	The profit could then go in part to the labour.	218684191	1477877021326	1477877021389	BKSP	8
427174	4604836	The profit could then go in part to the labour.	The profit could then go in part to the labour.	218684194	1477877021510	1477877021597	u	85
427174	4604836	The profit could then go in part to the labour.	The profit could then go in part to the labour.	218684195	1477877021606	1477877021701	r	82
427174	4604836	The profit could then go in part to the labour.	The profit could then go in part to the labour.	218684196	1477877021758	1477877021845	.	190
427174	4604847	I will try to expedite payment tomorrow.	I will try to expedite payment tomorrow.	218684370	1477877025149	1477877025445	SHIFT	16
427174	4604847	I will try to expedite payment tomorrow.	I will try to expedite payment tomorrow.	218684368	1477877025358	1477877025437	I	73
427174	4604847	I will try to expedite payment tomorrow.	I will try to expedite payment tomorrow.	218684372	1477877025582	1477877025669	 	87
427174	4604847	I will try to expedite payment tomorrow.	I will try to expedite payment tomorrow.	218684374	1477877025959	1477877026013	BKSP	8
427174	4604847	I will try to expedite payment tomorrow.	I will try to expedite payment tomorrow.	218684376	1477877026286	1477877026405	BKSP	8
427174	4604847	I will try to expedite payment tomorrow.	I will try to expedite payment tomorrow.	218684378	1477877026406	1477877026557	 	32
427174	4604847	I will try to expedite payment tomorrow.	I will try to expedite payment tomorrow.	218684381	1477877026565	1477877026725	w	87
427174	4604847	I will try to expedite payment tomorrow.	I will try to expedite payment tomorrow.	218684398	1477877026646	1477877026773	i	73
427174	4604847	I will try to expedite payment tomorrow.	I will try to expedite payment tomorrow.	218684400	1477877026854	1477877026909	l	76
427174	4604847	I will try to expedite payment tomorrow.	I will try to expedite payment tomorrow.	218684404	1477877026990	1477877027117	l	76
427174	4604847	I will try to expedite payment tomorrow.	I will try to expedite payment tomorrow.	218684409	1477877027078	1477877027221	 	32
427174	4604847	I will try to expedite payment tomorrow.	I will try to expedite payment tomorrow.	218684406	1477877027127	1477877027198	t	84
427174	4604847	I will try to expedite payment tomorrow.	I will try to expedite payment tomorrow.	218684412	1477877027286	1477877027413	r	82
427174	4604847	I will try to expedite payment tomorrow.	I will try to expedite payment tomorrow.	218684417	1477877027358	1477877027517	y	89
427174	4604847	I will try to expedite payment tomorrow.	I will try to expedite payment tomorrow.	218684418	1477877027478	1477877027608	 	32
427174	4604847	I will try to expedite payment tomorrow.	I will try to expedite payment tomorrow.	218684420	1477877027606	1477877027733	t	84
427174	4604847	I will try to expedite payment tomorrow.	I will try to expedite payment tomorrow.	218684422	1477877027702	1477877027845	o	79
427174	4604847	I will try to expedite payment tomorrow.	I will try to expedite payment tomorrow.	218684426	1477877027782	1477877027917	 	32
427174	4604847	I will try to expedite payment tomorrow.	I will try to expedite payment tomorrow.	218684460	1477877027886	1477877027973	e	69
427174	4604847	I will try to expedite payment tomorrow.	I will try to expedite payment tomorrow.	218684467	1477877028093	1477877028204	x	88
427174	4604847	I will try to expedite payment tomorrow.	I will try to expedite payment tomorrow.	218684472	1477877028198	1477877028301	p	80
427174	4604847	I will try to expedite payment tomorrow.	I will try to expedite payment tomorrow.	218684477	1477877028342	1477877028477	e	69
427174	4604847	I will try to expedite payment tomorrow.	I will try to expedite payment tomorrow.	218684480	1477877028438	1477877028564	d	68
427174	4604847	I will try to expedite payment tomorrow.	I will try to expedite payment tomorrow.	218684489	1477877028542	1477877028685	i	73
427174	4604847	I will try to expedite payment tomorrow.	I will try to expedite payment tomorrow.	218684492	1477877028734	1477877028861	t	84
427174	4604847	I will try to expedite payment tomorrow.	I will try to expedite payment tomorrow.	218684497	1477877028950	1477877029093	e	69
427174	4604847	I will try to expedite payment tomorrow.	I will try to expedite payment tomorrow.	218684501	1477877029054	1477877029197	 	32
427174	4604847	I will try to expedite payment tomorrow.	I will try to expedite payment tomorrow.	218684506	1477877029302	1477877029432	p	80
427174	4604847	I will try to expedite payment tomorrow.	I will try to expedite payment tomorrow.	218684542	1477877029430	1477877029565	a	65
427174	4604847	I will try to expedite payment tomorrow.	I will try to expedite payment tomorrow.	218684547	1477877029654	1477877029717	y	89
427174	4604847	I will try to expedite payment tomorrow.	I will try to expedite payment tomorrow.	218684550	1477877029902	1477877030005	m	77
427174	4604847	I will try to expedite payment tomorrow.	I will try to expedite payment tomorrow.	218684554	1477877029990	1477877030128	e	69
427174	4604847	I will try to expedite payment tomorrow.	I will try to expedite payment tomorrow.	218684556	1477877030110	1477877030285	n	78
427174	4604847	I will try to expedite payment tomorrow.	I will try to expedite payment tomorrow.	218684567	1477877030238	1477877030342	t	84
427174	4604847	I will try to expedite payment tomorrow.	I will try to expedite payment tomorrow.	218684569	1477877030326	1477877030461	 	32
427174	4604847	I will try to expedite payment tomorrow.	I will try to expedite payment tomorrow.	218684574	1477877030502	1477877030581	t	84
427174	4604847	I will try to expedite payment tomorrow.	I will try to expedite payment tomorrow.	218684577	1477877030574	1477877030693	o	79
427174	4604847	I will try to expedite payment tomorrow.	I will try to expedite payment tomorrow.	218684579	1477877030638	1477877030829	m	77
427174	4604847	I will try to expedite payment tomorrow.	I will try to expedite payment tomorrow.	218684590	1477877030790	1477877030912	o	79
427174	4604847	I will try to expedite payment tomorrow.	I will try to expedite payment tomorrow.	218684592	1477877030894	1477877030933	r	82
427174	4604847	I will try to expedite payment tomorrow.	I will try to expedite payment tomorrow.	218684596	1477877031013	1477877031117	r	82
427174	4604847	I will try to expedite payment tomorrow.	I will try to expedite payment tomorrow.	218684597	1477877031102	1477877031205	o	79
427174	4604847	I will try to expedite payment tomorrow.	I will try to expedite payment tomorrow.	218684599	1477877031222	1477877031341	w	87
427174	4604847	I will try to expedite payment tomorrow.	I will try to expedite payment tomorrow.	218684600	1477877031374	1477877031445	.	190
427174	4604854	This has now become the most pressing story in the capital.	This has now become the most pressing story in the capital	218684757	1477877035479	1477877035607	SHIFT	16
427174	4604854	This has now become the most pressing story in the capital.	This has now become the most pressing story in the capital	218684758	1477877035536	1477877035687	T	84
427174	4604854	This has now become the most pressing story in the capital.	This has now become the most pressing story in the capital	218684759	1477877035648	1477877035798	h	72
427174	4604854	This has now become the most pressing story in the capital.	This has now become the most pressing story in the capital	218684760	1477877035784	1477877035847	e	69
427174	4604854	This has now become the most pressing story in the capital.	This has now become the most pressing story in the capital	218684761	1477877036057	1477877036111	BKSP	8
427174	4604854	This has now become the most pressing story in the capital.	This has now become the most pressing story in the capital	218684762	1477877036224	1477877036391	i	73
427174	4604854	This has now become the most pressing story in the capital.	This has now become the most pressing story in the capital	218684810	1477877036312	1477877036455	s	83
427174	4604854	This has now become the most pressing story in the capital.	This has now become the most pressing story in the capital	218684813	1477877036399	1477877036559	 	32
427174	4604854	This has now become the most pressing story in the capital.	This has now become the most pressing story in the capital	218684818	1477877036504	1477877036655	h	72
427174	4604854	This has now become the most pressing story in the capital.	This has now become the most pressing story in the capital	218684821	1477877036616	1477877036759	a	65
427174	4604854	This has now become the most pressing story in the capital.	This has now become the most pressing story in the capital	218684822	1477877036800	1477877036959	s	83
427174	4604854	This has now become the most pressing story in the capital.	This has now become the most pressing story in the capital	218684824	1477877037208	1477877037351	 	32
427174	4604854	This has now become the most pressing story in the capital.	This has now become the most pressing story in the capital	218684829	1477877037320	1477877037511	n	78
427174	4604854	This has now become the most pressing story in the capital.	This has now become the most pressing story in the capital	218684833	1477877037456	1477877037631	o	79
427174	4604854	This has now become the most pressing story in the capital.	This has now become the most pressing story in the capital	218684839	1477877037552	1477877037687	w	87
427174	4604854	This has now become the most pressing story in the capital.	This has now become the most pressing story in the capital	218684844	1477877037640	1477877037791	 	32
427174	4604854	This has now become the most pressing story in the capital.	This has now become the most pressing story in the capital	218684847	1477877037760	1477877037903	b	66
427174	4604854	This has now become the most pressing story in the capital.	This has now become the most pressing story in the capital	218684857	1477877037864	1477877037991	e	69
427174	4604854	This has now become the most pressing story in the capital.	This has now become the most pressing story in the capital	218684858	1477877038104	1477877038246	c	67
427174	4604854	This has now become the most pressing story in the capital.	This has now become the most pressing story in the capital	218684859	1477877038232	1477877038359	o	79
427174	4604854	This has now become the most pressing story in the capital.	This has now become the most pressing story in the capital	218684860	1477877038312	1477877038529	m	77
427174	4604854	This has now become the most pressing story in the capital.	This has now become the most pressing story in the capital	218684882	1477877038416	1477877038534	e	69
427174	4604854	This has now become the most pressing story in the capital.	This has now become the most pressing story in the capital	218684885	1477877038512	1477877038647	 	32
427174	4604854	This has now become the most pressing story in the capital.	This has now become the most pressing story in the capital	218684888	1477877038640	1477877038751	t	84
427174	4604854	This has now become the most pressing story in the capital.	This has now become the most pressing story in the capital	218684890	1477877038768	1477877038919	h	72
427174	4604854	This has now become the most pressing story in the capital.	This has now become the most pressing story in the capital	218684891	1477877038912	1477877039039	e	69
427174	4604854	This has now become the most pressing story in the capital.	This has now become the most pressing story in the capital	218684892	1477877038984	1477877039159	 	32
427174	4604854	This has now become the most pressing story in the capital.	This has now become the most pressing story in the capital	218684904	1477877039120	1477877039303	m	77
427174	4604854	This has now become the most pressing story in the capital.	This has now become the most pressing story in the capital	218684907	1477877039232	1477877039407	o	79
427174	4604854	This has now become the most pressing story in the capital.	This has now become the most pressing story in the capital	218684909	1477877039352	1477877039511	s	83
427174	4604854	This has now become the most pressing story in the capital.	This has now become the most pressing story in the capital	218684911	1477877039440	1477877039607	t	84
427174	4604854	This has now become the most pressing story in the capital.	This has now become the most pressing story in the capital	218684913	1477877039576	1477877039702	 	32
427174	4604854	This has now become the most pressing story in the capital.	This has now become the most pressing story in the capital	218684933	1477877039696	1477877039855	p	80
427174	4604854	This has now become the most pressing story in the capital.	This has now become the most pressing story in the capital	218684934	1477877039816	1477877039999	r	82
427174	4604854	This has now become the most pressing story in the capital.	This has now become the most pressing story in the capital	218684935	1477877039928	1477877040111	e	69
427174	4604854	This has now become the most pressing story in the capital.	This has now become the most pressing story in the capital	218684936	1477877040047	1477877040151	s	83
427174	4604854	This has now become the most pressing story in the capital.	This has now become the most pressing story in the capital	218684937	1477877040223	1477877040372	s	83
427174	4604854	This has now become the most pressing story in the capital.	This has now become the most pressing story in the capital	218684960	1477877040339	1477877040473	i	73
427174	4604854	This has now become the most pressing story in the capital.	This has now become the most pressing story in the capital	218684966	1477877040422	1477877040675	n	78
427174	4604854	This has now become the most pressing story in the capital.	This has now become the most pressing story in the capital	218684962	1477877040507	1477877040656	g	71
427174	4604854	This has now become the most pressing story in the capital.	This has now become the most pressing story in the capital	218684970	1477877040606	1477877040756	 	32
427174	4604854	This has now become the most pressing story in the capital.	This has now become the most pressing story in the capital	218684972	1477877040824	1477877040975	s	83
427174	4604854	This has now become the most pressing story in the capital.	This has now become the most pressing story in the capital	218685000	1477877040953	1477877041040	t	84
427174	4604854	This has now become the most pressing story in the capital.	This has now become the most pressing story in the capital	218685002	1477877041094	1477877041279	o	79
427174	4604854	This has now become the most pressing story in the capital.	This has now become the most pressing story in the capital	218685004	1477877041263	1477877041407	r	82
427174	4604854	This has now become the most pressing story in the capital.	This has now become the most pressing story in the capital	218685005	1477877041425	1477877041574	y	89
427174	4604854	This has now become the most pressing story in the capital.	This has now become the most pressing story in the capital	218685007	1477877041542	1477877041678	 	32
427174	4604854	This has now become the most pressing story in the capital.	This has now become the most pressing story in the capital	218685010	1477877041743	1477877041871	i	73
427174	4604854	This has now become the most pressing story in the capital.	This has now become the most pressing story in the capital	218685018	1477877041777	1477877041922	n	78
427174	4604854	This has now become the most pressing story in the capital.	This has now become the most pressing story in the capital	218685021	1477877041888	1477877042031	 	32
427174	4604854	This has now become the most pressing story in the capital.	This has now become the most pressing story in the capital	218685023	1477877041959	1477877042144	t	84
427174	4604854	This has now become the most pressing story in the capital.	This has now become the most pressing story in the capital	218685027	1477877042043	1477877042247	h	72
427174	4604854	This has now become the most pressing story in the capital.	This has now become the most pressing story in the capital	218685069	1477877042143	1477877042303	e	69
427174	4604854	This has now become the most pressing story in the capital.	This has now become the most pressing story in the capital	218685071	1477877042227	1477877042375	 	32
427174	4604854	This has now become the most pressing story in the capital.	This has now become the most pressing story in the capital	218685076	1477877042512	1477877042567	a	67
427174	4604854	This has now become the most pressing story in the capital.	This has now become the most pressing story in the capital	218685078	1477877043240	1477877043382	p	80
427174	4604854	This has now become the most pressing story in the capital.	This has now become the most pressing story in the capital	218685082	1477877043488	1477877043607	i	73
427174	4604854	This has now become the most pressing story in the capital.	This has now become the most pressing story in the capital	218685088	1477877043648	1477877043807	t	84
427174	4604854	This has now become the most pressing story in the capital.	This has now become the most pressing story in the capital	218685092	1477877043840	1477877043983	a	65
427174	4604854	This has now become the most pressing story in the capital.	This has now become the most pressing story in the capital	218685096	1477877043912	1477877044015	l	76
427174	4604862	If it needs to be paid, we will need to add the day to the deal.	If it needs to be paid, we will need to add the day to the deal.	218685402	1477877051176	1477877051311	SHIFT	16
427174	4604862	If it needs to be paid, we will need to add the day to the deal.	If it needs to be paid, we will need to add the day to the deal.	218685405	1477877051224	1477877051343	I	73
427174	4604862	If it needs to be paid, we will need to add the day to the deal.	If it needs to be paid, we will need to add the day to the deal.	218685410	1477877051360	1477877051478	f	70
427174	4604862	If it needs to be paid, we will need to add the day to the deal.	If it needs to be paid, we will need to add the day to the deal.	218685414	1477877051456	1477877051599	 	32
427174	4604862	If it needs to be paid, we will need to add the day to the deal.	If it needs to be paid, we will need to add the day to the deal.	218685417	1477877051552	1477877051695	i	73
427174	4604862	If it needs to be paid, we will need to add the day to the deal.	If it needs to be paid, we will need to add the day to the deal.	218685419	1477877051704	1477877051839	t	84
427174	4604862	If it needs to be paid, we will need to add the day to the deal.	If it needs to be paid, we will need to add the day to the deal.	218685427	1477877051759	1477877051918	 	32
427174	4604862	If it needs to be paid, we will need to add the day to the deal.	If it needs to be paid, we will need to add the day to the deal.	218685429	1477877051912	1477877052063	n	78
427174	4604862	If it needs to be paid, we will need to add the day to the deal.	If it needs to be paid, we will need to add the day to the deal.	218685430	1477877051992	1477877052079	e	69
427174	4604862	If it needs to be paid, we will need to add the day to the deal.	If it needs to be paid, we will need to add the day to the deal.	218685432	1477877052176	1477877052327	e	69
427174	4604862	If it needs to be paid, we will need to add the day to the deal.	If it needs to be paid, we will need to add the day to the deal.	218685435	1477877052264	1477877052431	d	68
427174	4604862	If it needs to be paid, we will need to add the day to the deal.	If it needs to be paid, we will need to add the day to the deal.	218685455	1477877052400	1477877052551	s	83
427174	4604862	If it needs to be paid, we will need to add the day to the deal.	If it needs to be paid, we will need to add the day to the deal.	218685458	1477877052536	1477877052671	 	32
427174	4604862	If it needs to be paid, we will need to add the day to the deal.	If it needs to be paid, we will need to add the day to the deal.	218685465	1477877052664	1477877052783	t	84
427174	4604862	If it needs to be paid, we will need to add the day to the deal.	If it needs to be paid, we will need to add the day to the deal.	218685471	1477877052728	1477877052879	o	79
427174	4604862	If it needs to be paid, we will need to add the day to the deal.	If it needs to be paid, we will need to add the day to the deal.	218685474	1477877052816	1477877052951	 	32
427174	4604862	If it needs to be paid, we will need to add the day to the deal.	If it needs to be paid, we will need to add the day to the deal.	218685479	1477877052912	1477877053079	b	66
427174	4604862	If it needs to be paid, we will need to add the day to the deal.	If it needs to be paid, we will need to add the day to the deal.	218685480	1477877053016	1477877053143	e	69
427174	4604862	If it needs to be paid, we will need to add the day to the deal.	If it needs to be paid, we will need to add the day to the deal.	218685483	1477877053112	1477877053239	 	32
427174	4604862	If it needs to be paid, we will need to add the day to the deal.	If it needs to be paid, we will need to add the day to the deal.	218685484	1477877053256	1477877053393	p	80
427174	4604862	If it needs to be paid, we will need to add the day to the deal.	If it needs to be paid, we will need to add the day to the deal.	218685487	1477877053376	1477877053495	a	65
427174	4604862	If it needs to be paid, we will need to add the day to the deal.	If it needs to be paid, we will need to add the day to the deal.	218685517	1477877053472	1477877053583	i	73
427174	4604862	If it needs to be paid, we will need to add the day to the deal.	If it needs to be paid, we will need to add the day to the deal.	218685519	1477877053607	1477877053734	d	68
427174	4604862	If it needs to be paid, we will need to add the day to the deal.	If it needs to be paid, we will need to add the day to the deal.	218685521	1477877053728	1477877053887	,	188
427174	4604862	If it needs to be paid, we will need to add the day to the deal.	If it needs to be paid, we will need to add the day to the deal.	218685522	1477877053856	1477877053998	 	32
427174	4604862	If it needs to be paid, we will need to add the day to the deal.	If it needs to be paid, we will need to add the day to the deal.	218685525	1477877053976	1477877054143	w	87
427174	4604862	If it needs to be paid, we will need to add the day to the deal.	If it needs to be paid, we will need to add the day to the deal.	218685540	1477877054088	1477877054215	e	69
427174	4604862	If it needs to be paid, we will need to add the day to the deal.	If it needs to be paid, we will need to add the day to the deal.	218685542	1477877054168	1477877054296	 	32
427174	4604862	If it needs to be paid, we will need to add the day to the deal.	If it needs to be paid, we will need to add the day to the deal.	218685544	1477877054272	1477877054423	w	87
427174	4604862	If it needs to be paid, we will need to add the day to the deal.	If it needs to be paid, we will need to add the day to the deal.	218685546	1477877054384	1477877054479	i	73
427174	4604862	If it needs to be paid, we will need to add the day to the deal.	If it needs to be paid, we will need to add the day to the deal.	218685548	1477877054584	1477877054615	l	76
427174	4604862	If it needs to be paid, we will need to add the day to the deal.	If it needs to be paid, we will need to add the day to the deal.	218685551	1477877054712	1477877054831	l	76
427174	4604862	If it needs to be paid, we will need to add the day to the deal.	If it needs to be paid, we will need to add the day to the deal.	218685573	1477877054792	1477877054946	 	32
427174	4604862	If it needs to be paid, we will need to add the day to the deal.	If it needs to be paid, we will need to add the day to the deal.	218685578	1477877054920	1477877055063	n	78
427174	4604862	If it needs to be paid, we will need to add the day to the deal.	If it needs to be paid, we will need to add the day to the deal.	218685582	1477877055160	1477877055295	e	69
427174	4604862	If it needs to be paid, we will need to add the day to the deal.	If it needs to be paid, we will need to add the day to the deal.	218685588	1477877055384	1477877055551	e	69
427174	4604862	If it needs to be paid, we will need to add the day to the deal.	If it needs to be paid, we will need to add the day to the deal.	218685590	1477877055496	1477877055640	d	68
427174	4604862	If it needs to be paid, we will need to add the day to the deal.	If it needs to be paid, we will need to add the day to the deal.	218685600	1477877055616	1477877055767	 	32
427174	4604862	If it needs to be paid, we will need to add the day to the deal.	If it needs to be paid, we will need to add the day to the deal.	218685602	1477877055784	1477877055895	t	84
427174	4604862	If it needs to be paid, we will need to add the day to the deal.	If it needs to be paid, we will need to add the day to the deal.	218685607	1477877055856	1477877056016	o	79
427174	4604862	If it needs to be paid, we will need to add the day to the deal.	If it needs to be paid, we will need to add the day to the deal.	218685610	1477877055936	1477877056071	 	32
427174	4604862	If it needs to be paid, we will need to add the day to the deal.	If it needs to be paid, we will need to add the day to the deal.	218685613	1477877056080	1477877056234	a	65
427174	4604862	If it needs to be paid, we will need to add the day to the deal.	If it needs to be paid, we will need to add the day to the deal.	218685625	1477877056216	1477877056303	d	68
427174	4604862	If it needs to be paid, we will need to add the day to the deal.	If it needs to be paid, we will need to add the day to the deal.	218685626	1477877056384	1477877056495	d	68
427174	4604862	If it needs to be paid, we will need to add the day to the deal.	If it needs to be paid, we will need to add the day to the deal.	218685627	1477877056472	1477877056583	 	32
427174	4604862	If it needs to be paid, we will need to add the day to the deal.	If it needs to be paid, we will need to add the day to the deal.	218685628	1477877056568	1477877056702	t	84
427174	4604862	If it needs to be paid, we will need to add the day to the deal.	If it needs to be paid, we will need to add the day to the deal.	218685629	1477877056672	1477877056823	h	72
427174	4604862	If it needs to be paid, we will need to add the day to the deal.	If it needs to be paid, we will need to add the day to the deal.	218685646	1477877056720	1477877056863	e	69
427174	4604862	If it needs to be paid, we will need to add the day to the deal.	If it needs to be paid, we will need to add the day to the deal.	218685647	1477877056831	1477877056983	 	32
427174	4604862	If it needs to be paid, we will need to add the day to the deal.	If it needs to be paid, we will need to add the day to the deal.	218685648	1477877056976	1477877057143	d	68
427174	4604862	If it needs to be paid, we will need to add the day to the deal.	If it needs to be paid, we will need to add the day to the deal.	218685649	1477877057120	1477877057271	a	65
427174	4604862	If it needs to be paid, we will need to add the day to the deal.	If it needs to be paid, we will need to add the day to the deal.	218685650	1477877057248	1477877057375	y	89
427174	4604862	If it needs to be paid, we will need to add the day to the deal.	If it needs to be paid, we will need to add the day to the deal.	218685660	1477877057328	1477877057447	 	32
427174	4604862	If it needs to be paid, we will need to add the day to the deal.	If it needs to be paid, we will need to add the day to the deal.	218685663	1477877057432	1477877057559	t	84
427174	4604862	If it needs to be paid, we will need to add the day to the deal.	If it needs to be paid, we will need to add the day to the deal.	218685668	1477877057544	1477877057703	o	79
427174	4604862	If it needs to be paid, we will need to add the day to the deal.	If it needs to be paid, we will need to add the day to the deal.	218685672	1477877057632	1477877057759	 	32
427174	4604862	If it needs to be paid, we will need to add the day to the deal.	If it needs to be paid, we will need to add the day to the deal.	218685674	1477877057680	1477877057858	t	84
427174	4604862	If it needs to be paid, we will need to add the day to the deal.	If it needs to be paid, we will need to add the day to the deal.	218685695	1477877057784	1477877057999	h	72
427174	4604862	If it needs to be paid, we will need to add the day to the deal.	If it needs to be paid, we will need to add the day to the deal.	218685698	1477877057856	1477877058022	e	69
427174	4604862	If it needs to be paid, we will need to add the day to the deal.	If it needs to be paid, we will need to add the day to the deal.	218685703	1477877057960	1477877058095	 	32
427174	4604862	If it needs to be paid, we will need to add the day to the deal.	If it needs to be paid, we will need to add the day to the deal.	218685706	1477877058184	1477877058311	d	68
427174	4604862	If it needs to be paid, we will need to add the day to the deal.	If it needs to be paid, we will need to add the day to the deal.	218685707	1477877058384	1477877058527	e	69
427174	4604862	If it needs to be paid, we will need to add the day to the deal.	If it needs to be paid, we will need to add the day to the deal.	218685709	1477877058480	1477877058655	a	65
427174	4604862	If it needs to be paid, we will need to add the day to the deal.	If it needs to be paid, we will need to add the day to the deal.	218685711	1477877058592	1477877058671	l	76
427174	4604862	If it needs to be paid, we will need to add the day to the deal.	If it needs to be paid, we will need to add the day to the deal.	218685713	1477877058776	1477877058855	.	190
427174	4604874	Let me know if I miss anything.	Let me know if I miss anything.	218685799	1477877061055	1477877061231	SHIFT	16
427174	4604874	Let me know if I miss anything.	Let me know if I miss anything.	218685801	1477877061144	1477877061247	L	76
427174	4604874	Let me know if I miss anything.	Let me know if I miss anything.	218685804	1477877061289	1477877061415	e	69
427174	4604874	Let me know if I miss anything.	Let me know if I miss anything.	218685807	1477877061488	1477877061630	t	84
427174	4604874	Let me know if I miss anything.	Let me know if I miss anything.	218685812	1477877061600	1477877061719	 	32
427174	4604874	Let me know if I miss anything.	Let me know if I miss anything.	218685815	1477877061728	1477877061895	m	77
427174	4604874	Let me know if I miss anything.	Let me know if I miss anything.	218685825	1477877061816	1477877061975	e	69
427174	4604874	Let me know if I miss anything.	Let me know if I miss anything.	218685827	1477877061903	1477877062031	 	32
427174	4604874	Let me know if I miss anything.	Let me know if I miss anything.	218685829	1477877062048	1477877062174	k	75
427174	4604874	Let me know if I miss anything.	Let me know if I miss anything.	218685831	1477877062160	1477877062335	n	78
427174	4604874	Let me know if I miss anything.	Let me know if I miss anything.	218685832	1477877062272	1477877062439	o	79
427174	4604874	Let me know if I miss anything.	Let me know if I miss anything.	218685834	1477877062368	1477877062486	w	87
427174	4604874	Let me know if I miss anything.	Let me know if I miss anything.	218685836	1477877062480	1477877062607	 	32
427174	4604874	Let me know if I miss anything.	Let me know if I miss anything.	218685838	1477877062552	1477877062687	i	73
427174	4604874	Let me know if I miss anything.	Let me know if I miss anything.	218685840	1477877062656	1477877062790	f	70
427174	4604874	Let me know if I miss anything.	Let me know if I miss anything.	218685842	1477877062744	1477877062863	 	32
427174	4604874	Let me know if I miss anything.	Let me know if I miss anything.	218685843	1477877062870	1477877063071	SHIFT	16
427174	4604874	Let me know if I miss anything.	Let me know if I miss anything.	218685855	1477877062936	1477877063086	I	73
427174	4604874	Let me know if I miss anything.	Let me know if I miss anything.	218685856	1477877063040	1477877063159	 	32
427174	4604874	Let me know if I miss anything.	Let me know if I miss anything.	218685859	1477877063200	1477877063375	m	77
427174	4604874	Let me know if I miss anything.	Let me know if I miss anything.	218685862	1477877063304	1477877063439	i	73
427174	4604874	Let me know if I miss anything.	Let me know if I miss anything.	218685865	1477877063383	1477877063455	s	83
427174	4604874	Let me know if I miss anything.	Let me know if I miss anything.	218685866	1477877063576	1477877063682	s	83
427174	4604874	Let me know if I miss anything.	Let me know if I miss anything.	218685872	1477877063656	1477877063774	 	32
427174	4604874	Let me know if I miss anything.	Let me know if I miss anything.	218685874	1477877063767	1477877063927	a	65
427174	4604874	Let me know if I miss anything.	Let me know if I miss anything.	218685875	1477877063856	1477877063943	n	78
427174	4604874	Let me know if I miss anything.	Let me know if I miss anything.	218685877	1477877064056	1477877064159	y	89
427174	4604874	Let me know if I miss anything.	Let me know if I miss anything.	218685878	1477877064176	1477877064295	t	84
427174	4604874	Let me know if I miss anything.	Let me know if I miss anything.	218685895	1477877064271	1477877064343	h	72
427174	4604874	Let me know if I miss anything.	Let me know if I miss anything.	218685901	1477877064416	1477877064519	i	73
427174	4604874	Let me know if I miss anything.	Let me know if I miss anything.	218685906	1477877064464	1477877064607	n	78
427174	4604874	Let me know if I miss anything.	Let me know if I miss anything.	218685912	1477877064535	1477877064679	g	71
427174	4604881	We obviously have a lot to talk about.	We obviously have a lot to talk about.	218686030	1477877067423	1477877067655	SHIFT	16
427174	4604881	We obviously have a lot to talk about.	We obviously have a lot to talk about.	218686032	1477877067568	1477877067695	W	87
427174	4604881	We obviously have a lot to talk about.	We obviously have a lot to talk about.	218686033	1477877067768	1477877067902	e	69
427174	4604881	We obviously have a lot to talk about.	We obviously have a lot to talk about.	218686035	1477877067895	1477877068006	 	32
427174	4604881	We obviously have a lot to talk about.	We obviously have a lot to talk about.	218686036	1477877068048	1477877068207	o	79
427174	4604881	We obviously have a lot to talk about.	We obviously have a lot to talk about.	218686063	1477877068136	1477877068295	b	66
427174	4604881	We obviously have a lot to talk about.	We obviously have a lot to talk about.	218686064	1477877068343	1477877068471	v	86
427174	4604881	We obviously have a lot to talk about.	We obviously have a lot to talk about.	218686065	1477877068536	1477877068647	i	73
427174	4604881	We obviously have a lot to talk about.	We obviously have a lot to talk about.	218686067	1477877068751	1477877068919	o	79
427174	4604881	We obviously have a lot to talk about.	We obviously have a lot to talk about.	218686069	1477877068864	1477877069009	u	85
427174	4604881	We obviously have a lot to talk about.	We obviously have a lot to talk about.	218686070	1477877069014	1477877069166	s	83
427174	4604881	We obviously have a lot to talk about.	We obviously have a lot to talk about.	218686085	1477877069143	1477877069255	l	76
427174	4604881	We obviously have a lot to talk about.	We obviously have a lot to talk about.	218686088	1477877069304	1477877069423	y	89
427174	4604881	We obviously have a lot to talk about.	We obviously have a lot to talk about.	218686091	1477877069408	1477877069558	 	32
427174	4604881	We obviously have a lot to talk about.	We obviously have a lot to talk about.	218686092	1477877069519	1477877069671	h	72
427174	4604881	We obviously have a lot to talk about.	We obviously have a lot to talk about.	218686093	1477877069600	1477877069735	a	65
427174	4604881	We obviously have a lot to talk about.	We obviously have a lot to talk about.	218686095	1477877069687	1477877069855	v	86
427174	4604881	We obviously have a lot to talk about.	We obviously have a lot to talk about.	218686097	1477877069792	1477877069966	e	69
427174	4604881	We obviously have a lot to talk about.	We obviously have a lot to talk about.	218686101	1477877069895	1477877069982	 	32
427174	4604881	We obviously have a lot to talk about.	We obviously have a lot to talk about.	218686105	1477877069960	1477877070143	a	65
427174	4604881	We obviously have a lot to talk about.	We obviously have a lot to talk about.	218686108	1477877070079	1477877070223	 	32
427174	4604881	We obviously have a lot to talk about.	We obviously have a lot to talk about.	218686123	1477877070191	1477877070295	l	76
427174	4604881	We obviously have a lot to talk about.	We obviously have a lot to talk about.	218686125	1477877070384	1477877070519	o	79
427174	4604881	We obviously have a lot to talk about.	We obviously have a lot to talk about.	218686127	1477877070463	1477877070582	t	84
427174	4604881	We obviously have a lot to talk about.	We obviously have a lot to talk about.	218686129	1477877070552	1477877070679	 	32
427174	4604881	We obviously have a lot to talk about.	We obviously have a lot to talk about.	218686138	1477877070647	1477877070888	t	84
427174	4604881	We obviously have a lot to talk about.	We obviously have a lot to talk about.	218686131	1477877070727	1477877070887	o	79
427174	4604881	We obviously have a lot to talk about.	We obviously have a lot to talk about.	218686140	1477877070832	1477877070975	 	32
427174	4604881	We obviously have a lot to talk about.	We obviously have a lot to talk about.	218686142	1477877071024	1477877071174	t	84
427174	4604881	We obviously have a lot to talk about.	We obviously have a lot to talk about.	218686144	1477877071167	1477877071326	a	65
427174	4604881	We obviously have a lot to talk about.	We obviously have a lot to talk about.	218686146	1477877071248	1477877071466	l	76
427174	4604881	We obviously have a lot to talk about.	We obviously have a lot to talk about.	218686159	1477877071320	1477877071495	k	75
427174	4604881	We obviously have a lot to talk about.	We obviously have a lot to talk about.	218686161	1477877071439	1477877071598	 	32
427174	4604881	We obviously have a lot to talk about.	We obviously have a lot to talk about.	218686163	1477877071583	1477877071743	a	65
427174	4604881	We obviously have a lot to talk about.	We obviously have a lot to talk about.	218686162	1477877071663	1477877071735	b	66
427174	4604881	We obviously have a lot to talk about.	We obviously have a lot to talk about.	218686164	1477877071824	1477877071942	o	79
427174	4604881	We obviously have a lot to talk about.	We obviously have a lot to talk about.	218686166	1477877071880	1477877071999	u	85
427174	4604881	We obviously have a lot to talk about.	We obviously have a lot to talk about.	218686172	1477877071983	1477877072135	t	84
427174	4604888	He will be evaluated on a day to day basis.	He will be evaluated on a day to day basis.	218686259	1477877074670	1477877074839	SHIFT	16
427174	4604888	He will be evaluated on a day to day basis.	He will be evaluated on a day to day basis.	218686261	1477877074767	1477877074887	H	72
427174	4604888	He will be evaluated on a day to day basis.	He will be evaluated on a day to day basis.	218686265	1477877074903	1477877075023	e	69
427174	4604888	He will be evaluated on a day to day basis.	He will be evaluated on a day to day basis.	218686268	1477877074991	1477877075135	 	32
427174	4604888	He will be evaluated on a day to day basis.	He will be evaluated on a day to day basis.	218686270	1477877075191	1477877075342	w	87
427174	4604888	He will be evaluated on a day to day basis.	He will be evaluated on a day to day basis.	218686278	1477877075295	1477877075367	i	73
427174	4604888	He will be evaluated on a day to day basis.	He will be evaluated on a day to day basis.	218686280	1477877075495	1477877075535	l	76
427174	4604888	He will be evaluated on a day to day basis.	He will be evaluated on a day to day basis.	218686282	1477877075631	1477877075734	l	76
427174	4604888	He will be evaluated on a day to day basis.	He will be evaluated on a day to day basis.	218686285	1477877075703	1477877075855	 	32
427174	4604888	He will be evaluated on a day to day basis.	He will be evaluated on a day to day basis.	218686288	1477877075815	1477877075966	b	66
427174	4604888	He will be evaluated on a day to day basis.	He will be evaluated on a day to day basis.	218686307	1477877075903	1477877076030	e	69
427174	4604888	He will be evaluated on a day to day basis.	He will be evaluated on a day to day basis.	218686308	1477877076039	1477877076166	 	32
427174	4604888	He will be evaluated on a day to day basis.	He will be evaluated on a day to day basis.	218686311	1477877076271	1477877076391	e	69
427174	4604888	He will be evaluated on a day to day basis.	He will be evaluated on a day to day basis.	218686314	1477877076447	1477877076574	v	86
427174	4604888	He will be evaluated on a day to day basis.	He will be evaluated on a day to day basis.	218686318	1477877076567	1477877076719	a	65
427174	4604888	He will be evaluated on a day to day basis.	He will be evaluated on a day to day basis.	218686321	1477877076800	1477877076870	l	76
427174	4604888	He will be evaluated on a day to day basis.	He will be evaluated on a day to day basis.	218686345	1477877076975	1477877077094	u	85
427174	4604888	He will be evaluated on a day to day basis.	He will be evaluated on a day to day basis.	218686346	1477877077063	1477877077166	t	84
427174	4604888	He will be evaluated on a day to day basis.	He will be evaluated on a day to day basis.	218686347	1477877077191	1477877077334	a	65
427174	4604888	He will be evaluated on a day to day basis.	He will be evaluated on a day to day basis.	218686348	1477877077559	1477877077750	e	69
427174	4604888	He will be evaluated on a day to day basis.	He will be evaluated on a day to day basis.	218686425	1477877077695	1477877077862	d	68
427174	4604888	He will be evaluated on a day to day basis.	He will be evaluated on a day to day basis.	218686427	1477877077799	1477877077950	 	32
427174	4604888	He will be evaluated on a day to day basis.	He will be evaluated on a day to day basis.	218686428	1477877078479	1477877078534	BKSP	8
427174	4604888	He will be evaluated on a day to day basis.	He will be evaluated on a day to day basis.	218686431	1477877078631	1477877078694	BKSP	8
427174	4604888	He will be evaluated on a day to day basis.	He will be evaluated on a day to day basis.	218686434	1477877078807	1477877078894	BKSP	8
427174	4604888	He will be evaluated on a day to day basis.	He will be evaluated on a day to day basis.	218686437	1477877078990	1477877079078	BKSP	8
427174	4604888	He will be evaluated on a day to day basis.	He will be evaluated on a day to day basis.	218686442	1477877079183	1477877079310	BKSP	8
427174	4604888	He will be evaluated on a day to day basis.	He will be evaluated on a day to day basis.	218686447	1477877079511	1477877079638	a	65
427174	4604888	He will be evaluated on a day to day basis.	He will be evaluated on a day to day basis.	218686452	1477877079591	1477877079718	t	84
427174	4604888	He will be evaluated on a day to day basis.	He will be evaluated on a day to day basis.	218686454	1477877079735	1477877079910	e	69
427174	4604888	He will be evaluated on a day to day basis.	He will be evaluated on a day to day basis.	218686458	1477877079855	1477877079998	d	68
427174	4604888	He will be evaluated on a day to day basis.	He will be evaluated on a day to day basis.	218686461	1477877079943	1477877080069	 	32
427174	4604888	He will be evaluated on a day to day basis.	He will be evaluated on a day to day basis.	218686463	1477877080063	1477877080206	o	79
427174	4604888	He will be evaluated on a day to day basis.	He will be evaluated on a day to day basis.	218686465	1477877080143	1477877080334	n	78
427174	4604888	He will be evaluated on a day to day basis.	He will be evaluated on a day to day basis.	218686467	1477877080263	1477877080377	 	32
427174	4604888	He will be evaluated on a day to day basis.	He will be evaluated on a day to day basis.	218686482	1477877080375	1477877080526	a	65
427174	4604888	He will be evaluated on a day to day basis.	He will be evaluated on a day to day basis.	218686484	1477877080471	1477877080606	 	32
427174	4604888	He will be evaluated on a day to day basis.	He will be evaluated on a day to day basis.	218686486	1477877080751	1477877080894	d	68
427174	4604888	He will be evaluated on a day to day basis.	He will be evaluated on a day to day basis.	218686488	1477877080871	1477877081038	a	65
427174	4604888	He will be evaluated on a day to day basis.	He will be evaluated on a day to day basis.	218686489	1477877080951	1477877081086	y	89
427174	4604888	He will be evaluated on a day to day basis.	He will be evaluated on a day to day basis.	218686505	1477877081055	1477877081153	 	32
427174	4604888	He will be evaluated on a day to day basis.	He will be evaluated on a day to day basis.	218686509	1477877081151	1477877081310	t	84
427174	4604888	He will be evaluated on a day to day basis.	He will be evaluated on a day to day basis.	218686513	1477877081247	1477877081398	o	79
427174	4604888	He will be evaluated on a day to day basis.	He will be evaluated on a day to day basis.	218686516	1477877081312	1477877081438	 	32
427174	4604888	He will be evaluated on a day to day basis.	He will be evaluated on a day to day basis.	218686519	1477877081464	1477877081599	d	68
427174	4604888	He will be evaluated on a day to day basis.	He will be evaluated on a day to day basis.	218686526	1477877081583	1477877081734	a	65
427174	4604888	He will be evaluated on a day to day basis.	He will be evaluated on a day to day basis.	218686529	1477877081695	1477877081798	y	89
427174	4604888	He will be evaluated on a day to day basis.	He will be evaluated on a day to day basis.	218686532	1477877081766	1477877081878	 	32
427174	4604888	He will be evaluated on a day to day basis.	He will be evaluated on a day to day basis.	218686538	1477877081951	1477877082088	b	66
427174	4604888	He will be evaluated on a day to day basis.	He will be evaluated on a day to day basis.	218686543	1477877082071	1477877082222	a	65
427174	4604888	He will be evaluated on a day to day basis.	He will be evaluated on a day to day basis.	218686558	1477877082183	1477877082310	s	83
427174	4604888	He will be evaluated on a day to day basis.	He will be evaluated on a day to day basis.	218686559	1477877082295	1477877082422	i	73
427174	4604888	He will be evaluated on a day to day basis.	He will be evaluated on a day to day basis.	218686560	1477877082439	1477877082622	s	83
427174	4604894	He will be re-evaluated after receiving an injection.	He will be re-evaluated after receiving an injection.	218686687	1477877086222	1477877086390	SHIFT	16
427174	4604894	He will be re-evaluated after receiving an injection.	He will be re-evaluated after receiving an injection.	218686688	1477877086319	1477877086469	H	72
427174	4604894	He will be re-evaluated after receiving an injection.	He will be re-evaluated after receiving an injection.	218686690	1477877086447	1477877086590	e	69
427174	4604894	He will be re-evaluated after receiving an injection.	He will be re-evaluated after receiving an injection.	218686692	1477877086535	1477877086686	 	32
427174	4604894	He will be re-evaluated after receiving an injection.	He will be re-evaluated after receiving an injection.	218686694	1477877086727	1477877086878	w	87
427174	4604894	He will be re-evaluated after receiving an injection.	He will be re-evaluated after receiving an injection.	218686714	1477877086823	1477877086902	i	73
427174	4604894	He will be re-evaluated after receiving an injection.	He will be re-evaluated after receiving an injection.	218686715	1477877087023	1477877087070	l	76
427174	4604894	He will be re-evaluated after receiving an injection.	He will be re-evaluated after receiving an injection.	218686716	1477877087167	1477877087278	l	76
427174	4604894	He will be re-evaluated after receiving an injection.	He will be re-evaluated after receiving an injection.	218686717	1477877087247	1477877087398	 	32
427174	4604894	He will be re-evaluated after receiving an injection.	He will be re-evaluated after receiving an injection.	218686718	1477877087359	1477877087494	b	66
427174	4604894	He will be re-evaluated after receiving an injection.	He will be re-evaluated after receiving an injection.	218686733	1477877087455	1477877087582	e	69
427174	4604894	He will be re-evaluated after receiving an injection.	He will be re-evaluated after receiving an injection.	218686734	1477877087543	1477877087670	 	32
427174	4604894	He will be re-evaluated after receiving an injection.	He will be re-evaluated after receiving an injection.	218686735	1477877087751	1477877087894	r	82
427174	4604894	He will be re-evaluated after receiving an injection.	He will be re-evaluated after receiving an injection.	218686736	1477877087823	1477877088021	e	69
427174	4604894	He will be re-evaluated after receiving an injection.	He will be re-evaluated after receiving an injection.	218686737	1477877088127	1477877088254	-	189
427174	4604894	He will be re-evaluated after receiving an injection.	He will be re-evaluated after receiving an injection.	218686739	1477877088359	1477877088486	e	69
427174	4604894	He will be re-evaluated after receiving an injection.	He will be re-evaluated after receiving an injection.	218686783	1477877088551	1477877088694	v	86
427174	4604894	He will be re-evaluated after receiving an injection.	He will be re-evaluated after receiving an injection.	218686785	1477877088719	1477877088870	a	65
427174	4604894	He will be re-evaluated after receiving an injection.	He will be re-evaluated after receiving an injection.	218686788	1477877089039	1477877089118	l	76
427174	4604894	He will be re-evaluated after receiving an injection.	He will be re-evaluated after receiving an injection.	218686792	1477877089207	1477877089342	u	85
427174	4604894	He will be re-evaluated after receiving an injection.	He will be re-evaluated after receiving an injection.	218686796	1477877089350	1477877089422	t	84
427174	4604894	He will be re-evaluated after receiving an injection.	He will be re-evaluated after receiving an injection.	218686818	1477877089615	1477877089694	BKSP	8
427174	4604894	He will be re-evaluated after receiving an injection.	He will be re-evaluated after receiving an injection.	218686820	1477877089687	1477877089830	a	65
427174	4604894	He will be re-evaluated after receiving an injection.	He will be re-evaluated after receiving an injection.	218686823	1477877089767	1477877089886	t	84
427174	4604894	He will be re-evaluated after receiving an injection.	He will be re-evaluated after receiving an injection.	218686826	1477877089927	1477877090078	e	69
427174	4604894	He will be re-evaluated after receiving an injection.	He will be re-evaluated after receiving an injection.	218686829	1477877090039	1477877090174	d	68
427174	4604894	He will be re-evaluated after receiving an injection.	He will be re-evaluated after receiving an injection.	218686845	1477877090127	1477877090262	 	32
427174	4604894	He will be re-evaluated after receiving an injection.	He will be re-evaluated after receiving an injection.	218686846	1477877090239	1477877090398	a	65
427174	4604894	He will be re-evaluated after receiving an injection.	He will be re-evaluated after receiving an injection.	218686848	1477877090383	1477877090486	f	70
427174	4604894	He will be re-evaluated after receiving an injection.	He will be re-evaluated after receiving an injection.	218686850	1477877090623	1477877090726	t	84
427174	4604894	He will be re-evaluated after receiving an injection.	He will be re-evaluated after receiving an injection.	218686852	1477877090734	1477877090934	e	69
427174	4604894	He will be re-evaluated after receiving an injection.	He will be re-evaluated after receiving an injection.	218686880	1477877090887	1477877091029	r	82
427174	4604894	He will be re-evaluated after receiving an injection.	He will be re-evaluated after receiving an injection.	218686885	1477877091047	1477877091150	 	32
427174	4604894	He will be re-evaluated after receiving an injection.	He will be re-evaluated after receiving an injection.	218686889	1477877091135	1477877091293	r	82
427174	4604894	He will be re-evaluated after receiving an injection.	He will be re-evaluated after receiving an injection.	218686890	1477877091271	1477877091449	e	69
427174	4604894	He will be re-evaluated after receiving an injection.	He will be re-evaluated after receiving an injection.	218686893	1477877091447	1477877091606	c	67
427174	4604894	He will be re-evaluated after receiving an injection.	He will be re-evaluated after receiving an injection.	218686894	1477877091616	1477877091766	e	69
427174	4604894	He will be re-evaluated after receiving an injection.	He will be re-evaluated after receiving an injection.	218686901	1477877091863	1477877091974	i	73
427174	4604894	He will be re-evaluated after receiving an injection.	He will be re-evaluated after receiving an injection.	218686903	1477877091999	1477877092141	v	86
427174	4604894	He will be re-evaluated after receiving an injection.	He will be re-evaluated after receiving an injection.	218686906	1477877092135	1477877092270	i	73
427174	4604894	He will be re-evaluated after receiving an injection.	He will be re-evaluated after receiving an injection.	218686911	1477877092207	1477877092470	n	78
427174	4604894	He will be re-evaluated after receiving an injection.	He will be re-evaluated after receiving an injection.	218686957	1477877092383	1477877092517	g	71
427174	4604894	He will be re-evaluated after receiving an injection.	He will be re-evaluated after receiving an injection.	218686960	1477877092511	1477877092654	 	32
427174	4604894	He will be re-evaluated after receiving an injection.	He will be re-evaluated after receiving an injection.	218686965	1477877092783	1477877092918	i	73
427174	4604894	He will be re-evaluated after receiving an injection.	He will be re-evaluated after receiving an injection.	218686968	1477877093150	1477877093214	BKSP	8
427174	4604894	He will be re-evaluated after receiving an injection.	He will be re-evaluated after receiving an injection.	218686971	1477877093239	1477877093398	a	65
427174	4604894	He will be re-evaluated after receiving an injection.	He will be re-evaluated after receiving an injection.	218686973	1477877093359	1477877093518	n	78
427174	4604894	He will be re-evaluated after receiving an injection.	He will be re-evaluated after receiving an injection.	218686977	1477877093479	1477877093598	 	32
427174	4604894	He will be re-evaluated after receiving an injection.	He will be re-evaluated after receiving an injection.	218686979	1477877093567	1477877093702	i	73
427174	4604894	He will be re-evaluated after receiving an injection.	He will be re-evaluated after receiving an injection.	218686982	1477877093663	1477877093782	n	78
427174	4604894	He will be re-evaluated after receiving an injection.	He will be re-evaluated after receiving an injection.	218686985	1477877093903	1477877094030	j	74
427174	4604894	He will be re-evaluated after receiving an injection.	He will be re-evaluated after receiving an injection.	218686988	1477877093967	1477877094126	e	69
427174	4604894	He will be re-evaluated after receiving an injection.	He will be re-evaluated after receiving an injection.	218687004	1477877094063	1477877094174	c	67
427174	4604894	He will be re-evaluated after receiving an injection.	He will be re-evaluated after receiving an injection.	218687010	1477877094319	1477877094455	t	84
427174	4604894	He will be re-evaluated after receiving an injection.	He will be re-evaluated after receiving an injection.	218687007	1477877094375	1477877094454	i	73
427174	4604894	He will be re-evaluated after receiving an injection.	He will be re-evaluated after receiving an injection.	218687013	1477877094535	1477877094646	o	79
427174	4604894	He will be re-evaluated after receiving an injection.	He will be re-evaluated after receiving an injection.	218687015	1477877094591	1477877094726	n	78
427174	4604894	He will be re-evaluated after receiving an injection.	He will be re-evaluated after receiving an injection.	218687017	1477877094887	1477877094958	.	190
427174	4604903	Please set something up.	Please set something up.	218687091	1477877097030	1477877097286	SHIFT	16
427174	4604903	Please set something up.	Please set something up.	218687089	1477877097135	1477877097222	P	80
427174	4604903	Please set something up.	Please set something up.	218687094	1477877097367	1477877097430	l	76
427174	4604903	Please set something up.	Please set something up.	218687097	1477877097463	1477877097630	e	69
427174	4604903	Please set something up.	Please set something up.	218687100	1477877097687	1477877097838	a	65
427174	4604903	Please set something up.	Please set something up.	218687113	1477877097815	1477877098005	s	83
427174	4604903	Please set something up.	Please set something up.	218687115	1477877097967	1477877098166	e	69
427174	4604903	Please set something up.	Please set something up.	218687117	1477877098079	1477877098198	 	32
427174	4604903	Please set something up.	Please set something up.	218687119	1477877098191	1477877098349	s	83
427174	4604903	Please set something up.	Please set something up.	218687124	1477877098335	1477877098502	e	69
427174	4604903	Please set something up.	Please set something up.	218687133	1477877098447	1477877098582	t	84
427174	4604903	Please set something up.	Please set something up.	218687136	1477877098535	1477877098630	 	32
427174	4604903	Please set something up.	Please set something up.	218687141	1477877098639	1477877098790	s	83
427174	4604903	Please set something up.	Please set something up.	218687145	1477877098735	1477877098902	o	79
427174	4604903	Please set something up.	Please set something up.	218687158	1477877098798	1477877098934	m	77
427174	4604903	Please set something up.	Please set something up.	218687161	1477877098863	1477877099024	e	69
427174	4604903	Please set something up.	Please set something up.	218687164	1477877098975	1477877099086	t	84
427174	4604903	Please set something up.	Please set something up.	218687168	1477877099271	1477877099441	i	73
427174	4604903	Please set something up.	Please set something up.	218687173	1477877099367	1477877099613	n	78
427174	4604903	Please set something up.	Please set something up.	218687171	1477877099415	1477877099558	g	71
427174	4604903	Please set something up.	Please set something up.	218687196	1477877099607	1477877099758	 	32
427174	4604903	Please set something up.	Please set something up.	218687198	1477877099910	1477877099990	BKSP	8
427174	4604903	Please set something up.	Please set something up.	218687202	1477877100070	1477877100134	BKSP	8
427174	4604903	Please set something up.	Please set something up.	218687205	1477877100213	1477877100288	BKSP	8
427174	4604903	Please set something up.	Please set something up.	218687207	1477877100365	1477877100433	BKSP	8
427174	4604903	Please set something up.	Please set something up.	218687211	1477877100549	1477877100637	h	72
427174	4604903	Please set something up.	Please set something up.	218687214	1477877100646	1477877100839	i	73
427174	4604903	Please set something up.	Please set something up.	218687218	1477877100766	1477877100965	n	78
427174	4604903	Please set something up.	Please set something up.	218687264	1477877100838	1477877101014	g	71
427174	4604903	Please set something up.	Please set something up.	218687265	1477877100950	1477877101115	 	32
427174	4604903	Please set something up.	Please set something up.	218687266	1477877101101	1477877101251	u	85
427174	4604903	Please set something up.	Please set something up.	218687267	1477877101621	1477877101720	p	80
427174	4604903	Please set something up.	Please set something up.	218687268	1477877101853	1477877101918	.	190
427174	4604909	Never mind, I already deleted it.	Never mind, I already deleted it.	218687369	1477877104622	1477877104797	SHIFT	16
427174	4604909	Never mind, I already deleted it.	Never mind, I already deleted it.	218687370	1477877104711	1477877104830	N	78
427174	4604909	Never mind, I already deleted it.	Never mind, I already deleted it.	218687371	1477877104871	1477877104982	e	69
427174	4604909	Never mind, I already deleted it.	Never mind, I already deleted it.	218687372	1477877104966	1477877105086	v	86
427174	4604909	Never mind, I already deleted it.	Never mind, I already deleted it.	218687374	1477877105175	1477877105326	e	69
427174	4604909	Never mind, I already deleted it.	Never mind, I already deleted it.	218687390	1477877105279	1477877105414	r	82
427174	4604909	Never mind, I already deleted it.	Never mind, I already deleted it.	218687393	1477877105310	1477877105478	 	32
427174	4604909	Never mind, I already deleted it.	Never mind, I already deleted it.	218687396	1477877105463	1477877105502	m	77
427174	4604909	Never mind, I already deleted it.	Never mind, I already deleted it.	218687399	1477877105542	1477877105694	i	73
427174	4604909	Never mind, I already deleted it.	Never mind, I already deleted it.	218687402	1477877105647	1477877105797	n	78
427174	4604909	Never mind, I already deleted it.	Never mind, I already deleted it.	218687405	1477877105758	1477877105918	d	68
427174	4604909	Never mind, I already deleted it.	Never mind, I already deleted it.	218687408	1477877105959	1477877106062	,	188
427174	4604909	Never mind, I already deleted it.	Never mind, I already deleted it.	218687429	1477877106030	1477877106141	 	32
427174	4604909	Never mind, I already deleted it.	Never mind, I already deleted it.	218687433	1477877106094	1477877106350	SHIFT	16
427174	4604909	Never mind, I already deleted it.	Never mind, I already deleted it.	218687441	1477877106231	1477877106374	I	73
427174	4604909	Never mind, I already deleted it.	Never mind, I already deleted it.	218687445	1477877106310	1477877106445	 	32
427174	4604909	Never mind, I already deleted it.	Never mind, I already deleted it.	218687450	1477877106542	1477877106673	a	65
427174	4604909	Never mind, I already deleted it.	Never mind, I already deleted it.	218687454	1477877106655	1477877106797	l	76
427174	4604909	Never mind, I already deleted it.	Never mind, I already deleted it.	218687463	1477877106758	1477877106909	r	82
427174	4604909	Never mind, I already deleted it.	Never mind, I already deleted it.	218687465	1477877106854	1477877106973	e	69
427174	4604909	Never mind, I already deleted it.	Never mind, I already deleted it.	218687467	1477877106958	1477877107101	a	65
427174	4604909	Never mind, I already deleted it.	Never mind, I already deleted it.	218687469	1477877107094	1477877107238	d	68
427174	4604909	Never mind, I already deleted it.	Never mind, I already deleted it.	218687471	1477877107190	1477877107357	y	89
427174	4604909	Never mind, I already deleted it.	Never mind, I already deleted it.	218687472	1477877107286	1477877107454	 	32
427174	4604909	Never mind, I already deleted it.	Never mind, I already deleted it.	218687473	1477877107406	1477877107494	d	68
427174	4604909	Never mind, I already deleted it.	Never mind, I already deleted it.	218687474	1477877107622	1477877107725	e	69
427174	4604909	Never mind, I already deleted it.	Never mind, I already deleted it.	218687476	1477877107718	1477877107846	l	76
427174	4604909	Never mind, I already deleted it.	Never mind, I already deleted it.	218687478	1477877107886	1477877108061	e	69
427174	4604909	Never mind, I already deleted it.	Never mind, I already deleted it.	218687494	1477877108005	1477877108142	t	84
427174	4604909	Never mind, I already deleted it.	Never mind, I already deleted it.	218687496	1477877108191	1477877108382	e	69
427174	4604909	Never mind, I already deleted it.	Never mind, I already deleted it.	218687498	1477877108334	1477877108462	d	68
427174	4604909	Never mind, I already deleted it.	Never mind, I already deleted it.	218687501	1477877108398	1477877108533	 	32
427174	4604909	Never mind, I already deleted it.	Never mind, I already deleted it.	218687504	1477877108510	1477877108654	i	73
427174	4604909	Never mind, I already deleted it.	Never mind, I already deleted it.	218687506	1477877108678	1477877108814	t	84
427174	4604909	Never mind, I already deleted it.	Never mind, I already deleted it.	218687503	1477877108830	1477877108961	.	190
