PARTICIPANT_ID	TEST_SECTION_ID	SENTENCE	USER_INPUT	KEYSTROKE_ID	PRESS_TIME	RELEASE_TIME	LETTER	KEYCODE
431211	4648648	Fuel is retained in kind from the shippers.	Fuel is retained in kind from the shippers.	220760292	1477939265468	1477939265826	SHIFT	16
431211	4648648	Fuel is retained in kind from the shippers.	Fuel is retained in kind from the shippers.	220760289	1477939265686	1477939265779	F	70
431211	4648648	Fuel is retained in kind from the shippers.	Fuel is retained in kind from the shippers.	220760296	1477939266013	1477939266108	u	85
431211	4648648	Fuel is retained in kind from the shippers.	Fuel is retained in kind from the shippers.	220760299	1477939266123	1477939266239	e	69
431211	4648648	Fuel is retained in kind from the shippers.	Fuel is retained in kind from the shippers.	220760301	1477939266239	1477939266340	l	76
431211	4648648	Fuel is retained in kind from the shippers.	Fuel is retained in kind from the shippers.	220760303	1477939266418	1477939266507	 	32
431211	4648648	Fuel is retained in kind from the shippers.	Fuel is retained in kind from the shippers.	220760345	1477939266634	1477939266715	i	73
431211	4648648	Fuel is retained in kind from the shippers.	Fuel is retained in kind from the shippers.	220760348	1477939267258	1477939267357	s	83
431211	4648648	Fuel is retained in kind from the shippers.	Fuel is retained in kind from the shippers.	220760351	1477939267342	1477939267410	 	32
431211	4648648	Fuel is retained in kind from the shippers.	Fuel is retained in kind from the shippers.	220760353	1477939267920	1477939268061	r	82
431211	4648648	Fuel is retained in kind from the shippers.	Fuel is retained in kind from the shippers.	220760397	1477939268008	1477939268155	e	69
431211	4648648	Fuel is retained in kind from the shippers.	Fuel is retained in kind from the shippers.	220760401	1477939268296	1477939268375	t	84
431211	4648648	Fuel is retained in kind from the shippers.	Fuel is retained in kind from the shippers.	220760403	1477939268455	1477939268627	a	65
431211	4648648	Fuel is retained in kind from the shippers.	Fuel is retained in kind from the shippers.	220760407	1477939268565	1477939268674	i	73
431211	4648648	Fuel is retained in kind from the shippers.	Fuel is retained in kind from the shippers.	220760412	1477939268768	1477939268844	n	78
431211	4648648	Fuel is retained in kind from the shippers.	Fuel is retained in kind from the shippers.	220760419	1477939268937	1477939269128	e	69
431211	4648648	Fuel is retained in kind from the shippers.	Fuel is retained in kind from the shippers.	220760461	1477939269057	1477939269222	d	68
431211	4648648	Fuel is retained in kind from the shippers.	Fuel is retained in kind from the shippers.	220760464	1477939269222	1477939269292	 	32
431211	4648648	Fuel is retained in kind from the shippers.	Fuel is retained in kind from the shippers.	220760467	1477939269448	1477939269619	i	73
431211	4648648	Fuel is retained in kind from the shippers.	Fuel is retained in kind from the shippers.	220760470	1477939269603	1477939269724	n	78
431211	4648648	Fuel is retained in kind from the shippers.	Fuel is retained in kind from the shippers.	220760473	1477939269708	1477939269808	 	32
431211	4648648	Fuel is retained in kind from the shippers.	Fuel is retained in kind from the shippers.	220760474	1477939270312	1477939270392	k	75
431211	4648648	Fuel is retained in kind from the shippers.	Fuel is retained in kind from the shippers.	220760497	1477939270455	1477939270558	i	73
431211	4648648	Fuel is retained in kind from the shippers.	Fuel is retained in kind from the shippers.	220760500	1477939270890	1477939271086	n	78
431211	4648648	Fuel is retained in kind from the shippers.	Fuel is retained in kind from the shippers.	220760498	1477939270944	1477939271057	d	68
431211	4648648	Fuel is retained in kind from the shippers.	Fuel is retained in kind from the shippers.	220760502	1477939271041	1477939271140	 	32
431211	4648648	Fuel is retained in kind from the shippers.	Fuel is retained in kind from the shippers.	220760504	1477939271234	1477939271386	f	70
431211	4648648	Fuel is retained in kind from the shippers.	Fuel is retained in kind from the shippers.	220760552	1477939271450	1477939271556	i	73
431211	4648648	Fuel is retained in kind from the shippers.	Fuel is retained in kind from the shippers.	220760554	1477939272043	1477939272170	BKSP	8
431211	4648648	Fuel is retained in kind from the shippers.	Fuel is retained in kind from the shippers.	220760558	1477939272186	1477939272306	r	82
431211	4648648	Fuel is retained in kind from the shippers.	Fuel is retained in kind from the shippers.	220760563	1477939272337	1477939272487	o	79
431211	4648648	Fuel is retained in kind from the shippers.	Fuel is retained in kind from the shippers.	220760568	1477939272565	1477939272657	n	78
431211	4648648	Fuel is retained in kind from the shippers.	Fuel is retained in kind from the shippers.	220760572	1477939272938	1477939273024	BKSP	8
431211	4648648	Fuel is retained in kind from the shippers.	Fuel is retained in kind from the shippers.	220760576	1477939273165	1477939273288	m	77
431211	4648648	Fuel is retained in kind from the shippers.	Fuel is retained in kind from the shippers.	220760628	1477939273272	1477939273358	 	32
431211	4648648	Fuel is retained in kind from the shippers.	Fuel is retained in kind from the shippers.	220760631	1477939273576	1477939273657	t	84
431211	4648648	Fuel is retained in kind from the shippers.	Fuel is retained in kind from the shippers.	220760639	1477939273720	1477939273826	h	72
431211	4648648	Fuel is retained in kind from the shippers.	Fuel is retained in kind from the shippers.	220760642	1477939273777	1477939273857	e	69
431211	4648648	Fuel is retained in kind from the shippers.	Fuel is retained in kind from the shippers.	220760645	1477939273857	1477939273925	 	32
431211	4648648	Fuel is retained in kind from the shippers.	Fuel is retained in kind from the shippers.	220760646	1477939274460	1477939274573	s	83
431211	4648648	Fuel is retained in kind from the shippers.	Fuel is retained in kind from the shippers.	220760723	1477939274588	1477939274675	g	71
431211	4648648	Fuel is retained in kind from the shippers.	Fuel is retained in kind from the shippers.	220760724	1477939275034	1477939275141	BKSP	8
431211	4648648	Fuel is retained in kind from the shippers.	Fuel is retained in kind from the shippers.	220760725	1477939275250	1477939275342	h	72
431211	4648648	Fuel is retained in kind from the shippers.	Fuel is retained in kind from the shippers.	220760727	1477939275847	1477939275910	i	73
431211	4648648	Fuel is retained in kind from the shippers.	Fuel is retained in kind from the shippers.	220760729	1477939276050	1477939276143	p	80
431211	4648648	Fuel is retained in kind from the shippers.	Fuel is retained in kind from the shippers.	220760731	1477939276174	1477939276290	p	80
431211	4648648	Fuel is retained in kind from the shippers.	Fuel is retained in kind from the shippers.	220760761	1477939276324	1477939276508	e	69
431211	4648648	Fuel is retained in kind from the shippers.	Fuel is retained in kind from the shippers.	220760762	1477939276412	1477939276571	r	82
431211	4648648	Fuel is retained in kind from the shippers.	Fuel is retained in kind from the shippers.	220760763	1477939276664	1477939276821	s	83
431211	4648648	Fuel is retained in kind from the shippers.	Fuel is retained in kind from the shippers.	220760765	1477939276964	1477939277059	.	190
431211	4648667	I will not be available.	I will not be available.	220760869	1477939279468	1477939279809	SHIFT	16
431211	4648667	I will not be available.	I will not be available.	220760873	1477939279704	1477939279871	I	73
431211	4648667	I will not be available.	I will not be available.	220760877	1477939279887	1477939280055	 	32
431211	4648667	I will not be available.	I will not be available.	220760882	1477939280149	1477939280290	w	87
431211	4648667	I will not be available.	I will not be available.	220760887	1477939280290	1477939280407	i	73
431211	4648667	I will not be available.	I will not be available.	220760892	1477939280595	1477939280678	l	76
431211	4648667	I will not be available.	I will not be available.	220760914	1477939280723	1477939280841	l	76
431211	4648667	I will not be available.	I will not be available.	220760917	1477939280857	1477939280975	 	32
431211	4648667	I will not be available.	I will not be available.	220760922	1477939281053	1477939281159	n	78
431211	4648667	I will not be available.	I will not be available.	220760925	1477939281190	1477939281343	o	79
431211	4648667	I will not be available.	I will not be available.	220761005	1477939281308	1477939281441	t	84
431211	4648667	I will not be available.	I will not be available.	220761008	1477939281441	1477939281512	 	32
431211	4648667	I will not be available.	I will not be available.	220761012	1477939281982	1477939282095	b	66
431211	4648667	I will not be available.	I will not be available.	220761015	1477939282046	1477939282142	e	69
431211	4648667	I will not be available.	I will not be available.	220761017	1477939282096	1477939282193	 	32
431211	4648667	I will not be available.	I will not be available.	220761019	1477939282852	1477939282944	a	65
431211	4648667	I will not be available.	I will not be available.	220761067	1477939283086	1477939283161	v	86
431211	4648667	I will not be available.	I will not be available.	220761071	1477939283176	1477939283308	a	65
431211	4648667	I will not be available.	I will not be available.	220761074	1477939283729	1477939283796	i	73
431211	4648667	I will not be available.	I will not be available.	220761076	1477939283921	1477939283996	l	76
431211	4648667	I will not be available.	I will not be available.	220761149	1477939283996	1477939284077	a	65
431211	4648667	I will not be available.	I will not be available.	220761151	1477939284532	1477939284612	b	66
431211	4648667	I will not be available.	I will not be available.	220761155	1477939285002	1477939285114	l	76
431211	4648667	I will not be available.	I will not be available.	220761158	1477939285061	1477939285145	e	69
431211	4648667	I will not be available.	I will not be available.	220761160	1477939285223	1477939285374	.	190
431211	4648677	No obligation to pay.	No obligation to pay.	220761245	1477939287949	1477939288260	SHIFT	16
431211	4648677	No obligation to pay.	No obligation to pay.	220761243	1477939288136	1477939288244	N	78
431211	4648677	No obligation to pay.	No obligation to pay.	220761248	1477939288307	1477939288442	o	79
431211	4648677	No obligation to pay.	No obligation to pay.	220761253	1477939288442	1477939288498	 	32
431211	4648677	No obligation to pay.	No obligation to pay.	220761256	1477939289515	1477939289675	o	79
431211	4648677	No obligation to pay.	No obligation to pay.	220761261	1477939289863	1477939289915	b	66
431211	4648677	No obligation to pay.	No obligation to pay.	220761281	1477939290026	1477939290128	l	76
431211	4648677	No obligation to pay.	No obligation to pay.	220761282	1477939290206	1477939290296	i	73
431211	4648677	No obligation to pay.	No obligation to pay.	220761283	1477939290483	1477939290563	g	71
431211	4648677	No obligation to pay.	No obligation to pay.	220761284	1477939290626	1477939290767	a	65
431211	4648677	No obligation to pay.	No obligation to pay.	220761312	1477939290729	1477939290813	t	84
431211	4648677	No obligation to pay.	No obligation to pay.	220761313	1477939290985	1477939291135	i	73
431211	4648677	No obligation to pay.	No obligation to pay.	220761314	1477939291080	1477939291227	o	79
431211	4648677	No obligation to pay.	No obligation to pay.	220761316	1477939291336	1477939291477	n	78
431211	4648677	No obligation to pay.	No obligation to pay.	220761318	1477939291508	1477939291643	 	32
431211	4648677	No obligation to pay.	No obligation to pay.	220761321	1477939291643	1477939291759	t	84
431211	4648677	No obligation to pay.	No obligation to pay.	220761427	1477939291699	1477939291883	o	79
431211	4648677	No obligation to pay.	No obligation to pay.	220761432	1477939291834	1477939291916	 	32
431211	4648677	No obligation to pay.	No obligation to pay.	220761439	1477939292072	1477939292193	p	80
431211	4648677	No obligation to pay.	No obligation to pay.	220761444	1477939292193	1477939292343	a	65
431211	4648677	No obligation to pay.	No obligation to pay.	220761449	1477939292830	1477939292883	BKSP	8
431211	4648677	No obligation to pay.	No obligation to pay.	220761454	1477939292961	1477939293063	BKSP	8
431211	4648677	No obligation to pay.	No obligation to pay.	220761458	1477939293846	1477939293983	p	80
431211	4648677	No obligation to pay.	No obligation to pay.	220761477	1477939293946	1477939294093	a	65
431211	4648677	No obligation to pay.	No obligation to pay.	220761480	1477939294078	1477939294163	y	89
431211	4648677	No obligation to pay.	No obligation to pay.	220761481	1477939294350	1477939294478	.	190
431211	4648683	Washington was not moving toward a unilateral lifting of the embargo.	Washington was not moving toward a unilateral lifting of the embargo.	220761725	1477939299717	1477939299934	SHIFT	16
431211	4648683	Washington was not moving toward a unilateral lifting of the embargo.	Washington was not moving toward a unilateral lifting of the embargo.	220761726	1477939299857	1477939300012	W	87
431211	4648683	Washington was not moving toward a unilateral lifting of the embargo.	Washington was not moving toward a unilateral lifting of the embargo.	220761727	1477939300106	1477939300246	a	65
431211	4648683	Washington was not moving toward a unilateral lifting of the embargo.	Washington was not moving toward a unilateral lifting of the embargo.	220761728	1477939300433	1477939300548	s	83
431211	4648683	Washington was not moving toward a unilateral lifting of the embargo.	Washington was not moving toward a unilateral lifting of the embargo.	220761729	1477939300564	1477939300649	h	72
431211	4648683	Washington was not moving toward a unilateral lifting of the embargo.	Washington was not moving toward a unilateral lifting of the embargo.	220761731	1477939300711	1477939300831	i	73
431211	4648683	Washington was not moving toward a unilateral lifting of the embargo.	Washington was not moving toward a unilateral lifting of the embargo.	220761759	1477939301129	1477939301262	n	78
431211	4648683	Washington was not moving toward a unilateral lifting of the embargo.	Washington was not moving toward a unilateral lifting of the embargo.	220761762	1477939301200	1477939301299	g	71
431211	4648683	Washington was not moving toward a unilateral lifting of the embargo.	Washington was not moving toward a unilateral lifting of the embargo.	220761765	1477939301393	1477939301532	o	79
431211	4648683	Washington was not moving toward a unilateral lifting of the embargo.	Washington was not moving toward a unilateral lifting of the embargo.	220761769	1477939301431	1477939301563	t	84
431211	4648683	Washington was not moving toward a unilateral lifting of the embargo.	Washington was not moving toward a unilateral lifting of the embargo.	220761772	1477939301625	1477939301767	n	78
431211	4648683	Washington was not moving toward a unilateral lifting of the embargo.	Washington was not moving toward a unilateral lifting of the embargo.	220762024	1477939301732	1477939301833	 	32
431211	4648683	Washington was not moving toward a unilateral lifting of the embargo.	Washington was not moving toward a unilateral lifting of the embargo.	220762026	1477939306130	1477939306374	BKSP	8
431211	4648683	Washington was not moving toward a unilateral lifting of the embargo.	Washington was not moving toward a unilateral lifting of the embargo.	220762030	1477939306436	1477939306518	BKSP	8
431211	4648683	Washington was not moving toward a unilateral lifting of the embargo.	Washington was not moving toward a unilateral lifting of the embargo.	220762034	1477939306580	1477939306668	BKSP	8
431211	4648683	Washington was not moving toward a unilateral lifting of the embargo.	Washington was not moving toward a unilateral lifting of the embargo.	220762037	1477939308440	1477939308676	BKSP	8
431211	4648683	Washington was not moving toward a unilateral lifting of the embargo.	Washington was not moving toward a unilateral lifting of the embargo.	220762043	1477939309162	1477939309302	t	84
431211	4648683	Washington was not moving toward a unilateral lifting of the embargo.	Washington was not moving toward a unilateral lifting of the embargo.	220762047	1477939309221	1477939309364	o	79
431211	4648683	Washington was not moving toward a unilateral lifting of the embargo.	Washington was not moving toward a unilateral lifting of the embargo.	220762052	1477939309427	1477939309567	n	78
431211	4648683	Washington was not moving toward a unilateral lifting of the embargo.	Washington was not moving toward a unilateral lifting of the embargo.	220762056	1477939309518	1477939309618	 	32
431211	4648683	Washington was not moving toward a unilateral lifting of the embargo.	Washington was not moving toward a unilateral lifting of the embargo.	220762061	1477939310260	1477939310351	w	87
431211	4648683	Washington was not moving toward a unilateral lifting of the embargo.	Washington was not moving toward a unilateral lifting of the embargo.	220762076	1477939310447	1477939310630	a	65
431211	4648683	Washington was not moving toward a unilateral lifting of the embargo.	Washington was not moving toward a unilateral lifting of the embargo.	220762077	1477939310583	1477939310716	s	83
431211	4648683	Washington was not moving toward a unilateral lifting of the embargo.	Washington was not moving toward a unilateral lifting of the embargo.	220762078	1477939310701	1477939310817	 	32
431211	4648683	Washington was not moving toward a unilateral lifting of the embargo.	Washington was not moving toward a unilateral lifting of the embargo.	220762079	1477939311429	1477939311504	BKSP	8
431211	4648683	Washington was not moving toward a unilateral lifting of the embargo.	Washington was not moving toward a unilateral lifting of the embargo.	220762080	1477939311660	1477939311786	n	78
431211	4648683	Washington was not moving toward a unilateral lifting of the embargo.	Washington was not moving toward a unilateral lifting of the embargo.	220762126	1477939311771	1477939311870	t	84
431211	4648683	Washington was not moving toward a unilateral lifting of the embargo.	Washington was not moving toward a unilateral lifting of the embargo.	220762127	1477939311822	1477939311949	o	79
431211	4648683	Washington was not moving toward a unilateral lifting of the embargo.	Washington was not moving toward a unilateral lifting of the embargo.	220762128	1477939312154	1477939312253	BKSP	8
431211	4648683	Washington was not moving toward a unilateral lifting of the embargo.	Washington was not moving toward a unilateral lifting of the embargo.	220762129	1477939312300	1477939312372	BKSP	8
431211	4648683	Washington was not moving toward a unilateral lifting of the embargo.	Washington was not moving toward a unilateral lifting of the embargo.	220762130	1477939312403	1477939312502	BKSP	8
431211	4648683	Washington was not moving toward a unilateral lifting of the embargo.	Washington was not moving toward a unilateral lifting of the embargo.	220762131	1477939312580	1477939312701	 	32
431211	4648683	Washington was not moving toward a unilateral lifting of the embargo.	Washington was not moving toward a unilateral lifting of the embargo.	220762132	1477939312936	1477939313061	n	78
431211	4648683	Washington was not moving toward a unilateral lifting of the embargo.	Washington was not moving toward a unilateral lifting of the embargo.	220762133	1477939313077	1477939313186	p	84
431211	4648683	Washington was not moving toward a unilateral lifting of the embargo.	Washington was not moving toward a unilateral lifting of the embargo.	220762205	1477939313250	1477939313323	 	32
431211	4648683	Washington was not moving toward a unilateral lifting of the embargo.	Washington was not moving toward a unilateral lifting of the embargo.	220762207	1477939313588	1477939313671	BKSP	8
431211	4648683	Washington was not moving toward a unilateral lifting of the embargo.	Washington was not moving toward a unilateral lifting of the embargo.	220762209	1477939313717	1477939313991	BKSP	8
431211	4648683	Washington was not moving toward a unilateral lifting of the embargo.	Washington was not moving toward a unilateral lifting of the embargo.	220762210	1477939314100	1477939314187	BKSP	8
431211	4648683	Washington was not moving toward a unilateral lifting of the embargo.	Washington was not moving toward a unilateral lifting of the embargo.	220762211	1477939314592	1477939314689	o	79
431211	4648683	Washington was not moving toward a unilateral lifting of the embargo.	Washington was not moving toward a unilateral lifting of the embargo.	220762212	1477939314655	1477939314756	t	84
431211	4648683	Washington was not moving toward a unilateral lifting of the embargo.	Washington was not moving toward a unilateral lifting of the embargo.	220762214	1477939314705	1477939314756	 	32
431211	4648683	Washington was not moving toward a unilateral lifting of the embargo.	Washington was not moving toward a unilateral lifting of the embargo.	220762215	1477939315279	1477939315370	m	77
431211	4648683	Washington was not moving toward a unilateral lifting of the embargo.	Washington was not moving toward a unilateral lifting of the embargo.	220762240	1477939315418	1477939315551	o	79
431211	4648683	Washington was not moving toward a unilateral lifting of the embargo.	Washington was not moving toward a unilateral lifting of the embargo.	220762242	1477939315691	1477939315787	v	86
431211	4648683	Washington was not moving toward a unilateral lifting of the embargo.	Washington was not moving toward a unilateral lifting of the embargo.	220762247	1477939315883	1477939316065	i	73
431211	4648683	Washington was not moving toward a unilateral lifting of the embargo.	Washington was not moving toward a unilateral lifting of the embargo.	220762309	1477939316346	1477939316494	n	78
431211	4648683	Washington was not moving toward a unilateral lifting of the embargo.	Washington was not moving toward a unilateral lifting of the embargo.	220762251	1477939316406	1477939316472	g	71
431211	4648683	Washington was not moving toward a unilateral lifting of the embargo.	Washington was not moving toward a unilateral lifting of the embargo.	220762313	1477939316456	1477939316538	 	32
431211	4648683	Washington was not moving toward a unilateral lifting of the embargo.	Washington was not moving toward a unilateral lifting of the embargo.	220762318	1477939317196	1477939317319	t	84
431211	4648683	Washington was not moving toward a unilateral lifting of the embargo.	Washington was not moving toward a unilateral lifting of the embargo.	220762324	1477939317678	1477939317755	o	79
431211	4648683	Washington was not moving toward a unilateral lifting of the embargo.	Washington was not moving toward a unilateral lifting of the embargo.	220762330	1477939317817	1477939317920	w	87
431211	4648683	Washington was not moving toward a unilateral lifting of the embargo.	Washington was not moving toward a unilateral lifting of the embargo.	220762333	1477939318045	1477939318201	a	65
431211	4648683	Washington was not moving toward a unilateral lifting of the embargo.	Washington was not moving toward a unilateral lifting of the embargo.	220762336	1477939318279	1477939318355	r	82
431211	4648683	Washington was not moving toward a unilateral lifting of the embargo.	Washington was not moving toward a unilateral lifting of the embargo.	220762404	1477939318590	1477939318687	d	68
431211	4648683	Washington was not moving toward a unilateral lifting of the embargo.	Washington was not moving toward a unilateral lifting of the embargo.	220762405	1477939318718	1477939318820	 	32
431211	4648683	Washington was not moving toward a unilateral lifting of the embargo.	Washington was not moving toward a unilateral lifting of the embargo.	220762407	1477939319054	1477939319154	a	65
431211	4648683	Washington was not moving toward a unilateral lifting of the embargo.	Washington was not moving toward a unilateral lifting of the embargo.	220762409	1477939319139	1477939319206	 	32
431211	4648683	Washington was not moving toward a unilateral lifting of the embargo.	Washington was not moving toward a unilateral lifting of the embargo.	220762410	1477939320932	1477939321053	u	85
431211	4648683	Washington was not moving toward a unilateral lifting of the embargo.	Washington was not moving toward a unilateral lifting of the embargo.	220762431	1477939321132	1477939321238	n	78
431211	4648683	Washington was not moving toward a unilateral lifting of the embargo.	Washington was not moving toward a unilateral lifting of the embargo.	220762434	1477939321254	1477939321370	i	73
431211	4648683	Washington was not moving toward a unilateral lifting of the embargo.	Washington was not moving toward a unilateral lifting of the embargo.	220762437	1477939321511	1477939321605	l	76
431211	4648683	Washington was not moving toward a unilateral lifting of the embargo.	Washington was not moving toward a unilateral lifting of the embargo.	220762439	1477939321620	1477939321769	a	65
431211	4648683	Washington was not moving toward a unilateral lifting of the embargo.	Washington was not moving toward a unilateral lifting of the embargo.	220762442	1477939321816	1477939321891	t	84
431211	4648683	Washington was not moving toward a unilateral lifting of the embargo.	Washington was not moving toward a unilateral lifting of the embargo.	220762501	1477939321940	1477939322092	e	69
431211	4648683	Washington was not moving toward a unilateral lifting of the embargo.	Washington was not moving toward a unilateral lifting of the embargo.	220762503	1477939322039	1477939322139	r	82
431211	4648683	Washington was not moving toward a unilateral lifting of the embargo.	Washington was not moving toward a unilateral lifting of the embargo.	220762505	1477939323204	1477939323343	a	65
431211	4648683	Washington was not moving toward a unilateral lifting of the embargo.	Washington was not moving toward a unilateral lifting of the embargo.	220762506	1477939323306	1477939323406	l	76
431211	4648683	Washington was not moving toward a unilateral lifting of the embargo.	Washington was not moving toward a unilateral lifting of the embargo.	220762507	1477939323421	1477939323507	 	32
431211	4648683	Washington was not moving toward a unilateral lifting of the embargo.	Washington was not moving toward a unilateral lifting of the embargo.	220762590	1477939324573	1477939324688	l	76
431211	4648683	Washington was not moving toward a unilateral lifting of the embargo.	Washington was not moving toward a unilateral lifting of the embargo.	220762593	1477939324766	1477939324871	i	73
431211	4648683	Washington was not moving toward a unilateral lifting of the embargo.	Washington was not moving toward a unilateral lifting of the embargo.	220762598	1477939325043	1477939325163	f	70
431211	4648683	Washington was not moving toward a unilateral lifting of the embargo.	Washington was not moving toward a unilateral lifting of the embargo.	220762606	1477939325179	1477939325257	t	84
431211	4648683	Washington was not moving toward a unilateral lifting of the embargo.	Washington was not moving toward a unilateral lifting of the embargo.	220762611	1477939325429	1477939325523	i	73
431211	4648683	Washington was not moving toward a unilateral lifting of the embargo.	Washington was not moving toward a unilateral lifting of the embargo.	220762676	1477939325945	1477939326109	n	78
431211	4648683	Washington was not moving toward a unilateral lifting of the embargo.	Washington was not moving toward a unilateral lifting of the embargo.	220762679	1477939326040	1477939326171	g	71
431211	4648683	Washington was not moving toward a unilateral lifting of the embargo.	Washington was not moving toward a unilateral lifting of the embargo.	220762683	1477939326421	1477939326491	 	32
431211	4648683	Washington was not moving toward a unilateral lifting of the embargo.	Washington was not moving toward a unilateral lifting of the embargo.	220762687	1477939327699	1477939327853	o	79
431211	4648683	Washington was not moving toward a unilateral lifting of the embargo.	Washington was not moving toward a unilateral lifting of the embargo.	220762720	1477939327838	1477939327932	f	70
431211	4648683	Washington was not moving toward a unilateral lifting of the embargo.	Washington was not moving toward a unilateral lifting of the embargo.	220762725	1477939327994	1477939328090	 	32
431211	4648683	Washington was not moving toward a unilateral lifting of the embargo.	Washington was not moving toward a unilateral lifting of the embargo.	220762727	1477939328232	1477939328340	t	84
431211	4648683	Washington was not moving toward a unilateral lifting of the embargo.	Washington was not moving toward a unilateral lifting of the embargo.	220762732	1477939328418	1477939328542	h	72
431211	4648683	Washington was not moving toward a unilateral lifting of the embargo.	Washington was not moving toward a unilateral lifting of the embargo.	220762737	1477939328477	1477939328590	e	69
431211	4648683	Washington was not moving toward a unilateral lifting of the embargo.	Washington was not moving toward a unilateral lifting of the embargo.	220762740	1477939328621	1477939328676	 	32
431211	4648683	Washington was not moving toward a unilateral lifting of the embargo.	Washington was not moving toward a unilateral lifting of the embargo.	220762827	1477939330181	1477939330243	e	69
431211	4648683	Washington was not moving toward a unilateral lifting of the embargo.	Washington was not moving toward a unilateral lifting of the embargo.	220762829	1477939330758	1477939330857	m	77
431211	4648683	Washington was not moving toward a unilateral lifting of the embargo.	Washington was not moving toward a unilateral lifting of the embargo.	220762831	1477939331201	1477939331294	b	66
431211	4648683	Washington was not moving toward a unilateral lifting of the embargo.	Washington was not moving toward a unilateral lifting of the embargo.	220762833	1477939331372	1477939331476	a	65
431211	4648683	Washington was not moving toward a unilateral lifting of the embargo.	Washington was not moving toward a unilateral lifting of the embargo.	220762836	1477939331569	1477939331644	r	82
431211	4648683	Washington was not moving toward a unilateral lifting of the embargo.	Washington was not moving toward a unilateral lifting of the embargo.	220762877	1477939331787	1477939331846	g	71
431211	4648683	Washington was not moving toward a unilateral lifting of the embargo.	Washington was not moving toward a unilateral lifting of the embargo.	220762880	1477939332127	1477939332210	o	79
431211	4648683	Washington was not moving toward a unilateral lifting of the embargo.	Washington was not moving toward a unilateral lifting of the embargo.	220762885	1477939332382	1477939332476	.	190
431211	4648707	Very foggy this morning.	Very foggy this morning.	220763058	1477939335602	1477939335812	SHIFT	16
431211	4648707	Very foggy this morning.	Very foggy this morning.	220763063	1477939335726	1477939335827	V	86
431211	4648707	Very foggy this morning.	Very foggy this morning.	220763069	1477939335921	1477939336027	e	69
431211	4648707	Very foggy this morning.	Very foggy this morning.	220763076	1477939336199	1477939336278	r	82
431211	4648707	Very foggy this morning.	Very foggy this morning.	220763083	1477939336309	1477939336426	y	89
431211	4648707	Very foggy this morning.	Very foggy this morning.	220763092	1477939336441	1477939336528	 	32
431211	4648707	Very foggy this morning.	Very foggy this morning.	220763128	1477939336701	1477939336778	f	70
431211	4648707	Very foggy this morning.	Very foggy this morning.	220763131	1477939336918	1477939337010	o	79
431211	4648707	Very foggy this morning.	Very foggy this morning.	220763137	1477939337276	1477939337346	g	71
431211	4648707	Very foggy this morning.	Very foggy this morning.	220763142	1477939337409	1477939337496	g	71
431211	4648707	Very foggy this morning.	Very foggy this morning.	220763146	1477939337574	1477939337693	y	89
431211	4648707	Very foggy this morning.	Very foggy this morning.	220763177	1477939337741	1477939337844	 	32
431211	4648707	Very foggy this morning.	Very foggy this morning.	220763179	1477939337875	1477939337962	t	84
431211	4648707	Very foggy this morning.	Very foggy this morning.	220763180	1477939338055	1477939338175	h	72
431211	4648707	Very foggy this morning.	Very foggy this morning.	220763181	1477939338191	1477939338375	i	73
431211	4648707	Very foggy this morning.	Very foggy this morning.	220763206	1477939338341	1477939338460	s	83
431211	4648707	Very foggy this morning.	Very foggy this morning.	220763207	1477939338460	1477939338593	 	32
431211	4648707	Very foggy this morning.	Very foggy this morning.	220763208	1477939338764	1477939338877	m	77
431211	4648707	Very foggy this morning.	Very foggy this morning.	220763209	1477939338955	1477939339062	o	79
431211	4648707	Very foggy this morning.	Very foggy this morning.	220763211	1477939339140	1477939339260	r	82
431211	4648707	Very foggy this morning.	Very foggy this morning.	220763213	1477939339338	1477939339460	n	78
431211	4648707	Very foggy this morning.	Very foggy this morning.	220763240	1477939339509	1477939339627	i	73
431211	4648707	Very foggy this morning.	Very foggy this morning.	220763242	1477939339690	1477939339839	n	78
431211	4648707	Very foggy this morning.	Very foggy this morning.	220763244	1477939339795	1477939339879	g	71
431211	4648707	Very foggy this morning.	Very foggy this morning.	220763246	1477939339910	1477939340043	.	190
431211	4648715	Sorry it took so long.	Sorry it took so long	220763358	1477939342400	1477939342712	SHIFT	16
431211	4648715	Sorry it took so long.	Sorry it took so long	220763360	1477939342621	1477939342790	S	83
431211	4648715	Sorry it took so long.	Sorry it took so long	220763364	1477939342868	1477939342979	o	79
431211	4648715	Sorry it took so long.	Sorry it took so long	220763369	1477939343200	1477939343282	r	82
431211	4648715	Sorry it took so long.	Sorry it took so long	220763377	1477939343328	1477939343432	r	82
431211	4648715	Sorry it took so long.	Sorry it took so long	220763456	1477939343399	1477939343591	y	89
431211	4648715	Sorry it took so long.	Sorry it took so long	220763459	1477939343544	1477939343661	 	32
431211	4648715	Sorry it took so long.	Sorry it took so long	220763461	1477939343770	1477939343911	i	73
431211	4648715	Sorry it took so long.	Sorry it took so long	220763463	1477939343989	1477939344084	t	84
431211	4648715	Sorry it took so long.	Sorry it took so long	220763465	1477939344131	1477939344215	 	32
431211	4648715	Sorry it took so long.	Sorry it took so long	220763467	1477939344967	1477939345063	t	84
431211	4648715	Sorry it took so long.	Sorry it took so long	220763507	1477939345252	1477939345316	o	79
431211	4648715	Sorry it took so long.	Sorry it took so long	220763510	1477939345379	1477939345464	o	79
431211	4648715	Sorry it took so long.	Sorry it took so long	220763515	1477939345495	1477939345643	k	75
431211	4648715	Sorry it took so long.	Sorry it took so long	220763520	1477939345659	1477939345748	 	32
431211	4648715	Sorry it took so long.	Sorry it took so long	220763525	1477939346084	1477939346149	s	83
431211	4648715	Sorry it took so long.	Sorry it took so long	220763543	1477939346164	1477939346311	o	79
431211	4648715	Sorry it took so long.	Sorry it took so long	220763545	1477939346295	1477939346381	 	32
431211	4648715	Sorry it took so long.	Sorry it took so long	220763546	1477939346459	1477939346563	l	76
431211	4648715	Sorry it took so long.	Sorry it took so long	220763547	1477939346626	1477939346731	o	79
431211	4648715	Sorry it took so long.	Sorry it took so long	220763548	1477939346980	1477939347065	n	78
431211	4648715	Sorry it took so long.	Sorry it took so long	220763563	1477939347080	1477939347181	g	71
431211	4648723	I was a bit rusty but I didn't want to miss the elections back home.	I was a bit rusty bit I didn't want to miss the elections back home. 	220763670	1477939349345	1477939349633	SHIFT	16
431211	4648723	I was a bit rusty but I didn't want to miss the elections back home.	I was a bit rusty bit I didn't want to miss the elections back home. 	220763675	1477939349559	1477939349695	I	73
431211	4648723	I was a bit rusty but I didn't want to miss the elections back home.	I was a bit rusty bit I didn't want to miss the elections back home. 	220763679	1477939349711	1477939349799	 	32
431211	4648723	I was a bit rusty but I didn't want to miss the elections back home.	I was a bit rusty bit I didn't want to miss the elections back home. 	220763683	1477939349815	1477939349915	w	87
431211	4648723	I was a bit rusty but I didn't want to miss the elections back home.	I was a bit rusty bit I didn't want to miss the elections back home. 	220763686	1477939350086	1477939350268	a	65
431211	4648723	I was a bit rusty but I didn't want to miss the elections back home.	I was a bit rusty bit I didn't want to miss the elections back home. 	220763728	1477939350214	1477939350348	s	83
431211	4648723	I was a bit rusty but I didn't want to miss the elections back home.	I was a bit rusty bit I didn't want to miss the elections back home. 	220763731	1477939350364	1477939350434	 	32
431211	4648723	I was a bit rusty but I didn't want to miss the elections back home.	I was a bit rusty bit I didn't want to miss the elections back home. 	220763733	1477939350527	1477939350584	 	32
431211	4648723	I was a bit rusty but I didn't want to miss the elections back home.	I was a bit rusty bit I didn't want to miss the elections back home. 	220763734	1477939350631	1477939350747	a	65
431211	4648723	I was a bit rusty but I didn't want to miss the elections back home.	I was a bit rusty bit I didn't want to miss the elections back home. 	220763735	1477939351090	1477939351165	BKSP	8
431211	4648723	I was a bit rusty but I didn't want to miss the elections back home.	I was a bit rusty bit I didn't want to miss the elections back home. 	220763736	1477939351197	1477939351299	BKSP	8
431211	4648723	I was a bit rusty but I didn't want to miss the elections back home.	I was a bit rusty bit I didn't want to miss the elections back home. 	220763737	1477939351345	1477939351417	 	32
431211	4648723	I was a bit rusty but I didn't want to miss the elections back home.	I was a bit rusty bit I didn't want to miss the elections back home. 	220763738	1477939351433	1477939351532	a	65
431211	4648723	I was a bit rusty but I didn't want to miss the elections back home.	I was a bit rusty bit I didn't want to miss the elections back home. 	220763821	1477939351877	1477939351935	BKSP	8
431211	4648723	I was a bit rusty but I didn't want to miss the elections back home.	I was a bit rusty bit I didn't want to miss the elections back home. 	220763822	1477939352013	1477939352084	BKSP	8
431211	4648723	I was a bit rusty but I didn't want to miss the elections back home.	I was a bit rusty bit I didn't want to miss the elections back home. 	220763825	1477939352349	1477939352448	a	65
431211	4648723	I was a bit rusty but I didn't want to miss the elections back home.	I was a bit rusty bit I didn't want to miss the elections back home. 	220763829	1477939352511	1477939352552	 	32
431211	4648723	I was a bit rusty but I didn't want to miss the elections back home.	I was a bit rusty bit I didn't want to miss the elections back home. 	220763834	1477939353227	1477939353301	b	66
431211	4648723	I was a bit rusty but I didn't want to miss the elections back home.	I was a bit rusty bit I didn't want to miss the elections back home. 	220763840	1477939353897	1477939354045	i	73
431211	4648723	I was a bit rusty but I didn't want to miss the elections back home.	I was a bit rusty bit I didn't want to miss the elections back home. 	220764004	1477939354030	1477939354102	 	32
431211	4648723	I was a bit rusty but I didn't want to miss the elections back home.	I was a bit rusty bit I didn't want to miss the elections back home. 	220764012	1477939354428	1477939354535	BKSP	8
431211	4648723	I was a bit rusty but I didn't want to miss the elections back home.	I was a bit rusty bit I didn't want to miss the elections back home. 	220764018	1477939354502	1477939354583	t	84
431211	4648723	I was a bit rusty but I didn't want to miss the elections back home.	I was a bit rusty bit I didn't want to miss the elections back home. 	220764023	1477939354583	1477939354635	 	32
431211	4648723	I was a bit rusty but I didn't want to miss the elections back home.	I was a bit rusty bit I didn't want to miss the elections back home. 	220764025	1477939355668	1477939355753	r	82
431211	4648723	I was a bit rusty but I didn't want to miss the elections back home.	I was a bit rusty bit I didn't want to miss the elections back home. 	220764027	1477939355831	1477939355933	u	85
431211	4648723	I was a bit rusty but I didn't want to miss the elections back home.	I was a bit rusty bit I didn't want to miss the elections back home. 	220764029	1477939356074	1477939356182	s	83
431211	4648723	I was a bit rusty but I didn't want to miss the elections back home.	I was a bit rusty bit I didn't want to miss the elections back home. 	220764154	1477939356247	1477939356318	t	84
431211	4648723	I was a bit rusty but I didn't want to miss the elections back home.	I was a bit rusty bit I didn't want to miss the elections back home. 	220764155	1477939356725	1477939356801	y	89
431211	4648723	I was a bit rusty but I didn't want to miss the elections back home.	I was a bit rusty bit I didn't want to miss the elections back home. 	220764156	1477939356864	1477939356951	 	32
431211	4648723	I was a bit rusty but I didn't want to miss the elections back home.	I was a bit rusty bit I didn't want to miss the elections back home. 	220764157	1477939358126	1477939358202	b	66
431211	4648723	I was a bit rusty but I didn't want to miss the elections back home.	I was a bit rusty bit I didn't want to miss the elections back home. 	220764256	1477939358672	1477939358849	i	73
431211	4648723	I was a bit rusty but I didn't want to miss the elections back home.	I was a bit rusty bit I didn't want to miss the elections back home. 	220764158	1477939358738	1477939358849	t	84
431211	4648723	I was a bit rusty but I didn't want to miss the elections back home.	I was a bit rusty bit I didn't want to miss the elections back home. 	220764259	1477939358834	1477939358919	 	32
431211	4648723	I was a bit rusty but I didn't want to miss the elections back home.	I was a bit rusty bit I didn't want to miss the elections back home. 	220764261	1477939359091	1477939359314	SHIFT	16
431211	4648723	I was a bit rusty but I didn't want to miss the elections back home.	I was a bit rusty bit I didn't want to miss the elections back home. 	220764266	1477939359216	1477939359345	I	73
431211	4648723	I was a bit rusty but I didn't want to miss the elections back home.	I was a bit rusty bit I didn't want to miss the elections back home. 	220764269	1477939359345	1477939359435	 	32
431211	4648723	I was a bit rusty but I didn't want to miss the elections back home.	I was a bit rusty bit I didn't want to miss the elections back home. 	220764273	1477939359606	1477939359702	d	68
431211	4648723	I was a bit rusty but I didn't want to miss the elections back home.	I was a bit rusty bit I didn't want to miss the elections back home. 	220764279	1477939360092	1477939360169	i	73
431211	4648723	I was a bit rusty but I didn't want to miss the elections back home.	I was a bit rusty bit I didn't want to miss the elections back home. 	220764285	1477939360232	1477939360335	d	68
431211	4648723	I was a bit rusty but I didn't want to miss the elections back home.	I was a bit rusty bit I didn't want to miss the elections back home. 	220764334	1477939360430	1477939360503	n	78
431211	4648723	I was a bit rusty but I didn't want to miss the elections back home.	I was a bit rusty bit I didn't want to miss the elections back home. 	220764342	1477939360815	1477939360968	'	222
431211	4648723	I was a bit rusty but I didn't want to miss the elections back home.	I was a bit rusty bit I didn't want to miss the elections back home. 	220764337	1477939360887	1477939360953	t	84
431211	4648723	I was a bit rusty but I didn't want to miss the elections back home.	I was a bit rusty bit I didn't want to miss the elections back home. 	220764345	1477939360953	1477939361035	 	32
431211	4648723	I was a bit rusty but I didn't want to miss the elections back home.	I was a bit rusty bit I didn't want to miss the elections back home. 	220764346	1477939361849	1477939361936	w	87
431211	4648723	I was a bit rusty but I didn't want to miss the elections back home.	I was a bit rusty bit I didn't want to miss the elections back home. 	220764401	1477939362047	1477939362152	a	65
431211	4648723	I was a bit rusty but I didn't want to miss the elections back home.	I was a bit rusty bit I didn't want to miss the elections back home. 	220764404	1477939362498	1477939362602	n	78
431211	4648723	I was a bit rusty but I didn't want to miss the elections back home.	I was a bit rusty bit I didn't want to miss the elections back home. 	220764408	1477939362586	1477939362685	t	84
431211	4648723	I was a bit rusty but I didn't want to miss the elections back home.	I was a bit rusty bit I didn't want to miss the elections back home. 	220764411	1477939362701	1477939362802	 	32
431211	4648723	I was a bit rusty but I didn't want to miss the elections back home.	I was a bit rusty bit I didn't want to miss the elections back home. 	220764415	1477939362927	1477939363069	t	84
431211	4648723	I was a bit rusty but I didn't want to miss the elections back home.	I was a bit rusty bit I didn't want to miss the elections back home. 	220764497	1477939362967	1477939363149	o	79
431211	4648723	I was a bit rusty but I didn't want to miss the elections back home.	I was a bit rusty bit I didn't want to miss the elections back home. 	220764499	1477939363165	1477939363222	 	32
431211	4648723	I was a bit rusty but I didn't want to miss the elections back home.	I was a bit rusty bit I didn't want to miss the elections back home. 	220764503	1477939363802	1477939363918	m	77
431211	4648723	I was a bit rusty but I didn't want to miss the elections back home.	I was a bit rusty bit I didn't want to miss the elections back home. 	220764507	1477939364012	1477939364119	i	73
431211	4648723	I was a bit rusty but I didn't want to miss the elections back home.	I was a bit rusty bit I didn't want to miss the elections back home. 	220764510	1477939364197	1477939364271	s	83
431211	4648723	I was a bit rusty but I didn't want to miss the elections back home.	I was a bit rusty bit I didn't want to miss the elections back home. 	220764513	1477939364366	1477939364479	s	83
431211	4648723	I was a bit rusty but I didn't want to miss the elections back home.	I was a bit rusty bit I didn't want to miss the elections back home. 	220764559	1477939364438	1477939364555	 	32
431211	4648723	I was a bit rusty but I didn't want to miss the elections back home.	I was a bit rusty bit I didn't want to miss the elections back home. 	220764563	1477939364633	1477939364735	t	84
431211	4648723	I was a bit rusty but I didn't want to miss the elections back home.	I was a bit rusty bit I didn't want to miss the elections back home. 	220764567	1477939364813	1477939364970	h	72
431211	4648723	I was a bit rusty but I didn't want to miss the elections back home.	I was a bit rusty bit I didn't want to miss the elections back home. 	220764571	1477939364873	1477939364970	e	69
431211	4648723	I was a bit rusty but I didn't want to miss the elections back home.	I was a bit rusty bit I didn't want to miss the elections back home. 	220764574	1477939364954	1477939365015	 	32
431211	4648723	I was a bit rusty but I didn't want to miss the elections back home.	I was a bit rusty bit I didn't want to miss the elections back home. 	220764576	1477939365523	1477939365620	e	69
431211	4648723	I was a bit rusty but I didn't want to miss the elections back home.	I was a bit rusty bit I didn't want to miss the elections back home. 	220764627	1477939365919	1477939366020	l	76
431211	4648723	I was a bit rusty but I didn't want to miss the elections back home.	I was a bit rusty bit I didn't want to miss the elections back home. 	220764630	1477939366004	1477939366100	e	69
431211	4648723	I was a bit rusty but I didn't want to miss the elections back home.	I was a bit rusty bit I didn't want to miss the elections back home. 	220764633	1477939366241	1477939366367	c	67
431211	4648723	I was a bit rusty but I didn't want to miss the elections back home.	I was a bit rusty bit I didn't want to miss the elections back home. 	220764637	1477939366445	1477939366537	t	84
431211	4648723	I was a bit rusty but I didn't want to miss the elections back home.	I was a bit rusty bit I didn't want to miss the elections back home. 	220764641	1477939366694	1477939366823	i	73
431211	4648723	I was a bit rusty but I didn't want to miss the elections back home.	I was a bit rusty bit I didn't want to miss the elections back home. 	220764705	1477939366772	1477939366919	o	79
431211	4648723	I was a bit rusty but I didn't want to miss the elections back home.	I was a bit rusty bit I didn't want to miss the elections back home. 	220764712	1477939367092	1477939367247	n	78
431211	4648723	I was a bit rusty but I didn't want to miss the elections back home.	I was a bit rusty bit I didn't want to miss the elections back home. 	220764715	1477939367203	1477939367335	s	83
431211	4648723	I was a bit rusty but I didn't want to miss the elections back home.	I was a bit rusty bit I didn't want to miss the elections back home. 	220764721	1477939367335	1477939367421	 	32
431211	4648723	I was a bit rusty but I didn't want to miss the elections back home.	I was a bit rusty bit I didn't want to miss the elections back home. 	220764725	1477939367733	1477939367821	b	66
431211	4648723	I was a bit rusty but I didn't want to miss the elections back home.	I was a bit rusty bit I didn't want to miss the elections back home. 	220764730	1477939367837	1477939367968	a	65
431211	4648723	I was a bit rusty but I didn't want to miss the elections back home.	I was a bit rusty bit I didn't want to miss the elections back home. 	220764784	1477939368063	1477939368232	c	67
431211	4648723	I was a bit rusty but I didn't want to miss the elections back home.	I was a bit rusty bit I didn't want to miss the elections back home. 	220764787	1477939368608	1477939368705	k	75
431211	4648723	I was a bit rusty but I didn't want to miss the elections back home.	I was a bit rusty bit I didn't want to miss the elections back home. 	220764790	1477939368736	1477939368838	 	32
431211	4648723	I was a bit rusty but I didn't want to miss the elections back home.	I was a bit rusty bit I didn't want to miss the elections back home. 	220764793	1477939369182	1477939369255	h	72
431211	4648723	I was a bit rusty but I didn't want to miss the elections back home.	I was a bit rusty bit I didn't want to miss the elections back home. 	220764797	1477939369348	1477939369423	o	79
431211	4648723	I was a bit rusty but I didn't want to miss the elections back home.	I was a bit rusty bit I didn't want to miss the elections back home. 	220764885	1477939370284	1477939370357	m	77
431211	4648723	I was a bit rusty but I didn't want to miss the elections back home.	I was a bit rusty bit I didn't want to miss the elections back home. 	220764888	1477939370357	1477939370455	e	69
431211	4648723	I was a bit rusty but I didn't want to miss the elections back home.	I was a bit rusty bit I didn't want to miss the elections back home. 	220764892	1477939370455	1477939370585	.	190
431211	4648723	I was a bit rusty but I didn't want to miss the elections back home.	I was a bit rusty bit I didn't want to miss the elections back home. 	220764895	1477939370601	1477939370655	 	32
431211	4648750	I left a message.	I left a message.	220765133	1477939373252	1477939373535	SHIFT	16
431211	4648750	I left a message.	I left a message.	220765136	1477939373377	1477939373535	I	73
431211	4648750	I left a message.	I left a message.	220765141	1477939373535	1477939373622	 	32
431211	4648750	I left a message.	I left a message.	220765146	1477939374375	1477939374487	l	76
431211	4648750	I left a message.	I left a message.	220765151	1477939374472	1477939374604	e	69
431211	4648750	I left a message.	I left a message.	220765156	1477939374697	1477939374805	f	70
431211	4648750	I left a message.	I left a message.	220765189	1477939374821	1477939374975	t	84
431211	4648750	I left a message.	I left a message.	220765193	1477939374938	1477939375023	 	32
431211	4648750	I left a message.	I left a message.	220765197	1477939375133	1477939375254	a	65
431211	4648750	I left a message.	I left a message.	220765202	1477939375238	1477939375308	 	32
431211	4648750	I left a message.	I left a message.	220765205	1477939375699	1477939375822	m	77
431211	4648750	I left a message.	I left a message.	220765253	1477939375854	1477939375956	e	69
431211	4648750	I left a message.	I left a message.	220765257	1477939376174	1477939376223	s	83
431211	4648750	I left a message.	I left a message.	220765262	1477939376290	1477939376375	s	83
431211	4648750	I left a message.	I left a message.	220765268	1477939376421	1477939376585	a	65
431211	4648750	I left a message.	I left a message.	220765273	1477939376726	1477939376807	g	71
431211	4648750	I left a message.	I left a message.	220765318	1477939376776	1477939376890	e	69
431211	4648750	I left a message.	I left a message.	220765322	1477939376905	1477939377038	,	188
431211	4648750	I left a message.	I left a message.	220765327	1477939377445	1477939377525	BKSP	8
431211	4648765	In a couple of weeks.	In a couple of weeks	220765557	1477939381348	1477939381608	SHIFT	16
431211	4648765	In a couple of weeks.	In a couple of weeks	220765560	1477939381506	1477939381655	I	73
431211	4648765	In a couple of weeks.	In a couple of weeks	220765564	1477939382111	1477939382255	n	78
431211	4648765	In a couple of weeks.	In a couple of weeks	220765575	1477939382224	1477939382309	 	32
431211	4648765	In a couple of weeks.	In a couple of weeks	220765583	1477939382512	1477939382661	a	65
431211	4648765	In a couple of weeks.	In a couple of weeks	220765674	1477939382645	1477939382711	 	32
431211	4648765	In a couple of weeks.	In a couple of weeks	220765680	1477939383244	1477939383435	o	79
431211	4648765	In a couple of weeks.	In a couple of weeks	220765684	1477939383419	1477939383524	u	85
431211	4648765	In a couple of weeks.	In a couple of weeks	220765688	1477939383836	1477939383926	BKSP	8
431211	4648765	In a couple of weeks.	In a couple of weeks	220765693	1477939383973	1477939384059	BKSP	8
431211	4648765	In a couple of weeks.	In a couple of weeks	220765697	1477939384449	1477939384558	c	67
431211	4648765	In a couple of weeks.	In a couple of weeks	220765701	1477939384542	1477939384712	o	79
431211	4648765	In a couple of weeks.	In a couple of weeks	220765784	1477939384657	1477939384792	u	85
431211	4648765	In a couple of weeks.	In a couple of weeks	220765789	1477939385262	1477939385326	l	76
431211	4648765	In a couple of weeks.	In a couple of weeks	220765793	1477939385654	1477939385743	BKSP	8
431211	4648765	In a couple of weeks.	In a couple of weeks	220765799	1477939385977	1477939386106	p	80
431211	4648765	In a couple of weeks.	In a couple of weeks	220765801	1477939386247	1477939386367	l	76
431211	4648765	In a couple of weeks.	In a couple of weeks	220765804	1477939386327	1477939386426	e	69
431211	4648765	In a couple of weeks.	In a couple of weeks	220765806	1477939386488	1477939386592	 	32
431211	4648765	In a couple of weeks.	In a couple of weeks	220765893	1477939387692	1477939387863	o	79
431211	4648765	In a couple of weeks.	In a couple of weeks	220765897	1477939387793	1477939387894	f	70
431211	4648765	In a couple of weeks.	In a couple of weeks	220765900	1477939387910	1477939388010	 	32
431211	4648765	In a couple of weeks.	In a couple of weeks	220765904	1477939388103	1477939388209	w	87
431211	4648765	In a couple of weeks.	In a couple of weeks	220765908	1477939388397	1477939388494	e	69
431211	4648765	In a couple of weeks.	In a couple of weeks	220765913	1477939388542	1477939388663	e	69
431211	4648765	In a couple of weeks.	In a couple of weeks	220765916	1477939388627	1477939388774	k	75
431211	4648782	What is the purpose of this?	What s the purpose of this?	220766178	1477939388806	1477939392462	s	83
431211	4648782	What is the purpose of this?	What s the purpose of this?	220766093	1477939391045	1477939391343	SHIFT	16
431211	4648782	What is the purpose of this?	What s the purpose of this?	220766095	1477939391216	1477939391390	W	87
431211	4648782	What is the purpose of this?	What s the purpose of this?	220766097	1477939391405	1477939391526	h	72
431211	4648782	What is the purpose of this?	What s the purpose of this?	220766100	1477939391541	1477939391687	a	65
431211	4648782	What is the purpose of this?	What s the purpose of this?	220766104	1477939391644	1477939391729	t	84
431211	4648782	What is the purpose of this?	What s the purpose of this?	220766109	1477939391744	1477939391829	 	32
431211	4648782	What is the purpose of this?	What s the purpose of this?	220766176	1477939392267	1477939392399	i	73
431211	4648782	What is the purpose of this?	What s the purpose of this?	220766183	1477939392447	1477939392529	 	32
431211	4648782	What is the purpose of this?	What s the purpose of this?	220766188	1477939392670	1477939392762	t	84
431211	4648782	What is the purpose of this?	What s the purpose of this?	220766193	1477939392840	1477939392994	h	72
431211	4648782	What is the purpose of this?	What s the purpose of this?	220766334	1477939392897	1477939393010	e	69
431211	4648782	What is the purpose of this?	What s the purpose of this?	220766342	1477939392994	1477939393064	 	32
431211	4648782	What is the purpose of this?	What s the purpose of this?	220766352	1477939393692	1477939393873	p	80
431211	4648782	What is the purpose of this?	What s the purpose of this?	220766362	1477939394029	1477939394143	o	79
431211	4648782	What is the purpose of this?	What s the purpose of this?	220766369	1477939394237	1477939394314	u	85
431211	4648782	What is the purpose of this?	What s the purpose of this?	220766372	1477939394956	1477939395031	BKSP	8
431211	4648782	What is the purpose of this?	What s the purpose of this?	220766375	1477939395093	1477939395211	BKSP	8
431211	4648782	What is the purpose of this?	What s the purpose of this?	220766378	1477939395759	1477939395815	u	85
431211	4648782	What is the purpose of this?	What s the purpose of this?	220766454	1477939396785	1477939396910	r	82
431211	4648782	What is the purpose of this?	What s the purpose of this?	220766457	1477939396941	1477939397124	p	80
431211	4648782	What is the purpose of this?	What s the purpose of this?	220766459	1477939397108	1477939397195	o	79
431211	4648782	What is the purpose of this?	What s the purpose of this?	220766462	1477939397398	1477939397512	s	83
431211	4648782	What is the purpose of this?	What s the purpose of this?	220766464	1477939397590	1477939397711	e	69
431211	4648782	What is the purpose of this?	What s the purpose of this?	220766606	1477939397695	1477939397765	 	32
431211	4648782	What is the purpose of this?	What s the purpose of this?	220766609	1477939398093	1477939398263	o	79
431211	4648782	What is the purpose of this?	What s the purpose of this?	220766614	1477939398227	1477939398345	 	32
431211	4648782	What is the purpose of this?	What s the purpose of this?	220766620	1477939398657	1477939398825	BKSP	8
431211	4648782	What is the purpose of this?	What s the purpose of this?	220766627	1477939398840	1477939398962	f	70
431211	4648782	What is the purpose of this?	What s the purpose of this?	220766632	1477939398993	1477939399046	 	32
431211	4648782	What is the purpose of this?	What s the purpose of this?	220766639	1477939400050	1477939400148	t	84
431211	4648782	What is the purpose of this?	What s the purpose of this?	220766839	1477939401133	1477939401247	h	72
431211	4648782	What is the purpose of this?	What s the purpose of this?	220766845	1477939401513	1477939401614	o	79
431211	4648782	What is the purpose of this?	What s the purpose of this?	220766847	1477939401614	1477939401681	s	83
431211	4648782	What is the purpose of this?	What s the purpose of this?	220766853	1477939402311	1477939402523	BKSP	8
431211	4648782	What is the purpose of this?	What s the purpose of this?	220766859	1477939403197	1477939403328	BKSP	8
431211	4648782	What is the purpose of this?	What s the purpose of this?	220766864	1477939403765	1477939403833	i	73
431211	4648782	What is the purpose of this?	What s the purpose of this?	220766936	1477939403818	1477939403915	s	83
431211	4648782	What is the purpose of this?	What s the purpose of this?	220766940	1477939404943	1477939405051	SHIFT	16
431211	4648803	When I do, we will eat.	When I do, we will eat.	220767157	1477939407851	1477939408101	SHIFT	16
431211	4648803	When I do, we will eat.	When I do, we will eat.	220767160	1477939408022	1477939408179	W	87
431211	4648803	When I do, we will eat.	When I do, we will eat.	220767165	1477939408476	1477939408567	h	72
431211	4648803	When I do, we will eat.	When I do, we will eat.	220767171	1477939408567	1477939408652	e	69
431211	4648803	When I do, we will eat.	When I do, we will eat.	220767179	1477939408619	1477939408746	n	78
431211	4648803	When I do, we will eat.	When I do, we will eat.	220767365	1477939408730	1477939408786	 	32
431211	4648803	When I do, we will eat.	When I do, we will eat.	220767370	1477939409335	1477939409484	SHIFT	16
431211	4648803	When I do, we will eat.	When I do, we will eat.	220767373	1477939409397	1477939409567	I	73
431211	4648803	When I do, we will eat.	When I do, we will eat.	220767376	1477939409531	1477939409601	 	32
431211	4648803	When I do, we will eat.	When I do, we will eat.	220767379	1477939409546	1477939409711	SHIFT	16
431211	4648803	When I do, we will eat.	When I do, we will eat.	220767381	1477939410557	1477939410665	d	68
431211	4648803	When I do, we will eat.	When I do, we will eat.	220767385	1477939410681	1477939410752	o	79
431211	4648803	When I do, we will eat.	When I do, we will eat.	220767389	1477939411049	1477939411214	,	188
431211	4648803	When I do, we will eat.	When I do, we will eat.	220767487	1477939411198	1477939411284	 	32
431211	4648803	When I do, we will eat.	When I do, we will eat.	220767489	1477939411487	1477939411670	w	87
431211	4648803	When I do, we will eat.	When I do, we will eat.	220767492	1477939411601	1477939411732	e	69
431211	4648803	When I do, we will eat.	When I do, we will eat.	220767495	1477939411717	1477939411786	 	32
431211	4648803	When I do, we will eat.	When I do, we will eat.	220767497	1477939412853	1477939412965	w	87
431211	4648803	When I do, we will eat.	When I do, we will eat.	220767500	1477939413012	1477939413070	i	73
431211	4648803	When I do, we will eat.	When I do, we will eat.	220767566	1477939413275	1477939413320	l	76
431211	4648803	When I do, we will eat.	When I do, we will eat.	220767567	1477939413414	1477939413486	l	76
431211	4648803	When I do, we will eat.	When I do, we will eat.	220767568	1477939413564	1477939413621	 	32
431211	4648803	When I do, we will eat.	When I do, we will eat.	220767571	1477939414151	1477939414220	e	69
431211	4648803	When I do, we will eat.	When I do, we will eat.	220767574	1477939414423	1477939414565	a	65
431211	4648803	When I do, we will eat.	When I do, we will eat.	220767616	1477939414707	1477939414818	t	84
431211	4648818	Japan's first man in space was a journalist.	japan's first man in space was a jounalist.	220767852	1477939418246	1477939419015	SHIFT	16
431211	4648818	Japan's first man in space was a journalist.	japan's first man in space was a jounalist.	220767853	1477939419031	1477939419120	j	74
431211	4648818	Japan's first man in space was a journalist.	japan's first man in space was a jounalist.	220767855	1477939419136	1477939419266	a	65
431211	4648818	Japan's first man in space was a journalist.	japan's first man in space was a jounalist.	220767857	1477939419407	1477939419503	p	80
431211	4648818	Japan's first man in space was a journalist.	japan's first man in space was a jounalist.	220767859	1477939419503	1477939419587	a	65
431211	4648818	Japan's first man in space was a journalist.	japan's first man in space was a jounalist.	220767861	1477939419792	1477939419887	n	78
431211	4648818	Japan's first man in space was a journalist.	japan's first man in space was a jounalist.	220767975	1477939420405	1477939420506	'	222
431211	4648818	Japan's first man in space was a journalist.	japan's first man in space was a jounalist.	220767978	1477939420456	1477939420551	s	83
431211	4648818	Japan's first man in space was a journalist.	japan's first man in space was a jounalist.	220767981	1477939420506	1477939420588	 	32
431211	4648818	Japan's first man in space was a journalist.	japan's first man in space was a jounalist.	220767983	1477939421559	1477939421669	f	70
431211	4648818	Japan's first man in space was a journalist.	japan's first man in space was a jounalist.	220767986	1477939421840	1477939421973	i	73
431211	4648818	Japan's first man in space was a journalist.	japan's first man in space was a jounalist.	220768070	1477939421905	1477939422005	r	82
431211	4648818	Japan's first man in space was a journalist.	japan's first man in space was a jounalist.	220768072	1477939422177	1477939422303	s	83
431211	4648818	Japan's first man in space was a journalist.	japan's first man in space was a jounalist.	220768074	1477939422256	1477939422386	t	84
431211	4648818	Japan's first man in space was a journalist.	japan's first man in space was a jounalist.	220768078	1477939422855	1477939422922	 	32
431211	4648818	Japan's first man in space was a journalist.	japan's first man in space was a jounalist.	220768080	1477939423628	1477939423736	m	77
431211	4648818	Japan's first man in space was a journalist.	japan's first man in space was a jounalist.	220768082	1477939423752	1477939423885	a	65
431211	4648818	Japan's first man in space was a journalist.	japan's first man in space was a jounalist.	220768205	1477939423901	1477939423988	n	78
431211	4648818	Japan's first man in space was a journalist.	japan's first man in space was a jounalist.	220768206	1477939424004	1477939424088	 	32
431211	4648818	Japan's first man in space was a journalist.	japan's first man in space was a jounalist.	220768207	1477939424654	1477939424770	i	73
431211	4648818	Japan's first man in space was a journalist.	japan's first man in space was a jounalist.	220768208	1477939425474	1477939425572	s	83
431211	4648818	Japan's first man in space was a journalist.	japan's first man in space was a jounalist.	220768209	1477939425821	1477939425937	BKSP	8
431211	4648818	Japan's first man in space was a journalist.	japan's first man in space was a jounalist.	220768210	1477939426374	1477939426550	n	78
431211	4648818	Japan's first man in space was a journalist.	japan's first man in space was a jounalist.	220768276	1477939426519	1477939426574	 	32
431211	4648818	Japan's first man in space was a journalist.	japan's first man in space was a jounalist.	220768282	1477939427139	1477939427285	s	83
431211	4648818	Japan's first man in space was a journalist.	japan's first man in space was a jounalist.	220768287	1477939427285	1477939427357	p	80
431211	4648818	Japan's first man in space was a journalist.	japan's first man in space was a jounalist.	220768291	1477939427450	1477939427618	a	65
431211	4648818	Japan's first man in space was a journalist.	japan's first man in space was a jounalist.	220768294	1477939427758	1477939427855	c	67
431211	4648818	Japan's first man in space was a journalist.	japan's first man in space was a jounalist.	220768357	1477939427820	1477939427921	e	69
431211	4648818	Japan's first man in space was a journalist.	japan's first man in space was a jounalist.	220768360	1477939427921	1477939427990	 	32
431211	4648818	Japan's first man in space was a journalist.	japan's first man in space was a jounalist.	220768365	1477939428572	1477939428670	w	87
431211	4648818	Japan's first man in space was a journalist.	japan's first man in space was a jounalist.	220768368	1477939428764	1477939428934	a	65
431211	4648818	Japan's first man in space was a journalist.	japan's first man in space was a jounalist.	220768373	1477939428903	1477939429005	s	83
431211	4648818	Japan's first man in space was a journalist.	japan's first man in space was a jounalist.	220768455	1477939428990	1477939429104	 	32
431211	4648818	Japan's first man in space was a journalist.	japan's first man in space was a jounalist.	220768461	1477939429182	1477939429288	a	65
431211	4648818	Japan's first man in space was a journalist.	japan's first man in space was a jounalist.	220768465	1477939429319	1477939429374	 	32
431211	4648818	Japan's first man in space was a journalist.	japan's first man in space was a jounalist.	220768470	1477939429956	1477939430040	j	74
431211	4648818	Japan's first man in space was a journalist.	japan's first man in space was a jounalist.	220768616	1477939430118	1477939430222	p	79
431211	4648818	Japan's first man in space was a journalist.	japan's first man in space was a jounalist.	220768620	1477939430207	1477939430337	u	85
431211	4648818	Japan's first man in space was a journalist.	japan's first man in space was a jounalist.	220768624	1477939431090	1477939431173	BKSP	8
431211	4648818	Japan's first man in space was a journalist.	japan's first man in space was a jounalist.	220768628	1477939431532	1477939431608	BKSP	8
431211	4648818	Japan's first man in space was a journalist.	japan's first man in space was a jounalist.	220768632	1477939432013	1477939432091	u	85
431211	4648818	Japan's first man in space was a journalist.	japan's first man in space was a jounalist.	220768634	1477939432672	1477939432774	n	78
431211	4648818	Japan's first man in space was a journalist.	japan's first man in space was a jounalist.	220768635	1477939432790	1477939432859	a	65
431211	4648818	Japan's first man in space was a journalist.	japan's first man in space was a jounalist.	220768636	1477939432874	1477939432958	l	76
431211	4648818	Japan's first man in space was a journalist.	japan's first man in space was a jounalist.	220768795	1477939435048	1477939435125	i	73
431211	4648818	Japan's first man in space was a journalist.	japan's first man in space was a jounalist.	220768796	1477939435156	1477939435241	s	83
431211	4648818	Japan's first man in space was a journalist.	japan's first man in space was a jounalist.	220768799	1477939435226	1477939435310	t	84
431211	4648818	Japan's first man in space was a journalist.	japan's first man in space was a jounalist.	220768803	1477939436093	1477939436161	.	190
431211	4648848	Let me know if you have further questions.	Let me know if you have further questions. 	220769007	1477939438379	1477939438444	f	70
431211	4648848	Let me know if you have further questions.	Let me know if you have further questions. 	220769009	1477939439165	1477939439243	BKSP	8
431211	4648848	Let me know if you have further questions.	Let me know if you have further questions. 	220769021	1477939439336	1477939439622	SHIFT	16
431211	4648848	Let me know if you have further questions.	Let me know if you have further questions. 	220769015	1477939439477	1477939439591	L	76
431211	4648848	Let me know if you have further questions.	Let me know if you have further questions. 	220769028	1477939439638	1477939439836	e	69
431211	4648848	Let me know if you have further questions.	Let me know if you have further questions. 	220769035	1477939439820	1477939439909	t	84
431211	4648848	Let me know if you have further questions.	Let me know if you have further questions. 	220769041	1477939439956	1477939440028	 	32
431211	4648848	Let me know if you have further questions.	Let me know if you have further questions. 	220769094	1477939440170	1477939440303	m	77
431211	4648848	Let me know if you have further questions.	Let me know if you have further questions. 	220769098	1477939440258	1477939440374	e	69
431211	4648848	Let me know if you have further questions.	Let me know if you have further questions. 	220769101	1477939440374	1477939440445	 	32
431211	4648848	Let me know if you have further questions.	Let me know if you have further questions. 	220769104	1477939440978	1477939441060	k	75
431211	4648848	Let me know if you have further questions.	Let me know if you have further questions. 	220769107	1477939441122	1477939441210	n	78
431211	4648848	Let me know if you have further questions.	Let me know if you have further questions. 	220769197	1477939441290	1477939441412	w	80
431211	4648848	Let me know if you have further questions.	Let me know if you have further questions. 	220769201	1477939441363	1477939441459	o	79
431211	4648848	Let me know if you have further questions.	Let me know if you have further questions. 	220769206	1477939441443	1477939441503	 	32
431211	4648848	Let me know if you have further questions.	Let me know if you have further questions. 	220769213	1477939441793	1477939441863	BKSP	8
431211	4648848	Let me know if you have further questions.	Let me know if you have further questions. 	220769219	1477939441916	1477939441995	BKSP	8
431211	4648848	Let me know if you have further questions.	Let me know if you have further questions. 	220769224	1477939442042	1477939442112	BKSP	8
431211	4648848	Let me know if you have further questions.	Let me know if you have further questions. 	220769231	1477939442158	1477939442213	BKSP	8
431211	4648848	Let me know if you have further questions.	Let me know if you have further questions. 	220769238	1477939442712	1477939442911	o	79
431211	4648848	Let me know if you have further questions.	Let me know if you have further questions. 	220769382	1477939442826	1477939442930	w	87
431211	4648848	Let me know if you have further questions.	Let me know if you have further questions. 	220769386	1477939442879	1477939442945	 	32
431211	4648848	Let me know if you have further questions.	Let me know if you have further questions. 	220769390	1477939444246	1477939444395	i	73
431211	4648848	Let me know if you have further questions.	Let me know if you have further questions. 	220769389	1477939444296	1477939444379	f	70
431211	4648848	Let me know if you have further questions.	Let me know if you have further questions. 	220769392	1477939444379	1477939444446	 	32
431211	4648848	Let me know if you have further questions.	Let me know if you have further questions. 	220769399	1477939445058	1477939445246	y	89
431211	4648848	Let me know if you have further questions.	Let me know if you have further questions. 	220769465	1477939445174	1477939445413	o	79
431211	4648848	Let me know if you have further questions.	Let me know if you have further questions. 	220769466	1477939445340	1477939445492	u	85
431211	4648848	Let me know if you have further questions.	Let me know if you have further questions. 	220769470	1477939445492	1477939445562	 	32
431211	4648848	Let me know if you have further questions.	Let me know if you have further questions. 	220769475	1477939446205	1477939446302	h	72
431211	4648848	Let me know if you have further questions.	Let me know if you have further questions. 	220769479	1477939446263	1477939446376	a	65
431211	4648848	Let me know if you have further questions.	Let me know if you have further questions. 	220769483	1477939446407	1477939446511	v	86
431211	4648848	Let me know if you have further questions.	Let me know if you have further questions. 	220770028	1477939446495	1477939446598	e	69
431211	4648848	Let me know if you have further questions.	Let me know if you have further questions. 	220770029	1477939446543	1477939446613	 	32
431211	4648848	Let me know if you have further questions.	Let me know if you have further questions. 	220770031	1477939453609	1477939453713	f	70
431211	4648848	Let me know if you have further questions.	Let me know if you have further questions. 	220770034	1477939453838	1477939453930	u	85
431211	4648848	Let me know if you have further questions.	Let me know if you have further questions. 	220770040	1477939454009	1477939454129	t	84
431211	4648848	Let me know if you have further questions.	Let me know if you have further questions. 	220770044	1477939454473	1477939454580	BKSP	8
431211	4648848	Let me know if you have further questions.	Let me know if you have further questions. 	220770048	1477939454595	1477939454682	r	82
431211	4648848	Let me know if you have further questions.	Let me know if you have further questions. 	220770116	1477939454808	1477939454865	t	84
431211	4648848	Let me know if you have further questions.	Let me know if you have further questions. 	220770119	1477939455130	1477939455199	h	72
431211	4648848	Let me know if you have further questions.	Let me know if you have further questions. 	220770122	1477939455780	1477939455935	e	69
431211	4648848	Let me know if you have further questions.	Let me know if you have further questions. 	220770127	1477939455880	1477939455997	r	82
431211	4648848	Let me know if you have further questions.	Let me know if you have further questions. 	220770130	1477939455997	1477939456112	 	32
431211	4648848	Let me know if you have further questions.	Let me know if you have further questions. 	220770185	1477939456411	1477939456497	q	81
431211	4648848	Let me know if you have further questions.	Let me know if you have further questions. 	220770186	1477939456606	1477939456714	u	85
431211	4648848	Let me know if you have further questions.	Let me know if you have further questions. 	220770189	1477939456730	1477939456845	e	69
431211	4648848	Let me know if you have further questions.	Let me know if you have further questions. 	220770192	1477939456970	1477939457081	s	83
431211	4648848	Let me know if you have further questions.	Let me know if you have further questions. 	220770220	1477939457081	1477939457150	t	84
431211	4648848	Let me know if you have further questions.	Let me know if you have further questions. 	220770222	1477939457368	1477939457502	i	73
431211	4648848	Let me know if you have further questions.	Let me know if you have further questions. 	220770226	1477939457465	1477939457580	o	79
431211	4648848	Let me know if you have further questions.	Let me know if you have further questions. 	220770232	1477939457705	1477939457799	n	78
431211	4648848	Let me know if you have further questions.	Let me know if you have further questions. 	220770237	1477939457799	1477939457867	s	83
431211	4648848	Let me know if you have further questions.	Let me know if you have further questions. 	220770268	1477939457851	1477939457980	.	190
431211	4648848	Let me know if you have further questions.	Let me know if you have further questions. 	220770271	1477939457998	1477939458038	 	32
431211	4648878	Where are they hitting the books at?	Where ar e they hitting the books at?	220770562	1477939462268	1477939462680	SHIFT	16
431211	4648878	Where are they hitting the books at?	Where ar e they hitting the books at?	220770567	1477939462549	1477939462712	W	87
431211	4648878	Where are they hitting the books at?	Where ar e they hitting the books at?	220770572	1477939462774	1477939462866	h	72
431211	4648878	Where are they hitting the books at?	Where ar e they hitting the books at?	220770578	1477939462944	1477939463094	e	69
431211	4648878	Where are they hitting the books at?	Where ar e they hitting the books at?	220770582	1477939463049	1477939463207	r	82
431211	4648878	Where are they hitting the books at?	Where ar e they hitting the books at?	220770602	1477939463165	1477939463298	e	69
431211	4648878	Where are they hitting the books at?	Where ar e they hitting the books at?	220770605	1477939463282	1477939463399	 	32
431211	4648878	Where are they hitting the books at?	Where ar e they hitting the books at?	220770607	1477939463555	1477939463681	a	65
431211	4648878	Where are they hitting the books at?	Where ar e they hitting the books at?	220770609	1477939463806	1477939463933	 	82
431211	4648878	Where are they hitting the books at?	Where ar e they hitting the books at?	220770632	1477939463917	1477939464065	e	69
431211	4648878	Where are they hitting the books at?	Where ar e they hitting the books at?	220770637	1477939464080	1477939464184	 	32
431211	4648878	Where are they hitting the books at?	Where ar e they hitting the books at?	220770642	1477939464293	1477939464373	t	84
431211	4648878	Where are they hitting the books at?	Where ar e they hitting the books at?	220770650	1477939464435	1477939464542	h	72
431211	4648878	Where are they hitting the books at?	Where ar e they hitting the books at?	220770654	1477939464502	1477939464585	e	69
431211	4648878	Where are they hitting the books at?	Where ar e they hitting the books at?	220770707	1477939464569	1477939464684	y	89
431211	4648878	Where are they hitting the books at?	Where ar e they hitting the books at?	220770710	1477939464715	1477939464786	 	32
431211	4648878	Where are they hitting the books at?	Where ar e they hitting the books at?	220770715	1477939464960	1477939465035	h	72
431211	4648878	Where are they hitting the books at?	Where ar e they hitting the books at?	220770717	1477939465238	1477939465317	i	73
431211	4648878	Where are they hitting the books at?	Where ar e they hitting the books at?	220770718	1477939465504	1477939465585	t	84
431211	4648878	Where are they hitting the books at?	Where ar e they hitting the books at?	220770719	1477939465632	1477939465749	t	84
431211	4648878	Where are they hitting the books at?	Where ar e they hitting the books at?	220770727	1477939465734	1477939465849	i	73
431211	4648878	Where are they hitting the books at?	Where ar e they hitting the books at?	220770729	1477939465881	1477939466026	n	78
431211	4648878	Where are they hitting the books at?	Where ar e they hitting the books at?	220770732	1477939465927	1477939466057	g	71
431211	4648878	Where are they hitting the books at?	Where ar e they hitting the books at?	220770737	1477939466041	1477939466152	 	32
431211	4648878	Where are they hitting the books at?	Where ar e they hitting the books at?	220770741	1477939466230	1477939466318	t	84
431211	4648878	Where are they hitting the books at?	Where ar e they hitting the books at?	220770744	1477939466396	1477939466460	h	71
431211	4648878	Where are they hitting the books at?	Where ar e they hitting the books at?	220770879	1477939466460	1477939466536	e	69
431211	4648878	Where are they hitting the books at?	Where ar e they hitting the books at?	220770880	1477939466552	1477939466599	 	32
431211	4648878	Where are they hitting the books at?	Where ar e they hitting the books at?	220770881	1477939466949	1477939467036	=	187
431211	4648878	Where are they hitting the books at?	Where ar e they hitting the books at?	220770882	1477939467301	1477939467366	BKSP	8
431211	4648878	Where are they hitting the books at?	Where ar e they hitting the books at?	220770884	1477939467433	1477939467519	BKSP	8
431211	4648878	Where are they hitting the books at?	Where ar e they hitting the books at?	220770886	1477939467581	1477939467653	BKSP	8
431211	4648878	Where are they hitting the books at?	Where ar e they hitting the books at?	220770890	1477939467715	1477939467771	BKSP	8
431211	4648878	Where are they hitting the books at?	Where ar e they hitting the books at?	220770895	1477939468099	1477939468186	BKSP	8
431211	4648878	Where are they hitting the books at?	Where ar e they hitting the books at?	220770994	1477939468719	1477939468852	h	72
431211	4648878	Where are they hitting the books at?	Where ar e they hitting the books at?	220770900	1477939468766	1477939468852	e	69
431211	4648878	Where are they hitting the books at?	Where ar e they hitting the books at?	220770999	1477939468837	1477939468894	 	32
431211	4648878	Where are they hitting the books at?	Where ar e they hitting the books at?	220771005	1477939469485	1477939469538	b	66
431211	4648878	Where are they hitting the books at?	Where ar e they hitting the books at?	220771013	1477939469819	1477939469886	o	79
431211	4648878	Where are they hitting the books at?	Where ar e they hitting the books at?	220771017	1477939469933	1477939469987	o	79
431211	4648878	Where are they hitting the books at?	Where ar e they hitting the books at?	220771024	1477939470065	1477939470168	k	75
431211	4648878	Where are they hitting the books at?	Where ar e they hitting the books at?	220771130	1477939470153	1477939470238	s	83
431211	4648878	Where are they hitting the books at?	Where ar e they hitting the books at?	220771122	1477939470190	1477939470230	 	32
431211	4648878	Where are they hitting the books at?	Where ar e they hitting the books at?	220771136	1477939470766	1477939470886	a	65
431211	4648878	Where are they hitting the books at?	Where ar e they hitting the books at?	220771141	1477939470837	1477939470903	t	84
431211	4648878	Where are they hitting the books at?	Where ar e they hitting the books at?	220771145	1477939471608	1477939471727	SHIFT	16
431211	4648895	It's not working very well.	It's not working very well.	220771296	1477939474281	1477939474552	SHIFT	16
431211	4648895	It's not working very well.	It's not working very well.	220771299	1477939474421	1477939474552	I	73
431211	4648895	It's not working very well.	It's not working very well.	220771305	1477939474708	1477939474789	t	84
431211	4648895	It's not working very well.	It's not working very well.	220771309	1477939475163	1477939475270	'	222
431211	4648895	It's not working very well.	It's not working very well.	220771313	1477939475239	1477939475305	s	83
431211	4648895	It's not working very well.	It's not working very well.	220771349	1477939475289	1477939475356	 	32
431211	4648895	It's not working very well.	It's not working very well.	220771351	1477939475810	1477939475871	n	66
431211	4648895	It's not working very well.	It's not working very well.	220771358	1477939476293	1477939476420	t	79
431211	4648895	It's not working very well.	It's not working very well.	220771524	1477939476404	1477939476473	 	32
431211	4648895	It's not working very well.	It's not working very well.	220771528	1477939477068	1477939477139	BKSP	8
431211	4648895	It's not working very well.	It's not working very well.	220771532	1477939477202	1477939477272	BKSP	8
431211	4648895	It's not working very well.	It's not working very well.	220771535	1477939477288	1477939477373	BKSP	8
431211	4648895	It's not working very well.	It's not working very well.	220771537	1477939477435	1477939477506	BKSP	8
431211	4648895	It's not working very well.	It's not working very well.	220771539	1477939477553	1477939477623	BKSP	8
431211	4648895	It's not working very well.	It's not working very well.	220771542	1477939478029	1477939478100	n	78
431211	4648895	It's not working very well.	It's not working very well.	220771550	1477939478256	1477939478423	o	79
431211	4648895	It's not working very well.	It's not working very well.	220771553	1477939478355	1477939478454	t	84
431211	4648895	It's not working very well.	It's not working very well.	220771558	1477939478485	1477939478556	 	32
431211	4648895	It's not working very well.	It's not working very well.	220771563	1477939478743	1477939478873	w	87
431211	4648895	It's not working very well.	It's not working very well.	220771588	1477939478823	1477939478998	o	79
431211	4648895	It's not working very well.	It's not working very well.	220771591	1477939479294	1477939479372	r	82
431211	4648895	It's not working very well.	It's not working very well.	220771595	1477939479512	1477939479606	k	75
431211	4648895	It's not working very well.	It's not working very well.	220771598	1477939479652	1477939479739	i	73
431211	4648895	It's not working very well.	It's not working very well.	220771605	1477939479848	1477939479998	n	78
431211	4648895	It's not working very well.	It's not working very well.	220771689	1477939479939	1477939480040	g	71
431211	4648895	It's not working very well.	It's not working very well.	220771687	1477939479982	1477939480024	 	32
431211	4648895	It's not working very well.	It's not working very well.	220771691	1477939481294	1477939481372	v	86
431211	4648895	It's not working very well.	It's not working very well.	220771693	1477939481404	1477939481558	e	69
431211	4648895	It's not working very well.	It's not working very well.	220771696	1477939481489	1477939481636	r	82
431211	4648895	It's not working very well.	It's not working very well.	220771700	1477939481652	1477939481785	y	89
431211	4648895	It's not working very well.	It's not working very well.	220771704	1477939481800	1477939481858	 	32
431211	4648895	It's not working very well.	It's not working very well.	220771778	1477939482642	1477939482842	w	87
431211	4648895	It's not working very well.	It's not working very well.	220771781	1477939482786	1477939482967	e	69
431211	4648895	It's not working very well.	It's not working very well.	220771785	1477939483060	1477939483125	l	76
431211	4648895	It's not working very well.	It's not working very well.	220771789	1477939483172	1477939483241	l	76
431211	4648895	It's not working very well.	It's not working very well.	220771846	1477939483366	1477939483456	,	190
431211	4648895	It's not working very well.	It's not working very well.	220771851	1477939484131	1477939484192	BKSP	8
