PARTICIPANT_ID	TEST_SECTION_ID	SENTENCE	USER_INPUT	KEYSTROKE_ID	PRESS_TIME	RELEASE_TIME	LETTER	KEYCODE
432256	4660114	I met my neighbors in the park across the street tonight.	I met my neighbors in the park across the street tonight.	221295903	1477951009748	1477951009780	CAPS_LOCK	20
432256	4660114	I met my neighbors in the park across the street tonight.	I met my neighbors in the park across the street tonight.	221295904	1477951010046	1477951010158	I	73
432256	4660114	I met my neighbors in the park across the street tonight.	I met my neighbors in the park across the street tonight.	221295906	1477951010261	1477951010369	CAPS_LOCK	20
432256	4660114	I met my neighbors in the park across the street tonight.	I met my neighbors in the park across the street tonight.	221295908	1477951010413	1477951010552	m	77
432256	4660114	I met my neighbors in the park across the street tonight.	I met my neighbors in the park across the street tonight.	221295910	1477951011098	1477951011236	e	69
432256	4660114	I met my neighbors in the park across the street tonight.	I met my neighbors in the park across the street tonight.	221295912	1477951011310	1477951011416	t	84
432256	4660114	I met my neighbors in the park across the street tonight.	I met my neighbors in the park across the street tonight.	221295914	1477951011423	1477951011529	 	32
432256	4660114	I met my neighbors in the park across the street tonight.	I met my neighbors in the park across the street tonight.	221295959	1477951012159	1477951012263	m	77
432256	4660114	I met my neighbors in the park across the street tonight.	I met my neighbors in the park across the street tonight.	221295960	1477951012432	1477951012508	y	89
432256	4660114	I met my neighbors in the park across the street tonight.	I met my neighbors in the park across the street tonight.	221295961	1477951012627	1477951012734	 	32
432256	4660114	I met my neighbors in the park across the street tonight.	I met my neighbors in the park across the street tonight.	221295962	1477951013023	1477951013091	BKSP	8
432256	4660114	I met my neighbors in the park across the street tonight.	I met my neighbors in the park across the street tonight.	221295963	1477951013169	1477951013244	BKSP	8
432256	4660114	I met my neighbors in the park across the street tonight.	I met my neighbors in the park across the street tonight.	221295964	1477951013318	1477951013389	BKSP	8
432256	4660114	I met my neighbors in the park across the street tonight.	I met my neighbors in the park across the street tonight.	221295965	1477951013463	1477951013529	BKSP	8
432256	4660114	I met my neighbors in the park across the street tonight.	I met my neighbors in the park across the street tonight.	221295968	1477951013612	1477951013682	BKSP	8
432256	4660114	I met my neighbors in the park across the street tonight.	I met my neighbors in the park across the street tonight.	221295972	1477951013764	1477951013834	BKSP	8
432256	4660114	I met my neighbors in the park across the street tonight.	I met my neighbors in the park across the street tonight.	221295978	1477951013906	1477951013975	BKSP	8
432256	4660114	I met my neighbors in the park across the street tonight.	I met my neighbors in the park across the street tonight.	221295984	1477951014253	1477951014357	 	32
432256	4660114	I met my neighbors in the park across the street tonight.	I met my neighbors in the park across the street tonight.	221295989	1477951014516	1477951014620	m	77
432256	4660114	I met my neighbors in the park across the street tonight.	I met my neighbors in the park across the street tonight.	221296012	1477951014794	1477951014866	w	87
432256	4660114	I met my neighbors in the park across the street tonight.	I met my neighbors in the park across the street tonight.	221296013	1477951015266	1477951015369	BKSP	8
432256	4660114	I met my neighbors in the park across the street tonight.	I met my neighbors in the park across the street tonight.	221296014	1477951015524	1477951015593	e	69
432256	4660114	I met my neighbors in the park across the street tonight.	I met my neighbors in the park across the street tonight.	221296015	1477951015719	1477951015823	t	84
432256	4660114	I met my neighbors in the park across the street tonight.	I met my neighbors in the park across the street tonight.	221296016	1477951015843	1477951015958	 	32
432256	4660114	I met my neighbors in the park across the street tonight.	I met my neighbors in the park across the street tonight.	221296018	1477951016308	1477951016424	m	77
432256	4660114	I met my neighbors in the park across the street tonight.	I met my neighbors in the park across the street tonight.	221296067	1477951016543	1477951016658	y	89
432256	4660114	I met my neighbors in the park across the street tonight.	I met my neighbors in the park across the street tonight.	221296070	1477951016687	1477951016798	 	32
432256	4660114	I met my neighbors in the park across the street tonight.	I met my neighbors in the park across the street tonight.	221296074	1477951016896	1477951016964	n	78
432256	4660114	I met my neighbors in the park across the street tonight.	I met my neighbors in the park across the street tonight.	221296078	1477951017965	1477951018070	e	69
432256	4660114	I met my neighbors in the park across the street tonight.	I met my neighbors in the park across the street tonight.	221296083	1477951018395	1477951018500	i	73
432256	4660114	I met my neighbors in the park across the street tonight.	I met my neighbors in the park across the street tonight.	221296105	1477951019502	1477951019605	g	71
432256	4660114	I met my neighbors in the park across the street tonight.	I met my neighbors in the park across the street tonight.	221296107	1477951019667	1477951019734	h	72
432256	4660114	I met my neighbors in the park across the street tonight.	I met my neighbors in the park across the street tonight.	221296109	1477951019861	1477951019930	b	66
432256	4660114	I met my neighbors in the park across the street tonight.	I met my neighbors in the park across the street tonight.	221296112	1477951020277	1477951020383	o	79
432256	4660114	I met my neighbors in the park across the street tonight.	I met my neighbors in the park across the street tonight.	221296115	1477951020414	1477951020520	r	82
432256	4660114	I met my neighbors in the park across the street tonight.	I met my neighbors in the park across the street tonight.	221296151	1477951020644	1477951020785	s	83
432256	4660114	I met my neighbors in the park across the street tonight.	I met my neighbors in the park across the street tonight.	221296153	1477951020803	1477951020907	 	32
432256	4660114	I met my neighbors in the park across the street tonight.	I met my neighbors in the park across the street tonight.	221296155	1477951021562	1477951021634	i	73
432256	4660114	I met my neighbors in the park across the street tonight.	I met my neighbors in the park across the street tonight.	221296157	1477951021754	1477951021860	n	78
432256	4660114	I met my neighbors in the park across the street tonight.	I met my neighbors in the park across the street tonight.	221296159	1477951021933	1477951022042	 	32
432256	4660114	I met my neighbors in the park across the street tonight.	I met my neighbors in the park across the street tonight.	221296181	1477951022047	1477951022109	t	84
432256	4660114	I met my neighbors in the park across the street tonight.	I met my neighbors in the park across the street tonight.	221296182	1477951022227	1477951022367	h	72
432256	4660114	I met my neighbors in the park across the street tonight.	I met my neighbors in the park across the street tonight.	221296183	1477951022378	1477951022516	e	69
432256	4660114	I met my neighbors in the park across the street tonight.	I met my neighbors in the park across the street tonight.	221296184	1477951022482	1477951022586	 	32
432256	4660114	I met my neighbors in the park across the street tonight.	I met my neighbors in the park across the street tonight.	221296185	1477951023119	1477951023224	p	80
432256	4660114	I met my neighbors in the park across the street tonight.	I met my neighbors in the park across the street tonight.	221296207	1477951023228	1477951023328	a	65
432256	4660114	I met my neighbors in the park across the street tonight.	I met my neighbors in the park across the street tonight.	221296209	1477951023436	1477951023540	r	82
432256	4660114	I met my neighbors in the park across the street tonight.	I met my neighbors in the park across the street tonight.	221296212	1477951023579	1477951023684	k	75
432256	4660114	I met my neighbors in the park across the street tonight.	I met my neighbors in the park across the street tonight.	221296215	1477951023786	1477951023891	 	32
432256	4660114	I met my neighbors in the park across the street tonight.	I met my neighbors in the park across the street tonight.	221296218	1477951024450	1477951024556	a	65
432256	4660114	I met my neighbors in the park across the street tonight.	I met my neighbors in the park across the street tonight.	221296235	1477951024648	1477951024751	c	67
432256	4660114	I met my neighbors in the park across the street tonight.	I met my neighbors in the park across the street tonight.	221296237	1477951024836	1477951024939	r	82
432256	4660114	I met my neighbors in the park across the street tonight.	I met my neighbors in the park across the street tonight.	221296239	1477951025064	1477951025134	o	79
432256	4660114	I met my neighbors in the park across the street tonight.	I met my neighbors in the park across the street tonight.	221296241	1477951025201	1477951025271	s	83
432256	4660114	I met my neighbors in the park across the street tonight.	I met my neighbors in the park across the street tonight.	221296243	1477951025361	1477951025431	s	83
432256	4660114	I met my neighbors in the park across the street tonight.	I met my neighbors in the park across the street tonight.	221296246	1477951025484	1477951025586	 	32
432256	4660114	I met my neighbors in the park across the street tonight.	I met my neighbors in the park across the street tonight.	221296249	1477951025898	1477951026043	t	84
432256	4660114	I met my neighbors in the park across the street tonight.	I met my neighbors in the park across the street tonight.	221296253	1477951026062	1477951026174	h	72
432256	4660114	I met my neighbors in the park across the street tonight.	I met my neighbors in the park across the street tonight.	221296256	1477951026176	1477951026291	e	69
432256	4660114	I met my neighbors in the park across the street tonight.	I met my neighbors in the park across the street tonight.	221296259	1477951026299	1477951026377	 	32
432256	4660114	I met my neighbors in the park across the street tonight.	I met my neighbors in the park across the street tonight.	221296279	1477951026383	1477951026463	w	87
432256	4660114	I met my neighbors in the park across the street tonight.	I met my neighbors in the park across the street tonight.	221296281	1477951026977	1477951027085	BKSP	8
432256	4660114	I met my neighbors in the park across the street tonight.	I met my neighbors in the park across the street tonight.	221296283	1477951027528	1477951027623	s	83
432256	4660114	I met my neighbors in the park across the street tonight.	I met my neighbors in the park across the street tonight.	221296285	1477951027751	1477951027857	t	84
432256	4660114	I met my neighbors in the park across the street tonight.	I met my neighbors in the park across the street tonight.	221296286	1477951027944	1477951028049	r	82
432256	4660114	I met my neighbors in the park across the street tonight.	I met my neighbors in the park across the street tonight.	221296287	1477951028258	1477951028291	e	69
432256	4660114	I met my neighbors in the park across the street tonight.	I met my neighbors in the park across the street tonight.	221296321	1477951028720	1477951028827	e	69
432256	4660114	I met my neighbors in the park across the street tonight.	I met my neighbors in the park across the street tonight.	221296325	1477951028931	1477951029037	t	84
432256	4660114	I met my neighbors in the park across the street tonight.	I met my neighbors in the park across the street tonight.	221296328	1477951029346	1477951029417	 	32
432256	4660114	I met my neighbors in the park across the street tonight.	I met my neighbors in the park across the street tonight.	221296331	1477951029911	1477951030014	t	84
432256	4660114	I met my neighbors in the park across the street tonight.	I met my neighbors in the park across the street tonight.	221296333	1477951030066	1477951030136	o	79
432256	4660114	I met my neighbors in the park across the street tonight.	I met my neighbors in the park across the street tonight.	221296334	1477951030299	1477951030368	n	78
432256	4660114	I met my neighbors in the park across the street tonight.	I met my neighbors in the park across the street tonight.	221296335	1477951030561	1477951030663	i	73
432256	4660114	I met my neighbors in the park across the street tonight.	I met my neighbors in the park across the street tonight.	221296336	1477951030768	1477951030874	g	71
432256	4660114	I met my neighbors in the park across the street tonight.	I met my neighbors in the park across the street tonight.	221296337	1477951030902	1477951031007	h	72
432256	4660114	I met my neighbors in the park across the street tonight.	I met my neighbors in the park across the street tonight.	221296338	1477951031011	1477951031112	t	84
432256	4660114	I met my neighbors in the park across the street tonight.	I met my neighbors in the park across the street tonight.	221296420	1477951031381	1477951031452	.	190
432256	4660130	Weinke could have a big game.	Weinke could have a big game.	221296581	1477951038859	1477951039001	CAPS_LOCK	20
432256	4660130	Weinke could have a big game.	Weinke could have a big game.	221296584	1477951039127	1477951039232	W	87
432256	4660130	Weinke could have a big game.	Weinke could have a big game.	221296588	1477951039332	1477951039436	CAPS_LOCK	20
432256	4660130	Weinke could have a big game.	Weinke could have a big game.	221296590	1477951039875	1477951039979	e	69
432256	4660130	Weinke could have a big game.	Weinke could have a big game.	221296591	1477951040441	1477951040545	i	73
432256	4660130	Weinke could have a big game.	Weinke could have a big game.	221296592	1477951040638	1477951040709	n	78
432256	4660130	Weinke could have a big game.	Weinke could have a big game.	221296593	1477951040836	1477951040940	k	75
432256	4660130	Weinke could have a big game.	Weinke could have a big game.	221296640	1477951040983	1477951041088	e	69
432256	4660130	Weinke could have a big game.	Weinke could have a big game.	221296642	1477951041093	1477951041199	 	32
432256	4660130	Weinke could have a big game.	Weinke could have a big game.	221296644	1477951041850	1477951041956	c	67
432256	4660130	Weinke could have a big game.	Weinke could have a big game.	221296646	1477951042480	1477951042534	o	79
432256	4660130	Weinke could have a big game.	Weinke could have a big game.	221296648	1477951042645	1477951042714	u	85
432256	4660130	Weinke could have a big game.	Weinke could have a big game.	221296671	1477951042866	1477951042936	l	76
432256	4660130	Weinke could have a big game.	Weinke could have a big game.	221296673	1477951042989	1477951043097	d	68
432256	4660130	Weinke could have a big game.	Weinke could have a big game.	221296675	1477951043112	1477951043184	 	32
432256	4660130	Weinke could have a big game.	Weinke could have a big game.	221296677	1477951043951	1477951044090	h	72
432256	4660130	Weinke could have a big game.	Weinke could have a big game.	221296681	1477951044093	1477951044194	a	65
432256	4660130	Weinke could have a big game.	Weinke could have a big game.	221296697	1477951044243	1477951044361	v	86
432256	4660130	Weinke could have a big game.	Weinke could have a big game.	221296699	1477951044412	1477951044524	e	69
432256	4660130	Weinke could have a big game.	Weinke could have a big game.	221296700	1477951044531	1477951044632	 	32
432256	4660130	Weinke could have a big game.	Weinke could have a big game.	221296701	1477951044900	1477951045044	a	65
432256	4660130	Weinke could have a big game.	Weinke could have a big game.	221296702	1477951045051	1477951045112	 	32
432256	4660130	Weinke could have a big game.	Weinke could have a big game.	221296745	1477951045207	1477951045282	b	66
432256	4660130	Weinke could have a big game.	Weinke could have a big game.	221296747	1477951045586	1477951045656	i	73
432256	4660130	Weinke could have a big game.	Weinke could have a big game.	221296749	1477951045959	1477951046029	g	71
432256	4660130	Weinke could have a big game.	Weinke could have a big game.	221296751	1477951046152	1477951046227	 	32
432256	4660130	Weinke could have a big game.	Weinke could have a big game.	221296752	1477951046882	1477951046956	g	71
432256	4660130	Weinke could have a big game.	Weinke could have a big game.	221296777	1477951047053	1477951047192	a	65
432256	4660130	Weinke could have a big game.	Weinke could have a big game.	221296780	1477951047222	1477951047292	m	77
432256	4660130	Weinke could have a big game.	Weinke could have a big game.	221296784	1477951047363	1477951047470	e	69
432256	4660130	Weinke could have a big game.	Weinke could have a big game.	221296788	1477951047880	1477951047949	.	190
432256	4660141	Will call later to explain.	Will call later to explain.	221296907	1477951051097	1477951051200	CAPS_LOCK	20
432256	4660141	Will call later to explain.	Will call later to explain.	221296910	1477951051273	1477951051376	W	87
432256	4660141	Will call later to explain.	Will call later to explain.	221296912	1477951051471	1477951051575	CAPS_LOCK	20
432256	4660141	Will call later to explain.	Will call later to explain.	221296914	1477951051652	1477951051720	i	73
432256	4660141	Will call later to explain.	Will call later to explain.	221296916	1477951051887	1477951051958	l	76
432256	4660141	Will call later to explain.	Will call later to explain.	221296918	1477951052018	1477951052086	l	76
432256	4660141	Will call later to explain.	Will call later to explain.	221296921	1477951052210	1477951052278	 	32
432256	4660141	Will call later to explain.	Will call later to explain.	221296967	1477951052612	1477951052716	c	67
432256	4660141	Will call later to explain.	Will call later to explain.	221296969	1477951052823	1477951052928	a	65
432256	4660141	Will call later to explain.	Will call later to explain.	221296970	1477951052970	1477951053040	l	76
432256	4660141	Will call later to explain.	Will call later to explain.	221296973	1477951053122	1477951053193	l	76
432256	4660141	Will call later to explain.	Will call later to explain.	221296977	1477951053307	1477951053377	 	32
432256	4660141	Will call later to explain.	Will call later to explain.	221297045	1477951053719	1477951053826	l	76
432256	4660141	Will call later to explain.	Will call later to explain.	221297046	1477951054006	1477951054076	s	83
432256	4660141	Will call later to explain.	Will call later to explain.	221297047	1477951054496	1477951054600	BKSP	8
432256	4660141	Will call later to explain.	Will call later to explain.	221297048	1477951054664	1477951054770	a	65
432256	4660141	Will call later to explain.	Will call later to explain.	221297049	1477951055324	1477951055394	t	84
432256	4660141	Will call later to explain.	Will call later to explain.	221297050	1477951055582	1477951055615	e	69
432256	4660141	Will call later to explain.	Will call later to explain.	221297195	1477951055622	1477951055655	e	69
432256	4660141	Will call later to explain.	Will call later to explain.	221297198	1477951055776	1477951055812	r	82
432256	4660141	Will call later to explain.	Will call later to explain.	221297202	1477951056702	1477951056773	BKSP	8
432256	4660141	Will call later to explain.	Will call later to explain.	221297206	1477951056855	1477951056926	BKSP	8
432256	4660141	Will call later to explain.	Will call later to explain.	221297208	1477951057018	1477951057054	BKSP	8
432256	4660141	Will call later to explain.	Will call later to explain.	221297209	1477951058320	1477951058426	e	69
432256	4660141	Will call later to explain.	Will call later to explain.	221297210	1477951058507	1477951058578	r	82
432256	4660141	Will call later to explain.	Will call later to explain.	221297212	1477951059206	1477951059277	 	32
432256	4660141	Will call later to explain.	Will call later to explain.	221297253	1477951059646	1477951059750	t	84
432256	4660141	Will call later to explain.	Will call later to explain.	221297256	1477951059793	1477951059864	o	79
432256	4660141	Will call later to explain.	Will call later to explain.	221297258	1477951059988	1477951060059	 	32
432256	4660141	Will call later to explain.	Will call later to explain.	221297261	1477951060151	1477951060254	e	69
432256	4660141	Will call later to explain.	Will call later to explain.	221297264	1477951060697	1477951060801	x	88
432256	4660141	Will call later to explain.	Will call later to explain.	221297283	1477951060882	1477951060950	p	80
432256	4660141	Will call later to explain.	Will call later to explain.	221297285	1477951061073	1477951061142	l	76
432256	4660141	Will call later to explain.	Will call later to explain.	221297288	1477951061181	1477951061286	a	65
432256	4660141	Will call later to explain.	Will call later to explain.	221297292	1477951061318	1477951061423	i	73
432256	4660141	Will call later to explain.	Will call later to explain.	221297295	1477951061487	1477951061591	n	78
432256	4660141	Will call later to explain.	Will call later to explain.	221297394	1477951062407	1477951062478	.	190
432256	4660150	I meant to try and explain, not to redo.	I meant to try and explain, not to redo.	221297527	1477951066569	1477951066709	CAPS_LOCK	20
432256	4660150	I meant to try and explain, not to redo.	I meant to try and explain, not to redo.	221297532	1477951066732	1477951066838	I	73
432256	4660150	I meant to try and explain, not to redo.	I meant to try and explain, not to redo.	221297537	1477951066850	1477951066956	CAPS_LOCK	20
432256	4660150	I meant to try and explain, not to redo.	I meant to try and explain, not to redo.	221297542	1477951067062	1477951067167	 	32
432256	4660150	I meant to try and explain, not to redo.	I meant to try and explain, not to redo.	221297547	1477951067484	1477951067588	m	77
432256	4660150	I meant to try and explain, not to redo.	I meant to try and explain, not to redo.	221297552	1477951067632	1477951067701	e	69
432256	4660150	I meant to try and explain, not to redo.	I meant to try and explain, not to redo.	221297555	1477951067820	1477951067925	a	65
432256	4660150	I meant to try and explain, not to redo.	I meant to try and explain, not to redo.	221297584	1477951067970	1477951068109	n	78
432256	4660150	I meant to try and explain, not to redo.	I meant to try and explain, not to redo.	221297587	1477951068133	1477951068239	t	84
432256	4660150	I meant to try and explain, not to redo.	I meant to try and explain, not to redo.	221297592	1477951068250	1477951068355	 	32
432256	4660150	I meant to try and explain, not to redo.	I meant to try and explain, not to redo.	221297597	1477951069020	1477951069128	t	84
432256	4660150	I meant to try and explain, not to redo.	I meant to try and explain, not to redo.	221297602	1477951069141	1477951069250	o	79
432256	4660150	I meant to try and explain, not to redo.	I meant to try and explain, not to redo.	221297655	1477951069334	1477951069447	 	32
432256	4660150	I meant to try and explain, not to redo.	I meant to try and explain, not to redo.	221297657	1477951069455	1477951069512	t	84
432256	4660150	I meant to try and explain, not to redo.	I meant to try and explain, not to redo.	221297660	1477951069731	1477951069813	r	82
432256	4660150	I meant to try and explain, not to redo.	I meant to try and explain, not to redo.	221297663	1477951069767	1477951069827	e	69
432256	4660150	I meant to try and explain, not to redo.	I meant to try and explain, not to redo.	221297666	1477951070257	1477951070363	BKSP	8
432256	4660150	I meant to try and explain, not to redo.	I meant to try and explain, not to redo.	221297669	1477951071056	1477951071160	y	89
432256	4660150	I meant to try and explain, not to redo.	I meant to try and explain, not to redo.	221297714	1477951071198	1477951071304	 	32
432256	4660150	I meant to try and explain, not to redo.	I meant to try and explain, not to redo.	221297716	1477951071715	1477951071856	a	65
432256	4660150	I meant to try and explain, not to redo.	I meant to try and explain, not to redo.	221297720	1477951071903	1477951072007	n	78
432256	4660150	I meant to try and explain, not to redo.	I meant to try and explain, not to redo.	221297724	1477951072028	1477951072135	d	68
432256	4660150	I meant to try and explain, not to redo.	I meant to try and explain, not to redo.	221297727	1477951072138	1477951072239	 	32
432256	4660150	I meant to try and explain, not to redo.	I meant to try and explain, not to redo.	221297787	1477951072301	1477951072407	e	69
432256	4660150	I meant to try and explain, not to redo.	I meant to try and explain, not to redo.	221297789	1477951072907	1477951073013	x	88
432256	4660150	I meant to try and explain, not to redo.	I meant to try and explain, not to redo.	221297793	1477951073102	1477951073173	p	80
432256	4660150	I meant to try and explain, not to redo.	I meant to try and explain, not to redo.	221297797	1477951073683	1477951073752	l	76
432256	4660150	I meant to try and explain, not to redo.	I meant to try and explain, not to redo.	221297800	1477951073820	1477951073923	a	65
432256	4660150	I meant to try and explain, not to redo.	I meant to try and explain, not to redo.	221297881	1477951073949	1477951074053	i	73
432256	4660150	I meant to try and explain, not to redo.	I meant to try and explain, not to redo.	221297882	1477951074122	1477951074225	n	78
432256	4660150	I meant to try and explain, not to redo.	I meant to try and explain, not to redo.	221297883	1477951074993	1477951075096	 	32
432256	4660150	I meant to try and explain, not to redo.	I meant to try and explain, not to redo.	221297884	1477951075519	1477951075589	BKSP	8
432256	4660150	I meant to try and explain, not to redo.	I meant to try and explain, not to redo.	221297885	1477951076138	1477951076206	,	188
432256	4660150	I meant to try and explain, not to redo.	I meant to try and explain, not to redo.	221297886	1477951076480	1477951076549	 	32
432256	4660150	I meant to try and explain, not to redo.	I meant to try and explain, not to redo.	221297922	1477951076876	1477951076944	n	78
432256	4660150	I meant to try and explain, not to redo.	I meant to try and explain, not to redo.	221297924	1477951077339	1477951077444	o	79
432256	4660150	I meant to try and explain, not to redo.	I meant to try and explain, not to redo.	221297926	1477951077467	1477951077574	t	84
432256	4660150	I meant to try and explain, not to redo.	I meant to try and explain, not to redo.	221297928	1477951077576	1477951077679	 	32
432256	4660150	I meant to try and explain, not to redo.	I meant to try and explain, not to redo.	221297931	1477951077801	1477951077905	t	84
432256	4660150	I meant to try and explain, not to redo.	I meant to try and explain, not to redo.	221297973	1477951077988	1477951078092	o	79
432256	4660150	I meant to try and explain, not to redo.	I meant to try and explain, not to redo.	221297979	1477951078257	1477951078327	 	32
432256	4660150	I meant to try and explain, not to redo.	I meant to try and explain, not to redo.	221297983	1477951078738	1477951078808	r	82
432256	4660150	I meant to try and explain, not to redo.	I meant to try and explain, not to redo.	221297985	1477951079082	1477951079152	e	69
432256	4660150	I meant to try and explain, not to redo.	I meant to try and explain, not to redo.	221297988	1477951079346	1477951079416	d	68
432256	4660150	I meant to try and explain, not to redo.	I meant to try and explain, not to redo.	221298002	1477951079582	1477951079686	o	79
432256	4660150	I meant to try and explain, not to redo.	I meant to try and explain, not to redo.	221298003	1477951080324	1477951080394	.	190
432256	4660163	Have you talked to Somerholder?	Have you talked to Somerholder?	221298187	1477951082880	1477951083020	CAPS_LOCK	20
432256	4660163	Have you talked to Somerholder?	Have you talked to Somerholder?	221298190	1477951083024	1477951083125	H	72
432256	4660163	Have you talked to Somerholder?	Have you talked to Somerholder?	221298193	1477951083128	1477951083239	CAPS_LOCK	20
432256	4660163	Have you talked to Somerholder?	Have you talked to Somerholder?	221298197	1477951083265	1477951083374	v	86
432256	4660163	Have you talked to Somerholder?	Have you talked to Somerholder?	221298201	1477951083468	1477951083574	e	69
432256	4660163	Have you talked to Somerholder?	Have you talked to Somerholder?	221298205	1477951083593	1477951083709	 	32
432256	4660163	Have you talked to Somerholder?	Have you talked to Somerholder?	221298209	1477951084908	1477951085012	BKSP	8
432256	4660163	Have you talked to Somerholder?	Have you talked to Somerholder?	221298213	1477951085055	1477951085126	BKSP	8
432256	4660163	Have you talked to Somerholder?	Have you talked to Somerholder?	221298218	1477951085217	1477951085250	BKSP	8
432256	4660163	Have you talked to Somerholder?	Have you talked to Somerholder?	221298225	1477951086120	1477951086259	a	65
432256	4660163	Have you talked to Somerholder?	Have you talked to Somerholder?	221298282	1477951086420	1477951086528	v	86
432256	4660163	Have you talked to Somerholder?	Have you talked to Somerholder?	221298284	1477951086581	1477951086729	e	69
432256	4660163	Have you talked to Somerholder?	Have you talked to Somerholder?	221298287	1477951086691	1477951086766	 	32
432256	4660163	Have you talked to Somerholder?	Have you talked to Somerholder?	221298290	1477951087746	1477951087893	y	89
432256	4660163	Have you talked to Somerholder?	Have you talked to Somerholder?	221298293	1477951087902	1477951087995	o	79
432256	4660163	Have you talked to Somerholder?	Have you talked to Somerholder?	221298328	1477951088015	1477951088098	u	85
432256	4660163	Have you talked to Somerholder?	Have you talked to Somerholder?	221298330	1477951088142	1477951088247	 	32
432256	4660163	Have you talked to Somerholder?	Have you talked to Somerholder?	221298331	1477951088507	1477951088618	t	84
432256	4660163	Have you talked to Somerholder?	Have you talked to Somerholder?	221298417	1477951088832	1477951088942	a	65
432256	4660163	Have you talked to Somerholder?	Have you talked to Somerholder?	221298332	1477951088872	1477951088910	s	83
432256	4660163	Have you talked to Somerholder?	Have you talked to Somerholder?	221298418	1477951088962	1477951089071	l	76
432256	4660163	Have you talked to Somerholder?	Have you talked to Somerholder?	221298419	1477951089408	1477951089443	BKSP	8
432256	4660163	Have you talked to Somerholder?	Have you talked to Somerholder?	221298420	1477951089583	1477951089620	BKSP	8
432256	4660163	Have you talked to Somerholder?	Have you talked to Somerholder?	221298421	1477951090481	1477951090549	l	76
432256	4660163	Have you talked to Somerholder?	Have you talked to Somerholder?	221298422	1477951091005	1477951091108	k	75
432256	4660163	Have you talked to Somerholder?	Have you talked to Somerholder?	221298423	1477951091131	1477951091239	e	69
432256	4660163	Have you talked to Somerholder?	Have you talked to Somerholder?	221298424	1477951091316	1477951091422	d	68
432256	4660163	Have you talked to Somerholder?	Have you talked to Somerholder?	221298471	1477951091434	1477951091526	 	32
432256	4660163	Have you talked to Somerholder?	Have you talked to Somerholder?	221298472	1477951091989	1477951092093	t	84
432256	4660163	Have you talked to Somerholder?	Have you talked to Somerholder?	221298474	1477951092117	1477951092186	o	79
432256	4660163	Have you talked to Somerholder?	Have you talked to Somerholder?	221298478	1477951092339	1477951092410	 	32
432256	4660163	Have you talked to Somerholder?	Have you talked to Somerholder?	221298482	1477951092480	1477951092516	CAPS_LOCK	20
432256	4660163	Have you talked to Somerholder?	Have you talked to Somerholder?	221298486	1477951092843	1477951092910	S	83
432256	4660163	Have you talked to Somerholder?	Have you talked to Somerholder?	221298635	1477951093050	1477951093156	CAPS_LOCK	20
432256	4660163	Have you talked to Somerholder?	Have you talked to Somerholder?	221298638	1477951094279	1477951094418	BKSP	8
432256	4660163	Have you talked to Somerholder?	Have you talked to Somerholder?	221298642	1477951094652	1477951094758	CAPS_LOCK	20
432256	4660163	Have you talked to Somerholder?	Have you talked to Somerholder?	221298648	1477951094935	1477951095039	S	83
432256	4660163	Have you talked to Somerholder?	Have you talked to Somerholder?	221298654	1477951095217	1477951095321	CAPS_LOCK	20
432256	4660163	Have you talked to Somerholder?	Have you talked to Somerholder?	221298659	1477951095984	1477951096055	o	79
432256	4660163	Have you talked to Somerholder?	Have you talked to Somerholder?	221298663	1477951096196	1477951096302	m	77
432256	4660163	Have you talked to Somerholder?	Have you talked to Somerholder?	221298666	1477951096449	1477951096552	e	69
432256	4660163	Have you talked to Somerholder?	Have you talked to Somerholder?	221298669	1477951096637	1477951096743	r	82
432256	4660163	Have you talked to Somerholder?	Have you talked to Somerholder?	221298771	1477951097740	1477951097809	h	72
432256	4660163	Have you talked to Somerholder?	Have you talked to Somerholder?	221298774	1477951098160	1477951098227	o	79
432256	4660163	Have you talked to Somerholder?	Have you talked to Somerholder?	221298778	1477951098352	1477951098422	l	76
432256	4660163	Have you talked to Somerholder?	Have you talked to Somerholder?	221298779	1477951098491	1477951098594	d	68
432256	4660163	Have you talked to Somerholder?	Have you talked to Somerholder?	221298780	1477951098677	1477951098783	e	69
432256	4660163	Have you talked to Somerholder?	Have you talked to Somerholder?	221298858	1477951098854	1477951098923	r	82
432256	4660163	Have you talked to Somerholder?	Have you talked to Somerholder?	221298861	1477951099888	1477951100100	SHIFT	16
432256	4660163	Have you talked to Somerholder?	Have you talked to Somerholder?	221298868	1477951100103	1477951100169	/	191
432256	4660163	Have you talked to Somerholder?	Have you talked to Somerholder?	221298872	1477951100945	1477951101049	BKSP	8
432256	4660163	Have you talked to Somerholder?	Have you talked to Somerholder?	221298876	1477951101568	1477951101745	SHIFT	16
432256	4660163	Have you talked to Somerholder?	Have you talked to Somerholder?	221298879	1477951101673	1477951101814	?	191
432256	4660182	Travis is in charge.	Travis is in charge.	221298989	1477951106597	1477951106708	CAPS_LOCK	20
432256	4660182	Travis is in charge.	Travis is in charge.	221298990	1477951106717	1477951106826	T	84
432256	4660182	Travis is in charge.	Travis is in charge.	221298991	1477951106839	1477951106931	CAPS_LOCK	20
432256	4660182	Travis is in charge.	Travis is in charge.	221298993	1477951106959	1477951107034	r	82
432256	4660182	Travis is in charge.	Travis is in charge.	221298995	1477951107091	1477951107200	a	65
432256	4660182	Travis is in charge.	Travis is in charge.	221299000	1477951107299	1477951107375	v	86
432256	4660182	Travis is in charge.	Travis is in charge.	221299005	1477951107741	1477951107845	i	73
432256	4660182	Travis is in charge.	Travis is in charge.	221299035	1477951107849	1477951107950	s	83
432256	4660182	Travis is in charge.	Travis is in charge.	221299037	1477951107980	1477951108087	 	32
432256	4660182	Travis is in charge.	Travis is in charge.	221299039	1477951108547	1477951108620	i	73
432256	4660182	Travis is in charge.	Travis is in charge.	221299042	1477951108699	1477951108771	s	83
432256	4660182	Travis is in charge.	Travis is in charge.	221299045	1477951108831	1477951108900	 	32
432256	4660182	Travis is in charge.	Travis is in charge.	221299112	1477951109181	1477951109287	i	73
432256	4660182	Travis is in charge.	Travis is in charge.	221299116	1477951109429	1477951109499	n	78
432256	4660182	Travis is in charge.	Travis is in charge.	221299122	1477951109625	1477951109694	 	32
432256	4660182	Travis is in charge.	Travis is in charge.	221299124	1477951110360	1477951110468	CAPS_LOCK	20
432256	4660182	Travis is in charge.	Travis is in charge.	221299127	1477951110673	1477951110781	CAPS_LOCK	20
432256	4660182	Travis is in charge.	Travis is in charge.	221299131	1477951110970	1477951111082	c	67
432256	4660182	Travis is in charge.	Travis is in charge.	221299136	1477951111137	1477951111219	h	72
432256	4660182	Travis is in charge.	Travis is in charge.	221299208	1477951111470	1477951111570	a	65
432256	4660182	Travis is in charge.	Travis is in charge.	221299210	1477951111692	1477951111796	r	82
432256	4660182	Travis is in charge.	Travis is in charge.	221299212	1477951111895	1477951111999	g	71
432256	4660182	Travis is in charge.	Travis is in charge.	221299214	1477951112033	1477951112136	e	69
432256	4660182	Travis is in charge.	Travis is in charge.	221299216	1477951113067	1477951113136	.	190
432256	4660189	As soon as I get it - I'll forward it to you.	As soon as t get - I'll forward it to you.	221299384	1477951115489	1477951115631	CAPS_LOCK	20
432256	4660189	As soon as I get it - I'll forward it to you.	As soon as t get - I'll forward it to you.	221299387	1477951116200	1477951116306	A	65
432256	4660189	As soon as I get it - I'll forward it to you.	As soon as t get - I'll forward it to you.	221299392	1477951116449	1477951116555	CAPS_LOCK	20
432256	4660189	As soon as I get it - I'll forward it to you.	As soon as t get - I'll forward it to you.	221299397	1477951116701	1477951116801	s	83
432256	4660189	As soon as I get it - I'll forward it to you.	As soon as t get - I'll forward it to you.	221299402	1477951116940	1477951117051	 	32
432256	4660189	As soon as I get it - I'll forward it to you.	As soon as t get - I'll forward it to you.	221299404	1477951117583	1477951117693	s	83
432256	4660189	As soon as I get it - I'll forward it to you.	As soon as t get - I'll forward it to you.	221299409	1477951117785	1477951117891	o	79
432256	4660189	As soon as I get it - I'll forward it to you.	As soon as t get - I'll forward it to you.	221299454	1477951118195	1477951118298	o	79
432256	4660189	As soon as I get it - I'll forward it to you.	As soon as t get - I'll forward it to you.	221299457	1477951118406	1477951118478	n	78
432256	4660189	As soon as I get it - I'll forward it to you.	As soon as t get - I'll forward it to you.	221299464	1477951118592	1477951118661	 	32
432256	4660189	As soon as I get it - I'll forward it to you.	As soon as t get - I'll forward it to you.	221299469	1477951119111	1477951119216	a	65
432256	4660189	As soon as I get it - I'll forward it to you.	As soon as t get - I'll forward it to you.	221299473	1477951119339	1477951119373	s	83
432256	4660189	As soon as I get it - I'll forward it to you.	As soon as t get - I'll forward it to you.	221299548	1477951119594	1477951119706	 	32
432256	4660189	As soon as I get it - I'll forward it to you.	As soon as t get - I'll forward it to you.	221299551	1477951119844	1477951119954	t	84
432256	4660189	As soon as I get it - I'll forward it to you.	As soon as t get - I'll forward it to you.	221299553	1477951119988	1477951120097	 	32
432256	4660189	As soon as I get it - I'll forward it to you.	As soon as t get - I'll forward it to you.	221299555	1477951121194	1477951121306	g	71
432256	4660189	As soon as I get it - I'll forward it to you.	As soon as t get - I'll forward it to you.	221299557	1477951121346	1477951121490	e	69
432256	4660189	As soon as I get it - I'll forward it to you.	As soon as t get - I'll forward it to you.	221299681	1477951121678	1477951121794	t	84
432256	4660189	As soon as I get it - I'll forward it to you.	As soon as t get - I'll forward it to you.	221299684	1477951121796	1477951121908	 	32
432256	4660189	As soon as I get it - I'll forward it to you.	As soon as t get - I'll forward it to you.	221299691	1477951123550	1477951123620	-	189
432256	4660189	As soon as I get it - I'll forward it to you.	As soon as t get - I'll forward it to you.	221299696	1477951124260	1477951124368	 	32
432256	4660189	As soon as I get it - I'll forward it to you.	As soon as t get - I'll forward it to you.	221299702	1477951124981	1477951125121	CAPS_LOCK	20
432256	4660189	As soon as I get it - I'll forward it to you.	As soon as t get - I'll forward it to you.	221299707	1477951125125	1477951125193	I	73
432256	4660189	As soon as I get it - I'll forward it to you.	As soon as t get - I'll forward it to you.	221299761	1477951125254	1477951125359	CAPS_LOCK	20
432256	4660189	As soon as I get it - I'll forward it to you.	As soon as t get - I'll forward it to you.	221299762	1477951125749	1477951125820	'	222
432256	4660189	As soon as I get it - I'll forward it to you.	As soon as t get - I'll forward it to you.	221299763	1477951126141	1477951126211	k	75
432256	4660189	As soon as I get it - I'll forward it to you.	As soon as t get - I'll forward it to you.	221299764	1477951126535	1477951126641	BKSP	8
432256	4660189	As soon as I get it - I'll forward it to you.	As soon as t get - I'll forward it to you.	221299765	1477951126864	1477951126935	l	76
432256	4660189	As soon as I get it - I'll forward it to you.	As soon as t get - I'll forward it to you.	221299766	1477951127005	1477951127075	l	76
432256	4660189	As soon as I get it - I'll forward it to you.	As soon as t get - I'll forward it to you.	221299767	1477951127194	1477951127263	 	32
432256	4660189	As soon as I get it - I'll forward it to you.	As soon as t get - I'll forward it to you.	221299833	1477951127942	1477951128085	f	70
432256	4660189	As soon as I get it - I'll forward it to you.	As soon as t get - I'll forward it to you.	221299835	1477951128088	1477951128189	o	79
432256	4660189	As soon as I get it - I'll forward it to you.	As soon as t get - I'll forward it to you.	221299837	1477951128192	1477951128295	r	82
432256	4660189	As soon as I get it - I'll forward it to you.	As soon as t get - I'll forward it to you.	221299838	1477951129023	1477951129127	w	87
432256	4660189	As soon as I get it - I'll forward it to you.	As soon as t get - I'll forward it to you.	221299839	1477951129216	1477951129322	a	65
432256	4660189	As soon as I get it - I'll forward it to you.	As soon as t get - I'll forward it to you.	221299896	1477951129444	1477951129549	r	82
432256	4660189	As soon as I get it - I'll forward it to you.	As soon as t get - I'll forward it to you.	221299900	1477951129639	1477951129745	d	68
432256	4660189	As soon as I get it - I'll forward it to you.	As soon as t get - I'll forward it to you.	221299903	1477951129764	1477951129879	 	32
432256	4660189	As soon as I get it - I'll forward it to you.	As soon as t get - I'll forward it to you.	221299907	1477951130387	1477951130493	i	73
432256	4660189	As soon as I get it - I'll forward it to you.	As soon as t get - I'll forward it to you.	221299911	1477951130542	1477951130649	t	84
432256	4660189	As soon as I get it - I'll forward it to you.	As soon as t get - I'll forward it to you.	221299980	1477951130667	1477951130770	 	32
432256	4660189	As soon as I get it - I'll forward it to you.	As soon as t get - I'll forward it to you.	221299983	1477951131252	1477951131359	t	84
432256	4660189	As soon as I get it - I'll forward it to you.	As soon as t get - I'll forward it to you.	221299986	1477951131801	1477951131905	o	79
432256	4660189	As soon as I get it - I'll forward it to you.	As soon as t get - I'll forward it to you.	221299989	1477951132010	1477951132116	 	32
432256	4660189	As soon as I get it - I'll forward it to you.	As soon as t get - I'll forward it to you.	221299992	1477951132270	1477951132374	y	89
432256	4660189	As soon as I get it - I'll forward it to you.	As soon as t get - I'll forward it to you.	221300083	1477951132427	1477951132530	p	80
432256	4660189	As soon as I get it - I'll forward it to you.	As soon as t get - I'll forward it to you.	221300088	1477951132862	1477951132974	BKSP	8
432256	4660189	As soon as I get it - I'll forward it to you.	As soon as t get - I'll forward it to you.	221300091	1477951133195	1477951133308	o	79
432256	4660189	As soon as I get it - I'll forward it to you.	As soon as t get - I'll forward it to you.	221300096	1477951133323	1477951133438	u	85
432256	4660189	As soon as I get it - I'll forward it to you.	As soon as t get - I'll forward it to you.	221300098	1477951134571	1477951134639	.	190
432256	4660204	Sources said the officers will be part of the coordination office.	Sources said the officers will be part of the coordination office.	221300221	1477951137616	1477951137719	CAPS_LOCK	20
432256	4660204	Sources said the officers will be part of the coordination office.	Sources said the officers will be part of the coordination office.	221300224	1477951137840	1477951137911	S	83
432256	4660204	Sources said the officers will be part of the coordination office.	Sources said the officers will be part of the coordination office.	221300227	1477951138386	1477951138493	CAPS_LOCK	20
432256	4660204	Sources said the officers will be part of the coordination office.	Sources said the officers will be part of the coordination office.	221300231	1477951138811	1477951138915	o	79
432256	4660204	Sources said the officers will be part of the coordination office.	Sources said the officers will be part of the coordination office.	221300236	1477951139139	1477951139244	u	85
432256	4660204	Sources said the officers will be part of the coordination office.	Sources said the officers will be part of the coordination office.	221300240	1477951139449	1477951139521	r	82
432256	4660204	Sources said the officers will be part of the coordination office.	Sources said the officers will be part of the coordination office.	221300246	1477951139791	1477951139861	c	67
432256	4660204	Sources said the officers will be part of the coordination office.	Sources said the officers will be part of the coordination office.	221300273	1477951139991	1477951140095	e	69
432256	4660204	Sources said the officers will be part of the coordination office.	Sources said the officers will be part of the coordination office.	221300278	1477951140202	1477951140306	s	83
432256	4660204	Sources said the officers will be part of the coordination office.	Sources said the officers will be part of the coordination office.	221300282	1477951140318	1477951140424	 	32
432256	4660204	Sources said the officers will be part of the coordination office.	Sources said the officers will be part of the coordination office.	221300284	1477951140847	1477951140951	s	83
432256	4660204	Sources said the officers will be part of the coordination office.	Sources said the officers will be part of the coordination office.	221300287	1477951141049	1477951141155	a	65
432256	4660204	Sources said the officers will be part of the coordination office.	Sources said the officers will be part of the coordination office.	221300341	1477951141305	1477951141414	i	73
432256	4660204	Sources said the officers will be part of the coordination office.	Sources said the officers will be part of the coordination office.	221300343	1477951141417	1477951141517	d	68
432256	4660204	Sources said the officers will be part of the coordination office.	Sources said the officers will be part of the coordination office.	221300345	1477951141594	1477951141732	 	32
432256	4660204	Sources said the officers will be part of the coordination office.	Sources said the officers will be part of the coordination office.	221300347	1477951142397	1477951142503	t	84
432256	4660204	Sources said the officers will be part of the coordination office.	Sources said the officers will be part of the coordination office.	221300349	1477951142506	1477951142607	h	72
432256	4660204	Sources said the officers will be part of the coordination office.	Sources said the officers will be part of the coordination office.	221300379	1477951142662	1477951142771	e	69
432256	4660204	Sources said the officers will be part of the coordination office.	Sources said the officers will be part of the coordination office.	221300380	1477951142772	1477951142874	 	32
432256	4660204	Sources said the officers will be part of the coordination office.	Sources said the officers will be part of the coordination office.	221300382	1477951143022	1477951143162	o	79
432256	4660204	Sources said the officers will be part of the coordination office.	Sources said the officers will be part of the coordination office.	221300383	1477951143224	1477951143332	f	70
432256	4660204	Sources said the officers will be part of the coordination office.	Sources said the officers will be part of the coordination office.	221300384	1477951143443	1477951143549	f	70
432256	4660204	Sources said the officers will be part of the coordination office.	Sources said the officers will be part of the coordination office.	221300453	1477951144096	1477951144131	i	73
432256	4660204	Sources said the officers will be part of the coordination office.	Sources said the officers will be part of the coordination office.	221300456	1477951144512	1477951144616	v	86
432256	4660204	Sources said the officers will be part of the coordination office.	Sources said the officers will be part of the coordination office.	221300458	1477951144772	1477951144914	e	69
432256	4660204	Sources said the officers will be part of the coordination office.	Sources said the officers will be part of the coordination office.	221300463	1477951145107	1477951145211	BKSP	8
432256	4660204	Sources said the officers will be part of the coordination office.	Sources said the officers will be part of the coordination office.	221300467	1477951145260	1477951145328	BKSP	8
432256	4660204	Sources said the officers will be part of the coordination office.	Sources said the officers will be part of the coordination office.	221300473	1477951145438	1477951145544	c	67
432256	4660204	Sources said the officers will be part of the coordination office.	Sources said the officers will be part of the coordination office.	221300476	1477951145847	1477951145955	e	69
432256	4660204	Sources said the officers will be part of the coordination office.	Sources said the officers will be part of the coordination office.	221300538	1477951146047	1477951146156	r	82
432256	4660204	Sources said the officers will be part of the coordination office.	Sources said the officers will be part of the coordination office.	221300541	1477951146885	1477951146996	s	83
432256	4660204	Sources said the officers will be part of the coordination office.	Sources said the officers will be part of the coordination office.	221300544	1477951147372	1477951147478	 	32
432256	4660204	Sources said the officers will be part of the coordination office.	Sources said the officers will be part of the coordination office.	221300548	1477951147633	1477951147736	w	87
432256	4660204	Sources said the officers will be part of the coordination office.	Sources said the officers will be part of the coordination office.	221300618	1477951147892	1477951147997	i	73
432256	4660204	Sources said the officers will be part of the coordination office.	Sources said the officers will be part of the coordination office.	221300552	1477951147926	1477951147961	o	79
432256	4660204	Sources said the officers will be part of the coordination office.	Sources said the officers will be part of the coordination office.	221300621	1477951148342	1477951148447	BKSP	8
432256	4660204	Sources said the officers will be part of the coordination office.	Sources said the officers will be part of the coordination office.	221300624	1477951148699	1477951148767	l	76
432256	4660204	Sources said the officers will be part of the coordination office.	Sources said the officers will be part of the coordination office.	221300625	1477951148852	1477951148919	l	76
432256	4660204	Sources said the officers will be part of the coordination office.	Sources said the officers will be part of the coordination office.	221300626	1477951149198	1477951149267	 	32
432256	4660204	Sources said the officers will be part of the coordination office.	Sources said the officers will be part of the coordination office.	221300627	1477951149712	1477951149859	b	66
432256	4660204	Sources said the officers will be part of the coordination office.	Sources said the officers will be part of the coordination office.	221300628	1477951149867	1477951149973	e	69
432256	4660204	Sources said the officers will be part of the coordination office.	Sources said the officers will be part of the coordination office.	221300659	1477951149986	1477951150126	 	32
432256	4660204	Sources said the officers will be part of the coordination office.	Sources said the officers will be part of the coordination office.	221300660	1477951150403	1477951150547	p	80
432256	4660204	Sources said the officers will be part of the coordination office.	Sources said the officers will be part of the coordination office.	221300662	1477951150566	1477951150669	a	65
432256	4660204	Sources said the officers will be part of the coordination office.	Sources said the officers will be part of the coordination office.	221300667	1477951150818	1477951150959	r	82
432256	4660204	Sources said the officers will be part of the coordination office.	Sources said the officers will be part of the coordination office.	221300722	1477951151062	1477951151166	t	84
432256	4660204	Sources said the officers will be part of the coordination office.	Sources said the officers will be part of the coordination office.	221300671	1477951151097	1477951151131	y	89
432256	4660204	Sources said the officers will be part of the coordination office.	Sources said the officers will be part of the coordination office.	221300723	1477951151220	1477951151326	 	32
432256	4660204	Sources said the officers will be part of the coordination office.	Sources said the officers will be part of the coordination office.	221300724	1477951151592	1477951151698	BKSP	8
432256	4660204	Sources said the officers will be part of the coordination office.	Sources said the officers will be part of the coordination office.	221300725	1477951151746	1477951151849	BKSP	8
432256	4660204	Sources said the officers will be part of the coordination office.	Sources said the officers will be part of the coordination office.	221300727	1477951151973	1477951152045	 	32
432256	4660204	Sources said the officers will be part of the coordination office.	Sources said the officers will be part of the coordination office.	221300731	1477951152464	1477951152603	o	79
432256	4660204	Sources said the officers will be part of the coordination office.	Sources said the officers will be part of the coordination office.	221300734	1477951152624	1477951152729	f	70
432256	4660204	Sources said the officers will be part of the coordination office.	Sources said the officers will be part of the coordination office.	221300737	1477951152779	1477951152850	 	32
432256	4660204	Sources said the officers will be part of the coordination office.	Sources said the officers will be part of the coordination office.	221300804	1477951153459	1477951153601	t	84
432256	4660204	Sources said the officers will be part of the coordination office.	Sources said the officers will be part of the coordination office.	221300808	1477951153605	1477951153709	h	72
432256	4660204	Sources said the officers will be part of the coordination office.	Sources said the officers will be part of the coordination office.	221300812	1477951153730	1477951153836	e	69
432256	4660204	Sources said the officers will be part of the coordination office.	Sources said the officers will be part of the coordination office.	221300814	1477951153838	1477951153941	 	32
432256	4660204	Sources said the officers will be part of the coordination office.	Sources said the officers will be part of the coordination office.	221300817	1477951154471	1477951154541	v	86
432256	4660204	Sources said the officers will be part of the coordination office.	Sources said the officers will be part of the coordination office.	221300947	1477951155029	1477951155128	BKSP	8
432256	4660204	Sources said the officers will be part of the coordination office.	Sources said the officers will be part of the coordination office.	221300950	1477951155169	1477951155273	c	67
432256	4660204	Sources said the officers will be part of the coordination office.	Sources said the officers will be part of the coordination office.	221300953	1477951155737	1477951155808	o	79
432256	4660204	Sources said the officers will be part of the coordination office.	Sources said the officers will be part of the coordination office.	221300956	1477951155916	1477951155983	o	79
432256	4660204	Sources said the officers will be part of the coordination office.	Sources said the officers will be part of the coordination office.	221300959	1477951156405	1477951156546	r	82
432256	4660204	Sources said the officers will be part of the coordination office.	Sources said the officers will be part of the coordination office.	221300962	1477951157459	1477951157527	f	70
432256	4660204	Sources said the officers will be part of the coordination office.	Sources said the officers will be part of the coordination office.	221301032	1477951158080	1477951158183	BKSP	8
432256	4660204	Sources said the officers will be part of the coordination office.	Sources said the officers will be part of the coordination office.	221301034	1477951158219	1477951158324	d	68
432256	4660204	Sources said the officers will be part of the coordination office.	Sources said the officers will be part of the coordination office.	221301038	1477951158702	1477951158780	i	73
432256	4660204	Sources said the officers will be part of the coordination office.	Sources said the officers will be part of the coordination office.	221301040	1477951159396	1477951159504	n	78
432256	4660204	Sources said the officers will be part of the coordination office.	Sources said the officers will be part of the coordination office.	221301042	1477951159619	1477951159724	a	65
432256	4660204	Sources said the officers will be part of the coordination office.	Sources said the officers will be part of the coordination office.	221301044	1477951160004	1477951160111	t	84
432256	4660204	Sources said the officers will be part of the coordination office.	Sources said the officers will be part of the coordination office.	221301113	1477951160476	1477951160583	i	73
432256	4660204	Sources said the officers will be part of the coordination office.	Sources said the officers will be part of the coordination office.	221301116	1477951160817	1477951160923	o	79
432256	4660204	Sources said the officers will be part of the coordination office.	Sources said the officers will be part of the coordination office.	221301118	1477951161117	1477951161220	n	78
432256	4660204	Sources said the officers will be part of the coordination office.	Sources said the officers will be part of the coordination office.	221301120	1477951161754	1477951161861	 	32
432256	4660204	Sources said the officers will be part of the coordination office.	Sources said the officers will be part of the coordination office.	221301124	1477951162000	1477951162138	o	79
432256	4660204	Sources said the officers will be part of the coordination office.	Sources said the officers will be part of the coordination office.	221301191	1477951162452	1477951162557	f	70
432256	4660204	Sources said the officers will be part of the coordination office.	Sources said the officers will be part of the coordination office.	221301195	1477951162635	1477951162704	f	70
432256	4660204	Sources said the officers will be part of the coordination office.	Sources said the officers will be part of the coordination office.	221301200	1477951163135	1477951163206	u	73
432256	4660204	Sources said the officers will be part of the coordination office.	Sources said the officers will be part of the coordination office.	221301206	1477951163895	1477951164000	BKSP	8
432256	4660204	Sources said the officers will be part of the coordination office.	Sources said the officers will be part of the coordination office.	221301209	1477951164076	1477951164183	v	86
432256	4660204	Sources said the officers will be part of the coordination office.	Sources said the officers will be part of the coordination office.	221301314	1477951164539	1477951164643	BKSP	8
432256	4660204	Sources said the officers will be part of the coordination office.	Sources said the officers will be part of the coordination office.	221301318	1477951164715	1477951164819	c	67
432256	4660204	Sources said the officers will be part of the coordination office.	Sources said the officers will be part of the coordination office.	221301323	1477951164991	1477951165062	e	68
432256	4660204	Sources said the officers will be part of the coordination office.	Sources said the officers will be part of the coordination office.	221301329	1477951165433	1477951165537	BKSP	8
432256	4660204	Sources said the officers will be part of the coordination office.	Sources said the officers will be part of the coordination office.	221301334	1477951165803	1477951165909	BKSP	8
432256	4660204	Sources said the officers will be part of the coordination office.	Sources said the officers will be part of the coordination office.	221301337	1477951165930	1477951166034	e	69
432256	4660204	Sources said the officers will be part of the coordination office.	Sources said the officers will be part of the coordination office.	221301343	1477951166799	1477951166870	.	190
432256	4660237	Els rocketed to his first European Tour victory back.	Els rocketed to his first European Tour victory back.	221301557	1477951169810	1477951169914	CAPS_LOCK	20
432256	4660237	Els rocketed to his first European Tour victory back.	Els rocketed to his first European Tour victory back.	221301560	1477951170145	1477951170249	E	69
432256	4660237	Els rocketed to his first European Tour victory back.	Els rocketed to his first European Tour victory back.	221301562	1477951170387	1477951170492	CAPS_LOCK	20
432256	4660237	Els rocketed to his first European Tour victory back.	Els rocketed to his first European Tour victory back.	221301565	1477951171027	1477951171098	l	76
432256	4660237	Els rocketed to his first European Tour victory back.	Els rocketed to his first European Tour victory back.	221301567	1477951171258	1477951171364	s	83
432256	4660237	Els rocketed to his first European Tour victory back.	Els rocketed to his first European Tour victory back.	221301570	1477951171391	1477951171496	 	32
432256	4660237	Els rocketed to his first European Tour victory back.	Els rocketed to his first European Tour victory back.	221301572	1477951172388	1477951172493	r	82
432256	4660237	Els rocketed to his first European Tour victory back.	Els rocketed to his first European Tour victory back.	221301642	1477951172517	1477951172657	o	79
432256	4660237	Els rocketed to his first European Tour victory back.	Els rocketed to his first European Tour victory back.	221301647	1477951173508	1477951173649	c	67
432256	4660237	Els rocketed to his first European Tour victory back.	Els rocketed to his first European Tour victory back.	221301650	1477951173708	1477951173849	k	75
432256	4660237	Els rocketed to his first European Tour victory back.	Els rocketed to his first European Tour victory back.	221301654	1477951173874	1477951173979	e	69
432256	4660237	Els rocketed to his first European Tour victory back.	Els rocketed to his first European Tour victory back.	221301657	1477951174448	1477951174517	y	89
432256	4660237	Els rocketed to his first European Tour victory back.	Els rocketed to his first European Tour victory back.	221301727	1477951174483	1477951174522	t	84
432256	4660237	Els rocketed to his first European Tour victory back.	Els rocketed to his first European Tour victory back.	221301729	1477951174900	1477951175006	BKSP	8
432256	4660237	Els rocketed to his first European Tour victory back.	Els rocketed to his first European Tour victory back.	221301732	1477951175080	1477951175186	BKSP	8
432256	4660237	Els rocketed to his first European Tour victory back.	Els rocketed to his first European Tour victory back.	221301735	1477951175571	1477951175674	t	84
432256	4660237	Els rocketed to his first European Tour victory back.	Els rocketed to his first European Tour victory back.	221301738	1477951175990	1477951176096	e	69
432256	4660237	Els rocketed to his first European Tour victory back.	Els rocketed to his first European Tour victory back.	221301741	1477951176201	1477951176307	d	68
432256	4660237	Els rocketed to his first European Tour victory back.	Els rocketed to his first European Tour victory back.	221301743	1477951176334	1477951176440	 	32
432256	4660237	Els rocketed to his first European Tour victory back.	Els rocketed to his first European Tour victory back.	221301745	1477951176826	1477951176932	t	84
432256	4660237	Els rocketed to his first European Tour victory back.	Els rocketed to his first European Tour victory back.	221301769	1477951176998	1477951177104	o	79
432256	4660237	Els rocketed to his first European Tour victory back.	Els rocketed to his first European Tour victory back.	221301774	1477951177199	1477951177303	 	32
432256	4660237	Els rocketed to his first European Tour victory back.	Els rocketed to his first European Tour victory back.	221301779	1477951177312	1477951177417	t	84
432256	4660237	Els rocketed to his first European Tour victory back.	Els rocketed to his first European Tour victory back.	221301783	1477951177442	1477951177545	h	72
432256	4660237	Els rocketed to his first European Tour victory back.	Els rocketed to his first European Tour victory back.	221301786	1477951177658	1477951177763	i	73
432256	4660237	Els rocketed to his first European Tour victory back.	Els rocketed to his first European Tour victory back.	221301966	1477951177809	1477951177913	s	83
432256	4660237	Els rocketed to his first European Tour victory back.	Els rocketed to his first European Tour victory back.	221301970	1477951177927	1477951178030	 	32
432256	4660237	Els rocketed to his first European Tour victory back.	Els rocketed to his first European Tour victory back.	221301975	1477951180264	1477951180366	BKSP	8
432256	4660237	Els rocketed to his first European Tour victory back.	Els rocketed to his first European Tour victory back.	221301977	1477951180428	1477951180495	BKSP	8
432256	4660237	Els rocketed to his first European Tour victory back.	Els rocketed to his first European Tour victory back.	221301979	1477951180579	1477951180683	BKSP	8
432256	4660237	Els rocketed to his first European Tour victory back.	Els rocketed to his first European Tour victory back.	221301983	1477951180730	1477951180871	BKSP	8
432256	4660237	Els rocketed to his first European Tour victory back.	Els rocketed to his first European Tour victory back.	221301986	1477951181181	1477951181285	BKSP	8
432256	4660237	Els rocketed to his first European Tour victory back.	Els rocketed to his first European Tour victory back.	221301989	1477951181561	1477951181664	h	72
432256	4660237	Els rocketed to his first European Tour victory back.	Els rocketed to his first European Tour victory back.	221301991	1477951181829	1477951181934	i	73
432256	4660237	Els rocketed to his first European Tour victory back.	Els rocketed to his first European Tour victory back.	221301995	1477951181977	1477951182119	s	83
432256	4660237	Els rocketed to his first European Tour victory back.	Els rocketed to his first European Tour victory back.	221302016	1477951182124	1477951182224	 	32
432256	4660237	Els rocketed to his first European Tour victory back.	Els rocketed to his first European Tour victory back.	221302017	1477951182498	1477951182637	f	70
432256	4660237	Els rocketed to his first European Tour victory back.	Els rocketed to his first European Tour victory back.	221302018	1477951182725	1477951182833	i	73
432256	4660237	Els rocketed to his first European Tour victory back.	Els rocketed to his first European Tour victory back.	221302019	1477951182907	1477951183012	r	82
432256	4660237	Els rocketed to his first European Tour victory back.	Els rocketed to his first European Tour victory back.	221302020	1477951183161	1477951183302	s	83
432256	4660237	Els rocketed to his first European Tour victory back.	Els rocketed to his first European Tour victory back.	221302089	1477951183321	1477951183435	t	84
432256	4660237	Els rocketed to his first European Tour victory back.	Els rocketed to his first European Tour victory back.	221302091	1477951183573	1477951183652	 	32
432256	4660237	Els rocketed to his first European Tour victory back.	Els rocketed to his first European Tour victory back.	221302093	1477951183870	1477951183981	CAPS_LOCK	20
432256	4660237	Els rocketed to his first European Tour victory back.	Els rocketed to his first European Tour victory back.	221302095	1477951184182	1477951184256	E	69
432256	4660237	Els rocketed to his first European Tour victory back.	Els rocketed to his first European Tour victory back.	221302097	1477951184572	1477951184677	CAPS_LOCK	20
432256	4660237	Els rocketed to his first European Tour victory back.	Els rocketed to his first European Tour victory back.	221302098	1477951185348	1477951185451	u	85
432256	4660237	Els rocketed to his first European Tour victory back.	Els rocketed to his first European Tour victory back.	221302099	1477951185486	1477951185592	r	82
432256	4660237	Els rocketed to his first European Tour victory back.	Els rocketed to his first European Tour victory back.	221302180	1477951186643	1477951186714	o	79
432256	4660237	Els rocketed to his first European Tour victory back.	Els rocketed to his first European Tour victory back.	221302182	1477951187148	1477951187218	p	80
432256	4660237	Els rocketed to his first European Tour victory back.	Els rocketed to his first European Tour victory back.	221302185	1477951187363	1477951187467	e	69
432256	4660237	Els rocketed to his first European Tour victory back.	Els rocketed to his first European Tour victory back.	221302187	1477951187621	1477951187725	a	65
432256	4660237	Els rocketed to his first European Tour victory back.	Els rocketed to his first European Tour victory back.	221302189	1477951187733	1477951187803	n	78
432256	4660237	Els rocketed to his first European Tour victory back.	Els rocketed to his first European Tour victory back.	221302297	1477951187930	1477951187999	 	32
432256	4660237	Els rocketed to his first European Tour victory back.	Els rocketed to his first European Tour victory back.	221302300	1477951188383	1477951188487	CAPS_LOCK	20
432256	4660237	Els rocketed to his first European Tour victory back.	Els rocketed to his first European Tour victory back.	221302307	1477951188710	1477951188815	T	84
432256	4660237	Els rocketed to his first European Tour victory back.	Els rocketed to his first European Tour victory back.	221302312	1477951189018	1477951189125	CAPS_LOCK	20
432256	4660237	Els rocketed to his first European Tour victory back.	Els rocketed to his first European Tour victory back.	221302316	1477951189584	1477951189656	o	79
432256	4660237	Els rocketed to his first European Tour victory back.	Els rocketed to his first European Tour victory back.	221302321	1477951189818	1477951189889	u	85
432256	4660237	Els rocketed to his first European Tour victory back.	Els rocketed to his first European Tour victory back.	221302328	1477951190044	1477951190148	r	82
432256	4660237	Els rocketed to his first European Tour victory back.	Els rocketed to his first European Tour victory back.	221302475	1477951190646	1477951190714	 	32
432256	4660237	Els rocketed to his first European Tour victory back.	Els rocketed to his first European Tour victory back.	221302480	1477951191215	1477951191285	v	86
432256	4660237	Els rocketed to his first European Tour victory back.	Els rocketed to his first European Tour victory back.	221302484	1477951191589	1477951191660	i	73
432256	4660237	Els rocketed to his first European Tour victory back.	Els rocketed to his first European Tour victory back.	221302490	1477951192697	1477951192769	t	84
432256	4660237	Els rocketed to his first European Tour victory back.	Els rocketed to his first European Tour victory back.	221302494	1477951193067	1477951193136	BKSP	8
432256	4660237	Els rocketed to his first European Tour victory back.	Els rocketed to his first European Tour victory back.	221302495	1477951193686	1477951193793	c	67
432256	4660237	Els rocketed to his first European Tour victory back.	Els rocketed to his first European Tour victory back.	221302566	1477951193963	1477951194067	t	84
432256	4660237	Els rocketed to his first European Tour victory back.	Els rocketed to his first European Tour victory back.	221302569	1477951195110	1477951195216	o	79
432256	4660237	Els rocketed to his first European Tour victory back.	Els rocketed to his first European Tour victory back.	221302573	1477951195284	1477951195388	r	82
432256	4660237	Els rocketed to his first European Tour victory back.	Els rocketed to his first European Tour victory back.	221302575	1477951195723	1477951195794	y	89
432256	4660237	Els rocketed to his first European Tour victory back.	Els rocketed to his first European Tour victory back.	221302578	1477951196209	1477951196314	 	32
432256	4660237	Els rocketed to his first European Tour victory back.	Els rocketed to his first European Tour victory back.	221302639	1477951196620	1477951196687	b	66
432256	4660237	Els rocketed to his first European Tour victory back.	Els rocketed to his first European Tour victory back.	221302643	1477951196746	1477951196852	a	65
432256	4660237	Els rocketed to his first European Tour victory back.	Els rocketed to his first European Tour victory back.	221302645	1477951197025	1477951197130	c	67
432256	4660237	Els rocketed to his first European Tour victory back.	Els rocketed to his first European Tour victory back.	221302646	1477951197269	1477951197306	k	75
432256	4660237	Els rocketed to his first European Tour victory back.	Els rocketed to his first European Tour victory back.	221302648	1477951198196	1477951198262	.	190
432256	4660264	Richardson is battling a shoulder injury.	Richardson is battling a shoulder injury.	221303056	1477951201789	1477951201894	CAPS_LOCK	20
432256	4660264	Richardson is battling a shoulder injury.	Richardson is battling a shoulder injury.	221303058	1477951202683	1477951202788	R	82
432256	4660264	Richardson is battling a shoulder injury.	Richardson is battling a shoulder injury.	221303060	1477951208698	1477951208767	i	73
432256	4660264	Richardson is battling a shoulder injury.	Richardson is battling a shoulder injury.	221303062	1477951208859	1477951209001	c	67
432256	4660264	Richardson is battling a shoulder injury.	Richardson is battling a shoulder injury.	221303064	1477951209035	1477951209138	h	72
432256	4660264	Richardson is battling a shoulder injury.	Richardson is battling a shoulder injury.	221303066	1477951209971	1477951210076	a	65
432256	4660264	Richardson is battling a shoulder injury.	Richardson is battling a shoulder injury.	221303173	1477951210208	1477951210314	r	82
432256	4660264	Richardson is battling a shoulder injury.	Richardson is battling a shoulder injury.	221303177	1477951210489	1477951210595	d	68
432256	4660264	Richardson is battling a shoulder injury.	Richardson is battling a shoulder injury.	221303181	1477951212373	1477951212479	s	83
432256	4660264	Richardson is battling a shoulder injury.	Richardson is battling a shoulder injury.	221303185	1477951212511	1477951212615	o	79
432256	4660264	Richardson is battling a shoulder injury.	Richardson is battling a shoulder injury.	221303191	1477951212751	1477951212823	n	78
432256	4660264	Richardson is battling a shoulder injury.	Richardson is battling a shoulder injury.	221303330	1477951212939	1477951213045	 	32
432256	4660264	Richardson is battling a shoulder injury.	Richardson is battling a shoulder injury.	221303332	1477951215515	1477951215620	i	73
432256	4660264	Richardson is battling a shoulder injury.	Richardson is battling a shoulder injury.	221303335	1477951215667	1477951215773	s	83
432256	4660264	Richardson is battling a shoulder injury.	Richardson is battling a shoulder injury.	221303338	1477951215805	1477951215909	 	32
432256	4660264	Richardson is battling a shoulder injury.	Richardson is battling a shoulder injury.	221303341	1477951216021	1477951216125	b	66
432256	4660264	Richardson is battling a shoulder injury.	Richardson is battling a shoulder injury.	221303376	1477951216662	1477951216765	a	65
432256	4660264	Richardson is battling a shoulder injury.	Richardson is battling a shoulder injury.	221303377	1477951216961	1477951217032	t	84
432256	4660264	Richardson is battling a shoulder injury.	Richardson is battling a shoulder injury.	221303378	1477951217120	1477951217192	t	84
432256	4660264	Richardson is battling a shoulder injury.	Richardson is battling a shoulder injury.	221303379	1477951217278	1477951217349	l	76
432256	4660264	Richardson is battling a shoulder injury.	Richardson is battling a shoulder injury.	221303380	1477951217391	1477951217463	e	69
432256	4660264	Richardson is battling a shoulder injury.	Richardson is battling a shoulder injury.	221303479	1477951217755	1477951217860	i	73
432256	4660264	Richardson is battling a shoulder injury.	Richardson is battling a shoulder injury.	221303481	1477951217956	1477951218096	n	78
432256	4660264	Richardson is battling a shoulder injury.	Richardson is battling a shoulder injury.	221303484	1477951218099	1477951218200	g	71
432256	4660264	Richardson is battling a shoulder injury.	Richardson is battling a shoulder injury.	221303487	1477951218209	1477951218349	 	32
432256	4660264	Richardson is battling a shoulder injury.	Richardson is battling a shoulder injury.	221303491	1477951218925	1477951218993	BKSP	8
432256	4660264	Richardson is battling a shoulder injury.	Richardson is battling a shoulder injury.	221303495	1477951219082	1477951219152	BKSP	8
432256	4660264	Richardson is battling a shoulder injury.	Richardson is battling a shoulder injury.	221303498	1477951219239	1477951219486	BKSP	8
432256	4660264	Richardson is battling a shoulder injury.	Richardson is battling a shoulder injury.	221303500	1477951219593	1477951219697	BKSP	8
432256	4660264	Richardson is battling a shoulder injury.	Richardson is battling a shoulder injury.	221303502	1477951219767	1477951219873	BKSP	8
432256	4660264	Richardson is battling a shoulder injury.	Richardson is battling a shoulder injury.	221303504	1477951220392	1477951220494	i	73
432256	4660264	Richardson is battling a shoulder injury.	Richardson is battling a shoulder injury.	221303516	1477951220596	1477951220736	n	78
432256	4660264	Richardson is battling a shoulder injury.	Richardson is battling a shoulder injury.	221303517	1477951220762	1477951220867	g	71
432256	4660264	Richardson is battling a shoulder injury.	Richardson is battling a shoulder injury.	221303519	1477951220869	1477951220970	 	32
432256	4660264	Richardson is battling a shoulder injury.	Richardson is battling a shoulder injury.	221303521	1477951221409	1477951221514	a	65
432256	4660264	Richardson is battling a shoulder injury.	Richardson is battling a shoulder injury.	221303523	1477951221524	1477951221630	 	32
432256	4660264	Richardson is battling a shoulder injury.	Richardson is battling a shoulder injury.	221303556	1477951221925	1477951222029	s	83
432256	4660264	Richardson is battling a shoulder injury.	Richardson is battling a shoulder injury.	221303557	1477951222166	1477951222271	h	72
432256	4660264	Richardson is battling a shoulder injury.	Richardson is battling a shoulder injury.	221303558	1477951222550	1477951222619	o	79
432256	4660264	Richardson is battling a shoulder injury.	Richardson is battling a shoulder injury.	221303559	1477951222748	1477951222818	u	85
432256	4660264	Richardson is battling a shoulder injury.	Richardson is battling a shoulder injury.	221303561	1477951222966	1477951223037	l	76
432256	4660264	Richardson is battling a shoulder injury.	Richardson is battling a shoulder injury.	221303614	1477951223120	1477951223224	d	68
432256	4660264	Richardson is battling a shoulder injury.	Richardson is battling a shoulder injury.	221303615	1477951223327	1477951223398	e	69
432256	4660264	Richardson is battling a shoulder injury.	Richardson is battling a shoulder injury.	221303618	1477951223480	1477951223548	r	82
432256	4660264	Richardson is battling a shoulder injury.	Richardson is battling a shoulder injury.	221303620	1477951223579	1477951223685	 	32
432256	4660264	Richardson is battling a shoulder injury.	Richardson is battling a shoulder injury.	221303622	1477951224598	1477951224667	i	73
432256	4660264	Richardson is battling a shoulder injury.	Richardson is battling a shoulder injury.	221303731	1477951224814	1477951224882	 	32
432256	4660264	Richardson is battling a shoulder injury.	Richardson is battling a shoulder injury.	221303732	1477951224846	1477951224886	n	78
432256	4660264	Richardson is battling a shoulder injury.	Richardson is battling a shoulder injury.	221303733	1477951225043	1477951225112	j	74
432256	4660264	Richardson is battling a shoulder injury.	Richardson is battling a shoulder injury.	221303734	1477951225395	1477951225499	BKSP	8
432256	4660264	Richardson is battling a shoulder injury.	Richardson is battling a shoulder injury.	221303737	1477951225703	1477951225773	BKSP	8
432256	4660264	Richardson is battling a shoulder injury.	Richardson is battling a shoulder injury.	221303742	1477951225864	1477951225933	BKSP	8
432256	4660264	Richardson is battling a shoulder injury.	Richardson is battling a shoulder injury.	221303747	1477951226485	1477951226554	n	78
432256	4660264	Richardson is battling a shoulder injury.	Richardson is battling a shoulder injury.	221303752	1477951227125	1477951227196	j	74
432256	4660264	Richardson is battling a shoulder injury.	Richardson is battling a shoulder injury.	221303801	1477951227291	1477951227359	u	85
432256	4660264	Richardson is battling a shoulder injury.	Richardson is battling a shoulder injury.	221303803	1477951227473	1477951227578	r	82
432256	4660264	Richardson is battling a shoulder injury.	Richardson is battling a shoulder injury.	221303805	1477951228070	1477951228176	y	89
432256	4660264	Richardson is battling a shoulder injury.	Richardson is battling a shoulder injury.	221303807	1477951228778	1477951228849	.	190
432256	4660287	Add a Star Trek convention and sports memorabilia show to the mix.	Add a Star Trek convention and sports memorabilia show to the mix.	221304002	1477951232248	1477951232318	A	65
432256	4660287	Add a Star Trek convention and sports memorabilia show to the mix.	Add a Star Trek convention and sports memorabilia show to the mix.	221304005	1477951232479	1477951232583	CAPS_LOCK	20
432256	4660287	Add a Star Trek convention and sports memorabilia show to the mix.	Add a Star Trek convention and sports memorabilia show to the mix.	221304007	1477951232894	1477951232963	d	68
432256	4660287	Add a Star Trek convention and sports memorabilia show to the mix.	Add a Star Trek convention and sports memorabilia show to the mix.	221304008	1477951233043	1477951233155	d	68
432256	4660287	Add a Star Trek convention and sports memorabilia show to the mix.	Add a Star Trek convention and sports memorabilia show to the mix.	221304010	1477951233206	1477951233345	 	32
432256	4660287	Add a Star Trek convention and sports memorabilia show to the mix.	Add a Star Trek convention and sports memorabilia show to the mix.	221304012	1477951233629	1477951233733	a	65
432256	4660287	Add a Star Trek convention and sports memorabilia show to the mix.	Add a Star Trek convention and sports memorabilia show to the mix.	221304114	1477951233758	1477951233896	 	32
432256	4660287	Add a Star Trek convention and sports memorabilia show to the mix.	Add a Star Trek convention and sports memorabilia show to the mix.	221304116	1477951234702	1477951234772	CAPS_LOCK	20
432256	4660287	Add a Star Trek convention and sports memorabilia show to the mix.	Add a Star Trek convention and sports memorabilia show to the mix.	221304120	1477951234962	1477951235066	S	83
432256	4660287	Add a Star Trek convention and sports memorabilia show to the mix.	Add a Star Trek convention and sports memorabilia show to the mix.	221304123	1477951235175	1477951235281	CAPS_LOCK	20
432256	4660287	Add a Star Trek convention and sports memorabilia show to the mix.	Add a Star Trek convention and sports memorabilia show to the mix.	221304126	1477951235459	1477951235562	r	82
432256	4660287	Add a Star Trek convention and sports memorabilia show to the mix.	Add a Star Trek convention and sports memorabilia show to the mix.	221304130	1477951235872	1477951236012	BKSP	8
432256	4660287	Add a Star Trek convention and sports memorabilia show to the mix.	Add a Star Trek convention and sports memorabilia show to the mix.	221304132	1477951236031	1477951236147	t	84
432256	4660287	Add a Star Trek convention and sports memorabilia show to the mix.	Add a Star Trek convention and sports memorabilia show to the mix.	221304137	1477951236320	1477951236468	a	65
432256	4660287	Add a Star Trek convention and sports memorabilia show to the mix.	Add a Star Trek convention and sports memorabilia show to the mix.	221304231	1477951236553	1477951236664	r	82
432256	4660287	Add a Star Trek convention and sports memorabilia show to the mix.	Add a Star Trek convention and sports memorabilia show to the mix.	221304233	1477951236665	1477951236775	 	32
432256	4660287	Add a Star Trek convention and sports memorabilia show to the mix.	Add a Star Trek convention and sports memorabilia show to the mix.	221304235	1477951237453	1477951237567	CAPS_LOCK	20
432256	4660287	Add a Star Trek convention and sports memorabilia show to the mix.	Add a Star Trek convention and sports memorabilia show to the mix.	221304237	1477951237757	1477951237863	T	84
432256	4660287	Add a Star Trek convention and sports memorabilia show to the mix.	Add a Star Trek convention and sports memorabilia show to the mix.	221304239	1477951238076	1477951238145	CAPS_LOCK	20
432256	4660287	Add a Star Trek convention and sports memorabilia show to the mix.	Add a Star Trek convention and sports memorabilia show to the mix.	221304241	1477951238674	1477951238777	r	82
432256	4660287	Add a Star Trek convention and sports memorabilia show to the mix.	Add a Star Trek convention and sports memorabilia show to the mix.	221304242	1477951239007	1477951239114	e	69
432256	4660287	Add a Star Trek convention and sports memorabilia show to the mix.	Add a Star Trek convention and sports memorabilia show to the mix.	221304377	1477951239588	1477951239693	c	67
432256	4660287	Add a Star Trek convention and sports memorabilia show to the mix.	Add a Star Trek convention and sports memorabilia show to the mix.	221304382	1477951240031	1477951240103	k	75
432256	4660287	Add a Star Trek convention and sports memorabilia show to the mix.	Add a Star Trek convention and sports memorabilia show to the mix.	221304386	1477951240668	1477951240775	 	32
432256	4660287	Add a Star Trek convention and sports memorabilia show to the mix.	Add a Star Trek convention and sports memorabilia show to the mix.	221304389	1477951241054	1477951241158	BKSP	8
432256	4660287	Add a Star Trek convention and sports memorabilia show to the mix.	Add a Star Trek convention and sports memorabilia show to the mix.	221304392	1477951241219	1477951241290	BKSP	8
432256	4660287	Add a Star Trek convention and sports memorabilia show to the mix.	Add a Star Trek convention and sports memorabilia show to the mix.	221304396	1477951241349	1477951241419	BKSP	8
432256	4660287	Add a Star Trek convention and sports memorabilia show to the mix.	Add a Star Trek convention and sports memorabilia show to the mix.	221304400	1477951242170	1477951242240	k	75
432256	4660287	Add a Star Trek convention and sports memorabilia show to the mix.	Add a Star Trek convention and sports memorabilia show to the mix.	221304403	1477951242711	1477951242818	 	32
432256	4660287	Add a Star Trek convention and sports memorabilia show to the mix.	Add a Star Trek convention and sports memorabilia show to the mix.	221304513	1477951243123	1477951243264	c	67
432256	4660287	Add a Star Trek convention and sports memorabilia show to the mix.	Add a Star Trek convention and sports memorabilia show to the mix.	221304514	1477951243269	1477951243372	o	79
432256	4660287	Add a Star Trek convention and sports memorabilia show to the mix.	Add a Star Trek convention and sports memorabilia show to the mix.	221304516	1477951243621	1477951243725	b	66
432256	4660287	Add a Star Trek convention and sports memorabilia show to the mix.	Add a Star Trek convention and sports memorabilia show to the mix.	221304518	1477951243989	1477951244127	BKSP	8
432256	4660287	Add a Star Trek convention and sports memorabilia show to the mix.	Add a Star Trek convention and sports memorabilia show to the mix.	221304523	1477951244687	1477951244791	n	78
432256	4660287	Add a Star Trek convention and sports memorabilia show to the mix.	Add a Star Trek convention and sports memorabilia show to the mix.	221304529	1477951245025	1477951245095	v	86
432256	4660287	Add a Star Trek convention and sports memorabilia show to the mix.	Add a Star Trek convention and sports memorabilia show to the mix.	221304678	1477951245260	1477951245400	e	69
432256	4660287	Add a Star Trek convention and sports memorabilia show to the mix.	Add a Star Trek convention and sports memorabilia show to the mix.	221304681	1477951247773	1477951247878	n	78
432256	4660287	Add a Star Trek convention and sports memorabilia show to the mix.	Add a Star Trek convention and sports memorabilia show to the mix.	221304686	1477951248029	1477951248136	t	84
432256	4660287	Add a Star Trek convention and sports memorabilia show to the mix.	Add a Star Trek convention and sports memorabilia show to the mix.	221304690	1477951248213	1477951248320	i	73
432256	4660287	Add a Star Trek convention and sports memorabilia show to the mix.	Add a Star Trek convention and sports memorabilia show to the mix.	221304701	1477951248398	1477951248503	o	79
432256	4660287	Add a Star Trek convention and sports memorabilia show to the mix.	Add a Star Trek convention and sports memorabilia show to the mix.	221304741	1477951248592	1477951248664	n	78
432256	4660287	Add a Star Trek convention and sports memorabilia show to the mix.	Add a Star Trek convention and sports memorabilia show to the mix.	221304742	1477951248768	1477951248840	 	32
432256	4660287	Add a Star Trek convention and sports memorabilia show to the mix.	Add a Star Trek convention and sports memorabilia show to the mix.	221304744	1477951249271	1477951249410	a	65
432256	4660287	Add a Star Trek convention and sports memorabilia show to the mix.	Add a Star Trek convention and sports memorabilia show to the mix.	221304747	1477951249425	1477951249531	n	78
432256	4660287	Add a Star Trek convention and sports memorabilia show to the mix.	Add a Star Trek convention and sports memorabilia show to the mix.	221304751	1477951249565	1477951249673	d	68
432256	4660287	Add a Star Trek convention and sports memorabilia show to the mix.	Add a Star Trek convention and sports memorabilia show to the mix.	221304813	1477951249677	1477951249742	 	32
432256	4660287	Add a Star Trek convention and sports memorabilia show to the mix.	Add a Star Trek convention and sports memorabilia show to the mix.	221304815	1477951249987	1477951250091	s	83
432256	4660287	Add a Star Trek convention and sports memorabilia show to the mix.	Add a Star Trek convention and sports memorabilia show to the mix.	221304817	1477951250019	1477951250094	a	65
432256	4660287	Add a Star Trek convention and sports memorabilia show to the mix.	Add a Star Trek convention and sports memorabilia show to the mix.	221304819	1477951250497	1477951250602	BKSP	8
432256	4660287	Add a Star Trek convention and sports memorabilia show to the mix.	Add a Star Trek convention and sports memorabilia show to the mix.	221304821	1477951250810	1477951250915	s	83
432256	4660287	Add a Star Trek convention and sports memorabilia show to the mix.	Add a Star Trek convention and sports memorabilia show to the mix.	221304824	1477951251538	1477951251642	BKSP	8
432256	4660287	Add a Star Trek convention and sports memorabilia show to the mix.	Add a Star Trek convention and sports memorabilia show to the mix.	221304827	1477951251811	1477951251914	p	80
432256	4660287	Add a Star Trek convention and sports memorabilia show to the mix.	Add a Star Trek convention and sports memorabilia show to the mix.	221304908	1477951252423	1477951252528	o	79
432256	4660287	Add a Star Trek convention and sports memorabilia show to the mix.	Add a Star Trek convention and sports memorabilia show to the mix.	221304910	1477951252650	1477951252789	r	82
432256	4660287	Add a Star Trek convention and sports memorabilia show to the mix.	Add a Star Trek convention and sports memorabilia show to the mix.	221304915	1477951252875	1477951252979	t	84
432256	4660287	Add a Star Trek convention and sports memorabilia show to the mix.	Add a Star Trek convention and sports memorabilia show to the mix.	221304920	1477951253344	1477951253448	s	83
432256	4660287	Add a Star Trek convention and sports memorabilia show to the mix.	Add a Star Trek convention and sports memorabilia show to the mix.	221304925	1477951253511	1477951253615	 	32
432256	4660287	Add a Star Trek convention and sports memorabilia show to the mix.	Add a Star Trek convention and sports memorabilia show to the mix.	221305108	1477951253924	1477951254029	m	77
432256	4660287	Add a Star Trek convention and sports memorabilia show to the mix.	Add a Star Trek convention and sports memorabilia show to the mix.	221305109	1477951254203	1477951254308	e	69
432256	4660287	Add a Star Trek convention and sports memorabilia show to the mix.	Add a Star Trek convention and sports memorabilia show to the mix.	221305110	1477951255234	1477951255302	m	77
432256	4660287	Add a Star Trek convention and sports memorabilia show to the mix.	Add a Star Trek convention and sports memorabilia show to the mix.	221305111	1477951255744	1477951255815	o	79
432256	4660287	Add a Star Trek convention and sports memorabilia show to the mix.	Add a Star Trek convention and sports memorabilia show to the mix.	221305112	1477951256514	1477951256655	r	82
432256	4660287	Add a Star Trek convention and sports memorabilia show to the mix.	Add a Star Trek convention and sports memorabilia show to the mix.	221305188	1477951257180	1477951257319	a	65
432256	4660287	Add a Star Trek convention and sports memorabilia show to the mix.	Add a Star Trek convention and sports memorabilia show to the mix.	221305191	1477951257425	1477951257531	b	66
432256	4660287	Add a Star Trek convention and sports memorabilia show to the mix.	Add a Star Trek convention and sports memorabilia show to the mix.	221305199	1477951258547	1477951258617	i	73
432256	4660287	Add a Star Trek convention and sports memorabilia show to the mix.	Add a Star Trek convention and sports memorabilia show to the mix.	221305204	1477951258770	1477951258839	l	76
432256	4660287	Add a Star Trek convention and sports memorabilia show to the mix.	Add a Star Trek convention and sports memorabilia show to the mix.	221305211	1477951258962	1477951259031	i	73
432256	4660287	Add a Star Trek convention and sports memorabilia show to the mix.	Add a Star Trek convention and sports memorabilia show to the mix.	221305270	1477951259130	1477951259234	a	65
432256	4660287	Add a Star Trek convention and sports memorabilia show to the mix.	Add a Star Trek convention and sports memorabilia show to the mix.	221305272	1477951259453	1477951259558	 	32
432256	4660287	Add a Star Trek convention and sports memorabilia show to the mix.	Add a Star Trek convention and sports memorabilia show to the mix.	221305278	1477951259916	1477951260020	s	83
432256	4660287	Add a Star Trek convention and sports memorabilia show to the mix.	Add a Star Trek convention and sports memorabilia show to the mix.	221305283	1477951260086	1477951260192	h	72
432256	4660287	Add a Star Trek convention and sports memorabilia show to the mix.	Add a Star Trek convention and sports memorabilia show to the mix.	221305289	1477951260349	1477951260488	o	79
432256	4660287	Add a Star Trek convention and sports memorabilia show to the mix.	Add a Star Trek convention and sports memorabilia show to the mix.	221305363	1477951260525	1477951260629	w	87
432256	4660287	Add a Star Trek convention and sports memorabilia show to the mix.	Add a Star Trek convention and sports memorabilia show to the mix.	221305371	1477951260669	1477951260773	 	32
432256	4660287	Add a Star Trek convention and sports memorabilia show to the mix.	Add a Star Trek convention and sports memorabilia show to the mix.	221305367	1477951260703	1477951260739	n	78
432256	4660287	Add a Star Trek convention and sports memorabilia show to the mix.	Add a Star Trek convention and sports memorabilia show to the mix.	221305375	1477951261208	1477951261313	BKSP	8
432256	4660287	Add a Star Trek convention and sports memorabilia show to the mix.	Add a Star Trek convention and sports memorabilia show to the mix.	221305377	1477951261990	1477951262095	t	84
432256	4660287	Add a Star Trek convention and sports memorabilia show to the mix.	Add a Star Trek convention and sports memorabilia show to the mix.	221305381	1477951262115	1477951262185	o	79
432256	4660287	Add a Star Trek convention and sports memorabilia show to the mix.	Add a Star Trek convention and sports memorabilia show to the mix.	221305408	1477951262305	1477951262411	 	32
432256	4660287	Add a Star Trek convention and sports memorabilia show to the mix.	Add a Star Trek convention and sports memorabilia show to the mix.	221305409	1477951262753	1477951262857	t	84
432256	4660287	Add a Star Trek convention and sports memorabilia show to the mix.	Add a Star Trek convention and sports memorabilia show to the mix.	221305410	1477951262878	1477951262982	h	72
432256	4660287	Add a Star Trek convention and sports memorabilia show to the mix.	Add a Star Trek convention and sports memorabilia show to the mix.	221305411	1477951263001	1477951263108	e	69
432256	4660287	Add a Star Trek convention and sports memorabilia show to the mix.	Add a Star Trek convention and sports memorabilia show to the mix.	221305415	1477951263110	1477951263177	 	32
432256	4660287	Add a Star Trek convention and sports memorabilia show to the mix.	Add a Star Trek convention and sports memorabilia show to the mix.	221305488	1477951263366	1477951263469	m	77
432256	4660287	Add a Star Trek convention and sports memorabilia show to the mix.	Add a Star Trek convention and sports memorabilia show to the mix.	221305491	1477951263567	1477951263674	i	73
432256	4660287	Add a Star Trek convention and sports memorabilia show to the mix.	Add a Star Trek convention and sports memorabilia show to the mix.	221305496	1477951264111	1477951264213	x	88
432256	4660287	Add a Star Trek convention and sports memorabilia show to the mix.	Add a Star Trek convention and sports memorabilia show to the mix.	221305500	1477951264917	1477951264987	.	190
432256	4660323	Sheila please talk to Avashe.	Sheila Please talk to Avashe.	221305853	1477951267944	1477951268049	CAPS_LOCK	20
432256	4660323	Sheila please talk to Avashe.	Sheila Please talk to Avashe.	221305856	1477951268221	1477951268327	S	83
432256	4660323	Sheila please talk to Avashe.	Sheila Please talk to Avashe.	221305859	1477951268505	1477951268609	CAPS_LOCK	20
432256	4660323	Sheila please talk to Avashe.	Sheila Please talk to Avashe.	221305862	1477951270624	1477951270695	h	72
432256	4660323	Sheila please talk to Avashe.	Sheila Please talk to Avashe.	221305865	1477951271852	1477951271923	e	69
432256	4660323	Sheila please talk to Avashe.	Sheila Please talk to Avashe.	221305869	1477951272298	1477951272368	i	73
432256	4660323	Sheila please talk to Avashe.	Sheila Please talk to Avashe.	221305872	1477951272997	1477951273067	l	76
432256	4660323	Sheila please talk to Avashe.	Sheila Please talk to Avashe.	221305917	1477951273110	1477951273216	a	65
432256	4660323	Sheila please talk to Avashe.	Sheila Please talk to Avashe.	221305920	1477951273249	1477951273317	 	32
432256	4660323	Sheila please talk to Avashe.	Sheila Please talk to Avashe.	221305924	1477951273505	1477951273610	CAPS_LOCK	20
432256	4660323	Sheila please talk to Avashe.	Sheila Please talk to Avashe.	221305927	1477951273724	1477951273829	P	80
432256	4660323	Sheila please talk to Avashe.	Sheila Please talk to Avashe.	221305931	1477951273876	1477951273947	CAPS_LOCK	20
432256	4660323	Sheila please talk to Avashe.	Sheila Please talk to Avashe.	221305935	1477951273985	1477951274052	l	76
432256	4660323	Sheila please talk to Avashe.	Sheila Please talk to Avashe.	221305941	1477951274178	1477951274248	e	69
432256	4660323	Sheila please talk to Avashe.	Sheila Please talk to Avashe.	221306000	1477951274577	1477951274646	a	65
432256	4660323	Sheila please talk to Avashe.	Sheila Please talk to Avashe.	221306002	1477951274743	1477951274814	s	83
432256	4660323	Sheila please talk to Avashe.	Sheila Please talk to Avashe.	221306006	1477951274897	1477951275001	e	69
432256	4660323	Sheila please talk to Avashe.	Sheila Please talk to Avashe.	221306009	1477951275009	1477951275115	 	32
432256	4660323	Sheila please talk to Avashe.	Sheila Please talk to Avashe.	221306012	1477951275870	1477951275975	t	84
432256	4660323	Sheila please talk to Avashe.	Sheila Please talk to Avashe.	221306066	1477951276214	1477951276319	a	65
432256	4660323	Sheila please talk to Avashe.	Sheila Please talk to Avashe.	221306068	1477951276360	1477951276427	l	76
432256	4660323	Sheila please talk to Avashe.	Sheila Please talk to Avashe.	221306069	1477951276535	1477951276608	k	75
432256	4660323	Sheila please talk to Avashe.	Sheila Please talk to Avashe.	221306072	1477951276703	1477951276807	 	32
432256	4660323	Sheila please talk to Avashe.	Sheila Please talk to Avashe.	221306074	1477951277243	1477951277354	t	84
432256	4660323	Sheila please talk to Avashe.	Sheila Please talk to Avashe.	221306121	1477951277374	1477951277453	o	79
432256	4660323	Sheila please talk to Avashe.	Sheila Please talk to Avashe.	221306122	1477951277598	1477951277710	 	32
432256	4660323	Sheila please talk to Avashe.	Sheila Please talk to Avashe.	221306123	1477951277763	1477951277876	CAPS_LOCK	20
432256	4660323	Sheila please talk to Avashe.	Sheila Please talk to Avashe.	221306127	1477951278013	1477951278113	A	65
432256	4660323	Sheila please talk to Avashe.	Sheila Please talk to Avashe.	221306131	1477951278177	1477951278280	CAPS_LOCK	20
432256	4660323	Sheila please talk to Avashe.	Sheila Please talk to Avashe.	221306135	1477951279092	1477951279163	v	86
432256	4660323	Sheila please talk to Avashe.	Sheila Please talk to Avashe.	221306140	1477951279368	1477951279472	a	65
432256	4660323	Sheila please talk to Avashe.	Sheila Please talk to Avashe.	221306188	1477951279555	1477951279660	s	83
432256	4660323	Sheila please talk to Avashe.	Sheila Please talk to Avashe.	221306191	1477951279717	1477951279859	h	72
432256	4660323	Sheila please talk to Avashe.	Sheila Please talk to Avashe.	221306195	1477951279823	1477951279929	e	69
432256	4660323	Sheila please talk to Avashe.	Sheila Please talk to Avashe.	221306201	1477951280822	1477951280895	.	190
432256	4660336	Talk to you soon.	Talk to you soon.	221306322	1477951283896	1477951284035	CAPS_LOCK	20
432256	4660336	Talk to you soon.	Talk to you soon.	221306327	1477951284194	1477951284261	T	84
432256	4660336	Talk to you soon.	Talk to you soon.	221306333	1477951284333	1477951284438	CAPS_LOCK	20
432256	4660336	Talk to you soon.	Talk to you soon.	221306340	1477951284607	1477951284711	l	76
432256	4660336	Talk to you soon.	Talk to you soon.	221306345	1477951284733	1477951284836	a	65
432256	4660336	Talk to you soon.	Talk to you soon.	221306351	1477951284849	1477951284920	k	75
432256	4660336	Talk to you soon.	Talk to you soon.	221306356	1477951285017	1477951285123	 	32
432256	4660336	Talk to you soon.	Talk to you soon.	221306450	1477951285662	1477951285768	t	84
432256	4660336	Talk to you soon.	Talk to you soon.	221306457	1477951285772	1477951285838	o	79
432256	4660336	Talk to you soon.	Talk to you soon.	221306463	1477951285955	1477951286060	 	32
432256	4660336	Talk to you soon.	Talk to you soon.	221306467	1477951286302	1477951287223	BKSP	8
432256	4660336	Talk to you soon.	Talk to you soon.	221306471	1477951287417	1477951287534	CAPS_LOCK	20
432256	4660336	Talk to you soon.	Talk to you soon.	221306473	1477951287554	1477951287661	T	84
432256	4660336	Talk to you soon.	Talk to you soon.	221306475	1477951287670	1477951287781	CAPS_LOCK	20
432256	4660336	Talk to you soon.	Talk to you soon.	221306478	1477951287991	1477951288093	a	65
432256	4660336	Talk to you soon.	Talk to you soon.	221306504	1477951288122	1477951288203	l	76
432256	4660336	Talk to you soon.	Talk to you soon.	221306505	1477951288289	1477951288363	k	75
432256	4660336	Talk to you soon.	Talk to you soon.	221306506	1477951288452	1477951288529	 	32
432256	4660336	Talk to you soon.	Talk to you soon.	221306508	1477951289108	1477951289215	t	84
432256	4660336	Talk to you soon.	Talk to you soon.	221306511	1477951289229	1477951289301	o	79
432256	4660336	Talk to you soon.	Talk to you soon.	221306553	1477951289419	1477951289524	 	32
432256	4660336	Talk to you soon.	Talk to you soon.	221306555	1477951289858	1477951289966	y	89
432256	4660336	Talk to you soon.	Talk to you soon.	221306558	1477951289986	1477951290094	o	79
432256	4660336	Talk to you soon.	Talk to you soon.	221306560	1477951290097	1477951290165	u	85
432256	4660336	Talk to you soon.	Talk to you soon.	221306564	1477951290228	1477951290306	 	32
432256	4660336	Talk to you soon.	Talk to you soon.	221306636	1477951290500	1477951290611	s	83
432256	4660336	Talk to you soon.	Talk to you soon.	221306640	1477951290743	1477951290817	o	79
432256	4660336	Talk to you soon.	Talk to you soon.	221306646	1477951290901	1477951290976	o	79
432256	4660336	Talk to you soon.	Talk to you soon.	221306652	1477951291119	1477951291145	n	78
432256	4660336	Talk to you soon.	Talk to you soon.	221306657	1477951291968	1477951292040	.	190
432256	4660347	I need to link them up to the Tagg deal.	I need to link them up to the Tagg deal.	221306820	1477951295306	1477951295412	CAPS_LOCK	20
432256	4660347	I need to link them up to the Tagg deal.	I need to link them up to the Tagg deal.	221306824	1477951295425	1477951295528	I	73
432256	4660347	I need to link them up to the Tagg deal.	I need to link them up to the Tagg deal.	221306827	1477951295560	1477951295631	CAPS_LOCK	20
432256	4660347	I need to link them up to the Tagg deal.	I need to link them up to the Tagg deal.	221306832	1477951295670	1477951295776	 	32
432256	4660347	I need to link them up to the Tagg deal.	I need to link them up to the Tagg deal.	221306838	1477951295867	1477951295939	n	78
432256	4660347	I need to link them up to the Tagg deal.	I need to link them up to the Tagg deal.	221306841	1477951295956	1477951296060	e	69
432256	4660347	I need to link them up to the Tagg deal.	I need to link them up to the Tagg deal.	221306846	1477951296284	1477951296319	d	68
432256	4660347	I need to link them up to the Tagg deal.	I need to link them up to the Tagg deal.	221306870	1477951296667	1477951296736	BKSP	8
432256	4660347	I need to link them up to the Tagg deal.	I need to link them up to the Tagg deal.	221306874	1477951296832	1477951296935	e	69
432256	4660347	I need to link them up to the Tagg deal.	I need to link them up to the Tagg deal.	221306877	1477951297025	1477951297131	d	68
432256	4660347	I need to link them up to the Tagg deal.	I need to link them up to the Tagg deal.	221306879	1477951297140	1477951297279	 	32
432256	4660347	I need to link them up to the Tagg deal.	I need to link them up to the Tagg deal.	221306881	1477951297610	1477951297724	t	84
432256	4660347	I need to link them up to the Tagg deal.	I need to link them up to the Tagg deal.	221306883	1477951297856	1477951297966	o	79
432256	4660347	I need to link them up to the Tagg deal.	I need to link them up to the Tagg deal.	221306942	1477951298126	1477951298233	 	32
432256	4660347	I need to link them up to the Tagg deal.	I need to link them up to the Tagg deal.	221306946	1477951298944	1477951299049	l	76
432256	4660347	I need to link them up to the Tagg deal.	I need to link them up to the Tagg deal.	221306949	1477951299178	1477951299248	i	73
432256	4660347	I need to link them up to the Tagg deal.	I need to link them up to the Tagg deal.	221306951	1477951299380	1477951299448	m	77
432256	4660347	I need to link them up to the Tagg deal.	I need to link them up to the Tagg deal.	221306953	1477951299622	1477951299690	k	75
432256	4660347	I need to link them up to the Tagg deal.	I need to link them up to the Tagg deal.	221307086	1477951299964	1477951300104	BKSP	8
432256	4660347	I need to link them up to the Tagg deal.	I need to link them up to the Tagg deal.	221307088	1477951300171	1477951300275	BKSP	8
432256	4660347	I need to link them up to the Tagg deal.	I need to link them up to the Tagg deal.	221307089	1477951300723	1477951300827	n	78
432256	4660347	I need to link them up to the Tagg deal.	I need to link them up to the Tagg deal.	221307090	1477951300993	1477951301027	l	76
432256	4660347	I need to link them up to the Tagg deal.	I need to link them up to the Tagg deal.	221307091	1477951301943	1477951302012	BKSP	8
432256	4660347	I need to link them up to the Tagg deal.	I need to link them up to the Tagg deal.	221307092	1477951302286	1477951302354	k	75
432256	4660347	I need to link them up to the Tagg deal.	I need to link them up to the Tagg deal.	221307093	1477951302494	1477951302531	 	32
432256	4660347	I need to link them up to the Tagg deal.	I need to link them up to the Tagg deal.	221307094	1477951303386	1477951303526	t	84
432256	4660347	I need to link them up to the Tagg deal.	I need to link them up to the Tagg deal.	221307139	1477951303567	1477951303668	h	72
432256	4660347	I need to link them up to the Tagg deal.	I need to link them up to the Tagg deal.	221307143	1477951303747	1477951303851	e	69
432256	4660347	I need to link them up to the Tagg deal.	I need to link them up to the Tagg deal.	221307145	1477951303865	1477951303934	m	77
432256	4660347	I need to link them up to the Tagg deal.	I need to link them up to the Tagg deal.	221307148	1477951304346	1477951304413	 	32
432256	4660347	I need to link them up to the Tagg deal.	I need to link them up to the Tagg deal.	221307152	1477951304931	1477951305000	u	85
432256	4660347	I need to link them up to the Tagg deal.	I need to link them up to the Tagg deal.	221307230	1477951305426	1477951305493	p	80
432256	4660347	I need to link them up to the Tagg deal.	I need to link them up to the Tagg deal.	221307234	1477951305812	1477951305918	 	32
432256	4660347	I need to link them up to the Tagg deal.	I need to link them up to the Tagg deal.	221307237	1477951306491	1477951306632	t	84
432256	4660347	I need to link them up to the Tagg deal.	I need to link them up to the Tagg deal.	221307240	1477951306635	1477951306700	o	79
432256	4660347	I need to link them up to the Tagg deal.	I need to link them up to the Tagg deal.	221307244	1477951306838	1477951306943	 	32
432256	4660347	I need to link them up to the Tagg deal.	I need to link them up to the Tagg deal.	221307291	1477951307084	1477951307191	t	84
432256	4660347	I need to link them up to the Tagg deal.	I need to link them up to the Tagg deal.	221307293	1477951307220	1477951307326	h	72
432256	4660347	I need to link them up to the Tagg deal.	I need to link them up to the Tagg deal.	221307295	1477951307401	1477951307507	e	69
432256	4660347	I need to link them up to the Tagg deal.	I need to link them up to the Tagg deal.	221307297	1477951307510	1477951307612	 	32
432256	4660347	I need to link them up to the Tagg deal.	I need to link them up to the Tagg deal.	221307299	1477951307944	1477951308085	CAPS_LOCK	20
432256	4660347	I need to link them up to the Tagg deal.	I need to link them up to the Tagg deal.	221307302	1477951308257	1477951308324	T	84
432256	4660347	I need to link them up to the Tagg deal.	I need to link them up to the Tagg deal.	221307354	1477951308435	1477951308547	CAPS_LOCK	20
432256	4660347	I need to link them up to the Tagg deal.	I need to link them up to the Tagg deal.	221307357	1477951308684	1477951308765	g	71
432256	4660347	I need to link them up to the Tagg deal.	I need to link them up to the Tagg deal.	221307362	1477951308855	1477951308928	g	71
432256	4660347	I need to link them up to the Tagg deal.	I need to link them up to the Tagg deal.	221307369	1477951309263	1477951309339	BKSP	8
432256	4660347	I need to link them up to the Tagg deal.	I need to link them up to the Tagg deal.	221307373	1477951309405	1477951309479	BKSP	8
432256	4660347	I need to link them up to the Tagg deal.	I need to link them up to the Tagg deal.	221307376	1477951309538	1477951309646	a	65
432256	4660347	I need to link them up to the Tagg deal.	I need to link them up to the Tagg deal.	221307378	1477951309792	1477951309832	h	71
432256	4660347	I need to link them up to the Tagg deal.	I need to link them up to the Tagg deal.	221307468	1477951309932	1477951310015	g	71
432256	4660347	I need to link them up to the Tagg deal.	I need to link them up to the Tagg deal.	221307471	1477951310295	1477951310340	BKSP	8
432256	4660347	I need to link them up to the Tagg deal.	I need to link them up to the Tagg deal.	221307473	1477951310527	1477951310598	BKSP	8
432256	4660347	I need to link them up to the Tagg deal.	I need to link them up to the Tagg deal.	221307475	1477951310971	1477951311042	g	71
432256	4660347	I need to link them up to the Tagg deal.	I need to link them up to the Tagg deal.	221307476	1477951311857	1477951311925	 	32
432256	4660347	I need to link them up to the Tagg deal.	I need to link them up to the Tagg deal.	221307477	1477951312358	1477951312465	d	68
432256	4660347	I need to link them up to the Tagg deal.	I need to link them up to the Tagg deal.	221307478	1477951312542	1477951312648	e	69
432256	4660347	I need to link them up to the Tagg deal.	I need to link them up to the Tagg deal.	221307565	1477951312775	1477951312879	a	65
432256	4660347	I need to link them up to the Tagg deal.	I need to link them up to the Tagg deal.	221307567	1477951312895	1477951312965	l	76
432256	4660347	I need to link them up to the Tagg deal.	I need to link them up to the Tagg deal.	221307572	1477951314770	1477951314840	.	190
432256	4660368	John, please send this to Shelly.	John, please send this to Shelly.	221307745	1477951318090	1477951318194	CAPS_LOCK	20
432256	4660368	John, please send this to Shelly.	John, please send this to Shelly.	221307749	1477951318463	1477951318533	J	74
432256	4660368	John, please send this to Shelly.	John, please send this to Shelly.	221307753	1477951318617	1477951318686	CAPS_LOCK	20
432256	4660368	John, please send this to Shelly.	John, please send this to Shelly.	221307757	1477951318842	1477951318949	o	79
432256	4660368	John, please send this to Shelly.	John, please send this to Shelly.	221307759	1477951319170	1477951319275	h	72
432256	4660368	John, please send this to Shelly.	John, please send this to Shelly.	221307760	1477951319383	1477951319452	n	78
432256	4660368	John, please send this to Shelly.	John, please send this to Shelly.	221307761	1477951319984	1477951320089	,	188
432256	4660368	John, please send this to Shelly.	John, please send this to Shelly.	221307793	1477951320333	1477951320403	 	32
432256	4660368	John, please send this to Shelly.	John, please send this to Shelly.	221307795	1477951320760	1477951320830	p	80
432256	4660368	John, please send this to Shelly.	John, please send this to Shelly.	221307800	1477951320956	1477951321026	l	76
432256	4660368	John, please send this to Shelly.	John, please send this to Shelly.	221307805	1477951321180	1477951321284	e	69
432256	4660368	John, please send this to Shelly.	John, please send this to Shelly.	221307809	1477951321425	1477951321494	a	65
432256	4660368	John, please send this to Shelly.	John, please send this to Shelly.	221307835	1477951321566	1477951321635	s	83
432256	4660368	John, please send this to Shelly.	John, please send this to Shelly.	221307838	1477951321711	1477951321815	e	69
432256	4660368	John, please send this to Shelly.	John, please send this to Shelly.	221307840	1477951321830	1477951321936	 	32
432256	4660368	John, please send this to Shelly.	John, please send this to Shelly.	221307843	1477951322253	1477951322358	s	83
432256	4660368	John, please send this to Shelly.	John, please send this to Shelly.	221307846	1477951322468	1477951322573	e	69
432256	4660368	John, please send this to Shelly.	John, please send this to Shelly.	221307877	1477951322630	1477951322732	n	78
432256	4660368	John, please send this to Shelly.	John, please send this to Shelly.	221307880	1477951322744	1477951322850	d	68
432256	4660368	John, please send this to Shelly.	John, please send this to Shelly.	221307882	1477951322867	1477951322971	 	32
432256	4660368	John, please send this to Shelly.	John, please send this to Shelly.	221307884	1477951323584	1477951323689	t	84
432256	4660368	John, please send this to Shelly.	John, please send this to Shelly.	221307886	1477951323697	1477951323768	h	72
432256	4660368	John, please send this to Shelly.	John, please send this to Shelly.	221307927	1477951323943	1477951324046	i	73
432256	4660368	John, please send this to Shelly.	John, please send this to Shelly.	221307929	1477951324051	1477951324156	s	83
432256	4660368	John, please send this to Shelly.	John, please send this to Shelly.	221307930	1477951324202	1477951324308	 	32
432256	4660368	John, please send this to Shelly.	John, please send this to Shelly.	221307931	1477951324930	1477951325034	t	84
432256	4660368	John, please send this to Shelly.	John, please send this to Shelly.	221307932	1477951325099	1477951325169	o	79
432256	4660368	John, please send this to Shelly.	John, please send this to Shelly.	221307968	1477951325338	1477951325407	 	32
432256	4660368	John, please send this to Shelly.	John, please send this to Shelly.	221307970	1477951325467	1477951325571	CAPS_LOCK	20
432256	4660368	John, please send this to Shelly.	John, please send this to Shelly.	221307973	1477951325863	1477951325966	S	83
432256	4660368	John, please send this to Shelly.	John, please send this to Shelly.	221307975	1477951326090	1477951326196	CAPS_LOCK	20
432256	4660368	John, please send this to Shelly.	John, please send this to Shelly.	221307978	1477951326222	1477951326293	h	72
432256	4660368	John, please send this to Shelly.	John, please send this to Shelly.	221307981	1477951326401	1477951326470	e	69
432256	4660368	John, please send this to Shelly.	John, please send this to Shelly.	221307985	1477951326621	1477951326693	l	76
432256	4660368	John, please send this to Shelly.	John, please send this to Shelly.	221308043	1477951326750	1477951326786	l	76
432256	4660368	John, please send this to Shelly.	John, please send this to Shelly.	221308047	1477951326950	1477951326986	y	72
432256	4660368	John, please send this to Shelly.	John, please send this to Shelly.	221308051	1477951327559	1477951327630	BKSP	8
432256	4660368	John, please send this to Shelly.	John, please send this to Shelly.	221308055	1477951327945	1477951328016	BKSP	8
432256	4660368	John, please send this to Shelly.	John, please send this to Shelly.	221308059	1477951328349	1477951328419	y	89
432256	4660368	John, please send this to Shelly.	John, please send this to Shelly.	221308062	1477951328816	1477951328888	.	190
