PARTICIPANT_ID	TEST_SECTION_ID	SENTENCE	USER_INPUT	KEYSTROKE_ID	PRESS_TIME	RELEASE_TIME	LETTER	KEYCODE
434637	4686688	I'm looking forward to the long weekend!	I'm looking forward to the long weekend!	222561373	1477997865224	1477997865324	NA	73
434637	4686688	I'm looking forward to the long weekend!	I'm looking forward to the long weekend!	222561376	1477997865812	1477997865981	NA	222
434637	4686688	I'm looking forward to the long weekend!	I'm looking forward to the long weekend!	222561381	1477997866320	1477997866409		8
434637	4686688	I'm looking forward to the long weekend!	I'm looking forward to the long weekend!	222561384	1477997866479	1477997866581		8
434637	4686688	I'm looking forward to the long weekend!	I'm looking forward to the long weekend!	222561408	1477997866604	1477997866864	SHIFT	16
434637	4686688	I'm looking forward to the long weekend!	I'm looking forward to the long weekend!	222561385	1477997866727	1477997866849	NA	73
434637	4686688	I'm looking forward to the long weekend!	I'm looking forward to the long weekend!	222561411	1477997867049	1477997867182	NA	222
434637	4686688	I'm looking forward to the long weekend!	I'm looking forward to the long weekend!	222561413	1477997867484	1477997867593	NA	188
434637	4686688	I'm looking forward to the long weekend!	I'm looking forward to the long weekend!	222561414	1477997867878	1477997867964		8
434637	4686688	I'm looking forward to the long weekend!	I'm looking forward to the long weekend!	222561415	1477997868026	1477997868099		8
434637	4686688	I'm looking forward to the long weekend!	I'm looking forward to the long weekend!	222561445	1477997868226	1477997868321	NA	77
434637	4686688	I'm looking forward to the long weekend!	I'm looking forward to the long weekend!	222561446	1477997868420	1477997868516	NA	32
434637	4686688	I'm looking forward to the long weekend!	I'm looking forward to the long weekend!	222561447	1477997868786	1477997868900	NA	76
434637	4686688	I'm looking forward to the long weekend!	I'm looking forward to the long weekend!	222561448	1477997869015	1477997869094	NA	79
434637	4686688	I'm looking forward to the long weekend!	I'm looking forward to the long weekend!	222561449	1477997869153	1477997869245	NA	79
434637	4686688	I'm looking forward to the long weekend!	I'm looking forward to the long weekend!	222561463	1477997869351	1477997869439	NA	75
434637	4686688	I'm looking forward to the long weekend!	I'm looking forward to the long weekend!	222561464	1477997869510	1477997869602	NA	73
434637	4686688	I'm looking forward to the long weekend!	I'm looking forward to the long weekend!	222561465	1477997869645	1477997869768	NA	78
434637	4686688	I'm looking forward to the long weekend!	I'm looking forward to the long weekend!	222561466	1477997869779	1477997869912	NA	71
434637	4686688	I'm looking forward to the long weekend!	I'm looking forward to the long weekend!	222561484	1477997869850	1477997869949	NA	32
434637	4686688	I'm looking forward to the long weekend!	I'm looking forward to the long weekend!	222561485	1477997870083	1477997870239	NA	70
434637	4686688	I'm looking forward to the long weekend!	I'm looking forward to the long weekend!	222561486	1477997870275	1477997870430	NA	79
434637	4686688	I'm looking forward to the long weekend!	I'm looking forward to the long weekend!	222561487	1477997870385	1477997870505	NA	82
434637	4686688	I'm looking forward to the long weekend!	I'm looking forward to the long weekend!	222561488	1477997870702	1477997870827	NA	87
434637	4686688	I'm looking forward to the long weekend!	I'm looking forward to the long weekend!	222561489	1477997870894	1477997871050	NA	65
434637	4686688	I'm looking forward to the long weekend!	I'm looking forward to the long weekend!	222561491	1477997871057	1477997871185	NA	82
434637	4686688	I'm looking forward to the long weekend!	I'm looking forward to the long weekend!	222561494	1477997871265	1477997871525	NA	68
434637	4686688	I'm looking forward to the long weekend!	I'm looking forward to the long weekend!	222561497	1477997871340	1477997871526	NA	32
434637	4686688	I'm looking forward to the long weekend!	I'm looking forward to the long weekend!	222561499	1477997871527	1477997871565	NA	79
434637	4686688	I'm looking forward to the long weekend!	I'm looking forward to the long weekend!	222561519	1477997871685	1477997871777	NA	32
434637	4686688	I'm looking forward to the long weekend!	I'm looking forward to the long weekend!	222561521	1477997872090	1477997872172		8
434637	4686688	I'm looking forward to the long weekend!	I'm looking forward to the long weekend!	222561523	1477997872252	1477997872307		8
434637	4686688	I'm looking forward to the long weekend!	I'm looking forward to the long weekend!	222561525	1477997872377	1477997872469		8
434637	4686688	I'm looking forward to the long weekend!	I'm looking forward to the long weekend!	222561528	1477997872651	1477997872759	NA	79
434637	4686688	I'm looking forward to the long weekend!	I'm looking forward to the long weekend!	222561540	1477997872959	1477997873108	NA	84
434637	4686688	I'm looking forward to the long weekend!	I'm looking forward to the long weekend!	222561542	1477997873365	1477997873438		8
434637	4686688	I'm looking forward to the long weekend!	I'm looking forward to the long weekend!	222561544	1477997873499	1477997873592		8
434637	4686688	I'm looking forward to the long weekend!	I'm looking forward to the long weekend!	222561546	1477997873694	1477997873821	NA	84
434637	4686688	I'm looking forward to the long weekend!	I'm looking forward to the long weekend!	222561547	1477997873829	1477997873930	NA	79
434637	4686688	I'm looking forward to the long weekend!	I'm looking forward to the long weekend!	222561554	1477997874235	1477997874346	NA	32
434637	4686688	I'm looking forward to the long weekend!	I'm looking forward to the long weekend!	222561555	1477997874413	1477997874537	NA	84
434637	4686688	I'm looking forward to the long weekend!	I'm looking forward to the long weekend!	222561556	1477997874469	1477997874592	NA	72
434637	4686688	I'm looking forward to the long weekend!	I'm looking forward to the long weekend!	222561577	1477997874563	1477997874654	NA	69
434637	4686688	I'm looking forward to the long weekend!	I'm looking forward to the long weekend!	222561579	1477997875085	1477997875177	NA	76
434637	4686688	I'm looking forward to the long weekend!	I'm looking forward to the long weekend!	222561580	1477997875240	1477997875337	NA	79
434637	4686688	I'm looking forward to the long weekend!	I'm looking forward to the long weekend!	222561581	1477997875373	1477997875513	NA	78
434637	4686688	I'm looking forward to the long weekend!	I'm looking forward to the long weekend!	222561582	1477997875517	1477997875640	NA	71
434637	4686688	I'm looking forward to the long weekend!	I'm looking forward to the long weekend!	222561598	1477997875615	1477997875747	NA	32
434637	4686688	I'm looking forward to the long weekend!	I'm looking forward to the long weekend!	222561600	1477997876083	1477997876226	NA	87
434637	4686688	I'm looking forward to the long weekend!	I'm looking forward to the long weekend!	222561601	1477997876370	1477997876459	NA	69
434637	4686688	I'm looking forward to the long weekend!	I'm looking forward to the long weekend!	222561602	1477997876536	1477997876622	NA	69
434637	4686688	I'm looking forward to the long weekend!	I'm looking forward to the long weekend!	222561603	1477997876680	1477997876828	NA	75
434637	4686688	I'm looking forward to the long weekend!	I'm looking forward to the long weekend!	222561607	1477997876812	1477997876916	NA	69
434637	4686688	I'm looking forward to the long weekend!	I'm looking forward to the long weekend!	222561609	1477997876943	1477997877075	NA	78
434637	4686688	I'm looking forward to the long weekend!	I'm looking forward to the long weekend!	222561611	1477997877049	1477997877183	NA	68
434637	4686688	I'm looking forward to the long weekend!	I'm looking forward to the long weekend!	222561613	1477997877664	1477997877975	SHIFT	16
434637	4686688	I'm looking forward to the long weekend!	I'm looking forward to the long weekend!	222561615	1477997878033	1477997878615	SHIFT	16
434637	4686688	I'm looking forward to the long weekend!	I'm looking forward to the long weekend!	222561617	1477997878483	1477997878668	NA	49
434637	4686700	I'll call you when I get to the office.	I'll call you when I get to the office.	222561701	1477997883106	1477997883214	NA	73
434637	4686700	I'll call you when I get to the office.	I'll call you when I get to the office.	222561702	1477997883717	1477997883800		8
434637	4686700	I'll call you when I get to the office.	I'll call you when I get to the office.	222561703	1477997883817	1477997884026	SHIFT	16
434637	4686700	I'll call you when I get to the office.	I'll call you when I get to the office.	222561704	1477997883930	1477997884035	NA	73
434637	4686700	I'll call you when I get to the office.	I'll call you when I get to the office.	222561706	1477997884172	1477997884306	NA	222
434637	4686700	I'll call you when I get to the office.	I'll call you when I get to the office.	222561722	1477997885194	1477997885541	SHIFT	16
434637	4686700	I'll call you when I get to the office.	I'll call you when I get to the office.	222561708	1477997885332	1477997885419	NA	76
434637	4686700	I'll call you when I get to the office.	I'll call you when I get to the office.	222561724	1477997885493	1477997885573	NA	76
434637	4686700	I'll call you when I get to the office.	I'll call you when I get to the office.	222561725	1477997885918	1477997885997		8
434637	4686700	I'll call you when I get to the office.	I'll call you when I get to the office.	222561726	1477997886056	1477997886138		8
434637	4686700	I'll call you when I get to the office.	I'll call you when I get to the office.	222561727	1477997886272	1477997886368	NA	76
434637	4686700	I'll call you when I get to the office.	I'll call you when I get to the office.	222561728	1477997886432	1477997886543	NA	76
434637	4686700	I'll call you when I get to the office.	I'll call you when I get to the office.	222561745	1477997886636	1477997886750	NA	32
434637	4686700	I'll call you when I get to the office.	I'll call you when I get to the office.	222561746	1477997887411	1477997887636	NA	67
434637	4686700	I'll call you when I get to the office.	I'll call you when I get to the office.	222561747	1477997887550	1477997887709	NA	65
434637	4686700	I'll call you when I get to the office.	I'll call you when I get to the office.	222561748	1477997887742	1477997887821	NA	76
434637	4686700	I'll call you when I get to the office.	I'll call you when I get to the office.	222561749	1477997887892	1477997887975	NA	76
434637	4686700	I'll call you when I get to the office.	I'll call you when I get to the office.	222561766	1477997888027	1477997888144	NA	32
434637	4686700	I'll call you when I get to the office.	I'll call you when I get to the office.	222561767	1477997888433	1477997888543	NA	89
434637	4686700	I'll call you when I get to the office.	I'll call you when I get to the office.	222561768	1477997888530	1477997888668	NA	79
434637	4686700	I'll call you when I get to the office.	I'll call you when I get to the office.	222561769	1477997888617	1477997888760	NA	85
434637	4686700	I'll call you when I get to the office.	I'll call you when I get to the office.	222561770	1477997888941	1477997889065	NA	32
434637	4686700	I'll call you when I get to the office.	I'll call you when I get to the office.	222561778	1477997889114	1477997889240	NA	87
434637	4686700	I'll call you when I get to the office.	I'll call you when I get to the office.	222561780	1477997889208	1477997889346	NA	72
434637	4686700	I'll call you when I get to the office.	I'll call you when I get to the office.	222561783	1477997889333	1477997889419	NA	69
434637	4686700	I'll call you when I get to the office.	I'll call you when I get to the office.	222561786	1477997889445	1477997889559	NA	78
434637	4686700	I'll call you when I get to the office.	I'll call you when I get to the office.	222561811	1477997889504	1477997889651	NA	32
434637	4686700	I'll call you when I get to the office.	I'll call you when I get to the office.	222561814	1477997889800	1477997889952	SHIFT	16
434637	4686700	I'll call you when I get to the office.	I'll call you when I get to the office.	222561817	1477997889866	1477997889977	NA	73
434637	4686700	I'll call you when I get to the office.	I'll call you when I get to the office.	222561818	1477997890203	1477997890289		8
434637	4686700	I'll call you when I get to the office.	I'll call you when I get to the office.	222561819	1477997890634	1477997890789	SHIFT	16
434637	4686700	I'll call you when I get to the office.	I'll call you when I get to the office.	222561820	1477997890731	1477997890833	NA	73
434637	4686700	I'll call you when I get to the office.	I'll call you when I get to the office.	222561821	1477997890844	1477997890971	NA	32
434637	4686700	I'll call you when I get to the office.	I'll call you when I get to the office.	222561822	1477997891064	1477997891232	NA	71
434637	4686700	I'll call you when I get to the office.	I'll call you when I get to the office.	222561823	1477997891236	1477997891383	NA	69
434637	4686700	I'll call you when I get to the office.	I'll call you when I get to the office.	222561824	1477997891397	1477997891567	NA	84
434637	4686700	I'll call you when I get to the office.	I'll call you when I get to the office.	222561825	1477997891497	1477997891612	NA	32
434637	4686700	I'll call you when I get to the office.	I'll call you when I get to the office.	222561831	1477997891706	1477997891839	NA	84
434637	4686700	I'll call you when I get to the office.	I'll call you when I get to the office.	222561832	1477997891778	1477997891902	NA	32
434637	4686700	I'll call you when I get to the office.	I'll call you when I get to the office.	222561833	1477997892257	1477997892373	NA	84
434637	4686700	I'll call you when I get to the office.	I'll call you when I get to the office.	222561834	1477997892354	1477997892487	NA	72
434637	4686700	I'll call you when I get to the office.	I'll call you when I get to the office.	222561835	1477997892416	1477997892513	NA	69
434637	4686700	I'll call you when I get to the office.	I'll call you when I get to the office.	222561836	1477997892497	1477997892586	NA	32
434637	4686700	I'll call you when I get to the office.	I'll call you when I get to the office.	222561837	1477997892979	1477997893087	NA	79
434637	4686700	I'll call you when I get to the office.	I'll call you when I get to the office.	222561863	1477997893284	1477997893376	NA	70
434637	4686700	I'll call you when I get to the office.	I'll call you when I get to the office.	222561864	1477997893437	1477997893536	NA	70
434637	4686700	I'll call you when I get to the office.	I'll call you when I get to the office.	222561865	1477997893543	1477997893667	NA	73
434637	4686700	I'll call you when I get to the office.	I'll call you when I get to the office.	222561866	1477997893675	1477997893809	NA	67
434637	4686700	I'll call you when I get to the office.	I'll call you when I get to the office.	222561867	1477997893851	1477997893930	NA	69
434637	4686700	I'll call you when I get to the office.	I'll call you when I get to the office.	222561925	1477997894298	1477997894366	]	93
434637	4686705	It's still going on - quite boring though.	It's still going on - quite boring though.	222561976	1477997900064	1477997900210	NA	73
434637	4686705	It's still going on - quite boring though.	It's still going on - quite boring though.	222561978	1477997900265	1477997900424	NA	84
434637	4686705	It's still going on - quite boring though.	It's still going on - quite boring though.	222561980	1477997900722	1477997900798		8
434637	4686705	It's still going on - quite boring though.	It's still going on - quite boring though.	222561982	1477997900859	1477997900948		8
434637	4686705	It's still going on - quite boring though.	It's still going on - quite boring though.	222561983	1477997901009	1477997901072		8
434637	4686705	It's still going on - quite boring though.	It's still going on - quite boring though.	222561994	1477997901040	1477997901274	SHIFT	16
434637	4686705	It's still going on - quite boring though.	It's still going on - quite boring though.	222561995	1477997901210	1477997901315	NA	73
434637	4686705	It's still going on - quite boring though.	It's still going on - quite boring though.	222561996	1477997901393	1477997901513	NA	84
434637	4686705	It's still going on - quite boring though.	It's still going on - quite boring though.	222561997	1477997901669	1477997901825	NA	222
434637	4686705	It's still going on - quite boring though.	It's still going on - quite boring though.	222561998	1477997901848	1477997901985	NA	83
434637	4686705	It's still going on - quite boring though.	It's still going on - quite boring though.	222561999	1477997902008	1477997902135	NA	32
434637	4686705	It's still going on - quite boring though.	It's still going on - quite boring though.	222562007	1477997902531	1477997902677	NA	83
434637	4686705	It's still going on - quite boring though.	It's still going on - quite boring though.	222562009	1477997902776	1477997902948	NA	84
434637	4686705	It's still going on - quite boring though.	It's still going on - quite boring though.	222562011	1477997902987	1477997903070	NA	73
434637	4686705	It's still going on - quite boring though.	It's still going on - quite boring though.	222562013	1477997903188	1477997903277	NA	76
434637	4686705	It's still going on - quite boring though.	It's still going on - quite boring though.	222562016	1477997903345	1477997903427	NA	76
434637	4686705	It's still going on - quite boring though.	It's still going on - quite boring though.	222562041	1477997903674	1477997903767	NA	32
434637	4686705	It's still going on - quite boring though.	It's still going on - quite boring though.	222562042	1477997903948	1477997904091	NA	83
434637	4686705	It's still going on - quite boring though.	It's still going on - quite boring though.	222562043	1477997904221	1477997904307		8
434637	4686705	It's still going on - quite boring though.	It's still going on - quite boring though.	222562044	1477997904312	1477997904420	NA	71
434637	4686705	It's still going on - quite boring though.	It's still going on - quite boring though.	222562045	1477997904453	1477997904631	NA	79
434637	4686705	It's still going on - quite boring though.	It's still going on - quite boring though.	222562051	1477997904687	1477997904800	NA	73
434637	4686705	It's still going on - quite boring though.	It's still going on - quite boring though.	222562052	1477997904855	1477997904980	NA	78
434637	4686705	It's still going on - quite boring though.	It's still going on - quite boring though.	222562053	1477997904968	1477997905081	NA	71
434637	4686705	It's still going on - quite boring though.	It's still going on - quite boring though.	222562054	1477997905052	1477997905157	NA	32
434637	4686705	It's still going on - quite boring though.	It's still going on - quite boring though.	222562055	1477997905212	1477997905342	NA	79
434637	4686705	It's still going on - quite boring though.	It's still going on - quite boring though.	222562072	1477997905350	1477997905467	NA	78
434637	4686705	It's still going on - quite boring though.	It's still going on - quite boring though.	222562074	1477997905835	1477997905933	NA	32
434637	4686705	It's still going on - quite boring though.	It's still going on - quite boring though.	222562076	1477997906045	1477997906236	NA	173
434637	4686705	It's still going on - quite boring though.	It's still going on - quite boring though.	222562078	1477997906392	1477997906496	NA	32
434637	4686705	It's still going on - quite boring though.	It's still going on - quite boring though.	222562080	1477997906886	1477997907032	NA	71
434637	4686705	It's still going on - quite boring though.	It's still going on - quite boring though.	222562104	1477997907188	1477997907271		8
434637	4686705	It's still going on - quite boring though.	It's still going on - quite boring though.	222562106	1477997907307	1477997907453	NA	81
434637	4686705	It's still going on - quite boring though.	It's still going on - quite boring though.	222562108	1477997907486	1477997907600	NA	73
434637	4686705	It's still going on - quite boring though.	It's still going on - quite boring though.	222562111	1477997907753	1477997907842		8
434637	4686705	It's still going on - quite boring though.	It's still going on - quite boring though.	222562113	1477997908326	1477997908456	NA	85
434637	4686705	It's still going on - quite boring though.	It's still going on - quite boring though.	222562125	1477997908530	1477997908642	NA	73
434637	4686705	It's still going on - quite boring though.	It's still going on - quite boring though.	222562127	1477997908697	1477997908857	NA	84
434637	4686705	It's still going on - quite boring though.	It's still going on - quite boring though.	222562129	1477997908850	1477997908946	NA	69
434637	4686705	It's still going on - quite boring though.	It's still going on - quite boring though.	222562131	1477997908953	1477997909068	NA	32
434637	4686705	It's still going on - quite boring though.	It's still going on - quite boring though.	222562134	1477997909400	1477997909515	NA	66
434637	4686705	It's still going on - quite boring though.	It's still going on - quite boring though.	222562147	1477997909601	1477997909725	NA	82
434637	4686705	It's still going on - quite boring though.	It's still going on - quite boring though.	222562148	1477997909730	1477997909838	NA	79
434637	4686705	It's still going on - quite boring though.	It's still going on - quite boring though.	222562149	1477997910044	1477997910162	NA	73
434637	4686705	It's still going on - quite boring though.	It's still going on - quite boring though.	222562150	1477997910565	1477997910647		8
434637	4686705	It's still going on - quite boring though.	It's still going on - quite boring though.	222562151	1477997910717	1477997910806		8
434637	4686705	It's still going on - quite boring though.	It's still going on - quite boring though.	222562168	1477997910883	1477997910979		8
434637	4686705	It's still going on - quite boring though.	It's still going on - quite boring though.	222562169	1477997911305	1477997911385		8
434637	4686705	It's still going on - quite boring though.	It's still going on - quite boring though.	222562170	1477997911525	1477997911598	NA	79
434637	4686705	It's still going on - quite boring though.	It's still going on - quite boring though.	222562172	1477997911807	1477997911906		8
434637	4686705	It's still going on - quite boring though.	It's still going on - quite boring though.	222562174	1477997912011	1477997912097	NA	66
434637	4686705	It's still going on - quite boring though.	It's still going on - quite boring though.	222562185	1477997912155	1477997912260	NA	79
434637	4686705	It's still going on - quite boring though.	It's still going on - quite boring though.	222562186	1477997912274	1477997912376	NA	82
434637	4686705	It's still going on - quite boring though.	It's still going on - quite boring though.	222562187	1477997912409	1477997912545	NA	73
434637	4686705	It's still going on - quite boring though.	It's still going on - quite boring though.	222562188	1477997912581	1477997912708	NA	78
434637	4686705	It's still going on - quite boring though.	It's still going on - quite boring though.	222562189	1477997912725	1477997912874	NA	71
434637	4686705	It's still going on - quite boring though.	It's still going on - quite boring though.	222562208	1477997912861	1477997912975	NA	32
434637	4686705	It's still going on - quite boring though.	It's still going on - quite boring though.	222562210	1477997913206	1477997913345	NA	84
434637	4686705	It's still going on - quite boring though.	It's still going on - quite boring though.	222562212	1477997913329	1477997913430	NA	79
434637	4686705	It's still going on - quite boring though.	It's still going on - quite boring though.	222562216	1477997913665	1477997913751		8
434637	4686705	It's still going on - quite boring though.	It's still going on - quite boring though.	222562219	1477997913831	1477997913924	NA	72
434637	4686705	It's still going on - quite boring though.	It's still going on - quite boring though.	222562220	1477997913941	1477997914089	NA	79
434637	4686705	It's still going on - quite boring though.	It's still going on - quite boring though.	222562238	1477997914038	1477997914193	NA	85
434637	4686705	It's still going on - quite boring though.	It's still going on - quite boring though.	222562242	1477997914271	1477997914381	NA	71
434637	4686705	It's still going on - quite boring though.	It's still going on - quite boring though.	222562244	1477997914342	1477997914466	NA	72
434637	4686711	I am not aware of any.	i am not aware of any.	222562300	1477997918685	1477997918806	NA	73
434637	4686711	I am not aware of any.	i am not aware of any.	222562301	1477997918927	1477997919051	NA	32
434637	4686711	I am not aware of any.	i am not aware of any.	222562302	1477997919128	1477997919251	NA	65
434637	4686711	I am not aware of any.	i am not aware of any.	222562303	1477997919219	1477997919351	NA	77
434637	4686711	I am not aware of any.	i am not aware of any.	222562324	1477997919326	1477997919449	NA	32
434637	4686711	I am not aware of any.	i am not aware of any.	222562326	1477997919643	1477997919782	NA	78
434637	4686711	I am not aware of any.	i am not aware of any.	222562328	1477997919737	1477997919882	NA	79
434637	4686711	I am not aware of any.	i am not aware of any.	222562329	1477997919856	1477997920002	NA	84
434637	4686711	I am not aware of any.	i am not aware of any.	222562330	1477997919931	1477997920065	NA	32
434637	4686711	I am not aware of any.	i am not aware of any.	222562331	1477997920180	1477997920323	NA	65
434637	4686711	I am not aware of any.	i am not aware of any.	222562358	1477997920447	1477997920590	NA	87
434637	4686711	I am not aware of any.	i am not aware of any.	222562359	1477997920651	1477997920816	NA	65
434637	4686711	I am not aware of any.	i am not aware of any.	222562360	1477997920764	1477997920911	NA	82
434637	4686711	I am not aware of any.	i am not aware of any.	222562361	1477997921016	1477997921112	NA	68
434637	4686711	I am not aware of any.	i am not aware of any.	222562362	1477997921271	1477997921374		8
434637	4686711	I am not aware of any.	i am not aware of any.	222562377	1477997921355	1477997921465	NA	69
434637	4686711	I am not aware of any.	i am not aware of any.	222562378	1477997921439	1477997921563	NA	32
434637	4686711	I am not aware of any.	i am not aware of any.	222562379	1477997921716	1477997921891	NA	79
434637	4686711	I am not aware of any.	i am not aware of any.	222562380	1477997921946	1477997922085	NA	70
434637	4686711	I am not aware of any.	i am not aware of any.	222562381	1477997922027	1477997922135	NA	32
434637	4686711	I am not aware of any.	i am not aware of any.	222562382	1477997922493	1477997922635	NA	65
434637	4686711	I am not aware of any.	i am not aware of any.	222562396	1477997922622	1477997922729	NA	78
434637	4686711	I am not aware of any.	i am not aware of any.	222562398	1477997922825	1477997922915	NA	89
434637	4686711	I am not aware of any.	i am not aware of any.	222562400	1477997922966	1477997923100	NA	190
434637	4686719	I am hoping to complete them today or tomorrow morning.	i am hoping to complete them today or tomorrow morning.	222562617	1477997932722	1477997932823	NA	73
434637	4686719	I am hoping to complete them today or tomorrow morning.	i am hoping to complete them today or tomorrow morning.	222562619	1477997933007	1477997933131	NA	32
434637	4686719	I am hoping to complete them today or tomorrow morning.	i am hoping to complete them today or tomorrow morning.	222562621	1477997933221	1477997933328	NA	65
434637	4686719	I am hoping to complete them today or tomorrow morning.	i am hoping to complete them today or tomorrow morning.	222562622	1477997933314	1477997933446	NA	77
434637	4686719	I am hoping to complete them today or tomorrow morning.	i am hoping to complete them today or tomorrow morning.	222562676	1477997933424	1477997933535	NA	32
434637	4686719	I am hoping to complete them today or tomorrow morning.	i am hoping to complete them today or tomorrow morning.	222562679	1477997934095	1477997934211	NA	72
434637	4686719	I am hoping to complete them today or tomorrow morning.	i am hoping to complete them today or tomorrow morning.	222562686	1477997934205	1477997934429	NA	79
434637	4686719	I am hoping to complete them today or tomorrow morning.	i am hoping to complete them today or tomorrow morning.	222562684	1477997934330	1477997934410	NA	85
434637	4686719	I am hoping to complete them today or tomorrow morning.	i am hoping to complete them today or tomorrow morning.	222562690	1477997934648	1477997934737		8
434637	4686719	I am hoping to complete them today or tomorrow morning.	i am hoping to complete them today or tomorrow morning.	222562694	1477997934893	1477997935017	NA	80
434637	4686719	I am hoping to complete them today or tomorrow morning.	i am hoping to complete them today or tomorrow morning.	222562707	1477997935056	1477997935171	NA	73
434637	4686719	I am hoping to complete them today or tomorrow morning.	i am hoping to complete them today or tomorrow morning.	222562709	1477997935225	1477997935356	NA	78
434637	4686719	I am hoping to complete them today or tomorrow morning.	i am hoping to complete them today or tomorrow morning.	222562714	1477997935379	1477997935515	NA	71
434637	4686719	I am hoping to complete them today or tomorrow morning.	i am hoping to complete them today or tomorrow morning.	222562718	1477997935444	1477997935568	NA	32
434637	4686719	I am hoping to complete them today or tomorrow morning.	i am hoping to complete them today or tomorrow morning.	222562720	1477997935677	1477997935812	NA	84
434637	4686719	I am hoping to complete them today or tomorrow morning.	i am hoping to complete them today or tomorrow morning.	222562735	1477997935717	1477997935819	NA	79
434637	4686719	I am hoping to complete them today or tomorrow morning.	i am hoping to complete them today or tomorrow morning.	222562736	1477997935767	1477997935888	NA	32
434637	4686719	I am hoping to complete them today or tomorrow morning.	i am hoping to complete them today or tomorrow morning.	222562737	1477997936107	1477997936288	NA	67
434637	4686719	I am hoping to complete them today or tomorrow morning.	i am hoping to complete them today or tomorrow morning.	222562738	1477997936315	1477997936432	NA	79
434637	4686719	I am hoping to complete them today or tomorrow morning.	i am hoping to complete them today or tomorrow morning.	222562739	1477997936516	1477997936617	NA	77
434637	4686719	I am hoping to complete them today or tomorrow morning.	i am hoping to complete them today or tomorrow morning.	222562740	1477997936855	1477997936992	NA	80
434637	4686719	I am hoping to complete them today or tomorrow morning.	i am hoping to complete them today or tomorrow morning.	222562741	1477997937252	1477997937332		8
434637	4686719	I am hoping to complete them today or tomorrow morning.	i am hoping to complete them today or tomorrow morning.	222562770	1477997937499	1477997937608	NA	76
434637	4686719	I am hoping to complete them today or tomorrow morning.	i am hoping to complete them today or tomorrow morning.	222562771	1477997937919	1477997938023		8
434637	4686719	I am hoping to complete them today or tomorrow morning.	i am hoping to complete them today or tomorrow morning.	222562772	1477997938331	1477997938455	NA	80
434637	4686719	I am hoping to complete them today or tomorrow morning.	i am hoping to complete them today or tomorrow morning.	222562773	1477997938687	1477997938833	NA	76
434637	4686719	I am hoping to complete them today or tomorrow morning.	i am hoping to complete them today or tomorrow morning.	222562775	1477997938919	1477997939034	NA	69
434637	4686719	I am hoping to complete them today or tomorrow morning.	i am hoping to complete them today or tomorrow morning.	222562784	1477997939278	1477997939418	NA	84
434637	4686719	I am hoping to complete them today or tomorrow morning.	i am hoping to complete them today or tomorrow morning.	222562785	1477997939422	1477997939521	NA	69
434637	4686719	I am hoping to complete them today or tomorrow morning.	i am hoping to complete them today or tomorrow morning.	222562786	1477997939523	1477997939634	NA	32
434637	4686719	I am hoping to complete them today or tomorrow morning.	i am hoping to complete them today or tomorrow morning.	222562787	1477997939783	1477997939906	NA	84
434637	4686719	I am hoping to complete them today or tomorrow morning.	i am hoping to complete them today or tomorrow morning.	222562827	1477997939887	1477997940010	NA	72
434637	4686719	I am hoping to complete them today or tomorrow morning.	i am hoping to complete them today or tomorrow morning.	222562830	1477997940062	1477997940172	NA	69
434637	4686719	I am hoping to complete them today or tomorrow morning.	i am hoping to complete them today or tomorrow morning.	222562833	1477997940153	1477997940285	NA	77
434637	4686719	I am hoping to complete them today or tomorrow morning.	i am hoping to complete them today or tomorrow morning.	222562835	1477997940266	1477997940389	NA	32
434637	4686719	I am hoping to complete them today or tomorrow morning.	i am hoping to complete them today or tomorrow morning.	222562837	1477997940713	1477997940846	NA	79
434637	4686719	I am hoping to complete them today or tomorrow morning.	i am hoping to complete them today or tomorrow morning.	222562839	1477997940980	1477997941062		8
434637	4686719	I am hoping to complete them today or tomorrow morning.	i am hoping to complete them today or tomorrow morning.	222562855	1477997941032	1477997941169	NA	84
434637	4686719	I am hoping to complete them today or tomorrow morning.	i am hoping to complete them today or tomorrow morning.	222562857	1477997941192	1477997941313	NA	79
434637	4686719	I am hoping to complete them today or tomorrow morning.	i am hoping to complete them today or tomorrow morning.	222562859	1477997941330	1477997941438	NA	65
434637	4686719	I am hoping to complete them today or tomorrow morning.	i am hoping to complete them today or tomorrow morning.	222562863	1477997941559	1477997941728	NA	68
434637	4686719	I am hoping to complete them today or tomorrow morning.	i am hoping to complete them today or tomorrow morning.	222562866	1477997941802	1477997941885		8
434637	4686719	I am hoping to complete them today or tomorrow morning.	i am hoping to complete them today or tomorrow morning.	222562869	1477997941943	1477997942063		8
434637	4686719	I am hoping to complete them today or tomorrow morning.	i am hoping to complete them today or tomorrow morning.	222562906	1477997942071	1477997942220	NA	68
434637	4686719	I am hoping to complete them today or tomorrow morning.	i am hoping to complete them today or tomorrow morning.	222562907	1477997942125	1477997942266	NA	65
434637	4686719	I am hoping to complete them today or tomorrow morning.	i am hoping to complete them today or tomorrow morning.	222562908	1477997942228	1477997942380	NA	89
434637	4686719	I am hoping to complete them today or tomorrow morning.	i am hoping to complete them today or tomorrow morning.	222562909	1477997942410	1477997942556	NA	32
434637	4686719	I am hoping to complete them today or tomorrow morning.	i am hoping to complete them today or tomorrow morning.	222562910	1477997942649	1477997942770	NA	84
434637	4686719	I am hoping to complete them today or tomorrow morning.	i am hoping to complete them today or tomorrow morning.	222562936	1477997943001	1477997943084		8
434637	4686719	I am hoping to complete them today or tomorrow morning.	i am hoping to complete them today or tomorrow morning.	222562940	1477997943262	1477997943383	NA	79
434637	4686719	I am hoping to complete them today or tomorrow morning.	i am hoping to complete them today or tomorrow morning.	222562944	1477997943394	1477997943523	NA	82
434637	4686719	I am hoping to complete them today or tomorrow morning.	i am hoping to complete them today or tomorrow morning.	222562948	1477997943437	1477997943577	NA	32
434637	4686719	I am hoping to complete them today or tomorrow morning.	i am hoping to complete them today or tomorrow morning.	222562951	1477997943711	1477997943857	NA	84
434637	4686719	I am hoping to complete them today or tomorrow morning.	i am hoping to complete them today or tomorrow morning.	222562973	1477997943893	1477997944074	NA	79
434637	4686719	I am hoping to complete them today or tomorrow morning.	i am hoping to complete them today or tomorrow morning.	222562974	1477997944438	1477997944534	NA	77
434637	4686719	I am hoping to complete them today or tomorrow morning.	i am hoping to complete them today or tomorrow morning.	222562975	1477997944620	1477997944728	NA	79
434637	4686719	I am hoping to complete them today or tomorrow morning.	i am hoping to complete them today or tomorrow morning.	222562976	1477997944802	1477997944885	NA	82
434637	4686719	I am hoping to complete them today or tomorrow morning.	i am hoping to complete them today or tomorrow morning.	222562977	1477997944959	1477997945067	NA	82
434637	4686719	I am hoping to complete them today or tomorrow morning.	i am hoping to complete them today or tomorrow morning.	222563010	1477997945096	1477997945241	NA	79
434637	4686719	I am hoping to complete them today or tomorrow morning.	i am hoping to complete them today or tomorrow morning.	222563012	1477997945228	1477997945358	NA	87
434637	4686719	I am hoping to complete them today or tomorrow morning.	i am hoping to complete them today or tomorrow morning.	222563015	1477997945306	1477997945414	NA	32
434637	4686719	I am hoping to complete them today or tomorrow morning.	i am hoping to complete them today or tomorrow morning.	222563018	1477997945599	1477997945713	NA	77
434637	4686719	I am hoping to complete them today or tomorrow morning.	i am hoping to complete them today or tomorrow morning.	222563021	1477997945762	1477997945898	NA	79
434637	4686719	I am hoping to complete them today or tomorrow morning.	i am hoping to complete them today or tomorrow morning.	222563044	1477997945849	1477997945983	NA	82
434637	4686719	I am hoping to complete them today or tomorrow morning.	i am hoping to complete them today or tomorrow morning.	222563046	1477997946054	1477997946165	NA	73
434637	4686719	I am hoping to complete them today or tomorrow morning.	i am hoping to complete them today or tomorrow morning.	222563049	1477997946254	1477997946353	NA	78
434637	4686719	I am hoping to complete them today or tomorrow morning.	i am hoping to complete them today or tomorrow morning.	222563051	1477997946575	1477997946664		8
434637	4686719	I am hoping to complete them today or tomorrow morning.	i am hoping to complete them today or tomorrow morning.	222563052	1477997946735	1477997946838		8
434637	4686719	I am hoping to complete them today or tomorrow morning.	i am hoping to complete them today or tomorrow morning.	222563053	1477997947305	1477997947420	NA	78
434637	4686719	I am hoping to complete them today or tomorrow morning.	i am hoping to complete them today or tomorrow morning.	222563071	1477997947449	1477997947564	NA	73
434637	4686719	I am hoping to complete them today or tomorrow morning.	i am hoping to complete them today or tomorrow morning.	222563072	1477997947612	1477997947828	NA	78
434637	4686719	I am hoping to complete them today or tomorrow morning.	i am hoping to complete them today or tomorrow morning.	222563073	1477997947861	1477997947968	NA	71
434637	4686719	I am hoping to complete them today or tomorrow morning.	i am hoping to complete them today or tomorrow morning.	222563074	1477997947961	1477997948082	NA	190
434637	4686729	Thank you for all your help.	Thank you for all your help.	222563226	1477997952918	1477997953082	NA	84
434637	4686729	Thank you for all your help.	Thank you for all your help.	222563227	1477997953345	1477997953428		8
434637	4686729	Thank you for all your help.	Thank you for all your help.	222563228	1477997953492	1477997953667	SHIFT	16
434637	4686729	Thank you for all your help.	Thank you for all your help.	222563229	1477997953570	1477997953743	NA	84
434637	4686729	Thank you for all your help.	Thank you for all your help.	222563231	1477997953965	1477997954086	NA	72
434637	4686729	Thank you for all your help.	Thank you for all your help.	222563234	1477997954088	1477997954235	NA	65
434637	4686729	Thank you for all your help.	Thank you for all your help.	222563250	1477997954222	1477997954333	NA	78
434637	4686729	Thank you for all your help.	Thank you for all your help.	222563251	1477997954407	1477997954536	NA	75
434637	4686729	Thank you for all your help.	Thank you for all your help.	222563252	1477997954510	1477997954618	NA	32
434637	4686729	Thank you for all your help.	Thank you for all your help.	222563253	1477997954765	1477997954862	NA	89
434637	4686729	Thank you for all your help.	Thank you for all your help.	222563276	1477997954855	1477997955025	NA	79
434637	4686729	Thank you for all your help.	Thank you for all your help.	222563278	1477997954958	1477997955050	NA	85
434637	4686729	Thank you for all your help.	Thank you for all your help.	222563282	1477997955238	1477997955317		8
434637	4686729	Thank you for all your help.	Thank you for all your help.	222563284	1477997955388	1477997955467		8
434637	4686729	Thank you for all your help.	Thank you for all your help.	222563286	1477997955570	1477997955621		8
434637	4686729	Thank you for all your help.	Thank you for all your help.	222563287	1477997955799	1477997955995	NA	79
434637	4686729	Thank you for all your help.	Thank you for all your help.	222563293	1477997955959	1477997956082	NA	85
434637	4686729	Thank you for all your help.	Thank you for all your help.	222563294	1477997956056	1477997956174	NA	32
434637	4686729	Thank you for all your help.	Thank you for all your help.	222563295	1477997956292	1477997956435	NA	70
434637	4686729	Thank you for all your help.	Thank you for all your help.	222563296	1477997956444	1477997956584	NA	79
434637	4686729	Thank you for all your help.	Thank you for all your help.	222563297	1477997956558	1477997956710	NA	82
434637	4686729	Thank you for all your help.	Thank you for all your help.	222563313	1477997956652	1477997956751	NA	32
434637	4686729	Thank you for all your help.	Thank you for all your help.	222563317	1477997956910	1477997957046	NA	65
434637	4686729	Thank you for all your help.	Thank you for all your help.	222563320	1477997957026	1477997957131	NA	76
434637	4686729	Thank you for all your help.	Thank you for all your help.	222563322	1477997957179	1477997957291	NA	76
434637	4686729	Thank you for all your help.	Thank you for all your help.	222563324	1477997957327	1477997957438	NA	32
434637	4686729	Thank you for all your help.	Thank you for all your help.	222563326	1477997957505	1477997957612	NA	89
434637	4686729	Thank you for all your help.	Thank you for all your help.	222563341	1477997957590	1477997957735	NA	79
434637	4686729	Thank you for all your help.	Thank you for all your help.	222563344	1477997957684	1477997957801	NA	85
434637	4686729	Thank you for all your help.	Thank you for all your help.	222563348	1477997957784	1477997957917	NA	82
434637	4686729	Thank you for all your help.	Thank you for all your help.	222563351	1477997957919	1477997958042	NA	32
434637	4686729	Thank you for all your help.	Thank you for all your help.	222563354	1477997958211	1477997958360	NA	72
434637	4686729	Thank you for all your help.	Thank you for all your help.	222563357	1477997958396	1477997958520	NA	69
434637	4686729	Thank you for all your help.	Thank you for all your help.	222563372	1477997958526	1477997958662	NA	76
434637	4686729	Thank you for all your help.	Thank you for all your help.	222563374	1477997958856	1477997958976	NA	80
434637	4686729	Thank you for all your help.	Thank you for all your help.	222563375	1477997959122	1477997959240	NA	190
434637	4686734	The directors see significant prospects for growth.	The directors see significant prospects for growth.	222563458	1477997962889	1477997962964	NA	84
434637	4686734	The directors see significant prospects for growth.	The directors see significant prospects for growth.	222563459	1477997962909	1477997963237	SHIFT	16
434637	4686734	The directors see significant prospects for growth.	The directors see significant prospects for growth.	222563460	1477997963355	1477997963435		8
434637	4686734	The directors see significant prospects for growth.	The directors see significant prospects for growth.	222563461	1477997963499	1477997963651	SHIFT	16
434637	4686734	The directors see significant prospects for growth.	The directors see significant prospects for growth.	222563462	1477997963586	1477997963738	NA	84
434637	4686734	The directors see significant prospects for growth.	The directors see significant prospects for growth.	222563463	1477997963725	1477997963861	NA	72
434637	4686734	The directors see significant prospects for growth.	The directors see significant prospects for growth.	222563476	1477997963787	1477997963904	NA	69
434637	4686734	The directors see significant prospects for growth.	The directors see significant prospects for growth.	222563479	1477997963916	1477997964033	NA	32
434637	4686734	The directors see significant prospects for growth.	The directors see significant prospects for growth.	222563484	1477997964123	1477997964243	NA	68
434637	4686734	The directors see significant prospects for growth.	The directors see significant prospects for growth.	222563488	1477997964214	1477997964328	NA	73
434637	4686734	The directors see significant prospects for growth.	The directors see significant prospects for growth.	222563493	1477997964414	1477997964554	NA	82
434637	4686734	The directors see significant prospects for growth.	The directors see significant prospects for growth.	222563498	1477997964764	1477997964885	NA	69
434637	4686734	The directors see significant prospects for growth.	The directors see significant prospects for growth.	222563525	1477997964977	1477997965111	NA	67
434637	4686734	The directors see significant prospects for growth.	The directors see significant prospects for growth.	222563527	1477997965333	1477997965540	NA	79
434637	4686734	The directors see significant prospects for growth.	The directors see significant prospects for growth.	222563529	1477997965721	1477997965808		8
434637	4686734	The directors see significant prospects for growth.	The directors see significant prospects for growth.	222563530	1477997965789	1477997965913	NA	84
434637	4686734	The directors see significant prospects for growth.	The directors see significant prospects for growth.	222563532	1477997965936	1477997966045	NA	79
434637	4686734	The directors see significant prospects for growth.	The directors see significant prospects for growth.	222563562	1477997966103	1477997966262	NA	82
434637	4686734	The directors see significant prospects for growth.	The directors see significant prospects for growth.	222563564	1477997966367	1477997966487	NA	83
434637	4686734	The directors see significant prospects for growth.	The directors see significant prospects for growth.	222563566	1477997966451	1477997966569	NA	32
434637	4686734	The directors see significant prospects for growth.	The directors see significant prospects for growth.	222563569	1477997966756	1477997966839	NA	87
434637	4686734	The directors see significant prospects for growth.	The directors see significant prospects for growth.	222563572	1477997967080	1477997967193		8
434637	4686734	The directors see significant prospects for growth.	The directors see significant prospects for growth.	222563588	1477997967187	1477997967342	NA	83
434637	4686734	The directors see significant prospects for growth.	The directors see significant prospects for growth.	222563589	1477997967356	1477997967448	NA	69
434637	4686734	The directors see significant prospects for growth.	The directors see significant prospects for growth.	222563590	1477997967519	1477997967633	NA	69
434637	4686734	The directors see significant prospects for growth.	The directors see significant prospects for growth.	222563591	1477997967638	1477997967768	NA	32
434637	4686734	The directors see significant prospects for growth.	The directors see significant prospects for growth.	222563592	1477997967915	1477997968050	NA	83
434637	4686734	The directors see significant prospects for growth.	The directors see significant prospects for growth.	222563613	1477997968008	1477997968145	NA	73
434637	4686734	The directors see significant prospects for growth.	The directors see significant prospects for growth.	222563615	1477997968232	1477997968384	NA	71
434637	4686734	The directors see significant prospects for growth.	The directors see significant prospects for growth.	222563616	1477997968534	1477997968656	NA	78
434637	4686734	The directors see significant prospects for growth.	The directors see significant prospects for growth.	222563617	1477997968682	1477997968796	NA	73
434637	4686734	The directors see significant prospects for growth.	The directors see significant prospects for growth.	222563619	1477997968895	1477997969034	NA	70
434637	4686734	The directors see significant prospects for growth.	The directors see significant prospects for growth.	222563628	1477997968998	1477997969119	NA	73
434637	4686734	The directors see significant prospects for growth.	The directors see significant prospects for growth.	222563630	1477997969199	1477997969374	NA	67
434637	4686734	The directors see significant prospects for growth.	The directors see significant prospects for growth.	222563632	1477997969376	1477997969493	NA	65
434637	4686734	The directors see significant prospects for growth.	The directors see significant prospects for growth.	222563634	1477997969554	1477997969691	NA	78
434637	4686734	The directors see significant prospects for growth.	The directors see significant prospects for growth.	222563636	1477997969711	1477997969832	NA	84
434637	4686734	The directors see significant prospects for growth.	The directors see significant prospects for growth.	222563637	1477997969834	1477997969951	NA	32
434637	4686734	The directors see significant prospects for growth.	The directors see significant prospects for growth.	222563669	1477997970204	1477997970351	NA	80
434637	4686734	The directors see significant prospects for growth.	The directors see significant prospects for growth.	222563671	1477997970418	1477997970568	NA	82
434637	4686734	The directors see significant prospects for growth.	The directors see significant prospects for growth.	222563672	1477997970570	1477997970690	NA	79
434637	4686734	The directors see significant prospects for growth.	The directors see significant prospects for growth.	222563673	1477997970795	1477997970925	NA	83
434637	4686734	The directors see significant prospects for growth.	The directors see significant prospects for growth.	222563674	1477997971195	1477997971351	NA	80
434637	4686734	The directors see significant prospects for growth.	The directors see significant prospects for growth.	222563675	1477997971361	1477997971489	NA	69
434637	4686734	The directors see significant prospects for growth.	The directors see significant prospects for growth.	222563677	1477997971581	1477997971737	NA	67
434637	4686734	The directors see significant prospects for growth.	The directors see significant prospects for growth.	222563679	1477997971833	1477997971935	NA	84
434637	4686734	The directors see significant prospects for growth.	The directors see significant prospects for growth.	222563681	1477997971981	1477997972098	NA	83
434637	4686734	The directors see significant prospects for growth.	The directors see significant prospects for growth.	222563684	1477997972100	1477997972185	NA	32
434637	4686734	The directors see significant prospects for growth.	The directors see significant prospects for growth.	222563695	1477997972249	1477997972348	NA	79
434637	4686734	The directors see significant prospects for growth.	The directors see significant prospects for growth.	222563696	1477997972507	1477997972580		8
434637	4686734	The directors see significant prospects for growth.	The directors see significant prospects for growth.	222563698	1477997972582	1477997972696	NA	70
434637	4686734	The directors see significant prospects for growth.	The directors see significant prospects for growth.	222563700	1477997972767	1477997972870	NA	79
434637	4686734	The directors see significant prospects for growth.	The directors see significant prospects for growth.	222563710	1477997972854	1477997972965	NA	82
434637	4686734	The directors see significant prospects for growth.	The directors see significant prospects for growth.	222563711	1477997973011	1477997973135	NA	32
434637	4686734	The directors see significant prospects for growth.	The directors see significant prospects for growth.	222563712	1477997973401	1477997973519	NA	71
434637	4686734	The directors see significant prospects for growth.	The directors see significant prospects for growth.	222563713	1477997973653	1477997973775	NA	82
434637	4686734	The directors see significant prospects for growth.	The directors see significant prospects for growth.	222563714	1477997973762	1477997973911	NA	79
434637	4686734	The directors see significant prospects for growth.	The directors see significant prospects for growth.	222563715	1477997973916	1477997974049	NA	87
434637	4686734	The directors see significant prospects for growth.	The directors see significant prospects for growth.	222563737	1477997974167	1477997974291	NA	84
434637	4686734	The directors see significant prospects for growth.	The directors see significant prospects for growth.	222563740	1477997974365	1477997974464	NA	72
434637	4686734	The directors see significant prospects for growth.	The directors see significant prospects for growth.	222563743	1477997974582	1477997974706	NA	190
434637	4686742	You can't destroy us, and you can't stop us.	You can't destroy us, and you can't stop us.	222563826	1477997978705	1477997979019	SHIFT	16
434637	4686742	You can't destroy us, and you can't stop us.	You can't destroy us, and you can't stop us.	222563828	1477997978913	1477997979063	NA	89
434637	4686742	You can't destroy us, and you can't stop us.	You can't destroy us, and you can't stop us.	222563829	1477997979093	1477997979222	NA	79
434637	4686742	You can't destroy us, and you can't stop us.	You can't destroy us, and you can't stop us.	222563830	1477997979174	1477997979368	NA	85
434637	4686742	You can't destroy us, and you can't stop us.	You can't destroy us, and you can't stop us.	222563831	1477997979457	1477997979591	NA	32
434637	4686742	You can't destroy us, and you can't stop us.	You can't destroy us, and you can't stop us.	222563832	1477997979759	1477997979953	NA	67
434637	4686742	You can't destroy us, and you can't stop us.	You can't destroy us, and you can't stop us.	222563854	1477997979898	1477997980034	NA	65
434637	4686742	You can't destroy us, and you can't stop us.	You can't destroy us, and you can't stop us.	222563855	1477997980005	1477997980203	NA	78
434637	4686742	You can't destroy us, and you can't stop us.	You can't destroy us, and you can't stop us.	222563857	1477997980194	1477997980314	NA	84
434637	4686742	You can't destroy us, and you can't stop us.	You can't destroy us, and you can't stop us.	222563859	1477997980622	1477997980746		8
434637	4686742	You can't destroy us, and you can't stop us.	You can't destroy us, and you can't stop us.	222563861	1477997980864	1477997981028	NA	222
434637	4686742	You can't destroy us, and you can't stop us.	You can't destroy us, and you can't stop us.	222563882	1477997980980	1477997981106	NA	84
434637	4686742	You can't destroy us, and you can't stop us.	You can't destroy us, and you can't stop us.	222563884	1477997981074	1477997981194	NA	32
434637	4686742	You can't destroy us, and you can't stop us.	You can't destroy us, and you can't stop us.	222563886	1477997981710	1477997981812	NA	68
434637	4686742	You can't destroy us, and you can't stop us.	You can't destroy us, and you can't stop us.	222563887	1477997981870	1477997981991	NA	69
434637	4686742	You can't destroy us, and you can't stop us.	You can't destroy us, and you can't stop us.	222563888	1477997982058	1477997982221	NA	83
434637	4686742	You can't destroy us, and you can't stop us.	You can't destroy us, and you can't stop us.	222563889	1477997982279	1477997982437	NA	84
434637	4686742	You can't destroy us, and you can't stop us.	You can't destroy us, and you can't stop us.	222563900	1477997982685	1477997982822	NA	82
434637	4686742	You can't destroy us, and you can't stop us.	You can't destroy us, and you can't stop us.	222563902	1477997982839	1477997982958	NA	79
434637	4686742	You can't destroy us, and you can't stop us.	You can't destroy us, and you can't stop us.	222563904	1477997982948	1477997983088	NA	89
434637	4686742	You can't destroy us, and you can't stop us.	You can't destroy us, and you can't stop us.	222563905	1477997983159	1477997983273	NA	32
434637	4686742	You can't destroy us, and you can't stop us.	You can't destroy us, and you can't stop us.	222563907	1477997983344	1477997983480	NA	85
434637	4686742	You can't destroy us, and you can't stop us.	You can't destroy us, and you can't stop us.	222563921	1477997983497	1477997983628	NA	83
434637	4686742	You can't destroy us, and you can't stop us.	You can't destroy us, and you can't stop us.	222563922	1477997983651	1477997983793	NA	188
434637	4686742	You can't destroy us, and you can't stop us.	You can't destroy us, and you can't stop us.	222563923	1477997983777	1477997983891	NA	32
434637	4686742	You can't destroy us, and you can't stop us.	You can't destroy us, and you can't stop us.	222563925	1477997984325	1477997984492	NA	65
434637	4686742	You can't destroy us, and you can't stop us.	You can't destroy us, and you can't stop us.	222563949	1477997984447	1477997984599	NA	78
434637	4686742	You can't destroy us, and you can't stop us.	You can't destroy us, and you can't stop us.	222563951	1477997984579	1477997984699	NA	68
434637	4686742	You can't destroy us, and you can't stop us.	You can't destroy us, and you can't stop us.	222563953	1477997984625	1477997984746	NA	32
434637	4686742	You can't destroy us, and you can't stop us.	You can't destroy us, and you can't stop us.	222563955	1477997985041	1477997985140	NA	89
434637	4686742	You can't destroy us, and you can't stop us.	You can't destroy us, and you can't stop us.	222563956	1477997985154	1477997985312	NA	79
434637	4686742	You can't destroy us, and you can't stop us.	You can't destroy us, and you can't stop us.	222563979	1477997985206	1477997985397	NA	85
434637	4686742	You can't destroy us, and you can't stop us.	You can't destroy us, and you can't stop us.	222563980	1477997985348	1477997985482	NA	32
434637	4686742	You can't destroy us, and you can't stop us.	You can't destroy us, and you can't stop us.	222563981	1477997986039	1477997986232	NA	67
434637	4686742	You can't destroy us, and you can't stop us.	You can't destroy us, and you can't stop us.	222563982	1477997986149	1477997986294	NA	65
434637	4686742	You can't destroy us, and you can't stop us.	You can't destroy us, and you can't stop us.	222563983	1477997986256	1477997986477	NA	78
434637	4686742	You can't destroy us, and you can't stop us.	You can't destroy us, and you can't stop us.	222564019	1477997986438	1477997986562	NA	84
434637	4686742	You can't destroy us, and you can't stop us.	You can't destroy us, and you can't stop us.	222564021	1477997986867	1477997986962		8
434637	4686742	You can't destroy us, and you can't stop us.	You can't destroy us, and you can't stop us.	222564022	1477997987096	1477997987257	NA	222
434637	4686742	You can't destroy us, and you can't stop us.	You can't destroy us, and you can't stop us.	222564023	1477997987218	1477997987339	NA	84
434637	4686742	You can't destroy us, and you can't stop us.	You can't destroy us, and you can't stop us.	222564024	1477997987359	1477997987506	NA	32
434637	4686742	You can't destroy us, and you can't stop us.	You can't destroy us, and you can't stop us.	222564025	1477997987955	1477997988117	NA	83
434637	4686742	You can't destroy us, and you can't stop us.	You can't destroy us, and you can't stop us.	222564039	1477997988223	1477997988337	NA	79
434637	4686742	You can't destroy us, and you can't stop us.	You can't destroy us, and you can't stop us.	222564040	1477997988480	1477997988571		8
434637	4686742	You can't destroy us, and you can't stop us.	You can't destroy us, and you can't stop us.	222564041	1477997988561	1477997988711	NA	84
434637	4686742	You can't destroy us, and you can't stop us.	You can't destroy us, and you can't stop us.	222564042	1477997988715	1477997988814	NA	73
434637	4686742	You can't destroy us, and you can't stop us.	You can't destroy us, and you can't stop us.	222564043	1477997988894	1477997989037	NA	80
434637	4686742	You can't destroy us, and you can't stop us.	You can't destroy us, and you can't stop us.	222564059	1477997989124	1477997989225	NA	32
434637	4686742	You can't destroy us, and you can't stop us.	You can't destroy us, and you can't stop us.	222564061	1477997989412	1477997989498		8
434637	4686742	You can't destroy us, and you can't stop us.	You can't destroy us, and you can't stop us.	222564064	1477997989954	1477997990049		8
434637	4686742	You can't destroy us, and you can't stop us.	You can't destroy us, and you can't stop us.	222564069	1477997990120	1477997990196		8
434637	4686742	You can't destroy us, and you can't stop us.	You can't destroy us, and you can't stop us.	222564073	1477997990330	1477997990445	NA	79
434637	4686742	You can't destroy us, and you can't stop us.	You can't destroy us, and you can't stop us.	222564092	1477997990528	1477997990696	NA	80
434637	4686742	You can't destroy us, and you can't stop us.	You can't destroy us, and you can't stop us.	222564094	1477997990593	1477997990772	NA	32
434637	4686742	You can't destroy us, and you can't stop us.	You can't destroy us, and you can't stop us.	222564095	1477997990978	1477997991111	NA	85
434637	4686742	You can't destroy us, and you can't stop us.	You can't destroy us, and you can't stop us.	222564096	1477997991094	1477997991218	NA	83
434637	4686742	You can't destroy us, and you can't stop us.	You can't destroy us, and you can't stop us.	222564097	1477997991226	1477997991379	NA	190
434637	4686751	We're not a lock for the pole.	We're you a lock for the pole.	222564197	1477997995156	1477997995322	NA	87
434637	4686751	We're not a lock for the pole.	We're you a lock for the pole.	222564198	1477997995433	1477997995522		8
434637	4686751	We're not a lock for the pole.	We're you a lock for the pole.	222564199	1477997995580	1477997995784	SHIFT	16
434637	4686751	We're not a lock for the pole.	We're you a lock for the pole.	222564200	1477997995630	1477997995822	NA	87
434637	4686751	We're not a lock for the pole.	We're you a lock for the pole.	222564201	1477997995864	1477997996007	NA	69
434637	4686751	We're not a lock for the pole.	We're you a lock for the pole.	222564202	1477997996239	1477997996417	NA	222
434637	4686751	We're not a lock for the pole.	We're you a lock for the pole.	222564219	1477997996431	1477997996598	NA	82
434637	4686751	We're not a lock for the pole.	We're you a lock for the pole.	222564220	1477997996553	1477997996667	NA	69
434637	4686751	We're not a lock for the pole.	We're you a lock for the pole.	222564221	1477997996615	1477997996781	NA	32
434637	4686751	We're not a lock for the pole.	We're you a lock for the pole.	222564222	1477997996927	1477997997082	NA	89
434637	4686751	We're not a lock for the pole.	We're you a lock for the pole.	222564253	1477997997027	1477997997211	NA	79
434637	4686751	We're not a lock for the pole.	We're you a lock for the pole.	222564255	1477997997150	1477997997324	NA	85
434637	4686751	We're not a lock for the pole.	We're you a lock for the pole.	222564257	1477997997295	1477997997447	NA	32
434637	4686751	We're not a lock for the pole.	We're you a lock for the pole.	222564260	1477997997966	1477997998115	NA	65
434637	4686751	We're not a lock for the pole.	We're you a lock for the pole.	222564263	1477997998070	1477997998194	NA	32
434637	4686751	We're not a lock for the pole.	We're you a lock for the pole.	222564265	1477997998312	1477997998433	NA	76
434637	4686751	We're not a lock for the pole.	We're you a lock for the pole.	222564277	1477997998506	1477997998618	NA	79
434637	4686751	We're not a lock for the pole.	We're you a lock for the pole.	222564278	1477997998660	1477997998834	NA	67
434637	4686751	We're not a lock for the pole.	We're you a lock for the pole.	222564279	1477997998770	1477997998890	NA	75
434637	4686751	We're not a lock for the pole.	We're you a lock for the pole.	222564280	1477997998838	1477997998975	NA	32
434637	4686751	We're not a lock for the pole.	We're you a lock for the pole.	222564281	1477997999160	1477997999322	NA	70
434637	4686751	We're not a lock for the pole.	We're you a lock for the pole.	222564292	1477997999336	1477997999494	NA	79
434637	4686751	We're not a lock for the pole.	We're you a lock for the pole.	222564293	1477997999372	1477997999516	NA	82
434637	4686751	We're not a lock for the pole.	We're you a lock for the pole.	222564294	1477997999536	1477997999664	NA	32
434637	4686751	We're not a lock for the pole.	We're you a lock for the pole.	222564295	1477997999785	1477997999918	NA	84
434637	4686751	We're not a lock for the pole.	We're you a lock for the pole.	222564325	1477997999844	1477997999989	NA	72
434637	4686751	We're not a lock for the pole.	We're you a lock for the pole.	222564328	1477997999903	1477998000004	NA	69
434637	4686751	We're not a lock for the pole.	We're you a lock for the pole.	222564331	1477997999959	1477998000077	NA	32
434637	4686751	We're not a lock for the pole.	We're you a lock for the pole.	222564334	1477998000441	1477998000591	NA	80
434637	4686751	We're not a lock for the pole.	We're you a lock for the pole.	222564337	1477998000747	1477998000880	NA	79
434637	4686751	We're not a lock for the pole.	We're you a lock for the pole.	222564339	1477998000998	1477998001132	NA	76
434637	4686751	We're not a lock for the pole.	We're you a lock for the pole.	222564340	1477998001136	1477998001241	NA	69
434637	4686751	We're not a lock for the pole.	We're you a lock for the pole.	222564345	1477998001432	1477998001546	NA	190
434637	4686755	Davis was listed as questionable on the weekly injury report.	Davis was listed as questionable of the weekly injury report.	222564440	1477998005425	1477998005820	SHIFT	16
434637	4686755	Davis was listed as questionable on the weekly injury report.	Davis was listed as questionable of the weekly injury report.	222564443	1477998005721	1477998005889	NA	68
434637	4686755	Davis was listed as questionable on the weekly injury report.	Davis was listed as questionable of the weekly injury report.	222564446	1477998005988	1477998006157	NA	65
434637	4686755	Davis was listed as questionable on the weekly injury report.	Davis was listed as questionable of the weekly injury report.	222564449	1477998006379	1477998006455		8
434637	4686755	Davis was listed as questionable on the weekly injury report.	Davis was listed as questionable of the weekly injury report.	222564451	1477998006526	1477998006633		8
434637	4686755	Davis was listed as questionable on the weekly injury report.	Davis was listed as questionable of the weekly injury report.	222564478	1477998006585	1477998006747	NA	65
434637	4686755	Davis was listed as questionable on the weekly injury report.	Davis was listed as questionable of the weekly injury report.	222564481	1477998006752	1477998006955	NA	86
434637	4686755	Davis was listed as questionable on the weekly injury report.	Davis was listed as questionable of the weekly injury report.	222564484	1477998007224	1477998007354	NA	73
434637	4686755	Davis was listed as questionable on the weekly injury report.	Davis was listed as questionable of the weekly injury report.	222564486	1477998007333	1477998007477	NA	83
434637	4686755	Davis was listed as questionable on the weekly injury report.	Davis was listed as questionable of the weekly injury report.	222564488	1477998007630	1477998007770	NA	32
434637	4686755	Davis was listed as questionable on the weekly injury report.	Davis was listed as questionable of the weekly injury report.	222564491	1477998007840	1477998007984	NA	65
434637	4686755	Davis was listed as questionable on the weekly injury report.	Davis was listed as questionable of the weekly injury report.	222564501	1477998008221	1477998008325		8
434637	4686755	Davis was listed as questionable on the weekly injury report.	Davis was listed as questionable of the weekly injury report.	222564503	1477998008290	1477998008471	NA	87
434637	4686755	Davis was listed as questionable on the weekly injury report.	Davis was listed as questionable of the weekly injury report.	222564506	1477998008376	1477998008595	NA	65
434637	4686755	Davis was listed as questionable on the weekly injury report.	Davis was listed as questionable of the weekly injury report.	222564554	1477998008574	1477998008791	NA	87
434637	4686755	Davis was listed as questionable on the weekly injury report.	Davis was listed as questionable of the weekly injury report.	222564555	1477998008886	1477998009013	NA	32
434637	4686755	Davis was listed as questionable on the weekly injury report.	Davis was listed as questionable of the weekly injury report.	222564557	1477998009097	1477998009293	NA	76
434637	4686755	Davis was listed as questionable on the weekly injury report.	Davis was listed as questionable of the weekly injury report.	222564560	1477998009254	1477998009372	NA	73
434637	4686755	Davis was listed as questionable on the weekly injury report.	Davis was listed as questionable of the weekly injury report.	222564563	1477998009601	1477998009686		8
434637	4686755	Davis was listed as questionable on the weekly injury report.	Davis was listed as questionable of the weekly injury report.	222564567	1477998009747	1477998009830		8
434637	4686755	Davis was listed as questionable on the weekly injury report.	Davis was listed as questionable of the weekly injury report.	222564582	1477998009879	1477998009955		8
434637	4686755	Davis was listed as questionable on the weekly injury report.	Davis was listed as questionable of the weekly injury report.	222564585	1477998010007	1477998010080		8
434637	4686755	Davis was listed as questionable on the weekly injury report.	Davis was listed as questionable of the weekly injury report.	222564588	1477998010138	1477998010230		8
434637	4686755	Davis was listed as questionable on the weekly injury report.	Davis was listed as questionable of the weekly injury report.	222564589	1477998010338	1477998010487	NA	83
434637	4686755	Davis was listed as questionable on the weekly injury report.	Davis was listed as questionable of the weekly injury report.	222564603	1477998010449	1477998010569	NA	32
434637	4686755	Davis was listed as questionable on the weekly injury report.	Davis was listed as questionable of the weekly injury report.	222564604	1477998010735	1477998010950	NA	76
434637	4686755	Davis was listed as questionable on the weekly injury report.	Davis was listed as questionable of the weekly injury report.	222564605	1477998010911	1477998011026	NA	73
434637	4686755	Davis was listed as questionable on the weekly injury report.	Davis was listed as questionable of the weekly injury report.	222564606	1477998011077	1477998011227	NA	83
434637	4686755	Davis was listed as questionable on the weekly injury report.	Davis was listed as questionable of the weekly injury report.	222564607	1477998011316	1477998011472	NA	84
434637	4686755	Davis was listed as questionable on the weekly injury report.	Davis was listed as questionable of the weekly injury report.	222564608	1477998011508	1477998011619	NA	69
434637	4686755	Davis was listed as questionable on the weekly injury report.	Davis was listed as questionable of the weekly injury report.	222564628	1477998011700	1477998011819	NA	68
434637	4686755	Davis was listed as questionable on the weekly injury report.	Davis was listed as questionable of the weekly injury report.	222564630	1477998011794	1477998011935	NA	32
434637	4686755	Davis was listed as questionable on the weekly injury report.	Davis was listed as questionable of the weekly injury report.	222564633	1477998011922	1477998012071	NA	65
434637	4686755	Davis was listed as questionable on the weekly injury report.	Davis was listed as questionable of the weekly injury report.	222564635	1477998012114	1477998012254	NA	83
434637	4686755	Davis was listed as questionable on the weekly injury report.	Davis was listed as questionable of the weekly injury report.	222564637	1477998012488	1477998012565		8
434637	4686755	Davis was listed as questionable on the weekly injury report.	Davis was listed as questionable of the weekly injury report.	222564678	1477998012841	1477998012990	NA	83
434637	4686755	Davis was listed as questionable on the weekly injury report.	Davis was listed as questionable of the weekly injury report.	222564681	1477998013045	1477998013185	NA	32
434637	4686755	Davis was listed as questionable on the weekly injury report.	Davis was listed as questionable of the weekly injury report.	222564683	1477998013404	1477998013553	NA	81
434637	4686755	Davis was listed as questionable on the weekly injury report.	Davis was listed as questionable of the weekly injury report.	222564685	1477998013564	1477998013710	NA	85
434637	4686755	Davis was listed as questionable on the weekly injury report.	Davis was listed as questionable of the weekly injury report.	222564689	1477998013793	1477998013921	NA	69
434637	4686755	Davis was listed as questionable on the weekly injury report.	Davis was listed as questionable of the weekly injury report.	222564724	1477998013982	1477998014144	NA	83
434637	4686755	Davis was listed as questionable on the weekly injury report.	Davis was listed as questionable of the weekly injury report.	222564726	1477998014306	1477998014462	NA	84
434637	4686755	Davis was listed as questionable on the weekly injury report.	Davis was listed as questionable of the weekly injury report.	222564729	1477998014744	1477998014852	NA	73
434637	4686755	Davis was listed as questionable on the weekly injury report.	Davis was listed as questionable of the weekly injury report.	222564732	1477998014907	1477998015076	NA	79
434637	4686755	Davis was listed as questionable on the weekly injury report.	Davis was listed as questionable of the weekly injury report.	222564735	1477998015190	1477998015286	NA	78
434637	4686755	Davis was listed as questionable on the weekly injury report.	Davis was listed as questionable of the weekly injury report.	222564756	1477998015360	1477998015465	NA	65
434637	4686755	Davis was listed as questionable on the weekly injury report.	Davis was listed as questionable of the weekly injury report.	222564759	1477998015775	1477998015879	NA	66
434637	4686755	Davis was listed as questionable on the weekly injury report.	Davis was listed as questionable of the weekly injury report.	222564762	1477998015872	1477998016027	NA	76
434637	4686755	Davis was listed as questionable on the weekly injury report.	Davis was listed as questionable of the weekly injury report.	222564765	1477998015985	1477998016096	NA	69
434637	4686755	Davis was listed as questionable on the weekly injury report.	Davis was listed as questionable of the weekly injury report.	222564766	1477998016117	1477998016205	NA	32
434637	4686755	Davis was listed as questionable on the weekly injury report.	Davis was listed as questionable of the weekly injury report.	222564776	1477998016241	1477998016383	NA	79
434637	4686755	Davis was listed as questionable on the weekly injury report.	Davis was listed as questionable of the weekly injury report.	222564778	1477998016357	1477998016515	NA	70
434637	4686755	Davis was listed as questionable on the weekly injury report.	Davis was listed as questionable of the weekly injury report.	222564777	1477998016470	1477998016505	NA	32
434637	4686755	Davis was listed as questionable on the weekly injury report.	Davis was listed as questionable of the weekly injury report.	222564780	1477998017109	1477998017229	NA	84
434637	4686755	Davis was listed as questionable on the weekly injury report.	Davis was listed as questionable of the weekly injury report.	222564835	1477998017175	1477998017342	NA	72
434637	4686755	Davis was listed as questionable on the weekly injury report.	Davis was listed as questionable of the weekly injury report.	222564838	1477998017310	1477998017437	NA	69
434637	4686755	Davis was listed as questionable on the weekly injury report.	Davis was listed as questionable of the weekly injury report.	222564842	1477998017463	1477998017591	NA	32
434637	4686755	Davis was listed as questionable on the weekly injury report.	Davis was listed as questionable of the weekly injury report.	222564845	1477998017854	1477998017997	NA	87
434637	4686755	Davis was listed as questionable on the weekly injury report.	Davis was listed as questionable of the weekly injury report.	222564848	1477998018071	1477998018166	NA	69
434637	4686755	Davis was listed as questionable on the weekly injury report.	Davis was listed as questionable of the weekly injury report.	222564850	1477998018231	1477998018339	NA	69
434637	4686755	Davis was listed as questionable on the weekly injury report.	Davis was listed as questionable of the weekly injury report.	222564836	1477998018346	1477998018477	NA	75
434637	4686755	Davis was listed as questionable on the weekly injury report.	Davis was listed as questionable of the weekly injury report.	222564839	1477998018617	1477998018735	NA	76
434637	4686755	Davis was listed as questionable on the weekly injury report.	Davis was listed as questionable of the weekly injury report.	222564841	1477998018786	1477998018916	NA	89
434637	4686755	Davis was listed as questionable on the weekly injury report.	Davis was listed as questionable of the weekly injury report.	222564844	1477998018855	1477998018998	NA	32
434637	4686755	Davis was listed as questionable on the weekly injury report.	Davis was listed as questionable of the weekly injury report.	222564847	1477998019283	1477998019407	NA	73
434637	4686755	Davis was listed as questionable on the weekly injury report.	Davis was listed as questionable of the weekly injury report.	222564861	1477998019447	1477998019615	NA	78
434637	4686755	Davis was listed as questionable on the weekly injury report.	Davis was listed as questionable of the weekly injury report.	222564863	1477998019746	1477998019873	NA	74
434637	4686755	Davis was listed as questionable on the weekly injury report.	Davis was listed as questionable of the weekly injury report.	222564865	1477998020038	1477998020185	NA	85
434637	4686755	Davis was listed as questionable on the weekly injury report.	Davis was listed as questionable of the weekly injury report.	222564867	1477998020297	1477998020414	NA	82
434637	4686755	Davis was listed as questionable on the weekly injury report.	Davis was listed as questionable of the weekly injury report.	222564869	1477998020462	1477998020630	NA	89
434637	4686755	Davis was listed as questionable on the weekly injury report.	Davis was listed as questionable of the weekly injury report.	222564936	1477998020576	1477998020703	NA	32
434637	4686755	Davis was listed as questionable on the weekly injury report.	Davis was listed as questionable of the weekly injury report.	222564938	1477998020862	1477998021011	NA	82
434637	4686755	Davis was listed as questionable on the weekly injury report.	Davis was listed as questionable of the weekly injury report.	222564940	1477998021019	1477998021156	NA	69
434637	4686755	Davis was listed as questionable on the weekly injury report.	Davis was listed as questionable of the weekly injury report.	222564942	1477998021327	1477998021461	NA	79
434637	4686755	Davis was listed as questionable on the weekly injury report.	Davis was listed as questionable of the weekly injury report.	222564943	1477998021699	1477998021779		8
434637	4686755	Davis was listed as questionable on the weekly injury report.	Davis was listed as questionable of the weekly injury report.	222564944	1477998021915	1477998022033	NA	80
434637	4686755	Davis was listed as questionable on the weekly injury report.	Davis was listed as questionable of the weekly injury report.	222564966	1477998022107	1477998022264	NA	79
434637	4686755	Davis was listed as questionable on the weekly injury report.	Davis was listed as questionable of the weekly injury report.	222564967	1477998022252	1477998022372	NA	82
434637	4686755	Davis was listed as questionable on the weekly injury report.	Davis was listed as questionable of the weekly injury report.	222564968	1477998022478	1477998022572	NA	84
434637	4686755	Davis was listed as questionable on the weekly injury report.	Davis was listed as questionable of the weekly injury report.	222564969	1477998022565	1477998022711	NA	190
434637	4686765	Talk to you soon.	Talk to you soon.	222565082	1477998027400	1477998027593	SHIFT	16
434637	4686765	Talk to you soon.	Talk to you soon.	222565085	1477998027490	1477998027664	NA	84
434637	4686765	Talk to you soon.	Talk to you soon.	222565090	1477998027645	1477998027836	NA	65
434637	4686765	Talk to you soon.	Talk to you soon.	222565094	1477998027976	1477998028122	NA	76
434637	4686765	Talk to you soon.	Talk to you soon.	222565096	1477998028161	1477998028291	NA	75
434637	4686765	Talk to you soon.	Talk to you soon.	222565114	1477998028230	1477998028373	NA	32
434637	4686765	Talk to you soon.	Talk to you soon.	222565115	1477998028554	1477998028721	NA	84
434637	4686765	Talk to you soon.	Talk to you soon.	222565116	1477998028630	1477998028750	NA	79
434637	4686765	Talk to you soon.	Talk to you soon.	222565117	1477998028689	1477998028822	NA	32
434637	4686765	Talk to you soon.	Talk to you soon.	222565119	1477998029004	1477998029210	NA	79
434637	4686765	Talk to you soon.	Talk to you soon.	222565121	1477998029341	1477998029436	NA	89
434637	4686765	Talk to you soon.	Talk to you soon.	222565133	1477998029602	1477998029688		8
434637	4686765	Talk to you soon.	Talk to you soon.	222565135	1477998029749	1477998029841		8
434637	4686765	Talk to you soon.	Talk to you soon.	222565137	1477998029934	1477998030045	NA	89
434637	4686765	Talk to you soon.	Talk to you soon.	222565139	1477998030053	1477998030189	NA	79
434637	4686765	Talk to you soon.	Talk to you soon.	222565159	1477998030124	1477998030277	NA	85
434637	4686765	Talk to you soon.	Talk to you soon.	222565162	1477998030421	1477998030551	NA	32
434637	4686765	Talk to you soon.	Talk to you soon.	222565165	1477998030593	1477998030731	NA	83
434637	4686765	Talk to you soon.	Talk to you soon.	222565167	1477998030902	1477998031007	NA	79
434637	4686765	Talk to you soon.	Talk to you soon.	222565170	1477998031055	1477998031157	NA	79
434637	4686765	Talk to you soon.	Talk to you soon.	222565172	1477998031237	1477998031336	NA	78
434637	4686765	Talk to you soon.	Talk to you soon.	222565180	1477998031375	1477998031505	NA	190
434637	4686771	The Philippines censorship board voted to cut certain scenes.	The Philippines censorship board voted to cut certain scenes.	222565309	1477998035524	1477998035676	SHIFT	16
434637	4686771	The Philippines censorship board voted to cut certain scenes.	The Philippines censorship board voted to cut certain scenes.	222565312	1477998035602	1477998035783	NA	84
434637	4686771	The Philippines censorship board voted to cut certain scenes.	The Philippines censorship board voted to cut certain scenes.	222565315	1477998035721	1477998035886	NA	72
434637	4686771	The Philippines censorship board voted to cut certain scenes.	The Philippines censorship board voted to cut certain scenes.	222565317	1477998035822	1477998035964	NA	69
434637	4686771	The Philippines censorship board voted to cut certain scenes.	The Philippines censorship board voted to cut certain scenes.	222565319	1477998035929	1477998036046	NA	32
434637	4686771	The Philippines censorship board voted to cut certain scenes.	The Philippines censorship board voted to cut certain scenes.	222565320	1477998036199	1477998036390	NA	80
434637	4686771	The Philippines censorship board voted to cut certain scenes.	The Philippines censorship board voted to cut certain scenes.	222565350	1477998036540	1477998036615		8
434637	4686771	The Philippines censorship board voted to cut certain scenes.	The Philippines censorship board voted to cut certain scenes.	222565352	1477998036589	1477998036833	SHIFT	16
434637	4686771	The Philippines censorship board voted to cut certain scenes.	The Philippines censorship board voted to cut certain scenes.	222565354	1477998036750	1477998036868	NA	80
434637	4686771	The Philippines censorship board voted to cut certain scenes.	The Philippines censorship board voted to cut certain scenes.	222565356	1477998037049	1477998037179	NA	72
434637	4686771	The Philippines censorship board voted to cut certain scenes.	The Philippines censorship board voted to cut certain scenes.	222565358	1477998037272	1477998037409	NA	73
434637	4686771	The Philippines censorship board voted to cut certain scenes.	The Philippines censorship board voted to cut certain scenes.	222565359	1477998037562	1477998037682	NA	76
434637	4686771	The Philippines censorship board voted to cut certain scenes.	The Philippines censorship board voted to cut certain scenes.	222565368	1477998037725	1477998037814	NA	73
434637	4686771	The Philippines censorship board voted to cut certain scenes.	The Philippines censorship board voted to cut certain scenes.	222565370	1477998038017	1477998038164	NA	80
434637	4686771	The Philippines censorship board voted to cut certain scenes.	The Philippines censorship board voted to cut certain scenes.	222565372	1477998038351	1477998038481	NA	80
434637	4686771	The Philippines censorship board voted to cut certain scenes.	The Philippines censorship board voted to cut certain scenes.	222565374	1477998038625	1477998038749	NA	73
434637	4686771	The Philippines censorship board voted to cut certain scenes.	The Philippines censorship board voted to cut certain scenes.	222565377	1477998038826	1477998038950	NA	78
434637	4686771	The Philippines censorship board voted to cut certain scenes.	The Philippines censorship board voted to cut certain scenes.	222565399	1477998039017	1477998039122	NA	69
434637	4686771	The Philippines censorship board voted to cut certain scenes.	The Philippines censorship board voted to cut certain scenes.	222565400	1477998039187	1477998039319	NA	83
434637	4686771	The Philippines censorship board voted to cut certain scenes.	The Philippines censorship board voted to cut certain scenes.	222565401	1477998039281	1477998039398	NA	32
434637	4686771	The Philippines censorship board voted to cut certain scenes.	The Philippines censorship board voted to cut certain scenes.	222565402	1477998039554	1477998039735	NA	67
434637	4686771	The Philippines censorship board voted to cut certain scenes.	The Philippines censorship board voted to cut certain scenes.	222565403	1477998039803	1477998039962	NA	79
434637	4686771	The Philippines censorship board voted to cut certain scenes.	The Philippines censorship board voted to cut certain scenes.	222565424	1477998040109	1477998040202		8
434637	4686771	The Philippines censorship board voted to cut certain scenes.	The Philippines censorship board voted to cut certain scenes.	222565426	1477998040174	1477998040333	NA	69
434637	4686771	The Philippines censorship board voted to cut certain scenes.	The Philippines censorship board voted to cut certain scenes.	222565429	1477998040356	1477998040470	NA	78
434637	4686771	The Philippines censorship board voted to cut certain scenes.	The Philippines censorship board voted to cut certain scenes.	222565431	1477998040731	1477998040877	NA	83
434637	4686771	The Philippines censorship board voted to cut certain scenes.	The Philippines censorship board voted to cut certain scenes.	222565432	1477998040884	1477998041056	NA	79
434637	4686771	The Philippines censorship board voted to cut certain scenes.	The Philippines censorship board voted to cut certain scenes.	222565469	1477998041136	1477998041298	NA	82
434637	4686771	The Philippines censorship board voted to cut certain scenes.	The Philippines censorship board voted to cut certain scenes.	222565471	1477998041631	1477998041860	NA	83
434637	4686771	The Philippines censorship board voted to cut certain scenes.	The Philippines censorship board voted to cut certain scenes.	222565473	1477998041924	1477998042052	NA	72
434637	4686771	The Philippines censorship board voted to cut certain scenes.	The Philippines censorship board voted to cut certain scenes.	222565475	1477998042056	1477998042150	NA	79
434637	4686771	The Philippines censorship board voted to cut certain scenes.	The Philippines censorship board voted to cut certain scenes.	222565483	1477998042132	1477998042217	NA	73
434637	4686771	The Philippines censorship board voted to cut certain scenes.	The Philippines censorship board voted to cut certain scenes.	222565486	1477998042505	1477998042588		8
434637	4686771	The Philippines censorship board voted to cut certain scenes.	The Philippines censorship board voted to cut certain scenes.	222565488	1477998042649	1477998042744		8
434637	4686771	The Philippines censorship board voted to cut certain scenes.	The Philippines censorship board voted to cut certain scenes.	222565490	1477998042844	1477998042952	NA	73
434637	4686771	The Philippines censorship board voted to cut certain scenes.	The Philippines censorship board voted to cut certain scenes.	222565493	1477998043010	1477998043149	NA	80
434637	4686771	The Philippines censorship board voted to cut certain scenes.	The Philippines censorship board voted to cut certain scenes.	222565564	1477998043058	1477998043193	NA	32
434637	4686771	The Philippines censorship board voted to cut certain scenes.	The Philippines censorship board voted to cut certain scenes.	222565567	1477998043542	1477998043680	NA	66
434637	4686771	The Philippines censorship board voted to cut certain scenes.	The Philippines censorship board voted to cut certain scenes.	222565571	1477998043665	1477998043766	NA	65
434637	4686771	The Philippines censorship board voted to cut certain scenes.	The Philippines censorship board voted to cut certain scenes.	222565575	1477998043975	1477998044058		8
434637	4686771	The Philippines censorship board voted to cut certain scenes.	The Philippines censorship board voted to cut certain scenes.	222565578	1477998044151	1477998044291	NA	79
434637	4686771	The Philippines censorship board voted to cut certain scenes.	The Philippines censorship board voted to cut certain scenes.	222565579	1477998044541	1477998044720	NA	65
434637	4686771	The Philippines censorship board voted to cut certain scenes.	The Philippines censorship board voted to cut certain scenes.	222565595	1477998044771	1477998044899	NA	82
434637	4686771	The Philippines censorship board voted to cut certain scenes.	The Philippines censorship board voted to cut certain scenes.	222565598	1477998044972	1477998045133	NA	68
434637	4686771	The Philippines censorship board voted to cut certain scenes.	The Philippines censorship board voted to cut certain scenes.	222565601	1477998045111	1477998045235	NA	32
434637	4686771	The Philippines censorship board voted to cut certain scenes.	The Philippines censorship board voted to cut certain scenes.	222565606	1477998045463	1477998045608	NA	86
434637	4686771	The Philippines censorship board voted to cut certain scenes.	The Philippines censorship board voted to cut certain scenes.	222565645	1477998045583	1477998045744	NA	79
434637	4686771	The Philippines censorship board voted to cut certain scenes.	The Philippines censorship board voted to cut certain scenes.	222565649	1477998045834	1477998045984	NA	84
434637	4686771	The Philippines censorship board voted to cut certain scenes.	The Philippines censorship board voted to cut certain scenes.	222565651	1477998046004	1477998046112	NA	69
434637	4686771	The Philippines censorship board voted to cut certain scenes.	The Philippines censorship board voted to cut certain scenes.	222565654	1477998046195	1477998046315	NA	68
434637	4686771	The Philippines censorship board voted to cut certain scenes.	The Philippines censorship board voted to cut certain scenes.	222565657	1477998046289	1477998046375	NA	32
434637	4686771	The Philippines censorship board voted to cut certain scenes.	The Philippines censorship board voted to cut certain scenes.	222565658	1477998046528	1477998046701	NA	84
434637	4686771	The Philippines censorship board voted to cut certain scenes.	The Philippines censorship board voted to cut certain scenes.	222565682	1477998046580	1477998046733	NA	79
434637	4686771	The Philippines censorship board voted to cut certain scenes.	The Philippines censorship board voted to cut certain scenes.	222565684	1477998046682	1477998046818	NA	32
434637	4686771	The Philippines censorship board voted to cut certain scenes.	The Philippines censorship board voted to cut certain scenes.	222565687	1477998047044	1477998047208	NA	67
434637	4686771	The Philippines censorship board voted to cut certain scenes.	The Philippines censorship board voted to cut certain scenes.	222565690	1477998047154	1477998047294	NA	85
434637	4686771	The Philippines censorship board voted to cut certain scenes.	The Philippines censorship board voted to cut certain scenes.	222565694	1477998047355	1477998047484	NA	84
434637	4686771	The Philippines censorship board voted to cut certain scenes.	The Philippines censorship board voted to cut certain scenes.	222565697	1477998047471	1477998047595	NA	32
434637	4686771	The Philippines censorship board voted to cut certain scenes.	The Philippines censorship board voted to cut certain scenes.	222565698	1477998047741	1477998047852	NA	67
434637	4686771	The Philippines censorship board voted to cut certain scenes.	The Philippines censorship board voted to cut certain scenes.	222565711	1477998048656	1477998048801	NA	69
434637	4686771	The Philippines censorship board voted to cut certain scenes.	The Philippines censorship board voted to cut certain scenes.	222565713	1477998048775	1477998048921	NA	82
434637	4686771	The Philippines censorship board voted to cut certain scenes.	The Philippines censorship board voted to cut certain scenes.	222565715	1477998049083	1477998049193	NA	84
434637	4686771	The Philippines censorship board voted to cut certain scenes.	The Philippines censorship board voted to cut certain scenes.	222565718	1477998049183	1477998049323	NA	65
434637	4686771	The Philippines censorship board voted to cut certain scenes.	The Philippines censorship board voted to cut certain scenes.	222565720	1477998049406	1477998049512	NA	73
434637	4686771	The Philippines censorship board voted to cut certain scenes.	The Philippines censorship board voted to cut certain scenes.	222565736	1477998049541	1477998049681	NA	78
434637	4686771	The Philippines censorship board voted to cut certain scenes.	The Philippines censorship board voted to cut certain scenes.	222565741	1477998049708	1477998049806	NA	32
434637	4686771	The Philippines censorship board voted to cut certain scenes.	The Philippines censorship board voted to cut certain scenes.	222565744	1477998050069	1477998050200	NA	83
434637	4686771	The Philippines censorship board voted to cut certain scenes.	The Philippines censorship board voted to cut certain scenes.	222565748	1477998050214	1477998050325	NA	69
434637	4686771	The Philippines censorship board voted to cut certain scenes.	The Philippines censorship board voted to cut certain scenes.	222565752	1477998050484	1477998050649	NA	67
434637	4686771	The Philippines censorship board voted to cut certain scenes.	The Philippines censorship board voted to cut certain scenes.	222565783	1477998051001	1477998051084		8
434637	4686771	The Philippines censorship board voted to cut certain scenes.	The Philippines censorship board voted to cut certain scenes.	222565784	1477998051221	1477998051329	NA	69
434637	4686771	The Philippines censorship board voted to cut certain scenes.	The Philippines censorship board voted to cut certain scenes.	222565785	1477998051362	1477998051476	NA	78
434637	4686771	The Philippines censorship board voted to cut certain scenes.	The Philippines censorship board voted to cut certain scenes.	222565787	1477998051544	1477998051709	NA	67
434637	4686771	The Philippines censorship board voted to cut certain scenes.	The Philippines censorship board voted to cut certain scenes.	222565788	1477998052336	1477998052428		8
434637	4686771	The Philippines censorship board voted to cut certain scenes.	The Philippines censorship board voted to cut certain scenes.	222565850	1477998052498	1477998052594		8
434637	4686771	The Philippines censorship board voted to cut certain scenes.	The Philippines censorship board voted to cut certain scenes.	222565851	1477998052668	1477998052760		8
434637	4686771	The Philippines censorship board voted to cut certain scenes.	The Philippines censorship board voted to cut certain scenes.	222565853	1477998052944	1477998053065	NA	78
434637	4686771	The Philippines censorship board voted to cut certain scenes.	The Philippines censorship board voted to cut certain scenes.	222565854	1477998053871	1477998053963		8
434637	4686771	The Philippines censorship board voted to cut certain scenes.	The Philippines censorship board voted to cut certain scenes.	222565855	1477998054018	1477998054155	NA	69
434637	4686771	The Philippines censorship board voted to cut certain scenes.	The Philippines censorship board voted to cut certain scenes.	222565890	1477998054450	1477998054533		8
434637	4686771	The Philippines censorship board voted to cut certain scenes.	The Philippines censorship board voted to cut certain scenes.	222565892	1477998054610	1477998054731		8
434637	4686771	The Philippines censorship board voted to cut certain scenes.	The Philippines censorship board voted to cut certain scenes.	222565896	1477998054864	1477998055027	NA	67
434637	4686771	The Philippines censorship board voted to cut certain scenes.	The Philippines censorship board voted to cut certain scenes.	222565898	1477998055040	1477998055155	NA	69
434637	4686771	The Philippines censorship board voted to cut certain scenes.	The Philippines censorship board voted to cut certain scenes.	222565902	1477998055226	1477998055340	NA	78
434637	4686771	The Philippines censorship board voted to cut certain scenes.	The Philippines censorship board voted to cut certain scenes.	222565929	1477998055610	1477998055727	NA	69
434637	4686771	The Philippines censorship board voted to cut certain scenes.	The Philippines censorship board voted to cut certain scenes.	222565931	1477998055773	1477998055886	NA	83
434637	4686771	The Philippines censorship board voted to cut certain scenes.	The Philippines censorship board voted to cut certain scenes.	222565933	1477998055873	1477998055997	NA	190
434637	4686781	Juppe met with the president at the Oval office.	Juppe met with the president at the Oval office.	222566058	1477998059574	1477998059793	SHIFT	16
434637	4686781	Juppe met with the president at the Oval office.	Juppe met with the president at the Oval office.	222566054	1477998059642	1477998059783	NA	74
434637	4686781	Juppe met with the president at the Oval office.	Juppe met with the president at the Oval office.	222566064	1477998059930	1477998060054	NA	85
434637	4686781	Juppe met with the president at the Oval office.	Juppe met with the president at the Oval office.	222566071	1477998060330	1477998060416	NA	80
434637	4686781	Juppe met with the president at the Oval office.	Juppe met with the president at the Oval office.	222566077	1477998060455	1477998060553	NA	80
434637	4686781	Juppe met with the president at the Oval office.	Juppe met with the president at the Oval office.	222566080	1477998060662	1477998060772	NA	69
434637	4686781	Juppe met with the president at the Oval office.	Juppe met with the president at the Oval office.	222566103	1477998060718	1477998060880	NA	32
434637	4686781	Juppe met with the president at the Oval office.	Juppe met with the president at the Oval office.	222566104	1477998061052	1477998061271	SHIFT	16
434637	4686781	Juppe met with the president at the Oval office.	Juppe met with the president at the Oval office.	222566106	1477998061155	1477998061334	NA	77
434637	4686781	Juppe met with the president at the Oval office.	Juppe met with the president at the Oval office.	222566109	1477998061392	1477998061497	NA	69
434637	4686781	Juppe met with the president at the Oval office.	Juppe met with the president at the Oval office.	222566113	1477998061719	1477998061799		8
434637	4686781	Juppe met with the president at the Oval office.	Juppe met with the president at the Oval office.	222566115	1477998061914	1477998061949		8
434637	4686781	Juppe met with the president at the Oval office.	Juppe met with the president at the Oval office.	222566118	1477998062089	1477998062184	NA	77
434637	4686781	Juppe met with the president at the Oval office.	Juppe met with the president at the Oval office.	222566132	1477998062164	1477998062282	NA	69
434637	4686781	Juppe met with the president at the Oval office.	Juppe met with the president at the Oval office.	222566134	1477998062381	1477998062519	NA	84
434637	4686781	Juppe met with the president at the Oval office.	Juppe met with the president at the Oval office.	222566136	1477998062500	1477998062630	NA	32
434637	4686781	Juppe met with the president at the Oval office.	Juppe met with the president at the Oval office.	222566139	1477998062808	1477998062938	NA	87
434637	4686781	Juppe met with the president at the Oval office.	Juppe met with the president at the Oval office.	222566142	1477998062889	1477998063019	NA	73
434637	4686781	Juppe met with the president at the Oval office.	Juppe met with the president at the Oval office.	222566151	1477998063012	1477998063148	NA	84
434637	4686781	Juppe met with the president at the Oval office.	Juppe met with the president at the Oval office.	222566154	1477998063064	1477998063191	NA	72
434637	4686781	Juppe met with the president at the Oval office.	Juppe met with the president at the Oval office.	222566156	1477998063150	1477998063283	NA	32
434637	4686781	Juppe met with the president at the Oval office.	Juppe met with the president at the Oval office.	222566158	1477998063344	1477998063485	NA	84
434637	4686781	Juppe met with the president at the Oval office.	Juppe met with the president at the Oval office.	222566168	1477998063387	1477998063516	NA	72
434637	4686781	Juppe met with the president at the Oval office.	Juppe met with the president at the Oval office.	222566169	1477998063469	1477998063576	NA	69
434637	4686781	Juppe met with the president at the Oval office.	Juppe met with the president at the Oval office.	222566170	1477998063496	1477998063601	NA	32
434637	4686781	Juppe met with the president at the Oval office.	Juppe met with the president at the Oval office.	222566171	1477998063940	1477998064087	NA	80
434637	4686781	Juppe met with the president at the Oval office.	Juppe met with the president at the Oval office.	222566173	1477998064110	1477998064265	NA	82
434637	4686781	Juppe met with the president at the Oval office.	Juppe met with the president at the Oval office.	222566175	1477998064223	1477998064351	NA	69
434637	4686781	Juppe met with the president at the Oval office.	Juppe met with the president at the Oval office.	222566179	1477998064452	1477998064592	NA	83
434637	4686781	Juppe met with the president at the Oval office.	Juppe met with the president at the Oval office.	222566188	1477998064632	1477998064749	NA	73
434637	4686781	Juppe met with the president at the Oval office.	Juppe met with the president at the Oval office.	222566189	1477998064804	1477998064916	NA	68
434637	4686781	Juppe met with the president at the Oval office.	Juppe met with the president at the Oval office.	222566190	1477998064989	1477998065081	NA	69
434637	4686781	Juppe met with the president at the Oval office.	Juppe met with the president at the Oval office.	222566191	1477998065036	1477998065174	NA	78
434637	4686781	Juppe met with the president at the Oval office.	Juppe met with the president at the Oval office.	222566192	1477998065149	1477998065255	NA	84
434637	4686781	Juppe met with the president at the Oval office.	Juppe met with the president at the Oval office.	222566193	1477998065242	1477998065331	NA	32
434637	4686781	Juppe met with the president at the Oval office.	Juppe met with the president at the Oval office.	222566194	1477998065484	1477998065658	NA	65
434637	4686781	Juppe met with the president at the Oval office.	Juppe met with the president at the Oval office.	222566195	1477998065651	1477998065780	NA	84
434637	4686781	Juppe met with the president at the Oval office.	Juppe met with the president at the Oval office.	222566196	1477998065738	1477998065849	NA	32
434637	4686781	Juppe met with the president at the Oval office.	Juppe met with the president at the Oval office.	222566197	1477998065920	1477998066024	NA	84
434637	4686781	Juppe met with the president at the Oval office.	Juppe met with the president at the Oval office.	222566221	1477998065944	1477998066067	NA	72
434637	4686781	Juppe met with the president at the Oval office.	Juppe met with the president at the Oval office.	222566222	1477998066029	1477998066117	NA	69
434637	4686781	Juppe met with the president at the Oval office.	Juppe met with the president at the Oval office.	222566223	1477998066085	1477998066177	NA	32
434637	4686781	Juppe met with the president at the Oval office.	Juppe met with the president at the Oval office.	222566224	1477998066573	1477998066709	NA	79
434637	4686781	Juppe met with the president at the Oval office.	Juppe met with the president at the Oval office.	222566225	1477998066742	1477998066901	NA	86
434637	4686781	Juppe met with the president at the Oval office.	Juppe met with the president at the Oval office.	222566227	1477998067190	1477998067263		8
434637	4686781	Juppe met with the president at the Oval office.	Juppe met with the president at the Oval office.	222566259	1477998067330	1477998067448		8
434637	4686781	Juppe met with the president at the Oval office.	Juppe met with the president at the Oval office.	222566261	1477998067645	1477998067845	SHIFT	16
434637	4686781	Juppe met with the president at the Oval office.	Juppe met with the president at the Oval office.	222566264	1477998067752	1477998067899	NA	79
434637	4686781	Juppe met with the president at the Oval office.	Juppe met with the president at the Oval office.	222566267	1477998067953	1477998068097	NA	86
434637	4686781	Juppe met with the president at the Oval office.	Juppe met with the president at the Oval office.	222566272	1477998068366	1477998068502	NA	65
434637	4686781	Juppe met with the president at the Oval office.	Juppe met with the president at the Oval office.	222566288	1477998068463	1477998068596	NA	76
434637	4686781	Juppe met with the president at the Oval office.	Juppe met with the president at the Oval office.	222566290	1477998068529	1477998068650	NA	32
434637	4686781	Juppe met with the president at the Oval office.	Juppe met with the president at the Oval office.	222566291	1477998068863	1477998068999	NA	79
434637	4686781	Juppe met with the president at the Oval office.	Juppe met with the president at the Oval office.	222566293	1477998069020	1477998069096	NA	70
434637	4686781	Juppe met with the president at the Oval office.	Juppe met with the president at the Oval office.	222566295	1477998069144	1477998069270	NA	70
434637	4686781	Juppe met with the president at the Oval office.	Juppe met with the president at the Oval office.	222566337	1477998069254	1477998069388	NA	73
434637	4686781	Juppe met with the president at the Oval office.	Juppe met with the president at the Oval office.	222566339	1477998069427	1477998069573	NA	67
434637	4686781	Juppe met with the president at the Oval office.	Juppe met with the president at the Oval office.	222566343	1477998069575	1477998069673	NA	69
434637	4686781	Juppe met with the president at the Oval office.	Juppe met with the president at the Oval office.	222566345	1477998069690	1477998069817	NA	190
434637	4686792	I think this move will not overcome the problem.	I think this move will not overcome the problem.	222566427	1477998073028	1477998073222	SHIFT	16
434637	4686792	I think this move will not overcome the problem.	I think this move will not overcome the problem.	222566429	1477998073103	1477998073252	NA	73
434637	4686792	I think this move will not overcome the problem.	I think this move will not overcome the problem.	222566431	1477998073242	1477998073372	NA	32
434637	4686792	I think this move will not overcome the problem.	I think this move will not overcome the problem.	222566434	1477998073705	1477998073867	NA	84
434637	4686792	I think this move will not overcome the problem.	I think this move will not overcome the problem.	222566437	1477998073915	1477998074017	NA	72
434637	4686792	I think this move will not overcome the problem.	I think this move will not overcome the problem.	222566441	1477998074050	1477998074158	NA	73
434637	4686792	I think this move will not overcome the problem.	I think this move will not overcome the problem.	222566454	1477998074216	1477998074334	NA	78
434637	4686792	I think this move will not overcome the problem.	I think this move will not overcome the problem.	222566455	1477998074411	1477998074521	NA	75
434637	4686792	I think this move will not overcome the problem.	I think this move will not overcome the problem.	222566457	1477998074511	1477998074625	NA	32
434637	4686792	I think this move will not overcome the problem.	I think this move will not overcome the problem.	222566459	1477998074832	1477998074939	NA	84
434637	4686792	I think this move will not overcome the problem.	I think this move will not overcome the problem.	222566492	1477998074910	1477998075008	NA	72
434637	4686792	I think this move will not overcome the problem.	I think this move will not overcome the problem.	222566494	1477998075038	1477998075159	NA	73
434637	4686792	I think this move will not overcome the problem.	I think this move will not overcome the problem.	222566499	1477998075163	1477998075273	NA	83
434637	4686792	I think this move will not overcome the problem.	I think this move will not overcome the problem.	222566496	1477998075190	1477998075258	NA	32
434637	4686792	I think this move will not overcome the problem.	I think this move will not overcome the problem.	222566502	1477998076029	1477998076150	NA	77
434637	4686792	I think this move will not overcome the problem.	I think this move will not overcome the problem.	222566505	1477998076208	1477998076341	NA	79
434637	4686792	I think this move will not overcome the problem.	I think this move will not overcome the problem.	222566534	1477998076245	1477998076408	NA	86
434637	4686792	I think this move will not overcome the problem.	I think this move will not overcome the problem.	222566536	1477998076431	1477998076539	NA	69
434637	4686792	I think this move will not overcome the problem.	I think this move will not overcome the problem.	222566540	1477998076559	1477998076658	NA	32
434637	4686792	I think this move will not overcome the problem.	I think this move will not overcome the problem.	222566541	1477998077089	1477998077260	NA	87
434637	4686792	I think this move will not overcome the problem.	I think this move will not overcome the problem.	222566544	1477998077464	1477998077549	NA	73
434637	4686792	I think this move will not overcome the problem.	I think this move will not overcome the problem.	222566547	1477998077645	1477998077734	NA	76
434637	4686792	I think this move will not overcome the problem.	I think this move will not overcome the problem.	222566561	1477998077789	1477998077891	NA	76
434637	4686792	I think this move will not overcome the problem.	I think this move will not overcome the problem.	222566564	1477998077943	1477998078041	NA	32
434637	4686792	I think this move will not overcome the problem.	I think this move will not overcome the problem.	222566568	1477998078084	1477998078198	NA	78
434637	4686792	I think this move will not overcome the problem.	I think this move will not overcome the problem.	222566572	1477998078212	1477998078360	NA	79
434637	4686792	I think this move will not overcome the problem.	I think this move will not overcome the problem.	222566592	1477998078344	1477998078489	NA	84
434637	4686792	I think this move will not overcome the problem.	I think this move will not overcome the problem.	222566594	1477998078450	1477998078574	NA	32
434637	4686792	I think this move will not overcome the problem.	I think this move will not overcome the problem.	222566596	1477998078711	1477998078874	NA	79
434637	4686792	I think this move will not overcome the problem.	I think this move will not overcome the problem.	222566599	1477998078913	1477998079052	NA	86
434637	4686792	I think this move will not overcome the problem.	I think this move will not overcome the problem.	222566602	1477998079130	1477998079243	NA	69
434637	4686792	I think this move will not overcome the problem.	I think this move will not overcome the problem.	222566646	1477998079189	1477998079322	NA	82
434637	4686792	I think this move will not overcome the problem.	I think this move will not overcome the problem.	222566649	1477998079942	1477998080123	NA	67
434637	4686792	I think this move will not overcome the problem.	I think this move will not overcome the problem.	222566652	1477998080042	1477998080199	NA	79
434637	4686792	I think this move will not overcome the problem.	I think this move will not overcome the problem.	222566655	1477998080285	1477998080437	NA	77
434637	4686792	I think this move will not overcome the problem.	I think this move will not overcome the problem.	222566657	1477998080325	1477998080472	NA	69
434637	4686792	I think this move will not overcome the problem.	I think this move will not overcome the problem.	222566659	1477998080495	1477998080616	NA	32
434637	4686792	I think this move will not overcome the problem.	I think this move will not overcome the problem.	222566673	1477998081003	1477998081126	NA	84
434637	4686792	I think this move will not overcome the problem.	I think this move will not overcome the problem.	222566674	1477998081077	1477998081209	NA	72
434637	4686792	I think this move will not overcome the problem.	I think this move will not overcome the problem.	222566675	1477998081165	1477998081270	NA	69
434637	4686792	I think this move will not overcome the problem.	I think this move will not overcome the problem.	222566676	1477998081467	1477998081607	NA	80
434637	4686792	I think this move will not overcome the problem.	I think this move will not overcome the problem.	222566697	1477998081655	1477998081792	NA	82
434637	4686792	I think this move will not overcome the problem.	I think this move will not overcome the problem.	222566699	1477998081799	1477998081927	NA	79
434637	4686792	I think this move will not overcome the problem.	I think this move will not overcome the problem.	222566702	1477998082048	1477998082175	NA	66
434637	4686792	I think this move will not overcome the problem.	I think this move will not overcome the problem.	222566706	1477998082776	1477998082933	NA	76
434637	4686792	I think this move will not overcome the problem.	I think this move will not overcome the problem.	222566709	1477998082934	1477998083044	NA	69
434637	4686792	I think this move will not overcome the problem.	I think this move will not overcome the problem.	222566745	1477998083112	1477998083198	NA	77
434637	4686792	I think this move will not overcome the problem.	I think this move will not overcome the problem.	222566748	1477998083335	1477998083433	NA	190
434637	4686908	I think those are the right dates.	I think those are the right dates.	222572242	1477998319553	1477998319898	SHIFT	16
434637	4686908	I think those are the right dates.	I think those are the right dates.	222572244	1477998319776	1477998319960	NA	73
434637	4686908	I think those are the right dates.	I think those are the right dates.	222572245	1477998320126	1477998320307	NA	32
434637	4686908	I think those are the right dates.	I think those are the right dates.	222572247	1477998320589	1477998320744	NA	84
434637	4686908	I think those are the right dates.	I think those are the right dates.	222572249	1477998320697	1477998320849	NA	72
434637	4686908	I think those are the right dates.	I think those are the right dates.	222572251	1477998320853	1477998320990	NA	73
434637	4686908	I think those are the right dates.	I think those are the right dates.	222572270	1477998321064	1477998321156	NA	78
434637	4686908	I think those are the right dates.	I think those are the right dates.	222572271	1477998321227	1477998321375	NA	75
434637	4686908	I think those are the right dates.	I think those are the right dates.	222572272	1477998321343	1477998321474	NA	32
434637	4686908	I think those are the right dates.	I think those are the right dates.	222572273	1477998321736	1477998321907	NA	84
434637	4686908	I think those are the right dates.	I think those are the right dates.	222572296	1477998321894	1477998321995	NA	72
434637	4686908	I think those are the right dates.	I think those are the right dates.	222572297	1477998321970	1477998322165	NA	79
434637	4686908	I think those are the right dates.	I think those are the right dates.	222572298	1477998322115	1477998322275	NA	83
434637	4686908	I think those are the right dates.	I think those are the right dates.	222572299	1477998322255	1477998322406	NA	69
434637	4686908	I think those are the right dates.	I think those are the right dates.	222572300	1477998322349	1477998322492	NA	32
434637	4686908	I think those are the right dates.	I think those are the right dates.	222572301	1477998322658	1477998322875	NA	65
434637	4686908	I think those are the right dates.	I think those are the right dates.	222572304	1477998322872	1477998322941	NA	82
434637	4686908	I think those are the right dates.	I think those are the right dates.	222572308	1477998322898	1477998323048	NA	69
434637	4686908	I think those are the right dates.	I think those are the right dates.	222572312	1477998322993	1477998323133	NA	32
434637	4686908	I think those are the right dates.	I think those are the right dates.	222572316	1477998323179	1477998323304	NA	84
434637	4686908	I think those are the right dates.	I think those are the right dates.	222572328	1477998323231	1477998323345	NA	72
434637	4686908	I think those are the right dates.	I think those are the right dates.	222572330	1477998323291	1477998323407	NA	69
434637	4686908	I think those are the right dates.	I think those are the right dates.	222572331	1477998323353	1477998323458	NA	32
434637	4686908	I think those are the right dates.	I think those are the right dates.	222572332	1477998323667	1477998323796	NA	82
434637	4686908	I think those are the right dates.	I think those are the right dates.	222572334	1477998323771	1477998323911	NA	73
434637	4686908	I think those are the right dates.	I think those are the right dates.	222572336	1477998323921	1477998324055	NA	71
434637	4686908	I think those are the right dates.	I think those are the right dates.	222572345	1477998324035	1477998324179	NA	72
434637	4686908	I think those are the right dates.	I think those are the right dates.	222572346	1477998324153	1477998324277	NA	84
434637	4686908	I think those are the right dates.	I think those are the right dates.	222572347	1477998324291	1477998324412	NA	32
434637	4686908	I think those are the right dates.	I think those are the right dates.	222572348	1477998324704	1477998324856	NA	68
434637	4686908	I think those are the right dates.	I think those are the right dates.	222572349	1477998324836	1477998324969	NA	65
434637	4686908	I think those are the right dates.	I think those are the right dates.	222572350	1477998325040	1477998325186	NA	84
434637	4686908	I think those are the right dates.	I think those are the right dates.	222572366	1477998325172	1477998325280	NA	69
434637	4686908	I think those are the right dates.	I think those are the right dates.	222572367	1477998325344	1477998325474	NA	83
434637	4686908	I think those are the right dates.	I think those are the right dates.	222572368	1477998325491	1477998325619	NA	190
