PARTICIPANT_ID	TEST_SECTION_ID	SENTENCE	USER_INPUT	KEYSTROKE_ID	PRESS_TIME	RELEASE_TIME	LETTER	KEYCODE
436116	4701090	There is in fact few differences between the candidates.	There is in fact few differences between the candidates.	223239716	1478014586081	1478014586324	SHIFT	16
436116	4701090	There is in fact few differences between the candidates.	There is in fact few differences between the candidates.	223239720	1478014586227	1478014586345	T	84
436116	4701090	There is in fact few differences between the candidates.	There is in fact few differences between the candidates.	223239722	1478014586357	1478014586409	h	72
436116	4701090	There is in fact few differences between the candidates.	There is in fact few differences between the candidates.	223239724	1478014586431	1478014586526	e	69
436116	4701090	There is in fact few differences between the candidates.	There is in fact few differences between the candidates.	223239726	1478014586537	1478014586662	r	82
436116	4701090	There is in fact few differences between the candidates.	There is in fact few differences between the candidates.	223239752	1478014586631	1478014586767	e	69
436116	4701090	There is in fact few differences between the candidates.	There is in fact few differences between the candidates.	223239756	1478014586735	1478014586831	 	32
436116	4701090	There is in fact few differences between the candidates.	There is in fact few differences between the candidates.	223239758	1478014586864	1478014586991	i	73
436116	4701090	There is in fact few differences between the candidates.	There is in fact few differences between the candidates.	223239760	1478014587002	1478014587094	s	83
436116	4701090	There is in fact few differences between the candidates.	There is in fact few differences between the candidates.	223239764	1478014587107	1478014587158	 	32
436116	4701090	There is in fact few differences between the candidates.	There is in fact few differences between the candidates.	223239768	1478014587181	1478014587350	i	73
436116	4701090	There is in fact few differences between the candidates.	There is in fact few differences between the candidates.	223239791	1478014587287	1478014587413	n	78
436116	4701090	There is in fact few differences between the candidates.	There is in fact few differences between the candidates.	223239792	1478014587424	1478014587508	 	32
436116	4701090	There is in fact few differences between the candidates.	There is in fact few differences between the candidates.	223239793	1478014587613	1478014587699	f	70
436116	4701090	There is in fact few differences between the candidates.	There is in fact few differences between the candidates.	223239795	1478014587723	1478014587841	a	65
436116	4701090	There is in fact few differences between the candidates.	There is in fact few differences between the candidates.	223239797	1478014587819	1478014587936	c	67
436116	4701090	There is in fact few differences between the candidates.	There is in fact few differences between the candidates.	223239799	1478014588094	1478014588188	t	84
436116	4701090	There is in fact few differences between the candidates.	There is in fact few differences between the candidates.	223239822	1478014588250	1478014588365	 	32
436116	4701090	There is in fact few differences between the candidates.	There is in fact few differences between the candidates.	223239824	1478014588418	1478014588503	f	70
436116	4701090	There is in fact few differences between the candidates.	There is in fact few differences between the candidates.	223239825	1478014588557	1478014588630	e	69
436116	4701090	There is in fact few differences between the candidates.	There is in fact few differences between the candidates.	223239826	1478014588728	1478014588811	w	87
436116	4701090	There is in fact few differences between the candidates.	There is in fact few differences between the candidates.	223239827	1478014588875	1478014589023	 	32
436116	4701090	There is in fact few differences between the candidates.	There is in fact few differences between the candidates.	223239878	1478014588991	1478014589075	d	68
436116	4701090	There is in fact few differences between the candidates.	There is in fact few differences between the candidates.	223239880	1478014589194	1478014589255	f	70
436116	4701090	There is in fact few differences between the candidates.	There is in fact few differences between the candidates.	223239883	1478014589298	1478014589371	o	79
436116	4701090	There is in fact few differences between the candidates.	There is in fact few differences between the candidates.	223239885	1478014589550	1478014589616	BKSP	8
436116	4701090	There is in fact few differences between the candidates.	There is in fact few differences between the candidates.	223239887	1478014589699	1478014589782	BKSP	8
436116	4701090	There is in fact few differences between the candidates.	There is in fact few differences between the candidates.	223239890	1478014589751	1478014589867	o	79
436116	4701090	There is in fact few differences between the candidates.	There is in fact few differences between the candidates.	223239891	1478014589879	1478014589941	f	70
436116	4701090	There is in fact few differences between the candidates.	There is in fact few differences between the candidates.	223239892	1478014590066	1478014590161	BKSP	8
436116	4701090	There is in fact few differences between the candidates.	There is in fact few differences between the candidates.	223239893	1478014590215	1478014590309	BKSP	8
436116	4701090	There is in fact few differences between the candidates.	There is in fact few differences between the candidates.	223239907	1478014590267	1478014590373	i	73
436116	4701090	There is in fact few differences between the candidates.	There is in fact few differences between the candidates.	223239909	1478014590425	1478014590500	f	70
436116	4701090	There is in fact few differences between the candidates.	There is in fact few differences between the candidates.	223239915	1478014590588	1478014590672	f	70
436116	4701090	There is in fact few differences between the candidates.	There is in fact few differences between the candidates.	223239918	1478014590766	1478014590880	e	69
436116	4701090	There is in fact few differences between the candidates.	There is in fact few differences between the candidates.	223239923	1478014590891	1478014590998	r	82
436116	4701090	There is in fact few differences between the candidates.	There is in fact few differences between the candidates.	223239927	1478014591019	1478014591114	e	69
436116	4701090	There is in fact few differences between the candidates.	There is in fact few differences between the candidates.	223239994	1478014591264	1478014591316	n	77
436116	4701090	There is in fact few differences between the candidates.	There is in fact few differences between the candidates.	223239996	1478014591454	1478014591603	c	67
436116	4701090	There is in fact few differences between the candidates.	There is in fact few differences between the candidates.	223239999	1478014591571	1478014591666	e	69
436116	4701090	There is in fact few differences between the candidates.	There is in fact few differences between the candidates.	223240002	1478014591814	1478014591878	BKSP	8
436116	4701090	There is in fact few differences between the candidates.	There is in fact few differences between the candidates.	223240005	1478014591951	1478014592005	BKSP	8
436116	4701090	There is in fact few differences between the candidates.	There is in fact few differences between the candidates.	223240009	1478014592101	1478014592155	BKSP	8
436116	4701090	There is in fact few differences between the candidates.	There is in fact few differences between the candidates.	223240013	1478014592240	1478014592324	BKSP	8
436116	4701090	There is in fact few differences between the candidates.	There is in fact few differences between the candidates.	223240015	1478014592433	1478014592540	n	78
436116	4701090	There is in fact few differences between the candidates.	There is in fact few differences between the candidates.	223240044	1478014592507	1478014592665	c	67
436116	4701090	There is in fact few differences between the candidates.	There is in fact few differences between the candidates.	223240048	1478014592613	1478014592729	e	69
436116	4701090	There is in fact few differences between the candidates.	There is in fact few differences between the candidates.	223240052	1478014592845	1478014592961	s	83
436116	4701090	There is in fact few differences between the candidates.	There is in fact few differences between the candidates.	223240055	1478014592971	1478014593077	 	32
436116	4701090	There is in fact few differences between the candidates.	There is in fact few differences between the candidates.	223240056	1478014593149	1478014593245	b	66
436116	4701090	There is in fact few differences between the candidates.	There is in fact few differences between the candidates.	223240059	1478014593257	1478014593374	e	69
436116	4701090	There is in fact few differences between the candidates.	There is in fact few differences between the candidates.	223240087	1478014593340	1478014593447	t	84
436116	4701090	There is in fact few differences between the candidates.	There is in fact few differences between the candidates.	223240090	1478014593524	1478014593661	w	87
436116	4701090	There is in fact few differences between the candidates.	There is in fact few differences between the candidates.	223240094	1478014593608	1478014593704	e	69
436116	4701090	There is in fact few differences between the candidates.	There is in fact few differences between the candidates.	223240098	1478014593766	1478014593896	e	69
436116	4701090	There is in fact few differences between the candidates.	There is in fact few differences between the candidates.	223240102	1478014593908	1478014593990	n	78
436116	4701090	There is in fact few differences between the candidates.	There is in fact few differences between the candidates.	223240106	1478014594001	1478014594118	 	32
436116	4701090	There is in fact few differences between the candidates.	There is in fact few differences between the candidates.	223240119	1478014594065	1478014594183	t	84
436116	4701090	There is in fact few differences between the candidates.	There is in fact few differences between the candidates.	223240120	1478014594129	1478014594214	h	72
436116	4701090	There is in fact few differences between the candidates.	There is in fact few differences between the candidates.	223240121	1478014594226	1478014594310	e	69
436116	4701090	There is in fact few differences between the candidates.	There is in fact few differences between the candidates.	223240123	1478014594321	1478014594438	 	32
436116	4701090	There is in fact few differences between the candidates.	There is in fact few differences between the candidates.	223240126	1478014594406	1478014594512	c	67
436116	4701090	There is in fact few differences between the candidates.	There is in fact few differences between the candidates.	223240129	1478014594536	1478014594627	a	65
436116	4701090	There is in fact few differences between the candidates.	There is in fact few differences between the candidates.	223240144	1478014594650	1478014594756	n	78
436116	4701090	There is in fact few differences between the candidates.	There is in fact few differences between the candidates.	223240145	1478014594768	1478014594841	d	68
436116	4701090	There is in fact few differences between the candidates.	There is in fact few differences between the candidates.	223240147	1478014594854	1478014594957	i	73
436116	4701090	There is in fact few differences between the candidates.	There is in fact few differences between the candidates.	223240148	1478014594968	1478014595042	d	68
436116	4701090	There is in fact few differences between the candidates.	There is in fact few differences between the candidates.	223240149	1478014595126	1478014595274	a	65
436116	4701090	There is in fact few differences between the candidates.	There is in fact few differences between the candidates.	223240240	1478014595232	1478014595370	t	84
436116	4701090	There is in fact few differences between the candidates.	There is in fact few differences between the candidates.	223240241	1478014595360	1478014595454	e	69
436116	4701090	There is in fact few differences between the candidates.	There is in fact few differences between the candidates.	223240242	1478014595540	1478014595623	s	83
436116	4701090	There is in fact few differences between the candidates.	There is in fact few differences between the candidates.	223240243	1478014595655	1478014595760	.	190
436116	4701104	Indy time trials begin Saturday.	Indy time trials begin Saturday	223240429	1478014602086	1478014602433	SHIFT	16
436116	4701104	Indy time trials begin Saturday.	Indy time trials begin Saturday	223240431	1478014602305	1478014602443	I	73
436116	4701104	Indy time trials begin Saturday.	Indy time trials begin Saturday	223240434	1478014602466	1478014602548	n	78
436116	4701104	Indy time trials begin Saturday.	Indy time trials begin Saturday	223240437	1478014602570	1478014602691	d	68
436116	4701104	Indy time trials begin Saturday.	Indy time trials begin Saturday	223240439	1478014602666	1478014602757	y	89
436116	4701104	Indy time trials begin Saturday.	Indy time trials begin Saturday	223240441	1478014602778	1478014602928	 	32
436116	4701104	Indy time trials begin Saturday.	Indy time trials begin Saturday	223240449	1478014602908	1478014602991	t	84
436116	4701104	Indy time trials begin Saturday.	Indy time trials begin Saturday	223240450	1478014603003	1478014603129	i	73
436116	4701104	Indy time trials begin Saturday.	Indy time trials begin Saturday	223240452	1478014603087	1478014603204	m	77
436116	4701104	Indy time trials begin Saturday.	Indy time trials begin Saturday	223240455	1478014603215	1478014603289	e	69
436116	4701104	Indy time trials begin Saturday.	Indy time trials begin Saturday	223240458	1478014603311	1478014603440	 	32
436116	4701104	Indy time trials begin Saturday.	Indy time trials begin Saturday	223240481	1478014603396	1478014603472	t	84
436116	4701104	Indy time trials begin Saturday.	Indy time trials begin Saturday	223240484	1478014603557	1478014603641	r	82
436116	4701104	Indy time trials begin Saturday.	Indy time trials begin Saturday	223240487	1478014603676	1478014603800	i	73
436116	4701104	Indy time trials begin Saturday.	Indy time trials begin Saturday	223240492	1478014603790	1478014603895	a	65
436116	4701104	Indy time trials begin Saturday.	Indy time trials begin Saturday	223240495	1478014603907	1478014603990	l	76
436116	4701104	Indy time trials begin Saturday.	Indy time trials begin Saturday	223240498	1478014604023	1478014604126	s	83
436116	4701104	Indy time trials begin Saturday.	Indy time trials begin Saturday	223240511	1478014604159	1478014604245	 	32
436116	4701104	Indy time trials begin Saturday.	Indy time trials begin Saturday	223240512	1478014604298	1478014604382	b	66
436116	4701104	Indy time trials begin Saturday.	Indy time trials begin Saturday	223240513	1478014604393	1478014604479	e	69
436116	4701104	Indy time trials begin Saturday.	Indy time trials begin Saturday	223240514	1478014604542	1478014604635	g	71
436116	4701104	Indy time trials begin Saturday.	Indy time trials begin Saturday	223240515	1478014604646	1478014604774	i	73
436116	4701104	Indy time trials begin Saturday.	Indy time trials begin Saturday	223240574	1478014604721	1478014604837	n	78
436116	4701104	Indy time trials begin Saturday.	Indy time trials begin Saturday	223240576	1478014604871	1478014604985	 	32
436116	4701104	Indy time trials begin Saturday.	Indy time trials begin Saturday	223240578	1478014605027	1478014605217	SHIFT	16
436116	4701104	Indy time trials begin Saturday.	Indy time trials begin Saturday	223240581	1478014605145	1478014605260	S	83
436116	4701104	Indy time trials begin Saturday.	Indy time trials begin Saturday	223240584	1478014605344	1478014605484	a	65
436116	4701104	Indy time trials begin Saturday.	Indy time trials begin Saturday	223240589	1478014605435	1478014605525	t	84
436116	4701104	Indy time trials begin Saturday.	Indy time trials begin Saturday	223240593	1478014605581	1478014605710	u	85
436116	4701104	Indy time trials begin Saturday.	Indy time trials begin Saturday	223240618	1478014605722	1478014605806	r	82
436116	4701104	Indy time trials begin Saturday.	Indy time trials begin Saturday	223240619	1478014605916	1478014606030	d	68
436116	4701104	Indy time trials begin Saturday.	Indy time trials begin Saturday	223240622	1478014606009	1478014606113	a	65
436116	4701104	Indy time trials begin Saturday.	Indy time trials begin Saturday	223240625	1478014606146	1478014606252	y	89
436116	4701117	China replaced three ministers on Thursday.	China replaced three ministers on Thursday.	223240741	1478014608016	1478014608509	SHIFT	16
436116	4701117	China replaced three ministers on Thursday.	China replaced three ministers on Thursday.	223240743	1478014608426	1478014608540	C	67
436116	4701117	China replaced three ministers on Thursday.	China replaced three ministers on Thursday.	223240746	1478014608562	1478014608676	h	72
436116	4701117	China replaced three ministers on Thursday.	China replaced three ministers on Thursday.	223240748	1478014608688	1478014608847	i	73
436116	4701117	China replaced three ministers on Thursday.	China replaced three ministers on Thursday.	223240750	1478014608783	1478014608901	n	78
436116	4701117	China replaced three ministers on Thursday.	China replaced three ministers on Thursday.	223240764	1478014608870	1478014608985	a	65
436116	4701117	China replaced three ministers on Thursday.	China replaced three ministers on Thursday.	223240768	1478014608997	1478014609096	 	32
436116	4701117	China replaced three ministers on Thursday.	China replaced three ministers on Thursday.	223240770	1478014609151	1478014609294	r	82
436116	4701117	China replaced three ministers on Thursday.	China replaced three ministers on Thursday.	223240771	1478014609263	1478014609357	e	69
436116	4701117	China replaced three ministers on Thursday.	China replaced three ministers on Thursday.	223240772	1478014609389	1478014609540	p	80
436116	4701117	China replaced three ministers on Thursday.	China replaced three ministers on Thursday.	223240783	1478014609487	1478014609583	l	76
436116	4701117	China replaced three ministers on Thursday.	China replaced three ministers on Thursday.	223240784	1478014609594	1478014609689	a	65
436116	4701117	China replaced three ministers on Thursday.	China replaced three ministers on Thursday.	223240785	1478014609657	1478014609804	c	67
436116	4701117	China replaced three ministers on Thursday.	China replaced three ministers on Thursday.	223240786	1478014609773	1478014609857	e	69
436116	4701117	China replaced three ministers on Thursday.	China replaced three ministers on Thursday.	223240788	1478014609964	1478014610047	d	68
436116	4701117	China replaced three ministers on Thursday.	China replaced three ministers on Thursday.	223240793	1478014610101	1478014610228	 	32
436116	4701117	China replaced three ministers on Thursday.	China replaced three ministers on Thursday.	223240830	1478014610217	1478014610302	t	84
436116	4701117	China replaced three ministers on Thursday.	China replaced three ministers on Thursday.	223240835	1478014610281	1478014610406	h	72
436116	4701117	China replaced three ministers on Thursday.	China replaced three ministers on Thursday.	223240838	1478014610417	1478014610514	r	82
436116	4701117	China replaced three ministers on Thursday.	China replaced three ministers on Thursday.	223240843	1478014610449	1478014610536	e	69
436116	4701117	China replaced three ministers on Thursday.	China replaced three ministers on Thursday.	223240847	1478014610632	1478014610727	e	69
436116	4701117	China replaced three ministers on Thursday.	China replaced three ministers on Thursday.	223240848	1478014610748	1478014610856	 	32
436116	4701117	China replaced three ministers on Thursday.	China replaced three ministers on Thursday.	223240851	1478014610872	1478014610962	m	77
436116	4701117	China replaced three ministers on Thursday.	China replaced three ministers on Thursday.	223240854	1478014610951	1478014611046	i	73
436116	4701117	China replaced three ministers on Thursday.	China replaced three ministers on Thursday.	223240859	1478014611058	1478014611189	n	78
436116	4701117	China replaced three ministers on Thursday.	China replaced three ministers on Thursday.	223240863	1478014611152	1478014611269	i	73
436116	4701117	China replaced three ministers on Thursday.	China replaced three ministers on Thursday.	223240867	1478014611281	1478014611374	t	84
436116	4701117	China replaced three ministers on Thursday.	China replaced three ministers on Thursday.	223240908	1478014611385	1478014611482	e	69
436116	4701117	China replaced three ministers on Thursday.	China replaced three ministers on Thursday.	223240910	1478014611673	1478014611734	BKSP	8
436116	4701117	China replaced three ministers on Thursday.	China replaced three ministers on Thursday.	223240913	1478014611799	1478014611893	BKSP	8
436116	4701117	China replaced three ministers on Thursday.	China replaced three ministers on Thursday.	223240919	1478014611903	1478014611989	s	83
436116	4701117	China replaced three ministers on Thursday.	China replaced three ministers on Thursday.	223240924	1478014612042	1478014612125	t	84
436116	4701117	China replaced three ministers on Thursday.	China replaced three ministers on Thursday.	223240930	1478014612356	1478014612494	e	69
436116	4701117	China replaced three ministers on Thursday.	China replaced three ministers on Thursday.	223240937	1478014612507	1478014612599	r	82
436116	4701117	China replaced three ministers on Thursday.	China replaced three ministers on Thursday.	223240956	1478014612808	1478014612871	s	83
436116	4701117	China replaced three ministers on Thursday.	China replaced three ministers on Thursday.	223240958	1478014613027	1478014613132	 	32
436116	4701117	China replaced three ministers on Thursday.	China replaced three ministers on Thursday.	223240960	1478014613154	1478014613312	o	79
436116	4701117	China replaced three ministers on Thursday.	China replaced three ministers on Thursday.	223240962	1478014613249	1478014613355	n	78
436116	4701117	China replaced three ministers on Thursday.	China replaced three ministers on Thursday.	223240964	1478014613376	1478014613480	 	32
436116	4701117	China replaced three ministers on Thursday.	China replaced three ministers on Thursday.	223241019	1478014613491	1478014613694	SHIFT	16
436116	4701117	China replaced three ministers on Thursday.	China replaced three ministers on Thursday.	223241022	1478014613585	1478014613706	T	84
436116	4701117	China replaced three ministers on Thursday.	China replaced three ministers on Thursday.	223241025	1478014613721	1478014613855	h	72
436116	4701117	China replaced three ministers on Thursday.	China replaced three ministers on Thursday.	223241030	1478014613803	1478014613931	u	85
436116	4701117	China replaced three ministers on Thursday.	China replaced three ministers on Thursday.	223241034	1478014613983	1478014614080	r	82
436116	4701117	China replaced three ministers on Thursday.	China replaced three ministers on Thursday.	223241039	1478014614249	1478014614333	s	83
436116	4701117	China replaced three ministers on Thursday.	China replaced three ministers on Thursday.	223241056	1478014614428	1478014614544	d	68
436116	4701117	China replaced three ministers on Thursday.	China replaced three ministers on Thursday.	223241059	1478014614556	1478014614630	a	65
436116	4701117	China replaced three ministers on Thursday.	China replaced three ministers on Thursday.	223241063	1478014614685	1478014614790	y	89
436116	4701117	China replaced three ministers on Thursday.	China replaced three ministers on Thursday.	223241072	1478014614936	1478014615031	.	190
436116	4701124	The new radio minister was head of the propaganda department.	The new radio minister was head of the propaganda department.	223241640	1478014624857	1478014625059	SHIFT	16
436116	4701124	The new radio minister was head of the propaganda department.	The new radio minister was head of the propaganda department.	223241641	1478014624991	1478014625093	T	84
436116	4701124	The new radio minister was head of the propaganda department.	The new radio minister was head of the propaganda department.	223241643	1478014625103	1478014625177	h	72
436116	4701124	The new radio minister was head of the propaganda department.	The new radio minister was head of the propaganda department.	223241645	1478014625167	1478014625271	e	69
436116	4701124	The new radio minister was head of the propaganda department.	The new radio minister was head of the propaganda department.	223241647	1478014625282	1478014625374	 	32
436116	4701124	The new radio minister was head of the propaganda department.	The new radio minister was head of the propaganda department.	223241649	1478014625387	1478014625461	n	78
436116	4701124	The new radio minister was head of the propaganda department.	The new radio minister was head of the propaganda department.	223241680	1478014625440	1478014625515	e	69
436116	4701124	The new radio minister was head of the propaganda department.	The new radio minister was head of the propaganda department.	223241685	1478014625631	1478014625736	w	87
436116	4701124	The new radio minister was head of the propaganda department.	The new radio minister was head of the propaganda department.	223241689	1478014625758	1478014625904	 	32
436116	4701124	The new radio minister was head of the propaganda department.	The new radio minister was head of the propaganda department.	223241692	1478014625862	1478014625977	r	82
436116	4701124	The new radio minister was head of the propaganda department.	The new radio minister was head of the propaganda department.	223241694	1478014625999	1478014626177	a	65
436116	4701124	The new radio minister was head of the propaganda department.	The new radio minister was head of the propaganda department.	223241717	1478014626135	1478014626231	d	68
436116	4701124	The new radio minister was head of the propaganda department.	The new radio minister was head of the propaganda department.	223241719	1478014626285	1478014626444	i	73
436116	4701124	The new radio minister was head of the propaganda department.	The new radio minister was head of the propaganda department.	223241721	1478014626392	1478014626498	o	79
436116	4701124	The new radio minister was head of the propaganda department.	The new radio minister was head of the propaganda department.	223241723	1478014626526	1478014626615	 	32
436116	4701124	The new radio minister was head of the propaganda department.	The new radio minister was head of the propaganda department.	223241726	1478014626720	1478014626859	m	77
436116	4701124	The new radio minister was head of the propaganda department.	The new radio minister was head of the propaganda department.	223241727	1478014626873	1478014626976	i	73
436116	4701124	The new radio minister was head of the propaganda department.	The new radio minister was head of the propaganda department.	223241755	1478014626990	1478014627104	n	78
436116	4701124	The new radio minister was head of the propaganda department.	The new radio minister was head of the propaganda department.	223241760	1478014627072	1478014627179	i	73
436116	4701124	The new radio minister was head of the propaganda department.	The new radio minister was head of the propaganda department.	223241763	1478014627200	1478014627329	s	83
436116	4701124	The new radio minister was head of the propaganda department.	The new radio minister was head of the propaganda department.	223241768	1478014627297	1478014627404	t	84
436116	4701124	The new radio minister was head of the propaganda department.	The new radio minister was head of the propaganda department.	223241770	1478014627459	1478014627632	e	69
436116	4701124	The new radio minister was head of the propaganda department.	The new radio minister was head of the propaganda department.	223241780	1478014627568	1478014627684	r	82
436116	4701124	The new radio minister was head of the propaganda department.	The new radio minister was head of the propaganda department.	223241783	1478014627695	1478014627844	 	32
436116	4701124	The new radio minister was head of the propaganda department.	The new radio minister was head of the propaganda department.	223241785	1478014627791	1478014627886	w	87
436116	4701124	The new radio minister was head of the propaganda department.	The new radio minister was head of the propaganda department.	223241786	1478014627940	1478014628080	a	65
436116	4701124	The new radio minister was head of the propaganda department.	The new radio minister was head of the propaganda department.	223241789	1478014628047	1478014628143	s	83
436116	4701124	The new radio minister was head of the propaganda department.	The new radio minister was head of the propaganda department.	223241792	1478014628154	1478014628228	 	32
436116	4701124	The new radio minister was head of the propaganda department.	The new radio minister was head of the propaganda department.	223241800	1478014628260	1478014628354	h	72
436116	4701124	The new radio minister was head of the propaganda department.	The new radio minister was head of the propaganda department.	223241803	1478014628365	1478014628427	e	69
436116	4701124	The new radio minister was head of the propaganda department.	The new radio minister was head of the propaganda department.	223241805	1478014628439	1478014628595	a	65
436116	4701124	The new radio minister was head of the propaganda department.	The new radio minister was head of the propaganda department.	223241807	1478014628556	1478014628671	d	68
436116	4701124	The new radio minister was head of the propaganda department.	The new radio minister was head of the propaganda department.	223241809	1478014628683	1478014628746	 	32
436116	4701124	The new radio minister was head of the propaganda department.	The new radio minister was head of the propaganda department.	223241822	1478014628758	1478014628854	o	79
436116	4701124	The new radio minister was head of the propaganda department.	The new radio minister was head of the propaganda department.	223241818	1478014628769	1478014628779	PAUSE	126
436116	4701124	The new radio minister was head of the propaganda department.	The new radio minister was head of the propaganda department.	223241827	1478014628823	1478014628927	f	70
436116	4701124	The new radio minister was head of the propaganda department.	The new radio minister was head of the propaganda department.	223241831	1478014628938	1478014629064	 	32
436116	4701124	The new radio minister was head of the propaganda department.	The new radio minister was head of the propaganda department.	223241836	1478014629024	1478014629128	t	84
436116	4701124	The new radio minister was head of the propaganda department.	The new radio minister was head of the propaganda department.	223241845	1478014629096	1478014629203	h	72
436116	4701124	The new radio minister was head of the propaganda department.	The new radio minister was head of the propaganda department.	223241846	1478014629181	1478014629278	e	69
436116	4701124	The new radio minister was head of the propaganda department.	The new radio minister was head of the propaganda department.	223241848	1478014629258	1478014629364	 	32
436116	4701124	The new radio minister was head of the propaganda department.	The new radio minister was head of the propaganda department.	223241851	1478014629374	1478014629459	p	80
436116	4701124	The new radio minister was head of the propaganda department.	The new radio minister was head of the propaganda department.	223241854	1478014629566	1478014629618	o	79
436116	4701124	The new radio minister was head of the propaganda department.	The new radio minister was head of the propaganda department.	223241859	1478014629640	1478014629745	r	82
436116	4701124	The new radio minister was head of the propaganda department.	The new radio minister was head of the propaganda department.	223241913	1478014629831	1478014629894	BKSP	8
436116	4701124	The new radio minister was head of the propaganda department.	The new radio minister was head of the propaganda department.	223241918	1478014629967	1478014630062	BKSP	8
436116	4701124	The new radio minister was head of the propaganda department.	The new radio minister was head of the propaganda department.	223241923	1478014630094	1478014630189	r	82
436116	4701124	The new radio minister was head of the propaganda department.	The new radio minister was head of the propaganda department.	223241926	1478014630252	1478014630358	o	79
436116	4701124	The new radio minister was head of the propaganda department.	The new radio minister was head of the propaganda department.	223241930	1478014630432	1478014630538	p	80
436116	4701124	The new radio minister was head of the propaganda department.	The new radio minister was head of the propaganda department.	223241934	1478014630593	1478014630741	a	65
436116	4701124	The new radio minister was head of the propaganda department.	The new radio minister was head of the propaganda department.	223241939	1478014630942	1478014631015	g	71
436116	4701124	The new radio minister was head of the propaganda department.	The new radio minister was head of the propaganda department.	223241974	1478014631078	1478014631183	a	65
436116	4701124	The new radio minister was head of the propaganda department.	The new radio minister was head of the propaganda department.	223241977	1478014631362	1478014631459	n	78
436116	4701124	The new radio minister was head of the propaganda department.	The new radio minister was head of the propaganda department.	223241984	1478014631490	1478014631585	d	68
436116	4701124	The new radio minister was head of the propaganda department.	The new radio minister was head of the propaganda department.	223241987	1478014631712	1478014631794	a	65
436116	4701124	The new radio minister was head of the propaganda department.	The new radio minister was head of the propaganda department.	223241993	1478014631891	1478014632004	 	32
436116	4701124	The new radio minister was head of the propaganda department.	The new radio minister was head of the propaganda department.	223242011	1478014632099	1478014632192	d	68
436116	4701124	The new radio minister was head of the propaganda department.	The new radio minister was head of the propaganda department.	223242012	1478014632226	1478014632300	e	69
436116	4701124	The new radio minister was head of the propaganda department.	The new radio minister was head of the propaganda department.	223242014	1478014632333	1478014632438	p	80
436116	4701124	The new radio minister was head of the propaganda department.	The new radio minister was head of the propaganda department.	223242019	1478014632450	1478014632575	a	65
436116	4701124	The new radio minister was head of the propaganda department.	The new radio minister was head of the propaganda department.	223242055	1478014632533	1478014632608	r	82
436116	4701124	The new radio minister was head of the propaganda department.	The new radio minister was head of the propaganda department.	223242057	1478014632694	1478014632791	t	84
436116	4701124	The new radio minister was head of the propaganda department.	The new radio minister was head of the propaganda department.	223242059	1478014632802	1478014632866	m	77
436116	4701124	The new radio minister was head of the propaganda department.	The new radio minister was head of the propaganda department.	223242062	1478014632889	1478014632952	e	69
436116	4701124	The new radio minister was head of the propaganda department.	The new radio minister was head of the propaganda department.	223242067	1478014632975	1478014633091	n	78
436116	4701124	The new radio minister was head of the propaganda department.	The new radio minister was head of the propaganda department.	223242072	1478014633105	1478014633201	t	84
436116	4701145	Thank you for participation, cooperation and support.	Thank you for participation, cooperation and support.	223242637	1478014633215	1478014645898	.	190
436116	4701145	Thank you for participation, cooperation and support.	Thank you for participation, cooperation and support.	223242350	1478014639272	1478014639479	SHIFT	16
436116	4701145	Thank you for participation, cooperation and support.	Thank you for participation, cooperation and support.	223242351	1478014639375	1478014639492	T	84
436116	4701145	Thank you for participation, cooperation and support.	Thank you for participation, cooperation and support.	223242352	1478014639509	1478014639558	h	72
436116	4701145	Thank you for participation, cooperation and support.	Thank you for participation, cooperation and support.	223242355	1478014639580	1478014639654	a	65
436116	4701145	Thank you for participation, cooperation and support.	Thank you for participation, cooperation and support.	223242357	1478014639666	1478014639782	n	78
436116	4701145	Thank you for participation, cooperation and support.	Thank you for participation, cooperation and support.	223242366	1478014639751	1478014639835	k	75
436116	4701145	Thank you for participation, cooperation and support.	Thank you for participation, cooperation and support.	223242368	1478014639847	1478014639920	 	32
436116	4701145	Thank you for participation, cooperation and support.	Thank you for participation, cooperation and support.	223242371	1478014639942	1478014640047	y	89
436116	4701145	Thank you for participation, cooperation and support.	Thank you for participation, cooperation and support.	223242374	1478014640059	1478014640196	o	79
436116	4701145	Thank you for participation, cooperation and support.	Thank you for participation, cooperation and support.	223242375	1478014640174	1478014640270	u	85
436116	4701145	Thank you for participation, cooperation and support.	Thank you for participation, cooperation and support.	223242396	1478014640239	1478014640334	 	32
436116	4701145	Thank you for participation, cooperation and support.	Thank you for participation, cooperation and support.	223242399	1478014640367	1478014640451	f	70
436116	4701145	Thank you for participation, cooperation and support.	Thank you for participation, cooperation and support.	223242402	1478014640483	1478014640601	o	79
436116	4701145	Thank you for participation, cooperation and support.	Thank you for participation, cooperation and support.	223242406	1478014640612	1478014640730	r	82
436116	4701145	Thank you for participation, cooperation and support.	Thank you for participation, cooperation and support.	223242410	1478014640741	1478014640815	 	32
436116	4701145	Thank you for participation, cooperation and support.	Thank you for participation, cooperation and support.	223242412	1478014640827	1478014640911	p	80
436116	4701145	Thank you for participation, cooperation and support.	Thank you for participation, cooperation and support.	223242426	1478014640890	1478014641050	a	65
436116	4701145	Thank you for participation, cooperation and support.	Thank you for participation, cooperation and support.	223242427	1478014640996	1478014641098	r	82
436116	4701145	Thank you for participation, cooperation and support.	Thank you for participation, cooperation and support.	223242428	1478014641199	1478014641294	t	84
436116	4701145	Thank you for participation, cooperation and support.	Thank you for participation, cooperation and support.	223242429	1478014641336	1478014641433	i	73
436116	4701145	Thank you for participation, cooperation and support.	Thank you for participation, cooperation and support.	223242430	1478014641508	1478014641613	c	67
436116	4701145	Thank you for participation, cooperation and support.	Thank you for participation, cooperation and support.	223242431	1478014641637	1478014641743	i	73
436116	4701145	Thank you for participation, cooperation and support.	Thank you for participation, cooperation and support.	223242447	1478014641850	1478014641953	p	80
436116	4701145	Thank you for participation, cooperation and support.	Thank you for participation, cooperation and support.	223242449	1478014641966	1478014642104	a	65
436116	4701145	Thank you for participation, cooperation and support.	Thank you for participation, cooperation and support.	223242451	1478014642041	1478014642135	t	84
436116	4701145	Thank you for participation, cooperation and support.	Thank you for participation, cooperation and support.	223242453	1478014642146	1478014642262	i	73
436116	4701145	Thank you for participation, cooperation and support.	Thank you for participation, cooperation and support.	223242486	1478014642241	1478014642431	o	79
436116	4701145	Thank you for participation, cooperation and support.	Thank you for participation, cooperation and support.	223242487	1478014642378	1478014642472	n	78
436116	4701145	Thank you for participation, cooperation and support.	Thank you for participation, cooperation and support.	223242489	1478014642592	1478014642675	,	188
436116	4701145	Thank you for participation, cooperation and support.	Thank you for participation, cooperation and support.	223242490	1478014642718	1478014642822	 	32
436116	4701145	Thank you for participation, cooperation and support.	Thank you for participation, cooperation and support.	223242491	1478014642887	1478014642992	c	67
436116	4701145	Thank you for participation, cooperation and support.	Thank you for participation, cooperation and support.	223242492	1478014643004	1478014643056	o	79
436116	4701145	Thank you for participation, cooperation and support.	Thank you for participation, cooperation and support.	223242512	1478014643130	1478014643215	o	79
436116	4701145	Thank you for participation, cooperation and support.	Thank you for participation, cooperation and support.	223242514	1478014643313	1478014643407	p	80
436116	4701145	Thank you for participation, cooperation and support.	Thank you for participation, cooperation and support.	223242519	1478014643473	1478014643639	e	69
436116	4701145	Thank you for participation, cooperation and support.	Thank you for participation, cooperation and support.	223242523	1478014643608	1478014643703	r	82
436116	4701145	Thank you for participation, cooperation and support.	Thank you for participation, cooperation and support.	223242529	1478014643776	1478014643937	a	65
436116	4701145	Thank you for participation, cooperation and support.	Thank you for participation, cooperation and support.	223242551	1478014643904	1478014644021	t	84
436116	4701145	Thank you for participation, cooperation and support.	Thank you for participation, cooperation and support.	223242554	1478014644032	1478014644150	i	73
436116	4701145	Thank you for participation, cooperation and support.	Thank you for participation, cooperation and support.	223242558	1478014644117	1478014644321	o	79
436116	4701145	Thank you for participation, cooperation and support.	Thank you for participation, cooperation and support.	223242560	1478014644258	1478014644374	n	78
436116	4701145	Thank you for participation, cooperation and support.	Thank you for participation, cooperation and support.	223242563	1478014644385	1478014644482	 	32
436116	4701145	Thank you for participation, cooperation and support.	Thank you for participation, cooperation and support.	223242565	1478014644498	1478014644576	a	65
436116	4701145	Thank you for participation, cooperation and support.	Thank you for participation, cooperation and support.	223242586	1478014644598	1478014644693	n	78
436116	4701145	Thank you for participation, cooperation and support.	Thank you for participation, cooperation and support.	223242591	1478014644704	1478014644800	d	68
436116	4701145	Thank you for participation, cooperation and support.	Thank you for participation, cooperation and support.	223242596	1478014644814	1478014644907	 	32
436116	4701145	Thank you for participation, cooperation and support.	Thank you for participation, cooperation and support.	223242597	1478014644888	1478014644982	s	83
436116	4701145	Thank you for participation, cooperation and support.	Thank you for participation, cooperation and support.	223242600	1478014644995	1478014645119	u	85
436116	4701145	Thank you for participation, cooperation and support.	Thank you for participation, cooperation and support.	223242624	1478014645130	1478014645161	p	80
436116	4701145	Thank you for participation, cooperation and support.	Thank you for participation, cooperation and support.	223242627	1478014645225	1478014645370	p	80
436116	4701145	Thank you for participation, cooperation and support.	Thank you for participation, cooperation and support.	223242629	1478014645350	1478014645455	o	79
436116	4701145	Thank you for participation, cooperation and support.	Thank you for participation, cooperation and support.	223242631	1478014645487	1478014645581	r	82
436116	4701145	Thank you for participation, cooperation and support.	Thank you for participation, cooperation and support.	223242634	1478014645656	1478014645751	t	84
436116	4701156	It's kind of fun to see an old rivalry back again.	It's kind of fun to see an old rivalry back again.	223242874	1478014650645	1478014650815	SHIFT	16
436116	4701156	It's kind of fun to see an old rivalry back again.	It's kind of fun to see an old rivalry back again.	223242877	1478014650743	1478014650838	I	73
436116	4701156	It's kind of fun to see an old rivalry back again.	It's kind of fun to see an old rivalry back again.	223242882	1478014650880	1478014650986	t	84
436116	4701156	It's kind of fun to see an old rivalry back again.	It's kind of fun to see an old rivalry back again.	223242887	1478014651002	1478014651114	'	222
436116	4701156	It's kind of fun to see an old rivalry back again.	It's kind of fun to see an old rivalry back again.	223242891	1478014651125	1478014651209	s	83
436116	4701156	It's kind of fun to see an old rivalry back again.	It's kind of fun to see an old rivalry back again.	223242911	1478014651188	1478014651282	 	32
436116	4701156	It's kind of fun to see an old rivalry back again.	It's kind of fun to see an old rivalry back again.	223242913	1478014651389	1478014651462	k	75
436116	4701156	It's kind of fun to see an old rivalry back again.	It's kind of fun to see an old rivalry back again.	223242916	1478014651535	1478014651663	i	73
436116	4701156	It's kind of fun to see an old rivalry back again.	It's kind of fun to see an old rivalry back again.	223242919	1478014651631	1478014651737	n	78
436116	4701156	It's kind of fun to see an old rivalry back again.	It's kind of fun to see an old rivalry back again.	223242922	1478014651717	1478014651822	d	68
436116	4701156	It's kind of fun to see an old rivalry back again.	It's kind of fun to see an old rivalry back again.	223242944	1478014651802	1478014651864	 	32
436116	4701156	It's kind of fun to see an old rivalry back again.	It's kind of fun to see an old rivalry back again.	223242948	1478014651876	1478014651991	o	79
436116	4701156	It's kind of fun to see an old rivalry back again.	It's kind of fun to see an old rivalry back again.	223242952	1478014652002	1478014652088	f	70
436116	4701156	It's kind of fun to see an old rivalry back again.	It's kind of fun to see an old rivalry back again.	223242954	1478014652100	1478014652227	 	32
436116	4701156	It's kind of fun to see an old rivalry back again.	It's kind of fun to see an old rivalry back again.	223242959	1478014652195	1478014652280	f	70
436116	4701156	It's kind of fun to see an old rivalry back again.	It's kind of fun to see an old rivalry back again.	223242963	1478014652291	1478014652440	u	85
436116	4701156	It's kind of fun to see an old rivalry back again.	It's kind of fun to see an old rivalry back again.	223242975	1478014652408	1478014652518	n	78
436116	4701156	It's kind of fun to see an old rivalry back again.	It's kind of fun to see an old rivalry back again.	223242976	1478014652496	1478014652612	 	32
436116	4701156	It's kind of fun to see an old rivalry back again.	It's kind of fun to see an old rivalry back again.	223242980	1478014652592	1478014652695	t	84
436116	4701156	It's kind of fun to see an old rivalry back again.	It's kind of fun to see an old rivalry back again.	223242988	1478014652706	1478014652780	o	79
436116	4701156	It's kind of fun to see an old rivalry back again.	It's kind of fun to see an old rivalry back again.	223242991	1478014652825	1478014652921	 	32
436116	4701156	It's kind of fun to see an old rivalry back again.	It's kind of fun to see an old rivalry back again.	223243019	1478014652878	1478014653015	s	83
436116	4701156	It's kind of fun to see an old rivalry back again.	It's kind of fun to see an old rivalry back again.	223243025	1478014653027	1478014653102	e	69
436116	4701156	It's kind of fun to see an old rivalry back again.	It's kind of fun to see an old rivalry back again.	223243029	1478014653209	1478014653272	e	69
436116	4701156	It's kind of fun to see an old rivalry back again.	It's kind of fun to see an old rivalry back again.	223243033	1478014653283	1478014653407	 	32
436116	4701156	It's kind of fun to see an old rivalry back again.	It's kind of fun to see an old rivalry back again.	223243037	1478014653370	1478014653477	a	65
436116	4701156	It's kind of fun to see an old rivalry back again.	It's kind of fun to see an old rivalry back again.	223243039	1478014653509	1478014653594	n	78
436116	4701156	It's kind of fun to see an old rivalry back again.	It's kind of fun to see an old rivalry back again.	223243063	1478014653615	1478014653720	 	32
436116	4701156	It's kind of fun to see an old rivalry back again.	It's kind of fun to see an old rivalry back again.	223243065	1478014653732	1478014653833	o	79
436116	4701156	It's kind of fun to see an old rivalry back again.	It's kind of fun to see an old rivalry back again.	223243069	1478014653890	1478014654006	l	76
436116	4701156	It's kind of fun to see an old rivalry back again.	It's kind of fun to see an old rivalry back again.	223243073	1478014654015	1478014654091	d	68
436116	4701156	It's kind of fun to see an old rivalry back again.	It's kind of fun to see an old rivalry back again.	223243075	1478014654101	1478014654239	 	32
436116	4701156	It's kind of fun to see an old rivalry back again.	It's kind of fun to see an old rivalry back again.	223243140	1478014654208	1478014654312	r	82
436116	4701156	It's kind of fun to see an old rivalry back again.	It's kind of fun to see an old rivalry back again.	223243141	1478014654418	1478014654534	i	73
436116	4701156	It's kind of fun to see an old rivalry back again.	It's kind of fun to see an old rivalry back again.	223243142	1478014654566	1478014654653	v	86
436116	4701156	It's kind of fun to see an old rivalry back again.	It's kind of fun to see an old rivalry back again.	223243145	1478014654780	1478014654893	a	65
436116	4701156	It's kind of fun to see an old rivalry back again.	It's kind of fun to see an old rivalry back again.	223243148	1478014654936	1478014655029	l	76
436116	4701156	It's kind of fun to see an old rivalry back again.	It's kind of fun to see an old rivalry back again.	223243154	1478014655265	1478014655349	r	82
436116	4701156	It's kind of fun to see an old rivalry back again.	It's kind of fun to see an old rivalry back again.	223243189	1478014655506	1478014655600	y	89
436116	4701156	It's kind of fun to see an old rivalry back again.	It's kind of fun to see an old rivalry back again.	223243191	1478014655704	1478014655801	 	32
436116	4701156	It's kind of fun to see an old rivalry back again.	It's kind of fun to see an old rivalry back again.	223243193	1478014655887	1478014655993	b	66
436116	4701156	It's kind of fun to see an old rivalry back again.	It's kind of fun to see an old rivalry back again.	223243196	1478014656004	1478014656133	a	65
436116	4701156	It's kind of fun to see an old rivalry back again.	It's kind of fun to see an old rivalry back again.	223243229	1478014656081	1478014656175	c	67
436116	4701156	It's kind of fun to see an old rivalry back again.	It's kind of fun to see an old rivalry back again.	223243234	1478014656207	1478014656302	k	75
436116	4701156	It's kind of fun to see an old rivalry back again.	It's kind of fun to see an old rivalry back again.	223243237	1478014656334	1478014656430	 	32
436116	4701156	It's kind of fun to see an old rivalry back again.	It's kind of fun to see an old rivalry back again.	223243242	1478014656441	1478014656567	a	65
436116	4701156	It's kind of fun to see an old rivalry back again.	It's kind of fun to see an old rivalry back again.	223243245	1478014656579	1478014656654	g	71
436116	4701156	It's kind of fun to see an old rivalry back again.	It's kind of fun to see an old rivalry back again.	223243247	1478014656664	1478014656739	a	65
436116	4701156	It's kind of fun to see an old rivalry back again.	It's kind of fun to see an old rivalry back again.	223243252	1478014656752	1478014656858	i	73
436116	4701156	It's kind of fun to see an old rivalry back again.	It's kind of fun to see an old rivalry back again.	223243255	1478014656815	1478014656942	n	78
436116	4701156	It's kind of fun to see an old rivalry back again.	It's kind of fun to see an old rivalry back again.	223243256	1478014656975	1478014657102	.	190
436116	4701167	I agreed terms with Greg.	I agreed terms with Greg.	223243493	1478014660896	1478014661105	SHIFT	16
436116	4701167	I agreed terms with Greg.	I agreed terms with Greg.	223243498	1478014661000	1478014661116	I	73
436116	4701167	I agreed terms with Greg.	I agreed terms with Greg.	223243502	1478014661128	1478014661222	 	32
436116	4701167	I agreed terms with Greg.	I agreed terms with Greg.	223243504	1478014661191	1478014661338	a	65
436116	4701167	I agreed terms with Greg.	I agreed terms with Greg.	223243507	1478014661351	1478014661423	g	71
436116	4701167	I agreed terms with Greg.	I agreed terms with Greg.	223243510	1478014661532	1478014661656	r	82
436116	4701167	I agreed terms with Greg.	I agreed terms with Greg.	223243527	1478014661603	1478014661688	e	69
436116	4701167	I agreed terms with Greg.	I agreed terms with Greg.	223243529	1478014661781	1478014661866	e	69
436116	4701167	I agreed terms with Greg.	I agreed terms with Greg.	223243534	1478014661940	1478014662025	d	68
436116	4701167	I agreed terms with Greg.	I agreed terms with Greg.	223243539	1478014662037	1478014662174	 	32
436116	4701167	I agreed terms with Greg.	I agreed terms with Greg.	223243543	1478014662134	1478014662229	t	84
436116	4701167	I agreed terms with Greg.	I agreed terms with Greg.	223243573	1478014662207	1478014662366	e	69
436116	4701167	I agreed terms with Greg.	I agreed terms with Greg.	223243578	1478014662334	1478014662443	r	82
436116	4701167	I agreed terms with Greg.	I agreed terms with Greg.	223243583	1478014662497	1478014662605	m	77
436116	4701167	I agreed terms with Greg.	I agreed terms with Greg.	223243587	1478014662616	1478014662712	s	83
436116	4701167	I agreed terms with Greg.	I agreed terms with Greg.	223243592	1478014662723	1478014662833	 	32
436116	4701167	I agreed terms with Greg.	I agreed terms with Greg.	223243596	1478014662847	1478014662932	w	87
436116	4701167	I agreed terms with Greg.	I agreed terms with Greg.	223243621	1478014662950	1478014663047	i	73
436116	4701167	I agreed terms with Greg.	I agreed terms with Greg.	223243624	1478014663036	1478014663145	t	84
436116	4701167	I agreed terms with Greg.	I agreed terms with Greg.	223243627	1478014663157	1478014663240	h	72
436116	4701167	I agreed terms with Greg.	I agreed terms with Greg.	223243633	1478014663252	1478014663326	 	32
436116	4701167	I agreed terms with Greg.	I agreed terms with Greg.	223243636	1478014663284	1478014663463	SHIFT	16
436116	4701167	I agreed terms with Greg.	I agreed terms with Greg.	223243646	1478014663391	1478014663475	G	71
436116	4701167	I agreed terms with Greg.	I agreed terms with Greg.	223243647	1478014663560	1478014663687	r	82
436116	4701167	I agreed terms with Greg.	I agreed terms with Greg.	223243648	1478014663655	1478014663741	e	69
436116	4701167	I agreed terms with Greg.	I agreed terms with Greg.	223243650	1478014663866	1478014663951	g	71
436116	4701167	I agreed terms with Greg.	I agreed terms with Greg.	223243653	1478014664024	1478014664110	.	190
436116	4701174	The cabinet Thursday approved a revised tariff schedule.	The cabinet Thursday approved a revised tariff schedule.	223243923	1478014669769	1478014669948	SHIFT	16
436116	4701174	The cabinet Thursday approved a revised tariff schedule.	The cabinet Thursday approved a revised tariff schedule.	223243925	1478014669886	1478014669991	T	84
436116	4701174	The cabinet Thursday approved a revised tariff schedule.	The cabinet Thursday approved a revised tariff schedule.	223243930	1478014670002	1478014670086	h	72
436116	4701174	The cabinet Thursday approved a revised tariff schedule.	The cabinet Thursday approved a revised tariff schedule.	223243933	1478014670097	1478014670160	e	69
436116	4701174	The cabinet Thursday approved a revised tariff schedule.	The cabinet Thursday approved a revised tariff schedule.	223243937	1478014670172	1478014670268	 	32
436116	4701174	The cabinet Thursday approved a revised tariff schedule.	The cabinet Thursday approved a revised tariff schedule.	223243987	1478014670378	1478014670465	v	67
436116	4701174	The cabinet Thursday approved a revised tariff schedule.	The cabinet Thursday approved a revised tariff schedule.	223243990	1478014670500	1478014670591	a	65
436116	4701174	The cabinet Thursday approved a revised tariff schedule.	The cabinet Thursday approved a revised tariff schedule.	223243992	1478014670665	1478014670782	b	66
436116	4701174	The cabinet Thursday approved a revised tariff schedule.	The cabinet Thursday approved a revised tariff schedule.	223243994	1478014670794	1478014670879	i	73
436116	4701174	The cabinet Thursday approved a revised tariff schedule.	The cabinet Thursday approved a revised tariff schedule.	223243995	1478014671061	1478014671112	BKSP	8
436116	4701174	The cabinet Thursday approved a revised tariff schedule.	The cabinet Thursday approved a revised tariff schedule.	223243997	1478014671207	1478014671239	BKSP	8
436116	4701174	The cabinet Thursday approved a revised tariff schedule.	The cabinet Thursday approved a revised tariff schedule.	223243999	1478014671325	1478014671377	BKSP	8
436116	4701174	The cabinet Thursday approved a revised tariff schedule.	The cabinet Thursday approved a revised tariff schedule.	223244001	1478014671452	1478014671534	BKSP	8
436116	4701174	The cabinet Thursday approved a revised tariff schedule.	The cabinet Thursday approved a revised tariff schedule.	223244005	1478014671576	1478014671680	a	65
436116	4701174	The cabinet Thursday approved a revised tariff schedule.	The cabinet Thursday approved a revised tariff schedule.	223244009	1478014671691	1478014671807	b	66
436116	4701174	The cabinet Thursday approved a revised tariff schedule.	The cabinet Thursday approved a revised tariff schedule.	223244027	1478014671820	1478014671966	i	73
436116	4701174	The cabinet Thursday approved a revised tariff schedule.	The cabinet Thursday approved a revised tariff schedule.	223244030	1478014671935	1478014672050	n	78
436116	4701174	The cabinet Thursday approved a revised tariff schedule.	The cabinet Thursday approved a revised tariff schedule.	223244033	1478014672082	1478014672241	e	69
436116	4701174	The cabinet Thursday approved a revised tariff schedule.	The cabinet Thursday approved a revised tariff schedule.	223244036	1478014672231	1478014672315	t	84
436116	4701174	The cabinet Thursday approved a revised tariff schedule.	The cabinet Thursday approved a revised tariff schedule.	223244039	1478014672408	1478014672504	 	32
436116	4701174	The cabinet Thursday approved a revised tariff schedule.	The cabinet Thursday approved a revised tariff schedule.	223244074	1478014672568	1478014672783	SHIFT	16
436116	4701174	The cabinet Thursday approved a revised tariff schedule.	The cabinet Thursday approved a revised tariff schedule.	223244079	1478014672687	1478014672792	T	84
436116	4701174	The cabinet Thursday approved a revised tariff schedule.	The cabinet Thursday approved a revised tariff schedule.	223244084	1478014672805	1478014672912	h	72
436116	4701174	The cabinet Thursday approved a revised tariff schedule.	The cabinet Thursday approved a revised tariff schedule.	223244090	1478014672869	1478014672974	u	85
436116	4701174	The cabinet Thursday approved a revised tariff schedule.	The cabinet Thursday approved a revised tariff schedule.	223244095	1478014673059	1478014673153	r	82
436116	4701174	The cabinet Thursday approved a revised tariff schedule.	The cabinet Thursday approved a revised tariff schedule.	223244099	1478014673282	1478014673356	s	83
436116	4701174	The cabinet Thursday approved a revised tariff schedule.	The cabinet Thursday approved a revised tariff schedule.	223244123	1478014673442	1478014673560	d	68
436116	4701174	The cabinet Thursday approved a revised tariff schedule.	The cabinet Thursday approved a revised tariff schedule.	223244126	1478014673569	1478014673661	a	65
436116	4701174	The cabinet Thursday approved a revised tariff schedule.	The cabinet Thursday approved a revised tariff schedule.	223244128	1478014673704	1478014673819	y	89
436116	4701174	The cabinet Thursday approved a revised tariff schedule.	The cabinet Thursday approved a revised tariff schedule.	223244130	1478014673939	1478014674029	 	32
436116	4701174	The cabinet Thursday approved a revised tariff schedule.	The cabinet Thursday approved a revised tariff schedule.	223244132	1478014674168	1478014674275	a	65
436116	4701174	The cabinet Thursday approved a revised tariff schedule.	The cabinet Thursday approved a revised tariff schedule.	223244144	1478014674285	1478014674328	p	80
436116	4701174	The cabinet Thursday approved a revised tariff schedule.	The cabinet Thursday approved a revised tariff schedule.	223244147	1478014674414	1478014674503	p	80
436116	4701174	The cabinet Thursday approved a revised tariff schedule.	The cabinet Thursday approved a revised tariff schedule.	223244157	1478014674523	1478014674618	r	82
436116	4701174	The cabinet Thursday approved a revised tariff schedule.	The cabinet Thursday approved a revised tariff schedule.	223244164	1478014674660	1478014674754	o	79
436116	4701174	The cabinet Thursday approved a revised tariff schedule.	The cabinet Thursday approved a revised tariff schedule.	223244170	1478014674799	1478014674874	v	86
436116	4701174	The cabinet Thursday approved a revised tariff schedule.	The cabinet Thursday approved a revised tariff schedule.	223244206	1478014674937	1478014675022	e	69
436116	4701174	The cabinet Thursday approved a revised tariff schedule.	The cabinet Thursday approved a revised tariff schedule.	223244212	1478014675117	1478014675198	d	68
436116	4701174	The cabinet Thursday approved a revised tariff schedule.	The cabinet Thursday approved a revised tariff schedule.	223244217	1478014675272	1478014675357	 	32
436116	4701174	The cabinet Thursday approved a revised tariff schedule.	The cabinet Thursday approved a revised tariff schedule.	223244222	1478014675368	1478014675452	a	65
436116	4701174	The cabinet Thursday approved a revised tariff schedule.	The cabinet Thursday approved a revised tariff schedule.	223244225	1478014675495	1478014675592	 	32
436116	4701174	The cabinet Thursday approved a revised tariff schedule.	The cabinet Thursday approved a revised tariff schedule.	223244237	1478014675655	1478014675760	r	82
436116	4701174	The cabinet Thursday approved a revised tariff schedule.	The cabinet Thursday approved a revised tariff schedule.	223244243	1478014675772	1478014675870	e	69
436116	4701174	The cabinet Thursday approved a revised tariff schedule.	The cabinet Thursday approved a revised tariff schedule.	223244249	1478014675911	1478014675995	v	86
436116	4701174	The cabinet Thursday approved a revised tariff schedule.	The cabinet Thursday approved a revised tariff schedule.	223244257	1478014676048	1478014676154	i	73
436116	4701174	The cabinet Thursday approved a revised tariff schedule.	The cabinet Thursday approved a revised tariff schedule.	223244259	1478014676207	1478014676280	d	68
436116	4701174	The cabinet Thursday approved a revised tariff schedule.	The cabinet Thursday approved a revised tariff schedule.	223244295	1478014676511	1478014676578	BKSP	8
436116	4701174	The cabinet Thursday approved a revised tariff schedule.	The cabinet Thursday approved a revised tariff schedule.	223244298	1478014676590	1478014676704	s	83
436116	4701174	The cabinet Thursday approved a revised tariff schedule.	The cabinet Thursday approved a revised tariff schedule.	223244300	1478014676653	1478014676737	e	69
436116	4701174	The cabinet Thursday approved a revised tariff schedule.	The cabinet Thursday approved a revised tariff schedule.	223244303	1478014676853	1478014676935	d	68
436116	4701174	The cabinet Thursday approved a revised tariff schedule.	The cabinet Thursday approved a revised tariff schedule.	223244304	1478014677050	1478014677156	 	32
436116	4701174	The cabinet Thursday approved a revised tariff schedule.	The cabinet Thursday approved a revised tariff schedule.	223244306	1478014677232	1478014677306	t	84
436116	4701174	The cabinet Thursday approved a revised tariff schedule.	The cabinet Thursday approved a revised tariff schedule.	223244328	1478014677346	1478014677504	a	65
436116	4701174	The cabinet Thursday approved a revised tariff schedule.	The cabinet Thursday approved a revised tariff schedule.	223244333	1478014677476	1478014677559	r	82
436116	4701174	The cabinet Thursday approved a revised tariff schedule.	The cabinet Thursday approved a revised tariff schedule.	223244338	1478014677752	1478014677845	i	73
436116	4701174	The cabinet Thursday approved a revised tariff schedule.	The cabinet Thursday approved a revised tariff schedule.	223244343	1478014677857	1478014677930	f	70
436116	4701174	The cabinet Thursday approved a revised tariff schedule.	The cabinet Thursday approved a revised tariff schedule.	223244348	1478014678014	1478014678108	f	70
436116	4701174	The cabinet Thursday approved a revised tariff schedule.	The cabinet Thursday approved a revised tariff schedule.	223244373	1478014678182	1478014678309	 	32
436116	4701174	The cabinet Thursday approved a revised tariff schedule.	The cabinet Thursday approved a revised tariff schedule.	223244377	1478014678279	1478014678384	s	83
436116	4701174	The cabinet Thursday approved a revised tariff schedule.	The cabinet Thursday approved a revised tariff schedule.	223244381	1478014678437	1478014678521	c	67
436116	4701174	The cabinet Thursday approved a revised tariff schedule.	The cabinet Thursday approved a revised tariff schedule.	223244386	1478014678574	1478014678669	h	72
436116	4701174	The cabinet Thursday approved a revised tariff schedule.	The cabinet Thursday approved a revised tariff schedule.	223244389	1478014678680	1478014678742	e	69
436116	4701174	The cabinet Thursday approved a revised tariff schedule.	The cabinet Thursday approved a revised tariff schedule.	223244403	1478014678827	1478014678920	d	68
436116	4701174	The cabinet Thursday approved a revised tariff schedule.	The cabinet Thursday approved a revised tariff schedule.	223244405	1478014678973	1478014679112	u	85
436116	4701174	The cabinet Thursday approved a revised tariff schedule.	The cabinet Thursday approved a revised tariff schedule.	223244407	1478014679060	1478014679156	l	76
436116	4701174	The cabinet Thursday approved a revised tariff schedule.	The cabinet Thursday approved a revised tariff schedule.	223244411	1478014679169	1478014679219	e	69
436116	4701174	The cabinet Thursday approved a revised tariff schedule.	The cabinet Thursday approved a revised tariff schedule.	223244414	1478014679295	1478014679390	.	190
436116	4701192	Met with partners in San Francisco.	Met with partners in San Francisco.	223244598	1478014682989	1478014683174	SHIFT	16
436116	4701192	Met with partners in San Francisco.	Met with partners in San Francisco.	223244602	1478014683142	1478014683226	M	77
436116	4701192	Met with partners in San Francisco.	Met with partners in San Francisco.	223244605	1478014683259	1478014683418	e	69
436116	4701192	Met with partners in San Francisco.	Met with partners in San Francisco.	223244610	1478014683354	1478014683483	t	84
436116	4701192	Met with partners in San Francisco.	Met with partners in San Francisco.	223244613	1478014683496	1478014683589	 	32
436116	4701192	Met with partners in San Francisco.	Met with partners in San Francisco.	223244636	1478014683568	1478014683653	w	87
436116	4701192	Met with partners in San Francisco.	Met with partners in San Francisco.	223244639	1478014683622	1478014683759	i	73
436116	4701192	Met with partners in San Francisco.	Met with partners in San Francisco.	223244640	1478014683770	1478014683833	t	84
436116	4701192	Met with partners in San Francisco.	Met with partners in San Francisco.	223244643	1478014683855	1478014683962	h	72
436116	4701192	Met with partners in San Francisco.	Met with partners in San Francisco.	223244645	1478014684036	1478014684109	 	32
436116	4701192	Met with partners in San Francisco.	Met with partners in San Francisco.	223244650	1478014684151	1478014684245	p	80
436116	4701192	Met with partners in San Francisco.	Met with partners in San Francisco.	223244676	1478014684256	1478014684362	a	65
436116	4701192	Met with partners in San Francisco.	Met with partners in San Francisco.	223244679	1478014684341	1478014684405	r	82
436116	4701192	Met with partners in San Francisco.	Met with partners in San Francisco.	223244682	1478014684489	1478014684584	t	84
436116	4701192	Met with partners in San Francisco.	Met with partners in San Francisco.	223244685	1478014684607	1478014684703	n	78
436116	4701192	Met with partners in San Francisco.	Met with partners in San Francisco.	223244687	1478014684716	1478014684832	e	69
436116	4701192	Met with partners in San Francisco.	Met with partners in San Francisco.	223244701	1478014684801	1478014684896	r	82
436116	4701192	Met with partners in San Francisco.	Met with partners in San Francisco.	223244708	1478014684982	1478014685084	s	83
436116	4701192	Met with partners in San Francisco.	Met with partners in San Francisco.	223244714	1478014685127	1478014685247	 	32
436116	4701192	Met with partners in San Francisco.	Met with partners in San Francisco.	223244721	1478014685233	1478014685391	i	73
436116	4701192	Met with partners in San Francisco.	Met with partners in San Francisco.	223244728	1478014685328	1478014685434	n	78
436116	4701192	Met with partners in San Francisco.	Met with partners in San Francisco.	223244751	1478014685403	1478014685529	 	32
436116	4701192	Met with partners in San Francisco.	Met with partners in San Francisco.	223244753	1478014685487	1478014685644	SHIFT	16
436116	4701192	Met with partners in San Francisco.	Met with partners in San Francisco.	223244755	1478014685593	1478014685676	S	83
436116	4701192	Met with partners in San Francisco.	Met with partners in San Francisco.	223244756	1478014685750	1478014685845	a	65
436116	4701192	Met with partners in San Francisco.	Met with partners in San Francisco.	223244757	1478014685887	1478014685981	n	78
436116	4701192	Met with partners in San Francisco.	Met with partners in San Francisco.	223244759	1478014685992	1478014686068	 	32
436116	4701192	Met with partners in San Francisco.	Met with partners in San Francisco.	223244761	1478014686003	1478014686196	SHIFT	16
436116	4701192	Met with partners in San Francisco.	Met with partners in San Francisco.	223244777	1478014686111	1478014686208	F	70
436116	4701192	Met with partners in San Francisco.	Met with partners in San Francisco.	223244778	1478014686304	1478014686399	r	82
436116	4701192	Met with partners in San Francisco.	Met with partners in San Francisco.	223244779	1478014686411	1478014686485	a	65
436116	4701192	Met with partners in San Francisco.	Met with partners in San Francisco.	223244780	1478014686550	1478014686655	n	78
436116	4701192	Met with partners in San Francisco.	Met with partners in San Francisco.	223244781	1478014686730	1478014686815	c	67
436116	4701192	Met with partners in San Francisco.	Met with partners in San Francisco.	223244782	1478014686882	1478014686989	i	73
436116	4701192	Met with partners in San Francisco.	Met with partners in San Francisco.	223244807	1478014687008	1478014687064	s	83
436116	4701192	Met with partners in San Francisco.	Met with partners in San Francisco.	223244811	1478014687182	1478014687257	c	67
436116	4701192	Met with partners in San Francisco.	Met with partners in San Francisco.	223244816	1478014687321	1478014687428	o	79
436116	4701192	Met with partners in San Francisco.	Met with partners in San Francisco.	223244824	1478014687525	1478014687628	.	190
436116	4701203	As usual, I will be as candid as I can.	As usual, I will be as candid as I can.	223245067	1478014692113	1478014692368	SHIFT	16
436116	4701203	As usual, I will be as candid as I can.	As usual, I will be as candid as I can.	223245070	1478014692263	1478014692378	A	65
436116	4701203	As usual, I will be as candid as I can.	As usual, I will be as candid as I can.	223245074	1478014692464	1478014692592	s	83
436116	4701203	As usual, I will be as candid as I can.	As usual, I will be as candid as I can.	223245078	1478014692604	1478014692667	 	32
436116	4701203	As usual, I will be as candid as I can.	As usual, I will be as candid as I can.	223245082	1478014692711	1478014692804	u	85
436116	4701203	As usual, I will be as candid as I can.	As usual, I will be as candid as I can.	223245085	1478014692817	1478014692881	s	83
436116	4701203	As usual, I will be as candid as I can.	As usual, I will be as candid as I can.	223245097	1478014692913	1478014693030	u	85
436116	4701203	As usual, I will be as candid as I can.	As usual, I will be as candid as I can.	223245100	1478014693045	1478014693103	a	65
436116	4701203	As usual, I will be as candid as I can.	As usual, I will be as candid as I can.	223245104	1478014693158	1478014693263	l	76
436116	4701203	As usual, I will be as candid as I can.	As usual, I will be as candid as I can.	223245106	1478014693508	1478014693591	,	188
436116	4701203	As usual, I will be as candid as I can.	As usual, I will be as candid as I can.	223245110	1478014693655	1478014693752	 	32
436116	4701203	As usual, I will be as candid as I can.	As usual, I will be as candid as I can.	223245138	1478014693764	1478014693933	SHIFT	16
436116	4701203	As usual, I will be as candid as I can.	As usual, I will be as candid as I can.	223245139	1478014693828	1478014693944	I	73
436116	4701203	As usual, I will be as candid as I can.	As usual, I will be as candid as I can.	223245146	1478014693966	1478014694080	 	32
436116	4701203	As usual, I will be as candid as I can.	As usual, I will be as candid as I can.	223245151	1478014694040	1478014694143	w	87
436116	4701203	As usual, I will be as candid as I can.	As usual, I will be as candid as I can.	223245152	1478014694155	1478014694282	i	73
436116	4701203	As usual, I will be as candid as I can.	As usual, I will be as candid as I can.	223245167	1478014694240	1478014694326	l	76
436116	4701203	As usual, I will be as candid as I can.	As usual, I will be as candid as I can.	223245169	1478014694400	1478014694480	l	76
436116	4701203	As usual, I will be as candid as I can.	As usual, I will be as candid as I can.	223245171	1478014694481	1478014694573	 	32
436116	4701203	As usual, I will be as candid as I can.	As usual, I will be as candid as I can.	223245175	1478014694584	1478014694670	b	66
436116	4701203	As usual, I will be as candid as I can.	As usual, I will be as candid as I can.	223245178	1478014694638	1478014694768	e	69
436116	4701203	As usual, I will be as candid as I can.	As usual, I will be as candid as I can.	223245180	1478014694780	1478014694903	 	32
436116	4701203	As usual, I will be as candid as I can.	As usual, I will be as candid as I can.	223245187	1478014694862	1478014695010	a	65
436116	4701203	As usual, I will be as candid as I can.	As usual, I will be as candid as I can.	223245192	1478014694957	1478014695064	s	83
436116	4701203	As usual, I will be as candid as I can.	As usual, I will be as candid as I can.	223245198	1478014695095	1478014695233	 	32
436116	4701203	As usual, I will be as candid as I can.	As usual, I will be as candid as I can.	223245209	1478014695244	1478014695337	c	67
436116	4701203	As usual, I will be as candid as I can.	As usual, I will be as candid as I can.	223245218	1478014695381	1478014695486	a	65
436116	4701203	As usual, I will be as candid as I can.	As usual, I will be as candid as I can.	223245227	1478014695529	1478014695634	n	78
436116	4701203	As usual, I will be as candid as I can.	As usual, I will be as candid as I can.	223245241	1478014695657	1478014695760	d	68
436116	4701203	As usual, I will be as candid as I can.	As usual, I will be as candid as I can.	223245244	1478014695793	1478014695902	i	73
436116	4701203	As usual, I will be as candid as I can.	As usual, I will be as candid as I can.	223245245	1478014695922	1478014696017	d	68
436116	4701203	As usual, I will be as candid as I can.	As usual, I will be as candid as I can.	223245247	1478014696082	1478014696198	 	32
436116	4701203	As usual, I will be as candid as I can.	As usual, I will be as candid as I can.	223245335	1478014696176	1478014696314	a	65
436116	4701203	As usual, I will be as candid as I can.	As usual, I will be as candid as I can.	223245339	1478014696283	1478014696408	s	83
436116	4701203	As usual, I will be as candid as I can.	As usual, I will be as candid as I can.	223245342	1478014696430	1478014696541	 	32
436116	4701203	As usual, I will be as candid as I can.	As usual, I will be as candid as I can.	223245344	1478014696542	1478014696582	i	73
436116	4701203	As usual, I will be as candid as I can.	As usual, I will be as candid as I can.	223245352	1478014696615	1478014697473	SHIFT	16
436116	4701203	As usual, I will be as candid as I can.	As usual, I will be as candid as I can.	223245346	1478014696826	1478014696888	BKSP	8
436116	4701203	As usual, I will be as candid as I can.	As usual, I will be as candid as I can.	223245347	1478014696963	1478014697047	BKSP	8
436116	4701203	As usual, I will be as candid as I can.	As usual, I will be as candid as I can.	223245349	1478014697016	1478014697111	I	73
436116	4701203	As usual, I will be as candid as I can.	As usual, I will be as candid as I can.	223245356	1478014697569	1478014697675	BKSP	8
436116	4701203	As usual, I will be as candid as I can.	As usual, I will be as candid as I can.	223245361	1478014697696	1478014697823	 	32
436116	4701203	As usual, I will be as candid as I can.	As usual, I will be as candid as I can.	223245378	1478014697791	1478014698005	SHIFT	16
436116	4701203	As usual, I will be as candid as I can.	As usual, I will be as candid as I can.	223245375	1478014697888	1478014697984	I	73
436116	4701203	As usual, I will be as candid as I can.	As usual, I will be as candid as I can.	223245382	1478014698038	1478014698164	 	32
436116	4701203	As usual, I will be as candid as I can.	As usual, I will be as candid as I can.	223245387	1478014698230	1478014698356	c	67
436116	4701203	As usual, I will be as candid as I can.	As usual, I will be as candid as I can.	223245392	1478014698314	1478014698440	a	65
436116	4701203	As usual, I will be as candid as I can.	As usual, I will be as candid as I can.	223245400	1478014698452	1478014698566	n	78
436116	4701215	Sorry to keep you in suspense!	Sorry to keep you in suspense!	223245590	1478014701970	1478014702159	SHIFT	16
436116	4701215	Sorry to keep you in suspense!	Sorry to keep you in suspense!	223245593	1478014702087	1478014702193	S	83
436116	4701215	Sorry to keep you in suspense!	Sorry to keep you in suspense!	223245598	1478014702171	1478014702245	o	79
436116	4701215	Sorry to keep you in suspense!	Sorry to keep you in suspense!	223245603	1478014702308	1478014702371	r	82
436116	4701215	Sorry to keep you in suspense!	Sorry to keep you in suspense!	223245610	1478014702457	1478014702542	r	82
436116	4701215	Sorry to keep you in suspense!	Sorry to keep you in suspense!	223245615	1478014702553	1478014702656	y	89
436116	4701215	Sorry to keep you in suspense!	Sorry to keep you in suspense!	223245630	1478014702668	1478014702787	 	32
436116	4701215	Sorry to keep you in suspense!	Sorry to keep you in suspense!	223245633	1478014702746	1478014702851	t	84
436116	4701215	Sorry to keep you in suspense!	Sorry to keep you in suspense!	223245637	1478014702864	1478014702980	o	79
436116	4701215	Sorry to keep you in suspense!	Sorry to keep you in suspense!	223245640	1478014702969	1478014703088	 	32
436116	4701215	Sorry to keep you in suspense!	Sorry to keep you in suspense!	223245643	1478014703197	1478014703277	k	75
436116	4701215	Sorry to keep you in suspense!	Sorry to keep you in suspense!	223245677	1478014703290	1478014703332	e	69
436116	4701215	Sorry to keep you in suspense!	Sorry to keep you in suspense!	223245683	1478014703417	1478014703507	e	69
436116	4701215	Sorry to keep you in suspense!	Sorry to keep you in suspense!	223245684	1478014703530	1478014703622	p	80
436116	4701215	Sorry to keep you in suspense!	Sorry to keep you in suspense!	223245685	1478014703656	1478014703750	 	32
436116	4701215	Sorry to keep you in suspense!	Sorry to keep you in suspense!	223245686	1478014703827	1478014703920	y	89
436116	4701215	Sorry to keep you in suspense!	Sorry to keep you in suspense!	223245710	1478014703936	1478014704072	o	79
436116	4701215	Sorry to keep you in suspense!	Sorry to keep you in suspense!	223245713	1478014704029	1478014704145	u	85
436116	4701215	Sorry to keep you in suspense!	Sorry to keep you in suspense!	223245718	1478014704157	1478014704254	 	32
436116	4701215	Sorry to keep you in suspense!	Sorry to keep you in suspense!	223245722	1478014704222	1478014704380	i	73
436116	4701215	Sorry to keep you in suspense!	Sorry to keep you in suspense!	223245743	1478014704327	1478014704433	n	78
436116	4701215	Sorry to keep you in suspense!	Sorry to keep you in suspense!	223245746	1478014704402	1478014704519	 	32
436116	4701215	Sorry to keep you in suspense!	Sorry to keep you in suspense!	223245750	1478014704486	1478014704582	s	83
436116	4701215	Sorry to keep you in suspense!	Sorry to keep you in suspense!	223245754	1478014704615	1478014704718	u	85
436116	4701215	Sorry to keep you in suspense!	Sorry to keep you in suspense!	223245758	1478014704740	1478014704812	s	83
436116	4701215	Sorry to keep you in suspense!	Sorry to keep you in suspense!	223245762	1478014704887	1478014705002	p	80
436116	4701215	Sorry to keep you in suspense!	Sorry to keep you in suspense!	223245802	1478014705014	1478014705089	e	69
436116	4701215	Sorry to keep you in suspense!	Sorry to keep you in suspense!	223245805	1478014705152	1478014705255	n	78
436116	4701215	Sorry to keep you in suspense!	Sorry to keep you in suspense!	223245809	1478014705452	1478014705590	c	67
436116	4701215	Sorry to keep you in suspense!	Sorry to keep you in suspense!	223245813	1478014705746	1478014705828	BKSP	8
436116	4701215	Sorry to keep you in suspense!	Sorry to keep you in suspense!	223245818	1478014705840	1478014706008	s	83
436116	4701215	Sorry to keep you in suspense!	Sorry to keep you in suspense!	223245854	1478014705924	1478014706019	e	69
436116	4701215	Sorry to keep you in suspense!	Sorry to keep you in suspense!	223245857	1478014706385	1478014706574	SHIFT	16
436116	4701215	Sorry to keep you in suspense!	Sorry to keep you in suspense!	223245859	1478014706460	1478014706585	!	49
436116	4701228	Add a Star Trek convention and sports memorabilia show to the mix.	Add a Star Trek convention and sports memorabilia show to the mix.	223246124	1478014711488	1478014711870	SHIFT	16
436116	4701228	Add a Star Trek convention and sports memorabilia show to the mix.	Add a Star Trek convention and sports memorabilia show to the mix.	223246127	1478014711746	1478014711891	A	65
436116	4701228	Add a Star Trek convention and sports memorabilia show to the mix.	Add a Star Trek convention and sports memorabilia show to the mix.	223246132	1478014711968	1478014712041	d	68
436116	4701228	Add a Star Trek convention and sports memorabilia show to the mix.	Add a Star Trek convention and sports memorabilia show to the mix.	223246135	1478014712126	1478014712220	d	68
436116	4701228	Add a Star Trek convention and sports memorabilia show to the mix.	Add a Star Trek convention and sports memorabilia show to the mix.	223246139	1478014712231	1478014712337	 	32
436116	4701228	Add a Star Trek convention and sports memorabilia show to the mix.	Add a Star Trek convention and sports memorabilia show to the mix.	223246144	1478014712368	1478014712464	a	65
436116	4701228	Add a Star Trek convention and sports memorabilia show to the mix.	Add a Star Trek convention and sports memorabilia show to the mix.	223246181	1478014712885	1478014713001	 	32
436116	4701228	Add a Star Trek convention and sports memorabilia show to the mix.	Add a Star Trek convention and sports memorabilia show to the mix.	223246185	1478014713035	1478014713287	SHIFT	16
436116	4701228	Add a Star Trek convention and sports memorabilia show to the mix.	Add a Star Trek convention and sports memorabilia show to the mix.	223246188	1478014713183	1478014713298	S	83
436116	4701228	Add a Star Trek convention and sports memorabilia show to the mix.	Add a Star Trek convention and sports memorabilia show to the mix.	223246191	1478014713405	1478014713490	t	84
436116	4701228	Add a Star Trek convention and sports memorabilia show to the mix.	Add a Star Trek convention and sports memorabilia show to the mix.	223246195	1478014713492	1478014713608	a	65
436116	4701228	Add a Star Trek convention and sports memorabilia show to the mix.	Add a Star Trek convention and sports memorabilia show to the mix.	223246197	1478014713642	1478014713716	r	82
436116	4701228	Add a Star Trek convention and sports memorabilia show to the mix.	Add a Star Trek convention and sports memorabilia show to the mix.	223246229	1478014713811	1478014713925	 	32
436116	4701228	Add a Star Trek convention and sports memorabilia show to the mix.	Add a Star Trek convention and sports memorabilia show to the mix.	223246232	1478014713894	1478014714076	SHIFT	16
436116	4701228	Add a Star Trek convention and sports memorabilia show to the mix.	Add a Star Trek convention and sports memorabilia show to the mix.	223246237	1478014714001	1478014714088	T	84
436116	4701228	Add a Star Trek convention and sports memorabilia show to the mix.	Add a Star Trek convention and sports memorabilia show to the mix.	223246242	1478014714160	1478014714299	r	82
436116	4701228	Add a Star Trek convention and sports memorabilia show to the mix.	Add a Star Trek convention and sports memorabilia show to the mix.	223246246	1478014714257	1478014714342	e	69
436116	4701228	Add a Star Trek convention and sports memorabilia show to the mix.	Add a Star Trek convention and sports memorabilia show to the mix.	223246250	1478014714418	1478014714513	k	75
436116	4701228	Add a Star Trek convention and sports memorabilia show to the mix.	Add a Star Trek convention and sports memorabilia show to the mix.	223246256	1478014714556	1478014714686	 	32
436116	4701228	Add a Star Trek convention and sports memorabilia show to the mix.	Add a Star Trek convention and sports memorabilia show to the mix.	223246258	1478014714697	1478014714795	c	67
436116	4701228	Add a Star Trek convention and sports memorabilia show to the mix.	Add a Star Trek convention and sports memorabilia show to the mix.	223246263	1478014714776	1478014714922	o	79
436116	4701228	Add a Star Trek convention and sports memorabilia show to the mix.	Add a Star Trek convention and sports memorabilia show to the mix.	223246267	1478014714882	1478014714986	n	78
436116	4701228	Add a Star Trek convention and sports memorabilia show to the mix.	Add a Star Trek convention and sports memorabilia show to the mix.	223246273	1478014714999	1478014715062	v	86
436116	4701228	Add a Star Trek convention and sports memorabilia show to the mix.	Add a Star Trek convention and sports memorabilia show to the mix.	223246304	1478014715127	1478014715210	e	69
436116	4701228	Add a Star Trek convention and sports memorabilia show to the mix.	Add a Star Trek convention and sports memorabilia show to the mix.	223246308	1478014715294	1478014715392	n	78
436116	4701228	Add a Star Trek convention and sports memorabilia show to the mix.	Add a Star Trek convention and sports memorabilia show to the mix.	223246312	1478014715448	1478014715540	t	84
436116	4701228	Add a Star Trek convention and sports memorabilia show to the mix.	Add a Star Trek convention and sports memorabilia show to the mix.	223246315	1478014715575	1478014715701	i	73
436116	4701228	Add a Star Trek convention and sports memorabilia show to the mix.	Add a Star Trek convention and sports memorabilia show to the mix.	223246331	1478014715680	1478014715857	o	79
436116	4701228	Add a Star Trek convention and sports memorabilia show to the mix.	Add a Star Trek convention and sports memorabilia show to the mix.	223246334	1478014715808	1478014715910	n	78
436116	4701228	Add a Star Trek convention and sports memorabilia show to the mix.	Add a Star Trek convention and sports memorabilia show to the mix.	223246340	1478014715869	1478014715966	 	32
436116	4701228	Add a Star Trek convention and sports memorabilia show to the mix.	Add a Star Trek convention and sports memorabilia show to the mix.	223246346	1478014715933	1478014716041	a	65
436116	4701228	Add a Star Trek convention and sports memorabilia show to the mix.	Add a Star Trek convention and sports memorabilia show to the mix.	223246349	1478014716054	1478014716148	n	78
436116	4701228	Add a Star Trek convention and sports memorabilia show to the mix.	Add a Star Trek convention and sports memorabilia show to the mix.	223246357	1478014716127	1478014716235	d	68
436116	4701228	Add a Star Trek convention and sports memorabilia show to the mix.	Add a Star Trek convention and sports memorabilia show to the mix.	223246359	1478014716247	1478014716342	 	32
436116	4701228	Add a Star Trek convention and sports memorabilia show to the mix.	Add a Star Trek convention and sports memorabilia show to the mix.	223246362	1478014716289	1478014716385	s	83
436116	4701228	Add a Star Trek convention and sports memorabilia show to the mix.	Add a Star Trek convention and sports memorabilia show to the mix.	223246365	1478014716364	1478014716512	p	80
436116	4701228	Add a Star Trek convention and sports memorabilia show to the mix.	Add a Star Trek convention and sports memorabilia show to the mix.	223246367	1478014716459	1478014716555	o	79
436116	4701228	Add a Star Trek convention and sports memorabilia show to the mix.	Add a Star Trek convention and sports memorabilia show to the mix.	223246377	1478014716534	1478014716606	r	82
436116	4701228	Add a Star Trek convention and sports memorabilia show to the mix.	Add a Star Trek convention and sports memorabilia show to the mix.	223246380	1478014716681	1478014716797	t	84
436116	4701228	Add a Star Trek convention and sports memorabilia show to the mix.	Add a Star Trek convention and sports memorabilia show to the mix.	223246383	1478014716829	1478014716924	s	83
436116	4701228	Add a Star Trek convention and sports memorabilia show to the mix.	Add a Star Trek convention and sports memorabilia show to the mix.	223246385	1478014716936	1478014717010	 	32
436116	4701228	Add a Star Trek convention and sports memorabilia show to the mix.	Add a Star Trek convention and sports memorabilia show to the mix.	223246386	1478014717032	1478014717126	m	77
436116	4701228	Add a Star Trek convention and sports memorabilia show to the mix.	Add a Star Trek convention and sports memorabilia show to the mix.	223246413	1478014717105	1478014717190	e	69
436116	4701228	Add a Star Trek convention and sports memorabilia show to the mix.	Add a Star Trek convention and sports memorabilia show to the mix.	223246419	1478014717232	1478014717360	m	77
436116	4701228	Add a Star Trek convention and sports memorabilia show to the mix.	Add a Star Trek convention and sports memorabilia show to the mix.	223246423	1478014717328	1478014717423	o	79
436116	4701228	Add a Star Trek convention and sports memorabilia show to the mix.	Add a Star Trek convention and sports memorabilia show to the mix.	223246428	1478014717466	1478014717551	r	82
436116	4701228	Add a Star Trek convention and sports memorabilia show to the mix.	Add a Star Trek convention and sports memorabilia show to the mix.	223246432	1478014717792	1478014717887	a	65
436116	4701228	Add a Star Trek convention and sports memorabilia show to the mix.	Add a Star Trek convention and sports memorabilia show to the mix.	223246436	1478014717992	1478014718088	b	66
436116	4701228	Add a Star Trek convention and sports memorabilia show to the mix.	Add a Star Trek convention and sports memorabilia show to the mix.	223246464	1478014718161	1478014718257	i	73
436116	4701228	Add a Star Trek convention and sports memorabilia show to the mix.	Add a Star Trek convention and sports memorabilia show to the mix.	223246466	1478014718374	1478014718522	l	76
436116	4701228	Add a Star Trek convention and sports memorabilia show to the mix.	Add a Star Trek convention and sports memorabilia show to the mix.	223246468	1478014718480	1478014718584	i	73
436116	4701228	Add a Star Trek convention and sports memorabilia show to the mix.	Add a Star Trek convention and sports memorabilia show to the mix.	223246470	1478014718638	1478014718752	a	65
436116	4701228	Add a Star Trek convention and sports memorabilia show to the mix.	Add a Star Trek convention and sports memorabilia show to the mix.	223246472	1478014718810	1478014718922	 	32
436116	4701228	Add a Star Trek convention and sports memorabilia show to the mix.	Add a Star Trek convention and sports memorabilia show to the mix.	223246486	1478014718944	1478014719072	s	83
436116	4701228	Add a Star Trek convention and sports memorabilia show to the mix.	Add a Star Trek convention and sports memorabilia show to the mix.	223246489	1478014719018	1478014719134	h	72
436116	4701228	Add a Star Trek convention and sports memorabilia show to the mix.	Add a Star Trek convention and sports memorabilia show to the mix.	223246493	1478014719105	1478014719208	o	79
436116	4701228	Add a Star Trek convention and sports memorabilia show to the mix.	Add a Star Trek convention and sports memorabilia show to the mix.	223246496	1478014719259	1478014719356	w	87
436116	4701228	Add a Star Trek convention and sports memorabilia show to the mix.	Add a Star Trek convention and sports memorabilia show to the mix.	223246499	1478014719379	1478014719514	 	32
436116	4701228	Add a Star Trek convention and sports memorabilia show to the mix.	Add a Star Trek convention and sports memorabilia show to the mix.	223246502	1478014719528	1478014719611	t	84
436116	4701228	Add a Star Trek convention and sports memorabilia show to the mix.	Add a Star Trek convention and sports memorabilia show to the mix.	223246510	1478014719625	1478014719708	o	79
436116	4701228	Add a Star Trek convention and sports memorabilia show to the mix.	Add a Star Trek convention and sports memorabilia show to the mix.	223246518	1478014719719	1478014719804	 	32
436116	4701228	Add a Star Trek convention and sports memorabilia show to the mix.	Add a Star Trek convention and sports memorabilia show to the mix.	223246527	1478014719772	1478014719878	t	84
436116	4701228	Add a Star Trek convention and sports memorabilia show to the mix.	Add a Star Trek convention and sports memorabilia show to the mix.	223246548	1478014719858	1478014719964	h	72
436116	4701228	Add a Star Trek convention and sports memorabilia show to the mix.	Add a Star Trek convention and sports memorabilia show to the mix.	223246552	1478014719922	1478014720028	e	69
436116	4701228	Add a Star Trek convention and sports memorabilia show to the mix.	Add a Star Trek convention and sports memorabilia show to the mix.	223246554	1478014720040	1478014720101	 	32
436116	4701228	Add a Star Trek convention and sports memorabilia show to the mix.	Add a Star Trek convention and sports memorabilia show to the mix.	223246556	1478014720164	1478014720281	m	77
436116	4701228	Add a Star Trek convention and sports memorabilia show to the mix.	Add a Star Trek convention and sports memorabilia show to the mix.	223246558	1478014720248	1478014720376	i	73
436116	4701228	Add a Star Trek convention and sports memorabilia show to the mix.	Add a Star Trek convention and sports memorabilia show to the mix.	223246560	1478014720388	1478014720452	x	88
436116	4701239	He did not return to the contest, and is listed as day to day.	He did not return to the contest, and is listed as day to day.	223246856	1478014726042	1478014726261	SHIFT	16
436116	4701239	He did not return to the contest, and is listed as day to day.	He did not return to the contest, and is listed as day to day.	223246857	1478014726240	1478014726335	H	72
436116	4701239	He did not return to the contest, and is listed as day to day.	He did not return to the contest, and is listed as day to day.	223246859	1478014726347	1478014726443	e	69
436116	4701239	He did not return to the contest, and is listed as day to day.	He did not return to the contest, and is listed as day to day.	223246862	1478014726421	1478014726565	 	32
436116	4701239	He did not return to the contest, and is listed as day to day.	He did not return to the contest, and is listed as day to day.	223246864	1478014726554	1478014726615	d	68
436116	4701239	He did not return to the contest, and is listed as day to day.	He did not return to the contest, and is listed as day to day.	223246867	1478014726626	1478014726720	i	73
436116	4701239	He did not return to the contest, and is listed as day to day.	He did not return to the contest, and is listed as day to day.	223246889	1478014726732	1478014726843	d	68
436116	4701239	He did not return to the contest, and is listed as day to day.	He did not return to the contest, and is listed as day to day.	223246894	1478014726854	1478014726927	 	32
436116	4701239	He did not return to the contest, and is listed as day to day.	He did not return to the contest, and is listed as day to day.	223246898	1478014726959	1478014727098	n	78
436116	4701239	He did not return to the contest, and is listed as day to day.	He did not return to the contest, and is listed as day to day.	223246904	1478014727056	1478014727162	o	79
436116	4701239	He did not return to the contest, and is listed as day to day.	He did not return to the contest, and is listed as day to day.	223246909	1478014727174	1478014727279	t	84
436116	4701239	He did not return to the contest, and is listed as day to day.	He did not return to the contest, and is listed as day to day.	223246920	1478014727291	1478014727440	 	32
436116	4701239	He did not return to the contest, and is listed as day to day.	He did not return to the contest, and is listed as day to day.	223246921	1478014727398	1478014727525	r	82
436116	4701239	He did not return to the contest, and is listed as day to day.	He did not return to the contest, and is listed as day to day.	223246923	1478014727503	1478014727662	e	69
436116	4701239	He did not return to the contest, and is listed as day to day.	He did not return to the contest, and is listed as day to day.	223246925	1478014727631	1478014727725	t	84
436116	4701239	He did not return to the contest, and is listed as day to day.	He did not return to the contest, and is listed as day to day.	223246927	1478014727736	1478014727831	u	85
436116	4701239	He did not return to the contest, and is listed as day to day.	He did not return to the contest, and is listed as day to day.	223246940	1478014727863	1478014727957	r	82
436116	4701239	He did not return to the contest, and is listed as day to day.	He did not return to the contest, and is listed as day to day.	223246942	1478014728021	1478014728124	n	78
436116	4701239	He did not return to the contest, and is listed as day to day.	He did not return to the contest, and is listed as day to day.	223246946	1478014728135	1478014728208	 	32
436116	4701239	He did not return to the contest, and is listed as day to day.	He did not return to the contest, and is listed as day to day.	223246949	1478014728220	1478014728314	t	84
436116	4701239	He did not return to the contest, and is listed as day to day.	He did not return to the contest, and is listed as day to day.	223246951	1478014728325	1478014728399	o	79
436116	4701239	He did not return to the contest, and is listed as day to day.	He did not return to the contest, and is listed as day to day.	223246959	1478014728410	1478014728494	 	32
436116	4701239	He did not return to the contest, and is listed as day to day.	He did not return to the contest, and is listed as day to day.	223246962	1478014728465	1478014728610	t	84
436116	4701239	He did not return to the contest, and is listed as day to day.	He did not return to the contest, and is listed as day to day.	223246963	1478014728578	1478014728675	h	72
436116	4701239	He did not return to the contest, and is listed as day to day.	He did not return to the contest, and is listed as day to day.	223246966	1478014728622	1478014728724	e	69
436116	4701239	He did not return to the contest, and is listed as day to day.	He did not return to the contest, and is listed as day to day.	223246971	1478014728753	1478014728888	 	32
436116	4701239	He did not return to the contest, and is listed as day to day.	He did not return to the contest, and is listed as day to day.	223246990	1478014728899	1478014728993	c	67
436116	4701239	He did not return to the contest, and is listed as day to day.	He did not return to the contest, and is listed as day to day.	223246992	1478014729006	1478014729123	o	79
436116	4701239	He did not return to the contest, and is listed as day to day.	He did not return to the contest, and is listed as day to day.	223246996	1478014729080	1478014729186	n	78
436116	4701239	He did not return to the contest, and is listed as day to day.	He did not return to the contest, and is listed as day to day.	223247000	1478014729239	1478014729271	s	83
436116	4701239	He did not return to the contest, and is listed as day to day.	He did not return to the contest, and is listed as day to day.	223247003	1478014729386	1478014729428	t	84
436116	4701239	He did not return to the contest, and is listed as day to day.	He did not return to the contest, and is listed as day to day.	223247044	1478014729528	1478014729619	t	84
436116	4701239	He did not return to the contest, and is listed as day to day.	He did not return to the contest, and is listed as day to day.	223247046	1478014729713	1478014729766	BKSP	8
436116	4701239	He did not return to the contest, and is listed as day to day.	He did not return to the contest, and is listed as day to day.	223247049	1478014729865	1478014729929	BKSP	8
436116	4701239	He did not return to the contest, and is listed as day to day.	He did not return to the contest, and is listed as day to day.	223247054	1478014730006	1478014730078	BKSP	8
436116	4701239	He did not return to the contest, and is listed as day to day.	He did not return to the contest, and is listed as day to day.	223247057	1478014730173	1478014730333	t	84
436116	4701239	He did not return to the contest, and is listed as day to day.	He did not return to the contest, and is listed as day to day.	223247060	1478014730280	1478014730365	e	69
436116	4701239	He did not return to the contest, and is listed as day to day.	He did not return to the contest, and is listed as day to day.	223247063	1478014730507	1478014730687	s	83
436116	4701239	He did not return to the contest, and is listed as day to day.	He did not return to the contest, and is listed as day to day.	223247087	1478014730643	1478014730739	t	84
436116	4701239	He did not return to the contest, and is listed as day to day.	He did not return to the contest, and is listed as day to day.	223247090	1478014730898	1478014730992	,	188
436116	4701239	He did not return to the contest, and is listed as day to day.	He did not return to the contest, and is listed as day to day.	223247094	1478014731025	1478014731132	 	32
436116	4701239	He did not return to the contest, and is listed as day to day.	He did not return to the contest, and is listed as day to day.	223247097	1478014731120	1478014731226	a	65
436116	4701239	He did not return to the contest, and is listed as day to day.	He did not return to the contest, and is listed as day to day.	223247100	1478014731238	1478014731344	n	78
436116	4701239	He did not return to the contest, and is listed as day to day.	He did not return to the contest, and is listed as day to day.	223247103	1478014731356	1478014731439	d	68
436116	4701239	He did not return to the contest, and is listed as day to day.	He did not return to the contest, and is listed as day to day.	223247109	1478014731451	1478014731534	i	32
436116	4701239	He did not return to the contest, and is listed as day to day.	He did not return to the contest, and is listed as day to day.	223247110	1478014731619	1478014731702	s	83
436116	4701239	He did not return to the contest, and is listed as day to day.	He did not return to the contest, and is listed as day to day.	223247112	1478014731725	1478014731800	 	32
436116	4701239	He did not return to the contest, and is listed as day to day.	He did not return to the contest, and is listed as day to day.	223247164	1478014731758	1478014731904	l	76
436116	4701239	He did not return to the contest, and is listed as day to day.	He did not return to the contest, and is listed as day to day.	223247165	1478014731852	1478014731967	i	73
436116	4701239	He did not return to the contest, and is listed as day to day.	He did not return to the contest, and is listed as day to day.	223247166	1478014732079	1478014732215	s	83
436116	4701239	He did not return to the contest, and is listed as day to day.	He did not return to the contest, and is listed as day to day.	223247168	1478014732226	1478014732300	t	84
436116	4701239	He did not return to the contest, and is listed as day to day.	He did not return to the contest, and is listed as day to day.	223247171	1478014732563	1478014732623	t	84
436116	4701239	He did not return to the contest, and is listed as day to day.	He did not return to the contest, and is listed as day to day.	223247174	1478014732857	1478014732920	BKSP	8
436116	4701239	He did not return to the contest, and is listed as day to day.	He did not return to the contest, and is listed as day to day.	223247178	1478014732957	1478014733047	e	69
436116	4701239	He did not return to the contest, and is listed as day to day.	He did not return to the contest, and is listed as day to day.	223247212	1478014733154	1478014733238	d	68
436116	4701239	He did not return to the contest, and is listed as day to day.	He did not return to the contest, and is listed as day to day.	223247216	1478014733343	1478014733439	 	32
436116	4701239	He did not return to the contest, and is listed as day to day.	He did not return to the contest, and is listed as day to day.	223247218	1478014733473	1478014733610	a	65
436116	4701239	He did not return to the contest, and is listed as day to day.	He did not return to the contest, and is listed as day to day.	223247221	1478014733578	1478014733705	s	83
436116	4701239	He did not return to the contest, and is listed as day to day.	He did not return to the contest, and is listed as day to day.	223247223	1478014733728	1478014733855	 	32
436116	4701239	He did not return to the contest, and is listed as day to day.	He did not return to the contest, and is listed as day to day.	223247237	1478014733887	1478014733982	d	68
436116	4701239	He did not return to the contest, and is listed as day to day.	He did not return to the contest, and is listed as day to day.	223247242	1478014733994	1478014734078	a	65
436116	4701239	He did not return to the contest, and is listed as day to day.	He did not return to the contest, and is listed as day to day.	223247247	1478014734111	1478014734206	y	89
436116	4701239	He did not return to the contest, and is listed as day to day.	He did not return to the contest, and is listed as day to day.	223247250	1478014734217	1478014734334	 	32
436116	4701239	He did not return to the contest, and is listed as day to day.	He did not return to the contest, and is listed as day to day.	223247258	1478014734345	1478014734439	t	84
436116	4701239	He did not return to the contest, and is listed as day to day.	He did not return to the contest, and is listed as day to day.	223247288	1478014734449	1478014734535	o	79
436116	4701239	He did not return to the contest, and is listed as day to day.	He did not return to the contest, and is listed as day to day.	223247291	1478014734545	1478014734664	 	32
436116	4701239	He did not return to the contest, and is listed as day to day.	He did not return to the contest, and is listed as day to day.	223247295	1478014734642	1478014734793	d	68
436116	4701239	He did not return to the contest, and is listed as day to day.	He did not return to the contest, and is listed as day to day.	223247300	1478014734762	1478014734866	a	65
436116	4701239	He did not return to the contest, and is listed as day to day.	He did not return to the contest, and is listed as day to day.	223247306	1478014734877	1478014734952	y	89
436116	4701239	He did not return to the contest, and is listed as day to day.	He did not return to the contest, and is listed as day to day.	223247304	1478014735026	1478014735101	.	190
436116	4701258	We use this functionality a lot when pathing pools.	We use this functionality a lot when pathing pools.	223247544	1478014738084	1478014738334	SHIFT	16
436116	4701258	We use this functionality a lot when pathing pools.	We use this functionality a lot when pathing pools.	223247546	1478014738262	1478014738376	W	87
436116	4701258	We use this functionality a lot when pathing pools.	We use this functionality a lot when pathing pools.	223247550	1478014738440	1478014738565	e	69
436116	4701258	We use this functionality a lot when pathing pools.	We use this functionality a lot when pathing pools.	223247555	1478014738566	1478014738651	 	32
436116	4701258	We use this functionality a lot when pathing pools.	We use this functionality a lot when pathing pools.	223247560	1478014738837	1478014738907	y	89
436116	4701258	We use this functionality a lot when pathing pools.	We use this functionality a lot when pathing pools.	223247563	1478014739118	1478014739245	BKSP	8
436116	4701258	We use this functionality a lot when pathing pools.	We use this functionality a lot when pathing pools.	223247566	1478014739258	1478014739352	u	85
436116	4701258	We use this functionality a lot when pathing pools.	We use this functionality a lot when pathing pools.	223247574	1478014739365	1478014739498	s	83
436116	4701258	We use this functionality a lot when pathing pools.	We use this functionality a lot when pathing pools.	223247576	1478014739426	1478014739550	e	69
436116	4701258	We use this functionality a lot when pathing pools.	We use this functionality a lot when pathing pools.	223247577	1478014739574	1478014739710	 	32
436116	4701258	We use this functionality a lot when pathing pools.	We use this functionality a lot when pathing pools.	223247580	1478014739668	1478014739773	t	84
436116	4701258	We use this functionality a lot when pathing pools.	We use this functionality a lot when pathing pools.	223247602	1478014739742	1478014739881	h	72
436116	4701258	We use this functionality a lot when pathing pools.	We use this functionality a lot when pathing pools.	223247604	1478014739817	1478014739934	i	73
436116	4701258	We use this functionality a lot when pathing pools.	We use this functionality a lot when pathing pools.	223247605	1478014739945	1478014740030	s	83
436116	4701258	We use this functionality a lot when pathing pools.	We use this functionality a lot when pathing pools.	223247607	1478014740042	1478014740166	 	32
436116	4701258	We use this functionality a lot when pathing pools.	We use this functionality a lot when pathing pools.	223247608	1478014740135	1478014740240	f	70
436116	4701258	We use this functionality a lot when pathing pools.	We use this functionality a lot when pathing pools.	223247610	1478014740294	1478014740421	u	85
436116	4701258	We use this functionality a lot when pathing pools.	We use this functionality a lot when pathing pools.	223247634	1478014740390	1478014740497	n	78
436116	4701258	We use this functionality a lot when pathing pools.	We use this functionality a lot when pathing pools.	223247638	1478014740467	1478014740518	c	67
436116	4701258	We use this functionality a lot when pathing pools.	We use this functionality a lot when pathing pools.	223247641	1478014740649	1478014740745	t	84
436116	4701258	We use this functionality a lot when pathing pools.	We use this functionality a lot when pathing pools.	223247644	1478014740692	1478014740809	i	73
436116	4701258	We use this functionality a lot when pathing pools.	We use this functionality a lot when pathing pools.	223247648	1478014740791	1478014740947	o	79
436116	4701258	We use this functionality a lot when pathing pools.	We use this functionality a lot when pathing pools.	223247667	1478014740905	1478014741012	n	78
436116	4701258	We use this functionality a lot when pathing pools.	We use this functionality a lot when pathing pools.	223247672	1478014740982	1478014741086	a	65
436116	4701258	We use this functionality a lot when pathing pools.	We use this functionality a lot when pathing pools.	223247676	1478014741098	1478014741248	l	76
436116	4701258	We use this functionality a lot when pathing pools.	We use this functionality a lot when pathing pools.	223247680	1478014741195	1478014741302	i	73
436116	4701258	We use this functionality a lot when pathing pools.	We use this functionality a lot when pathing pools.	223247683	1478014741314	1478014741368	t	84
436116	4701258	We use this functionality a lot when pathing pools.	We use this functionality a lot when pathing pools.	223247685	1478014741472	1478014741577	y	89
436116	4701258	We use this functionality a lot when pathing pools.	We use this functionality a lot when pathing pools.	223247700	1478014741589	1478014741693	 	32
436116	4701258	We use this functionality a lot when pathing pools.	We use this functionality a lot when pathing pools.	223247703	1478014741672	1478014741777	a	65
436116	4701258	We use this functionality a lot when pathing pools.	We use this functionality a lot when pathing pools.	223247704	1478014741820	1478014741894	 	32
436116	4701258	We use this functionality a lot when pathing pools.	We use this functionality a lot when pathing pools.	223247705	1478014741907	1478014741969	l	76
436116	4701258	We use this functionality a lot when pathing pools.	We use this functionality a lot when pathing pools.	223247708	1478014742044	1478014742158	o	79
436116	4701258	We use this functionality a lot when pathing pools.	We use this functionality a lot when pathing pools.	223247763	1478014742137	1478014742244	t	84
436116	4701258	We use this functionality a lot when pathing pools.	We use this functionality a lot when pathing pools.	223247765	1478014742255	1478014742361	 	32
436116	4701258	We use this functionality a lot when pathing pools.	We use this functionality a lot when pathing pools.	223247767	1478014742529	1478014742604	w	87
436116	4701258	We use this functionality a lot when pathing pools.	We use this functionality a lot when pathing pools.	223247769	1478014742678	1478014742786	h	72
436116	4701258	We use this functionality a lot when pathing pools.	We use this functionality a lot when pathing pools.	223247771	1478014742796	1478014742870	t	84
436116	4701258	We use this functionality a lot when pathing pools.	We use this functionality a lot when pathing pools.	223247774	1478014743154	1478014743228	BKSP	8
436116	4701258	We use this functionality a lot when pathing pools.	We use this functionality a lot when pathing pools.	223247778	1478014743250	1478014743335	e	69
436116	4701258	We use this functionality a lot when pathing pools.	We use this functionality a lot when pathing pools.	223247797	1478014743381	1478014743476	n	78
436116	4701258	We use this functionality a lot when pathing pools.	We use this functionality a lot when pathing pools.	223247802	1478014743510	1478014743602	 	32
436116	4701258	We use this functionality a lot when pathing pools.	We use this functionality a lot when pathing pools.	223247805	1478014743626	1478014743732	p	80
436116	4701258	We use this functionality a lot when pathing pools.	We use this functionality a lot when pathing pools.	223247808	1478014743744	1478014743878	a	65
436116	4701258	We use this functionality a lot when pathing pools.	We use this functionality a lot when pathing pools.	223247841	1478014743826	1478014743912	t	84
436116	4701258	We use this functionality a lot when pathing pools.	We use this functionality a lot when pathing pools.	223247845	1478014743924	1478014744040	h	72
436116	4701258	We use this functionality a lot when pathing pools.	We use this functionality a lot when pathing pools.	223247848	1478014744051	1478014744190	i	73
436116	4701258	We use this functionality a lot when pathing pools.	We use this functionality a lot when pathing pools.	223247850	1478014744147	1478014744275	n	78
436116	4701258	We use this functionality a lot when pathing pools.	We use this functionality a lot when pathing pools.	223247853	1478014744286	1478014744392	g	71
436116	4701258	We use this functionality a lot when pathing pools.	We use this functionality a lot when pathing pools.	223247858	1478014744403	1478014744487	 	32
436116	4701258	We use this functionality a lot when pathing pools.	We use this functionality a lot when pathing pools.	223247884	1478014744498	1478014744592	p	80
436116	4701258	We use this functionality a lot when pathing pools.	We use this functionality a lot when pathing pools.	223247887	1478014744647	1478014744721	o	79
436116	4701258	We use this functionality a lot when pathing pools.	We use this functionality a lot when pathing pools.	223247890	1478014744784	1478014744849	o	79
436116	4701258	We use this functionality a lot when pathing pools.	We use this functionality a lot when pathing pools.	223247894	1478014744925	1478014745030	l	76
436116	4701258	We use this functionality a lot when pathing pools.	We use this functionality a lot when pathing pools.	223247897	1478014745043	1478014745127	s	83
436116	4701258	We use this functionality a lot when pathing pools.	We use this functionality a lot when pathing pools.	223247909	1478014745191	1478014745297	.	190
436116	4701273	He is recovering from a bruised left shoulder.	He is recovering from a bruised left shoulder.	223248220	1478014746770	1478014746782	PAUSE	126
436116	4701273	He is recovering from a bruised left shoulder.	He is recovering from a bruised left shoulder.	223248223	1478014750273	1478014750611	SHIFT	16
436116	4701273	He is recovering from a bruised left shoulder.	He is recovering from a bruised left shoulder.	223248226	1478014750539	1478014750632	H	72
436116	4701273	He is recovering from a bruised left shoulder.	He is recovering from a bruised left shoulder.	223248230	1478014750653	1478014750781	e	69
436116	4701273	He is recovering from a bruised left shoulder.	He is recovering from a bruised left shoulder.	223248234	1478014750761	1478014750854	 	32
436116	4701273	He is recovering from a bruised left shoulder.	He is recovering from a bruised left shoulder.	223248238	1478014750867	1478014750929	h	72
436116	4701273	He is recovering from a bruised left shoulder.	He is recovering from a bruised left shoulder.	223248240	1478014751179	1478014751292	BKSP	8
436116	4701273	He is recovering from a bruised left shoulder.	He is recovering from a bruised left shoulder.	223248241	1478014751303	1478014751398	i	73
436116	4701273	He is recovering from a bruised left shoulder.	He is recovering from a bruised left shoulder.	223248248	1478014751409	1478014751524	s	83
436116	4701273	He is recovering from a bruised left shoulder.	He is recovering from a bruised left shoulder.	223248249	1478014751535	1478014751672	 	32
436116	4701273	He is recovering from a bruised left shoulder.	He is recovering from a bruised left shoulder.	223248250	1478014751662	1478014751790	r	82
436116	4701273	He is recovering from a bruised left shoulder.	He is recovering from a bruised left shoulder.	223248251	1478014751802	1478014751917	e	69
436116	4701273	He is recovering from a bruised left shoulder.	He is recovering from a bruised left shoulder.	223248252	1478014751928	1478014752011	c	67
436116	4701273	He is recovering from a bruised left shoulder.	He is recovering from a bruised left shoulder.	223248284	1478014752033	1478014752150	o	79
436116	4701273	He is recovering from a bruised left shoulder.	He is recovering from a bruised left shoulder.	223248287	1478014752161	1478014752236	v	86
436116	4701273	He is recovering from a bruised left shoulder.	He is recovering from a bruised left shoulder.	223248290	1478014752320	1478014752488	e	69
436116	4701273	He is recovering from a bruised left shoulder.	He is recovering from a bruised left shoulder.	223248293	1478014752446	1478014752531	r	82
436116	4701273	He is recovering from a bruised left shoulder.	He is recovering from a bruised left shoulder.	223248297	1478014752584	1478014752722	i	73
436116	4701273	He is recovering from a bruised left shoulder.	He is recovering from a bruised left shoulder.	223248331	1478014752668	1478014752796	n	78
436116	4701273	He is recovering from a bruised left shoulder.	He is recovering from a bruised left shoulder.	223248336	1478014752796	1478014752870	g	71
436116	4701273	He is recovering from a bruised left shoulder.	He is recovering from a bruised left shoulder.	223248342	1478014752903	1478014753038	 	32
436116	4701273	He is recovering from a bruised left shoulder.	He is recovering from a bruised left shoulder.	223248346	1478014753049	1478014753133	r	82
436116	4701273	He is recovering from a bruised left shoulder.	He is recovering from a bruised left shoulder.	223248350	1478014753369	1478014753451	BKSP	8
436116	4701273	He is recovering from a bruised left shoulder.	He is recovering from a bruised left shoulder.	223248355	1478014753441	1478014753504	f	70
436116	4701273	He is recovering from a bruised left shoulder.	He is recovering from a bruised left shoulder.	223248361	1478014753599	1478014753694	r	82
436116	4701273	He is recovering from a bruised left shoulder.	He is recovering from a bruised left shoulder.	223248372	1478014753719	1478014753801	m	79
436116	4701273	He is recovering from a bruised left shoulder.	He is recovering from a bruised left shoulder.	223248375	1478014753872	1478014753966	 	32
436116	4701273	He is recovering from a bruised left shoulder.	He is recovering from a bruised left shoulder.	223248377	1478014753946	1478014754060	a	65
436116	4701273	He is recovering from a bruised left shoulder.	He is recovering from a bruised left shoulder.	223248379	1478014754105	1478014754209	 	32
436116	4701273	He is recovering from a bruised left shoulder.	He is recovering from a bruised left shoulder.	223248419	1478014754263	1478014754359	b	66
436116	4701273	He is recovering from a bruised left shoulder.	He is recovering from a bruised left shoulder.	223248420	1478014754326	1478014754423	r	82
436116	4701273	He is recovering from a bruised left shoulder.	He is recovering from a bruised left shoulder.	223248421	1478014754467	1478014754582	u	85
436116	4701273	He is recovering from a bruised left shoulder.	He is recovering from a bruised left shoulder.	223248422	1478014754651	1478014754776	i	73
436116	4701273	He is recovering from a bruised left shoulder.	He is recovering from a bruised left shoulder.	223248424	1478014754859	1478014755050	s	83
436116	4701273	He is recovering from a bruised left shoulder.	He is recovering from a bruised left shoulder.	223248446	1478014755039	1478014755081	e	69
436116	4701273	He is recovering from a bruised left shoulder.	He is recovering from a bruised left shoulder.	223248451	1478014755199	1478014755283	d	68
436116	4701273	He is recovering from a bruised left shoulder.	He is recovering from a bruised left shoulder.	223248455	1478014755325	1478014755409	 	32
436116	4701273	He is recovering from a bruised left shoulder.	He is recovering from a bruised left shoulder.	223248460	1478014755431	1478014755549	l	76
436116	4701273	He is recovering from a bruised left shoulder.	He is recovering from a bruised left shoulder.	223248467	1478014755507	1478014755623	e	69
436116	4701273	He is recovering from a bruised left shoulder.	He is recovering from a bruised left shoulder.	223248499	1478014755592	1478014755655	f	70
436116	4701273	He is recovering from a bruised left shoulder.	He is recovering from a bruised left shoulder.	223248502	1478014755775	1478014755878	t	84
436116	4701273	He is recovering from a bruised left shoulder.	He is recovering from a bruised left shoulder.	223248505	1478014755899	1478014756026	 	32
436116	4701273	He is recovering from a bruised left shoulder.	He is recovering from a bruised left shoulder.	223248508	1478014755984	1478014756059	s	83
436116	4701273	He is recovering from a bruised left shoulder.	He is recovering from a bruised left shoulder.	223248513	1478014756070	1478014756143	h	72
436116	4701273	He is recovering from a bruised left shoulder.	He is recovering from a bruised left shoulder.	223248518	1478014756154	1478014756261	o	79
436116	4701273	He is recovering from a bruised left shoulder.	He is recovering from a bruised left shoulder.	223248555	1478014756251	1478014756390	u	85
436116	4701273	He is recovering from a bruised left shoulder.	He is recovering from a bruised left shoulder.	223248559	1478014756368	1478014756494	l	76
436116	4701273	He is recovering from a bruised left shoulder.	He is recovering from a bruised left shoulder.	223248563	1478014756473	1478014756537	d	68
436116	4701273	He is recovering from a bruised left shoulder.	He is recovering from a bruised left shoulder.	223248569	1478014756635	1478014756760	e	69
436116	4701273	He is recovering from a bruised left shoulder.	He is recovering from a bruised left shoulder.	223248574	1478014756709	1478014756804	r	82
