PARTICIPANT_ID	TEST_SECTION_ID	SENTENCE	USER_INPUT	KEYSTROKE_ID	PRESS_TIME	RELEASE_TIME	LETTER	KEYCODE
439450	4732201	Currently, we are focusing our resources on domestic sites.	Currently, we are focusing our resources on domestice sites. 	224678887	1478037576347	1478037576618	SHIFT	16
439450	4732201	Currently, we are focusing our resources on domestic sites.	Currently, we are focusing our resources on domestice sites. 	224678888	1478037576538	1478037576666	C	67
439450	4732201	Currently, we are focusing our resources on domestic sites.	Currently, we are focusing our resources on domestice sites. 	224678889	1478037577114	1478037577211	u	85
439450	4732201	Currently, we are focusing our resources on domestic sites.	Currently, we are focusing our resources on domestice sites. 	224678890	1478037577530	1478037577626	r	82
439450	4732201	Currently, we are focusing our resources on domestic sites.	Currently, we are focusing our resources on domestice sites. 	224678891	1478037577738	1478037577850	r	82
439450	4732201	Currently, we are focusing our resources on domestic sites.	Currently, we are focusing our resources on domestice sites. 	224678892	1478037577978	1478037578090	e	69
439450	4732201	Currently, we are focusing our resources on domestic sites.	Currently, we are focusing our resources on domestice sites. 	224678906	1478037578154	1478037578250	n	78
439450	4732201	Currently, we are focusing our resources on domestic sites.	Currently, we are focusing our resources on domestice sites. 	224678908	1478037578314	1478037578426	t	84
439450	4732201	Currently, we are focusing our resources on domestic sites.	Currently, we are focusing our resources on domestice sites. 	224678910	1478037578554	1478037578634	l	76
439450	4732201	Currently, we are focusing our resources on domestic sites.	Currently, we are focusing our resources on domestice sites. 	224678912	1478037578842	1478037578938	y	89
439450	4732201	Currently, we are focusing our resources on domestic sites.	Currently, we are focusing our resources on domestice sites. 	224678914	1478037579162	1478037579258	,	188
439450	4732201	Currently, we are focusing our resources on domestic sites.	Currently, we are focusing our resources on domestice sites. 	224678942	1478037579370	1478037579466	 	32
439450	4732201	Currently, we are focusing our resources on domestic sites.	Currently, we are focusing our resources on domestice sites. 	224678943	1478037579578	1478037579738	w	87
439450	4732201	Currently, we are focusing our resources on domestic sites.	Currently, we are focusing our resources on domestice sites. 	224678944	1478037579834	1478037580042	e	69
439450	4732201	Currently, we are focusing our resources on domestic sites.	Currently, we are focusing our resources on domestice sites. 	224678945	1478037580106	1478037580218	 	32
439450	4732201	Currently, we are focusing our resources on domestic sites.	Currently, we are focusing our resources on domestice sites. 	224678946	1478037580394	1478037580458	a	65
439450	4732201	Currently, we are focusing our resources on domestic sites.	Currently, we are focusing our resources on domestice sites. 	224678972	1478037580586	1478037580714	r	82
439450	4732201	Currently, we are focusing our resources on domestic sites.	Currently, we are focusing our resources on domestice sites. 	224678973	1478037581050	1478037581162	e	69
439450	4732201	Currently, we are focusing our resources on domestic sites.	Currently, we are focusing our resources on domestice sites. 	224678974	1478037581354	1478037581466	 	32
439450	4732201	Currently, we are focusing our resources on domestic sites.	Currently, we are focusing our resources on domestice sites. 	224678975	1478037581578	1478037581674	f	70
439450	4732201	Currently, we are focusing our resources on domestic sites.	Currently, we are focusing our resources on domestice sites. 	224678976	1478037581866	1478037582058	o	79
439450	4732201	Currently, we are focusing our resources on domestic sites.	Currently, we are focusing our resources on domestice sites. 	224679010	1478037582234	1478037582362	c	67
439450	4732201	Currently, we are focusing our resources on domestic sites.	Currently, we are focusing our resources on domestice sites. 	224679012	1478037582522	1478037582602	u	85
439450	4732201	Currently, we are focusing our resources on domestic sites.	Currently, we are focusing our resources on domestice sites. 	224679014	1478037582810	1478037582922	s	83
439450	4732201	Currently, we are focusing our resources on domestic sites.	Currently, we are focusing our resources on domestice sites. 	224679015	1478037582922	1478037583034	i	73
439450	4732201	Currently, we are focusing our resources on domestic sites.	Currently, we are focusing our resources on domestice sites. 	224679016	1478037583146	1478037583226	n	78
439450	4732201	Currently, we are focusing our resources on domestic sites.	Currently, we are focusing our resources on domestice sites. 	224679023	1478037583258	1478037583370	g	71
439450	4732201	Currently, we are focusing our resources on domestic sites.	Currently, we are focusing our resources on domestice sites. 	224679024	1478037583370	1478037583514	 	32
439450	4732201	Currently, we are focusing our resources on domestic sites.	Currently, we are focusing our resources on domestice sites. 	224679025	1478037583594	1478037583738	o	79
439450	4732201	Currently, we are focusing our resources on domestic sites.	Currently, we are focusing our resources on domestice sites. 	224679026	1478037583786	1478037583882	u	85
439450	4732201	Currently, we are focusing our resources on domestic sites.	Currently, we are focusing our resources on domestice sites. 	224679027	1478037584010	1478037584122	r	82
439450	4732201	Currently, we are focusing our resources on domestic sites.	Currently, we are focusing our resources on domestice sites. 	224679050	1478037584124	1478037584218	 	32
439450	4732201	Currently, we are focusing our resources on domestic sites.	Currently, we are focusing our resources on domestice sites. 	224679051	1478037584410	1478037584522	r	82
439450	4732201	Currently, we are focusing our resources on domestic sites.	Currently, we are focusing our resources on domestice sites. 	224679052	1478037584618	1478037584666	e	69
439450	4732201	Currently, we are focusing our resources on domestic sites.	Currently, we are focusing our resources on domestice sites. 	224679053	1478037584826	1478037584954	s	83
439450	4732201	Currently, we are focusing our resources on domestic sites.	Currently, we are focusing our resources on domestice sites. 	224679054	1478037585034	1478037585146	o	79
439450	4732201	Currently, we are focusing our resources on domestic sites.	Currently, we are focusing our resources on domestice sites. 	224679086	1478037585242	1478037585338	u	85
439450	4732201	Currently, we are focusing our resources on domestic sites.	Currently, we are focusing our resources on domestice sites. 	224679087	1478037585626	1478037585738	r	82
439450	4732201	Currently, we are focusing our resources on domestic sites.	Currently, we are focusing our resources on domestice sites. 	224679089	1478037585946	1478037586026	c	67
439450	4732201	Currently, we are focusing our resources on domestic sites.	Currently, we are focusing our resources on domestice sites. 	224679091	1478037586170	1478037586234	e	69
439450	4732201	Currently, we are focusing our resources on domestic sites.	Currently, we are focusing our resources on domestice sites. 	224679093	1478037586346	1478037586490	s	83
439450	4732201	Currently, we are focusing our resources on domestic sites.	Currently, we are focusing our resources on domestice sites. 	224679111	1478037586458	1478037586554	 	32
439450	4732201	Currently, we are focusing our resources on domestic sites.	Currently, we are focusing our resources on domestice sites. 	224679117	1478037586666	1478037586762	o	79
439450	4732201	Currently, we are focusing our resources on domestic sites.	Currently, we are focusing our resources on domestice sites. 	224679122	1478037586890	1478037586954	n	78
439450	4732201	Currently, we are focusing our resources on domestic sites.	Currently, we are focusing our resources on domestice sites. 	224679126	1478037587050	1478037587146	 	32
439450	4732201	Currently, we are focusing our resources on domestic sites.	Currently, we are focusing our resources on domestice sites. 	224679132	1478037587402	1478037587530	d	68
439450	4732201	Currently, we are focusing our resources on domestic sites.	Currently, we are focusing our resources on domestice sites. 	224679136	1478037587577	1478037587706	o	79
439450	4732201	Currently, we are focusing our resources on domestic sites.	Currently, we are focusing our resources on domestice sites. 	224679158	1478037587834	1478037587898	m	77
439450	4732201	Currently, we are focusing our resources on domestic sites.	Currently, we are focusing our resources on domestice sites. 	224679162	1478037587978	1478037588106	e	69
439450	4732201	Currently, we are focusing our resources on domestic sites.	Currently, we are focusing our resources on domestice sites. 	224679165	1478037588250	1478037588346	s	83
439450	4732201	Currently, we are focusing our resources on domestic sites.	Currently, we are focusing our resources on domestice sites. 	224679168	1478037588425	1478037588537	t	84
439450	4732201	Currently, we are focusing our resources on domestic sites.	Currently, we are focusing our resources on domestice sites. 	224679169	1478037588586	1478037588682	i	73
439450	4732201	Currently, we are focusing our resources on domestic sites.	Currently, we are focusing our resources on domestice sites. 	224679272	1478037588794	1478037588890	c	67
439450	4732201	Currently, we are focusing our resources on domestic sites.	Currently, we are focusing our resources on domestice sites. 	224679274	1478037589113	1478037589178	e	69
439450	4732201	Currently, we are focusing our resources on domestic sites.	Currently, we are focusing our resources on domestice sites. 	224679275	1478037591722	1478037591865	 	32
439450	4732201	Currently, we are focusing our resources on domestic sites.	Currently, we are focusing our resources on domestice sites. 	224679277	1478037592489	1478037592601	s	83
439450	4732201	Currently, we are focusing our resources on domestic sites.	Currently, we are focusing our resources on domestice sites. 	224679280	1478037592665	1478037592761	i	73
439450	4732201	Currently, we are focusing our resources on domestic sites.	Currently, we are focusing our resources on domestice sites. 	224679304	1478037592809	1478037592905	t	84
439450	4732201	Currently, we are focusing our resources on domestic sites.	Currently, we are focusing our resources on domestice sites. 	224679305	1478037593129	1478037593225	e	69
439450	4732201	Currently, we are focusing our resources on domestic sites.	Currently, we are focusing our resources on domestice sites. 	224679307	1478037593417	1478037593481	s	83
439450	4732201	Currently, we are focusing our resources on domestic sites.	Currently, we are focusing our resources on domestice sites. 	224679309	1478037593753	1478037593849	.	190
439450	4732201	Currently, we are focusing our resources on domestic sites.	Currently, we are focusing our resources on domestice sites. 	224679311	1478037594073	1478037594121	 	32
439450	4732216	As for your second question, bench Mike Anderson.	As for your second question, bench Mike Anderson. 	224679455	1478037598473	1478037598665	SHIFT	16
439450	4732216	As for your second question, bench Mike Anderson.	As for your second question, bench Mike Anderson. 	224679456	1478037598569	1478037598681	A	65
439450	4732216	As for your second question, bench Mike Anderson.	As for your second question, bench Mike Anderson. 	224679457	1478037598825	1478037598889	s	83
439450	4732216	As for your second question, bench Mike Anderson.	As for your second question, bench Mike Anderson. 	224679458	1478037598953	1478037599049	 	32
439450	4732216	As for your second question, bench Mike Anderson.	As for your second question, bench Mike Anderson. 	224679459	1478037599225	1478037599337	f	70
439450	4732216	As for your second question, bench Mike Anderson.	As for your second question, bench Mike Anderson. 	224679483	1478037599321	1478037599433	o	79
439450	4732216	As for your second question, bench Mike Anderson.	As for your second question, bench Mike Anderson. 	224679485	1478037599497	1478037599609	r	82
439450	4732216	As for your second question, bench Mike Anderson.	As for your second question, bench Mike Anderson. 	224679487	1478037599641	1478037599721	 	32
439450	4732216	As for your second question, bench Mike Anderson.	As for your second question, bench Mike Anderson. 	224679490	1478037599881	1478037599977	y	89
439450	4732216	As for your second question, bench Mike Anderson.	As for your second question, bench Mike Anderson. 	224679495	1478037600073	1478037600185	o	79
439450	4732216	As for your second question, bench Mike Anderson.	As for your second question, bench Mike Anderson. 	224679500	1478037600201	1478037600281	u	85
439450	4732216	As for your second question, bench Mike Anderson.	As for your second question, bench Mike Anderson. 	224679537	1478037600425	1478037600537	r	82
439450	4732216	As for your second question, bench Mike Anderson.	As for your second question, bench Mike Anderson. 	224679538	1478037600585	1478037600665	 	32
439450	4732216	As for your second question, bench Mike Anderson.	As for your second question, bench Mike Anderson. 	224679539	1478037601033	1478037601113	s	83
439450	4732216	As for your second question, bench Mike Anderson.	As for your second question, bench Mike Anderson. 	224679541	1478037601209	1478037601289	e	69
439450	4732216	As for your second question, bench Mike Anderson.	As for your second question, bench Mike Anderson. 	224679545	1478037601449	1478037601561	c	67
439450	4732216	As for your second question, bench Mike Anderson.	As for your second question, bench Mike Anderson. 	224679568	1478037601564	1478037601673	o	79
439450	4732216	As for your second question, bench Mike Anderson.	As for your second question, bench Mike Anderson. 	224679569	1478037601769	1478037601865	n	78
439450	4732216	As for your second question, bench Mike Anderson.	As for your second question, bench Mike Anderson. 	224679570	1478037601913	1478037602041	d	68
439450	4732216	As for your second question, bench Mike Anderson.	As for your second question, bench Mike Anderson. 	224679571	1478037602041	1478037602105	 	32
439450	4732216	As for your second question, bench Mike Anderson.	As for your second question, bench Mike Anderson. 	224679572	1478037602329	1478037602441	q	81
439450	4732216	As for your second question, bench Mike Anderson.	As for your second question, bench Mike Anderson. 	224679593	1478037602473	1478037602553	u	85
439450	4732216	As for your second question, bench Mike Anderson.	As for your second question, bench Mike Anderson. 	224679595	1478037602633	1478037602729	e	69
439450	4732216	As for your second question, bench Mike Anderson.	As for your second question, bench Mike Anderson. 	224679598	1478037602841	1478037602920	s	83
439450	4732216	As for your second question, bench Mike Anderson.	As for your second question, bench Mike Anderson. 	224679600	1478037603033	1478037603145	t	84
439450	4732216	As for your second question, bench Mike Anderson.	As for your second question, bench Mike Anderson. 	224679602	1478037603161	1478037603225	i	73
439450	4732216	As for your second question, bench Mike Anderson.	As for your second question, bench Mike Anderson. 	224679651	1478037603289	1478037603400	o	79
439450	4732216	As for your second question, bench Mike Anderson.	As for your second question, bench Mike Anderson. 	224679653	1478037603497	1478037603625	n	78
439450	4732216	As for your second question, bench Mike Anderson.	As for your second question, bench Mike Anderson. 	224679654	1478037603897	1478037603993	,	188
439450	4732216	As for your second question, bench Mike Anderson.	As for your second question, bench Mike Anderson. 	224679656	1478037604217	1478037604297	 	32
439450	4732216	As for your second question, bench Mike Anderson.	As for your second question, bench Mike Anderson. 	224679659	1478037604809	1478037604905	b	66
439450	4732216	As for your second question, bench Mike Anderson.	As for your second question, bench Mike Anderson. 	224679682	1478037605097	1478037605177	e	69
439450	4732216	As for your second question, bench Mike Anderson.	As for your second question, bench Mike Anderson. 	224679684	1478037605192	1478037605257	n	78
439450	4732216	As for your second question, bench Mike Anderson.	As for your second question, bench Mike Anderson. 	224679686	1478037605401	1478037605481	c	67
439450	4732216	As for your second question, bench Mike Anderson.	As for your second question, bench Mike Anderson. 	224679688	1478037605577	1478037605673	h	72
439450	4732216	As for your second question, bench Mike Anderson.	As for your second question, bench Mike Anderson. 	224679689	1478037605833	1478037605913	 	32
439450	4732216	As for your second question, bench Mike Anderson.	As for your second question, bench Mike Anderson. 	224679715	1478037606281	1478037606472	SHIFT	16
439450	4732216	As for your second question, bench Mike Anderson.	As for your second question, bench Mike Anderson. 	224679714	1478037606361	1478037606440	M	77
439450	4732216	As for your second question, bench Mike Anderson.	As for your second question, bench Mike Anderson. 	224679716	1478037606600	1478037606681	i	73
439450	4732216	As for your second question, bench Mike Anderson.	As for your second question, bench Mike Anderson. 	224679718	1478037606969	1478037607033	k	75
439450	4732216	As for your second question, bench Mike Anderson.	As for your second question, bench Mike Anderson. 	224679720	1478037607161	1478037607289	e	69
439450	4732216	As for your second question, bench Mike Anderson.	As for your second question, bench Mike Anderson. 	224679745	1478037607273	1478037607352	 	32
439450	4732216	As for your second question, bench Mike Anderson.	As for your second question, bench Mike Anderson. 	224679748	1478037607529	1478037607705	SHIFT	16
439450	4732216	As for your second question, bench Mike Anderson.	As for your second question, bench Mike Anderson. 	224679751	1478037607656	1478037607785	A	65
439450	4732216	As for your second question, bench Mike Anderson.	As for your second question, bench Mike Anderson. 	224679754	1478037607864	1478037607961	n	78
439450	4732216	As for your second question, bench Mike Anderson.	As for your second question, bench Mike Anderson. 	224679757	1478037608105	1478037608233	d	68
439450	4732216	As for your second question, bench Mike Anderson.	As for your second question, bench Mike Anderson. 	224679760	1478037608393	1478037608633	e	69
439450	4732216	As for your second question, bench Mike Anderson.	As for your second question, bench Mike Anderson. 	224679790	1478037608569	1478037608712	r	82
439450	4732216	As for your second question, bench Mike Anderson.	As for your second question, bench Mike Anderson. 	224679791	1478037608920	1478037609033	s	83
439450	4732216	As for your second question, bench Mike Anderson.	As for your second question, bench Mike Anderson. 	224679792	1478037609128	1478037609272	o	79
439450	4732216	As for your second question, bench Mike Anderson.	As for your second question, bench Mike Anderson. 	224679793	1478037609400	1478037609496	n	78
439450	4732216	As for your second question, bench Mike Anderson.	As for your second question, bench Mike Anderson. 	224679794	1478037609880	1478037610056	.	190
439450	4732216	As for your second question, bench Mike Anderson.	As for your second question, bench Mike Anderson. 	224679795	1478037610280	1478037610392	 	32
439450	4732226	Lusinchi is currently in Boston, MA, according to his attorney.	Lusinchi is currntly in Boston, Ma  according to his attorney. 	224679874	1478037612792	1478037613016	SHIFT	16
439450	4732226	Lusinchi is currently in Boston, MA, according to his attorney.	Lusinchi is currntly in Boston, Ma  according to his attorney. 	224679872	1478037612872	1478037612984	L	76
439450	4732226	Lusinchi is currently in Boston, MA, according to his attorney.	Lusinchi is currntly in Boston, Ma  according to his attorney. 	224679878	1478037613176	1478037613256	u	85
439450	4732226	Lusinchi is currently in Boston, MA, according to his attorney.	Lusinchi is currntly in Boston, Ma  according to his attorney. 	224679879	1478037613336	1478037613448	s	83
439450	4732226	Lusinchi is currently in Boston, MA, according to his attorney.	Lusinchi is currntly in Boston, Ma  according to his attorney. 	224679881	1478037613560	1478037613656	i	73
439450	4732226	Lusinchi is currently in Boston, MA, according to his attorney.	Lusinchi is currntly in Boston, Ma  according to his attorney. 	224679884	1478037613816	1478037613896	n	78
439450	4732226	Lusinchi is currently in Boston, MA, according to his attorney.	Lusinchi is currntly in Boston, Ma  according to his attorney. 	224679897	1478037614088	1478037614200	c	67
439450	4732226	Lusinchi is currently in Boston, MA, according to his attorney.	Lusinchi is currntly in Boston, Ma  according to his attorney. 	224679898	1478037614232	1478037614344	h	72
439450	4732226	Lusinchi is currently in Boston, MA, according to his attorney.	Lusinchi is currntly in Boston, Ma  according to his attorney. 	224679899	1478037614504	1478037614584	i	73
439450	4732226	Lusinchi is currently in Boston, MA, according to his attorney.	Lusinchi is currntly in Boston, Ma  according to his attorney. 	224679901	1478037614712	1478037614824	 	32
439450	4732226	Lusinchi is currently in Boston, MA, according to his attorney.	Lusinchi is currntly in Boston, Ma  according to his attorney. 	224679903	1478037614984	1478037615080	i	73
439450	4732226	Lusinchi is currently in Boston, MA, according to his attorney.	Lusinchi is currntly in Boston, Ma  according to his attorney. 	224679933	1478037615144	1478037615288	s	83
439450	4732226	Lusinchi is currently in Boston, MA, according to his attorney.	Lusinchi is currntly in Boston, Ma  according to his attorney. 	224679936	1478037615288	1478037615384	 	32
439450	4732226	Lusinchi is currently in Boston, MA, according to his attorney.	Lusinchi is currntly in Boston, Ma  according to his attorney. 	224679940	1478037615640	1478037615784	c	67
439450	4732226	Lusinchi is currently in Boston, MA, according to his attorney.	Lusinchi is currntly in Boston, Ma  according to his attorney. 	224679943	1478037615784	1478037615864	u	85
439450	4732226	Lusinchi is currently in Boston, MA, according to his attorney.	Lusinchi is currntly in Boston, Ma  according to his attorney. 	224679946	1478037616232	1478037616344	r	82
439450	4732226	Lusinchi is currently in Boston, MA, according to his attorney.	Lusinchi is currntly in Boston, Ma  according to his attorney. 	224679995	1478037616616	1478037616728	r	82
439450	4732226	Lusinchi is currently in Boston, MA, according to his attorney.	Lusinchi is currntly in Boston, Ma  according to his attorney. 	224679999	1478037617048	1478037617112	n	78
439450	4732226	Lusinchi is currently in Boston, MA, according to his attorney.	Lusinchi is currntly in Boston, Ma  according to his attorney. 	224680001	1478037617176	1478037617272	t	84
439450	4732226	Lusinchi is currently in Boston, MA, according to his attorney.	Lusinchi is currntly in Boston, Ma  according to his attorney. 	224680004	1478037617512	1478037617656	l	76
439450	4732226	Lusinchi is currently in Boston, MA, according to his attorney.	Lusinchi is currntly in Boston, Ma  according to his attorney. 	224680007	1478037617896	1478037617976	y	89
439450	4732226	Lusinchi is currently in Boston, MA, according to his attorney.	Lusinchi is currntly in Boston, Ma  according to his attorney. 	224680042	1478037618120	1478037618248	 	32
439450	4732226	Lusinchi is currently in Boston, MA, according to his attorney.	Lusinchi is currntly in Boston, Ma  according to his attorney. 	224680046	1478037618425	1478037618552	i	73
439450	4732226	Lusinchi is currently in Boston, MA, according to his attorney.	Lusinchi is currntly in Boston, Ma  according to his attorney. 	224680049	1478037618696	1478037618776	n	78
439450	4732226	Lusinchi is currently in Boston, MA, according to his attorney.	Lusinchi is currntly in Boston, Ma  according to his attorney. 	224680053	1478037618856	1478037618968	 	32
439450	4732226	Lusinchi is currently in Boston, MA, according to his attorney.	Lusinchi is currntly in Boston, Ma  according to his attorney. 	224680058	1478037619144	1478037619272	SHIFT	16
439450	4732226	Lusinchi is currently in Boston, MA, according to his attorney.	Lusinchi is currntly in Boston, Ma  according to his attorney. 	224680090	1478037619240	1478037619352	B	66
439450	4732226	Lusinchi is currently in Boston, MA, according to his attorney.	Lusinchi is currntly in Boston, Ma  according to his attorney. 	224680092	1478037619432	1478037619560	o	79
439450	4732226	Lusinchi is currently in Boston, MA, according to his attorney.	Lusinchi is currntly in Boston, Ma  according to his attorney. 	224680095	1478037619720	1478037619848	s	83
439450	4732226	Lusinchi is currently in Boston, MA, according to his attorney.	Lusinchi is currntly in Boston, Ma  according to his attorney. 	224680096	1478037619992	1478037620120	t	84
439450	4732226	Lusinchi is currently in Boston, MA, according to his attorney.	Lusinchi is currntly in Boston, Ma  according to his attorney. 	224680098	1478037620104	1478037620216	o	79
439450	4732226	Lusinchi is currently in Boston, MA, according to his attorney.	Lusinchi is currntly in Boston, Ma  according to his attorney. 	224680100	1478037620344	1478037620456	n	78
439450	4732226	Lusinchi is currently in Boston, MA, according to his attorney.	Lusinchi is currntly in Boston, Ma  according to his attorney. 	224680132	1478037620632	1478037620760	,	188
439450	4732226	Lusinchi is currently in Boston, MA, according to his attorney.	Lusinchi is currntly in Boston, Ma  according to his attorney. 	224680136	1478037620888	1478037620968	 	32
439450	4732226	Lusinchi is currently in Boston, MA, according to his attorney.	Lusinchi is currntly in Boston, Ma  according to his attorney. 	224680141	1478037621160	1478037621336	SHIFT	16
439450	4732226	Lusinchi is currently in Boston, MA, according to his attorney.	Lusinchi is currntly in Boston, Ma  according to his attorney. 	224680139	1478037621224	1478037621304	M	77
439450	4732226	Lusinchi is currently in Boston, MA, according to his attorney.	Lusinchi is currntly in Boston, Ma  according to his attorney. 	224680143	1478037621592	1478037621704	a	65
439450	4732226	Lusinchi is currently in Boston, MA, according to his attorney.	Lusinchi is currntly in Boston, Ma  according to his attorney. 	224680144	1478037621992	1478037622120	 	32
439450	4732226	Lusinchi is currently in Boston, MA, according to his attorney.	Lusinchi is currntly in Boston, Ma  according to his attorney. 	224680219	1478037623992	1478037624088	 	32
439450	4732226	Lusinchi is currently in Boston, MA, according to his attorney.	Lusinchi is currntly in Boston, Ma  according to his attorney. 	224680220	1478037624520	1478037624632	a	65
439450	4732226	Lusinchi is currently in Boston, MA, according to his attorney.	Lusinchi is currntly in Boston, Ma  according to his attorney. 	224680221	1478037624808	1478037624904	c	67
439450	4732226	Lusinchi is currently in Boston, MA, according to his attorney.	Lusinchi is currntly in Boston, Ma  according to his attorney. 	224680222	1478037625064	1478037625112	c	67
439450	4732226	Lusinchi is currently in Boston, MA, according to his attorney.	Lusinchi is currntly in Boston, Ma  according to his attorney. 	224680223	1478037625736	1478037625880	o	79
439450	4732226	Lusinchi is currently in Boston, MA, according to his attorney.	Lusinchi is currntly in Boston, Ma  according to his attorney. 	224680268	1478037625944	1478037626056	r	82
439450	4732226	Lusinchi is currently in Boston, MA, according to his attorney.	Lusinchi is currntly in Boston, Ma  according to his attorney. 	224680269	1478037626312	1478037626423	d	68
439450	4732226	Lusinchi is currently in Boston, MA, according to his attorney.	Lusinchi is currntly in Boston, Ma  according to his attorney. 	224680270	1478037626503	1478037626600	i	73
439450	4732226	Lusinchi is currently in Boston, MA, according to his attorney.	Lusinchi is currntly in Boston, Ma  according to his attorney. 	224680271	1478037626711	1478037626791	n	78
439450	4732226	Lusinchi is currently in Boston, MA, according to his attorney.	Lusinchi is currntly in Boston, Ma  according to his attorney. 	224680272	1478037626839	1478037626968	g	71
439450	4732226	Lusinchi is currently in Boston, MA, according to his attorney.	Lusinchi is currntly in Boston, Ma  according to his attorney. 	224680297	1478037626970	1478037627048	 	32
439450	4732226	Lusinchi is currently in Boston, MA, according to his attorney.	Lusinchi is currntly in Boston, Ma  according to his attorney. 	224680300	1478037627256	1478037627373	t	84
439450	4732226	Lusinchi is currently in Boston, MA, according to his attorney.	Lusinchi is currntly in Boston, Ma  according to his attorney. 	224680303	1478037627319	1478037627415	o	79
439450	4732226	Lusinchi is currently in Boston, MA, according to his attorney.	Lusinchi is currntly in Boston, Ma  according to his attorney. 	224680305	1478037627479	1478037627576	 	32
439450	4732226	Lusinchi is currently in Boston, MA, according to his attorney.	Lusinchi is currntly in Boston, Ma  according to his attorney. 	224680306	1478037627847	1478037627943	h	72
439450	4732226	Lusinchi is currently in Boston, MA, according to his attorney.	Lusinchi is currntly in Boston, Ma  according to his attorney. 	224680323	1478037628071	1478037628135	i	73
439450	4732226	Lusinchi is currently in Boston, MA, according to his attorney.	Lusinchi is currntly in Boston, Ma  according to his attorney. 	224680325	1478037628199	1478037628343	s	83
439450	4732226	Lusinchi is currently in Boston, MA, according to his attorney.	Lusinchi is currntly in Boston, Ma  according to his attorney. 	224680326	1478037628344	1478037628407	 	32
439450	4732226	Lusinchi is currently in Boston, MA, according to his attorney.	Lusinchi is currntly in Boston, Ma  according to his attorney. 	224680328	1478037628775	1478037628903	a	65
439450	4732226	Lusinchi is currently in Boston, MA, according to his attorney.	Lusinchi is currntly in Boston, Ma  according to his attorney. 	224680330	1478037629175	1478037629303	t	84
439450	4732226	Lusinchi is currently in Boston, MA, according to his attorney.	Lusinchi is currntly in Boston, Ma  according to his attorney. 	224680350	1478037629447	1478037629511	t	84
439450	4732226	Lusinchi is currently in Boston, MA, according to his attorney.	Lusinchi is currntly in Boston, Ma  according to his attorney. 	224680351	1478037629751	1478037629847	o	79
439450	4732226	Lusinchi is currently in Boston, MA, according to his attorney.	Lusinchi is currntly in Boston, Ma  according to his attorney. 	224680352	1478037629959	1478037630071	r	82
439450	4732226	Lusinchi is currently in Boston, MA, according to his attorney.	Lusinchi is currntly in Boston, Ma  according to his attorney. 	224680353	1478037630199	1478037630279	n	78
439450	4732226	Lusinchi is currently in Boston, MA, according to his attorney.	Lusinchi is currntly in Boston, Ma  according to his attorney. 	224680355	1478037630375	1478037630503	e	69
439450	4732226	Lusinchi is currently in Boston, MA, according to his attorney.	Lusinchi is currntly in Boston, Ma  according to his attorney. 	224680375	1478037630551	1478037630615	y	89
439450	4732226	Lusinchi is currently in Boston, MA, according to his attorney.	Lusinchi is currntly in Boston, Ma  according to his attorney. 	224680378	1478037630775	1478037630919	.	190
439450	4732226	Lusinchi is currently in Boston, MA, according to his attorney.	Lusinchi is currntly in Boston, Ma  according to his attorney. 	224680381	1478037631143	1478037631255	 	32
439450	4732240	If it needs to be paid, we will need to add the day to the deal.	If it needs to be paid, we will need to add the day to the deal.	224680439	1478037633335	1478037633591	SHIFT	16
439450	4732240	If it needs to be paid, we will need to add the day to the deal.	If it needs to be paid, we will need to add the day to the deal.	224680438	1478037633431	1478037633527	I	73
439450	4732240	If it needs to be paid, we will need to add the day to the deal.	If it needs to be paid, we will need to add the day to the deal.	224680440	1478037633623	1478037633751	f	70
439450	4732240	If it needs to be paid, we will need to add the day to the deal.	If it needs to be paid, we will need to add the day to the deal.	224680441	1478037633799	1478037633927	 	32
439450	4732240	If it needs to be paid, we will need to add the day to the deal.	If it needs to be paid, we will need to add the day to the deal.	224680442	1478037634007	1478037634103	i	73
439450	4732240	If it needs to be paid, we will need to add the day to the deal.	If it needs to be paid, we will need to add the day to the deal.	224680443	1478037634135	1478037634263	t	84
439450	4732240	If it needs to be paid, we will need to add the day to the deal.	If it needs to be paid, we will need to add the day to the deal.	224680458	1478037634266	1478037634375	 	32
439450	4732240	If it needs to be paid, we will need to add the day to the deal.	If it needs to be paid, we will need to add the day to the deal.	224680461	1478037634487	1478037634599	n	78
439450	4732240	If it needs to be paid, we will need to add the day to the deal.	If it needs to be paid, we will need to add the day to the deal.	224680462	1478037634615	1478037634759	e	69
439450	4732240	If it needs to be paid, we will need to add the day to the deal.	If it needs to be paid, we will need to add the day to the deal.	224680464	1478037634855	1478037634967	e	69
439450	4732240	If it needs to be paid, we will need to add the day to the deal.	If it needs to be paid, we will need to add the day to the deal.	224680466	1478037635111	1478037635207	d	68
439450	4732240	If it needs to be paid, we will need to add the day to the deal.	If it needs to be paid, we will need to add the day to the deal.	224680509	1478037635479	1478037635703	s	83
439450	4732240	If it needs to be paid, we will need to add the day to the deal.	If it needs to be paid, we will need to add the day to the deal.	224680512	1478037636663	1478037636823	 	32
439450	4732240	If it needs to be paid, we will need to add the day to the deal.	If it needs to be paid, we will need to add the day to the deal.	224680516	1478037636983	1478037637110	t	84
439450	4732240	If it needs to be paid, we will need to add the day to the deal.	If it needs to be paid, we will need to add the day to the deal.	224680518	1478037637079	1478037637190	o	79
439450	4732240	If it needs to be paid, we will need to add the day to the deal.	If it needs to be paid, we will need to add the day to the deal.	224680523	1478037637255	1478037637319	 	32
439450	4732240	If it needs to be paid, we will need to add the day to the deal.	If it needs to be paid, we will need to add the day to the deal.	224680554	1478037637431	1478037637511	b	66
439450	4732240	If it needs to be paid, we will need to add the day to the deal.	If it needs to be paid, we will need to add the day to the deal.	224680556	1478037637655	1478037637815	e	69
439450	4732240	If it needs to be paid, we will need to add the day to the deal.	If it needs to be paid, we will need to add the day to the deal.	224680558	1478037637783	1478037637879	 	32
439450	4732240	If it needs to be paid, we will need to add the day to the deal.	If it needs to be paid, we will need to add the day to the deal.	224680562	1478037637991	1478037638087	p	80
439450	4732240	If it needs to be paid, we will need to add the day to the deal.	If it needs to be paid, we will need to add the day to the deal.	224680565	1478037638103	1478037638247	a	65
439450	4732240	If it needs to be paid, we will need to add the day to the deal.	If it needs to be paid, we will need to add the day to the deal.	224680581	1478037638311	1478037638439	i	73
439450	4732240	If it needs to be paid, we will need to add the day to the deal.	If it needs to be paid, we will need to add the day to the deal.	224680584	1478037638454	1478037638599	d	68
439450	4732240	If it needs to be paid, we will need to add the day to the deal.	If it needs to be paid, we will need to add the day to the deal.	224680585	1478037638711	1478037638855	,	188
439450	4732240	If it needs to be paid, we will need to add the day to the deal.	If it needs to be paid, we will need to add the day to the deal.	224680587	1478037638983	1478037639047	 	32
439450	4732240	If it needs to be paid, we will need to add the day to the deal.	If it needs to be paid, we will need to add the day to the deal.	224680589	1478037639175	1478037639303	w	87
439450	4732240	If it needs to be paid, we will need to add the day to the deal.	If it needs to be paid, we will need to add the day to the deal.	224680601	1478037639431	1478037639591	e	69
439450	4732240	If it needs to be paid, we will need to add the day to the deal.	If it needs to be paid, we will need to add the day to the deal.	224680604	1478037639671	1478037639783	 	32
439450	4732240	If it needs to be paid, we will need to add the day to the deal.	If it needs to be paid, we will need to add the day to the deal.	224680609	1478037639959	1478037640087	w	87
439450	4732240	If it needs to be paid, we will need to add the day to the deal.	If it needs to be paid, we will need to add the day to the deal.	224680612	1478037640071	1478037640151	i	73
439450	4732240	If it needs to be paid, we will need to add the day to the deal.	If it needs to be paid, we will need to add the day to the deal.	224680616	1478037640295	1478037640359	l	76
439450	4732240	If it needs to be paid, we will need to add the day to the deal.	If it needs to be paid, we will need to add the day to the deal.	224680629	1478037640455	1478037640567	l	76
439450	4732240	If it needs to be paid, we will need to add the day to the deal.	If it needs to be paid, we will need to add the day to the deal.	224680630	1478037640695	1478037640823	 	32
439450	4732240	If it needs to be paid, we will need to add the day to the deal.	If it needs to be paid, we will need to add the day to the deal.	224680631	1478037641015	1478037641079	n	78
439450	4732240	If it needs to be paid, we will need to add the day to the deal.	If it needs to be paid, we will need to add the day to the deal.	224680632	1478037641175	1478037641287	e	69
439450	4732240	If it needs to be paid, we will need to add the day to the deal.	If it needs to be paid, we will need to add the day to the deal.	224680633	1478037641383	1478037641527	e	69
439450	4732240	If it needs to be paid, we will need to add the day to the deal.	If it needs to be paid, we will need to add the day to the deal.	224680668	1478037641719	1478037641831	d	68
439450	4732240	If it needs to be paid, we will need to add the day to the deal.	If it needs to be paid, we will need to add the day to the deal.	224680671	1478037641927	1478037642055	 	32
439450	4732240	If it needs to be paid, we will need to add the day to the deal.	If it needs to be paid, we will need to add the day to the deal.	224680673	1478037642135	1478037642263	t	84
439450	4732240	If it needs to be paid, we will need to add the day to the deal.	If it needs to be paid, we will need to add the day to the deal.	224680675	1478037642199	1478037642343	o	79
439450	4732240	If it needs to be paid, we will need to add the day to the deal.	If it needs to be paid, we will need to add the day to the deal.	224680677	1478037642343	1478037642439	 	32
439450	4732240	If it needs to be paid, we will need to add the day to the deal.	If it needs to be paid, we will need to add the day to the deal.	224680691	1478037642535	1478037642679	a	65
439450	4732240	If it needs to be paid, we will need to add the day to the deal.	If it needs to be paid, we will need to add the day to the deal.	224680693	1478037642775	1478037642887	d	68
439450	4732240	If it needs to be paid, we will need to add the day to the deal.	If it needs to be paid, we will need to add the day to the deal.	224680694	1478037642983	1478037643095	d	68
439450	4732240	If it needs to be paid, we will need to add the day to the deal.	If it needs to be paid, we will need to add the day to the deal.	224680696	1478037643223	1478037643351	 	32
439450	4732240	If it needs to be paid, we will need to add the day to the deal.	If it needs to be paid, we will need to add the day to the deal.	224680697	1478037643415	1478037643543	t	84
439450	4732240	If it needs to be paid, we will need to add the day to the deal.	If it needs to be paid, we will need to add the day to the deal.	224680726	1478037643495	1478037643575	h	72
439450	4732240	If it needs to be paid, we will need to add the day to the deal.	If it needs to be paid, we will need to add the day to the deal.	224680727	1478037643655	1478037643815	e	69
439450	4732240	If it needs to be paid, we will need to add the day to the deal.	If it needs to be paid, we will need to add the day to the deal.	224680728	1478037643751	1478037643862	 	32
439450	4732240	If it needs to be paid, we will need to add the day to the deal.	If it needs to be paid, we will need to add the day to the deal.	224680729	1478037644007	1478037644119	d	68
439450	4732240	If it needs to be paid, we will need to add the day to the deal.	If it needs to be paid, we will need to add the day to the deal.	224680730	1478037644230	1478037644375	a	65
439450	4732240	If it needs to be paid, we will need to add the day to the deal.	If it needs to be paid, we will need to add the day to the deal.	224680731	1478037644438	1478037644599	y	89
439450	4732240	If it needs to be paid, we will need to add the day to the deal.	If it needs to be paid, we will need to add the day to the deal.	224680753	1478037644727	1478037644807	 	32
439450	4732240	If it needs to be paid, we will need to add the day to the deal.	If it needs to be paid, we will need to add the day to the deal.	224680755	1478037644887	1478037645047	t	84
439450	4732240	If it needs to be paid, we will need to add the day to the deal.	If it needs to be paid, we will need to add the day to the deal.	224680760	1478037645062	1478037645190	o	79
439450	4732240	If it needs to be paid, we will need to add the day to the deal.	If it needs to be paid, we will need to add the day to the deal.	224680763	1478037645254	1478037645382	 	32
439450	4732240	If it needs to be paid, we will need to add the day to the deal.	If it needs to be paid, we will need to add the day to the deal.	224680767	1478037645927	1478037646038	t	84
439450	4732240	If it needs to be paid, we will need to add the day to the deal.	If it needs to be paid, we will need to add the day to the deal.	224680768	1478037646086	1478037646151	h	72
439450	4732240	If it needs to be paid, we will need to add the day to the deal.	If it needs to be paid, we will need to add the day to the deal.	224680769	1478037646214	1478037646342	e	69
439450	4732240	If it needs to be paid, we will need to add the day to the deal.	If it needs to be paid, we will need to add the day to the deal.	224680770	1478037646327	1478037646406	 	32
439450	4732240	If it needs to be paid, we will need to add the day to the deal.	If it needs to be paid, we will need to add the day to the deal.	224680771	1478037646502	1478037646598	d	68
439450	4732240	If it needs to be paid, we will need to add the day to the deal.	If it needs to be paid, we will need to add the day to the deal.	224680772	1478037646726	1478037646823	e	69
439450	4732240	If it needs to be paid, we will need to add the day to the deal.	If it needs to be paid, we will need to add the day to the deal.	224680806	1478037646967	1478037647078	a	65
439450	4732240	If it needs to be paid, we will need to add the day to the deal.	If it needs to be paid, we will need to add the day to the deal.	224680808	1478037647126	1478037647254	l	76
439450	4732240	If it needs to be paid, we will need to add the day to the deal.	If it needs to be paid, we will need to add the day to the deal.	224680809	1478037647527	1478037647670	.	190
439450	4732247	Liverpool failed again in when they were beaten at Wembley.	Liverpool failed again in when they were beaten at Wembley. 	224680877	1478037650102	1478037650342	SHIFT	16
439450	4732247	Liverpool failed again in when they were beaten at Wembley.	Liverpool failed again in when they were beaten at Wembley. 	224680875	1478037650182	1478037650310	L	76
439450	4732247	Liverpool failed again in when they were beaten at Wembley.	Liverpool failed again in when they were beaten at Wembley. 	224680879	1478037650422	1478037650534	i	73
439450	4732247	Liverpool failed again in when they were beaten at Wembley.	Liverpool failed again in when they were beaten at Wembley. 	224680881	1478037650630	1478037650742	v	86
439450	4732247	Liverpool failed again in when they were beaten at Wembley.	Liverpool failed again in when they were beaten at Wembley. 	224680883	1478037650918	1478037651094	e	69
439450	4732247	Liverpool failed again in when they were beaten at Wembley.	Liverpool failed again in when they were beaten at Wembley. 	224680901	1478037651030	1478037651158	r	82
439450	4732247	Liverpool failed again in when they were beaten at Wembley.	Liverpool failed again in when they were beaten at Wembley. 	224680905	1478037651318	1478037651414	p	80
439450	4732247	Liverpool failed again in when they were beaten at Wembley.	Liverpool failed again in when they were beaten at Wembley. 	224680910	1478037651574	1478037651654	o	79
439450	4732247	Liverpool failed again in when they were beaten at Wembley.	Liverpool failed again in when they were beaten at Wembley. 	224680914	1478037651750	1478037651830	o	79
439450	4732247	Liverpool failed again in when they were beaten at Wembley.	Liverpool failed again in when they were beaten at Wembley. 	224680920	1478037652054	1478037652182	l	76
439450	4732247	Liverpool failed again in when they were beaten at Wembley.	Liverpool failed again in when they were beaten at Wembley. 	224680925	1478037652262	1478037652390	 	32
439450	4732247	Liverpool failed again in when they were beaten at Wembley.	Liverpool failed again in when they were beaten at Wembley. 	224680958	1478037652486	1478037652598	f	70
439450	4732247	Liverpool failed again in when they were beaten at Wembley.	Liverpool failed again in when they were beaten at Wembley. 	224680959	1478037652726	1478037652886	a	65
439450	4732247	Liverpool failed again in when they were beaten at Wembley.	Liverpool failed again in when they were beaten at Wembley. 	224680961	1478037652894	1478037652966	i	73
439450	4732247	Liverpool failed again in when they were beaten at Wembley.	Liverpool failed again in when they were beaten at Wembley. 	224680963	1478037653110	1478037653206	l	76
439450	4732247	Liverpool failed again in when they were beaten at Wembley.	Liverpool failed again in when they were beaten at Wembley. 	224680965	1478037653270	1478037653398	e	69
439450	4732247	Liverpool failed again in when they were beaten at Wembley.	Liverpool failed again in when they were beaten at Wembley. 	224681003	1478037653766	1478037653894	d	68
439450	4732247	Liverpool failed again in when they were beaten at Wembley.	Liverpool failed again in when they were beaten at Wembley. 	224681004	1478037653974	1478037654086	 	32
439450	4732247	Liverpool failed again in when they were beaten at Wembley.	Liverpool failed again in when they were beaten at Wembley. 	224681005	1478037654214	1478037654326	a	65
439450	4732247	Liverpool failed again in when they were beaten at Wembley.	Liverpool failed again in when they were beaten at Wembley. 	224681006	1478037654502	1478037654646	g	71
439450	4732247	Liverpool failed again in when they were beaten at Wembley.	Liverpool failed again in when they were beaten at Wembley. 	224681007	1478037654886	1478037655046	a	65
439450	4732247	Liverpool failed again in when they were beaten at Wembley.	Liverpool failed again in when they were beaten at Wembley. 	224681055	1478037655286	1478037655382	i	73
439450	4732247	Liverpool failed again in when they were beaten at Wembley.	Liverpool failed again in when they were beaten at Wembley. 	224681056	1478037655638	1478037655734	n	78
439450	4732247	Liverpool failed again in when they were beaten at Wembley.	Liverpool failed again in when they were beaten at Wembley. 	224681057	1478037655942	1478037656102	 	32
439450	4732247	Liverpool failed again in when they were beaten at Wembley.	Liverpool failed again in when they were beaten at Wembley. 	224681058	1478037656358	1478037656438	i	73
439450	4732247	Liverpool failed again in when they were beaten at Wembley.	Liverpool failed again in when they were beaten at Wembley. 	224681060	1478037656614	1478037656710	n	78
439450	4732247	Liverpool failed again in when they were beaten at Wembley.	Liverpool failed again in when they were beaten at Wembley. 	224681098	1478037656838	1478037656950	 	32
439450	4732247	Liverpool failed again in when they were beaten at Wembley.	Liverpool failed again in when they were beaten at Wembley. 	224681100	1478037657062	1478037657222	w	87
439450	4732247	Liverpool failed again in when they were beaten at Wembley.	Liverpool failed again in when they were beaten at Wembley. 	224681104	1478037657254	1478037657334	h	72
439450	4732247	Liverpool failed again in when they were beaten at Wembley.	Liverpool failed again in when they were beaten at Wembley. 	224681110	1478037657414	1478037657574	e	69
439450	4732247	Liverpool failed again in when they were beaten at Wembley.	Liverpool failed again in when they were beaten at Wembley. 	224681116	1478037657574	1478037657670	n	78
439450	4732247	Liverpool failed again in when they were beaten at Wembley.	Liverpool failed again in when they were beaten at Wembley. 	224681147	1478037657798	1478037657926	 	32
439450	4732247	Liverpool failed again in when they were beaten at Wembley.	Liverpool failed again in when they were beaten at Wembley. 	224681150	1478037657990	1478037658102	t	84
439450	4732247	Liverpool failed again in when they were beaten at Wembley.	Liverpool failed again in when they were beaten at Wembley. 	224681154	1478037658102	1478037658230	h	72
439450	4732247	Liverpool failed again in when they were beaten at Wembley.	Liverpool failed again in when they were beaten at Wembley. 	224681156	1478037658294	1478037658486	e	69
439450	4732247	Liverpool failed again in when they were beaten at Wembley.	Liverpool failed again in when they were beaten at Wembley. 	224681196	1478037658438	1478037658534	y	89
439450	4732247	Liverpool failed again in when they were beaten at Wembley.	Liverpool failed again in when they were beaten at Wembley. 	224681199	1478037658678	1478037658790	 	32
439450	4732247	Liverpool failed again in when they were beaten at Wembley.	Liverpool failed again in when they were beaten at Wembley. 	224681201	1478037658982	1478037659206	w	87
439450	4732247	Liverpool failed again in when they were beaten at Wembley.	Liverpool failed again in when they were beaten at Wembley. 	224681203	1478037659238	1478037659494	e	69
439450	4732247	Liverpool failed again in when they were beaten at Wembley.	Liverpool failed again in when they were beaten at Wembley. 	224681205	1478037659382	1478037659686	r	82
439450	4732247	Liverpool failed again in when they were beaten at Wembley.	Liverpool failed again in when they were beaten at Wembley. 	224681207	1478037659702	1478037659894	e	69
439450	4732247	Liverpool failed again in when they were beaten at Wembley.	Liverpool failed again in when they were beaten at Wembley. 	224681251	1478037660038	1478037660230	 	32
439450	4732247	Liverpool failed again in when they were beaten at Wembley.	Liverpool failed again in when they were beaten at Wembley. 	224681252	1478037660470	1478037660582	b	66
439450	4732247	Liverpool failed again in when they were beaten at Wembley.	Liverpool failed again in when they were beaten at Wembley. 	224681253	1478037660774	1478037660870	e	69
439450	4732247	Liverpool failed again in when they were beaten at Wembley.	Liverpool failed again in when they were beaten at Wembley. 	224681256	1478037661014	1478037661142	a	65
439450	4732247	Liverpool failed again in when they were beaten at Wembley.	Liverpool failed again in when they were beaten at Wembley. 	224681259	1478037661222	1478037661334	t	84
439450	4732247	Liverpool failed again in when they were beaten at Wembley.	Liverpool failed again in when they were beaten at Wembley. 	224681293	1478037661494	1478037661606	e	69
439450	4732247	Liverpool failed again in when they were beaten at Wembley.	Liverpool failed again in when they were beaten at Wembley. 	224681295	1478037661702	1478037661798	n	78
439450	4732247	Liverpool failed again in when they were beaten at Wembley.	Liverpool failed again in when they were beaten at Wembley. 	224681300	1478037661910	1478037662038	 	32
439450	4732247	Liverpool failed again in when they were beaten at Wembley.	Liverpool failed again in when they were beaten at Wembley. 	224681304	1478037662117	1478037662277	a	65
439450	4732247	Liverpool failed again in when they were beaten at Wembley.	Liverpool failed again in when they were beaten at Wembley. 	224681307	1478037662358	1478037662470	t	84
439450	4732247	Liverpool failed again in when they were beaten at Wembley.	Liverpool failed again in when they were beaten at Wembley. 	224681364	1478037662501	1478037662629	 	32
439450	4732247	Liverpool failed again in when they were beaten at Wembley.	Liverpool failed again in when they were beaten at Wembley. 	224681368	1478037663430	1478037663622	SHIFT	16
439450	4732247	Liverpool failed again in when they were beaten at Wembley.	Liverpool failed again in when they were beaten at Wembley. 	224681373	1478037663525	1478037663669	W	87
439450	4732247	Liverpool failed again in when they were beaten at Wembley.	Liverpool failed again in when they were beaten at Wembley. 	224681377	1478037663797	1478037663941	e	69
439450	4732247	Liverpool failed again in when they were beaten at Wembley.	Liverpool failed again in when they were beaten at Wembley. 	224681380	1478037664101	1478037664229	m	77
439450	4732247	Liverpool failed again in when they were beaten at Wembley.	Liverpool failed again in when they were beaten at Wembley. 	224681382	1478037664421	1478037664517	b	66
439450	4732247	Liverpool failed again in when they were beaten at Wembley.	Liverpool failed again in when they were beaten at Wembley. 	224681417	1478037664629	1478037664741	l	76
439450	4732247	Liverpool failed again in when they were beaten at Wembley.	Liverpool failed again in when they were beaten at Wembley. 	224681419	1478037664789	1478037664934	e	69
439450	4732247	Liverpool failed again in when they were beaten at Wembley.	Liverpool failed again in when they were beaten at Wembley. 	224681423	1478037665094	1478037665205	y	89
439450	4732247	Liverpool failed again in when they were beaten at Wembley.	Liverpool failed again in when they were beaten at Wembley. 	224681426	1478037665526	1478037665669	.	190
439450	4732247	Liverpool failed again in when they were beaten at Wembley.	Liverpool failed again in when they were beaten at Wembley. 	224681430	1478037665909	1478037666037	 	32
439450	4732261	Megan, I'm not sure why this is showing up.	Megan, I'm not sure why this is howing up. 	224681569	1478037668725	1478037669285	SHIFT	16
439450	4732261	Megan, I'm not sure why this is showing up.	Megan, I'm not sure why this is howing up. 	224681571	1478037669189	1478037669301	M	77
439450	4732261	Megan, I'm not sure why this is showing up.	Megan, I'm not sure why this is howing up. 	224681573	1478037669461	1478037669621	e	69
439450	4732261	Megan, I'm not sure why this is showing up.	Megan, I'm not sure why this is howing up. 	224681575	1478037669813	1478037669925	g	71
439450	4732261	Megan, I'm not sure why this is showing up.	Megan, I'm not sure why this is howing up. 	224681579	1478037670037	1478037670181	a	65
439450	4732261	Megan, I'm not sure why this is showing up.	Megan, I'm not sure why this is howing up. 	224681583	1478037670597	1478037670709	n	78
439450	4732261	Megan, I'm not sure why this is showing up.	Megan, I'm not sure why this is howing up. 	224681653	1478037671125	1478037671253	,	188
439450	4732261	Megan, I'm not sure why this is showing up.	Megan, I'm not sure why this is howing up. 	224681656	1478037671413	1478037671573	 	32
439450	4732261	Megan, I'm not sure why this is showing up.	Megan, I'm not sure why this is howing up. 	224681664	1478037671717	1478037671957	SHIFT	16
439450	4732261	Megan, I'm not sure why this is showing up.	Megan, I'm not sure why this is howing up. 	224681660	1478037671797	1478037671925	I	73
439450	4732261	Megan, I'm not sure why this is showing up.	Megan, I'm not sure why this is howing up. 	224681669	1478037672645	1478037672789	'	222
439450	4732261	Megan, I'm not sure why this is showing up.	Megan, I'm not sure why this is howing up. 	224681671	1478037673237	1478037673317	m	77
439450	4732261	Megan, I'm not sure why this is showing up.	Megan, I'm not sure why this is howing up. 	224681719	1478037673589	1478037673701	 	32
439450	4732261	Megan, I'm not sure why this is showing up.	Megan, I'm not sure why this is howing up. 	224681722	1478037674021	1478037674133	n	78
439450	4732261	Megan, I'm not sure why this is showing up.	Megan, I'm not sure why this is howing up. 	224681723	1478037674261	1478037674357	o	79
439450	4732261	Megan, I'm not sure why this is showing up.	Megan, I'm not sure why this is howing up. 	224681724	1478037674405	1478037674549	t	84
439450	4732261	Megan, I'm not sure why this is showing up.	Megan, I'm not sure why this is howing up. 	224681725	1478037674549	1478037674630	 	32
439450	4732261	Megan, I'm not sure why this is showing up.	Megan, I'm not sure why this is howing up. 	224681737	1478037674741	1478037674901	s	83
439450	4732261	Megan, I'm not sure why this is showing up.	Megan, I'm not sure why this is howing up. 	224681739	1478037674853	1478037674949	u	85
439450	4732261	Megan, I'm not sure why this is showing up.	Megan, I'm not sure why this is howing up. 	224681742	1478037675045	1478037675189	r	82
439450	4732261	Megan, I'm not sure why this is showing up.	Megan, I'm not sure why this is howing up. 	224681745	1478037675237	1478037675349	e	69
439450	4732261	Megan, I'm not sure why this is showing up.	Megan, I'm not sure why this is howing up. 	224681782	1478037675333	1478037675461	 	32
439450	4732261	Megan, I'm not sure why this is showing up.	Megan, I'm not sure why this is howing up. 	224681783	1478037675621	1478037675765	w	87
439450	4732261	Megan, I'm not sure why this is showing up.	Megan, I'm not sure why this is howing up. 	224681784	1478037675787	1478037675845	h	72
439450	4732261	Megan, I'm not sure why this is showing up.	Megan, I'm not sure why this is howing up. 	224681785	1478037676037	1478037676133	y	89
439450	4732261	Megan, I'm not sure why this is showing up.	Megan, I'm not sure why this is howing up. 	224681787	1478037676277	1478037676373	 	32
439450	4732261	Megan, I'm not sure why this is showing up.	Megan, I'm not sure why this is howing up. 	224681789	1478037676581	1478037676773	t	84
439450	4732261	Megan, I'm not sure why this is showing up.	Megan, I'm not sure why this is howing up. 	224681815	1478037676775	1478037676997	h	72
439450	4732261	Megan, I'm not sure why this is showing up.	Megan, I'm not sure why this is howing up. 	224681818	1478037677253	1478037677333	i	73
439450	4732261	Megan, I'm not sure why this is showing up.	Megan, I'm not sure why this is howing up. 	224681823	1478037677461	1478037677621	s	83
439450	4732261	Megan, I'm not sure why this is showing up.	Megan, I'm not sure why this is howing up. 	224681827	1478037677621	1478037677733	 	32
439450	4732261	Megan, I'm not sure why this is showing up.	Megan, I'm not sure why this is howing up. 	224681829	1478037677797	1478037677893	i	73
439450	4732261	Megan, I'm not sure why this is showing up.	Megan, I'm not sure why this is howing up. 	224681864	1478037677925	1478037678085	s	83
439450	4732261	Megan, I'm not sure why this is showing up.	Megan, I'm not sure why this is howing up. 	224681866	1478037678101	1478037678181	 	32
439450	4732261	Megan, I'm not sure why this is showing up.	Megan, I'm not sure why this is howing up. 	224681867	1478037678373	1478037678421	h	72
439450	4732261	Megan, I'm not sure why this is showing up.	Megan, I'm not sure why this is howing up. 	224681869	1478037678565	1478037678709	o	79
439450	4732261	Megan, I'm not sure why this is showing up.	Megan, I'm not sure why this is howing up. 	224681870	1478037679141	1478037679285	w	87
439450	4732261	Megan, I'm not sure why this is showing up.	Megan, I'm not sure why this is howing up. 	224681894	1478037679381	1478037679493	i	73
439450	4732261	Megan, I'm not sure why this is showing up.	Megan, I'm not sure why this is howing up. 	224681896	1478037679604	1478037679701	n	78
439450	4732261	Megan, I'm not sure why this is showing up.	Megan, I'm not sure why this is howing up. 	224681899	1478037679764	1478037679893	g	71
439450	4732261	Megan, I'm not sure why this is showing up.	Megan, I'm not sure why this is howing up. 	224681900	1478037679877	1478037679972	 	32
439450	4732261	Megan, I'm not sure why this is showing up.	Megan, I'm not sure why this is howing up. 	224681904	1478037680053	1478037680165	u	85
439450	4732261	Megan, I'm not sure why this is showing up.	Megan, I'm not sure why this is howing up. 	224681925	1478037680293	1478037680389	p	80
439450	4732261	Megan, I'm not sure why this is showing up.	Megan, I'm not sure why this is howing up. 	224681930	1478037680564	1478037680725	.	190
439450	4732261	Megan, I'm not sure why this is showing up.	Megan, I'm not sure why this is howing up. 	224681935	1478037680853	1478037680949	 	32
439450	4732270	I will fax the invoice to you today.	I will fax the inoice to you today.	224682042	1478037683204	1478037683444	SHIFT	16
439450	4732270	I will fax the invoice to you today.	I will fax the inoice to you today.	224682040	1478037683252	1478037683364	I	73
439450	4732270	I will fax the invoice to you today.	I will fax the inoice to you today.	224682044	1478037683525	1478037683669	 	32
439450	4732270	I will fax the invoice to you today.	I will fax the inoice to you today.	224682047	1478037683749	1478037683893	w	87
439450	4732270	I will fax the invoice to you today.	I will fax the inoice to you today.	224682050	1478037683861	1478037683924	i	73
439450	4732270	I will fax the invoice to you today.	I will fax the inoice to you today.	224682052	1478037684084	1478037684132	l	76
439450	4732270	I will fax the invoice to you today.	I will fax the inoice to you today.	224682105	1478037684212	1478037684340	l	76
439450	4732270	I will fax the invoice to you today.	I will fax the inoice to you today.	224682106	1478037684628	1478037684693	f	70
439450	4732270	I will fax the invoice to you today.	I will fax the inoice to you today.	224682108	1478037685364	1478037685444	BKSP	8
439450	4732270	I will fax the invoice to you today.	I will fax the inoice to you today.	224682110	1478037685604	1478037685700	 	32
439450	4732270	I will fax the invoice to you today.	I will fax the inoice to you today.	224682113	1478037685860	1478037685972	f	70
439450	4732270	I will fax the invoice to you today.	I will fax the inoice to you today.	224682117	1478037686116	1478037686212	a	65
439450	4732270	I will fax the invoice to you today.	I will fax the inoice to you today.	224682149	1478037686388	1478037686532	x	88
439450	4732270	I will fax the invoice to you today.	I will fax the inoice to you today.	224682151	1478037686500	1478037686596	 	32
439450	4732270	I will fax the invoice to you today.	I will fax the inoice to you today.	224682154	1478037686772	1478037686884	t	84
439450	4732270	I will fax the invoice to you today.	I will fax the inoice to you today.	224682156	1478037686852	1478037686932	h	72
439450	4732270	I will fax the invoice to you today.	I will fax the inoice to you today.	224682158	1478037687012	1478037687156	e	69
439450	4732270	I will fax the invoice to you today.	I will fax the inoice to you today.	224682174	1478037687092	1478037687188	 	32
439450	4732270	I will fax the invoice to you today.	I will fax the inoice to you today.	224682176	1478037687284	1478037687364	i	73
439450	4732270	I will fax the invoice to you today.	I will fax the inoice to you today.	224682178	1478037687460	1478037687540	n	78
439450	4732270	I will fax the invoice to you today.	I will fax the inoice to you today.	224682180	1478037687748	1478037687876	o	79
439450	4732270	I will fax the invoice to you today.	I will fax the inoice to you today.	224682182	1478037687940	1478037688020	i	73
439450	4732270	I will fax the invoice to you today.	I will fax the inoice to you today.	224682186	1478037688068	1478037688148	c	67
439450	4732270	I will fax the invoice to you today.	I will fax the inoice to you today.	224682203	1478037688292	1478037688436	e	69
439450	4732270	I will fax the invoice to you today.	I will fax the inoice to you today.	224682205	1478037688372	1478037688468	 	32
439450	4732270	I will fax the invoice to you today.	I will fax the inoice to you today.	224682207	1478037688548	1478037688692	t	84
439450	4732270	I will fax the invoice to you today.	I will fax the inoice to you today.	224682208	1478037688612	1478037688724	o	79
439450	4732270	I will fax the invoice to you today.	I will fax the inoice to you today.	224682209	1478037688756	1478037688836	 	32
439450	4732270	I will fax the invoice to you today.	I will fax the inoice to you today.	224682240	1478037688932	1478037689012	y	89
439450	4732270	I will fax the invoice to you today.	I will fax the inoice to you today.	224682246	1478037689092	1478037689204	o	79
439450	4732270	I will fax the invoice to you today.	I will fax the inoice to you today.	224682253	1478037689284	1478037689348	u	85
439450	4732270	I will fax the invoice to you today.	I will fax the inoice to you today.	224682258	1478037689428	1478037689668	 	32
439450	4732270	I will fax the invoice to you today.	I will fax the inoice to you today.	224682263	1478037689988	1478037690116	t	84
439450	4732270	I will fax the invoice to you today.	I will fax the inoice to you today.	224682297	1478037690100	1478037690276	o	79
439450	4732270	I will fax the invoice to you today.	I will fax the inoice to you today.	224682298	1478037690292	1478037690436	d	68
439450	4732270	I will fax the invoice to you today.	I will fax the inoice to you today.	224682299	1478037690564	1478037690692	a	65
439450	4732270	I will fax the invoice to you today.	I will fax the inoice to you today.	224682300	1478037690772	1478037690884	y	89
439450	4732270	I will fax the invoice to you today.	I will fax the inoice to you today.	224682302	1478037691060	1478037691284	.	190
439450	4732279	There are several business issues outstanding.	There a re everal Business issues outstanding. 	224682405	1478037693812	1478037693988	SHIFT	16
439450	4732279	There are several business issues outstanding.	There a re everal Business issues outstanding. 	224682409	1478037693924	1478037694100	T	84
439450	4732279	There are several business issues outstanding.	There a re everal Business issues outstanding. 	224682413	1478037694196	1478037694324	h	72
439450	4732279	There are several business issues outstanding.	There a re everal Business issues outstanding. 	224682417	1478037694388	1478037694564	e	69
439450	4732279	There are several business issues outstanding.	There a re everal Business issues outstanding. 	224682421	1478037694468	1478037694693	r	82
439450	4732279	There are several business issues outstanding.	There a re everal Business issues outstanding. 	224682461	1478037694676	1478037694836	e	69
439450	4732279	There are several business issues outstanding.	There a re everal Business issues outstanding. 	224682464	1478037694836	1478037694980	 	32
439450	4732279	There are several business issues outstanding.	There a re everal Business issues outstanding. 	224682467	1478037695108	1478037695284	a	65
439450	4732279	There are several business issues outstanding.	There a re everal Business issues outstanding. 	224682470	1478037695300	1478037695460	 	32
439450	4732279	There are several business issues outstanding.	There a re everal Business issues outstanding. 	224682473	1478037695652	1478037695828	r	82
439450	4732279	There are several business issues outstanding.	There a re everal Business issues outstanding. 	224682476	1478037695828	1478037695956	e	69
439450	4732279	There are several business issues outstanding.	There a re everal Business issues outstanding. 	224682596	1478037696036	1478037696148	 	32
439450	4732279	There are several business issues outstanding.	There a re everal Business issues outstanding. 	224682598	1478037698116	1478037698228	e	69
439450	4732279	There are several business issues outstanding.	There a re everal Business issues outstanding. 	224682603	1478037698404	1478037698500	v	86
439450	4732279	There are several business issues outstanding.	There a re everal Business issues outstanding. 	224682607	1478037698676	1478037698820	e	69
439450	4732279	There are several business issues outstanding.	There a re everal Business issues outstanding. 	224682609	1478037699124	1478037699251	r	82
439450	4732279	There are several business issues outstanding.	There a re everal Business issues outstanding. 	224682648	1478037699395	1478037699523	a	65
439450	4732279	There are several business issues outstanding.	There a re everal Business issues outstanding. 	224682651	1478037699524	1478037699667	l	76
439450	4732279	There are several business issues outstanding.	There a re everal Business issues outstanding. 	224682656	1478037699786	1478037699875	 	32
439450	4732279	There are several business issues outstanding.	There a re everal Business issues outstanding. 	224682659	1478037700099	1478037700243	SHIFT	16
439450	4732279	There are several business issues outstanding.	There a re everal Business issues outstanding. 	224682662	1478037700195	1478037700324	B	66
439450	4732279	There are several business issues outstanding.	There a re everal Business issues outstanding. 	224682664	1478037700452	1478037700548	u	85
439450	4732279	There are several business issues outstanding.	There a re everal Business issues outstanding. 	224682699	1478037700645	1478037700788	s	83
439450	4732279	There are several business issues outstanding.	There a re everal Business issues outstanding. 	224682700	1478037700803	1478037700884	i	73
439450	4732279	There are several business issues outstanding.	There a re everal Business issues outstanding. 	224682702	1478037701012	1478037701092	n	78
439450	4732279	There are several business issues outstanding.	There a re everal Business issues outstanding. 	224682704	1478037701412	1478037701492	e	69
439450	4732279	There are several business issues outstanding.	There a re everal Business issues outstanding. 	224682707	1478037701699	1478037701780	s	83
439450	4732279	There are several business issues outstanding.	There a re everal Business issues outstanding. 	224682741	1478037701892	1478037701988	s	83
439450	4732279	There are several business issues outstanding.	There a re everal Business issues outstanding. 	224682742	1478037702019	1478037702116	 	32
439450	4732279	There are several business issues outstanding.	There a re everal Business issues outstanding. 	224682744	1478037702660	1478037702803	i	73
439450	4732279	There are several business issues outstanding.	There a re everal Business issues outstanding. 	224682745	1478037702851	1478037702979	s	83
439450	4732279	There are several business issues outstanding.	There a re everal Business issues outstanding. 	224682746	1478037703027	1478037703155	s	83
439450	4732279	There are several business issues outstanding.	There a re everal Business issues outstanding. 	224682792	1478037703524	1478037703603	u	85
439450	4732279	There are several business issues outstanding.	There a re everal Business issues outstanding. 	224682796	1478037704195	1478037704291	e	69
439450	4732279	There are several business issues outstanding.	There a re everal Business issues outstanding. 	224682800	1478037704435	1478037704580	s	83
439450	4732279	There are several business issues outstanding.	There a re everal Business issues outstanding. 	224682804	1478037704580	1478037704739	 	32
439450	4732279	There are several business issues outstanding.	There a re everal Business issues outstanding. 	224682806	1478037704851	1478037704947	o	79
439450	4732279	There are several business issues outstanding.	There a re everal Business issues outstanding. 	224682830	1478037705075	1478037705156	u	85
439450	4732279	There are several business issues outstanding.	There a re everal Business issues outstanding. 	224682833	1478037705267	1478037705395	t	84
439450	4732279	There are several business issues outstanding.	There a re everal Business issues outstanding. 	224682835	1478037705571	1478037705699	s	83
439450	4732279	There are several business issues outstanding.	There a re everal Business issues outstanding. 	224682839	1478037705811	1478037705907	t	84
439450	4732279	There are several business issues outstanding.	There a re everal Business issues outstanding. 	224682842	1478037706019	1478037706131	a	65
439450	4732279	There are several business issues outstanding.	There a re everal Business issues outstanding. 	224682906	1478037706227	1478037706323	n	78
439450	4732279	There are several business issues outstanding.	There a re everal Business issues outstanding. 	224682913	1478037706403	1478037706601	c	67
439450	4732279	There are several business issues outstanding.	There a re everal Business issues outstanding. 	224682921	1478037707715	1478037707811	BKSP	8
439450	4732279	There are several business issues outstanding.	There a re everal Business issues outstanding. 	224682928	1478037708003	1478037708147	d	68
439450	4732279	There are several business issues outstanding.	There a re everal Business issues outstanding. 	224682934	1478037708355	1478037708387	i	73
439450	4732279	There are several business issues outstanding.	There a re everal Business issues outstanding. 	224682940	1478037708675	1478037708755	n	78
439450	4732279	There are several business issues outstanding.	There a re everal Business issues outstanding. 	224682966	1478037708851	1478037708947	g	71
439450	4732279	There are several business issues outstanding.	There a re everal Business issues outstanding. 	224682968	1478037709235	1478037709347	.	190
439450	4732279	There are several business issues outstanding.	There a re everal Business issues outstanding. 	224682970	1478037709507	1478037709619	 	32
439450	4732292	Tricia needs to know if she needs to invoice them or not.	Tricia needs to know if she needs to invoice them or not 	224683099	1478037711731	1478037712003	SHIFT	16
439450	4732292	Tricia needs to know if she needs to invoice them or not.	Tricia needs to know if she needs to invoice them or not 	224683102	1478037711859	1478037712035	T	84
439450	4732292	Tricia needs to know if she needs to invoice them or not.	Tricia needs to know if she needs to invoice them or not 	224683105	1478037712243	1478037712371	r	82
439450	4732292	Tricia needs to know if she needs to invoice them or not.	Tricia needs to know if she needs to invoice them or not 	224683108	1478037712531	1478037712627	i	73
439450	4732292	Tricia needs to know if she needs to invoice them or not.	Tricia needs to know if she needs to invoice them or not 	224683111	1478037712835	1478037713011	c	67
439450	4732292	Tricia needs to know if she needs to invoice them or not.	Tricia needs to know if she needs to invoice them or not 	224683114	1478037713139	1478037713219	i	73
439450	4732292	Tricia needs to know if she needs to invoice them or not.	Tricia needs to know if she needs to invoice them or not 	224683132	1478037713491	1478037713667	a	65
439450	4732292	Tricia needs to know if she needs to invoice them or not.	Tricia needs to know if she needs to invoice them or not 	224683135	1478037713699	1478037713891	 	32
439450	4732292	Tricia needs to know if she needs to invoice them or not.	Tricia needs to know if she needs to invoice them or not 	224683137	1478037714067	1478037714179	n	78
439450	4732292	Tricia needs to know if she needs to invoice them or not.	Tricia needs to know if she needs to invoice them or not 	224683142	1478037714291	1478037714419	e	69
439450	4732292	Tricia needs to know if she needs to invoice them or not.	Tricia needs to know if she needs to invoice them or not 	224683145	1478037714547	1478037714643	e	69
439450	4732292	Tricia needs to know if she needs to invoice them or not.	Tricia needs to know if she needs to invoice them or not 	224683176	1478037714819	1478037714963	d	68
439450	4732292	Tricia needs to know if she needs to invoice them or not.	Tricia needs to know if she needs to invoice them or not 	224683177	1478037715107	1478037715235	s	83
439450	4732292	Tricia needs to know if she needs to invoice them or not.	Tricia needs to know if she needs to invoice them or not 	224683180	1478037715251	1478037715411	 	32
439450	4732292	Tricia needs to know if she needs to invoice them or not.	Tricia needs to know if she needs to invoice them or not 	224683183	1478037715539	1478037715683	t	84
439450	4732292	Tricia needs to know if she needs to invoice them or not.	Tricia needs to know if she needs to invoice them or not 	224683220	1478037715651	1478037715779	o	79
439450	4732292	Tricia needs to know if she needs to invoice them or not.	Tricia needs to know if she needs to invoice them or not 	224683223	1478037715795	1478037715955	 	32
439450	4732292	Tricia needs to know if she needs to invoice them or not.	Tricia needs to know if she needs to invoice them or not 	224683226	1478037716083	1478037716163	k	75
439450	4732292	Tricia needs to know if she needs to invoice them or not.	Tricia needs to know if she needs to invoice them or not 	224683229	1478037716275	1478037716371	n	78
439450	4732292	Tricia needs to know if she needs to invoice them or not.	Tricia needs to know if she needs to invoice them or not 	224683232	1478037716498	1478037716595	o	79
439450	4732292	Tricia needs to know if she needs to invoice them or not.	Tricia needs to know if she needs to invoice them or not 	224683234	1478037716690	1478037716851	w	87
439450	4732292	Tricia needs to know if she needs to invoice them or not.	Tricia needs to know if she needs to invoice them or not 	224683276	1478037716853	1478037716963	 	32
439450	4732292	Tricia needs to know if she needs to invoice them or not.	Tricia needs to know if she needs to invoice them or not 	224683281	1478037717123	1478037717283	i	73
439450	4732292	Tricia needs to know if she needs to invoice them or not.	Tricia needs to know if she needs to invoice them or not 	224683286	1478037717347	1478037717491	f	70
439450	4732292	Tricia needs to know if she needs to invoice them or not.	Tricia needs to know if she needs to invoice them or not 	224683291	1478037717523	1478037717635	 	32
439450	4732292	Tricia needs to know if she needs to invoice them or not.	Tricia needs to know if she needs to invoice them or not 	224683295	1478037717843	1478037717987	s	83
439450	4732292	Tricia needs to know if she needs to invoice them or not.	Tricia needs to know if she needs to invoice them or not 	224683323	1478037717989	1478037718083	h	72
439450	4732292	Tricia needs to know if she needs to invoice them or not.	Tricia needs to know if she needs to invoice them or not 	224683325	1478037718195	1478037718323	e	69
439450	4732292	Tricia needs to know if she needs to invoice them or not.	Tricia needs to know if she needs to invoice them or not 	224683328	1478037718307	1478037718419	 	32
439450	4732292	Tricia needs to know if she needs to invoice them or not.	Tricia needs to know if she needs to invoice them or not 	224683332	1478037718579	1478037718675	n	78
439450	4732292	Tricia needs to know if she needs to invoice them or not.	Tricia needs to know if she needs to invoice them or not 	224683336	1478037718723	1478037718819	e	69
439450	4732292	Tricia needs to know if she needs to invoice them or not.	Tricia needs to know if she needs to invoice them or not 	224683400	1478037718931	1478037719043	e	69
439450	4732292	Tricia needs to know if she needs to invoice them or not.	Tricia needs to know if she needs to invoice them or not 	224683403	1478037719555	1478037719747	s	83
439450	4732292	Tricia needs to know if she needs to invoice them or not.	Tricia needs to know if she needs to invoice them or not 	224683406	1478037719715	1478037719842	 	32
439450	4732292	Tricia needs to know if she needs to invoice them or not.	Tricia needs to know if she needs to invoice them or not 	224683408	1478037719970	1478037720130	t	84
439450	4732292	Tricia needs to know if she needs to invoice them or not.	Tricia needs to know if she needs to invoice them or not 	224683435	1478037720035	1478037720162	o	79
439450	4732292	Tricia needs to know if she needs to invoice them or not.	Tricia needs to know if she needs to invoice them or not 	224683441	1478037720226	1478037720338	 	32
439450	4732292	Tricia needs to know if she needs to invoice them or not.	Tricia needs to know if she needs to invoice them or not 	224683445	1478037720515	1478037720595	i	73
439450	4732292	Tricia needs to know if she needs to invoice them or not.	Tricia needs to know if she needs to invoice them or not 	224683450	1478037720723	1478037720803	n	78
439450	4732292	Tricia needs to know if she needs to invoice them or not.	Tricia needs to know if she needs to invoice them or not 	224683456	1478037720946	1478037721107	v	86
439450	4732292	Tricia needs to know if she needs to invoice them or not.	Tricia needs to know if she needs to invoice them or not 	224683499	1478037721075	1478037721186	o	79
439450	4732292	Tricia needs to know if she needs to invoice them or not.	Tricia needs to know if she needs to invoice them or not 	224683502	1478037721250	1478037721378	i	73
439450	4732292	Tricia needs to know if she needs to invoice them or not.	Tricia needs to know if she needs to invoice them or not 	224683504	1478037721523	1478037721603	c	67
439450	4732292	Tricia needs to know if she needs to invoice them or not.	Tricia needs to know if she needs to invoice them or not 	224683507	1478037721795	1478037721971	e	69
439450	4732292	Tricia needs to know if she needs to invoice them or not.	Tricia needs to know if she needs to invoice them or not 	224683509	1478037721891	1478037722018	 	32
439450	4732292	Tricia needs to know if she needs to invoice them or not.	Tricia needs to know if she needs to invoice them or not 	224683510	1478037722402	1478037722562	t	84
439450	4732292	Tricia needs to know if she needs to invoice them or not.	Tricia needs to know if she needs to invoice them or not 	224683536	1478037722578	1478037722690	h	72
439450	4732292	Tricia needs to know if she needs to invoice them or not.	Tricia needs to know if she needs to invoice them or not 	224683539	1478037722770	1478037722898	e	69
439450	4732292	Tricia needs to know if she needs to invoice them or not.	Tricia needs to know if she needs to invoice them or not 	224683542	1478037722915	1478037722994	m	77
439450	4732292	Tricia needs to know if she needs to invoice them or not.	Tricia needs to know if she needs to invoice them or not 	224683544	1478037723106	1478037723235	 	32
439450	4732292	Tricia needs to know if she needs to invoice them or not.	Tricia needs to know if she needs to invoice them or not 	224683548	1478037723330	1478037723426	o	79
439450	4732292	Tricia needs to know if she needs to invoice them or not.	Tricia needs to know if she needs to invoice them or not 	224683582	1478037723522	1478037723651	r	82
439450	4732292	Tricia needs to know if she needs to invoice them or not.	Tricia needs to know if she needs to invoice them or not 	224683583	1478037723666	1478037723794	 	32
439450	4732292	Tricia needs to know if she needs to invoice them or not.	Tricia needs to know if she needs to invoice them or not 	224683584	1478037724018	1478037724098	n	78
439450	4732292	Tricia needs to know if she needs to invoice them or not.	Tricia needs to know if she needs to invoice them or not 	224683585	1478037724274	1478037724306	o	79
439450	4732292	Tricia needs to know if she needs to invoice them or not.	Tricia needs to know if she needs to invoice them or not 	224683586	1478037724402	1478037724530	t	84
439450	4732292	Tricia needs to know if she needs to invoice them or not.	Tricia needs to know if she needs to invoice them or not 	224683606	1478037724658	1478037724834	 	32
439450	4732307	One assistant and one HR associate.	One assistant ad on eHR associte. 	224683806	1478037727955	1478037728259	SHIFT	16
439450	4732307	One assistant and one HR associate.	One assistant ad on eHR associte. 	224683804	1478037728066	1478037728210	O	79
439450	4732307	One assistant and one HR associate.	One assistant ad on eHR associte. 	224683809	1478037728354	1478037728434	n	78
439450	4732307	One assistant and one HR associate.	One assistant ad on eHR associte. 	224683812	1478037728498	1478037728642	e	69
439450	4732307	One assistant and one HR associate.	One assistant ad on eHR associte. 	224683816	1478037728706	1478037728802	 	32
439450	4732307	One assistant and one HR associate.	One assistant ad on eHR associte. 	224683820	1478037729154	1478037729266	a	65
439450	4732307	One assistant and one HR associate.	One assistant ad on eHR associte. 	224683856	1478037729394	1478037729458	s	83
439450	4732307	One assistant and one HR associate.	One assistant ad on eHR associte. 	224683858	1478037729554	1478037729634	s	83
439450	4732307	One assistant and one HR associate.	One assistant ad on eHR associte. 	224683862	1478037729714	1478037729826	i	73
439450	4732307	One assistant and one HR associate.	One assistant ad on eHR associte. 	224683866	1478037729842	1478037729954	s	83
439450	4732307	One assistant and one HR associate.	One assistant ad on eHR associte. 	224683871	1478037730050	1478037730146	t	84
439450	4732307	One assistant and one HR associate.	One assistant ad on eHR associte. 	224683919	1478037730226	1478037730370	a	65
439450	4732307	One assistant and one HR associate.	One assistant ad on eHR associte. 	224683922	1478037730354	1478037730434	n	78
439450	4732307	One assistant and one HR associate.	One assistant ad on eHR associte. 	224683924	1478037730738	1478037730898	t	84
439450	4732307	One assistant and one HR associate.	One assistant ad on eHR associte. 	224683926	1478037730994	1478037731090	 	32
439450	4732307	One assistant and one HR associate.	One assistant ad on eHR associte. 	224683928	1478037731394	1478037731522	a	65
439450	4732307	One assistant and one HR associate.	One assistant ad on eHR associte. 	224683962	1478037731538	1478037731634	n	78
439450	4732307	One assistant and one HR associate.	One assistant ad on eHR associte. 	224683968	1478037731778	1478037731858	 	32
439450	4732307	One assistant and one HR associate.	One assistant ad on eHR associte. 	224683972	1478037731922	1478037732034	o	79
439450	4732307	One assistant and one HR associate.	One assistant ad on eHR associte. 	224683975	1478037732130	1478037732226	n	78
439450	4732307	One assistant and one HR associate.	One assistant ad on eHR associte. 	224683978	1478037732322	1478037732418	 	32
439450	4732307	One assistant and one HR associate.	One assistant ad on eHR associte. 	224684195	1478037733586	1478037733682	e	69
439450	4732307	One assistant and one HR associate.	One assistant ad on eHR associte. 	224684208	1478037734386	1478037735458	SHIFT	16
439450	4732307	One assistant and one HR associate.	One assistant ad on eHR associte. 	224684199	1478037734626	1478037734722	H	72
439450	4732307	One assistant and one HR associate.	One assistant ad on eHR associte. 	224684202	1478037735090	1478037735185	R	82
439450	4732307	One assistant and one HR associate.	One assistant ad on eHR associte. 	224684211	1478037735554	1478037735698	 	32
439450	4732307	One assistant and one HR associate.	One assistant ad on eHR associte. 	224684215	1478037736130	1478037736322	a	65
439450	4732307	One assistant and one HR associate.	One assistant ad on eHR associte. 	224684256	1478037736450	1478037736514	s	83
439450	4732307	One assistant and one HR associate.	One assistant ad on eHR associte. 	224684257	1478037736626	1478037736722	s	83
439450	4732307	One assistant and one HR associate.	One assistant ad on eHR associte. 	224684258	1478037736769	1478037736898	o	79
439450	4732307	One assistant and one HR associate.	One assistant ad on eHR associte. 	224684259	1478037736978	1478037737122	c	67
439450	4732307	One assistant and one HR associate.	One assistant ad on eHR associte. 	224684260	1478037737154	1478037737266	i	73
439450	4732307	One assistant and one HR associate.	One assistant ad on eHR associte. 	224684379	1478037737346	1478037737410	t	84
439450	4732307	One assistant and one HR associate.	One assistant ad on eHR associte. 	224684381	1478037737810	1478037737890	a	65
439450	4732307	One assistant and one HR associate.	One assistant ad on eHR associte. 	224684389	1478037738562	1478037738674	BKSP	8
439450	4732307	One assistant and one HR associate.	One assistant ad on eHR associte. 	224684393	1478037738802	1478037738930	e	69
439450	4732307	One assistant and one HR associate.	One assistant ad on eHR associte. 	224684396	1478037738961	1478037739058	.	190
439450	4732307	One assistant and one HR associate.	One assistant ad on eHR associte. 	224684399	1478037739250	1478037739314	 	32
439450	4732318	When do we review with El Paso?	When do we review with El Paso?	224684541	1478037741329	1478037741505	SHIFT	16
439450	4732318	When do we review with El Paso?	When do we review with El Paso?	224684542	1478037741457	1478037741601	W	87
439450	4732318	When do we review with El Paso?	When do we review with El Paso?	224684544	1478037741745	1478037741889	h	72
439450	4732318	When do we review with El Paso?	When do we review with El Paso?	224684546	1478037741985	1478037742129	e	69
439450	4732318	When do we review with El Paso?	When do we review with El Paso?	224684547	1478037742145	1478037742273	n	78
439450	4732318	When do we review with El Paso?	When do we review with El Paso?	224684548	1478037742434	1478037742577	 	32
439450	4732318	When do we review with El Paso?	When do we review with El Paso?	224684572	1478037742737	1478037742913	d	68
439450	4732318	When do we review with El Paso?	When do we review with El Paso?	224684575	1478037742817	1478037742961	o	79
439450	4732318	When do we review with El Paso?	When do we review with El Paso?	224684577	1478037743027	1478037743154	 	32
439450	4732318	When do we review with El Paso?	When do we review with El Paso?	224684579	1478037743297	1478037743441	w	87
439450	4732318	When do we review with El Paso?	When do we review with El Paso?	224684581	1478037743537	1478037743729	e	69
439450	4732318	When do we review with El Paso?	When do we review with El Paso?	224684633	1478037743697	1478037743825	 	32
439450	4732318	When do we review with El Paso?	When do we review with El Paso?	224684635	1478037744513	1478037744657	r	82
439450	4732318	When do we review with El Paso?	When do we review with El Paso?	224684638	1478037744754	1478037744865	e	69
439450	4732318	When do we review with El Paso?	When do we review with El Paso?	224684640	1478037745073	1478037745217	v	86
439450	4732318	When do we review with El Paso?	When do we review with El Paso?	224684642	1478037745233	1478037745377	i	73
439450	4732318	When do we review with El Paso?	When do we review with El Paso?	224684644	1478037745409	1478037745569	e	69
439450	4732318	When do we review with El Paso?	When do we review with El Paso?	224684667	1478037745665	1478037745825	w	87
439450	4732318	When do we review with El Paso?	When do we review with El Paso?	224684671	1478037745857	1478037746001	 	32
439450	4732318	When do we review with El Paso?	When do we review with El Paso?	224684679	1478037746161	1478037746337	w	87
439450	4732318	When do we review with El Paso?	When do we review with El Paso?	224684685	1478037746338	1478037746434	i	73
439450	4732318	When do we review with El Paso?	When do we review with El Paso?	224684690	1478037746481	1478037746609	t	84
439450	4732318	When do we review with El Paso?	When do we review with El Paso?	224684748	1478037746673	1478037746753	h	72
439450	4732318	When do we review with El Paso?	When do we review with El Paso?	224684751	1478037746785	1478037746945	 	32
439450	4732318	When do we review with El Paso?	When do we review with El Paso?	224684754	1478037747169	1478037747393	SHIFT	16
439450	4732318	When do we review with El Paso?	When do we review with El Paso?	224684757	1478037747313	1478037747457	E	69
439450	4732318	When do we review with El Paso?	When do we review with El Paso?	224684760	1478037747921	1478037748033	l	76
439450	4732318	When do we review with El Paso?	When do we review with El Paso?	224684763	1478037748194	1478037748385	 	32
439450	4732318	When do we review with El Paso?	When do we review with El Paso?	224684845	1478037748593	1478037749233	SHIFT	16
439450	4732318	When do we review with El Paso?	When do we review with El Paso?	224684844	1478037749025	1478037749185	P	80
439450	4732318	When do we review with El Paso?	When do we review with El Paso?	224684846	1478037749441	1478037749569	a	65
439450	4732318	When do we review with El Paso?	When do we review with El Paso?	224684848	1478037749697	1478037749809	s	83
439450	4732318	When do we review with El Paso?	When do we review with El Paso?	224684850	1478037749841	1478037749985	o	79
439450	4732318	When do we review with El Paso?	When do we review with El Paso?	224684902	1478037750385	1478037751441	SHIFT	16
439450	4732318	When do we review with El Paso?	When do we review with El Paso?	224684852	1478037751297	1478037751377	?	191
439450	4732332	You haven't seen 120 in some time.	You haven't seen 120 in some time. 	224685130	1478037754785	1478037756129	SHIFT	16
439450	4732332	You haven't seen 120 in some time.	You haven't seen 120 in some time. 	224685122	1478037755905	1478037756017	Y	89
439450	4732332	You haven't seen 120 in some time.	You haven't seen 120 in some time. 	224685139	1478037756209	1478037756385	o	79
439450	4732332	You haven't seen 120 in some time.	You haven't seen 120 in some time. 	224685142	1478037756497	1478037756609	u	85
439450	4732332	You haven't seen 120 in some time.	You haven't seen 120 in some time. 	224685146	1478037756753	1478037756929	 	32
439450	4732332	You haven't seen 120 in some time.	You haven't seen 120 in some time. 	224685150	1478037757249	1478037757329	h	72
439450	4732332	You haven't seen 120 in some time.	You haven't seen 120 in some time. 	224685228	1478037757473	1478037757600	a	65
439450	4732332	You haven't seen 120 in some time.	You haven't seen 120 in some time. 	224685229	1478037757792	1478037757952	v	86
439450	4732332	You haven't seen 120 in some time.	You haven't seen 120 in some time. 	224685235	1478037758112	1478037758224	e	69
439450	4732332	You haven't seen 120 in some time.	You haven't seen 120 in some time. 	224685237	1478037758320	1478037758432	n	78
439450	4732332	You haven't seen 120 in some time.	You haven't seen 120 in some time. 	224685238	1478037759568	1478037759680	'	222
439450	4732332	You haven't seen 120 in some time.	You haven't seen 120 in some time. 	224685274	1478037759776	1478037759888	t	84
439450	4732332	You haven't seen 120 in some time.	You haven't seen 120 in some time. 	224685278	1478037759952	1478037760066	 	32
439450	4732332	You haven't seen 120 in some time.	You haven't seen 120 in some time. 	224685283	1478037760848	1478037760993	s	83
439450	4732332	You haven't seen 120 in some time.	You haven't seen 120 in some time. 	224685288	1478037761088	1478037761152	e	69
439450	4732332	You haven't seen 120 in some time.	You haven't seen 120 in some time. 	224685295	1478037761248	1478037761360	e	69
439450	4732332	You haven't seen 120 in some time.	You haven't seen 120 in some time. 	224685361	1478037761440	1478037761600	n	78
439450	4732332	You haven't seen 120 in some time.	You haven't seen 120 in some time. 	224685364	1478037761664	1478037761776	 	32
439450	4732332	You haven't seen 120 in some time.	You haven't seen 120 in some time. 	224685367	1478037762528	1478037762608	1	97
439450	4732332	You haven't seen 120 in some time.	You haven't seen 120 in some time. 	224685369	1478037762800	1478037762880	2	98
439450	4732332	You haven't seen 120 in some time.	You haven't seen 120 in some time. 	224685371	1478037763056	1478037763136	0	96
439450	4732332	You haven't seen 120 in some time.	You haven't seen 120 in some time. 	224685430	1478037763552	1478037763648	 	32
439450	4732332	You haven't seen 120 in some time.	You haven't seen 120 in some time. 	224685432	1478037763968	1478037764096	i	73
439450	4732332	You haven't seen 120 in some time.	You haven't seen 120 in some time. 	224685434	1478037764224	1478037764320	n	78
439450	4732332	You haven't seen 120 in some time.	You haven't seen 120 in some time. 	224685435	1478037764416	1478037764512	 	32
439450	4732332	You haven't seen 120 in some time.	You haven't seen 120 in some time. 	224685438	1478037764688	1478037764896	s	83
439450	4732332	You haven't seen 120 in some time.	You haven't seen 120 in some time. 	224685466	1478037764784	1478037764960	o	79
439450	4732332	You haven't seen 120 in some time.	You haven't seen 120 in some time. 	224685468	1478037765136	1478037765248	m	77
439450	4732332	You haven't seen 120 in some time.	You haven't seen 120 in some time. 	224685470	1478037765360	1478037765488	e	69
439450	4732332	You haven't seen 120 in some time.	You haven't seen 120 in some time. 	224685474	1478037765600	1478037765712	 	32
439450	4732332	You haven't seen 120 in some time.	You haven't seen 120 in some time. 	224685478	1478037765792	1478037765936	t	84
439450	4732332	You haven't seen 120 in some time.	You haven't seen 120 in some time. 	224685482	1478037765937	1478037766080	i	73
439450	4732332	You haven't seen 120 in some time.	You haven't seen 120 in some time. 	224685520	1478037766208	1478037766272	m	77
439450	4732332	You haven't seen 120 in some time.	You haven't seen 120 in some time. 	224685521	1478037766368	1478037766528	e	69
439450	4732332	You haven't seen 120 in some time.	You haven't seen 120 in some time. 	224685522	1478037766544	1478037766656	.	190
439450	4732332	You haven't seen 120 in some time.	You haven't seen 120 in some time. 	224685523	1478037766768	1478037766864	 	32
439450	4732345	Appointing Jeff as CFO is one important step in that process.	Appointing Jeff as CFO is one important step that process. 	224685654	1478037769008	1478037769168	SHIFT	16
439450	4732345	Appointing Jeff as CFO is one important step in that process.	Appointing Jeff as CFO is one important step that process. 	224685656	1478037769120	1478037769296	A	65
439450	4732345	Appointing Jeff as CFO is one important step in that process.	Appointing Jeff as CFO is one important step that process. 	224685661	1478037769504	1478037769664	p	80
439450	4732345	Appointing Jeff as CFO is one important step in that process.	Appointing Jeff as CFO is one important step that process. 	224685663	1478037769744	1478037769888	p	80
439450	4732345	Appointing Jeff as CFO is one important step in that process.	Appointing Jeff as CFO is one important step that process. 	224685666	1478037770080	1478037770224	o	79
439450	4732345	Appointing Jeff as CFO is one important step in that process.	Appointing Jeff as CFO is one important step that process. 	224685669	1478037770336	1478037770480	i	73
439450	4732345	Appointing Jeff as CFO is one important step in that process.	Appointing Jeff as CFO is one important step that process. 	224685710	1478037770608	1478037770720	n	78
439450	4732345	Appointing Jeff as CFO is one important step in that process.	Appointing Jeff as CFO is one important step that process. 	224685712	1478037770832	1478037770944	t	84
439450	4732345	Appointing Jeff as CFO is one important step in that process.	Appointing Jeff as CFO is one important step that process. 	224685716	1478037770976	1478037771088	i	73
439450	4732345	Appointing Jeff as CFO is one important step in that process.	Appointing Jeff as CFO is one important step that process. 	224685718	1478037771200	1478037771312	n	78
439450	4732345	Appointing Jeff as CFO is one important step in that process.	Appointing Jeff as CFO is one important step that process. 	224685723	1478037771392	1478037771568	g	71
439450	4732345	Appointing Jeff as CFO is one important step in that process.	Appointing Jeff as CFO is one important step that process. 	224685768	1478037771488	1478037771616	 	32
439450	4732345	Appointing Jeff as CFO is one important step in that process.	Appointing Jeff as CFO is one important step that process. 	224685770	1478037771856	1478037772064	SHIFT	16
439450	4732345	Appointing Jeff as CFO is one important step in that process.	Appointing Jeff as CFO is one important step that process. 	224685773	1478037771952	1478037772096	J	74
439450	4732345	Appointing Jeff as CFO is one important step in that process.	Appointing Jeff as CFO is one important step that process. 	224685776	1478037772176	1478037772304	e	69
439450	4732345	Appointing Jeff as CFO is one important step in that process.	Appointing Jeff as CFO is one important step that process. 	224685780	1478037772448	1478037772528	f	70
439450	4732345	Appointing Jeff as CFO is one important step in that process.	Appointing Jeff as CFO is one important step that process. 	224685782	1478037772656	1478037772736	f	70
439450	4732345	Appointing Jeff as CFO is one important step in that process.	Appointing Jeff as CFO is one important step that process. 	224685789	1478037772864	1478037773008	 	32
439450	4732345	Appointing Jeff as CFO is one important step in that process.	Appointing Jeff as CFO is one important step that process. 	224685856	1478037773120	1478037773248	a	65
439450	4732345	Appointing Jeff as CFO is one important step in that process.	Appointing Jeff as CFO is one important step that process. 	224685857	1478037773392	1478037773536	s	83
439450	4732345	Appointing Jeff as CFO is one important step in that process.	Appointing Jeff as CFO is one important step that process. 	224685858	1478037773536	1478037773680	 	32
439450	4732345	Appointing Jeff as CFO is one important step in that process.	Appointing Jeff as CFO is one important step that process. 	224685979	1478037773888	1478037776160	SHIFT	16
439450	4732345	Appointing Jeff as CFO is one important step in that process.	Appointing Jeff as CFO is one important step that process. 	224685859	1478037774000	1478037774144	C	67
439450	4732345	Appointing Jeff as CFO is one important step in that process.	Appointing Jeff as CFO is one important step that process. 	224685860	1478037774400	1478037774512	F	70
439450	4732345	Appointing Jeff as CFO is one important step in that process.	Appointing Jeff as CFO is one important step that process. 	224685983	1478037776064	1478037776192	O	79
439450	4732345	Appointing Jeff as CFO is one important step in that process.	Appointing Jeff as CFO is one important step that process. 	224685985	1478037776528	1478037776688	 	32
439450	4732345	Appointing Jeff as CFO is one important step in that process.	Appointing Jeff as CFO is one important step that process. 	224685986	1478037777008	1478037777136	i	73
439450	4732345	Appointing Jeff as CFO is one important step in that process.	Appointing Jeff as CFO is one important step that process. 	224685987	1478037777215	1478037777360	s	83
439450	4732345	Appointing Jeff as CFO is one important step in that process.	Appointing Jeff as CFO is one important step that process. 	224685988	1478037777391	1478037777519	 	32
439450	4732345	Appointing Jeff as CFO is one important step in that process.	Appointing Jeff as CFO is one important step that process. 	224686053	1478037777679	1478037777808	o	79
439450	4732345	Appointing Jeff as CFO is one important step in that process.	Appointing Jeff as CFO is one important step that process. 	224686056	1478037777919	1478037777999	n	78
439450	4732345	Appointing Jeff as CFO is one important step in that process.	Appointing Jeff as CFO is one important step that process. 	224686058	1478037778127	1478037778288	e	69
439450	4732345	Appointing Jeff as CFO is one important step in that process.	Appointing Jeff as CFO is one important step that process. 	224686062	1478037778288	1478037778368	 	32
439450	4732345	Appointing Jeff as CFO is one important step in that process.	Appointing Jeff as CFO is one important step that process. 	224686065	1478037778704	1478037778815	i	73
439450	4732345	Appointing Jeff as CFO is one important step in that process.	Appointing Jeff as CFO is one important step that process. 	224686119	1478037778959	1478037779040	m	77
439450	4732345	Appointing Jeff as CFO is one important step in that process.	Appointing Jeff as CFO is one important step that process. 	224686122	1478037779215	1478037779359	p	80
439450	4732345	Appointing Jeff as CFO is one important step in that process.	Appointing Jeff as CFO is one important step that process. 	224686127	1478037779487	1478037779615	o	79
439450	4732345	Appointing Jeff as CFO is one important step in that process.	Appointing Jeff as CFO is one important step that process. 	224686130	1478037779647	1478037779760	r	82
439450	4732345	Appointing Jeff as CFO is one important step in that process.	Appointing Jeff as CFO is one important step that process. 	224686133	1478037779935	1478037780032	t	84
439450	4732345	Appointing Jeff as CFO is one important step in that process.	Appointing Jeff as CFO is one important step that process. 	224686215	1478037780287	1478037780432	a	65
439450	4732345	Appointing Jeff as CFO is one important step in that process.	Appointing Jeff as CFO is one important step that process. 	224686218	1478037781935	1478037782031	n	78
439450	4732345	Appointing Jeff as CFO is one important step in that process.	Appointing Jeff as CFO is one important step that process. 	224686222	1478037782159	1478037782287	t	84
439450	4732345	Appointing Jeff as CFO is one important step in that process.	Appointing Jeff as CFO is one important step that process. 	224686226	1478037782335	1478037782479	 	32
439450	4732345	Appointing Jeff as CFO is one important step in that process.	Appointing Jeff as CFO is one important step that process. 	224686229	1478037783087	1478037783279	s	83
439450	4732345	Appointing Jeff as CFO is one important step in that process.	Appointing Jeff as CFO is one important step that process. 	224686293	1478037783343	1478037783471	t	84
439450	4732345	Appointing Jeff as CFO is one important step in that process.	Appointing Jeff as CFO is one important step that process. 	224686297	1478037783583	1478037783727	e	69
439450	4732345	Appointing Jeff as CFO is one important step in that process.	Appointing Jeff as CFO is one important step that process. 	224686300	1478037783855	1478037784031	p	80
439450	4732345	Appointing Jeff as CFO is one important step in that process.	Appointing Jeff as CFO is one important step that process. 	224686303	1478037784159	1478037784271	 	32
439450	4732345	Appointing Jeff as CFO is one important step in that process.	Appointing Jeff as CFO is one important step that process. 	224686310	1478037784639	1478037784751	t	84
439450	4732345	Appointing Jeff as CFO is one important step in that process.	Appointing Jeff as CFO is one important step that process. 	224686345	1478037784799	1478037784911	h	72
439450	4732345	Appointing Jeff as CFO is one important step in that process.	Appointing Jeff as CFO is one important step that process. 	224686346	1478037784927	1478037785055	a	65
439450	4732345	Appointing Jeff as CFO is one important step in that process.	Appointing Jeff as CFO is one important step that process. 	224686347	1478037785087	1478037785231	t	84
439450	4732345	Appointing Jeff as CFO is one important step in that process.	Appointing Jeff as CFO is one important step that process. 	224686348	1478037785183	1478037785295	 	32
439450	4732345	Appointing Jeff as CFO is one important step in that process.	Appointing Jeff as CFO is one important step that process. 	224686350	1478037785423	1478037785535	p	80
439450	4732345	Appointing Jeff as CFO is one important step in that process.	Appointing Jeff as CFO is one important step that process. 	224686442	1478037785711	1478037785871	o	79
439450	4732345	Appointing Jeff as CFO is one important step in that process.	Appointing Jeff as CFO is one important step that process. 	224686445	1478037786559	1478037786655	BKSP	8
439450	4732345	Appointing Jeff as CFO is one important step in that process.	Appointing Jeff as CFO is one important step that process. 	224686446	1478037786703	1478037786847	r	82
439450	4732345	Appointing Jeff as CFO is one important step in that process.	Appointing Jeff as CFO is one important step that process. 	224686448	1478037786911	1478037787023	o	79
439450	4732345	Appointing Jeff as CFO is one important step in that process.	Appointing Jeff as CFO is one important step that process. 	224686451	1478037787263	1478037787407	c	67
439450	4732345	Appointing Jeff as CFO is one important step in that process.	Appointing Jeff as CFO is one important step that process. 	224686454	1478037787567	1478037787663	e	69
439450	4732345	Appointing Jeff as CFO is one important step in that process.	Appointing Jeff as CFO is one important step that process. 	224686500	1478037787823	1478037787903	s	83
439450	4732345	Appointing Jeff as CFO is one important step in that process.	Appointing Jeff as CFO is one important step that process. 	224686501	1478037788031	1478037788127	s	83
439450	4732345	Appointing Jeff as CFO is one important step in that process.	Appointing Jeff as CFO is one important step that process. 	224686502	1478037788415	1478037788511	.	190
439450	4732345	Appointing Jeff as CFO is one important step in that process.	Appointing Jeff as CFO is one important step that process. 	224686503	1478037788671	1478037788751	 	32
439450	4732366	The first Vietnamese trainee pilots were due to arrive in June.	The first Vietnamese trainee pilots were due to arrive in June. 	224686609	1478037790943	1478037791103	SHIFT	16
439450	4732366	The first Vietnamese trainee pilots were due to arrive in June.	The first Vietnamese trainee pilots were due to arrive in June. 	224686610	1478037791023	1478037791183	T	84
439450	4732366	The first Vietnamese trainee pilots were due to arrive in June.	The first Vietnamese trainee pilots were due to arrive in June. 	224686613	1478037791295	1478037791407	h	72
439450	4732366	The first Vietnamese trainee pilots were due to arrive in June.	The first Vietnamese trainee pilots were due to arrive in June. 	224686616	1478037791439	1478037791615	e	69
439450	4732366	The first Vietnamese trainee pilots were due to arrive in June.	The first Vietnamese trainee pilots were due to arrive in June. 	224686619	1478037791599	1478037791695	 	32
439450	4732366	The first Vietnamese trainee pilots were due to arrive in June.	The first Vietnamese trainee pilots were due to arrive in June. 	224686623	1478037791823	1478037791983	f	70
439450	4732366	The first Vietnamese trainee pilots were due to arrive in June.	The first Vietnamese trainee pilots were due to arrive in June. 	224686660	1478037792016	1478037792143	i	73
439450	4732366	The first Vietnamese trainee pilots were due to arrive in June.	The first Vietnamese trainee pilots were due to arrive in June. 	224686664	1478037792207	1478037792287	r	82
439450	4732366	The first Vietnamese trainee pilots were due to arrive in June.	The first Vietnamese trainee pilots were due to arrive in June. 	224686666	1478037792463	1478037792591	s	83
439450	4732366	The first Vietnamese trainee pilots were due to arrive in June.	The first Vietnamese trainee pilots were due to arrive in June. 	224686668	1478037792687	1478037792815	t	84
439450	4732366	The first Vietnamese trainee pilots were due to arrive in June.	The first Vietnamese trainee pilots were due to arrive in June. 	224686671	1478037792815	1478037792943	 	32
439450	4732366	The first Vietnamese trainee pilots were due to arrive in June.	The first Vietnamese trainee pilots were due to arrive in June. 	224686930	1478037793119	1478037793343	SHIFT	16
439450	4732366	The first Vietnamese trainee pilots were due to arrive in June.	The first Vietnamese trainee pilots were due to arrive in June. 	224686935	1478037793263	1478037793406	V	86
439450	4732366	The first Vietnamese trainee pilots were due to arrive in June.	The first Vietnamese trainee pilots were due to arrive in June. 	224686942	1478037793663	1478037793774	i	73
439450	4732366	The first Vietnamese trainee pilots were due to arrive in June.	The first Vietnamese trainee pilots were due to arrive in June. 	224686949	1478037794623	1478037794735	e	69
439450	4732366	The first Vietnamese trainee pilots were due to arrive in June.	The first Vietnamese trainee pilots were due to arrive in June. 	224686955	1478037795183	1478037795263	BKSP	8
439450	4732366	The first Vietnamese trainee pilots were due to arrive in June.	The first Vietnamese trainee pilots were due to arrive in June. 	224686961	1478037795342	1478037795439	BKSP	8
439450	4732366	The first Vietnamese trainee pilots were due to arrive in June.	The first Vietnamese trainee pilots were due to arrive in June. 	224686965	1478037796079	1478037796175	e	69
439450	4732366	The first Vietnamese trainee pilots were due to arrive in June.	The first Vietnamese trainee pilots were due to arrive in June. 	224686968	1478037797343	1478037797438	BKSP	8
439450	4732366	The first Vietnamese trainee pilots were due to arrive in June.	The first Vietnamese trainee pilots were due to arrive in June. 	224686970	1478037797742	1478037797807	i	73
439450	4732366	The first Vietnamese trainee pilots were due to arrive in June.	The first Vietnamese trainee pilots were due to arrive in June. 	224687057	1478037797935	1478037798047	e	69
439450	4732366	The first Vietnamese trainee pilots were due to arrive in June.	The first Vietnamese trainee pilots were due to arrive in June. 	224687062	1478037798270	1478037798382	t	84
439450	4732366	The first Vietnamese trainee pilots were due to arrive in June.	The first Vietnamese trainee pilots were due to arrive in June. 	224687066	1478037799102	1478037799230	n	78
439450	4732366	The first Vietnamese trainee pilots were due to arrive in June.	The first Vietnamese trainee pilots were due to arrive in June. 	224687071	1478037799406	1478037799550	a	65
439450	4732366	The first Vietnamese trainee pilots were due to arrive in June.	The first Vietnamese trainee pilots were due to arrive in June. 	224687074	1478037799790	1478037799902	m	77
439450	4732366	The first Vietnamese trainee pilots were due to arrive in June.	The first Vietnamese trainee pilots were due to arrive in June. 	224687108	1478037799966	1478037800094	e	69
439450	4732366	The first Vietnamese trainee pilots were due to arrive in June.	The first Vietnamese trainee pilots were due to arrive in June. 	224687111	1478037800238	1478037800334	s	83
439450	4732366	The first Vietnamese trainee pilots were due to arrive in June.	The first Vietnamese trainee pilots were due to arrive in June. 	224687114	1478037800478	1478037800606	e	69
439450	4732366	The first Vietnamese trainee pilots were due to arrive in June.	The first Vietnamese trainee pilots were due to arrive in June. 	224687117	1478037800591	1478037800718	 	32
439450	4732366	The first Vietnamese trainee pilots were due to arrive in June.	The first Vietnamese trainee pilots were due to arrive in June. 	224687120	1478037800894	1478037800974	t	84
439450	4732366	The first Vietnamese trainee pilots were due to arrive in June.	The first Vietnamese trainee pilots were due to arrive in June. 	224687152	1478037801150	1478037801246	r	82
439450	4732366	The first Vietnamese trainee pilots were due to arrive in June.	The first Vietnamese trainee pilots were due to arrive in June. 	224687153	1478037801422	1478037801566	a	65
439450	4732366	The first Vietnamese trainee pilots were due to arrive in June.	The first Vietnamese trainee pilots were due to arrive in June. 	224687154	1478037801598	1478037801726	i	73
439450	4732366	The first Vietnamese trainee pilots were due to arrive in June.	The first Vietnamese trainee pilots were due to arrive in June. 	224687155	1478037801854	1478037801934	n	78
439450	4732366	The first Vietnamese trainee pilots were due to arrive in June.	The first Vietnamese trainee pilots were due to arrive in June. 	224687156	1478037802030	1478037802126	e	69
439450	4732366	The first Vietnamese trainee pilots were due to arrive in June.	The first Vietnamese trainee pilots were due to arrive in June. 	224687209	1478037802254	1478037802350	e	69
439450	4732366	The first Vietnamese trainee pilots were due to arrive in June.	The first Vietnamese trainee pilots were due to arrive in June. 	224687211	1478037802398	1478037802622	 	32
439450	4732366	The first Vietnamese trainee pilots were due to arrive in June.	The first Vietnamese trainee pilots were due to arrive in June. 	224687214	1478037802926	1478037803038	p	80
439450	4732366	The first Vietnamese trainee pilots were due to arrive in June.	The first Vietnamese trainee pilots were due to arrive in June. 	224687216	1478037803214	1478037803294	i	73
439450	4732366	The first Vietnamese trainee pilots were due to arrive in June.	The first Vietnamese trainee pilots were due to arrive in June. 	224687218	1478037803470	1478037803534	l	76
439450	4732366	The first Vietnamese trainee pilots were due to arrive in June.	The first Vietnamese trainee pilots were due to arrive in June. 	224687276	1478037803694	1478037803774	o	79
439450	4732366	The first Vietnamese trainee pilots were due to arrive in June.	The first Vietnamese trainee pilots were due to arrive in June. 	224687280	1478037803918	1478037804030	t	84
439450	4732366	The first Vietnamese trainee pilots were due to arrive in June.	The first Vietnamese trainee pilots were due to arrive in June. 	224687282	1478037804158	1478037804318	s	83
439450	4732366	The first Vietnamese trainee pilots were due to arrive in June.	The first Vietnamese trainee pilots were due to arrive in June. 	224687284	1478037804319	1478037804414	 	32
439450	4732366	The first Vietnamese trainee pilots were due to arrive in June.	The first Vietnamese trainee pilots were due to arrive in June. 	224687287	1478037804670	1478037804846	w	87
439450	4732366	The first Vietnamese trainee pilots were due to arrive in June.	The first Vietnamese trainee pilots were due to arrive in June. 	224687328	1478037804926	1478037805214	e	69
439450	4732366	The first Vietnamese trainee pilots were due to arrive in June.	The first Vietnamese trainee pilots were due to arrive in June. 	224687331	1478037805054	1478037805326	r	82
439450	4732366	The first Vietnamese trainee pilots were due to arrive in June.	The first Vietnamese trainee pilots were due to arrive in June. 	224687336	1478037805438	1478037805534	e	69
439450	4732366	The first Vietnamese trainee pilots were due to arrive in June.	The first Vietnamese trainee pilots were due to arrive in June. 	224687340	1478037805678	1478037805774	 	32
439450	4732366	The first Vietnamese trainee pilots were due to arrive in June.	The first Vietnamese trainee pilots were due to arrive in June. 	224687343	1478037805918	1478037806078	d	68
439450	4732366	The first Vietnamese trainee pilots were due to arrive in June.	The first Vietnamese trainee pilots were due to arrive in June. 	224687399	1478037806081	1478037806190	u	85
439450	4732366	The first Vietnamese trainee pilots were due to arrive in June.	The first Vietnamese trainee pilots were due to arrive in June. 	224687400	1478037807150	1478037807294	e	69
439450	4732366	The first Vietnamese trainee pilots were due to arrive in June.	The first Vietnamese trainee pilots were due to arrive in June. 	224687403	1478037807406	1478037807582	 	32
439450	4732366	The first Vietnamese trainee pilots were due to arrive in June.	The first Vietnamese trainee pilots were due to arrive in June. 	224687406	1478037807726	1478037807854	t	84
439450	4732366	The first Vietnamese trainee pilots were due to arrive in June.	The first Vietnamese trainee pilots were due to arrive in June. 	224687455	1478037807790	1478037807950	o	79
439450	4732366	The first Vietnamese trainee pilots were due to arrive in June.	The first Vietnamese trainee pilots were due to arrive in June. 	224687459	1478037807950	1478037808046	 	32
439450	4732366	The first Vietnamese trainee pilots were due to arrive in June.	The first Vietnamese trainee pilots were due to arrive in June. 	224687461	1478037808142	1478037808286	a	65
439450	4732366	The first Vietnamese trainee pilots were due to arrive in June.	The first Vietnamese trainee pilots were due to arrive in June. 	224687464	1478037808398	1478037808494	r	82
439450	4732366	The first Vietnamese trainee pilots were due to arrive in June.	The first Vietnamese trainee pilots were due to arrive in June. 	224687465	1478037808590	1478037808702	r	82
439450	4732366	The first Vietnamese trainee pilots were due to arrive in June.	The first Vietnamese trainee pilots were due to arrive in June. 	224687466	1478037808894	1478037808990	i	73
439450	4732366	The first Vietnamese trainee pilots were due to arrive in June.	The first Vietnamese trainee pilots were due to arrive in June. 	224687499	1478037809134	1478037809214	v	86
439450	4732366	The first Vietnamese trainee pilots were due to arrive in June.	The first Vietnamese trainee pilots were due to arrive in June. 	224687502	1478037809374	1478037809534	e	69
439450	4732366	The first Vietnamese trainee pilots were due to arrive in June.	The first Vietnamese trainee pilots were due to arrive in June. 	224687506	1478037809486	1478037809614	 	32
439450	4732366	The first Vietnamese trainee pilots were due to arrive in June.	The first Vietnamese trainee pilots were due to arrive in June. 	224687512	1478037809726	1478037809838	i	73
439450	4732366	The first Vietnamese trainee pilots were due to arrive in June.	The first Vietnamese trainee pilots were due to arrive in June. 	224687515	1478037810014	1478037810158	n	78
439450	4732366	The first Vietnamese trainee pilots were due to arrive in June.	The first Vietnamese trainee pilots were due to arrive in June. 	224687560	1478037810286	1478037810382	 	32
439450	4732366	The first Vietnamese trainee pilots were due to arrive in June.	The first Vietnamese trainee pilots were due to arrive in June. 	224687569	1478037810510	1478037810814	SHIFT	16
439450	4732366	The first Vietnamese trainee pilots were due to arrive in June.	The first Vietnamese trainee pilots were due to arrive in June. 	224687564	1478037810622	1478037810734	J	74
439450	4732366	The first Vietnamese trainee pilots were due to arrive in June.	The first Vietnamese trainee pilots were due to arrive in June. 	224687578	1478037810942	1478037811054	u	85
439450	4732366	The first Vietnamese trainee pilots were due to arrive in June.	The first Vietnamese trainee pilots were due to arrive in June. 	224687585	1478037811294	1478037811374	n	78
439450	4732366	The first Vietnamese trainee pilots were due to arrive in June.	The first Vietnamese trainee pilots were due to arrive in June. 	224687591	1478037811486	1478037811630	e	69
439450	4732366	The first Vietnamese trainee pilots were due to arrive in June.	The first Vietnamese trainee pilots were due to arrive in June. 	224687606	1478037811758	1478037811870	.	190
439450	4732366	The first Vietnamese trainee pilots were due to arrive in June.	The first Vietnamese trainee pilots were due to arrive in June. 	224687608	1478037811997	1478037812094	 	32
439450	4732387	I'll call you in the morning.	Ill call  you in the morning. 	224687801	1478037814174	1478037814461	SHIFT	16
439450	4732387	I'll call you in the morning.	Ill call  you in the morning. 	224687799	1478037814301	1478037814414	I	73
439450	4732387	I'll call you in the morning.	Ill call  you in the morning. 	224687805	1478037814829	1478037814990	SHIFT	16
439450	4732387	I'll call you in the morning.	Ill call  you in the morning. 	224687809	1478037815534	1478037815630	l	76
439450	4732387	I'll call you in the morning.	Ill call  you in the morning. 	224687812	1478037815757	1478037815806	l	76
439450	4732387	I'll call you in the morning.	Ill call  you in the morning. 	224687815	1478037816174	1478037816270	 	32
439450	4732387	I'll call you in the morning.	Ill call  you in the morning. 	224687819	1478037816509	1478037816638	c	67
439450	4732387	I'll call you in the morning.	Ill call  you in the morning. 	224687921	1478037816750	1478037816861	a	65
439450	4732387	I'll call you in the morning.	Ill call  you in the morning. 	224687923	1478037817166	1478037817231	l	76
439450	4732387	I'll call you in the morning.	Ill call  you in the morning. 	224687925	1478037817357	1478037817437	l	76
439450	4732387	I'll call you in the morning.	Ill call  you in the morning. 	224687927	1478037818061	1478037818205	 	32
439450	4732387	I'll call you in the morning.	Ill call  you in the morning. 	224687929	1478037818797	1478037818941	 	32
439450	4732387	I'll call you in the morning.	Ill call  you in the morning. 	224687985	1478037819293	1478037819469	y	89
439450	4732387	I'll call you in the morning.	Ill call  you in the morning. 	224687988	1478037819517	1478037819725	o	79
439450	4732387	I'll call you in the morning.	Ill call  you in the morning. 	224687989	1478037819741	1478037819805	u	85
439450	4732387	I'll call you in the morning.	Ill call  you in the morning. 	224687991	1478037819949	1478037820077	 	32
439450	4732387	I'll call you in the morning.	Ill call  you in the morning. 	224687993	1478037820189	1478037820301	i	73
439450	4732387	I'll call you in the morning.	Ill call  you in the morning. 	224688040	1478037820445	1478037820605	n	78
439450	4732387	I'll call you in the morning.	Ill call  you in the morning. 	224688041	1478037820861	1478037820957	 	32
439450	4732387	I'll call you in the morning.	Ill call  you in the morning. 	224688042	1478037821149	1478037821277	t	84
439450	4732387	I'll call you in the morning.	Ill call  you in the morning. 	224688043	1478037821278	1478037821405	h	72
439450	4732387	I'll call you in the morning.	Ill call  you in the morning. 	224688046	1478037821453	1478037821613	e	69
439450	4732387	I'll call you in the morning.	Ill call  you in the morning. 	224688108	1478037821517	1478037821645	 	32
439450	4732387	I'll call you in the morning.	Ill call  you in the morning. 	224688110	1478037821837	1478037821949	m	77
439450	4732387	I'll call you in the morning.	Ill call  you in the morning. 	224688112	1478037822173	1478037822301	r	82
439450	4732387	I'll call you in the morning.	Ill call  you in the morning. 	224688114	1478037823149	1478037823261	BKSP	8
439450	4732387	I'll call you in the morning.	Ill call  you in the morning. 	224688116	1478037823693	1478037823789	o	79
439450	4732387	I'll call you in the morning.	Ill call  you in the morning. 	224688119	1478037823933	1478037824061	r	82
439450	4732387	I'll call you in the morning.	Ill call  you in the morning. 	224688122	1478037824093	1478037824189	n	78
439450	4732387	I'll call you in the morning.	Ill call  you in the morning. 	224688155	1478037824461	1478037824557	i	73
439450	4732387	I'll call you in the morning.	Ill call  you in the morning. 	224688156	1478037824685	1478037824765	n	78
439450	4732387	I'll call you in the morning.	Ill call  you in the morning. 	224688157	1478037824861	1478037824957	g	71
439450	4732387	I'll call you in the morning.	Ill call  you in the morning. 	224688158	1478037824989	1478037825085	.	190
439450	4732387	I'll call you in the morning.	Ill call  you in the morning. 	224688159	1478037825261	1478037825357	 	32
