PARTICIPANT_ID	TEST_SECTION_ID	SENTENCE	USER_INPUT	KEYSTROKE_ID	PRESS_TIME	RELEASE_TIME	LETTER	KEYCODE
443310	4773511	Please send me an email.	Please send me an email.	226640379	1478092548814	1478092548923	CAPS_LOCK	20
443310	4773511	Please send me an email.	Please send me an email.	226640381	1478092549380	1478092549487	P	80
443310	4773511	Please send me an email.	Please send me an email.	226640383	1478092549675	1478092549757	L	76
443310	4773511	Please send me an email.	Please send me an email.	226640385	1478092550920	1478092550994	BKSP	8
443310	4773511	Please send me an email.	Please send me an email.	226640386	1478092551228	1478092551369	CAPS_LOCK	20
443310	4773511	Please send me an email.	Please send me an email.	226640387	1478092551529	1478092551628	l	76
443310	4773511	Please send me an email.	Please send me an email.	226640388	1478092551971	1478092552094	e	69
443310	4773511	Please send me an email.	Please send me an email.	226640389	1478092552234	1478092552424	a	65
443310	4773511	Please send me an email.	Please send me an email.	226640419	1478092552424	1478092552561	s	83
443310	4773511	Please send me an email.	Please send me an email.	226640420	1478092552686	1478092552796	e	69
443310	4773511	Please send me an email.	Please send me an email.	226640421	1478092553094	1478092553197	 	32
443310	4773511	Please send me an email.	Please send me an email.	226640422	1478092553619	1478092553763	s	83
443310	4773511	Please send me an email.	Please send me an email.	226640423	1478092553904	1478092554030	e	69
443310	4773511	Please send me an email.	Please send me an email.	226640425	1478092554093	1478092554231	n	78
443310	4773511	Please send me an email.	Please send me an email.	226640462	1478092554231	1478092554380	d	68
443310	4773511	Please send me an email.	Please send me an email.	226640463	1478092554411	1478092554517	 	32
443310	4773511	Please send me an email.	Please send me an email.	226640465	1478092554847	1478092554905	m	77
443310	4773511	Please send me an email.	Please send me an email.	226640467	1478092555092	1478092555217	e	69
443310	4773511	Please send me an email.	Please send me an email.	226640469	1478092555295	1478092555434	 	32
443310	4773511	Please send me an email.	Please send me an email.	226640506	1478092555501	1478092555650	a	65
443310	4773511	Please send me an email.	Please send me an email.	226640508	1478092555666	1478092555786	n	78
443310	4773511	Please send me an email.	Please send me an email.	226640511	1478092555943	1478092556023	 	32
443310	4773511	Please send me an email.	Please send me an email.	226640514	1478092556398	1478092556505	e	69
443310	4773511	Please send me an email.	Please send me an email.	226640517	1478092556614	1478092556785	m	77
443310	4773511	Please send me an email.	Please send me an email.	226640585	1478092556785	1478092556905	a	65
443310	4773511	Please send me an email.	Please send me an email.	226640588	1478092556905	1478092556991	i	73
443310	4773511	Please send me an email.	Please send me an email.	226640590	1478092557132	1478092557240	l	76
443310	4773511	Please send me an email.	Please send me an email.	226640593	1478092557851	1478092557896	.	190
443310	4773522	I can return earlier.	I can return earlier.	226640732	1478092561404	1478092561547	CAPS_LOCK	20
443310	4773522	I can return earlier.	I can return earlier.	226640734	1478092561547	1478092561652	I	73
443310	4773522	I can return earlier.	I can return earlier.	226640736	1478092561652	1478092561777	CAPS_LOCK	20
443310	4773522	I can return earlier.	I can return earlier.	226640738	1478092562012	1478092562119	 	32
443310	4773522	I can return earlier.	I can return earlier.	226640741	1478092562244	1478092562353	a	65
443310	4773522	I can return earlier.	I can return earlier.	226640744	1478092563075	1478092563172	BKSP	8
443310	4773522	I can return earlier.	I can return earlier.	226640747	1478092563469	1478092563588	c	67
443310	4773522	I can return earlier.	I can return earlier.	226640748	1478092563604	1478092563738	a	65
443310	4773522	I can return earlier.	I can return earlier.	226640794	1478092563738	1478092563840	n	78
443310	4773522	I can return earlier.	I can return earlier.	226640796	1478092564298	1478092564391	 	32
443310	4773522	I can return earlier.	I can return earlier.	226640799	1478092564688	1478092564776	r	82
443310	4773522	I can return earlier.	I can return earlier.	226640803	1478092564881	1478092564990	e	69
443310	4773522	I can return earlier.	I can return earlier.	226640806	1478092565021	1478092565096	t	84
443310	4773522	I can return earlier.	I can return earlier.	226640808	1478092565424	1478092565481	u	85
443310	4773522	I can return earlier.	I can return earlier.	226640826	1478092565607	1478092565695	r	82
443310	4773522	I can return earlier.	I can return earlier.	226640828	1478092565789	1478092565878	n	78
443310	4773522	I can return earlier.	I can return earlier.	226640830	1478092566315	1478092566414	 	32
443310	4773522	I can return earlier.	I can return earlier.	226640833	1478092566664	1478092566763	e	69
443310	4773522	I can return earlier.	I can return earlier.	226640836	1478092566873	1478092567010	a	65
443310	4773522	I can return earlier.	I can return earlier.	226640864	1478092567010	1478092567083	r	82
443310	4773522	I can return earlier.	I can return earlier.	226640865	1478092567566	1478092567635	l	76
443310	4773522	I can return earlier.	I can return earlier.	226640866	1478092567806	1478092567884	i	73
443310	4773522	I can return earlier.	I can return earlier.	226640867	1478092567978	1478092568082	e	69
443310	4773522	I can return earlier.	I can return earlier.	226640868	1478092568153	1478092568219	r	82
443310	4773522	I can return earlier.	I can return earlier.	226640912	1478092569097	1478092569170	.	190
443310	4773535	Feel free to use Robinson if he doesn't suffer a setback.	Feel free to use Robinson if he doesn't suffera setback.	226641262	1478092572738	1478092572856	CAPS_LOCK	20
443310	4773535	Feel free to use Robinson if he doesn't suffer a setback.	Feel free to use Robinson if he doesn't suffera setback.	226641265	1478092572974	1478092573052	CAPS_LOCK	20
443310	4773535	Feel free to use Robinson if he doesn't suffer a setback.	Feel free to use Robinson if he doesn't suffera setback.	226641268	1478092573177	1478092573233	f	70
443310	4773535	Feel free to use Robinson if he doesn't suffer a setback.	Feel free to use Robinson if he doesn't suffera setback.	226641269	1478092574455	1478092574533	BKSP	8
443310	4773535	Feel free to use Robinson if he doesn't suffer a setback.	Feel free to use Robinson if he doesn't suffera setback.	226641271	1478092574941	1478092575018	f	70
443310	4773535	Feel free to use Robinson if he doesn't suffer a setback.	Feel free to use Robinson if he doesn't suffera setback.	226641273	1478092576073	1478092576153	BKSP	8
443310	4773535	Feel free to use Robinson if he doesn't suffer a setback.	Feel free to use Robinson if he doesn't suffera setback.	226641275	1478092576356	1478092576465	CAPS_LOCK	20
443310	4773535	Feel free to use Robinson if he doesn't suffer a setback.	Feel free to use Robinson if he doesn't suffera setback.	226641277	1478092576512	1478092576603	F	70
443310	4773535	Feel free to use Robinson if he doesn't suffer a setback.	Feel free to use Robinson if he doesn't suffera setback.	226641279	1478092577093	1478092577233	CAPS_LOCK	20
443310	4773535	Feel free to use Robinson if he doesn't suffer a setback.	Feel free to use Robinson if he doesn't suffera setback.	226641282	1478092578410	1478092578493	e	69
443310	4773535	Feel free to use Robinson if he doesn't suffer a setback.	Feel free to use Robinson if he doesn't suffera setback.	226641286	1478092578587	1478092578674	e	69
443310	4773535	Feel free to use Robinson if he doesn't suffer a setback.	Feel free to use Robinson if he doesn't suffera setback.	226641370	1478092579647	1478092579730	l	76
443310	4773535	Feel free to use Robinson if he doesn't suffer a setback.	Feel free to use Robinson if he doesn't suffera setback.	226641373	1478092579886	1478092579977	 	32
443310	4773535	Feel free to use Robinson if he doesn't suffer a setback.	Feel free to use Robinson if he doesn't suffera setback.	226641376	1478092580180	1478092580264	f	70
443310	4773535	Feel free to use Robinson if he doesn't suffer a setback.	Feel free to use Robinson if he doesn't suffera setback.	226641379	1478092580420	1478092580529	r	82
443310	4773535	Feel free to use Robinson if he doesn't suffer a setback.	Feel free to use Robinson if he doesn't suffera setback.	226641385	1478092580654	1478092580747	e	69
443310	4773535	Feel free to use Robinson if he doesn't suffer a setback.	Feel free to use Robinson if he doesn't suffera setback.	226641431	1478092580827	1478092580930	e	69
443310	4773535	Feel free to use Robinson if he doesn't suffer a setback.	Feel free to use Robinson if he doesn't suffera setback.	226641433	1478092580993	1478092581081	 	32
443310	4773535	Feel free to use Robinson if he doesn't suffer a setback.	Feel free to use Robinson if he doesn't suffera setback.	226641438	1478092581473	1478092581569	t	84
443310	4773535	Feel free to use Robinson if he doesn't suffer a setback.	Feel free to use Robinson if he doesn't suffera setback.	226641440	1478092581663	1478092581765	o	79
443310	4773535	Feel free to use Robinson if he doesn't suffer a setback.	Feel free to use Robinson if he doesn't suffera setback.	226641442	1478092581905	1478092582030	 	32
443310	4773535	Feel free to use Robinson if he doesn't suffer a setback.	Feel free to use Robinson if he doesn't suffera setback.	226641497	1478092582111	1478092582200	u	85
443310	4773535	Feel free to use Robinson if he doesn't suffer a setback.	Feel free to use Robinson if he doesn't suffera setback.	226641501	1478092582294	1478092582385	s	83
443310	4773535	Feel free to use Robinson if he doesn't suffer a setback.	Feel free to use Robinson if he doesn't suffera setback.	226641508	1478092582541	1478092582665	e	69
443310	4773535	Feel free to use Robinson if he doesn't suffer a setback.	Feel free to use Robinson if he doesn't suffera setback.	226641513	1478092582912	1478092583019	 	32
443310	4773535	Feel free to use Robinson if he doesn't suffer a setback.	Feel free to use Robinson if he doesn't suffera setback.	226641515	1478092583495	1478092583599	CAPS_LOCK	20
443310	4773535	Feel free to use Robinson if he doesn't suffer a setback.	Feel free to use Robinson if he doesn't suffera setback.	226641516	1478092583662	1478092583754	R	82
443310	4773535	Feel free to use Robinson if he doesn't suffer a setback.	Feel free to use Robinson if he doesn't suffera setback.	226641571	1478092583754	1478092583885	CAPS_LOCK	20
443310	4773535	Feel free to use Robinson if he doesn't suffer a setback.	Feel free to use Robinson if he doesn't suffera setback.	226641573	1478092584151	1478092584253	o	79
443310	4773535	Feel free to use Robinson if he doesn't suffer a setback.	Feel free to use Robinson if he doesn't suffera setback.	226641575	1478092584487	1478092584590	b	66
443310	4773535	Feel free to use Robinson if he doesn't suffer a setback.	Feel free to use Robinson if he doesn't suffera setback.	226641577	1478092584683	1478092584775	i	73
443310	4773535	Feel free to use Robinson if he doesn't suffer a setback.	Feel free to use Robinson if he doesn't suffera setback.	226641580	1478092584900	1478092584990	n	78
443310	4773535	Feel free to use Robinson if he doesn't suffer a setback.	Feel free to use Robinson if he doesn't suffera setback.	226641583	1478092585146	1478092585273	s	83
443310	4773535	Feel free to use Robinson if he doesn't suffer a setback.	Feel free to use Robinson if he doesn't suffera setback.	226641624	1478092585312	1478092585424	o	79
443310	4773535	Feel free to use Robinson if he doesn't suffer a setback.	Feel free to use Robinson if he doesn't suffera setback.	226641628	1478092585533	1478092585642	n	78
443310	4773535	Feel free to use Robinson if he doesn't suffer a setback.	Feel free to use Robinson if he doesn't suffera setback.	226641632	1478092585920	1478092586165	 	32
443310	4773535	Feel free to use Robinson if he doesn't suffer a setback.	Feel free to use Robinson if he doesn't suffera setback.	226641637	1478092586560	1478092586645	i	73
443310	4773535	Feel free to use Robinson if he doesn't suffer a setback.	Feel free to use Robinson if he doesn't suffera setback.	226641640	1478092586770	1478092586893	f	70
443310	4773535	Feel free to use Robinson if he doesn't suffer a setback.	Feel free to use Robinson if he doesn't suffera setback.	226641671	1478092586959	1478092587108	 	32
443310	4773535	Feel free to use Robinson if he doesn't suffer a setback.	Feel free to use Robinson if he doesn't suffera setback.	226641673	1478092587280	1478092587363	h	72
443310	4773535	Feel free to use Robinson if he doesn't suffer a setback.	Feel free to use Robinson if he doesn't suffera setback.	226641676	1478092587410	1478092587543	e	69
443310	4773535	Feel free to use Robinson if he doesn't suffer a setback.	Feel free to use Robinson if he doesn't suffera setback.	226641680	1478092587653	1478092587762	 	32
443310	4773535	Feel free to use Robinson if he doesn't suffer a setback.	Feel free to use Robinson if he doesn't suffera setback.	226641684	1478092588297	1478092588414	d	68
443310	4773535	Feel free to use Robinson if he doesn't suffer a setback.	Feel free to use Robinson if he doesn't suffera setback.	226641740	1478092588524	1478092588599	o	79
443310	4773535	Feel free to use Robinson if he doesn't suffer a setback.	Feel free to use Robinson if he doesn't suffera setback.	226641741	1478092588787	1478092588884	e	69
443310	4773535	Feel free to use Robinson if he doesn't suffer a setback.	Feel free to use Robinson if he doesn't suffera setback.	226641742	1478092589056	1478092589181	s	83
443310	4773535	Feel free to use Robinson if he doesn't suffer a setback.	Feel free to use Robinson if he doesn't suffera setback.	226641743	1478092589322	1478092589369	n	78
443310	4773535	Feel free to use Robinson if he doesn't suffer a setback.	Feel free to use Robinson if he doesn't suffera setback.	226641745	1478092590391	1478092590461	'	222
443310	4773535	Feel free to use Robinson if he doesn't suffer a setback.	Feel free to use Robinson if he doesn't suffera setback.	226641820	1478092590833	1478092590921	t	84
443310	4773535	Feel free to use Robinson if he doesn't suffer a setback.	Feel free to use Robinson if he doesn't suffera setback.	226641821	1478092591218	1478092591321	 	32
443310	4773535	Feel free to use Robinson if he doesn't suffer a setback.	Feel free to use Robinson if he doesn't suffera setback.	226641822	1478092591809	1478092591922	s	83
443310	4773535	Feel free to use Robinson if he doesn't suffer a setback.	Feel free to use Robinson if he doesn't suffera setback.	226641823	1478092592094	1478092592175	u	85
443310	4773535	Feel free to use Robinson if he doesn't suffer a setback.	Feel free to use Robinson if he doesn't suffera setback.	226641825	1478092593322	1478092593373	f	70
443310	4773535	Feel free to use Robinson if he doesn't suffer a setback.	Feel free to use Robinson if he doesn't suffera setback.	226641855	1478092593479	1478092593578	f	70
443310	4773535	Feel free to use Robinson if he doesn't suffer a setback.	Feel free to use Robinson if he doesn't suffera setback.	226641859	1478092593594	1478092593695	e	69
443310	4773535	Feel free to use Robinson if he doesn't suffer a setback.	Feel free to use Robinson if he doesn't suffera setback.	226641862	1478092593726	1478092593812	r	82
443310	4773535	Feel free to use Robinson if he doesn't suffer a setback.	Feel free to use Robinson if he doesn't suffera setback.	226641864	1478092594031	1478092594161	a	65
443310	4773535	Feel free to use Robinson if he doesn't suffer a setback.	Feel free to use Robinson if he doesn't suffera setback.	226641866	1478092594192	1478092594301	 	32
443310	4773535	Feel free to use Robinson if he doesn't suffer a setback.	Feel free to use Robinson if he doesn't suffera setback.	226642037	1478092594693	1478092594798	s	83
443310	4773535	Feel free to use Robinson if he doesn't suffer a setback.	Feel free to use Robinson if he doesn't suffera setback.	226642038	1478092595003	1478092595098	e	69
443310	4773535	Feel free to use Robinson if he doesn't suffer a setback.	Feel free to use Robinson if he doesn't suffera setback.	226642039	1478092595145	1478092595233	t	84
443310	4773535	Feel free to use Robinson if he doesn't suffer a setback.	Feel free to use Robinson if he doesn't suffera setback.	226642042	1478092599171	1478092599227	b	66
443310	4773535	Feel free to use Robinson if he doesn't suffer a setback.	Feel free to use Robinson if he doesn't suffera setback.	226642044	1478092599415	1478092599524	a	65
443310	4773535	Feel free to use Robinson if he doesn't suffer a setback.	Feel free to use Robinson if he doesn't suffera setback.	226642075	1478092599782	1478092599892	c	67
443310	4773535	Feel free to use Robinson if he doesn't suffer a setback.	Feel free to use Robinson if he doesn't suffera setback.	226642081	1478092599971	1478092600044	k	75
443310	4773535	Feel free to use Robinson if he doesn't suffer a setback.	Feel free to use Robinson if he doesn't suffera setback.	226642085	1478092600540	1478092600609	.	190
443310	4773558	I am snowed under and out of the office.	I am snowed under and out of the office.	226642217	1478092603587	1478092603712	CAPS_LOCK	20
443310	4773558	I am snowed under and out of the office.	I am snowed under and out of the office.	226642219	1478092603775	1478092603884	I	73
443310	4773558	I am snowed under and out of the office.	I am snowed under and out of the office.	226642221	1478092603884	1478092604025	CAPS_LOCK	20
443310	4773558	I am snowed under and out of the office.	I am snowed under and out of the office.	226642226	1478092604087	1478092604216	 	32
443310	4773558	I am snowed under and out of the office.	I am snowed under and out of the office.	226642230	1478092604310	1478092604451	a	65
443310	4773558	I am snowed under and out of the office.	I am snowed under and out of the office.	226642235	1478092604451	1478092604585	n	78
443310	4773558	I am snowed under and out of the office.	I am snowed under and out of the office.	226642239	1478092605417	1478092605506	BKSP	8
443310	4773558	I am snowed under and out of the office.	I am snowed under and out of the office.	226642241	1478092605788	1478092605872	m	77
443310	4773558	I am snowed under and out of the office.	I am snowed under and out of the office.	226642319	1478092606031	1478092606156	 	32
443310	4773558	I am snowed under and out of the office.	I am snowed under and out of the office.	226642322	1478092606989	1478092607077	s	83
443310	4773558	I am snowed under and out of the office.	I am snowed under and out of the office.	226642325	1478092607108	1478092607241	n	78
443310	4773558	I am snowed under and out of the office.	I am snowed under and out of the office.	226642327	1478092607334	1478092607427	o	79
443310	4773558	I am snowed under and out of the office.	I am snowed under and out of the office.	226642329	1478092607834	1478092607945	w	87
443310	4773558	I am snowed under and out of the office.	I am snowed under and out of the office.	226642443	1478092608108	1478092608211	e	69
443310	4773558	I am snowed under and out of the office.	I am snowed under and out of the office.	226642444	1478092609219	1478092609330	d	68
443310	4773558	I am snowed under and out of the office.	I am snowed under and out of the office.	226642445	1478092609880	1478092610014	 	32
443310	4773558	I am snowed under and out of the office.	I am snowed under and out of the office.	226642446	1478092610310	1478092610400	u	85
443310	4773558	I am snowed under and out of the office.	I am snowed under and out of the office.	226642448	1478092610525	1478092610635	n	78
443310	4773558	I am snowed under and out of the office.	I am snowed under and out of the office.	226642489	1478092610731	1478092610866	d	68
443310	4773558	I am snowed under and out of the office.	I am snowed under and out of the office.	226642491	1478092611007	1478092611118	e	69
443310	4773558	I am snowed under and out of the office.	I am snowed under and out of the office.	226642494	1478092611134	1478092611220	r	82
443310	4773558	I am snowed under and out of the office.	I am snowed under and out of the office.	226642496	1478092611610	1478092611687	 	32
443310	4773558	I am snowed under and out of the office.	I am snowed under and out of the office.	226642499	1478092611875	1478092612080	a	65
443310	4773558	I am snowed under and out of the office.	I am snowed under and out of the office.	226642541	1478092612113	1478092612189	n	78
443310	4773558	I am snowed under and out of the office.	I am snowed under and out of the office.	226642542	1478092612267	1478092612387	d	68
443310	4773558	I am snowed under and out of the office.	I am snowed under and out of the office.	226642543	1478092612434	1478092612554	 	32
443310	4773558	I am snowed under and out of the office.	I am snowed under and out of the office.	226642544	1478092612759	1478092612856	o	79
443310	4773558	I am snowed under and out of the office.	I am snowed under and out of the office.	226642668	1478092613106	1478092613225	y	85
443310	4773558	I am snowed under and out of the office.	I am snowed under and out of the office.	226642669	1478092613256	1478092613405	t	84
443310	4773558	I am snowed under and out of the office.	I am snowed under and out of the office.	226642670	1478092614050	1478092614111	BKSP	8
443310	4773558	I am snowed under and out of the office.	I am snowed under and out of the office.	226642671	1478092614221	1478092614294	BKSP	8
443310	4773558	I am snowed under and out of the office.	I am snowed under and out of the office.	226642672	1478092614325	1478092614442	t	84
443310	4773558	I am snowed under and out of the office.	I am snowed under and out of the office.	226642673	1478092614614	1478092614711	 	32
443310	4773558	I am snowed under and out of the office.	I am snowed under and out of the office.	226642675	1478092615142	1478092615214	o	79
443310	4773558	I am snowed under and out of the office.	I am snowed under and out of the office.	226642678	1478092615370	1478092615495	f	70
443310	4773558	I am snowed under and out of the office.	I am snowed under and out of the office.	226642701	1478092615530	1478092615661	 	32
443310	4773558	I am snowed under and out of the office.	I am snowed under and out of the office.	226642707	1478092615677	1478092615795	t	84
443310	4773558	I am snowed under and out of the office.	I am snowed under and out of the office.	226642714	1478092615826	1478092615915	h	72
443310	4773558	I am snowed under and out of the office.	I am snowed under and out of the office.	226642718	1478092615962	1478092616094	e	69
443310	4773558	I am snowed under and out of the office.	I am snowed under and out of the office.	226642724	1478092616188	1478092616281	 	32
443310	4773558	I am snowed under and out of the office.	I am snowed under and out of the office.	226642790	1478092616895	1478092616968	o	79
443310	4773558	I am snowed under and out of the office.	I am snowed under and out of the office.	226642791	1478092617187	1478092617238	f	70
443310	4773558	I am snowed under and out of the office.	I am snowed under and out of the office.	226642792	1478092617331	1478092617418	f	70
443310	4773558	I am snowed under and out of the office.	I am snowed under and out of the office.	226642794	1478092617528	1478092617618	i	73
443310	4773558	I am snowed under and out of the office.	I am snowed under and out of the office.	226642796	1478092617681	1478092617833	c	67
443310	4773558	I am snowed under and out of the office.	I am snowed under and out of the office.	226642888	1478092617881	1478092618032	e	69
443310	4773558	I am snowed under and out of the office.	I am snowed under and out of the office.	226642891	1478092618521	1478092618590	,	190
443310	4773558	I am snowed under and out of the office.	I am snowed under and out of the office.	226642893	1478092619909	1478092619976	BKSP	8
443310	4773571	Not even in yet.	Not even in yet.	226643123	1478092623215	1478092623329	CAPS_LOCK	20
443310	4773571	Not even in yet.	Not even in yet.	226643128	1478092623454	1478092623563	CAPS_LOCK	20
443310	4773571	Not even in yet.	Not even in yet.	226643136	1478092623626	1478092623732	n	78
443310	4773571	Not even in yet.	Not even in yet.	226643141	1478092624627	1478092624719	BKSP	8
443310	4773571	Not even in yet.	Not even in yet.	226643145	1478092624813	1478092624907	CAPS_LOCK	20
443310	4773571	Not even in yet.	Not even in yet.	226643147	1478092625048	1478092625137	N	78
443310	4773571	Not even in yet.	Not even in yet.	226643152	1478092625547	1478092625636	CAPS_LOCK	20
443310	4773571	Not even in yet.	Not even in yet.	226643155	1478092625906	1478092625990	o	79
443310	4773571	Not even in yet.	Not even in yet.	226643262	1478092626289	1478092626382	y	84
443310	4773571	Not even in yet.	Not even in yet.	226643264	1478092627034	1478092627234	=	187
443310	4773571	Not even in yet.	Not even in yet.	226643265	1478092627451	1478092627544	BKSP	8
443310	4773571	Not even in yet.	Not even in yet.	226643266	1478092627638	1478092627742	BKSP	8
443310	4773571	Not even in yet.	Not even in yet.	226643267	1478092628434	1478092628528	 	32
443310	4773571	Not even in yet.	Not even in yet.	226643268	1478092628793	1478092628895	e	69
443310	4773571	Not even in yet.	Not even in yet.	226643269	1478092628910	1478092628965	v	86
443310	4773571	Not even in yet.	Not even in yet.	226643270	1478092628996	1478092629111	e	69
443310	4773571	Not even in yet.	Not even in yet.	226643320	1478092629461	1478092629579	n	78
443310	4773571	Not even in yet.	Not even in yet.	226643322	1478092629735	1478092629926	 	32
443310	4773571	Not even in yet.	Not even in yet.	226643324	1478092630145	1478092630233	i	73
443310	4773571	Not even in yet.	Not even in yet.	226643328	1478092630358	1478092630435	n	78
443310	4773571	Not even in yet.	Not even in yet.	226643332	1478092630544	1478092630821	 	32
443310	4773571	Not even in yet.	Not even in yet.	226643403	1478092630821	1478092630885	y	89
443310	4773571	Not even in yet.	Not even in yet.	226643405	1478092630994	1478092631115	e	69
443310	4773571	Not even in yet.	Not even in yet.	226643407	1478092631131	1478092631187	t	84
443310	4773571	Not even in yet.	Not even in yet.	226643413	1478092632002	1478092632196	.	190
443310	4773584	Are you going to apply?	Are you going to apply?	226643609	1478092636222	1478092636331	CAPS_LOCK	20
443310	4773584	Are you going to apply?	Are you going to apply?	226643612	1478092636487	1478092636581	A	65
443310	4773584	Are you going to apply?	Are you going to apply?	226643616	1478092636597	1478092636706	CAPS_LOCK	20
443310	4773584	Are you going to apply?	Are you going to apply?	226643621	1478092636878	1478092636981	r	82
443310	4773584	Are you going to apply?	Are you going to apply?	226643626	1478092637059	1478092637180	e	69
443310	4773584	Are you going to apply?	Are you going to apply?	226643630	1478092637399	1478092637514	 	32
443310	4773584	Are you going to apply?	Are you going to apply?	226643636	1478092638238	1478092638319	y	89
443310	4773584	Are you going to apply?	Are you going to apply?	226643669	1478092638399	1478092638501	o	79
443310	4773584	Are you going to apply?	Are you going to apply?	226643674	1478092638626	1478092638720	u	85
443310	4773584	Are you going to apply?	Are you going to apply?	226643678	1478092638860	1478092638937	 	32
443310	4773584	Are you going to apply?	Are you going to apply?	226643681	1478092639240	1478092639320	g	71
443310	4773584	Are you going to apply?	Are you going to apply?	226643683	1478092639539	1478092639652	o	79
443310	4773584	Are you going to apply?	Are you going to apply?	226643734	1478092639763	1478092639856	i	73
443310	4773584	Are you going to apply?	Are you going to apply?	226643738	1478092639981	1478092640073	n	78
443310	4773584	Are you going to apply?	Are you going to apply?	226643742	1478092640120	1478092640254	g	71
443310	4773584	Are you going to apply?	Are you going to apply?	226643746	1478092640394	1478092640489	 	32
443310	4773584	Are you going to apply?	Are you going to apply?	226643750	1478092641150	1478092641256	t	84
443310	4773584	Are you going to apply?	Are you going to apply?	226643804	1478092641319	1478092641409	o	79
443310	4773584	Are you going to apply?	Are you going to apply?	226643809	1478092641550	1478092641643	 	32
443310	4773584	Are you going to apply?	Are you going to apply?	226643815	1478092642096	1478092642210	a	65
443310	4773584	Are you going to apply?	Are you going to apply?	226643820	1478092642304	1478092642379	p	80
443310	4773584	Are you going to apply?	Are you going to apply?	226643823	1478092642488	1478092642547	p	80
443310	4773584	Are you going to apply?	Are you going to apply?	226643901	1478092642674	1478092642746	l	76
443310	4773584	Are you going to apply?	Are you going to apply?	226643903	1478092642996	1478092643064	y	89
443310	4773584	Are you going to apply?	Are you going to apply?	226643910	1478092643834	1478092644066	SHIFT	16
443310	4773584	Are you going to apply?	Are you going to apply?	226643906	1478092643975	1478092644066	?	191
443310	4773594	He will be evaluated on a day to day basis.	He will be evaluated on a day to day basis.	226644252	1478092647012	1478092647123	CAPS_LOCK	20
443310	4773594	He will be evaluated on a day to day basis.	He will be evaluated on a day to day basis.	226644257	1478092647154	1478092647209	H	72
443310	4773594	He will be evaluated on a day to day basis.	He will be evaluated on a day to day basis.	226644262	1478092647256	1478092647349	CAPS_LOCK	20
443310	4773594	He will be evaluated on a day to day basis.	He will be evaluated on a day to day basis.	226644266	1478092647537	1478092647639	w	87
443310	4773594	He will be evaluated on a day to day basis.	He will be evaluated on a day to day basis.	226644270	1478092648693	1478092648808	BKSP	8
443310	4773594	He will be evaluated on a day to day basis.	He will be evaluated on a day to day basis.	226644273	1478092649105	1478092649265	CAPS_LOCK	20
443310	4773594	He will be evaluated on a day to day basis.	He will be evaluated on a day to day basis.	226644276	1478092649639	1478092649791	E	69
443310	4773594	He will be evaluated on a day to day basis.	He will be evaluated on a day to day basis.	226644278	1478092650203	1478092650298	BKSP	8
443310	4773594	He will be evaluated on a day to day basis.	He will be evaluated on a day to day basis.	226644282	1478092650407	1478092650532	CAPS_LOCK	20
443310	4773594	He will be evaluated on a day to day basis.	He will be evaluated on a day to day basis.	226644286	1478092650893	1478092650998	e	69
443310	4773594	He will be evaluated on a day to day basis.	He will be evaluated on a day to day basis.	226644291	1478092651486	1478092651584	 	32
443310	4773594	He will be evaluated on a day to day basis.	He will be evaluated on a day to day basis.	226644353	1478092652446	1478092652535	w	87
443310	4773594	He will be evaluated on a day to day basis.	He will be evaluated on a day to day basis.	226644355	1478092652691	1478092652770	i	73
443310	4773594	He will be evaluated on a day to day basis.	He will be evaluated on a day to day basis.	226644360	1478092652974	1478092653054	l	76
443310	4773594	He will be evaluated on a day to day basis.	He will be evaluated on a day to day basis.	226644366	1478092653163	1478092653239	l	76
443310	4773594	He will be evaluated on a day to day basis.	He will be evaluated on a day to day basis.	226644370	1478092653411	1478092653505	 	32
443310	4773594	He will be evaluated on a day to day basis.	He will be evaluated on a day to day basis.	226644405	1478092653772	1478092653840	b	66
443310	4773594	He will be evaluated on a day to day basis.	He will be evaluated on a day to day basis.	226644407	1478092653965	1478092654087	e	69
443310	4773594	He will be evaluated on a day to day basis.	He will be evaluated on a day to day basis.	226644408	1478092654087	1478092654234	 	32
443310	4773594	He will be evaluated on a day to day basis.	He will be evaluated on a day to day basis.	226644410	1478092654375	1478092654472	e	69
443310	4773594	He will be evaluated on a day to day basis.	He will be evaluated on a day to day basis.	226644411	1478092654488	1478092654591	v	86
443310	4773594	He will be evaluated on a day to day basis.	He will be evaluated on a day to day basis.	226644527	1478092654702	1478092654853	a	65
443310	4773594	He will be evaluated on a day to day basis.	He will be evaluated on a day to day basis.	226644530	1478092655119	1478092655209	l	76
443310	4773594	He will be evaluated on a day to day basis.	He will be evaluated on a day to day basis.	226644531	1478092655573	1478092655604	u	85
443310	4773594	He will be evaluated on a day to day basis.	He will be evaluated on a day to day basis.	226644533	1478092656601	1478092656711	a	65
443310	4773594	He will be evaluated on a day to day basis.	He will be evaluated on a day to day basis.	226644535	1478092656883	1478092656964	t	84
443310	4773594	He will be evaluated on a day to day basis.	He will be evaluated on a day to day basis.	226644588	1478092657043	1478092657147	e	69
443310	4773594	He will be evaluated on a day to day basis.	He will be evaluated on a day to day basis.	226644590	1478092657272	1478092657379	d	68
443310	4773594	He will be evaluated on a day to day basis.	He will be evaluated on a day to day basis.	226644593	1478092657721	1478092657814	 	32
443310	4773594	He will be evaluated on a day to day basis.	He will be evaluated on a day to day basis.	226644596	1478092658381	1478092658483	o	79
443310	4773594	He will be evaluated on a day to day basis.	He will be evaluated on a day to day basis.	226644599	1478092658623	1478092658701	n	78
443310	4773594	He will be evaluated on a day to day basis.	He will be evaluated on a day to day basis.	226644673	1478092658796	1478092658900	 	32
443310	4773594	He will be evaluated on a day to day basis.	He will be evaluated on a day to day basis.	226644675	1478092658994	1478092659116	a	65
443310	4773594	He will be evaluated on a day to day basis.	He will be evaluated on a day to day basis.	226644679	1478092659183	1478092659300	 	32
443310	4773594	He will be evaluated on a day to day basis.	He will be evaluated on a day to day basis.	226644682	1478092660364	1478092660487	d	68
443310	4773594	He will be evaluated on a day to day basis.	He will be evaluated on a day to day basis.	226644686	1478092660580	1478092660686	a	65
443310	4773594	He will be evaluated on a day to day basis.	He will be evaluated on a day to day basis.	226644726	1478092660706	1478092660805	y	89
443310	4773594	He will be evaluated on a day to day basis.	He will be evaluated on a day to day basis.	226644728	1478092660977	1478092661088	 	32
443310	4773594	He will be evaluated on a day to day basis.	He will be evaluated on a day to day basis.	226644732	1478092661525	1478092661607	t	84
443310	4773594	He will be evaluated on a day to day basis.	He will be evaluated on a day to day basis.	226644735	1478092661701	1478092661807	o	79
443310	4773594	He will be evaluated on a day to day basis.	He will be evaluated on a day to day basis.	226644739	1478092661964	1478092662027	 	32
443310	4773594	He will be evaluated on a day to day basis.	He will be evaluated on a day to day basis.	226644788	1478092662153	1478092662274	d	68
443310	4773594	He will be evaluated on a day to day basis.	He will be evaluated on a day to day basis.	226644791	1478092662399	1478092662540	a	65
443310	4773594	He will be evaluated on a day to day basis.	He will be evaluated on a day to day basis.	226644794	1478092662553	1478092662673	y	89
443310	4773594	He will be evaluated on a day to day basis.	He will be evaluated on a day to day basis.	226644797	1478092662845	1478092662958	 	32
443310	4773594	He will be evaluated on a day to day basis.	He will be evaluated on a day to day basis.	226644798	1478092663333	1478092663428	b	66
443310	4773594	He will be evaluated on a day to day basis.	He will be evaluated on a day to day basis.	226644875	1478092663496	1478092663626	a	65
443310	4773594	He will be evaluated on a day to day basis.	He will be evaluated on a day to day basis.	226644877	1478092664001	1478092664097	s	83
443310	4773594	He will be evaluated on a day to day basis.	He will be evaluated on a day to day basis.	226644881	1478092664143	1478092664258	i	73
443310	4773594	He will be evaluated on a day to day basis.	He will be evaluated on a day to day basis.	226644885	1478092664230	1478092664346	s	83
443310	4773594	He will be evaluated on a day to day basis.	He will be evaluated on a day to day basis.	226644888	1478092665084	1478092665150	.	190
443310	4773616	I plan to be in the office tomorrow.	I plan to be in the office tomorrow.	226645079	1478092668266	1478092668392	CAPS_LOCK	20
443310	4773616	I plan to be in the office tomorrow.	I plan to be in the office tomorrow.	226645082	1478092668440	1478092668556	I	73
443310	4773616	I plan to be in the office tomorrow.	I plan to be in the office tomorrow.	226645084	1478092668556	1478092668681	CAPS_LOCK	20
443310	4773616	I plan to be in the office tomorrow.	I plan to be in the office tomorrow.	226645086	1478092668774	1478092668890	 	32
443310	4773616	I plan to be in the office tomorrow.	I plan to be in the office tomorrow.	226645088	1478092669424	1478092669510	p	80
443310	4773616	I plan to be in the office tomorrow.	I plan to be in the office tomorrow.	226645090	1478092669635	1478092669743	l	76
443310	4773616	I plan to be in the office tomorrow.	I plan to be in the office tomorrow.	226645094	1478092669868	1478092670008	a	65
443310	4773616	I plan to be in the office tomorrow.	I plan to be in the office tomorrow.	226645162	1478092670087	1478092670194	n	78
443310	4773616	I plan to be in the office tomorrow.	I plan to be in the office tomorrow.	226645164	1478092670475	1478092670579	 	32
443310	4773616	I plan to be in the office tomorrow.	I plan to be in the office tomorrow.	226645166	1478092671059	1478092671131	t	84
443310	4773616	I plan to be in the office tomorrow.	I plan to be in the office tomorrow.	226645168	1478092671225	1478092671330	o	79
443310	4773616	I plan to be in the office tomorrow.	I plan to be in the office tomorrow.	226645170	1478092671470	1478092671576	 	32
443310	4773616	I plan to be in the office tomorrow.	I plan to be in the office tomorrow.	226645191	1478092671671	1478092671781	b	66
443310	4773616	I plan to be in the office tomorrow.	I plan to be in the office tomorrow.	226645192	1478092671827	1478092671962	e	69
443310	4773616	I plan to be in the office tomorrow.	I plan to be in the office tomorrow.	226645193	1478092672009	1478092672115	 	32
443310	4773616	I plan to be in the office tomorrow.	I plan to be in the office tomorrow.	226645194	1478092672240	1478092672349	i	73
443310	4773616	I plan to be in the office tomorrow.	I plan to be in the office tomorrow.	226645195	1478092672427	1478092672533	n	78
443310	4773616	I plan to be in the office tomorrow.	I plan to be in the office tomorrow.	226645243	1478092672729	1478092672864	 	32
443310	4773616	I plan to be in the office tomorrow.	I plan to be in the office tomorrow.	226645245	1478092673384	1478092673500	t	84
443310	4773616	I plan to be in the office tomorrow.	I plan to be in the office tomorrow.	226645246	1478092673563	1478092673669	h	72
443310	4773616	I plan to be in the office tomorrow.	I plan to be in the office tomorrow.	226645248	1478092673857	1478092673968	e	69
443310	4773616	I plan to be in the office tomorrow.	I plan to be in the office tomorrow.	226645250	1478092674062	1478092674170	 	32
443310	4773616	I plan to be in the office tomorrow.	I plan to be in the office tomorrow.	226645322	1478092674673	1478092674757	o	79
443310	4773616	I plan to be in the office tomorrow.	I plan to be in the office tomorrow.	226645324	1478092674882	1478092674973	f	70
443310	4773616	I plan to be in the office tomorrow.	I plan to be in the office tomorrow.	226645326	1478092675067	1478092675142	f	70
443310	4773616	I plan to be in the office tomorrow.	I plan to be in the office tomorrow.	226645328	1478092675205	1478092675306	i	73
443310	4773616	I plan to be in the office tomorrow.	I plan to be in the office tomorrow.	226645330	1478092675369	1478092675504	c	67
443310	4773616	I plan to be in the office tomorrow.	I plan to be in the office tomorrow.	226645370	1478092675662	1478092675820	e	69
443310	4773616	I plan to be in the office tomorrow.	I plan to be in the office tomorrow.	226645372	1478092675914	1478092676008	 	32
443310	4773616	I plan to be in the office tomorrow.	I plan to be in the office tomorrow.	226645374	1478092676336	1478092676442	t	84
443310	4773616	I plan to be in the office tomorrow.	I plan to be in the office tomorrow.	226645376	1478092676598	1478092676708	o	79
443310	4773616	I plan to be in the office tomorrow.	I plan to be in the office tomorrow.	226645378	1478092676974	1478092677046	m	77
443310	4773616	I plan to be in the office tomorrow.	I plan to be in the office tomorrow.	226645469	1478092677219	1478092677343	m	77
443310	4773616	I plan to be in the office tomorrow.	I plan to be in the office tomorrow.	226645471	1478092678097	1478092678165	BKSP	8
443310	4773616	I plan to be in the office tomorrow.	I plan to be in the office tomorrow.	226645473	1478092678540	1478092678599	o	79
443310	4773616	I plan to be in the office tomorrow.	I plan to be in the office tomorrow.	226645476	1478092678865	1478092678918	r	82
443310	4773616	I plan to be in the office tomorrow.	I plan to be in the office tomorrow.	226645480	1478092679012	1478092679084	r	82
443310	4773616	I plan to be in the office tomorrow.	I plan to be in the office tomorrow.	226645486	1478092679167	1478092679250	o	79
443310	4773616	I plan to be in the office tomorrow.	I plan to be in the office tomorrow.	226645568	1478092679388	1478092679529	w	87
443310	4773616	I plan to be in the office tomorrow.	I plan to be in the office tomorrow.	226645572	1478092680409	1478092680487	.	190
443310	4773635	I would like it paid through I Buy It.	I would like it paid through I Buy It.	226645743	1478092683110	1478092683221	CAPS_LOCK	20
443310	4773635	I would like it paid through I Buy It.	I would like it paid through I Buy It.	226645745	1478092683299	1478092683440	I	73
443310	4773635	I would like it paid through I Buy It.	I would like it paid through I Buy It.	226645750	1478092683503	1478092683657	CAPS_LOCK	20
443310	4773635	I would like it paid through I Buy It.	I would like it paid through I Buy It.	226645754	1478092683652	1478092683743	 	32
443310	4773635	I would like it paid through I Buy It.	I would like it paid through I Buy It.	226645760	1478092684071	1478092684177	w	87
443310	4773635	I would like it paid through I Buy It.	I would like it paid through I Buy It.	226645764	1478092684380	1478092684478	o	79
443310	4773635	I would like it paid through I Buy It.	I would like it paid through I Buy It.	226645770	1478092684807	1478092684897	u	85
443310	4773635	I would like it paid through I Buy It.	I would like it paid through I Buy It.	226645856	1478092685237	1478092685345	l	76
443310	4773635	I would like it paid through I Buy It.	I would like it paid through I Buy It.	226645860	1478092685410	1478092685539	d	68
443310	4773635	I would like it paid through I Buy It.	I would like it paid through I Buy It.	226645863	1478092685660	1478092685780	 	32
443310	4773635	I would like it paid through I Buy It.	I would like it paid through I Buy It.	226645866	1478092686262	1478092686350	l	76
443310	4773635	I would like it paid through I Buy It.	I would like it paid through I Buy It.	226645870	1478092686490	1478092686569	i	73
443310	4773635	I would like it paid through I Buy It.	I would like it paid through I Buy It.	226646002	1478092686670	1478092686800	k	75
443310	4773635	I would like it paid through I Buy It.	I would like it paid through I Buy It.	226646004	1478092686784	1478092686916	e	69
443310	4773635	I would like it paid through I Buy It.	I would like it paid through I Buy It.	226646006	1478092687103	1478092687217	 	32
443310	4773635	I would like it paid through I Buy It.	I would like it paid through I Buy It.	226646008	1478092687752	1478092687807	o	79
443310	4773635	I would like it paid through I Buy It.	I would like it paid through I Buy It.	226646010	1478092688954	1478092689041	BKSP	8
443310	4773635	I would like it paid through I Buy It.	I would like it paid through I Buy It.	226646013	1478092689575	1478092689644	i	73
443310	4773635	I would like it paid through I Buy It.	I would like it paid through I Buy It.	226646092	1478092689869	1478092689960	t	84
443310	4773635	I would like it paid through I Buy It.	I would like it paid through I Buy It.	226646094	1478092690148	1478092690242	 	32
443310	4773635	I would like it paid through I Buy It.	I would like it paid through I Buy It.	226646098	1478092690872	1478092690961	p	80
443310	4773635	I would like it paid through I Buy It.	I would like it paid through I Buy It.	226646101	1478092691070	1478092691226	a	65
443310	4773635	I would like it paid through I Buy It.	I would like it paid through I Buy It.	226646105	1478092691304	1478092691428	i	73
443310	4773635	I would like it paid through I Buy It.	I would like it paid through I Buy It.	226646182	1478092691481	1478092691643	d	68
443310	4773635	I would like it paid through I Buy It.	I would like it paid through I Buy It.	226646183	1478092691705	1478092691813	 	32
443310	4773635	I would like it paid through I Buy It.	I would like it paid through I Buy It.	226646185	1478092692289	1478092692393	t	84
443310	4773635	I would like it paid through I Buy It.	I would like it paid through I Buy It.	226646187	1478092692457	1478092692517	h	72
443310	4773635	I would like it paid through I Buy It.	I would like it paid through I Buy It.	226646190	1478092692673	1478092692814	r	82
443310	4773635	I would like it paid through I Buy It.	I would like it paid through I Buy It.	226646248	1478092692976	1478092693114	o	79
443310	4773635	I would like it paid through I Buy It.	I would like it paid through I Buy It.	226646250	1478092693286	1478092693416	u	85
443310	4773635	I would like it paid through I Buy It.	I would like it paid through I Buy It.	226646252	1478092693541	1478092693635	g	71
443310	4773635	I would like it paid through I Buy It.	I would like it paid through I Buy It.	226646253	1478092693745	1478092693867	h	72
443310	4773635	I would like it paid through I Buy It.	I would like it paid through I Buy It.	226646254	1478092694039	1478092694151	 	32
443310	4773635	I would like it paid through I Buy It.	I would like it paid through I Buy It.	226646380	1478092694645	1478092694757	CAPS_LOCK	20
443310	4773635	I would like it paid through I Buy It.	I would like it paid through I Buy It.	226646382	1478092694835	1478092694968	I	73
443310	4773635	I would like it paid through I Buy It.	I would like it paid through I Buy It.	226646384	1478092695296	1478092695421	 	32
443310	4773635	I would like it paid through I Buy It.	I would like it paid through I Buy It.	226646386	1478092695546	1478092695624	CAPS_LOCK	20
443310	4773635	I would like it paid through I Buy It.	I would like it paid through I Buy It.	226646389	1478092696444	1478092696560	CAPS_LOCK	20
443310	4773635	I would like it paid through I Buy It.	I would like it paid through I Buy It.	226646391	1478092696546	1478092696641	B	66
443310	4773635	I would like it paid through I Buy It.	I would like it paid through I Buy It.	226646393	1478092697096	1478092697207	CAPS_LOCK	20
443310	4773635	I would like it paid through I Buy It.	I would like it paid through I Buy It.	226646395	1478092697494	1478092697588	u	85
443310	4773635	I would like it paid through I Buy It.	I would like it paid through I Buy It.	226646397	1478092697707	1478092697801	y	89
443310	4773635	I would like it paid through I Buy It.	I would like it paid through I Buy It.	226646496	1478092697955	1478092698062	 	32
443310	4773635	I would like it paid through I Buy It.	I would like it paid through I Buy It.	226646499	1478092698421	1478092698558	CAPS_LOCK	20
443310	4773635	I would like it paid through I Buy It.	I would like it paid through I Buy It.	226646505	1478092698613	1478092698713	I	73
443310	4773635	I would like it paid through I Buy It.	I would like it paid through I Buy It.	226646510	1478092698682	1478092698807	CAPS_LOCK	20
443310	4773635	I would like it paid through I Buy It.	I would like it paid through I Buy It.	226646514	1478092699124	1478092699198	t	84
443310	4773635	I would like it paid through I Buy It.	I would like it paid through I Buy It.	226646517	1478092699352	1478092699485	CAPS_LOCK	20
443310	4773635	I would like it paid through I Buy It.	I would like it paid through I Buy It.	226646520	1478092699765	1478092699819	.	190
443310	4773656	Hope that you have a great TG.	Hope that you have a great TG.	226646666	1478092702611	1478092702758	CAPS_LOCK	20
443310	4773656	Hope that you have a great TG.	Hope that you have a great TG.	226646667	1478092702841	1478092702924	h	72
443310	4773656	Hope that you have a great TG.	Hope that you have a great TG.	226646668	1478092702940	1478092703081	CAPS_LOCK	20
443310	4773656	Hope that you have a great TG.	Hope that you have a great TG.	226646669	1478092703247	1478092703359	O	79
443310	4773656	Hope that you have a great TG.	Hope that you have a great TG.	226646671	1478092703441	1478092703542	P	80
443310	4773656	Hope that you have a great TG.	Hope that you have a great TG.	226646673	1478092703573	1478092703707	E	69
443310	4773656	Hope that you have a great TG.	Hope that you have a great TG.	226646675	1478092703769	1478092703861	 	32
443310	4773656	Hope that you have a great TG.	Hope that you have a great TG.	226646833	1478092704379	1478092704479	T	84
443310	4773656	Hope that you have a great TG.	Hope that you have a great TG.	226646835	1478092704525	1478092704627	H	72
443310	4773656	Hope that you have a great TG.	Hope that you have a great TG.	226646836	1478092704689	1478092704841	A	65
443310	4773656	Hope that you have a great TG.	Hope that you have a great TG.	226646837	1478092704857	1478092704962	T	84
443310	4773656	Hope that you have a great TG.	Hope that you have a great TG.	226646838	1478092705605	1478092705698	BKSP	8
443310	4773656	Hope that you have a great TG.	Hope that you have a great TG.	226646839	1478092705792	1478092705880	BKSP	8
443310	4773656	Hope that you have a great TG.	Hope that you have a great TG.	226646840	1478092705974	1478092706032	BKSP	8
443310	4773656	Hope that you have a great TG.	Hope that you have a great TG.	226646841	1478092706142	1478092706217	BKSP	8
443310	4773656	Hope that you have a great TG.	Hope that you have a great TG.	226646842	1478092706315	1478092706384	BKSP	8
443310	4773656	Hope that you have a great TG.	Hope that you have a great TG.	226646843	1478092706478	1478092706567	BKSP	8
443310	4773656	Hope that you have a great TG.	Hope that you have a great TG.	226646844	1478092706660	1478092706750	BKSP	8
443310	4773656	Hope that you have a great TG.	Hope that you have a great TG.	226646846	1478092706828	1478092706933	BKSP	8
443310	4773656	Hope that you have a great TG.	Hope that you have a great TG.	226646848	1478092707232	1478092707332	BKSP	8
443310	4773656	Hope that you have a great TG.	Hope that you have a great TG.	226646852	1478092707811	1478092707962	CAPS_LOCK	20
443310	4773656	Hope that you have a great TG.	Hope that you have a great TG.	226647078	1478092707962	1478092708051	h	72
443310	4773656	Hope that you have a great TG.	Hope that you have a great TG.	226647082	1478092708792	1478092708900	BKSP	8
443310	4773656	Hope that you have a great TG.	Hope that you have a great TG.	226647086	1478092708955	1478092709097	CAPS_LOCK	20
443310	4773656	Hope that you have a great TG.	Hope that you have a great TG.	226647091	1478092709148	1478092709221	H	72
443310	4773656	Hope that you have a great TG.	Hope that you have a great TG.	226647096	1478092709565	1478092709712	CAPS_LOCK	20
443310	4773656	Hope that you have a great TG.	Hope that you have a great TG.	226647100	1478092709976	1478092710027	i	73
443310	4773656	Hope that you have a great TG.	Hope that you have a great TG.	226647104	1478092710785	1478092710858	BKSP	8
443310	4773656	Hope that you have a great TG.	Hope that you have a great TG.	226647107	1478092711227	1478092711311	o	79
443310	4773656	Hope that you have a great TG.	Hope that you have a great TG.	226647112	1478092711421	1478092711494	p	80
443310	4773656	Hope that you have a great TG.	Hope that you have a great TG.	226647115	1478092711510	1478092711659	e	69
443310	4773656	Hope that you have a great TG.	Hope that you have a great TG.	226647124	1478092711769	1478092711911	 	32
443310	4773656	Hope that you have a great TG.	Hope that you have a great TG.	226647125	1478092711893	1478092712011	t	84
443310	4773656	Hope that you have a great TG.	Hope that you have a great TG.	226647127	1478092712011	1478092712112	h	72
443310	4773656	Hope that you have a great TG.	Hope that you have a great TG.	226647129	1478092712191	1478092712343	a	65
443310	4773656	Hope that you have a great TG.	Hope that you have a great TG.	226647131	1478092712359	1478092712448	t	84
443310	4773656	Hope that you have a great TG.	Hope that you have a great TG.	226647181	1478092712652	1478092712732	 	32
443310	4773656	Hope that you have a great TG.	Hope that you have a great TG.	226647184	1478092713124	1478092713231	y	89
443310	4773656	Hope that you have a great TG.	Hope that you have a great TG.	226647188	1478092713278	1478092713366	o	79
443310	4773656	Hope that you have a great TG.	Hope that you have a great TG.	226647194	1478092713522	1478092713601	u	85
443310	4773656	Hope that you have a great TG.	Hope that you have a great TG.	226647201	1478092713757	1478092713913	 	32
443310	4773656	Hope that you have a great TG.	Hope that you have a great TG.	226647269	1478092713966	1478092714086	h	72
443310	4773656	Hope that you have a great TG.	Hope that you have a great TG.	226647271	1478092714019	1478092714196	a	65
443310	4773656	Hope that you have a great TG.	Hope that you have a great TG.	226647275	1478092714179	1478092714268	b	66
443310	4773656	Hope that you have a great TG.	Hope that you have a great TG.	226647280	1478092714331	1478092714466	e	69
443310	4773656	Hope that you have a great TG.	Hope that you have a great TG.	226647284	1478092714853	1478092714953	BKSP	8
443310	4773656	Hope that you have a great TG.	Hope that you have a great TG.	226647286	1478092715047	1478092715120	BKSP	8
443310	4773656	Hope that you have a great TG.	Hope that you have a great TG.	226647288	1478092715495	1478092715603	b	66
443310	4773656	Hope that you have a great TG.	Hope that you have a great TG.	226647401	1478092716189	1478092716288	BKSP	8
443310	4773656	Hope that you have a great TG.	Hope that you have a great TG.	226647402	1478092716792	1478092716874	v	86
443310	4773656	Hope that you have a great TG.	Hope that you have a great TG.	226647405	1478092717224	1478092717340	e	69
443310	4773656	Hope that you have a great TG.	Hope that you have a great TG.	226647407	1478092717953	1478092718091	 	32
443310	4773656	Hope that you have a great TG.	Hope that you have a great TG.	226647411	1478092718106	1478092718225	a	65
443310	4773656	Hope that you have a great TG.	Hope that you have a great TG.	226647414	1478092718319	1478092718426	 	32
443310	4773656	Hope that you have a great TG.	Hope that you have a great TG.	226647476	1478092719056	1478092719146	g	71
443310	4773656	Hope that you have a great TG.	Hope that you have a great TG.	226647479	1478092719396	1478092719481	r	82
443310	4773656	Hope that you have a great TG.	Hope that you have a great TG.	226647482	1478092719544	1478092719663	e	69
443310	4773656	Hope that you have a great TG.	Hope that you have a great TG.	226647483	1478092719725	1478092719846	a	65
443310	4773656	Hope that you have a great TG.	Hope that you have a great TG.	226647597	1478092719846	1478092719932	t	84
443310	4773656	Hope that you have a great TG.	Hope that you have a great TG.	226647598	1478092720246	1478092720333	 	32
443310	4773656	Hope that you have a great TG.	Hope that you have a great TG.	226647599	1478092720590	1478092720711	CAPS_LOCK	20
443310	4773656	Hope that you have a great TG.	Hope that you have a great TG.	226647600	1478092720839	1478092720916	T	84
443310	4773656	Hope that you have a great TG.	Hope that you have a great TG.	226647602	1478092721048	1478092721113	G	71
443310	4773656	Hope that you have a great TG.	Hope that you have a great TG.	226647603	1478092721302	1478092721421	CAPS_LOCK	20
443310	4773656	Hope that you have a great TG.	Hope that you have a great TG.	226647605	1478092721922	1478092721982	.	190
443310	4773671	The Mercedes engine takes advantage of extra boost.	The Mercedes engine takes advantage of extra boost.	226647733	1478092724225	1478092724350	CAPS_LOCK	20
443310	4773671	The Mercedes engine takes advantage of extra boost.	The Mercedes engine takes advantage of extra boost.	226647736	1478092724428	1478092724573	T	84
443310	4773671	The Mercedes engine takes advantage of extra boost.	The Mercedes engine takes advantage of extra boost.	226647738	1478092724542	1478092724698	CAPS_LOCK	20
443310	4773671	The Mercedes engine takes advantage of extra boost.	The Mercedes engine takes advantage of extra boost.	226647740	1478092724761	1478092724891	h	72
443310	4773671	The Mercedes engine takes advantage of extra boost.	The Mercedes engine takes advantage of extra boost.	226647742	1478092724938	1478092725059	e	69
443310	4773671	The Mercedes engine takes advantage of extra boost.	The Mercedes engine takes advantage of extra boost.	226647745	1478092725106	1478092725195	 	32
443310	4773671	The Mercedes engine takes advantage of extra boost.	The Mercedes engine takes advantage of extra boost.	226647748	1478092725382	1478092725507	CAPS_LOCK	20
443310	4773671	The Mercedes engine takes advantage of extra boost.	The Mercedes engine takes advantage of extra boost.	226647752	1478092725570	1478092725611	N	78
443310	4773671	The Mercedes engine takes advantage of extra boost.	The Mercedes engine takes advantage of extra boost.	226648016	1478092726508	1478092726598	BKSP	8
443310	4773671	The Mercedes engine takes advantage of extra boost.	The Mercedes engine takes advantage of extra boost.	226648019	1478092727103	1478092727176	M	77
443310	4773671	The Mercedes engine takes advantage of extra boost.	The Mercedes engine takes advantage of extra boost.	226648022	1478092727655	1478092727778	CAPS_LOCK	20
443310	4773671	The Mercedes engine takes advantage of extra boost.	The Mercedes engine takes advantage of extra boost.	226648024	1478092728143	1478092728232	e	69
443310	4773671	The Mercedes engine takes advantage of extra boost.	The Mercedes engine takes advantage of extra boost.	226648025	1478092728281	1478092728354	r	82
443310	4773671	The Mercedes engine takes advantage of extra boost.	The Mercedes engine takes advantage of extra boost.	226648027	1478092731524	1478092731610	e	69
443310	4773671	The Mercedes engine takes advantage of extra boost.	The Mercedes engine takes advantage of extra boost.	226648055	1478092731736	1478092731842	d	68
443310	4773671	The Mercedes engine takes advantage of extra boost.	The Mercedes engine takes advantage of extra boost.	226648058	1478092731920	1478092732010	e	69
443310	4773671	The Mercedes engine takes advantage of extra boost.	The Mercedes engine takes advantage of extra boost.	226648063	1478092732120	1478092732212	s	83
443310	4773671	The Mercedes engine takes advantage of extra boost.	The Mercedes engine takes advantage of extra boost.	226648067	1478092732337	1478092732444	 	32
443310	4773671	The Mercedes engine takes advantage of extra boost.	The Mercedes engine takes advantage of extra boost.	226648071	1478092732491	1478092732624	e	69
443310	4773671	The Mercedes engine takes advantage of extra boost.	The Mercedes engine takes advantage of extra boost.	226648102	1478092732847	1478092732945	n	78
443310	4773671	The Mercedes engine takes advantage of extra boost.	The Mercedes engine takes advantage of extra boost.	226648104	1478092733070	1478092733179	g	71
443310	4773671	The Mercedes engine takes advantage of extra boost.	The Mercedes engine takes advantage of extra boost.	226648106	1478092733304	1478092733413	i	73
443310	4773671	The Mercedes engine takes advantage of extra boost.	The Mercedes engine takes advantage of extra boost.	226648109	1478092733522	1478092733646	n	78
443310	4773671	The Mercedes engine takes advantage of extra boost.	The Mercedes engine takes advantage of extra boost.	226648112	1478092733677	1478092733797	e	69
443310	4773671	The Mercedes engine takes advantage of extra boost.	The Mercedes engine takes advantage of extra boost.	226648138	1478092733830	1478092733947	 	32
443310	4773671	The Mercedes engine takes advantage of extra boost.	The Mercedes engine takes advantage of extra boost.	226648141	1478092734167	1478092734250	t	84
443310	4773671	The Mercedes engine takes advantage of extra boost.	The Mercedes engine takes advantage of extra boost.	226648143	1478092734359	1478092734513	a	65
443310	4773671	The Mercedes engine takes advantage of extra boost.	The Mercedes engine takes advantage of extra boost.	226648147	1478092734575	1478092734699	k	75
443310	4773671	The Mercedes engine takes advantage of extra boost.	The Mercedes engine takes advantage of extra boost.	226648149	1478092734730	1478092734833	e	69
443310	4773671	The Mercedes engine takes advantage of extra boost.	The Mercedes engine takes advantage of extra boost.	226648190	1478092734969	1478092735098	s	83
443310	4773671	The Mercedes engine takes advantage of extra boost.	The Mercedes engine takes advantage of extra boost.	226648192	1478092735176	1478092735267	 	32
443310	4773671	The Mercedes engine takes advantage of extra boost.	The Mercedes engine takes advantage of extra boost.	226648193	1478092735567	1478092735691	a	65
443310	4773671	The Mercedes engine takes advantage of extra boost.	The Mercedes engine takes advantage of extra boost.	226648194	1478092735892	1478092736012	d	68
443310	4773671	The Mercedes engine takes advantage of extra boost.	The Mercedes engine takes advantage of extra boost.	226648195	1478092736300	1478092736388	v	86
443310	4773671	The Mercedes engine takes advantage of extra boost.	The Mercedes engine takes advantage of extra boost.	226648217	1478092736436	1478092736600	a	65
443310	4773671	The Mercedes engine takes advantage of extra boost.	The Mercedes engine takes advantage of extra boost.	226648219	1478092736616	1478092736705	n	78
443310	4773671	The Mercedes engine takes advantage of extra boost.	The Mercedes engine takes advantage of extra boost.	226648220	1478092736881	1478092736972	t	84
443310	4773671	The Mercedes engine takes advantage of extra boost.	The Mercedes engine takes advantage of extra boost.	226648221	1478092737034	1478092737197	a	65
443310	4773671	The Mercedes engine takes advantage of extra boost.	The Mercedes engine takes advantage of extra boost.	226648282	1478092737170	1478092737241	g	71
443310	4773671	The Mercedes engine takes advantage of extra boost.	The Mercedes engine takes advantage of extra boost.	226648285	1478092737335	1478092737455	e	69
443310	4773671	The Mercedes engine takes advantage of extra boost.	The Mercedes engine takes advantage of extra boost.	226648287	1478092737533	1478092737623	 	32
443310	4773671	The Mercedes engine takes advantage of extra boost.	The Mercedes engine takes advantage of extra boost.	226648289	1478092738158	1478092738251	o	79
443310	4773671	The Mercedes engine takes advantage of extra boost.	The Mercedes engine takes advantage of extra boost.	226648293	1478092738630	1478092738742	f	70
443310	4773671	The Mercedes engine takes advantage of extra boost.	The Mercedes engine takes advantage of extra boost.	226648295	1478092738773	1478092738877	 	32
443310	4773671	The Mercedes engine takes advantage of extra boost.	The Mercedes engine takes advantage of extra boost.	226648347	1478092739427	1478092739529	e	69
443310	4773671	The Mercedes engine takes advantage of extra boost.	The Mercedes engine takes advantage of extra boost.	226648350	1478092739841	1478092739977	x	88
443310	4773671	The Mercedes engine takes advantage of extra boost.	The Mercedes engine takes advantage of extra boost.	226648352	1478092740055	1478092740131	t	84
443310	4773671	The Mercedes engine takes advantage of extra boost.	The Mercedes engine takes advantage of extra boost.	226648353	1478092740272	1478092740348	r	82
443310	4773671	The Mercedes engine takes advantage of extra boost.	The Mercedes engine takes advantage of extra boost.	226648355	1478092740395	1478092740559	a	65
443310	4773671	The Mercedes engine takes advantage of extra boost.	The Mercedes engine takes advantage of extra boost.	226648401	1478092740623	1478092740699	 	32
443310	4773671	The Mercedes engine takes advantage of extra boost.	The Mercedes engine takes advantage of extra boost.	226648402	1478092741137	1478092741185	b	66
443310	4773671	The Mercedes engine takes advantage of extra boost.	The Mercedes engine takes advantage of extra boost.	226648403	1478092741435	1478092741501	o	79
443310	4773671	The Mercedes engine takes advantage of extra boost.	The Mercedes engine takes advantage of extra boost.	226648404	1478092741610	1478092741687	o	79
443310	4773671	The Mercedes engine takes advantage of extra boost.	The Mercedes engine takes advantage of extra boost.	226648405	1478092741750	1478092741882	s	83
443310	4773671	The Mercedes engine takes advantage of extra boost.	The Mercedes engine takes advantage of extra boost.	226648430	1478092741915	1478092741986	t	84
443310	4773671	The Mercedes engine takes advantage of extra boost.	The Mercedes engine takes advantage of extra boost.	226648432	1478092742522	1478092742588	.	190
443310	4773692	Lynn checked with Fran and she told her coordinator.	Lynn checked with Fran and she told her coordiator.	226648666	1478092744956	1478092745075	CAPS_LOCK	20
443310	4773692	Lynn checked with Fran and she told her coordinator.	Lynn checked with Fran and she told her coordiator.	226648668	1478092745286	1478092745411	CAPS_LOCK	20
443310	4773692	Lynn checked with Fran and she told her coordinator.	Lynn checked with Fran and she told her coordiator.	226648674	1478092745914	1478092746026	l	76
443310	4773692	Lynn checked with Fran and she told her coordinator.	Lynn checked with Fran and she told her coordiator.	226648678	1478092746717	1478092746796	BKSP	8
443310	4773692	Lynn checked with Fran and she told her coordinator.	Lynn checked with Fran and she told her coordiator.	226648681	1478092746953	1478092747081	CAPS_LOCK	20
443310	4773692	Lynn checked with Fran and she told her coordinator.	Lynn checked with Fran and she told her coordiator.	226648684	1478092747063	1478092747148	L	76
443310	4773692	Lynn checked with Fran and she told her coordinator.	Lynn checked with Fran and she told her coordiator.	226648686	1478092747601	1478092747698	CAPS_LOCK	20
443310	4773692	Lynn checked with Fran and she told her coordinator.	Lynn checked with Fran and she told her coordiator.	226648688	1478092748167	1478092748249	y	89
443310	4773692	Lynn checked with Fran and she told her coordinator.	Lynn checked with Fran and she told her coordiator.	226648690	1478092748955	1478092749051	n	78
443310	4773692	Lynn checked with Fran and she told her coordinator.	Lynn checked with Fran and she told her coordiator.	226648692	1478092749176	1478092749246	n	78
443310	4773692	Lynn checked with Fran and she told her coordinator.	Lynn checked with Fran and she told her coordiator.	226648752	1478092749409	1478092749501	 	32
443310	4773692	Lynn checked with Fran and she told her coordinator.	Lynn checked with Fran and she told her coordiator.	226648757	1478092750001	1478092750071	h	72
443310	4773692	Lynn checked with Fran and she told her coordinator.	Lynn checked with Fran and she told her coordiator.	226648759	1478092750212	1478092750335	e	69
443310	4773692	Lynn checked with Fran and she told her coordinator.	Lynn checked with Fran and she told her coordiator.	226648763	1478092750751	1478092750870	c	67
443310	4773692	Lynn checked with Fran and she told her coordinator.	Lynn checked with Fran and she told her coordiator.	226648766	1478092750948	1478092751054	k	75
443310	4773692	Lynn checked with Fran and she told her coordinator.	Lynn checked with Fran and she told her coordiator.	226648876	1478092751133	1478092751269	e	69
443310	4773692	Lynn checked with Fran and she told her coordinator.	Lynn checked with Fran and she told her coordiator.	226648878	1478092751850	1478092751941	BKSP	8
443310	4773692	Lynn checked with Fran and she told her coordinator.	Lynn checked with Fran and she told her coordiator.	226648879	1478092752050	1478092752140	BKSP	8
443310	4773692	Lynn checked with Fran and she told her coordinator.	Lynn checked with Fran and she told her coordiator.	226648881	1478092752234	1478092752324	BKSP	8
443310	4773692	Lynn checked with Fran and she told her coordinator.	Lynn checked with Fran and she told her coordiator.	226648883	1478092752402	1478092752492	BKSP	8
443310	4773692	Lynn checked with Fran and she told her coordinator.	Lynn checked with Fran and she told her coordiator.	226648885	1478092752571	1478092752659	BKSP	8
443310	4773692	Lynn checked with Fran and she told her coordinator.	Lynn checked with Fran and she told her coordiator.	226648887	1478092752753	1478092752826	BKSP	8
443310	4773692	Lynn checked with Fran and she told her coordinator.	Lynn checked with Fran and she told her coordiator.	226648889	1478092753311	1478092753425	 	32
443310	4773692	Lynn checked with Fran and she told her coordinator.	Lynn checked with Fran and she told her coordiator.	226648890	1478092753992	1478092754142	c	67
443310	4773692	Lynn checked with Fran and she told her coordinator.	Lynn checked with Fran and she told her coordiator.	226648892	1478092754173	1478092754248	h	72
443310	4773692	Lynn checked with Fran and she told her coordinator.	Lynn checked with Fran and she told her coordiator.	226648895	1478092754388	1478092754543	e	69
443310	4773692	Lynn checked with Fran and she told her coordinator.	Lynn checked with Fran and she told her coordiator.	226648920	1478092755124	1478092755277	c	67
443310	4773692	Lynn checked with Fran and she told her coordinator.	Lynn checked with Fran and she told her coordiator.	226648921	1478092755293	1478092755382	k	75
443310	4773692	Lynn checked with Fran and she told her coordinator.	Lynn checked with Fran and she told her coordiator.	226648922	1478092755476	1478092755582	e	69
443310	4773692	Lynn checked with Fran and she told her coordinator.	Lynn checked with Fran and she told her coordiator.	226648923	1478092755692	1478092755830	d	68
443310	4773692	Lynn checked with Fran and she told her coordinator.	Lynn checked with Fran and she told her coordiator.	226648925	1478092756027	1478092756227	 	32
443310	4773692	Lynn checked with Fran and she told her coordinator.	Lynn checked with Fran and she told her coordiator.	226648955	1478092756338	1478092756466	w	87
443310	4773692	Lynn checked with Fran and she told her coordinator.	Lynn checked with Fran and she told her coordiator.	226648957	1478092756669	1478092756784	i	73
443310	4773692	Lynn checked with Fran and she told her coordinator.	Lynn checked with Fran and she told her coordiator.	226648959	1478092756956	1478092757111	t	84
443310	4773692	Lynn checked with Fran and she told her coordinator.	Lynn checked with Fran and she told her coordiator.	226648961	1478092757102	1478092757196	h	72
443310	4773692	Lynn checked with Fran and she told her coordinator.	Lynn checked with Fran and she told her coordiator.	226648965	1478092757373	1478092757477	 	32
443310	4773692	Lynn checked with Fran and she told her coordinator.	Lynn checked with Fran and she told her coordiator.	226649079	1478092757528	1478092757666	CAPS_LOCK	20
443310	4773692	Lynn checked with Fran and she told her coordinator.	Lynn checked with Fran and she told her coordiator.	226649080	1478092758091	1478092758162	F	70
443310	4773692	Lynn checked with Fran and she told her coordinator.	Lynn checked with Fran and she told her coordiator.	226649081	1478092758231	1478092758369	CAPS_LOCK	20
443310	4773692	Lynn checked with Fran and she told her coordinator.	Lynn checked with Fran and she told her coordiator.	226649082	1478092758393	1478092758474	r	82
443310	4773692	Lynn checked with Fran and she told her coordinator.	Lynn checked with Fran and she told her coordiator.	226649083	1478092758599	1478092758737	a	65
443310	4773692	Lynn checked with Fran and she told her coordinator.	Lynn checked with Fran and she told her coordiator.	226649084	1478092758784	1478092758905	n	78
443310	4773692	Lynn checked with Fran and she told her coordinator.	Lynn checked with Fran and she told her coordiator.	226649085	1478092759486	1478092759576	BKSP	8
443310	4773692	Lynn checked with Fran and she told her coordinator.	Lynn checked with Fran and she told her coordiator.	226649086	1478092759670	1478092759744	BKSP	8
443310	4773692	Lynn checked with Fran and she told her coordinator.	Lynn checked with Fran and she told her coordiator.	226649087	1478092759838	1478092759927	BKSP	8
443310	4773692	Lynn checked with Fran and she told her coordinator.	Lynn checked with Fran and she told her coordiator.	226649089	1478092761627	1478092761714	r	82
443310	4773692	Lynn checked with Fran and she told her coordinator.	Lynn checked with Fran and she told her coordiator.	226649111	1478092761934	1478092762093	a	65
443310	4773692	Lynn checked with Fran and she told her coordinator.	Lynn checked with Fran and she told her coordiator.	226649112	1478092762109	1478092762199	n	78
443310	4773692	Lynn checked with Fran and she told her coordinator.	Lynn checked with Fran and she told her coordiator.	226649113	1478092762386	1478092762501	 	32
443310	4773692	Lynn checked with Fran and she told her coordinator.	Lynn checked with Fran and she told her coordiator.	226649114	1478092762563	1478092762699	a	65
443310	4773692	Lynn checked with Fran and she told her coordinator.	Lynn checked with Fran and she told her coordiator.	226649185	1478092762666	1478092762782	n	78
443310	4773692	Lynn checked with Fran and she told her coordinator.	Lynn checked with Fran and she told her coordiator.	226649189	1478092762845	1478092762980	d	68
443310	4773692	Lynn checked with Fran and she told her coordinator.	Lynn checked with Fran and she told her coordiator.	226649191	1478092762996	1478092763116	 	32
443310	4773692	Lynn checked with Fran and she told her coordinator.	Lynn checked with Fran and she told her coordiator.	226649194	1478092763697	1478092763927	s	83
443310	4773692	Lynn checked with Fran and she told her coordinator.	Lynn checked with Fran and she told her coordiator.	226649197	1478092763958	1478092764052	h	72
443310	4773692	Lynn checked with Fran and she told her coordinator.	Lynn checked with Fran and she told her coordiator.	226649199	1478092764084	1478092764217	e	69
443310	4773692	Lynn checked with Fran and she told her coordinator.	Lynn checked with Fran and she told her coordiator.	226649233	1478092764312	1478092764420	 	32
443310	4773692	Lynn checked with Fran and she told her coordinator.	Lynn checked with Fran and she told her coordiator.	226649235	1478092764732	1478092764842	t	84
443310	4773692	Lynn checked with Fran and she told her coordinator.	Lynn checked with Fran and she told her coordiator.	226649237	1478092765045	1478092765123	o	79
443310	4773692	Lynn checked with Fran and she told her coordinator.	Lynn checked with Fran and she told her coordiator.	226649238	1478092765248	1478092765340	l	76
443310	4773692	Lynn checked with Fran and she told her coordinator.	Lynn checked with Fran and she told her coordiator.	226649240	1478092765418	1478092765538	d	68
443310	4773692	Lynn checked with Fran and she told her coordinator.	Lynn checked with Fran and she told her coordiator.	226649265	1478092765577	1478092765720	 	32
443310	4773692	Lynn checked with Fran and she told her coordinator.	Lynn checked with Fran and she told her coordiator.	226649267	1478092765826	1478092765954	h	72
443310	4773692	Lynn checked with Fran and she told her coordinator.	Lynn checked with Fran and she told her coordiator.	226649270	1478092766037	1478092766172	e	69
443310	4773692	Lynn checked with Fran and she told her coordinator.	Lynn checked with Fran and she told her coordiator.	226649273	1478092766219	1478092766340	r	82
443310	4773692	Lynn checked with Fran and she told her coordinator.	Lynn checked with Fran and she told her coordiator.	226649276	1478092766637	1478092766740	 	32
443310	4773692	Lynn checked with Fran and she told her coordinator.	Lynn checked with Fran and she told her coordiator.	226649349	1478092767190	1478092767294	c	67
443310	4773692	Lynn checked with Fran and she told her coordinator.	Lynn checked with Fran and she told her coordiator.	226649353	1478092767434	1478092767528	o	79
443310	4773692	Lynn checked with Fran and she told her coordinator.	Lynn checked with Fran and she told her coordiator.	226649357	1478092768660	1478092768732	o	79
443310	4773692	Lynn checked with Fran and she told her coordinator.	Lynn checked with Fran and she told her coordiator.	226649359	1478092768873	1478092768964	r	82
443310	4773692	Lynn checked with Fran and she told her coordinator.	Lynn checked with Fran and she told her coordiator.	226649360	1478092769261	1478092769365	d	68
443310	4773692	Lynn checked with Fran and she told her coordinator.	Lynn checked with Fran and she told her coordiator.	226649397	1478092769493	1478092769583	i	73
443310	4773692	Lynn checked with Fran and she told her coordinator.	Lynn checked with Fran and she told her coordiator.	226649399	1478092769989	1478092770115	a	65
443310	4773692	Lynn checked with Fran and she told her coordinator.	Lynn checked with Fran and she told her coordiator.	226649401	1478092770287	1478092770400	t	84
443310	4773692	Lynn checked with Fran and she told her coordinator.	Lynn checked with Fran and she told her coordiator.	226649402	1478092770540	1478092770650	o	79
443310	4773692	Lynn checked with Fran and she told her coordinator.	Lynn checked with Fran and she told her coordiator.	226649403	1478092770806	1478092770964	r	82
443310	4773692	Lynn checked with Fran and she told her coordinator.	Lynn checked with Fran and she told her coordiator.	226649449	1478092771641	1478092771707	.	190
443310	4773708	England star Paul Gascoigne was one of the recipients of the loans.	England star paul Gascoigne was one of the recepients of the loans.	226649543	1478092775512	1478092775653	CAPS_LOCK	20
443310	4773708	England star Paul Gascoigne was one of the recipients of the loans.	England star paul Gascoigne was one of the recepients of the loans.	226649545	1478092775748	1478092775845	E	69
443310	4773708	England star Paul Gascoigne was one of the recipients of the loans.	England star paul Gascoigne was one of the recepients of the loans.	226649547	1478092775927	1478092776072	CAPS_LOCK	20
443310	4773708	England star Paul Gascoigne was one of the recipients of the loans.	England star paul Gascoigne was one of the recepients of the loans.	226649549	1478092776288	1478092776399	n	78
443310	4773708	England star Paul Gascoigne was one of the recipients of the loans.	England star paul Gascoigne was one of the recepients of the loans.	226649551	1478092776539	1478092776601	g	71
443310	4773708	England star Paul Gascoigne was one of the recipients of the loans.	England star paul Gascoigne was one of the recepients of the loans.	226649553	1478092776883	1478092777015	l	76
443310	4773708	England star Paul Gascoigne was one of the recipients of the loans.	England star paul Gascoigne was one of the recepients of the loans.	226649554	1478092777046	1478092777182	a	65
443310	4773708	England star Paul Gascoigne was one of the recipients of the loans.	England star paul Gascoigne was one of the recepients of the loans.	226649585	1478092777182	1478092777299	n	78
443310	4773708	England star Paul Gascoigne was one of the recipients of the loans.	England star paul Gascoigne was one of the recepients of the loans.	226649588	1478092777330	1478092777465	d	68
443310	4773708	England star Paul Gascoigne was one of the recipients of the loans.	England star paul Gascoigne was one of the recepients of the loans.	226649593	1478092777528	1478092777620	 	32
443310	4773708	England star Paul Gascoigne was one of the recipients of the loans.	England star paul Gascoigne was one of the recepients of the loans.	226649594	1478092778082	1478092778202	s	83
443310	4773708	England star Paul Gascoigne was one of the recipients of the loans.	England star paul Gascoigne was one of the recepients of the loans.	226649598	1478092778233	1478092778321	t	84
443310	4773708	England star Paul Gascoigne was one of the recipients of the loans.	England star paul Gascoigne was one of the recepients of the loans.	226649601	1478092778352	1478092778501	a	65
443310	4773708	England star Paul Gascoigne was one of the recipients of the loans.	England star paul Gascoigne was one of the recepients of the loans.	226649642	1478092778501	1478092778588	r	82
443310	4773708	England star Paul Gascoigne was one of the recipients of the loans.	England star paul Gascoigne was one of the recepients of the loans.	226649643	1478092778823	1478092778922	 	32
443310	4773708	England star Paul Gascoigne was one of the recipients of the loans.	England star paul Gascoigne was one of the recepients of the loans.	226649644	1478092779392	1478092779505	p	80
443310	4773708	England star Paul Gascoigne was one of the recipients of the loans.	England star paul Gascoigne was one of the recepients of the loans.	226649645	1478092779521	1478092779669	a	65
443310	4773708	England star Paul Gascoigne was one of the recipients of the loans.	England star paul Gascoigne was one of the recepients of the loans.	226649647	1478092779763	1478092779842	u	85
443310	4773708	England star Paul Gascoigne was one of the recipients of the loans.	England star paul Gascoigne was one of the recepients of the loans.	226649651	1478092780004	1478092780127	l	76
443310	4773708	England star Paul Gascoigne was one of the recipients of the loans.	England star paul Gascoigne was one of the recepients of the loans.	226649772	1478092780284	1478092780361	 	32
443310	4773708	England star Paul Gascoigne was one of the recipients of the loans.	England star paul Gascoigne was one of the recepients of the loans.	226649773	1478092781285	1478092781377	g	71
443310	4773708	England star Paul Gascoigne was one of the recipients of the loans.	England star paul Gascoigne was one of the recepients of the loans.	226649774	1478092781699	1478092781857	a	65
443310	4773708	England star Paul Gascoigne was one of the recipients of the loans.	England star paul Gascoigne was one of the recepients of the loans.	226649775	1478092781989	1478092782110	s	83
443310	4773708	England star Paul Gascoigne was one of the recipients of the loans.	England star paul Gascoigne was one of the recepients of the loans.	226649776	1478092782958	1478092783032	BKSP	8
443310	4773708	England star Paul Gascoigne was one of the recipients of the loans.	England star paul Gascoigne was one of the recepients of the loans.	226649777	1478092783126	1478092783198	BKSP	8
443310	4773708	England star Paul Gascoigne was one of the recipients of the loans.	England star paul Gascoigne was one of the recepients of the loans.	226649778	1478092783308	1478092783374	BKSP	8
443310	4773708	England star Paul Gascoigne was one of the recipients of the loans.	England star paul Gascoigne was one of the recepients of the loans.	226649779	1478092783682	1478092783807	CAPS_LOCK	20
443310	4773708	England star Paul Gascoigne was one of the recipients of the loans.	England star paul Gascoigne was one of the recepients of the loans.	226649780	1478092783903	1478092783985	G	71
443310	4773708	England star Paul Gascoigne was one of the recipients of the loans.	England star paul Gascoigne was one of the recepients of the loans.	226649881	1478092784033	1478092784221	CAPS_LOCK	20
443310	4773708	England star Paul Gascoigne was one of the recipients of the loans.	England star paul Gascoigne was one of the recepients of the loans.	226649884	1478092784437	1478092784575	a	65
443310	4773708	England star Paul Gascoigne was one of the recipients of the loans.	England star paul Gascoigne was one of the recepients of the loans.	226649887	1478092784711	1478092784817	s	83
443310	4773708	England star Paul Gascoigne was one of the recipients of the loans.	England star paul Gascoigne was one of the recepients of the loans.	226649889	1478092786027	1478092786153	c	67
443310	4773708	England star Paul Gascoigne was one of the recipients of the loans.	England star paul Gascoigne was one of the recepients of the loans.	226649891	1478092786340	1478092786470	o	79
443310	4773708	England star Paul Gascoigne was one of the recipients of the loans.	England star paul Gascoigne was one of the recepients of the loans.	226649893	1478092787005	1478092787108	i	73
443310	4773708	England star Paul Gascoigne was one of the recipients of the loans.	England star paul Gascoigne was one of the recepients of the loans.	226649915	1478092787845	1478092787911	g	71
443310	4773708	England star Paul Gascoigne was one of the recipients of the loans.	England star paul Gascoigne was one of the recepients of the loans.	226649916	1478092788099	1478092788226	n	78
443310	4773708	England star Paul Gascoigne was one of the recipients of the loans.	England star paul Gascoigne was one of the recepients of the loans.	226649917	1478092788242	1478092788375	e	69
443310	4773708	England star Paul Gascoigne was one of the recipients of the loans.	England star paul Gascoigne was one of the recepients of the loans.	226649918	1478092788407	1478092788527	 	32
443310	4773708	England star Paul Gascoigne was one of the recipients of the loans.	England star paul Gascoigne was one of the recepients of the loans.	226649919	1478092788918	1478092789028	w	87
443310	4773708	England star Paul Gascoigne was one of the recipients of the loans.	England star paul Gascoigne was one of the recepients of the loans.	226649947	1478092789161	1478092789342	a	65
443310	4773708	England star Paul Gascoigne was one of the recipients of the loans.	England star paul Gascoigne was one of the recepients of the loans.	226649949	1478092789342	1478092789494	s	83
443310	4773708	England star Paul Gascoigne was one of the recipients of the loans.	England star paul Gascoigne was one of the recepients of the loans.	226649950	1478092789566	1478092789665	 	32
443310	4773708	England star Paul Gascoigne was one of the recipients of the loans.	England star paul Gascoigne was one of the recepients of the loans.	226649951	1478092790056	1478092790165	o	79
443310	4773708	England star Paul Gascoigne was one of the recipients of the loans.	England star paul Gascoigne was one of the recepients of the loans.	226649952	1478092790274	1478092790382	n	78
443310	4773708	England star Paul Gascoigne was one of the recipients of the loans.	England star paul Gascoigne was one of the recepients of the loans.	226649975	1478092790446	1478092790565	e	69
443310	4773708	England star Paul Gascoigne was one of the recipients of the loans.	England star paul Gascoigne was one of the recepients of the loans.	226649977	1478092790580	1478092790684	 	32
443310	4773708	England star Paul Gascoigne was one of the recipients of the loans.	England star paul Gascoigne was one of the recepients of the loans.	226649979	1478092791170	1478092791277	o	79
443310	4773708	England star Paul Gascoigne was one of the recipients of the loans.	England star paul Gascoigne was one of the recepients of the loans.	226649981	1478092791472	1478092791632	f	70
443310	4773708	England star Paul Gascoigne was one of the recipients of the loans.	England star paul Gascoigne was one of the recepients of the loans.	226650014	1478092791625	1478092791767	 	32
443310	4773708	England star Paul Gascoigne was one of the recipients of the loans.	England star paul Gascoigne was one of the recepients of the loans.	226650017	1478092791783	1478092791901	t	84
443310	4773708	England star Paul Gascoigne was one of the recipients of the loans.	England star paul Gascoigne was one of the recepients of the loans.	226650020	1478092791901	1478092791987	h	72
443310	4773708	England star Paul Gascoigne was one of the recipients of the loans.	England star paul Gascoigne was one of the recepients of the loans.	226650024	1478092792080	1478092792220	e	69
443310	4773708	England star Paul Gascoigne was one of the recipients of the loans.	England star paul Gascoigne was one of the recepients of the loans.	226650026	1478092792267	1478092792371	 	32
443310	4773708	England star Paul Gascoigne was one of the recipients of the loans.	England star paul Gascoigne was one of the recepients of the loans.	226650028	1478092792841	1478092792937	r	82
443310	4773708	England star Paul Gascoigne was one of the recipients of the loans.	England star paul Gascoigne was one of the recepients of the loans.	226650061	1478092792991	1478092793104	e	69
443310	4773708	England star Paul Gascoigne was one of the recipients of the loans.	England star paul Gascoigne was one of the recepients of the loans.	226650064	1478092793136	1478092793239	c	67
443310	4773708	England star Paul Gascoigne was one of the recipients of the loans.	England star paul Gascoigne was one of the recepients of the loans.	226650067	1478092793286	1478092793420	e	69
443310	4773708	England star Paul Gascoigne was one of the recipients of the loans.	England star paul Gascoigne was one of the recepients of the loans.	226650070	1478092794002	1478092794092	p	80
443310	4773708	England star Paul Gascoigne was one of the recipients of the loans.	England star paul Gascoigne was one of the recepients of the loans.	226650072	1478092794264	1478092794341	i	73
443310	4773708	England star Paul Gascoigne was one of the recipients of the loans.	England star paul Gascoigne was one of the recepients of the loans.	226650083	1478092794602	1478092794728	e	69
443310	4773708	England star Paul Gascoigne was one of the recipients of the loans.	England star paul Gascoigne was one of the recepients of the loans.	226650086	1478092794780	1478092794875	n	78
443310	4773708	England star Paul Gascoigne was one of the recipients of the loans.	England star paul Gascoigne was one of the recepients of the loans.	226650089	1478092795078	1478092795177	t	84
443310	4773708	England star Paul Gascoigne was one of the recipients of the loans.	England star paul Gascoigne was one of the recepients of the loans.	226650092	1478092795240	1478092795390	s	83
443310	4773708	England star Paul Gascoigne was one of the recipients of the loans.	England star paul Gascoigne was one of the recepients of the loans.	226650097	1478092795422	1478092795512	 	32
443310	4773708	England star Paul Gascoigne was one of the recipients of the loans.	England star paul Gascoigne was one of the recepients of the loans.	226650133	1478092795954	1478092796059	o	79
443310	4773708	England star Paul Gascoigne was one of the recipients of the loans.	England star paul Gascoigne was one of the recepients of the loans.	226650135	1478092796153	1478092796278	f	70
443310	4773708	England star Paul Gascoigne was one of the recipients of the loans.	England star paul Gascoigne was one of the recepients of the loans.	226650136	1478092796293	1478092796428	 	32
443310	4773708	England star Paul Gascoigne was one of the recipients of the loans.	England star paul Gascoigne was one of the recepients of the loans.	226650137	1478092796460	1478092796546	t	84
443310	4773708	England star Paul Gascoigne was one of the recipients of the loans.	England star paul Gascoigne was one of the recepients of the loans.	226650138	1478092796577	1478092796649	h	72
443310	4773708	England star Paul Gascoigne was one of the recipients of the loans.	England star paul Gascoigne was one of the recepients of the loans.	226650217	1478092796720	1478092796877	e	69
443310	4773708	England star Paul Gascoigne was one of the recipients of the loans.	England star paul Gascoigne was one of the recepients of the loans.	226650219	1478092796909	1478092797013	 	32
443310	4773708	England star Paul Gascoigne was one of the recipients of the loans.	England star paul Gascoigne was one of the recepients of the loans.	226650221	1478092797879	1478092797983	l	76
443310	4773708	England star Paul Gascoigne was one of the recipients of the loans.	England star paul Gascoigne was one of the recepients of the loans.	226650223	1478092798108	1478092798216	o	79
443310	4773708	England star Paul Gascoigne was one of the recipients of the loans.	England star paul Gascoigne was one of the recepients of the loans.	226650226	1478092798876	1478092799001	a	65
443310	4773708	England star Paul Gascoigne was one of the recipients of the loans.	England star paul Gascoigne was one of the recepients of the loans.	226650263	1478092799018	1478092799120	n	78
443310	4773708	England star Paul Gascoigne was one of the recipients of the loans.	England star paul Gascoigne was one of the recepients of the loans.	226650266	1478092799136	1478092799299	s	83
443310	4773708	England star Paul Gascoigne was one of the recipients of the loans.	England star paul Gascoigne was one of the recepients of the loans.	226650269	1478092800053	1478092800111	.	190
443310	4773722	Valerie, the prices look fine in Sitara.	Valerie, the prices look fine in sitara.	226650382	1478092803526	1478092803682	CAPS_LOCK	20
443310	4773722	Valerie, the prices look fine in Sitara.	Valerie, the prices look fine in sitara.	226650385	1478092803729	1478092803816	V	86
443310	4773722	Valerie, the prices look fine in Sitara.	Valerie, the prices look fine in sitara.	226650387	1478092803878	1478092804034	CAPS_LOCK	20
443310	4773722	Valerie, the prices look fine in Sitara.	Valerie, the prices look fine in sitara.	226650389	1478092804365	1478092804513	a	65
443310	4773722	Valerie, the prices look fine in Sitara.	Valerie, the prices look fine in sitara.	226650391	1478092805816	1478092805886	l	76
443310	4773722	Valerie, the prices look fine in Sitara.	Valerie, the prices look fine in sitara.	226650392	1478092806058	1478092806200	e	69
443310	4773722	Valerie, the prices look fine in Sitara.	Valerie, the prices look fine in sitara.	226650393	1478092806406	1478092806505	r	82
443310	4773722	Valerie, the prices look fine in Sitara.	Valerie, the prices look fine in sitara.	226650457	1478092806568	1478092806687	i	73
443310	4773722	Valerie, the prices look fine in Sitara.	Valerie, the prices look fine in sitara.	226650458	1478092806687	1478092806835	e	69
443310	4773722	Valerie, the prices look fine in Sitara.	Valerie, the prices look fine in sitara.	226650459	1478092807697	1478092807759	,	188
443310	4773722	Valerie, the prices look fine in Sitara.	Valerie, the prices look fine in sitara.	226650460	1478092807884	1478092807991	 	32
443310	4773722	Valerie, the prices look fine in Sitara.	Valerie, the prices look fine in sitara.	226650461	1478092808022	1478092808179	CAPS_LOCK	20
443310	4773722	Valerie, the prices look fine in Sitara.	Valerie, the prices look fine in sitara.	226650463	1478092808869	1478092809029	CAPS_LOCK	20
443310	4773722	Valerie, the prices look fine in Sitara.	Valerie, the prices look fine in sitara.	226650465	1478092809092	1478092809226	t	84
443310	4773722	Valerie, the prices look fine in Sitara.	Valerie, the prices look fine in sitara.	226650507	1478092809422	1478092809569	h	72
443310	4773722	Valerie, the prices look fine in Sitara.	Valerie, the prices look fine in sitara.	226650509	1478092809552	1478092809676	e	69
443310	4773722	Valerie, the prices look fine in Sitara.	Valerie, the prices look fine in sitara.	226650510	1478092809739	1478092809846	 	32
443310	4773722	Valerie, the prices look fine in Sitara.	Valerie, the prices look fine in sitara.	226650512	1478092810380	1478092810496	p	80
443310	4773722	Valerie, the prices look fine in Sitara.	Valerie, the prices look fine in sitara.	226650514	1478092810574	1478092810681	r	82
443310	4773722	Valerie, the prices look fine in Sitara.	Valerie, the prices look fine in sitara.	226650572	1478092810791	1478092810868	i	79
443310	4773722	Valerie, the prices look fine in Sitara.	Valerie, the prices look fine in sitara.	226650573	1478092811543	1478092811650	BKSP	8
443310	4773722	Valerie, the prices look fine in Sitara.	Valerie, the prices look fine in sitara.	226650576	1478092812056	1478092812135	BKSP	8
443310	4773722	Valerie, the prices look fine in Sitara.	Valerie, the prices look fine in sitara.	226650579	1478092812717	1478092812787	i	73
443310	4773722	Valerie, the prices look fine in Sitara.	Valerie, the prices look fine in sitara.	226650583	1478092812881	1478092813079	c	67
443310	4773722	Valerie, the prices look fine in Sitara.	Valerie, the prices look fine in sitara.	226650586	1478092813108	1478092813235	e	69
443310	4773722	Valerie, the prices look fine in Sitara.	Valerie, the prices look fine in sitara.	226650620	1478092813346	1478092813485	s	83
443310	4773722	Valerie, the prices look fine in Sitara.	Valerie, the prices look fine in sitara.	226650621	1478092813563	1478092813702	 	32
443310	4773722	Valerie, the prices look fine in Sitara.	Valerie, the prices look fine in sitara.	226650622	1478092814226	1478092814340	l	76
443310	4773722	Valerie, the prices look fine in Sitara.	Valerie, the prices look fine in sitara.	226650623	1478092814528	1478092814598	o	79
443310	4773722	Valerie, the prices look fine in Sitara.	Valerie, the prices look fine in sitara.	226650624	1478092814691	1478092814759	o	79
443310	4773722	Valerie, the prices look fine in Sitara.	Valerie, the prices look fine in sitara.	226650661	1478092814885	1478092814991	k	75
443310	4773722	Valerie, the prices look fine in Sitara.	Valerie, the prices look fine in sitara.	226650663	1478092815163	1478092815291	 	32
443310	4773722	Valerie, the prices look fine in Sitara.	Valerie, the prices look fine in sitara.	226650665	1478092815642	1478092815777	f	70
443310	4773722	Valerie, the prices look fine in Sitara.	Valerie, the prices look fine in sitara.	226650668	1478092815836	1478092815932	i	73
443310	4773722	Valerie, the prices look fine in Sitara.	Valerie, the prices look fine in sitara.	226650671	1478092816036	1478092816159	n	78
443310	4773722	Valerie, the prices look fine in Sitara.	Valerie, the prices look fine in sitara.	226650696	1478092816176	1478092816324	e	69
443310	4773722	Valerie, the prices look fine in Sitara.	Valerie, the prices look fine in sitara.	226650697	1478092816339	1478092816461	 	32
443310	4773722	Valerie, the prices look fine in Sitara.	Valerie, the prices look fine in sitara.	226650700	1478092816586	1478092816696	i	73
443310	4773722	Valerie, the prices look fine in Sitara.	Valerie, the prices look fine in sitara.	226650703	1478092816807	1478092816896	n	78
443310	4773722	Valerie, the prices look fine in Sitara.	Valerie, the prices look fine in sitara.	226650706	1478092817162	1478092817247	 	32
443310	4773722	Valerie, the prices look fine in Sitara.	Valerie, the prices look fine in sitara.	226650757	1478092817360	1478092817511	s	83
443310	4773722	Valerie, the prices look fine in Sitara.	Valerie, the prices look fine in sitara.	226650758	1478092818295	1478092818368	i	73
443310	4773722	Valerie, the prices look fine in Sitara.	Valerie, the prices look fine in sitara.	226650759	1478092818696	1478092818784	t	84
443310	4773722	Valerie, the prices look fine in Sitara.	Valerie, the prices look fine in sitara.	226650760	1478092818816	1478092818966	a	65
443310	4773722	Valerie, the prices look fine in Sitara.	Valerie, the prices look fine in sitara.	226650796	1478092818948	1478092819037	r	82
443310	4773722	Valerie, the prices look fine in Sitara.	Valerie, the prices look fine in sitara.	226650798	1478092819020	1478092819150	a	65
443310	4773722	Valerie, the prices look fine in Sitara.	Valerie, the prices look fine in sitara.	226650800	1478092819918	1478092819990	.	190
443310	4773735	But I hope to see you at Kari's house.	But I hope to see you at Kari's house.	226650886	1478092822895	1478092823000	CAPS_LOCK	20
443310	4773735	But I hope to see you at Kari's house.	But I hope to see you at Kari's house.	226650887	1478092823070	1478092823197	B	66
443310	4773735	But I hope to see you at Kari's house.	But I hope to see you at Kari's house.	226650888	1478092823228	1478092823336	CAPS_LOCK	20
443310	4773735	But I hope to see you at Kari's house.	But I hope to see you at Kari's house.	226650890	1478092823376	1478092823461	u	85
443310	4773735	But I hope to see you at Kari's house.	But I hope to see you at Kari's house.	226650892	1478092823632	1478092823776	t	84
443310	4773735	But I hope to see you at Kari's house.	But I hope to see you at Kari's house.	226650894	1478092823979	1478092824079	 	32
443310	4773735	But I hope to see you at Kari's house.	But I hope to see you at Kari's house.	226650896	1478092824391	1478092824501	CAPS_LOCK	20
443310	4773735	But I hope to see you at Kari's house.	But I hope to see you at Kari's house.	226650934	1478092824646	1478092824763	I	73
443310	4773735	But I hope to see you at Kari's house.	But I hope to see you at Kari's house.	226650898	1478092824701	1478092824763	CAPS_LOCK	20
443310	4773735	But I hope to see you at Kari's house.	But I hope to see you at Kari's house.	226650935	1478092825015	1478092825146	 	32
443310	4773735	But I hope to see you at Kari's house.	But I hope to see you at Kari's house.	226650936	1478092825870	1478092825953	h	72
443310	4773735	But I hope to see you at Kari's house.	But I hope to see you at Kari's house.	226650937	1478092826553	1478092826637	o	79
443310	4773735	But I hope to see you at Kari's house.	But I hope to see you at Kari's house.	226650938	1478092826734	1478092826836	p	80
443310	4773735	But I hope to see you at Kari's house.	But I hope to see you at Kari's house.	226650939	1478092826888	1478092827002	e	69
443310	4773735	But I hope to see you at Kari's house.	But I hope to see you at Kari's house.	226650965	1478092827042	1478092827153	 	32
443310	4773735	But I hope to see you at Kari's house.	But I hope to see you at Kari's house.	226650966	1478092827309	1478092827398	t	84
443310	4773735	But I hope to see you at Kari's house.	But I hope to see you at Kari's house.	226650968	1478092827508	1478092827573	o	79
443310	4773735	But I hope to see you at Kari's house.	But I hope to see you at Kari's house.	226650970	1478092827729	1478092827808	 	32
443310	4773735	But I hope to see you at Kari's house.	But I hope to see you at Kari's house.	226650973	1478092827901	1478092828006	s	83
443310	4773735	But I hope to see you at Kari's house.	But I hope to see you at Kari's house.	226650993	1478092828163	1478092828241	e	69
443310	4773735	But I hope to see you at Kari's house.	But I hope to see you at Kari's house.	226650994	1478092828320	1478092828423	e	69
443310	4773735	But I hope to see you at Kari's house.	But I hope to see you at Kari's house.	226650995	1478092828548	1478092828657	 	32
443310	4773735	But I hope to see you at Kari's house.	But I hope to see you at Kari's house.	226650996	1478092828876	1478092828943	y	89
443310	4773735	But I hope to see you at Kari's house.	But I hope to see you at Kari's house.	226650998	1478092828974	1478092829090	o	79
443310	4773735	But I hope to see you at Kari's house.	But I hope to see you at Kari's house.	226651043	1478092829247	1478092829359	u	85
443310	4773735	But I hope to see you at Kari's house.	But I hope to see you at Kari's house.	226651044	1478092829702	1478092829793	 	32
443310	4773735	But I hope to see you at Kari's house.	But I hope to see you at Kari's house.	226651046	1478092830297	1478092830409	a	65
443310	4773735	But I hope to see you at Kari's house.	But I hope to see you at Kari's house.	226651048	1478092830502	1478092830593	t	84
443310	4773735	But I hope to see you at Kari's house.	But I hope to see you at Kari's house.	226651050	1478092830750	1478092830830	 	32
443310	4773735	But I hope to see you at Kari's house.	But I hope to see you at Kari's house.	226651122	1478092831993	1478092832168	CAPS_LOCK	20
443310	4773735	But I hope to see you at Kari's house.	But I hope to see you at Kari's house.	226651124	1478092832134	1478092832232	K	75
443310	4773735	But I hope to see you at Kari's house.	But I hope to see you at Kari's house.	226651126	1478092832279	1478092832436	CAPS_LOCK	20
443310	4773735	But I hope to see you at Kari's house.	But I hope to see you at Kari's house.	226651128	1478092833111	1478092833233	a	65
443310	4773735	But I hope to see you at Kari's house.	But I hope to see you at Kari's house.	226651130	1478092833453	1478092833551	r	82
443310	4773735	But I hope to see you at Kari's house.	But I hope to see you at Kari's house.	226651132	1478092833723	1478092833805	i	73
443310	4773735	But I hope to see you at Kari's house.	But I hope to see you at Kari's house.	226651134	1478092834313	1478092834404	'	222
443310	4773735	But I hope to see you at Kari's house.	But I hope to see you at Kari's house.	226651188	1478092835393	1478092835521	s	83
443310	4773735	But I hope to see you at Kari's house.	But I hope to see you at Kari's house.	226651191	1478092835615	1478092835739	 	32
443310	4773735	But I hope to see you at Kari's house.	But I hope to see you at Kari's house.	226651194	1478092836147	1478092836225	h	72
443310	4773735	But I hope to see you at Kari's house.	But I hope to see you at Kari's house.	226651196	1478092836659	1478092836744	o	79
443310	4773735	But I hope to see you at Kari's house.	But I hope to see you at Kari's house.	226651265	1478092837026	1478092837092	u	73
443310	4773735	But I hope to see you at Kari's house.	But I hope to see you at Kari's house.	226651267	1478092837677	1478092837763	BKSP	8
443310	4773735	But I hope to see you at Kari's house.	But I hope to see you at Kari's house.	226651271	1478092837857	1478092837947	BKSP	8
443310	4773735	But I hope to see you at Kari's house.	But I hope to see you at Kari's house.	226651273	1478092838466	1478092838548	u	85
443310	4773735	But I hope to see you at Kari's house.	But I hope to see you at Kari's house.	226651275	1478092838611	1478092838730	s	83
443310	4773735	But I hope to see you at Kari's house.	But I hope to see you at Kari's house.	226651278	1478092838855	1478092838981	e	69
443310	4773735	But I hope to see you at Kari's house.	But I hope to see you at Kari's house.	226651280	1478092839484	1478092839552	.	190
