PARTICIPANT_ID	TEST_SECTION_ID	SENTENCE	USER_INPUT	KEYSTROKE_ID	PRESS_TIME	RELEASE_TIME	LETTER	KEYCODE
444008	4779645	I think we should consider this request.	I think ewe should consider this request.	226926937	1478098378255	1478098378395	CAPS_LOCK	20
444008	4779645	I think we should consider this request.	I think ewe should consider this request.	226926941	1478098378445	1478098378556	I	73
444008	4779645	I think we should consider this request.	I think ewe should consider this request.	226926948	1478098378556	1478098378656	CAPS_LOCK	20
444008	4779645	I think we should consider this request.	I think ewe should consider this request.	226926954	1478098378656	1478098378776	 	32
444008	4779645	I think we should consider this request.	I think ewe should consider this request.	226926957	1478098378876	1478098379012	t	84
444008	4779645	I think we should consider this request.	I think ewe should consider this request.	226926960	1478098378963	1478098379113	h	72
444008	4779645	I think we should consider this request.	I think ewe should consider this request.	226926962	1478098379113	1478098379276	i	73
444008	4779645	I think we should consider this request.	I think ewe should consider this request.	226927070	1478098379276	1478098379443	n	78
444008	4779645	I think we should consider this request.	I think ewe should consider this request.	226927071	1478098379453	1478098379696	k	75
444008	4779645	I think we should consider this request.	I think ewe should consider this request.	226927073	1478098379746	1478098379886	 	32
444008	4779645	I think we should consider this request.	I think ewe should consider this request.	226927075	1478098380216	1478098380252	e	69
444008	4779645	I think we should consider this request.	I think ewe should consider this request.	226927079	1478098380596	1478098380740	w	87
444008	4779645	I think we should consider this request.	I think ewe should consider this request.	226927134	1478098380742	1478098380860	e	69
444008	4779645	I think we should consider this request.	I think ewe should consider this request.	226927140	1478098380796	1478098380952	 	32
444008	4779645	I think we should consider this request.	I think ewe should consider this request.	226927146	1478098381060	1478098381172	s	83
444008	4779645	I think we should consider this request.	I think ewe should consider this request.	226927151	1478098381092	1478098381243	h	72
444008	4779645	I think we should consider this request.	I think ewe should consider this request.	226927161	1478098381273	1478098381456	o	79
444008	4779645	I think we should consider this request.	I think ewe should consider this request.	226927238	1478098381403	1478098381538	u	85
444008	4779645	I think we should consider this request.	I think ewe should consider this request.	226927245	1478098381686	1478098381840	l	76
444008	4779645	I think we should consider this request.	I think ewe should consider this request.	226927254	1478098381840	1478098381932	d	68
444008	4779645	I think we should consider this request.	I think ewe should consider this request.	226927258	1478098381900	1478098382051	 	32
444008	4779645	I think we should consider this request.	I think ewe should consider this request.	226927264	1478098382451	1478098382548	c	67
444008	4779645	I think we should consider this request.	I think ewe should consider this request.	226927382	1478098382500	1478098382592	o	79
444008	4779645	I think we should consider this request.	I think ewe should consider this request.	226927386	1478098382752	1478098382846	n	78
444008	4779645	I think we should consider this request.	I think ewe should consider this request.	226927388	1478098383260	1478098383396	s	83
444008	4779645	I think we should consider this request.	I think ewe should consider this request.	226927394	1478098383373	1478098383473	i	73
444008	4779645	I think we should consider this request.	I think ewe should consider this request.	226927399	1478098383493	1478098383656	d	68
444008	4779645	I think we should consider this request.	I think ewe should consider this request.	226927407	1478098383656	1478098383816	e	69
444008	4779645	I think we should consider this request.	I think ewe should consider this request.	226927480	1478098383844	1478098383956	r	82
444008	4779645	I think we should consider this request.	I think ewe should consider this request.	226927486	1478098383919	1478098384043	 	32
444008	4779645	I think we should consider this request.	I think ewe should consider this request.	226927489	1478098384432	1478098384508	t	84
444008	4779645	I think we should consider this request.	I think ewe should consider this request.	226927495	1478098384508	1478098384663	h	72
444008	4779645	I think we should consider this request.	I think ewe should consider this request.	226927500	1478098384663	1478098384812	i	73
444008	4779645	I think we should consider this request.	I think ewe should consider this request.	226927589	1478098384783	1478098384924	s	83
444008	4779645	I think we should consider this request.	I think ewe should consider this request.	226927594	1478098384879	1478098384989	 	32
444008	4779645	I think we should consider this request.	I think ewe should consider this request.	226927601	1478098385129	1478098385261	r	82
444008	4779645	I think we should consider this request.	I think ewe should consider this request.	226927605	1478098385261	1478098385383	e	69
444008	4779645	I think we should consider this request.	I think ewe should consider this request.	226927611	1478098385916	1478098386053	q	81
444008	4779645	I think we should consider this request.	I think ewe should consider this request.	226927615	1478098386083	1478098386205	u	85
444008	4779645	I think we should consider this request.	I think ewe should consider this request.	226927760	1478098386247	1478098386356	e	69
444008	4779645	I think we should consider this request.	I think ewe should consider this request.	226927765	1478098386456	1478098386579	s	83
444008	4779645	I think we should consider this request.	I think ewe should consider this request.	226927770	1478098386484	1478098386599	t	84
444008	4779645	I think we should consider this request.	I think ewe should consider this request.	226927776	1478098387093	1478098387166	.	190
444008	4779669	Please send to Gary Smith.	Please send to Gary Smith.	226928006	1478098390199	1478098390309	CAPS_LOCK	20
444008	4779669	Please send to Gary Smith.	Please send to Gary Smith.	226928013	1478098390416	1478098390533	P	80
444008	4779669	Please send to Gary Smith.	Please send to Gary Smith.	226928019	1478098390563	1478098390724	CAPS_LOCK	20
444008	4779669	Please send to Gary Smith.	Please send to Gary Smith.	226928023	1478098390693	1478098390816	l	76
444008	4779669	Please send to Gary Smith.	Please send to Gary Smith.	226928029	1478098391206	1478098391337	e	69
444008	4779669	Please send to Gary Smith.	Please send to Gary Smith.	226928038	1478098391447	1478098391656	a	65
444008	4779669	Please send to Gary Smith.	Please send to Gary Smith.	226928046	1478098391656	1478098391786	s	83
444008	4779669	Please send to Gary Smith.	Please send to Gary Smith.	226928235	1478098391786	1478098391889	 	32
444008	4779669	Please send to Gary Smith.	Please send to Gary Smith.	226928239	1478098391909	1478098392003	e	69
444008	4779669	Please send to Gary Smith.	Please send to Gary Smith.	226928243	1478098392263	1478098392363	BKSP	8
444008	4779669	Please send to Gary Smith.	Please send to Gary Smith.	226928246	1478098392393	1478098392480	BKSP	8
444008	4779669	Please send to Gary Smith.	Please send to Gary Smith.	226928251	1478098392540	1478098392599	BKSP	8
444008	4779669	Please send to Gary Smith.	Please send to Gary Smith.	226928258	1478098393666	1478098393772	s	83
444008	4779669	Please send to Gary Smith.	Please send to Gary Smith.	226928264	1478098393892	1478098394016	r	82
444008	4779669	Please send to Gary Smith.	Please send to Gary Smith.	226928269	1478098394236	1478098394386	 	32
444008	4779669	Please send to Gary Smith.	Please send to Gary Smith.	226928324	1478098394614	1478098394795	s	83
444008	4779669	Please send to Gary Smith.	Please send to Gary Smith.	226928327	1478098394855	1478098394976	e	69
444008	4779669	Please send to Gary Smith.	Please send to Gary Smith.	226928330	1478098394976	1478098395082	n	78
444008	4779669	Please send to Gary Smith.	Please send to Gary Smith.	226928334	1478098395132	1478098395219	d	68
444008	4779669	Please send to Gary Smith.	Please send to Gary Smith.	226928337	1478098395219	1478098395319	 	32
444008	4779669	Please send to Gary Smith.	Please send to Gary Smith.	226928592	1478098396260	1478098396376	BKSP	8
444008	4779669	Please send to Gary Smith.	Please send to Gary Smith.	226928596	1478098396416	1478098396492	BKSP	8
444008	4779669	Please send to Gary Smith.	Please send to Gary Smith.	226928601	1478098396602	1478098396656	BKSP	8
444008	4779669	Please send to Gary Smith.	Please send to Gary Smith.	226928610	1478098396756	1478098396816	BKSP	8
444008	4779669	Please send to Gary Smith.	Please send to Gary Smith.	226928618	1478098396896	1478098396964	BKSP	8
444008	4779669	Please send to Gary Smith.	Please send to Gary Smith.	226928624	1478098397042	1478098397099	BKSP	8
444008	4779669	Please send to Gary Smith.	Please send to Gary Smith.	226928631	1478098397179	1478098397252	BKSP	8
444008	4779669	Please send to Gary Smith.	Please send to Gary Smith.	226928638	1478098397822	1478098397922	e	69
444008	4779669	Please send to Gary Smith.	Please send to Gary Smith.	226928644	1478098397922	1478098398052	 	32
444008	4779669	Please send to Gary Smith.	Please send to Gary Smith.	226928647	1478098398162	1478098398266	s	83
444008	4779669	Please send to Gary Smith.	Please send to Gary Smith.	226928650	1478098398356	1478098398476	e	69
444008	4779669	Please send to Gary Smith.	Please send to Gary Smith.	226928672	1478098398446	1478098398546	n	78
444008	4779669	Please send to Gary Smith.	Please send to Gary Smith.	226928674	1478098398646	1478098398756	d	68
444008	4779669	Please send to Gary Smith.	Please send to Gary Smith.	226928677	1478098398786	1478098398919	 	32
444008	4779669	Please send to Gary Smith.	Please send to Gary Smith.	226928678	1478098398979	1478098399100	t	84
444008	4779669	Please send to Gary Smith.	Please send to Gary Smith.	226928681	1478098399079	1478098399171	o	79
444008	4779669	Please send to Gary Smith.	Please send to Gary Smith.	226928683	1478098399211	1478098399336	 	32
444008	4779669	Please send to Gary Smith.	Please send to Gary Smith.	226928784	1478098399640	1478098399788	CAPS_LOCK	20
444008	4779669	Please send to Gary Smith.	Please send to Gary Smith.	226928788	1478098399919	1478098399972	G	71
444008	4779669	Please send to Gary Smith.	Please send to Gary Smith.	226928791	1478098399972	1478098400092	CAPS_LOCK	20
444008	4779669	Please send to Gary Smith.	Please send to Gary Smith.	226928794	1478098400192	1478098400309	a	65
444008	4779669	Please send to Gary Smith.	Please send to Gary Smith.	226928798	1478098400339	1478098400469	r	82
444008	4779669	Please send to Gary Smith.	Please send to Gary Smith.	226928806	1478098400529	1478098400672	y	89
444008	4779669	Please send to Gary Smith.	Please send to Gary Smith.	226928812	1478098400712	1478098400862	 	32
444008	4779669	Please send to Gary Smith.	Please send to Gary Smith.	226928966	1478098400904	1478098401016	s	83
444008	4779669	Please send to Gary Smith.	Please send to Gary Smith.	226928973	1478098401659	1478098401766	BKSP	8
444008	4779669	Please send to Gary Smith.	Please send to Gary Smith.	226928982	1478098401896	1478098402032	s	83
444008	4779669	Please send to Gary Smith.	Please send to Gary Smith.	226928988	1478098402092	1478098402192	CAPS_LOCK	20
444008	4779669	Please send to Gary Smith.	Please send to Gary Smith.	226928996	1478098402282	1478098402459	M	77
444008	4779669	Please send to Gary Smith.	Please send to Gary Smith.	226929004	1478098402519	1478098402692	I	73
444008	4779669	Please send to Gary Smith.	Please send to Gary Smith.	226929006	1478098402932	1478098403079	T	84
444008	4779669	Please send to Gary Smith.	Please send to Gary Smith.	226929189	1478098403181	1478098403269	H	72
444008	4779669	Please send to Gary Smith.	Please send to Gary Smith.	226929191	1478098403549	1478098403645	BKSP	8
444008	4779669	Please send to Gary Smith.	Please send to Gary Smith.	226929193	1478098403755	1478098403804	BKSP	8
444008	4779669	Please send to Gary Smith.	Please send to Gary Smith.	226929195	1478098403915	1478098403972	BKSP	8
444008	4779669	Please send to Gary Smith.	Please send to Gary Smith.	226929199	1478098404062	1478098404142	BKSP	8
444008	4779669	Please send to Gary Smith.	Please send to Gary Smith.	226929202	1478098404512	1478098404602	BKSP	8
444008	4779669	Please send to Gary Smith.	Please send to Gary Smith.	226929207	1478098404872	1478098404982	S	83
444008	4779669	Please send to Gary Smith.	Please send to Gary Smith.	226929213	1478098405084	1478098405234	CAPS_LOCK	20
444008	4779669	Please send to Gary Smith.	Please send to Gary Smith.	226929218	1478098405475	1478098405689	m	77
444008	4779669	Please send to Gary Smith.	Please send to Gary Smith.	226929225	1478098405689	1478098405852	i	73
444008	4779669	Please send to Gary Smith.	Please send to Gary Smith.	226929250	1478098405819	1478098405956	t	84
444008	4779669	Please send to Gary Smith.	Please send to Gary Smith.	226929252	1478098405912	1478098406002	h	72
444008	4779669	Please send to Gary Smith.	Please send to Gary Smith.	226929259	1478098406442	1478098406508	.	190
444008	4779698	I need to link them up to the Tagg deal.	I need to link them up to the Tagg deal.	226929458	1478098408260	1478098408380	CAPS_LOCK	20
444008	4779698	I need to link them up to the Tagg deal.	I need to link them up to the Tagg deal.	226929462	1478098408420	1478098408503	I	73
444008	4779698	I need to link them up to the Tagg deal.	I need to link them up to the Tagg deal.	226929467	1478098408503	1478098408605	CAPS_LOCK	20
444008	4779698	I need to link them up to the Tagg deal.	I need to link them up to the Tagg deal.	226929473	1478098408573	1478098408723	 	32
444008	4779698	I need to link them up to the Tagg deal.	I need to link them up to the Tagg deal.	226929477	1478098408853	1478098408956	n	78
444008	4779698	I need to link them up to the Tagg deal.	I need to link them up to the Tagg deal.	226929480	1478098408956	1478098409046	e	69
444008	4779698	I need to link them up to the Tagg deal.	I need to link them up to the Tagg deal.	226929483	1478098409136	1478098409220	e	69
444008	4779698	I need to link them up to the Tagg deal.	I need to link them up to the Tagg deal.	226929532	1478098409401	1478098409496	d	68
444008	4779698	I need to link them up to the Tagg deal.	I need to link them up to the Tagg deal.	226929534	1478098409516	1478098409653	 	32
444008	4779698	I need to link them up to the Tagg deal.	I need to link them up to the Tagg deal.	226929537	1478098409853	1478098409990	t	84
444008	4779698	I need to link them up to the Tagg deal.	I need to link them up to the Tagg deal.	226929540	1478098409936	1478098410090	o	79
444008	4779698	I need to link them up to the Tagg deal.	I need to link them up to the Tagg deal.	226929545	1478098410090	1478098410300	 	32
444008	4779698	I need to link them up to the Tagg deal.	I need to link them up to the Tagg deal.	226929635	1478098410382	1478098410653	l	76
444008	4779698	I need to link them up to the Tagg deal.	I need to link them up to the Tagg deal.	226929640	1478098410630	1478098410740	i	73
444008	4779698	I need to link them up to the Tagg deal.	I need to link them up to the Tagg deal.	226929641	1478098410980	1478098411123	n	78
444008	4779698	I need to link them up to the Tagg deal.	I need to link them up to the Tagg deal.	226929644	1478098411243	1478098411430	k	75
444008	4779698	I need to link them up to the Tagg deal.	I need to link them up to the Tagg deal.	226929647	1478098411480	1478098411660	 	32
444008	4779698	I need to link them up to the Tagg deal.	I need to link them up to the Tagg deal.	226929706	1478098411741	1478098411860	t	84
444008	4779698	I need to link them up to the Tagg deal.	I need to link them up to the Tagg deal.	226929714	1478098411900	1478098412036	h	72
444008	4779698	I need to link them up to the Tagg deal.	I need to link them up to the Tagg deal.	226929722	1478098412096	1478098412236	e	69
444008	4779698	I need to link them up to the Tagg deal.	I need to link them up to the Tagg deal.	226929731	1478098412296	1478098412436	m	77
444008	4779698	I need to link them up to the Tagg deal.	I need to link them up to the Tagg deal.	226929736	1478098412466	1478098412673	 	32
444008	4779698	I need to link them up to the Tagg deal.	I need to link them up to the Tagg deal.	226929848	1478098412944	1478098413119	u	85
444008	4779698	I need to link them up to the Tagg deal.	I need to link them up to the Tagg deal.	226929853	1478098413209	1478098413416	p	80
444008	4779698	I need to link them up to the Tagg deal.	I need to link them up to the Tagg deal.	226929859	1478098413546	1478098413589	 	32
444008	4779698	I need to link them up to the Tagg deal.	I need to link them up to the Tagg deal.	226929861	1478098414229	1478098414379	t	84
444008	4779698	I need to link them up to the Tagg deal.	I need to link them up to the Tagg deal.	226929867	1478098414509	1478098414623	o	79
444008	4779698	I need to link them up to the Tagg deal.	I need to link them up to the Tagg deal.	226929893	1478098414665	1478098414805	 	32
444008	4779698	I need to link them up to the Tagg deal.	I need to link them up to the Tagg deal.	226929897	1478098414773	1478098414903	t	84
444008	4779698	I need to link them up to the Tagg deal.	I need to link them up to the Tagg deal.	226929903	1478098414923	1478098415085	h	72
444008	4779698	I need to link them up to the Tagg deal.	I need to link them up to the Tagg deal.	226929909	1478098415059	1478098415236	e	69
444008	4779698	I need to link them up to the Tagg deal.	I need to link them up to the Tagg deal.	226929914	1478098415236	1478098415369	 	32
444008	4779698	I need to link them up to the Tagg deal.	I need to link them up to the Tagg deal.	226929974	1478098415751	1478098415873	CAPS_LOCK	20
444008	4779698	I need to link them up to the Tagg deal.	I need to link them up to the Tagg deal.	226929980	1478098415923	1478098416026	T	84
444008	4779698	I need to link them up to the Tagg deal.	I need to link them up to the Tagg deal.	226929983	1478098416056	1478098416176	CAPS_LOCK	20
444008	4779698	I need to link them up to the Tagg deal.	I need to link them up to the Tagg deal.	226929988	1478098416336	1478098416473	a	65
444008	4779698	I need to link them up to the Tagg deal.	I need to link them up to the Tagg deal.	226929992	1478098416473	1478098416536	g	71
444008	4779698	I need to link them up to the Tagg deal.	I need to link them up to the Tagg deal.	226929996	1478098416616	1478098416716	g	71
444008	4779698	I need to link them up to the Tagg deal.	I need to link them up to the Tagg deal.	226930000	1478098416806	1478098416956	 	32
444008	4779698	I need to link them up to the Tagg deal.	I need to link them up to the Tagg deal.	226930181	1478098417197	1478098417364	d	68
444008	4779698	I need to link them up to the Tagg deal.	I need to link them up to the Tagg deal.	226930187	1478098417394	1478098417513	d	68
444008	4779698	I need to link them up to the Tagg deal.	I need to link them up to the Tagg deal.	226930194	1478098418519	1478098418636	BKSP	8
444008	4779698	I need to link them up to the Tagg deal.	I need to link them up to the Tagg deal.	226930199	1478098418766	1478098418889	e	69
444008	4779698	I need to link them up to the Tagg deal.	I need to link them up to the Tagg deal.	226930202	1478098419129	1478098419273	a	65
444008	4779698	I need to link them up to the Tagg deal.	I need to link them up to the Tagg deal.	226930206	1478098419846	1478098419913	l	76
444008	4779698	I need to link them up to the Tagg deal.	I need to link them up to the Tagg deal.	226930233	1478098420195	1478098420249	.	190
444008	4779723	She is most familiar with our computer systems.	She is most familiar with our computer systems.	226930425	1478098421739	1478098421913	CAPS_LOCK	20
444008	4779723	She is most familiar with our computer systems.	She is most familiar with our computer systems.	226930428	1478098422013	1478098422129	S	83
444008	4779723	She is most familiar with our computer systems.	She is most familiar with our computer systems.	226930433	1478098422129	1478098422279	CAPS_LOCK	20
444008	4779723	She is most familiar with our computer systems.	She is most familiar with our computer systems.	226930438	1478098422311	1478098422499	h	72
444008	4779723	She is most familiar with our computer systems.	She is most familiar with our computer systems.	226930444	1478098422609	1478098422739	e	69
444008	4779723	She is most familiar with our computer systems.	She is most familiar with our computer systems.	226930449	1478098422739	1478098422862	 	32
444008	4779723	She is most familiar with our computer systems.	She is most familiar with our computer systems.	226930457	1478098422902	1478098423080	i	73
444008	4779723	She is most familiar with our computer systems.	She is most familiar with our computer systems.	226930551	1478098423039	1478098423124	s	83
444008	4779723	She is most familiar with our computer systems.	She is most familiar with our computer systems.	226930556	1478098423124	1478098423246	 	32
444008	4779723	She is most familiar with our computer systems.	She is most familiar with our computer systems.	226930560	1478098423829	1478098423976	m	77
444008	4779723	She is most familiar with our computer systems.	She is most familiar with our computer systems.	226930564	1478098423996	1478098424159	o	79
444008	4779723	She is most familiar with our computer systems.	She is most familiar with our computer systems.	226930568	1478098424112	1478098424259	s	83
444008	4779723	She is most familiar with our computer systems.	She is most familiar with our computer systems.	226930573	1478098424369	1478098424476	t	84
444008	4779723	She is most familiar with our computer systems.	She is most familiar with our computer systems.	226930627	1478098424498	1478098424689	 	32
444008	4779723	She is most familiar with our computer systems.	She is most familiar with our computer systems.	226930628	1478098424919	1478098425006	f	70
444008	4779723	She is most familiar with our computer systems.	She is most familiar with our computer systems.	226930630	1478098425136	1478098425322	a	65
444008	4779723	She is most familiar with our computer systems.	She is most familiar with our computer systems.	226930632	1478098425322	1478098425536	m	77
444008	4779723	She is most familiar with our computer systems.	She is most familiar with our computer systems.	226930636	1478098425536	1478098425662	i	73
444008	4779723	She is most familiar with our computer systems.	She is most familiar with our computer systems.	226930720	1478098425764	1478098425969	l	76
444008	4779723	She is most familiar with our computer systems.	She is most familiar with our computer systems.	226930724	1478098426260	1478098426359	i	73
444008	4779723	She is most familiar with our computer systems.	She is most familiar with our computer systems.	226930730	1478098426559	1478098426729	a	65
444008	4779723	She is most familiar with our computer systems.	She is most familiar with our computer systems.	226930732	1478098426799	1478098426929	r	82
444008	4779723	She is most familiar with our computer systems.	She is most familiar with our computer systems.	226930734	1478098427019	1478098427166	 	32
444008	4779723	She is most familiar with our computer systems.	She is most familiar with our computer systems.	226930791	1478098427458	1478098427610	w	87
444008	4779723	She is most familiar with our computer systems.	She is most familiar with our computer systems.	226930795	1478098427640	1478098427772	i	73
444008	4779723	She is most familiar with our computer systems.	She is most familiar with our computer systems.	226930798	1478098427822	1478098427922	t	84
444008	4779723	She is most familiar with our computer systems.	She is most familiar with our computer systems.	226930801	1478098427962	1478098428032	h	72
444008	4779723	She is most familiar with our computer systems.	She is most familiar with our computer systems.	226930804	1478098428082	1478098428223	 	32
444008	4779723	She is most familiar with our computer systems.	She is most familiar with our computer systems.	226930867	1478098428562	1478098428760	o	79
444008	4779723	She is most familiar with our computer systems.	She is most familiar with our computer systems.	226930870	1478098428739	1478098428880	u	85
444008	4779723	She is most familiar with our computer systems.	She is most familiar with our computer systems.	226930874	1478098428832	1478098428942	r	82
444008	4779723	She is most familiar with our computer systems.	She is most familiar with our computer systems.	226930880	1478098428952	1478098429079	 	32
444008	4779723	She is most familiar with our computer systems.	She is most familiar with our computer systems.	226930886	1478098429632	1478098429744	c	67
444008	4779723	She is most familiar with our computer systems.	She is most familiar with our computer systems.	226931051	1478098429716	1478098429976	o	79
444008	4779723	She is most familiar with our computer systems.	She is most familiar with our computer systems.	226931055	1478098429946	1478098430109	m	77
444008	4779723	She is most familiar with our computer systems.	She is most familiar with our computer systems.	226931060	1478098431096	1478098431239	p	80
444008	4779723	She is most familiar with our computer systems.	She is most familiar with our computer systems.	226931063	1478098431692	1478098431792	u	85
444008	4779723	She is most familiar with our computer systems.	She is most familiar with our computer systems.	226931067	1478098431912	1478098432015	t	84
444008	4779723	She is most familiar with our computer systems.	She is most familiar with our computer systems.	226931071	1478098432145	1478098432279	e	69
444008	4779723	She is most familiar with our computer systems.	She is most familiar with our computer systems.	226931190	1478098432269	1478098432375	r	82
444008	4779723	She is most familiar with our computer systems.	She is most familiar with our computer systems.	226931196	1478098432375	1478098432445	 	32
444008	4779723	She is most familiar with our computer systems.	She is most familiar with our computer systems.	226931201	1478098432495	1478098432648	s	83
444008	4779723	She is most familiar with our computer systems.	She is most familiar with our computer systems.	226931205	1478098432602	1478098432699	y	89
444008	4779723	She is most familiar with our computer systems.	She is most familiar with our computer systems.	226931211	1478098432819	1478098433005	s	83
444008	4779723	She is most familiar with our computer systems.	She is most familiar with our computer systems.	226931216	1478098434302	1478098434409	t	84
444008	4779723	She is most familiar with our computer systems.	She is most familiar with our computer systems.	226931263	1478098434621	1478098434775	e	69
444008	4779723	She is most familiar with our computer systems.	She is most familiar with our computer systems.	226931265	1478098434815	1478098434925	m	77
444008	4779723	She is most familiar with our computer systems.	She is most familiar with our computer systems.	226931270	1478098434995	1478098435122	s	83
444008	4779723	She is most familiar with our computer systems.	She is most familiar with our computer systems.	226931276	1478098435472	1478098435555	.	190
444008	4779743	We seem to be running in the same time slot more than anybody other.	We seem to be running in the same time slot more than anybody other.	226931416	1478098437202	1478098437392	CAPS_LOCK	20
444008	4779743	We seem to be running in the same time slot more than anybody other.	We seem to be running in the same time slot more than anybody other.	226931418	1478098437432	1478098437535	W	87
444008	4779743	We seem to be running in the same time slot more than anybody other.	We seem to be running in the same time slot more than anybody other.	226931419	1478098437585	1478098437715	CAPS_LOCK	20
444008	4779743	We seem to be running in the same time slot more than anybody other.	We seem to be running in the same time slot more than anybody other.	226931420	1478098437845	1478098437952	e	69
444008	4779743	We seem to be running in the same time slot more than anybody other.	We seem to be running in the same time slot more than anybody other.	226931421	1478098438022	1478098438185	 	32
444008	4779743	We seem to be running in the same time slot more than anybody other.	We seem to be running in the same time slot more than anybody other.	226931422	1478098438305	1478098438439	s	83
444008	4779743	We seem to be running in the same time slot more than anybody other.	We seem to be running in the same time slot more than anybody other.	226931423	1478098438539	1478098438642	e	69
444008	4779743	We seem to be running in the same time slot more than anybody other.	We seem to be running in the same time slot more than anybody other.	226931439	1478098438704	1478098438789	e	69
444008	4779743	We seem to be running in the same time slot more than anybody other.	We seem to be running in the same time slot more than anybody other.	226931442	1478098438880	1478098438975	m	77
444008	4779743	We seem to be running in the same time slot more than anybody other.	We seem to be running in the same time slot more than anybody other.	226931446	1478098438985	1478098439135	 	32
444008	4779743	We seem to be running in the same time slot more than anybody other.	We seem to be running in the same time slot more than anybody other.	226931448	1478098439245	1478098439402	t	84
444008	4779743	We seem to be running in the same time slot more than anybody other.	We seem to be running in the same time slot more than anybody other.	226931514	1478098439392	1478098439512	o	79
444008	4779743	We seem to be running in the same time slot more than anybody other.	We seem to be running in the same time slot more than anybody other.	226931517	1478098439552	1478098439699	 	32
444008	4779743	We seem to be running in the same time slot more than anybody other.	We seem to be running in the same time slot more than anybody other.	226931521	1478098439769	1478098439885	b	66
444008	4779743	We seem to be running in the same time slot more than anybody other.	We seem to be running in the same time slot more than anybody other.	226931527	1478098439965	1478098440095	e	69
444008	4779743	We seem to be running in the same time slot more than anybody other.	We seem to be running in the same time slot more than anybody other.	226931534	1478098440095	1478098440232	 	32
444008	4779743	We seem to be running in the same time slot more than anybody other.	We seem to be running in the same time slot more than anybody other.	226931542	1478098440552	1478098440659	r	82
444008	4779743	We seem to be running in the same time slot more than anybody other.	We seem to be running in the same time slot more than anybody other.	226931574	1478098440659	1478098440729	u	85
444008	4779743	We seem to be running in the same time slot more than anybody other.	We seem to be running in the same time slot more than anybody other.	226931578	1478098440869	1478098440965	n	78
444008	4779743	We seem to be running in the same time slot more than anybody other.	We seem to be running in the same time slot more than anybody other.	226931581	1478098441058	1478098441199	n	78
444008	4779743	We seem to be running in the same time slot more than anybody other.	We seem to be running in the same time slot more than anybody other.	226931589	1478098441249	1478098441456	i	73
444008	4779743	We seem to be running in the same time slot more than anybody other.	We seem to be running in the same time slot more than anybody other.	226931708	1478098441399	1478098441520	g	71
444008	4779743	We seem to be running in the same time slot more than anybody other.	We seem to be running in the same time slot more than anybody other.	226931710	1478098441520	1478098441652	 	32
444008	4779743	We seem to be running in the same time slot more than anybody other.	We seem to be running in the same time slot more than anybody other.	226931712	1478098442064	1478098442215	i	73
444008	4779743	We seem to be running in the same time slot more than anybody other.	We seem to be running in the same time slot more than anybody other.	226931716	1478098442668	1478098442762	BKSP	8
444008	4779743	We seem to be running in the same time slot more than anybody other.	We seem to be running in the same time slot more than anybody other.	226931718	1478098442842	1478098442902	BKSP	8
444008	4779743	We seem to be running in the same time slot more than anybody other.	We seem to be running in the same time slot more than anybody other.	226931723	1478098442982	1478098443095	BKSP	8
444008	4779743	We seem to be running in the same time slot more than anybody other.	We seem to be running in the same time slot more than anybody other.	226931725	1478098443560	1478098443688	n	78
444008	4779743	We seem to be running in the same time slot more than anybody other.	We seem to be running in the same time slot more than anybody other.	226931729	1478098443748	1478098443855	g	71
444008	4779743	We seem to be running in the same time slot more than anybody other.	We seem to be running in the same time slot more than anybody other.	226931768	1478098443768	1478098443976	 	32
444008	4779743	We seem to be running in the same time slot more than anybody other.	We seem to be running in the same time slot more than anybody other.	226931770	1478098444006	1478098444118	i	73
444008	4779743	We seem to be running in the same time slot more than anybody other.	We seem to be running in the same time slot more than anybody other.	226931773	1478098444258	1478098444358	n	78
444008	4779743	We seem to be running in the same time slot more than anybody other.	We seem to be running in the same time slot more than anybody other.	226931775	1478098444378	1478098444535	 	32
444008	4779743	We seem to be running in the same time slot more than anybody other.	We seem to be running in the same time slot more than anybody other.	226931778	1478098444545	1478098444662	t	84
444008	4779743	We seem to be running in the same time slot more than anybody other.	We seem to be running in the same time slot more than anybody other.	226931782	1478098444662	1478098444778	h	72
444008	4779743	We seem to be running in the same time slot more than anybody other.	We seem to be running in the same time slot more than anybody other.	226931912	1478098444820	1478098444965	r	82
444008	4779743	We seem to be running in the same time slot more than anybody other.	We seem to be running in the same time slot more than anybody other.	226931918	1478098444985	1478098445128	 	32
444008	4779743	We seem to be running in the same time slot more than anybody other.	We seem to be running in the same time slot more than anybody other.	226931922	1478098445398	1478098445632	BKSP	8
444008	4779743	We seem to be running in the same time slot more than anybody other.	We seem to be running in the same time slot more than anybody other.	226931925	1478098445862	1478098445948	BKSP	8
444008	4779743	We seem to be running in the same time slot more than anybody other.	We seem to be running in the same time slot more than anybody other.	226931926	1478098446368	1478098446515	e	69
444008	4779743	We seem to be running in the same time slot more than anybody other.	We seem to be running in the same time slot more than anybody other.	226931927	1478098446515	1478098446675	 	32
444008	4779743	We seem to be running in the same time slot more than anybody other.	We seem to be running in the same time slot more than anybody other.	226931928	1478098447118	1478098447285	s	83
444008	4779743	We seem to be running in the same time slot more than anybody other.	We seem to be running in the same time slot more than anybody other.	226931960	1478098447307	1478098447492	a	65
444008	4779743	We seem to be running in the same time slot more than anybody other.	We seem to be running in the same time slot more than anybody other.	226931966	1478098447436	1478098447572	m	77
444008	4779743	We seem to be running in the same time slot more than anybody other.	We seem to be running in the same time slot more than anybody other.	226931971	1478098447572	1478098447705	e	69
444008	4779743	We seem to be running in the same time slot more than anybody other.	We seem to be running in the same time slot more than anybody other.	226931976	1478098447695	1478098447842	 	32
444008	4779743	We seem to be running in the same time slot more than anybody other.	We seem to be running in the same time slot more than anybody other.	226931979	1478098447962	1478098448075	t	84
444008	4779743	We seem to be running in the same time slot more than anybody other.	We seem to be running in the same time slot more than anybody other.	226932040	1478098448127	1478098448232	i	73
444008	4779743	We seem to be running in the same time slot more than anybody other.	We seem to be running in the same time slot more than anybody other.	226932043	1478098448372	1478098448495	m	77
444008	4779743	We seem to be running in the same time slot more than anybody other.	We seem to be running in the same time slot more than anybody other.	226932044	1478098448515	1478098448675	e	69
444008	4779743	We seem to be running in the same time slot more than anybody other.	We seem to be running in the same time slot more than anybody other.	226932046	1478098448625	1478098448815	 	32
444008	4779743	We seem to be running in the same time slot more than anybody other.	We seem to be running in the same time slot more than anybody other.	226932048	1478098449208	1478098449358	s	83
444008	4779743	We seem to be running in the same time slot more than anybody other.	We seem to be running in the same time slot more than anybody other.	226932166	1478098449480	1478098449766	l	76
444008	4779743	We seem to be running in the same time slot more than anybody other.	We seem to be running in the same time slot more than anybody other.	226932171	1478098449856	1478098449968	r	82
444008	4779743	We seem to be running in the same time slot more than anybody other.	We seem to be running in the same time slot more than anybody other.	226932177	1478098450542	1478098450652	BKSP	8
444008	4779743	We seem to be running in the same time slot more than anybody other.	We seem to be running in the same time slot more than anybody other.	226932181	1478098451072	1478098451255	o	79
444008	4779743	We seem to be running in the same time slot more than anybody other.	We seem to be running in the same time slot more than anybody other.	226932186	1478098451265	1478098451365	t	84
444008	4779743	We seem to be running in the same time slot more than anybody other.	We seem to be running in the same time slot more than anybody other.	226932189	1478098451385	1478098451551	 	32
444008	4779743	We seem to be running in the same time slot more than anybody other.	We seem to be running in the same time slot more than anybody other.	226932242	1478098451812	1478098452048	m	77
444008	4779743	We seem to be running in the same time slot more than anybody other.	We seem to be running in the same time slot more than anybody other.	226932244	1478098452090	1478098452271	o	79
444008	4779743	We seem to be running in the same time slot more than anybody other.	We seem to be running in the same time slot more than anybody other.	226932245	1478098452311	1478098452448	r	82
444008	4779743	We seem to be running in the same time slot more than anybody other.	We seem to be running in the same time slot more than anybody other.	226932246	1478098452738	1478098452857	e	69
444008	4779743	We seem to be running in the same time slot more than anybody other.	We seem to be running in the same time slot more than anybody other.	226932248	1478098452897	1478098453048	 	32
444008	4779743	We seem to be running in the same time slot more than anybody other.	We seem to be running in the same time slot more than anybody other.	226932290	1478098453120	1478098453225	t	84
444008	4779743	We seem to be running in the same time slot more than anybody other.	We seem to be running in the same time slot more than anybody other.	226932294	1478098453225	1478098453325	h	72
444008	4779743	We seem to be running in the same time slot more than anybody other.	We seem to be running in the same time slot more than anybody other.	226932301	1478098453455	1478098453608	a	65
444008	4779743	We seem to be running in the same time slot more than anybody other.	We seem to be running in the same time slot more than anybody other.	226932305	1478098453608	1478098453728	n	78
444008	4779743	We seem to be running in the same time slot more than anybody other.	We seem to be running in the same time slot more than anybody other.	226932310	1478098453728	1478098453905	 	32
444008	4779743	We seem to be running in the same time slot more than anybody other.	We seem to be running in the same time slot more than anybody other.	226932404	1478098454278	1478098454455	a	65
444008	4779743	We seem to be running in the same time slot more than anybody other.	We seem to be running in the same time slot more than anybody other.	226932407	1478098454455	1478098454608	n	78
444008	4779743	We seem to be running in the same time slot more than anybody other.	We seem to be running in the same time slot more than anybody other.	226932413	1478098455041	1478098455121	y	89
444008	4779743	We seem to be running in the same time slot more than anybody other.	We seem to be running in the same time slot more than anybody other.	226932418	1478098455451	1478098455608	b	66
444008	4779743	We seem to be running in the same time slot more than anybody other.	We seem to be running in the same time slot more than anybody other.	226932426	1478098455688	1478098455911	o	79
444008	4779743	We seem to be running in the same time slot more than anybody other.	We seem to be running in the same time slot more than anybody other.	226932489	1478098455992	1478098456104	d	68
444008	4779743	We seem to be running in the same time slot more than anybody other.	We seem to be running in the same time slot more than anybody other.	226932495	1478098456071	1478098456215	y	89
444008	4779743	We seem to be running in the same time slot more than anybody other.	We seem to be running in the same time slot more than anybody other.	226932500	1478098456265	1478098456435	 	32
444008	4779743	We seem to be running in the same time slot more than anybody other.	We seem to be running in the same time slot more than anybody other.	226932505	1478098457088	1478098457151	o	79
444008	4779743	We seem to be running in the same time slot more than anybody other.	We seem to be running in the same time slot more than anybody other.	226932508	1478098457501	1478098457598	t	84
444008	4779743	We seem to be running in the same time slot more than anybody other.	We seem to be running in the same time slot more than anybody other.	226932613	1478098457680	1478098457831	h	72
444008	4779743	We seem to be running in the same time slot more than anybody other.	We seem to be running in the same time slot more than anybody other.	226932617	1478098458515	1478098458665	e	69
444008	4779743	We seem to be running in the same time slot more than anybody other.	We seem to be running in the same time slot more than anybody other.	226932629	1478098458675	1478098458815	r	82
444008	4779743	We seem to be running in the same time slot more than anybody other.	We seem to be running in the same time slot more than anybody other.	226932634	1478098459172	1478098459285	.	190
444008	4779770	Two RAF Hercules transport planes airlifted foreign evacuees.	Two RAF Hercules transport planes airlifted foreign evacuees.	226932889	1478098461345	1478098461480	CAPS_LOCK	20
444008	4779770	Two RAF Hercules transport planes airlifted foreign evacuees.	Two RAF Hercules transport planes airlifted foreign evacuees.	226932891	1478098461501	1478098461608	T	84
444008	4779770	Two RAF Hercules transport planes airlifted foreign evacuees.	Two RAF Hercules transport planes airlifted foreign evacuees.	226932892	1478098461648	1478098461778	CAPS_LOCK	20
444008	4779770	Two RAF Hercules transport planes airlifted foreign evacuees.	Two RAF Hercules transport planes airlifted foreign evacuees.	226932893	1478098462313	1478098462444	w	87
444008	4779770	Two RAF Hercules transport planes airlifted foreign evacuees.	Two RAF Hercules transport planes airlifted foreign evacuees.	226932894	1478098462494	1478098462641	o	79
444008	4779770	Two RAF Hercules transport planes airlifted foreign evacuees.	Two RAF Hercules transport planes airlifted foreign evacuees.	226932895	1478098462661	1478098462798	 	32
444008	4779770	Two RAF Hercules transport planes airlifted foreign evacuees.	Two RAF Hercules transport planes airlifted foreign evacuees.	226932897	1478098463168	1478098463281	CAPS_LOCK	20
444008	4779770	Two RAF Hercules transport planes airlifted foreign evacuees.	Two RAF Hercules transport planes airlifted foreign evacuees.	226932901	1478098463711	1478098463788	R	82
444008	4779770	Two RAF Hercules transport planes airlifted foreign evacuees.	Two RAF Hercules transport planes airlifted foreign evacuees.	226933050	1478098464000	1478098464108	A	65
444008	4779770	Two RAF Hercules transport planes airlifted foreign evacuees.	Two RAF Hercules transport planes airlifted foreign evacuees.	226933052	1478098464108	1478098464198	F	70
444008	4779770	Two RAF Hercules transport planes airlifted foreign evacuees.	Two RAF Hercules transport planes airlifted foreign evacuees.	226933062	1478098464288	1478098464408	CAPS_LOCK	20
444008	4779770	Two RAF Hercules transport planes airlifted foreign evacuees.	Two RAF Hercules transport planes airlifted foreign evacuees.	226933067	1478098464488	1478098464611	 	32
444008	4779770	Two RAF Hercules transport planes airlifted foreign evacuees.	Two RAF Hercules transport planes airlifted foreign evacuees.	226933073	1478098464951	1478098465084	CAPS_LOCK	20
444008	4779770	Two RAF Hercules transport planes airlifted foreign evacuees.	Two RAF Hercules transport planes airlifted foreign evacuees.	226933076	1478098465144	1478098465268	H	72
444008	4779770	Two RAF Hercules transport planes airlifted foreign evacuees.	Two RAF Hercules transport planes airlifted foreign evacuees.	226933080	1478098465328	1478098465448	CAPS_LOCK	20
444008	4779770	Two RAF Hercules transport planes airlifted foreign evacuees.	Two RAF Hercules transport planes airlifted foreign evacuees.	226933081	1478098465712	1478098465848	e	69
444008	4779770	Two RAF Hercules transport planes airlifted foreign evacuees.	Two RAF Hercules transport planes airlifted foreign evacuees.	226933126	1478098465970	1478098466064	r	82
444008	4779770	Two RAF Hercules transport planes airlifted foreign evacuees.	Two RAF Hercules transport planes airlifted foreign evacuees.	226933128	1478098466515	1478098466624	c	67
444008	4779770	Two RAF Hercules transport planes airlifted foreign evacuees.	Two RAF Hercules transport planes airlifted foreign evacuees.	226933131	1478098466684	1478098466781	u	85
444008	4779770	Two RAF Hercules transport planes airlifted foreign evacuees.	Two RAF Hercules transport planes airlifted foreign evacuees.	226933133	1478098466911	1478098467075	l	76
444008	4779770	Two RAF Hercules transport planes airlifted foreign evacuees.	Two RAF Hercules transport planes airlifted foreign evacuees.	226933136	1478098467135	1478098467261	e	69
444008	4779770	Two RAF Hercules transport planes airlifted foreign evacuees.	Two RAF Hercules transport planes airlifted foreign evacuees.	226933274	1478098467423	1478098467564	s	83
444008	4779770	Two RAF Hercules transport planes airlifted foreign evacuees.	Two RAF Hercules transport planes airlifted foreign evacuees.	226933280	1478098467644	1478098467751	 	32
444008	4779770	Two RAF Hercules transport planes airlifted foreign evacuees.	Two RAF Hercules transport planes airlifted foreign evacuees.	226933286	1478098468314	1478098468454	t	84
444008	4779770	Two RAF Hercules transport planes airlifted foreign evacuees.	Two RAF Hercules transport planes airlifted foreign evacuees.	226933294	1478098468774	1478098468914	r	82
444008	4779770	Two RAF Hercules transport planes airlifted foreign evacuees.	Two RAF Hercules transport planes airlifted foreign evacuees.	226933300	1478098469408	1478098469588	a	65
444008	4779770	Two RAF Hercules transport planes airlifted foreign evacuees.	Two RAF Hercules transport planes airlifted foreign evacuees.	226933395	1478098469630	1478098469794	n	78
444008	4779770	Two RAF Hercules transport planes airlifted foreign evacuees.	Two RAF Hercules transport planes airlifted foreign evacuees.	226933398	1478098470004	1478098470088	d	68
444008	4779770	Two RAF Hercules transport planes airlifted foreign evacuees.	Two RAF Hercules transport planes airlifted foreign evacuees.	226933403	1478098470526	1478098470644	BKSP	8
444008	4779770	Two RAF Hercules transport planes airlifted foreign evacuees.	Two RAF Hercules transport planes airlifted foreign evacuees.	226933407	1478098470764	1478098470904	s	83
444008	4779770	Two RAF Hercules transport planes airlifted foreign evacuees.	Two RAF Hercules transport planes airlifted foreign evacuees.	226933410	1478098471398	1478098471624	p	80
444008	4779770	Two RAF Hercules transport planes airlifted foreign evacuees.	Two RAF Hercules transport planes airlifted foreign evacuees.	226933598	1478098471591	1478098471791	o	79
444008	4779770	Two RAF Hercules transport planes airlifted foreign evacuees.	Two RAF Hercules transport planes airlifted foreign evacuees.	226933602	1478098472997	1478098473107	r	82
444008	4779770	Two RAF Hercules transport planes airlifted foreign evacuees.	Two RAF Hercules transport planes airlifted foreign evacuees.	226933605	1478098473147	1478098473287	t	84
444008	4779770	Two RAF Hercules transport planes airlifted foreign evacuees.	Two RAF Hercules transport planes airlifted foreign evacuees.	226933607	1478098473337	1478098473491	 	32
444008	4779770	Two RAF Hercules transport planes airlifted foreign evacuees.	Two RAF Hercules transport planes airlifted foreign evacuees.	226933609	1478098474124	1478098474324	p	80
444008	4779770	Two RAF Hercules transport planes airlifted foreign evacuees.	Two RAF Hercules transport planes airlifted foreign evacuees.	226933612	1478098474324	1478098474454	l	76
444008	4779770	Two RAF Hercules transport planes airlifted foreign evacuees.	Two RAF Hercules transport planes airlifted foreign evacuees.	226933883	1478098474836	1478098474957	CAPS_LOCK	20
444008	4779770	Two RAF Hercules transport planes airlifted foreign evacuees.	Two RAF Hercules transport planes airlifted foreign evacuees.	226933889	1478098475279	1478098475334	BKSP	8
444008	4779770	Two RAF Hercules transport planes airlifted foreign evacuees.	Two RAF Hercules transport planes airlifted foreign evacuees.	226933897	1478098475727	1478098475860	CAPS_LOCK	20
444008	4779770	Two RAF Hercules transport planes airlifted foreign evacuees.	Two RAF Hercules transport planes airlifted foreign evacuees.	226933904	1478098477387	1478098477484	l	76
444008	4779770	Two RAF Hercules transport planes airlifted foreign evacuees.	Two RAF Hercules transport planes airlifted foreign evacuees.	226933910	1478098477484	1478098477634	a	65
444008	4779770	Two RAF Hercules transport planes airlifted foreign evacuees.	Two RAF Hercules transport planes airlifted foreign evacuees.	226933916	1478098477654	1478098477760	n	78
444008	4779770	Two RAF Hercules transport planes airlifted foreign evacuees.	Two RAF Hercules transport planes airlifted foreign evacuees.	226933919	1478098477780	1478098477904	e	69
444008	4779770	Two RAF Hercules transport planes airlifted foreign evacuees.	Two RAF Hercules transport planes airlifted foreign evacuees.	226933922	1478098478014	1478098478090	s	83
444008	4779770	Two RAF Hercules transport planes airlifted foreign evacuees.	Two RAF Hercules transport planes airlifted foreign evacuees.	226933984	1478098478151	1478098478270	 	32
444008	4779770	Two RAF Hercules transport planes airlifted foreign evacuees.	Two RAF Hercules transport planes airlifted foreign evacuees.	226933988	1478098478530	1478098478707	a	65
444008	4779770	Two RAF Hercules transport planes airlifted foreign evacuees.	Two RAF Hercules transport planes airlifted foreign evacuees.	226933993	1478098479107	1478098479210	i	73
444008	4779770	Two RAF Hercules transport planes airlifted foreign evacuees.	Two RAF Hercules transport planes airlifted foreign evacuees.	226933998	1478098479230	1478098479337	r	82
444008	4779770	Two RAF Hercules transport planes airlifted foreign evacuees.	Two RAF Hercules transport planes airlifted foreign evacuees.	226934000	1478098479597	1478098479714	l	76
444008	4779770	Two RAF Hercules transport planes airlifted foreign evacuees.	Two RAF Hercules transport planes airlifted foreign evacuees.	226934228	1478098479835	1478098479914	i	73
444008	4779770	Two RAF Hercules transport planes airlifted foreign evacuees.	Two RAF Hercules transport planes airlifted foreign evacuees.	226934234	1478098480194	1478098480324	f	70
444008	4779770	Two RAF Hercules transport planes airlifted foreign evacuees.	Two RAF Hercules transport planes airlifted foreign evacuees.	226934239	1478098482377	1478098482467	t	84
444008	4779770	Two RAF Hercules transport planes airlifted foreign evacuees.	Two RAF Hercules transport planes airlifted foreign evacuees.	226934244	1478098482587	1478098482753	e	69
444008	4779770	Two RAF Hercules transport planes airlifted foreign evacuees.	Two RAF Hercules transport planes airlifted foreign evacuees.	226934246	1478098482883	1478098482983	d	68
444008	4779770	Two RAF Hercules transport planes airlifted foreign evacuees.	Two RAF Hercules transport planes airlifted foreign evacuees.	226934371	1478098483015	1478098483160	 	32
444008	4779770	Two RAF Hercules transport planes airlifted foreign evacuees.	Two RAF Hercules transport planes airlifted foreign evacuees.	226934376	1478098483475	1478098483617	f	70
444008	4779770	Two RAF Hercules transport planes airlifted foreign evacuees.	Two RAF Hercules transport planes airlifted foreign evacuees.	226934381	1478098483697	1478098483843	o	79
444008	4779770	Two RAF Hercules transport planes airlifted foreign evacuees.	Two RAF Hercules transport planes airlifted foreign evacuees.	226934384	1478098483843	1478098483993	r	82
444008	4779770	Two RAF Hercules transport planes airlifted foreign evacuees.	Two RAF Hercules transport planes airlifted foreign evacuees.	226934385	1478098484637	1478098484733	e	69
444008	4779770	Two RAF Hercules transport planes airlifted foreign evacuees.	Two RAF Hercules transport planes airlifted foreign evacuees.	226934479	1478098484835	1478098484927	g	71
444008	4779770	Two RAF Hercules transport planes airlifted foreign evacuees.	Two RAF Hercules transport planes airlifted foreign evacuees.	226934482	1478098485627	1478098485727	BKSP	8
444008	4779770	Two RAF Hercules transport planes airlifted foreign evacuees.	Two RAF Hercules transport planes airlifted foreign evacuees.	226934485	1478098485957	1478098486030	i	73
444008	4779770	Two RAF Hercules transport planes airlifted foreign evacuees.	Two RAF Hercules transport planes airlifted foreign evacuees.	226934489	1478098486120	1478098486217	g	71
444008	4779770	Two RAF Hercules transport planes airlifted foreign evacuees.	Two RAF Hercules transport planes airlifted foreign evacuees.	226934492	1478098486307	1478098486430	n	78
444008	4779770	Two RAF Hercules transport planes airlifted foreign evacuees.	Two RAF Hercules transport planes airlifted foreign evacuees.	226934495	1478098486500	1478098486650	 	32
444008	4779770	Two RAF Hercules transport planes airlifted foreign evacuees.	Two RAF Hercules transport planes airlifted foreign evacuees.	226934657	1478098487283	1478098487387	e	69
444008	4779770	Two RAF Hercules transport planes airlifted foreign evacuees.	Two RAF Hercules transport planes airlifted foreign evacuees.	226934661	1478098487547	1478098487650	v	86
444008	4779770	Two RAF Hercules transport planes airlifted foreign evacuees.	Two RAF Hercules transport planes airlifted foreign evacuees.	226934665	1478098487830	1478098487957	a	65
444008	4779770	Two RAF Hercules transport planes airlifted foreign evacuees.	Two RAF Hercules transport planes airlifted foreign evacuees.	226934669	1478098488277	1478098488315	 	32
444008	4779770	Two RAF Hercules transport planes airlifted foreign evacuees.	Two RAF Hercules transport planes airlifted foreign evacuees.	226934678	1478098489443	1478098489533	BKSP	8
444008	4779770	Two RAF Hercules transport planes airlifted foreign evacuees.	Two RAF Hercules transport planes airlifted foreign evacuees.	226934682	1478098489843	1478098489973	c	67
444008	4779770	Two RAF Hercules transport planes airlifted foreign evacuees.	Two RAF Hercules transport planes airlifted foreign evacuees.	226934814	1478098490597	1478098490690	u	85
444008	4779770	Two RAF Hercules transport planes airlifted foreign evacuees.	Two RAF Hercules transport planes airlifted foreign evacuees.	226934817	1478098490850	1478098490970	e	69
444008	4779770	Two RAF Hercules transport planes airlifted foreign evacuees.	Two RAF Hercules transport planes airlifted foreign evacuees.	226934821	1478098491060	1478098491170	e	69
444008	4779770	Two RAF Hercules transport planes airlifted foreign evacuees.	Two RAF Hercules transport planes airlifted foreign evacuees.	226934824	1478098491461	1478098491580	s	83
444008	4779770	Two RAF Hercules transport planes airlifted foreign evacuees.	Two RAF Hercules transport planes airlifted foreign evacuees.	226934825	1478098492123	1478098492186	.	190
444008	4779823	Following are my comments.	Following are my comments.	226935045	1478098493914	1478098494056	CAPS_LOCK	20
444008	4779823	Following are my comments.	Following are my comments.	226935052	1478098494226	1478098494306	F	70
444008	4779823	Following are my comments.	Following are my comments.	226935057	1478098494306	1478098494456	CAPS_LOCK	20
444008	4779823	Following are my comments.	Following are my comments.	226935065	1478098494606	1478098494770	l	76
444008	4779823	Following are my comments.	Following are my comments.	226935069	1478098495323	1478098495406	BKSP	8
444008	4779823	Following are my comments.	Following are my comments.	226935076	1478098495576	1478098495666	o	79
444008	4779823	Following are my comments.	Following are my comments.	226935083	1478098495816	1478098495890	l	76
444008	4779823	Following are my comments.	Following are my comments.	226935088	1478098495970	1478098496026	l	76
444008	4779823	Following are my comments.	Following are my comments.	226935131	1478098496118	1478098496216	o	79
444008	4779823	Following are my comments.	Following are my comments.	226935134	1478098496246	1478098496373	w	87
444008	4779823	Following are my comments.	Following are my comments.	226935136	1478098496373	1478098496496	i	73
444008	4779823	Following are my comments.	Following are my comments.	226935138	1478098496626	1478098496746	n	78
444008	4779823	Following are my comments.	Following are my comments.	226935140	1478098496776	1478098496907	g	71
444008	4779823	Following are my comments.	Following are my comments.	226935275	1478098496866	1478098497060	 	32
444008	4779823	Following are my comments.	Following are my comments.	226935279	1478098497543	1478098497713	a	65
444008	4779823	Following are my comments.	Following are my comments.	226935281	1478098497723	1478098497826	r	82
444008	4779823	Following are my comments.	Following are my comments.	226935283	1478098497826	1478098497946	e	69
444008	4779823	Following are my comments.	Following are my comments.	226935285	1478098497946	1478098498080	 	32
444008	4779823	Following are my comments.	Following are my comments.	226935289	1478098499003	1478098499110	m	77
444008	4779823	Following are my comments.	Following are my comments.	226935339	1478098499142	1478098499323	y	89
444008	4779823	Following are my comments.	Following are my comments.	226935341	1478098499353	1478098499530	 	32
444008	4779823	Following are my comments.	Following are my comments.	226935343	1478098499740	1478098499866	c	67
444008	4779823	Following are my comments.	Following are my comments.	226935346	1478098499843	1478098499933	o	79
444008	4779823	Following are my comments.	Following are my comments.	226935348	1478098500073	1478098500146	m	77
444008	4779823	Following are my comments.	Following are my comments.	226935431	1478098500228	1478098500311	m	77
444008	4779823	Following are my comments.	Following are my comments.	226935435	1478098500361	1478098500506	e	69
444008	4779823	Following are my comments.	Following are my comments.	226935440	1478098500480	1478098500606	n	78
444008	4779823	Following are my comments.	Following are my comments.	226935443	1478098501210	1478098501320	t	84
444008	4779823	Following are my comments.	Following are my comments.	226935445	1478098501540	1478098501673	s	83
444008	4779823	Following are my comments.	Following are my comments.	226935494	1478098502306	1478098502354	.	190
444008	4779836	Has it been mentioned yet?	Has it been mentioned yet?	226935685	1478098503857	1478098504009	CAPS_LOCK	20
444008	4779836	Has it been mentioned yet?	Has it been mentioned yet?	226935688	1478098504079	1478098504166	H	72
444008	4779836	Has it been mentioned yet?	Has it been mentioned yet?	226935692	1478098504166	1478098504316	CAPS_LOCK	20
444008	4779836	Has it been mentioned yet?	Has it been mentioned yet?	226935697	1478098504396	1478098504569	a	65
444008	4779836	Has it been mentioned yet?	Has it been mentioned yet?	226935702	1478098504749	1478098504879	s	83
444008	4779836	Has it been mentioned yet?	Has it been mentioned yet?	226935705	1478098504919	1478098505066	 	32
444008	4779836	Has it been mentioned yet?	Has it been mentioned yet?	226935711	1478098505286	1478098505453	i	73
444008	4779836	Has it been mentioned yet?	Has it been mentioned yet?	226935748	1478098505695	1478098505803	t	84
444008	4779836	Has it been mentioned yet?	Has it been mentioned yet?	226935751	1478098505803	1478098505929	 	32
444008	4779836	Has it been mentioned yet?	Has it been mentioned yet?	226935755	1478098506009	1478098506099	b	66
444008	4779836	Has it been mentioned yet?	Has it been mentioned yet?	226935759	1478098506139	1478098506233	e	69
444008	4779836	Has it been mentioned yet?	Has it been mentioned yet?	226935763	1478098506253	1478098506369	e	69
444008	4779836	Has it been mentioned yet?	Has it been mentioned yet?	226935832	1478098506401	1478098506529	n	78
444008	4779836	Has it been mentioned yet?	Has it been mentioned yet?	226935836	1478098506752	1478098506859	 	32
444008	4779836	Has it been mentioned yet?	Has it been mentioned yet?	226935844	1478098507322	1478098507466	m	77
444008	4779836	Has it been mentioned yet?	Has it been mentioned yet?	226935850	1478098507506	1478098507639	e	69
444008	4779836	Has it been mentioned yet?	Has it been mentioned yet?	226935856	1478098507689	1478098507813	n	78
444008	4779836	Has it been mentioned yet?	Has it been mentioned yet?	226935908	1478098507926	1478098508016	t	84
444008	4779836	Has it been mentioned yet?	Has it been mentioned yet?	226935915	1478098508096	1478098508233	i	73
444008	4779836	Has it been mentioned yet?	Has it been mentioned yet?	226935922	1478098508223	1478098508366	o	79
444008	4779836	Has it been mentioned yet?	Has it been mentioned yet?	226935926	1478098508456	1478098508539	n	78
444008	4779836	Has it been mentioned yet?	Has it been mentioned yet?	226935931	1478098508769	1478098508826	e	69
444008	4779836	Has it been mentioned yet?	Has it been mentioned yet?	226936036	1478098508928	1478098508996	e	69
444008	4779836	Has it been mentioned yet?	Has it been mentioned yet?	226936040	1478098509739	1478098509813	BKSP	8
444008	4779836	Has it been mentioned yet?	Has it been mentioned yet?	226936046	1478098509913	1478098510039	d	68
444008	4779836	Has it been mentioned yet?	Has it been mentioned yet?	226936050	1478098510079	1478098510226	 	32
444008	4779836	Has it been mentioned yet?	Has it been mentioned yet?	226936054	1478098510449	1478098510562	y	89
444008	4779836	Has it been mentioned yet?	Has it been mentioned yet?	226936113	1478098510529	1478098510643	e	69
444008	4779836	Has it been mentioned yet?	Has it been mentioned yet?	226936116	1478098510673	1478098510766	t	84
444008	4779836	Has it been mentioned yet?	Has it been mentioned yet?	226936118	1478098511589	1478098511823	?	191
444008	4779848	I haven't really done any studying for it.	I haven't really done any studying for it.	226936280	1478098513272	1478098513392	CAPS_LOCK	20
444008	4779848	I haven't really done any studying for it.	I haven't really done any studying for it.	226936284	1478098513532	1478098513602	I	73
444008	4779848	I haven't really done any studying for it.	I haven't really done any studying for it.	226936290	1478098513652	1478098513772	CAPS_LOCK	20
444008	4779848	I haven't really done any studying for it.	I haven't really done any studying for it.	226936291	1478098513802	1478098513909	 	32
444008	4779848	I haven't really done any studying for it.	I haven't really done any studying for it.	226936294	1478098514009	1478098514102	h	72
444008	4779848	I haven't really done any studying for it.	I haven't really done any studying for it.	226936297	1478098514042	1478098514182	a	65
444008	4779848	I haven't really done any studying for it.	I haven't really done any studying for it.	226936301	1478098514232	1478098514326	v	86
444008	4779848	I haven't really done any studying for it.	I haven't really done any studying for it.	226936376	1478098514388	1478098514512	e	69
444008	4779848	I haven't really done any studying for it.	I haven't really done any studying for it.	226936381	1478098514562	1478098514649	n	78
444008	4779848	I haven't really done any studying for it.	I haven't really done any studying for it.	226936385	1478098515272	1478098515356	'	222
444008	4779848	I haven't really done any studying for it.	I haven't really done any studying for it.	226936388	1478098515416	1478098515519	t	84
444008	4779848	I haven't really done any studying for it.	I haven't really done any studying for it.	226936390	1478098515589	1478098515722	 	32
444008	4779848	I haven't really done any studying for it.	I haven't really done any studying for it.	226936521	1478098516256	1478098516419	r	82
444008	4779848	I haven't really done any studying for it.	I haven't really done any studying for it.	226936524	1478098516589	1478098516722	e	69
444008	4779848	I haven't really done any studying for it.	I haven't really done any studying for it.	226936530	1478098517032	1478098517216	a	65
444008	4779848	I haven't really done any studying for it.	I haven't really done any studying for it.	226936534	1478098518352	1478098518419	l	76
444008	4779848	I haven't really done any studying for it.	I haven't really done any studying for it.	226936538	1478098518519	1478098518586	l	76
444008	4779848	I haven't really done any studying for it.	I haven't really done any studying for it.	226936592	1478098518658	1478098518749	y	89
444008	4779848	I haven't really done any studying for it.	I haven't really done any studying for it.	226936598	1478098518749	1478098518889	 	32
444008	4779848	I haven't really done any studying for it.	I haven't really done any studying for it.	226936603	1478098519201	1478098519338	d	68
444008	4779848	I haven't really done any studying for it.	I haven't really done any studying for it.	226936606	1478098519289	1478098519422	o	79
444008	4779848	I haven't really done any studying for it.	I haven't really done any studying for it.	226936608	1478098519582	1478098519682	n	78
444008	4779848	I haven't really done any studying for it.	I haven't really done any studying for it.	226936683	1478098519764	1478098519906	e	69
444008	4779848	I haven't really done any studying for it.	I haven't really done any studying for it.	226936688	1478098519906	1478098520049	 	32
444008	4779848	I haven't really done any studying for it.	I haven't really done any studying for it.	226936692	1478098520209	1478098520362	a	65
444008	4779848	I haven't really done any studying for it.	I haven't really done any studying for it.	226936696	1478098520319	1478098520396	n	78
444008	4779848	I haven't really done any studying for it.	I haven't really done any studying for it.	226936698	1478098520546	1478098520722	y	89
444008	4779848	I haven't really done any studying for it.	I haven't really done any studying for it.	226936784	1478098520854	1478098521009	 	32
444008	4779848	I haven't really done any studying for it.	I haven't really done any studying for it.	226936788	1478098521225	1478098521366	s	83
444008	4779848	I haven't really done any studying for it.	I haven't really done any studying for it.	226936790	1478098521366	1478098521466	t	84
444008	4779848	I haven't really done any studying for it.	I haven't really done any studying for it.	226936793	1478098521586	1478098521725	u	85
444008	4779848	I haven't really done any studying for it.	I haven't really done any studying for it.	226936796	1478098522045	1478098522182	d	68
444008	4779848	I haven't really done any studying for it.	I haven't really done any studying for it.	226936843	1478098522224	1478098522365	y	89
444008	4779848	I haven't really done any studying for it.	I haven't really done any studying for it.	226936847	1478098522515	1478098522667	i	73
444008	4779848	I haven't really done any studying for it.	I haven't really done any studying for it.	226936854	1478098522737	1478098522842	n	78
444008	4779848	I haven't really done any studying for it.	I haven't really done any studying for it.	226936862	1478098522842	1478098522962	g	71
444008	4779848	I haven't really done any studying for it.	I haven't really done any studying for it.	226936950	1478098522932	1478098523073	 	32
444008	4779848	I haven't really done any studying for it.	I haven't really done any studying for it.	226936953	1478098523705	1478098523809	f	70
444008	4779848	I haven't really done any studying for it.	I haven't really done any studying for it.	226936956	1478098523819	1478098524015	o	79
444008	4779848	I haven't really done any studying for it.	I haven't really done any studying for it.	226936963	1478098524205	1478098524339	r	82
444008	4779848	I haven't really done any studying for it.	I haven't really done any studying for it.	226936969	1478098524339	1478098524442	 	32
444008	4779848	I haven't really done any studying for it.	I haven't really done any studying for it.	226936973	1478098524562	1478098524665	i	73
444008	4779848	I haven't really done any studying for it.	I haven't really done any studying for it.	226937003	1478098524675	1478098524795	t	84
444008	4779848	I haven't really done any studying for it.	I haven't really done any studying for it.	226937006	1478098525035	1478098525172	.	190
444008	4779865	Giants, but he didn't finish it.	Giants, but he didn't finish it.	226937229	1478098526829	1478098526949	CAPS_LOCK	20
444008	4779865	Giants, but he didn't finish it.	Giants, but he didn't finish it.	226937233	1478098526999	1478098527109	H	72
444008	4779865	Giants, but he didn't finish it.	Giants, but he didn't finish it.	226937237	1478098527109	1478098527209	CAPS_LOCK	20
444008	4779865	Giants, but he didn't finish it.	Giants, but he didn't finish it.	226937239	1478098527499	1478098527609	BKSP	8
444008	4779865	Giants, but he didn't finish it.	Giants, but he didn't finish it.	226937242	1478098527729	1478098527869	CAPS_LOCK	20
444008	4779865	Giants, but he didn't finish it.	Giants, but he didn't finish it.	226937246	1478098527999	1478098528099	G	71
444008	4779865	Giants, but he didn't finish it.	Giants, but he didn't finish it.	226937251	1478098528119	1478098528259	CAPS_LOCK	20
444008	4779865	Giants, but he didn't finish it.	Giants, but he didn't finish it.	226937255	1478098528379	1478098528503	i	73
444008	4779865	Giants, but he didn't finish it.	Giants, but he didn't finish it.	226937258	1478098528557	1478098528660	a	65
444008	4779865	Giants, but he didn't finish it.	Giants, but he didn't finish it.	226937262	1478098528730	1478098528853	n	78
444008	4779865	Giants, but he didn't finish it.	Giants, but he didn't finish it.	226937383	1478098528945	1478098529043	t	84
444008	4779865	Giants, but he didn't finish it.	Giants, but he didn't finish it.	226937388	1478098529203	1478098529370	s	83
444008	4779865	Giants, but he didn't finish it.	Giants, but he didn't finish it.	226937395	1478098529963	1478098530036	,	188
444008	4779865	Giants, but he didn't finish it.	Giants, but he didn't finish it.	226937401	1478098530176	1478098530316	 	32
444008	4779865	Giants, but he didn't finish it.	Giants, but he didn't finish it.	226937407	1478098530870	1478098531086	b	66
444008	4779865	Giants, but he didn't finish it.	Giants, but he didn't finish it.	226937442	1478098531179	1478098531333	u	85
444008	4779865	Giants, but he didn't finish it.	Giants, but he didn't finish it.	226937446	1478098531333	1478098531443	t	84
444008	4779865	Giants, but he didn't finish it.	Giants, but he didn't finish it.	226937452	1478098531413	1478098531557	 	32
444008	4779865	Giants, but he didn't finish it.	Giants, but he didn't finish it.	226937457	1478098531797	1478098531920	h	72
444008	4779865	Giants, but he didn't finish it.	Giants, but he didn't finish it.	226937462	1478098531930	1478098532083	e	69
444008	4779865	Giants, but he didn't finish it.	Giants, but he didn't finish it.	226937598	1478098532073	1478098532186	 	32
444008	4779865	Giants, but he didn't finish it.	Giants, but he didn't finish it.	226937604	1478098532616	1478098532756	d	68
444008	4779865	Giants, but he didn't finish it.	Giants, but he didn't finish it.	226937608	1478098532786	1478098532913	i	73
444008	4779865	Giants, but he didn't finish it.	Giants, but he didn't finish it.	226937615	1478098533786	1478098533883	d	68
444008	4779865	Giants, but he didn't finish it.	Giants, but he didn't finish it.	226937621	1478098533883	1478098534003	n	78
444008	4779865	Giants, but he didn't finish it.	Giants, but he didn't finish it.	226937626	1478098535003	1478098535079	'	222
444008	4779865	Giants, but he didn't finish it.	Giants, but he didn't finish it.	226937739	1478098535121	1478098535236	y	89
444008	4779865	Giants, but he didn't finish it.	Giants, but he didn't finish it.	226937741	1478098535276	1478098535403	 	32
444008	4779865	Giants, but he didn't finish it.	Giants, but he didn't finish it.	226937743	1478098536008	1478098536101	BKSP	8
444008	4779865	Giants, but he didn't finish it.	Giants, but he didn't finish it.	226937746	1478098536181	1478098536245	BKSP	8
444008	4779865	Giants, but he didn't finish it.	Giants, but he didn't finish it.	226937749	1478098536625	1478098536708	t	84
444008	4779865	Giants, but he didn't finish it.	Giants, but he didn't finish it.	226937751	1478098536758	1478098536871	 	32
444008	4779865	Giants, but he didn't finish it.	Giants, but he didn't finish it.	226937753	1478098537595	1478098537715	f	70
444008	4779865	Giants, but he didn't finish it.	Giants, but he didn't finish it.	226937798	1478098537837	1478098537918	i	73
444008	4779865	Giants, but he didn't finish it.	Giants, but he didn't finish it.	226937799	1478098538038	1478098538125	n	78
444008	4779865	Giants, but he didn't finish it.	Giants, but he didn't finish it.	226937800	1478098538205	1478098538371	i	73
444008	4779865	Giants, but he didn't finish it.	Giants, but he didn't finish it.	226937802	1478098538411	1478098538531	s	83
444008	4779865	Giants, but he didn't finish it.	Giants, but he didn't finish it.	226937804	1478098538743	1478098538865	h	72
444008	4779865	Giants, but he didn't finish it.	Giants, but he didn't finish it.	226937931	1478098539077	1478098539208	 	32
444008	4779865	Giants, but he didn't finish it.	Giants, but he didn't finish it.	226937933	1478098539482	1478098539618	i	73
444008	4779865	Giants, but he didn't finish it.	Giants, but he didn't finish it.	226937934	1478098539748	1478098539885	t	84
444008	4779865	Giants, but he didn't finish it.	Giants, but he didn't finish it.	226937935	1478098540328	1478098540418	.	190
444008	4779887	Are you sure I don't need to be there?	Are you sure I don't need to be there?	226938065	1478098542388	1478098542578	CAPS_LOCK	20
444008	4779887	Are you sure I don't need to be there?	Are you sure I don't need to be there?	226938066	1478098542658	1478098542821	A	65
444008	4779887	Are you sure I don't need to be there?	Are you sure I don't need to be there?	226938067	1478098542861	1478098542991	CAPS_LOCK	20
444008	4779887	Are you sure I don't need to be there?	Are you sure I don't need to be there?	226938070	1478098542981	1478098543068	r	82
444008	4779887	Are you sure I don't need to be there?	Are you sure I don't need to be there?	226938074	1478098543178	1478098543288	e	69
444008	4779887	Are you sure I don't need to be there?	Are you sure I don't need to be there?	226938078	1478098543308	1478098543471	 	32
444008	4779887	Are you sure I don't need to be there?	Are you sure I don't need to be there?	226938083	1478098543601	1478098543761	y	89
444008	4779887	Are you sure I don't need to be there?	Are you sure I don't need to be there?	226938186	1478098544106	1478098544309	o	79
444008	4779887	Are you sure I don't need to be there?	Are you sure I don't need to be there?	226938188	1478098544281	1478098544408	u	85
444008	4779887	Are you sure I don't need to be there?	Are you sure I don't need to be there?	226938192	1478098544468	1478098544621	 	32
444008	4779887	Are you sure I don't need to be there?	Are you sure I don't need to be there?	226938196	1478098544671	1478098544818	s	83
444008	4779887	Are you sure I don't need to be there?	Are you sure I don't need to be there?	226938199	1478098545471	1478098545598	u	85
444008	4779887	Are you sure I don't need to be there?	Are you sure I don't need to be there?	226938242	1478098545598	1478098545761	r	82
444008	4779887	Are you sure I don't need to be there?	Are you sure I don't need to be there?	226938244	1478098545761	1478098545938	e	69
444008	4779887	Are you sure I don't need to be there?	Are you sure I don't need to be there?	226938247	1478098545871	1478098546028	 	32
444008	4779887	Are you sure I don't need to be there?	Are you sure I don't need to be there?	226938252	1478098546268	1478098546421	CAPS_LOCK	20
444008	4779887	Are you sure I don't need to be there?	Are you sure I don't need to be there?	226938256	1478098546388	1478098546484	I	73
444008	4779887	Are you sure I don't need to be there?	Are you sure I don't need to be there?	226938259	1478098546554	1478098546621	 	20
444008	4779887	Are you sure I don't need to be there?	Are you sure I don't need to be there?	226938296	1478098546863	1478098547004	d	68
444008	4779887	Are you sure I don't need to be there?	Are you sure I don't need to be there?	226938302	1478098546893	1478098547114	o	79
444008	4779887	Are you sure I don't need to be there?	Are you sure I don't need to be there?	226938306	1478098547184	1478098547324	n	78
444008	4779887	Are you sure I don't need to be there?	Are you sure I don't need to be there?	226938309	1478098547324	1478098547500	t	84
444008	4779887	Are you sure I don't need to be there?	Are you sure I don't need to be there?	226938314	1478098547540	1478098547701	 	32
444008	4779887	Are you sure I don't need to be there?	Are you sure I don't need to be there?	226938519	1478098547943	1478098548044	BKSP	8
444008	4779887	Are you sure I don't need to be there?	Are you sure I don't need to be there?	226938523	1478098548134	1478098548204	BKSP	8
444008	4779887	Are you sure I don't need to be there?	Are you sure I don't need to be there?	226938529	1478098548818	1478098548908	'	222
444008	4779887	Are you sure I don't need to be there?	Are you sure I don't need to be there?	226938532	1478098549984	1478098550074	y	89
444008	4779887	Are you sure I don't need to be there?	Are you sure I don't need to be there?	226938535	1478098550384	1478098550514	BKSP	8
444008	4779887	Are you sure I don't need to be there?	Are you sure I don't need to be there?	226938540	1478098550514	1478098550631	t	84
444008	4779887	Are you sure I don't need to be there?	Are you sure I don't need to be there?	226938546	1478098550631	1478098550804	 	32
444008	4779887	Are you sure I don't need to be there?	Are you sure I don't need to be there?	226938553	1478098551164	1478098551291	n	78
444008	4779887	Are you sure I don't need to be there?	Are you sure I don't need to be there?	226938599	1478098551513	1478098551581	e	69
444008	4779887	Are you sure I don't need to be there?	Are you sure I don't need to be there?	226938602	1478098551681	1478098551768	e	69
444008	4779887	Are you sure I don't need to be there?	Are you sure I don't need to be there?	226938606	1478098551868	1478098551967	d	68
444008	4779887	Are you sure I don't need to be there?	Are you sure I don't need to be there?	226938610	1478098551967	1478098552109	 	32
444008	4779887	Are you sure I don't need to be there?	Are you sure I don't need to be there?	226938615	1478098552169	1478098552307	t	84
444008	4779887	Are you sure I don't need to be there?	Are you sure I don't need to be there?	226938643	1478098552307	1478098552413	o	79
444008	4779887	Are you sure I don't need to be there?	Are you sure I don't need to be there?	226938647	1478098552371	1478098552517	 	32
444008	4779887	Are you sure I don't need to be there?	Are you sure I don't need to be there?	226938650	1478098552648	1478098552753	b	66
444008	4779887	Are you sure I don't need to be there?	Are you sure I don't need to be there?	226938654	1478098552783	1478098552909	e	69
444008	4779887	Are you sure I don't need to be there?	Are you sure I don't need to be there?	226938798	1478098552884	1478098552994	 	32
444008	4779887	Are you sure I don't need to be there?	Are you sure I don't need to be there?	226938800	1478098553124	1478098553247	h	72
444008	4779887	Are you sure I don't need to be there?	Are you sure I don't need to be there?	226938802	1478098553417	1478098553617	t	84
444008	4779887	Are you sure I don't need to be there?	Are you sure I don't need to be there?	226938804	1478098554754	1478098554851	BKSP	8
444008	4779887	Are you sure I don't need to be there?	Are you sure I don't need to be there?	226938807	1478098554921	1478098554977	BKSP	8
444008	4779887	Are you sure I don't need to be there?	Are you sure I don't need to be there?	226938812	1478098555227	1478098555367	t	84
444008	4779887	Are you sure I don't need to be there?	Are you sure I don't need to be there?	226938814	1478098555427	1478098555597	h	72
444008	4779887	Are you sure I don't need to be there?	Are you sure I don't need to be there?	226938818	1478098555677	1478098555797	e	69
444008	4779887	Are you sure I don't need to be there?	Are you sure I don't need to be there?	226938898	1478098556261	1478098556431	r	82
444008	4779887	Are you sure I don't need to be there?	Are you sure I don't need to be there?	226938901	1478098556431	1478098556584	e	69
444008	4779887	Are you sure I don't need to be there?	Are you sure I don't need to be there?	226938904	1478098557517	1478098557757	?	191
444008	4779909	Here's the September purchase for September.	Here's the September purchase for September.	226939086	1478098559774	1478098559924	CAPS_LOCK	20
444008	4779909	Here's the September purchase for September.	Here's the September purchase for September.	226939091	1478098559954	1478098560041	H	72
444008	4779909	Here's the September purchase for September.	Here's the September purchase for September.	226939097	1478098560061	1478098560181	CAPS_LOCK	20
444008	4779909	Here's the September purchase for September.	Here's the September purchase for September.	226939099	1478098560421	1478098560518	e	69
444008	4779909	Here's the September purchase for September.	Here's the September purchase for September.	226939105	1478098560688	1478098560834	r	82
444008	4779909	Here's the September purchase for September.	Here's the September purchase for September.	226939109	1478098560834	1478098560994	e	69
444008	4779909	Here's the September purchase for September.	Here's the September purchase for September.	226939113	1478098561517	1478098561607	'	222
444008	4779909	Here's the September purchase for September.	Here's the September purchase for September.	226939210	1478098561689	1478098561828	s	83
444008	4779909	Here's the September purchase for September.	Here's the September purchase for September.	226939213	1478098561804	1478098561991	 	32
444008	4779909	Here's the September purchase for September.	Here's the September purchase for September.	226939216	1478098562571	1478098562647	t	84
444008	4779909	Here's the September purchase for September.	Here's the September purchase for September.	226939223	1478098562647	1478098562744	h	72
444008	4779909	Here's the September purchase for September.	Here's the September purchase for September.	226939227	1478098562924	1478098563067	e	69
444008	4779909	Here's the September purchase for September.	Here's the September purchase for September.	226939325	1478098563119	1478098563247	 	32
444008	4779909	Here's the September purchase for September.	Here's the September purchase for September.	226939327	1478098563397	1478098563557	CAPS_LOCK	20
444008	4779909	Here's the September purchase for September.	Here's the September purchase for September.	226939331	1478098563634	1478098563764	S	83
444008	4779909	Here's the September purchase for September.	Here's the September purchase for September.	226939336	1478098563784	1478098563924	CAPS_LOCK	20
444008	4779909	Here's the September purchase for September.	Here's the September purchase for September.	226939342	1478098564074	1478098564188	e	69
444008	4779909	Here's the September purchase for September.	Here's the September purchase for September.	226939348	1478098564157	1478098564350	p	80
444008	4779909	Here's the September purchase for September.	Here's the September purchase for September.	226939353	1478098564500	1478098564620	t	84
444008	4779909	Here's the September purchase for September.	Here's the September purchase for September.	226939456	1478098565076	1478098565187	e	69
444008	4779909	Here's the September purchase for September.	Here's the September purchase for September.	226939459	1478098565197	1478098565324	m	77
444008	4779909	Here's the September purchase for September.	Here's the September purchase for September.	226939462	1478098565564	1478098565690	b	66
444008	4779909	Here's the September purchase for September.	Here's the September purchase for September.	226939467	1478098565740	1478098565894	e	69
444008	4779909	Here's the September purchase for September.	Here's the September purchase for September.	226939473	1478098565894	1478098566004	r	82
444008	4779909	Here's the September purchase for September.	Here's the September purchase for September.	226939603	1478098565954	1478098566078	 	32
444008	4779909	Here's the September purchase for September.	Here's the September purchase for September.	226939605	1478098566564	1478098566767	p	80
444008	4779909	Here's the September purchase for September.	Here's the September purchase for September.	226939607	1478098567027	1478098567132	u	85
444008	4779909	Here's the September purchase for September.	Here's the September purchase for September.	226939608	1478098567188	1478098567284	r	82
444008	4779909	Here's the September purchase for September.	Here's the September purchase for September.	226939610	1478098567494	1478098567595	c	67
444008	4779909	Here's the September purchase for September.	Here's the September purchase for September.	226939612	1478098567595	1478098567704	h	72
444008	4779909	Here's the September purchase for September.	Here's the September purchase for September.	226939704	1478098567846	1478098568024	a	65
444008	4779909	Here's the September purchase for September.	Here's the September purchase for September.	226939707	1478098568284	1478098568424	s	83
444008	4779909	Here's the September purchase for September.	Here's the September purchase for September.	226939710	1478098568534	1478098568711	e	69
444008	4779909	Here's the September purchase for September.	Here's the September purchase for September.	226939713	1478098568711	1478098568870	 	32
444008	4779909	Here's the September purchase for September.	Here's the September purchase for September.	226939718	1478098569444	1478098569604	f	70
444008	4779909	Here's the September purchase for September.	Here's the September purchase for September.	226939830	1478098569614	1478098569740	o	79
444008	4779909	Here's the September purchase for September.	Here's the September purchase for September.	226939834	1478098569740	1478098569884	r	82
444008	4779909	Here's the September purchase for September.	Here's the September purchase for September.	226939841	1478098569894	1478098569984	 	32
444008	4779909	Here's the September purchase for September.	Here's the September purchase for September.	226939845	1478098570260	1478098570421	CAPS_LOCK	20
444008	4779909	Here's the September purchase for September.	Here's the September purchase for September.	226939850	1478098570564	1478098570727	S	83
444008	4779909	Here's the September purchase for September.	Here's the September purchase for September.	226939853	1478098570727	1478098570907	CAPS_LOCK	20
444008	4779909	Here's the September purchase for September.	Here's the September purchase for September.	226939859	1478098571994	1478098572183	e	69
444008	4779909	Here's the September purchase for September.	Here's the September purchase for September.	226939919	1478098572206	1478098572340	p	80
444008	4779909	Here's the September purchase for September.	Here's the September purchase for September.	226939920	1478098572540	1478098572643	t	84
444008	4779909	Here's the September purchase for September.	Here's the September purchase for September.	226939923	1478098572783	1478098572916	e	69
444008	4779909	Here's the September purchase for September.	Here's the September purchase for September.	226939927	1478098572893	1478098573003	m	77
444008	4779909	Here's the September purchase for September.	Here's the September purchase for September.	226939932	1478098573133	1478098573233	b	66
444008	4779909	Here's the September purchase for September.	Here's the September purchase for September.	226940022	1478098573255	1478098573444	e	69
444008	4779909	Here's the September purchase for September.	Here's the September purchase for September.	226940023	1478098573400	1478098573580	r	82
444008	4779909	Here's the September purchase for September.	Here's the September purchase for September.	226940025	1478098574627	1478098574787	.	190
444008	4779930	Add a Star Trek convention and sports memorabilia show to the mix.	Add a Star Trek convention and sports memorabilia show to the mix.	226940301	1478098576490	1478098576660	CAPS_LOCK	20
444008	4779930	Add a Star Trek convention and sports memorabilia show to the mix.	Add a Star Trek convention and sports memorabilia show to the mix.	226940306	1478098577617	1478098577767	A	65
444008	4779930	Add a Star Trek convention and sports memorabilia show to the mix.	Add a Star Trek convention and sports memorabilia show to the mix.	226940313	1478098577807	1478098577957	CAPS_LOCK	20
444008	4779930	Add a Star Trek convention and sports memorabilia show to the mix.	Add a Star Trek convention and sports memorabilia show to the mix.	226940318	1478098578310	1478098578460	d	68
444008	4779930	Add a Star Trek convention and sports memorabilia show to the mix.	Add a Star Trek convention and sports memorabilia show to the mix.	226940328	1478098578590	1478098578683	d	68
444008	4779930	Add a Star Trek convention and sports memorabilia show to the mix.	Add a Star Trek convention and sports memorabilia show to the mix.	226940333	1478098578753	1478098578900	 	32
444008	4779930	Add a Star Trek convention and sports memorabilia show to the mix.	Add a Star Trek convention and sports memorabilia show to the mix.	226940338	1478098578940	1478098579123	a	65
444008	4779930	Add a Star Trek convention and sports memorabilia show to the mix.	Add a Star Trek convention and sports memorabilia show to the mix.	226940440	1478098579123	1478098579227	 	32
444008	4779930	Add a Star Trek convention and sports memorabilia show to the mix.	Add a Star Trek convention and sports memorabilia show to the mix.	226940445	1478098579447	1478098579661	CAPS_LOCK	20
444008	4779930	Add a Star Trek convention and sports memorabilia show to the mix.	Add a Star Trek convention and sports memorabilia show to the mix.	226940449	1478098579730	1478098579867	S	83
444008	4779930	Add a Star Trek convention and sports memorabilia show to the mix.	Add a Star Trek convention and sports memorabilia show to the mix.	226940454	1478098579917	1478098580067	CAPS_LOCK	20
444008	4779930	Add a Star Trek convention and sports memorabilia show to the mix.	Add a Star Trek convention and sports memorabilia show to the mix.	226940459	1478098580117	1478098580227	t	84
444008	4779930	Add a Star Trek convention and sports memorabilia show to the mix.	Add a Star Trek convention and sports memorabilia show to the mix.	226940463	1478098580357	1478098580457	r	82
444008	4779930	Add a Star Trek convention and sports memorabilia show to the mix.	Add a Star Trek convention and sports memorabilia show to the mix.	226940466	1478098580547	1478098580708	a	65
444008	4779930	Add a Star Trek convention and sports memorabilia show to the mix.	Add a Star Trek convention and sports memorabilia show to the mix.	226940538	1478098581323	1478098581417	BKSP	8
444008	4779930	Add a Star Trek convention and sports memorabilia show to the mix.	Add a Star Trek convention and sports memorabilia show to the mix.	226940540	1478098581487	1478098581563	BKSP	8
444008	4779930	Add a Star Trek convention and sports memorabilia show to the mix.	Add a Star Trek convention and sports memorabilia show to the mix.	226940546	1478098581623	1478098581786	a	65
444008	4779930	Add a Star Trek convention and sports memorabilia show to the mix.	Add a Star Trek convention and sports memorabilia show to the mix.	226940550	1478098581876	1478098581936	r	82
444008	4779930	Add a Star Trek convention and sports memorabilia show to the mix.	Add a Star Trek convention and sports memorabilia show to the mix.	226940554	1478098582016	1478098582137	 	32
444008	4779930	Add a Star Trek convention and sports memorabilia show to the mix.	Add a Star Trek convention and sports memorabilia show to the mix.	226940559	1478098582157	1478098582307	CAPS_LOCK	20
444008	4779930	Add a Star Trek convention and sports memorabilia show to the mix.	Add a Star Trek convention and sports memorabilia show to the mix.	226940561	1478098582307	1478098582420	T	84
444008	4779930	Add a Star Trek convention and sports memorabilia show to the mix.	Add a Star Trek convention and sports memorabilia show to the mix.	226940564	1478098582460	1478098582580	CAPS_LOCK	20
444008	4779930	Add a Star Trek convention and sports memorabilia show to the mix.	Add a Star Trek convention and sports memorabilia show to the mix.	226940569	1478098582680	1478098582766	r	82
444008	4779930	Add a Star Trek convention and sports memorabilia show to the mix.	Add a Star Trek convention and sports memorabilia show to the mix.	226940649	1478098582858	1478098582980	e	69
444008	4779930	Add a Star Trek convention and sports memorabilia show to the mix.	Add a Star Trek convention and sports memorabilia show to the mix.	226940655	1478098583100	1478098583213	k	75
444008	4779930	Add a Star Trek convention and sports memorabilia show to the mix.	Add a Star Trek convention and sports memorabilia show to the mix.	226940658	1478098583273	1478098583438	 	32
444008	4779930	Add a Star Trek convention and sports memorabilia show to the mix.	Add a Star Trek convention and sports memorabilia show to the mix.	226940661	1478098583990	1478098584093	c	67
444008	4779930	Add a Star Trek convention and sports memorabilia show to the mix.	Add a Star Trek convention and sports memorabilia show to the mix.	226940663	1478098584093	1478098584203	o	79
444008	4779930	Add a Star Trek convention and sports memorabilia show to the mix.	Add a Star Trek convention and sports memorabilia show to the mix.	226940734	1478098584385	1478098584513	n	78
444008	4779930	Add a Star Trek convention and sports memorabilia show to the mix.	Add a Star Trek convention and sports memorabilia show to the mix.	226940739	1478098584655	1478098584810	v	86
444008	4779930	Add a Star Trek convention and sports memorabilia show to the mix.	Add a Star Trek convention and sports memorabilia show to the mix.	226940743	1478098585273	1478098585426	e	69
444008	4779930	Add a Star Trek convention and sports memorabilia show to the mix.	Add a Star Trek convention and sports memorabilia show to the mix.	226940751	1478098585426	1478098585566	n	78
444008	4779930	Add a Star Trek convention and sports memorabilia show to the mix.	Add a Star Trek convention and sports memorabilia show to the mix.	226940757	1478098585636	1478098585763	t	84
444008	4779930	Add a Star Trek convention and sports memorabilia show to the mix.	Add a Star Trek convention and sports memorabilia show to the mix.	226940809	1478098585954	1478098586120	i	73
444008	4779930	Add a Star Trek convention and sports memorabilia show to the mix.	Add a Star Trek convention and sports memorabilia show to the mix.	226940811	1478098586120	1478098586276	o	79
444008	4779930	Add a Star Trek convention and sports memorabilia show to the mix.	Add a Star Trek convention and sports memorabilia show to the mix.	226940813	1478098586347	1478098586530	n	78
444008	4779930	Add a Star Trek convention and sports memorabilia show to the mix.	Add a Star Trek convention and sports memorabilia show to the mix.	226940816	1478098586530	1478098586693	 	32
444008	4779930	Add a Star Trek convention and sports memorabilia show to the mix.	Add a Star Trek convention and sports memorabilia show to the mix.	226940952	1478098586646	1478098586785	a	65
444008	4779930	Add a Star Trek convention and sports memorabilia show to the mix.	Add a Star Trek convention and sports memorabilia show to the mix.	226940955	1478098586785	1478098586923	n	78
444008	4779930	Add a Star Trek convention and sports memorabilia show to the mix.	Add a Star Trek convention and sports memorabilia show to the mix.	226940959	1478098586993	1478098587123	f	70
444008	4779930	Add a Star Trek convention and sports memorabilia show to the mix.	Add a Star Trek convention and sports memorabilia show to the mix.	226940963	1478098587123	1478098587273	 	32
444008	4779930	Add a Star Trek convention and sports memorabilia show to the mix.	Add a Star Trek convention and sports memorabilia show to the mix.	226940968	1478098587603	1478098587706	BKSP	8
444008	4779930	Add a Star Trek convention and sports memorabilia show to the mix.	Add a Star Trek convention and sports memorabilia show to the mix.	226940973	1478098587766	1478098587886	BKSP	8
444008	4779930	Add a Star Trek convention and sports memorabilia show to the mix.	Add a Star Trek convention and sports memorabilia show to the mix.	226940978	1478098588630	1478098588723	d	68
444008	4779930	Add a Star Trek convention and sports memorabilia show to the mix.	Add a Star Trek convention and sports memorabilia show to the mix.	226940983	1478098588723	1478098588876	 	32
444008	4779930	Add a Star Trek convention and sports memorabilia show to the mix.	Add a Star Trek convention and sports memorabilia show to the mix.	226941039	1478098589098	1478098589243	s	83
444008	4779930	Add a Star Trek convention and sports memorabilia show to the mix.	Add a Star Trek convention and sports memorabilia show to the mix.	226941043	1478098589363	1478098589550	p	80
444008	4779930	Add a Star Trek convention and sports memorabilia show to the mix.	Add a Star Trek convention and sports memorabilia show to the mix.	226941046	1478098589540	1478098589643	o	79
444008	4779930	Add a Star Trek convention and sports memorabilia show to the mix.	Add a Star Trek convention and sports memorabilia show to the mix.	226941052	1478098589661	1478098589790	r	82
444008	4779930	Add a Star Trek convention and sports memorabilia show to the mix.	Add a Star Trek convention and sports memorabilia show to the mix.	226941056	1478098589880	1478098589966	t	84
444008	4779930	Add a Star Trek convention and sports memorabilia show to the mix.	Add a Star Trek convention and sports memorabilia show to the mix.	226941142	1478098590058	1478098590188	s	83
444008	4779930	Add a Star Trek convention and sports memorabilia show to the mix.	Add a Star Trek convention and sports memorabilia show to the mix.	226941149	1478098590160	1478098590300	 	32
444008	4779930	Add a Star Trek convention and sports memorabilia show to the mix.	Add a Star Trek convention and sports memorabilia show to the mix.	226941154	1478098590630	1478098590768	m	77
444008	4779930	Add a Star Trek convention and sports memorabilia show to the mix.	Add a Star Trek convention and sports memorabilia show to the mix.	226941157	1478098590808	1478098590940	e	69
444008	4779930	Add a Star Trek convention and sports memorabilia show to the mix.	Add a Star Trek convention and sports memorabilia show to the mix.	226941162	1478098590970	1478098591076	m	77
444008	4779930	Add a Star Trek convention and sports memorabilia show to the mix.	Add a Star Trek convention and sports memorabilia show to the mix.	226941390	1478098591488	1478098591619	o	79
444008	4779930	Add a Star Trek convention and sports memorabilia show to the mix.	Add a Star Trek convention and sports memorabilia show to the mix.	226941391	1478098591563	1478098591649	r	82
444008	4779930	Add a Star Trek convention and sports memorabilia show to the mix.	Add a Star Trek convention and sports memorabilia show to the mix.	226941392	1478098592059	1478098592199	a	65
444008	4779930	Add a Star Trek convention and sports memorabilia show to the mix.	Add a Star Trek convention and sports memorabilia show to the mix.	226941394	1478098592199	1478098592329	b	66
444008	4779930	Add a Star Trek convention and sports memorabilia show to the mix.	Add a Star Trek convention and sports memorabilia show to the mix.	226941395	1478098594376	1478098594476	i	73
444008	4779930	Add a Star Trek convention and sports memorabilia show to the mix.	Add a Star Trek convention and sports memorabilia show to the mix.	226941512	1478098594588	1478098594693	l	76
444008	4779930	Add a Star Trek convention and sports memorabilia show to the mix.	Add a Star Trek convention and sports memorabilia show to the mix.	226941515	1478098594773	1478098594884	i	73
444008	4779930	Add a Star Trek convention and sports memorabilia show to the mix.	Add a Star Trek convention and sports memorabilia show to the mix.	226941516	1478098595084	1478098595276	a	65
444008	4779930	Add a Star Trek convention and sports memorabilia show to the mix.	Add a Star Trek convention and sports memorabilia show to the mix.	226941518	1478098595316	1478098595429	 	32
444008	4779930	Add a Star Trek convention and sports memorabilia show to the mix.	Add a Star Trek convention and sports memorabilia show to the mix.	226941524	1478098596016	1478098596199	s	83
444008	4779930	Add a Star Trek convention and sports memorabilia show to the mix.	Add a Star Trek convention and sports memorabilia show to the mix.	226941589	1478098596189	1478098596326	h	72
444008	4779930	Add a Star Trek convention and sports memorabilia show to the mix.	Add a Star Trek convention and sports memorabilia show to the mix.	226941592	1478098596366	1478098596619	o	79
444008	4779930	Add a Star Trek convention and sports memorabilia show to the mix.	Add a Star Trek convention and sports memorabilia show to the mix.	226941595	1478098596745	1478098596856	w	87
444008	4779930	Add a Star Trek convention and sports memorabilia show to the mix.	Add a Star Trek convention and sports memorabilia show to the mix.	226941599	1478098596846	1478098597006	 	32
444008	4779930	Add a Star Trek convention and sports memorabilia show to the mix.	Add a Star Trek convention and sports memorabilia show to the mix.	226941605	1478098597126	1478098597247	t	84
444008	4779930	Add a Star Trek convention and sports memorabilia show to the mix.	Add a Star Trek convention and sports memorabilia show to the mix.	226941645	1478098597199	1478098597332	o	79
444008	4779930	Add a Star Trek convention and sports memorabilia show to the mix.	Add a Star Trek convention and sports memorabilia show to the mix.	226941647	1478098597332	1478098597509	 	32
444008	4779930	Add a Star Trek convention and sports memorabilia show to the mix.	Add a Star Trek convention and sports memorabilia show to the mix.	226941655	1478098597549	1478098597646	t	84
444008	4779930	Add a Star Trek convention and sports memorabilia show to the mix.	Add a Star Trek convention and sports memorabilia show to the mix.	226941661	1478098597676	1478098597819	h	72
444008	4779930	Add a Star Trek convention and sports memorabilia show to the mix.	Add a Star Trek convention and sports memorabilia show to the mix.	226941669	1478098597839	1478098597979	e	69
444008	4779930	Add a Star Trek convention and sports memorabilia show to the mix.	Add a Star Trek convention and sports memorabilia show to the mix.	226941872	1478098597926	1478098598111	 	32
444008	4779930	Add a Star Trek convention and sports memorabilia show to the mix.	Add a Star Trek convention and sports memorabilia show to the mix.	226941878	1478098598311	1478098598414	m	77
444008	4779930	Add a Star Trek convention and sports memorabilia show to the mix.	Add a Star Trek convention and sports memorabilia show to the mix.	226941884	1478098598554	1478098598672	i	73
444008	4779930	Add a Star Trek convention and sports memorabilia show to the mix.	Add a Star Trek convention and sports memorabilia show to the mix.	226941889	1478098599166	1478098599292	x	88
444008	4779930	Add a Star Trek convention and sports memorabilia show to the mix.	Add a Star Trek convention and sports memorabilia show to the mix.	226941894	1478098600271	1478098600339	.	190
444008	4779967	I hope this is the last revision for September.	I hope this is the last revision for September.	226942102	1478098602118	1478098602265	CAPS_LOCK	20
444008	4779967	I hope this is the last revision for September.	I hope this is the last revision for September.	226942104	1478098602365	1478098602452	I	73
444008	4779967	I hope this is the last revision for September.	I hope this is the last revision for September.	226942107	1478098602452	1478098602583	CAPS_LOCK	20
444008	4779967	I hope this is the last revision for September.	I hope this is the last revision for September.	226942109	1478098602542	1478098602759	 	32
444008	4779967	I hope this is the last revision for September.	I hope this is the last revision for September.	226942110	1478098602759	1478098602932	h	72
444008	4779967	I hope this is the last revision for September.	I hope this is the last revision for September.	226942112	1478098603092	1478098603575	o	79
444008	4779967	I hope this is the last revision for September.	I hope this is the last revision for September.	226942325	1478098604159	1478098604262	p	219
444008	4779967	I hope this is the last revision for September.	I hope this is the last revision for September.	226942330	1478098605015	1478098605079	BKSP	8
444008	4779967	I hope this is the last revision for September.	I hope this is the last revision for September.	226942337	1478098605179	1478098605249	BKSP	8
444008	4779967	I hope this is the last revision for September.	I hope this is the last revision for September.	226942343	1478098605469	1478098605572	p	80
444008	4779967	I hope this is the last revision for September.	I hope this is the last revision for September.	226942350	1478098605622	1478098605762	e	69
444008	4779967	I hope this is the last revision for September.	I hope this is the last revision for September.	226942356	1478098605719	1478098605902	 	32
444008	4779967	I hope this is the last revision for September.	I hope this is the last revision for September.	226942363	1478098606315	1478098606482	t	84
444008	4779967	I hope this is the last revision for September.	I hope this is the last revision for September.	226942368	1478098606542	1478098606785	h	72
444008	4779967	I hope this is the last revision for September.	I hope this is the last revision for September.	226942373	1478098606847	1478098606985	i	73
444008	4779967	I hope this is the last revision for September.	I hope this is the last revision for September.	226942375	1478098606975	1478098607103	s	83
444008	4779967	I hope this is the last revision for September.	I hope this is the last revision for September.	226942379	1478098607079	1478098607279	 	32
444008	4779967	I hope this is the last revision for September.	I hope this is the last revision for September.	226942384	1478098607279	1478098607423	i	73
444008	4779967	I hope this is the last revision for September.	I hope this is the last revision for September.	226942445	1478098607399	1478098607522	s	83
444008	4779967	I hope this is the last revision for September.	I hope this is the last revision for September.	226942448	1478098607462	1478098607632	 	32
444008	4779967	I hope this is the last revision for September.	I hope this is the last revision for September.	226942453	1478098607792	1478098607927	t	84
444008	4779967	I hope this is the last revision for September.	I hope this is the last revision for September.	226942461	1478098607895	1478098608025	h	72
444008	4779967	I hope this is the last revision for September.	I hope this is the last revision for September.	226942467	1478098608025	1478098608183	e	69
444008	4779967	I hope this is the last revision for September.	I hope this is the last revision for September.	226942536	1478098608159	1478098608342	 	32
444008	4779967	I hope this is the last revision for September.	I hope this is the last revision for September.	226942540	1478098608454	1478098608679	l	76
444008	4779967	I hope this is the last revision for September.	I hope this is the last revision for September.	226942547	1478098608572	1478098608759	a	65
444008	4779967	I hope this is the last revision for September.	I hope this is the last revision for September.	226942551	1478098608759	1478098608912	s	83
444008	4779967	I hope this is the last revision for September.	I hope this is the last revision for September.	226942555	1478098608942	1478098609125	t	84
444008	4779967	I hope this is the last revision for September.	I hope this is the last revision for September.	226942561	1478098609165	1478098609372	 	32
444008	4779967	I hope this is the last revision for September.	I hope this is the last revision for September.	226942651	1478098609975	1478098610119	r	82
444008	4779967	I hope this is the last revision for September.	I hope this is the last revision for September.	226942653	1478098610119	1478098610299	e	69
444008	4779967	I hope this is the last revision for September.	I hope this is the last revision for September.	226942656	1478098610409	1478098610562	v	86
444008	4779967	I hope this is the last revision for September.	I hope this is the last revision for September.	226942658	1478098610692	1478098610855	i	73
444008	4779967	I hope this is the last revision for September.	I hope this is the last revision for September.	226942661	1478098610875	1478098611039	s	83
444008	4779967	I hope this is the last revision for September.	I hope this is the last revision for September.	226942877	1478098611071	1478098611129	u	85
444008	4779967	I hope this is the last revision for September.	I hope this is the last revision for September.	226942878	1478098612167	1478098612302	BKSP	8
444008	4779967	I hope this is the last revision for September.	I hope this is the last revision for September.	226942881	1478098613135	1478098613319	i	73
444008	4779967	I hope this is the last revision for September.	I hope this is the last revision for September.	226942884	1478098613288	1478098613465	o	79
444008	4779967	I hope this is the last revision for September.	I hope this is the last revision for September.	226942888	1478098614358	1478098614498	n	78
444008	4779967	I hope this is the last revision for September.	I hope this is the last revision for September.	226942894	1478098614518	1478098614695	 	32
444008	4779967	I hope this is the last revision for September.	I hope this is the last revision for September.	226942975	1478098614638	1478098614807	f	70
444008	4779967	I hope this is the last revision for September.	I hope this is the last revision for September.	226942976	1478098614787	1478098614956	o	79
444008	4779967	I hope this is the last revision for September.	I hope this is the last revision for September.	226942978	1478098614956	1478098615071	r	82
444008	4779967	I hope this is the last revision for September.	I hope this is the last revision for September.	226942984	1478098615038	1478098615195	 	32
444008	4779967	I hope this is the last revision for September.	I hope this is the last revision for September.	226942992	1478098615335	1478098615525	CAPS_LOCK	20
444008	4779967	I hope this is the last revision for September.	I hope this is the last revision for September.	226942999	1478098615535	1478098615668	S	83
444008	4779967	I hope this is the last revision for September.	I hope this is the last revision for September.	226943006	1478098615708	1478098615838	CAPS_LOCK	20
444008	4779967	I hope this is the last revision for September.	I hope this is the last revision for September.	226943011	1478098615998	1478098616151	e	69
444008	4779967	I hope this is the last revision for September.	I hope this is the last revision for September.	226943075	1478098616102	1478098616244	p	80
444008	4779967	I hope this is the last revision for September.	I hope this is the last revision for September.	226943078	1478098616404	1478098616512	t	84
444008	4779967	I hope this is the last revision for September.	I hope this is the last revision for September.	226943082	1478098616673	1478098616789	e	69
444008	4779967	I hope this is the last revision for September.	I hope this is the last revision for September.	226943088	1478098616889	1478098617015	m	77
444008	4779967	I hope this is the last revision for September.	I hope this is the last revision for September.	226943093	1478098617235	1478098617365	b	66
444008	4779967	I hope this is the last revision for September.	I hope this is the last revision for September.	226943097	1478098617445	1478098617632	e	69
444008	4779967	I hope this is the last revision for September.	I hope this is the last revision for September.	226943139	1478098617632	1478098617775	r	82
444008	4779967	I hope this is the last revision for September.	I hope this is the last revision for September.	226943142	1478098618328	1478098618418	.	190
444008	4779995	If not can I call you?	If not can I call you?	226943363	1478098619926	1478098620075	CAPS_LOCK	20
444008	4779995	If not can I call you?	If not can I call you?	226943366	1478098620185	1478098620295	I	73
444008	4779995	If not can I call you?	If not can I call you?	226943370	1478098620295	1478098620415	CAPS_LOCK	20
444008	4779995	If not can I call you?	If not can I call you?	226943374	1478098620625	1478098620758	f	70
444008	4779995	If not can I call you?	If not can I call you?	226943378	1478098620718	1478098620861	 	32
444008	4779995	If not can I call you?	If not can I call you?	226943382	1478098622058	1478098622281	n	78
444008	4779995	If not can I call you?	If not can I call you?	226943384	1478098622281	1478098622505	o	79
444008	4779995	If not can I call you?	If not can I call you?	226943479	1478098622388	1478098622505	t	84
444008	4779995	If not can I call you?	If not can I call you?	226943483	1478098622505	1478098622661	 	32
444008	4779995	If not can I call you?	If not can I call you?	226943488	1478098623033	1478098623215	c	67
444008	4779995	If not can I call you?	If not can I call you?	226943492	1478098623245	1478098623430	a	65
444008	4779995	If not can I call you?	If not can I call you?	226943496	1478098623395	1478098623545	n	78
444008	4779995	If not can I call you?	If not can I call you?	226943500	1478098623545	1478098623695	 	32
444008	4779995	If not can I call you?	If not can I call you?	226943573	1478098623807	1478098623939	CAPS_LOCK	20
444008	4779995	If not can I call you?	If not can I call you?	226943575	1478098623989	1478098624085	I	73
444008	4779995	If not can I call you?	If not can I call you?	226943579	1478098624095	1478098624241	CAPS_LOCK	20
444008	4779995	If not can I call you?	If not can I call you?	226943583	1478098624165	1478098624311	 	32
444008	4779995	If not can I call you?	If not can I call you?	226943590	1478098624421	1478098624558	c	67
444008	4779995	If not can I call you?	If not can I call you?	226943597	1478098624678	1478098624808	a	65
444008	4779995	If not can I call you?	If not can I call you?	226943601	1478098625068	1478098625188	l	76
444008	4779995	If not can I call you?	If not can I call you?	226943635	1478098625270	1478098625441	l	76
444008	4779995	If not can I call you?	If not can I call you?	226943638	1478098625441	1478098625635	 	32
444008	4779995	If not can I call you?	If not can I call you?	226943640	1478098625635	1478098625745	y	89
444008	4779995	If not can I call you?	If not can I call you?	226943642	1478098625694	1478098625934	o	79
444008	4779995	If not can I call you?	If not can I call you?	226943697	1478098625906	1478098625981	u	85
444008	4779995	If not can I call you?	If not can I call you?	226943702	1478098626585	1478098626825	?	191
