PARTICIPANT_ID	TEST_SECTION_ID	SENTENCE	USER_INPUT	KEYSTROKE_ID	PRESS_TIME	RELEASE_TIME	LETTER	KEYCODE
448898	4835586	I'll get you one.	I'll get you one.	229567309	1478143613326	1478143613461	SHIFT	16
448898	4835586	I'll get you one.	I'll get you one.	229567310	1478143613358	1478143613478	I	73
448898	4835586	I'll get you one.	I'll get you one.	229567312	1478143613510	1478143613638	'	222
448898	4835586	I'll get you one.	I'll get you one.	229567314	1478143614154	1478143614242	l	76
448898	4835586	I'll get you one.	I'll get you one.	229567317	1478143614289	1478143614410	l	76
448898	4835586	I'll get you one.	I'll get you one.	229567349	1478143614338	1478143614569	 	32
448898	4835586	I'll get you one.	I'll get you one.	229567351	1478143614616	1478143614858	e	69
448898	4835586	I'll get you one.	I'll get you one.	229567353	1478143614770	1478143614906	t	84
448898	4835586	I'll get you one.	I'll get you one.	229567356	1478143614921	1478143615053	 	32
448898	4835586	I'll get you one.	I'll get you one.	229567358	1478143615147	1478143615226	BKSP	8
448898	4835586	I'll get you one.	I'll get you one.	229567361	1478143615289	1478143615378	BKSP	8
448898	4835586	I'll get you one.	I'll get you one.	229567365	1478143615440	1478143615512	BKSP	8
448898	4835586	I'll get you one.	I'll get you one.	229567368	1478143615559	1478143615712	g	71
448898	4835586	I'll get you one.	I'll get you one.	229567378	1478143615660	1478143615841	e	69
448898	4835586	I'll get you one.	I'll get you one.	229567380	1478143615759	1478143615879	t	84
448898	4835586	I'll get you one.	I'll get you one.	229567383	1478143615793	1478143615995	 	32
448898	4835586	I'll get you one.	I'll get you one.	229567386	1478143615861	1478143616049	o	79
448898	4835586	I'll get you one.	I'll get you one.	229567390	1478143615927	1478143616096	u	85
448898	4835586	I'll get you one.	I'll get you one.	229567394	1478143616112	1478143616256	y	89
448898	4835586	I'll get you one.	I'll get you one.	229567430	1478143616503	1478143616577	BKSP	8
448898	4835586	I'll get you one.	I'll get you one.	229567432	1478143616639	1478143616726	BKSP	8
448898	4835586	I'll get you one.	I'll get you one.	229567436	1478143616773	1478143616860	BKSP	8
448898	4835586	I'll get you one.	I'll get you one.	229567440	1478143616891	1478143617010	y	89
448898	4835586	I'll get you one.	I'll get you one.	229567442	1478143616977	1478143617133	o	79
448898	4835586	I'll get you one.	I'll get you one.	229567445	1478143617043	1478143617197	u	85
448898	4835586	I'll get you one.	I'll get you one.	229567447	1478143617099	1478143617327	 	32
448898	4835586	I'll get you one.	I'll get you one.	229567486	1478143617228	1478143617419	o	79
448898	4835586	I'll get you one.	I'll get you one.	229567489	1478143617315	1478143617463	n	78
448898	4835586	I'll get you one.	I'll get you one.	229567492	1478143617411	1478143617510	e	69
448898	4835586	I'll get you one.	I'll get you one.	229567499	1478143617463	1478143617609	.	190
448898	4835586	I'll get you one.	I'll get you one.	229567505	1478143617718	1478143617816	 	32
448898	4835586	I'll get you one.	I'll get you one.	229567510	1478143618214	1478143618315	BKSP	8
448898	4835594	As soon as we are done - we'll give you a call.	As soon as we are done - we'll give you a call.	229567642	1478143620750	1478143620953	SHIFT	16
448898	4835594	As soon as we are done - we'll give you a call.	As soon as we are done - we'll give you a call.	229567646	1478143620859	1478143620968	A	65
448898	4835594	As soon as we are done - we'll give you a call.	As soon as we are done - we'll give you a call.	229567652	1478143621015	1478143621132	s	83
448898	4835594	As soon as we are done - we'll give you a call.	As soon as we are done - we'll give you a call.	229567655	1478143621148	1478143621326	 	32
448898	4835594	As soon as we are done - we'll give you a call.	As soon as we are done - we'll give you a call.	229567659	1478143621297	1478143621424	s	83
448898	4835594	As soon as we are done - we'll give you a call.	As soon as we are done - we'll give you a call.	229567666	1478143621417	1478143621504	o	79
448898	4835594	As soon as we are done - we'll give you a call.	As soon as we are done - we'll give you a call.	229567667	1478143621567	1478143621711	o	79
448898	4835594	As soon as we are done - we'll give you a call.	As soon as we are done - we'll give you a call.	229567668	1478143621635	1478143621786	n	78
448898	4835594	As soon as we are done - we'll give you a call.	As soon as we are done - we'll give you a call.	229567669	1478143621689	1478143621855	 	32
448898	4835594	As soon as we are done - we'll give you a call.	As soon as we are done - we'll give you a call.	229567735	1478143621786	1478143621919	a	65
448898	4835594	As soon as we are done - we'll give you a call.	As soon as we are done - we'll give you a call.	229567737	1478143621847	1478143621996	s	83
448898	4835594	As soon as we are done - we'll give you a call.	As soon as we are done - we'll give you a call.	229567739	1478143621955	1478143622106	 	32
448898	4835594	As soon as we are done - we'll give you a call.	As soon as we are done - we'll give you a call.	229567741	1478143622038	1478143622190	s	83
448898	4835594	As soon as we are done - we'll give you a call.	As soon as we are done - we'll give you a call.	229567744	1478143622138	1478143622270	e	69
448898	4835594	As soon as we are done - we'll give you a call.	As soon as we are done - we'll give you a call.	229567747	1478143622221	1478143622385	 	32
448898	4835594	As soon as we are done - we'll give you a call.	As soon as we are done - we'll give you a call.	229567750	1478143622682	1478143622801	BKSP	8
448898	4835594	As soon as we are done - we'll give you a call.	As soon as we are done - we'll give you a call.	229567753	1478143622926	1478143623004	BKSP	8
448898	4835594	As soon as we are done - we'll give you a call.	As soon as we are done - we'll give you a call.	229567758	1478143623074	1478143623201	BKSP	8
448898	4835594	As soon as we are done - we'll give you a call.	As soon as we are done - we'll give you a call.	229567762	1478143623451	1478143623616	w	87
448898	4835594	As soon as we are done - we'll give you a call.	As soon as we are done - we'll give you a call.	229567746	1478143623506	1478143623659	e	69
448898	4835594	As soon as we are done - we'll give you a call.	As soon as we are done - we'll give you a call.	229567748	1478143623571	1478143623746	 	32
448898	4835594	As soon as we are done - we'll give you a call.	As soon as we are done - we'll give you a call.	229567751	1478143623706	1478143623854	a	65
448898	4835594	As soon as we are done - we'll give you a call.	As soon as we are done - we'll give you a call.	229567759	1478143623778	1478143623950	r	82
448898	4835594	As soon as we are done - we'll give you a call.	As soon as we are done - we'll give you a call.	229567755	1478143623874	1478143623946	 	69
448898	4835594	As soon as we are done - we'll give you a call.	As soon as we are done - we'll give you a call.	229567773	1478143624002	1478143624118	d	68
448898	4835594	As soon as we are done - we'll give you a call.	As soon as we are done - we'll give you a call.	229567774	1478143624042	1478143624194	o	79
448898	4835594	As soon as we are done - we'll give you a call.	As soon as we are done - we'll give you a call.	229567776	1478143624110	1478143624239	n	78
448898	4835594	As soon as we are done - we'll give you a call.	As soon as we are done - we'll give you a call.	229567778	1478143624178	1478143624311	e	69
448898	4835594	As soon as we are done - we'll give you a call.	As soon as we are done - we'll give you a call.	229567782	1478143624329	1478143624540	 	32
448898	4835594	As soon as we are done - we'll give you a call.	As soon as we are done - we'll give you a call.	229567785	1478143624485	1478143624655	-	189
448898	4835594	As soon as we are done - we'll give you a call.	As soon as we are done - we'll give you a call.	229567814	1478143624618	1478143624825	 	32
448898	4835594	As soon as we are done - we'll give you a call.	As soon as we are done - we'll give you a call.	229567816	1478143624755	1478143624907	w	87
448898	4835594	As soon as we are done - we'll give you a call.	As soon as we are done - we'll give you a call.	229567817	1478143624825	1478143624987	e	69
448898	4835594	As soon as we are done - we'll give you a call.	As soon as we are done - we'll give you a call.	229567818	1478143624969	1478143625121	'	222
448898	4835594	As soon as we are done - we'll give you a call.	As soon as we are done - we'll give you a call.	229567819	1478143625181	1478143625273	l	76
448898	4835594	As soon as we are done - we'll give you a call.	As soon as we are done - we'll give you a call.	229567822	1478143625319	1478143625464	l	76
448898	4835594	As soon as we are done - we'll give you a call.	As soon as we are done - we'll give you a call.	229567834	1478143625376	1478143625612	 	32
448898	4835594	As soon as we are done - we'll give you a call.	As soon as we are done - we'll give you a call.	229567833	1478143625456	1478143625604	g	71
448898	4835594	As soon as we are done - we'll give you a call.	As soon as we are done - we'll give you a call.	229567835	1478143625556	1478143625751	i	73
448898	4835594	As soon as we are done - we'll give you a call.	As soon as we are done - we'll give you a call.	229567836	1478143625656	1478143625796	v	86
448898	4835594	As soon as we are done - we'll give you a call.	As soon as we are done - we'll give you a call.	229567837	1478143625711	1478143625860	e	69
448898	4835594	As soon as we are done - we'll give you a call.	As soon as we are done - we'll give you a call.	229567838	1478143625775	1478143625958	 	32
448898	4835594	As soon as we are done - we'll give you a call.	As soon as we are done - we'll give you a call.	229567849	1478143625891	1478143626013	o	89
448898	4835594	As soon as we are done - we'll give you a call.	As soon as we are done - we'll give you a call.	229567852	1478143626006	1478143626110	u	85
448898	4835594	As soon as we are done - we'll give you a call.	As soon as we are done - we'll give you a call.	229567860	1478143626045	1478143626169	 	32
448898	4835594	As soon as we are done - we'll give you a call.	As soon as we are done - we'll give you a call.	229567863	1478143626110	1478143626231	a	65
448898	4835594	As soon as we are done - we'll give you a call.	As soon as we are done - we'll give you a call.	229567869	1478143626225	1478143626408	 	32
448898	4835594	As soon as we are done - we'll give you a call.	As soon as we are done - we'll give you a call.	229567890	1478143626338	1478143626509	c	67
448898	4835594	As soon as we are done - we'll give you a call.	As soon as we are done - we'll give you a call.	229567892	1478143626461	1478143626569	a	65
448898	4835594	As soon as we are done - we'll give you a call.	As soon as we are done - we'll give you a call.	229567895	1478143626674	1478143626807	l	76
448898	4835594	As soon as we are done - we'll give you a call.	As soon as we are done - we'll give you a call.	229567900	1478143626890	1478143627020	l	76
448898	4835602	Whether that package is training or material has yet to be determined.	Whether that package is training or material has yet to be determined.	229568154	1478143635075	1478143635222	SHIFT	16
448898	4835602	Whether that package is training or material has yet to be determined.	Whether that package is training or material has yet to be determined.	229568155	1478143635137	1478143635253	W	87
448898	4835602	Whether that package is training or material has yet to be determined.	Whether that package is training or material has yet to be determined.	229568157	1478143635315	1478143635481	h	72
448898	4835602	Whether that package is training or material has yet to be determined.	Whether that package is training or material has yet to be determined.	229568158	1478143635467	1478143635620	e	69
448898	4835602	Whether that package is training or material has yet to be determined.	Whether that package is training or material has yet to be determined.	229568160	1478143635584	1478143635742	t	84
448898	4835602	Whether that package is training or material has yet to be determined.	Whether that package is training or material has yet to be determined.	229568170	1478143635734	1478143635887	h	72
448898	4835602	Whether that package is training or material has yet to be determined.	Whether that package is training or material has yet to be determined.	229568172	1478143635798	1478143635945	e	69
448898	4835602	Whether that package is training or material has yet to be determined.	Whether that package is training or material has yet to be determined.	229568174	1478143635850	1478143635965	r	82
448898	4835602	Whether that package is training or material has yet to be determined.	Whether that package is training or material has yet to be determined.	229568184	1478143635939	1478143636184	 	32
448898	4835602	Whether that package is training or material has yet to be determined.	Whether that package is training or material has yet to be determined.	229568176	1478143636020	1478143636132	t	84
448898	4835602	Whether that package is training or material has yet to be determined.	Whether that package is training or material has yet to be determined.	229568185	1478143636089	1478143636253	h	72
448898	4835602	Whether that package is training or material has yet to be determined.	Whether that package is training or material has yet to be determined.	229568187	1478143636124	1478143636273	a	65
448898	4835602	Whether that package is training or material has yet to be determined.	Whether that package is training or material has yet to be determined.	229568188	1478143636209	1478143636321	t	84
448898	4835602	Whether that package is training or material has yet to be determined.	Whether that package is training or material has yet to be determined.	229568190	1478143636245	1478143636431	 	32
448898	4835602	Whether that package is training or material has yet to be determined.	Whether that package is training or material has yet to be determined.	229568193	1478143636306	1478143636472	p	80
448898	4835602	Whether that package is training or material has yet to be determined.	Whether that package is training or material has yet to be determined.	229568197	1478143636390	1478143636503	a	65
448898	4835602	Whether that package is training or material has yet to be determined.	Whether that package is training or material has yet to be determined.	229568202	1478143636503	1478143636639	c	67
448898	4835602	Whether that package is training or material has yet to be determined.	Whether that package is training or material has yet to be determined.	229568200	1478143636559	1478143636723	k	75
448898	4835602	Whether that package is training or material has yet to be determined.	Whether that package is training or material has yet to be determined.	229568204	1478143636691	1478143636807	a	65
448898	4835602	Whether that package is training or material has yet to be determined.	Whether that package is training or material has yet to be determined.	229568207	1478143636739	1478143636932	g	71
448898	4835602	Whether that package is training or material has yet to be determined.	Whether that package is training or material has yet to be determined.	229568209	1478143636840	1478143636948	e	69
448898	4835602	Whether that package is training or material has yet to be determined.	Whether that package is training or material has yet to be determined.	229568218	1478143636906	1478143637036	 	32
448898	4835602	Whether that package is training or material has yet to be determined.	Whether that package is training or material has yet to be determined.	229568220	1478143636940	1478143637131	i	73
448898	4835602	Whether that package is training or material has yet to be determined.	Whether that package is training or material has yet to be determined.	229568219	1478143637009	1478143637127	s	83
448898	4835602	Whether that package is training or material has yet to be determined.	Whether that package is training or material has yet to be determined.	229568222	1478143637092	1478143637344	 	32
448898	4835602	Whether that package is training or material has yet to be determined.	Whether that package is training or material has yet to be determined.	229568221	1478143637144	1478143637257	t	84
448898	4835602	Whether that package is training or material has yet to be determined.	Whether that package is training or material has yet to be determined.	229568224	1478143637286	1478143637439	r	82
448898	4835602	Whether that package is training or material has yet to be determined.	Whether that package is training or material has yet to be determined.	229568245	1478143637359	1478143637503	a	65
448898	4835602	Whether that package is training or material has yet to be determined.	Whether that package is training or material has yet to be determined.	229568247	1478143637419	1478143637544	i	73
448898	4835602	Whether that package is training or material has yet to be determined.	Whether that package is training or material has yet to be determined.	229568253	1478143637491	1478143637614	n	78
448898	4835602	Whether that package is training or material has yet to be determined.	Whether that package is training or material has yet to be determined.	229568257	1478143637606	1478143637744	i	73
448898	4835602	Whether that package is training or material has yet to be determined.	Whether that package is training or material has yet to be determined.	229568261	1478143637675	1478143637812	n	78
448898	4835602	Whether that package is training or material has yet to be determined.	Whether that package is training or material has yet to be determined.	229568263	1478143637767	1478143637875	g	71
448898	4835602	Whether that package is training or material has yet to be determined.	Whether that package is training or material has yet to be determined.	229568265	1478143637827	1478143638006	 	32
448898	4835602	Whether that package is training or material has yet to be determined.	Whether that package is training or material has yet to be determined.	229568267	1478143637921	1478143638009	o	79
448898	4835602	Whether that package is training or material has yet to be determined.	Whether that package is training or material has yet to be determined.	229568269	1478143637962	1478143638073	r	82
448898	4835602	Whether that package is training or material has yet to be determined.	Whether that package is training or material has yet to be determined.	229568271	1478143638064	1478143638197	 	32
448898	4835602	Whether that package is training or material has yet to be determined.	Whether that package is training or material has yet to be determined.	229568291	1478143638109	1478143638268	m	77
448898	4835602	Whether that package is training or material has yet to be determined.	Whether that package is training or material has yet to be determined.	229568294	1478143638153	1478143638272	a	65
448898	4835602	Whether that package is training or material has yet to be determined.	Whether that package is training or material has yet to be determined.	229568297	1478143638244	1478143638355	t	84
448898	4835602	Whether that package is training or material has yet to be determined.	Whether that package is training or material has yet to be determined.	229568299	1478143638371	1478143638501	e	69
448898	4835602	Whether that package is training or material has yet to be determined.	Whether that package is training or material has yet to be determined.	229568301	1478143638441	1478143638593	r	82
448898	4835602	Whether that package is training or material has yet to be determined.	Whether that package is training or material has yet to be determined.	229568303	1478143638532	1478143638684	a	65
448898	4835602	Whether that package is training or material has yet to be determined.	Whether that package is training or material has yet to be determined.	229568308	1478143638798	1478143638914	i	73
448898	4835602	Whether that package is training or material has yet to be determined.	Whether that package is training or material has yet to be determined.	229568336	1478143639042	1478143639126	BKSP	8
448898	4835602	Whether that package is training or material has yet to be determined.	Whether that package is training or material has yet to be determined.	229568337	1478143639162	1478143639242	BKSP	8
448898	4835602	Whether that package is training or material has yet to be determined.	Whether that package is training or material has yet to be determined.	229568338	1478143639336	1478143639478	i	73
448898	4835602	Whether that package is training or material has yet to be determined.	Whether that package is training or material has yet to be determined.	229568339	1478143639424	1478143639534	a	65
448898	4835602	Whether that package is training or material has yet to be determined.	Whether that package is training or material has yet to be determined.	229568340	1478143639494	1478143639645	l	76
448898	4835602	Whether that package is training or material has yet to be determined.	Whether that package is training or material has yet to be determined.	229568341	1478143639562	1478143639800	 	32
448898	4835602	Whether that package is training or material has yet to be determined.	Whether that package is training or material has yet to be determined.	229568352	1478143639691	1478143639852	a	72
448898	4835602	Whether that package is training or material has yet to be determined.	Whether that package is training or material has yet to be determined.	229568353	1478143639776	1478143639929	s	83
448898	4835602	Whether that package is training or material has yet to be determined.	Whether that package is training or material has yet to be determined.	229568355	1478143639876	1478143640123	 	32
448898	4835602	Whether that package is training or material has yet to be determined.	Whether that package is training or material has yet to be determined.	229568357	1478143640007	1478143640151	y	89
448898	4835602	Whether that package is training or material has yet to be determined.	Whether that package is training or material has yet to be determined.	229568359	1478143640092	1478143640255	e	69
448898	4835602	Whether that package is training or material has yet to be determined.	Whether that package is training or material has yet to be determined.	229568380	1478143640163	1478143640311	t	84
448898	4835602	Whether that package is training or material has yet to be determined.	Whether that package is training or material has yet to be determined.	229568381	1478143640247	1478143640497	 	32
448898	4835602	Whether that package is training or material has yet to be determined.	Whether that package is training or material has yet to be determined.	229568382	1478143640425	1478143640606	d	68
448898	4835602	Whether that package is training or material has yet to be determined.	Whether that package is training or material has yet to be determined.	229568383	1478143640602	1478143640638	o	79
448898	4835602	Whether that package is training or material has yet to be determined.	Whether that package is training or material has yet to be determined.	229568385	1478143640838	1478143640845	BKSP	8
448898	4835602	Whether that package is training or material has yet to be determined.	Whether that package is training or material has yet to be determined.	229568387	1478143640889	1478143640977	BKSP	8
448898	4835602	Whether that package is training or material has yet to be determined.	Whether that package is training or material has yet to be determined.	229568389	1478143640977	1478143641121	t	84
448898	4835602	Whether that package is training or material has yet to be determined.	Whether that package is training or material has yet to be determined.	229568391	1478143641068	1478143641231	o	79
448898	4835602	Whether that package is training or material has yet to be determined.	Whether that package is training or material has yet to be determined.	229568401	1478143641161	1478143641376	 	32
448898	4835602	Whether that package is training or material has yet to be determined.	Whether that package is training or material has yet to be determined.	229568402	1478143641317	1478143641496	b	66
448898	4835602	Whether that package is training or material has yet to be determined.	Whether that package is training or material has yet to be determined.	229568404	1478143641410	1478143641515	e	69
448898	4835602	Whether that package is training or material has yet to be determined.	Whether that package is training or material has yet to be determined.	229568406	1478143641496	1478143641665	 	32
448898	4835602	Whether that package is training or material has yet to be determined.	Whether that package is training or material has yet to be determined.	229568410	1478143641594	1478143641696	d	68
448898	4835602	Whether that package is training or material has yet to be determined.	Whether that package is training or material has yet to be determined.	229568413	1478143641774	1478143641882	e	69
448898	4835602	Whether that package is training or material has yet to be determined.	Whether that package is training or material has yet to be determined.	229568432	1478143641826	1478143641965	t	84
448898	4835602	Whether that package is training or material has yet to be determined.	Whether that package is training or material has yet to be determined.	229568435	1478143641932	1478143642076	e	69
448898	4835602	Whether that package is training or material has yet to be determined.	Whether that package is training or material has yet to be determined.	229568437	1478143642012	1478143642198	r	82
448898	4835602	Whether that package is training or material has yet to be determined.	Whether that package is training or material has yet to be determined.	229568438	1478143642063	1478143642198	m	77
448898	4835602	Whether that package is training or material has yet to be determined.	Whether that package is training or material has yet to be determined.	229568439	1478143642222	1478143642350	n	78
448898	4835602	Whether that package is training or material has yet to be determined.	Whether that package is training or material has yet to be determined.	229568466	1478143642258	1478143642424	e	69
448898	4835602	Whether that package is training or material has yet to be determined.	Whether that package is training or material has yet to be determined.	229568464	1478143642302	1478143642408	i	73
448898	4835602	Whether that package is training or material has yet to be determined.	Whether that package is training or material has yet to be determined.	229568472	1478143642554	1478143642631	BKSP	8
448898	4835602	Whether that package is training or material has yet to be determined.	Whether that package is training or material has yet to be determined.	229568477	1478143642694	1478143642776	BKSP	8
448898	4835602	Whether that package is training or material has yet to be determined.	Whether that package is training or material has yet to be determined.	229568483	1478143642828	1478143642930	BKSP	8
448898	4835602	Whether that package is training or material has yet to be determined.	Whether that package is training or material has yet to be determined.	229568488	1478143643064	1478143643245	i	73
448898	4835602	Whether that package is training or material has yet to be determined.	Whether that package is training or material has yet to be determined.	229568492	1478143643115	1478143643253	n	78
448898	4835602	Whether that package is training or material has yet to be determined.	Whether that package is training or material has yet to be determined.	229568493	1478143643213	1478143643328	e	69
448898	4835602	Whether that package is training or material has yet to be determined.	Whether that package is training or material has yet to be determined.	229568496	1478143643328	1478143643466	d	68
448898	4835612	Ed Terry is in there twice.	Ed Terry is in there twice.	229568860	1478143656347	1478143656500	SHIFT	16
448898	4835612	Ed Terry is in there twice.	Ed Terry is in there twice.	229568863	1478143656410	1478143656500	E	69
448898	4835612	Ed Terry is in there twice.	Ed Terry is in there twice.	229568867	1478143656547	1478143656664	d	68
448898	4835612	Ed Terry is in there twice.	Ed Terry is in there twice.	229568877	1478143656620	1478143656846	 	32
448898	4835612	Ed Terry is in there twice.	Ed Terry is in there twice.	229568872	1478143656716	1478143656815	t	84
448898	4835612	Ed Terry is in there twice.	Ed Terry is in there twice.	229568882	1478143656740	1478143656915	SHIFT	16
448898	4835612	Ed Terry is in there twice.	Ed Terry is in there twice.	229568924	1478143656893	1478143657020	E	69
448898	4835612	Ed Terry is in there twice.	Ed Terry is in there twice.	229568926	1478143657138	1478143657267	r	82
448898	4835612	Ed Terry is in there twice.	Ed Terry is in there twice.	229568928	1478143657361	1478143657452	BKSP	8
448898	4835612	Ed Terry is in there twice.	Ed Terry is in there twice.	229568929	1478143657530	1478143657616	BKSP	8
448898	4835612	Ed Terry is in there twice.	Ed Terry is in there twice.	229568930	1478143657679	1478143657750	BKSP	8
448898	4835612	Ed Terry is in there twice.	Ed Terry is in there twice.	229568932	1478143657813	1478143657986	SHIFT	16
448898	4835612	Ed Terry is in there twice.	Ed Terry is in there twice.	229568931	1478143657875	1478143657970	T	84
448898	4835612	Ed Terry is in there twice.	Ed Terry is in there twice.	229568934	1478143658028	1478143658169	e	69
448898	4835612	Ed Terry is in there twice.	Ed Terry is in there twice.	229568937	1478143658085	1478143658185	r	82
448898	4835612	Ed Terry is in there twice.	Ed Terry is in there twice.	229568940	1478143658237	1478143658335	r	82
448898	4835612	Ed Terry is in there twice.	Ed Terry is in there twice.	229568936	1478143658410	1478143658490	y	89
448898	4835612	Ed Terry is in there twice.	Ed Terry is in there twice.	229568939	1478143658455	1478143658635	 	32
448898	4835612	Ed Terry is in there twice.	Ed Terry is in there twice.	229568941	1478143658534	1478143658687	i	73
448898	4835612	Ed Terry is in there twice.	Ed Terry is in there twice.	229568943	1478143658602	1478143658703	s	83
448898	4835612	Ed Terry is in there twice.	Ed Terry is in there twice.	229568945	1478143658703	1478143658869	 	32
448898	4835612	Ed Terry is in there twice.	Ed Terry is in there twice.	229568948	1478143658789	1478143658953	i	73
448898	4835612	Ed Terry is in there twice.	Ed Terry is in there twice.	229568951	1478143658853	1478143658981	n	78
448898	4835612	Ed Terry is in there twice.	Ed Terry is in there twice.	229568959	1478143658941	1478143659141	 	32
448898	4835612	Ed Terry is in there twice.	Ed Terry is in there twice.	229568955	1478143658997	1478143659105	t	84
448898	4835612	Ed Terry is in there twice.	Ed Terry is in there twice.	229568975	1478143659049	1478143659295	h	72
448898	4835612	Ed Terry is in there twice.	Ed Terry is in there twice.	229568964	1478143659121	1478143659243	e	69
448898	4835612	Ed Terry is in there twice.	Ed Terry is in there twice.	229568977	1478143659206	1478143659391	r	82
448898	4835612	Ed Terry is in there twice.	Ed Terry is in there twice.	229568979	1478143659299	1478143659403	e	69
448898	4835612	Ed Terry is in there twice.	Ed Terry is in there twice.	229568981	1478143659373	1478143659613	 	32
448898	4835612	Ed Terry is in there twice.	Ed Terry is in there twice.	229568984	1478143659455	1478143659613	t	84
448898	4835612	Ed Terry is in there twice.	Ed Terry is in there twice.	229568987	1478143659528	1478143659679	w	87
448898	4835612	Ed Terry is in there twice.	Ed Terry is in there twice.	229568997	1478143659644	1478143659819	i	73
448898	4835612	Ed Terry is in there twice.	Ed Terry is in there twice.	229569000	1478143659770	1478143659874	c	67
448898	4835612	Ed Terry is in there twice.	Ed Terry is in there twice.	229569006	1478143659921	1478143660007	e	69
448898	4835624	Montpellier won the Cup at their first attempt.	Montpellier won the Cup at their first attempt.	229569132	1478143663379	1478143663475	m	77
448898	4835624	Montpellier won the Cup at their first attempt.	Montpellier won the Cup at their first attempt.	229569134	1478143663387	1478143663526	SHIFT	16
448898	4835624	Montpellier won the Cup at their first attempt.	Montpellier won the Cup at their first attempt.	229569137	1478143663506	1478143663679	O	79
448898	4835624	Montpellier won the Cup at their first attempt.	Montpellier won the Cup at their first attempt.	229569141	1478143663625	1478143663807	n	78
448898	4835624	Montpellier won the Cup at their first attempt.	Montpellier won the Cup at their first attempt.	229569144	1478143663727	1478143663887	t	84
448898	4835624	Montpellier won the Cup at their first attempt.	Montpellier won the Cup at their first attempt.	229569147	1478143663987	1478143664143	p	80
448898	4835624	Montpellier won the Cup at their first attempt.	Montpellier won the Cup at their first attempt.	229569203	1478143664384	1478143665161	BKSP	8
448898	4835624	Montpellier won the Cup at their first attempt.	Montpellier won the Cup at their first attempt.	229569205	1478143665317	1478143665559	M	16
448898	4835624	Montpellier won the Cup at their first attempt.	Montpellier won the Cup at their first attempt.	229569206	1478143665773	1478143665931	o	79
448898	4835624	Montpellier won the Cup at their first attempt.	Montpellier won the Cup at their first attempt.	229569208	1478143665862	1478143666024	n	78
448898	4835624	Montpellier won the Cup at their first attempt.	Montpellier won the Cup at their first attempt.	229569209	1478143665978	1478143666103	t	84
448898	4835624	Montpellier won the Cup at their first attempt.	Montpellier won the Cup at their first attempt.	229569212	1478143666134	1478143666252	p	80
448898	4835624	Montpellier won the Cup at their first attempt.	Montpellier won the Cup at their first attempt.	229569223	1478143666214	1478143666333	e	69
448898	4835624	Montpellier won the Cup at their first attempt.	Montpellier won the Cup at their first attempt.	229569225	1478143666315	1478143666414	l	76
448898	4835624	Montpellier won the Cup at their first attempt.	Montpellier won the Cup at their first attempt.	229569227	1478143666476	1478143666634	l	76
448898	4835624	Montpellier won the Cup at their first attempt.	Montpellier won the Cup at their first attempt.	229569272	1478143666550	1478143666789	i	73
448898	4835624	Montpellier won the Cup at their first attempt.	Montpellier won the Cup at their first attempt.	229569229	1478143666598	1478143666733	e	69
448898	4835624	Montpellier won the Cup at their first attempt.	Montpellier won the Cup at their first attempt.	229569270	1478143666650	1478143666785	r	82
448898	4835624	Montpellier won the Cup at their first attempt.	Montpellier won the Cup at their first attempt.	229569275	1478143666714	1478143666925	 	32
448898	4835624	Montpellier won the Cup at their first attempt.	Montpellier won the Cup at their first attempt.	229569276	1478143666805	1478143666941	w	87
448898	4835624	Montpellier won the Cup at their first attempt.	Montpellier won the Cup at their first attempt.	229569278	1478143666913	1478143667106	o	79
448898	4835624	Montpellier won the Cup at their first attempt.	Montpellier won the Cup at their first attempt.	229569282	1478143666996	1478143667134	n	78
448898	4835624	Montpellier won the Cup at their first attempt.	Montpellier won the Cup at their first attempt.	229569287	1478143667060	1478143667244	 	32
448898	4835624	Montpellier won the Cup at their first attempt.	Montpellier won the Cup at their first attempt.	229569290	1478143667792	1478143667916	t	84
448898	4835624	Montpellier won the Cup at their first attempt.	Montpellier won the Cup at their first attempt.	229569309	1478143667868	1478143668051	h	72
448898	4835624	Montpellier won the Cup at their first attempt.	Montpellier won the Cup at their first attempt.	229569310	1478143667996	1478143668144	e	69
448898	4835624	Montpellier won the Cup at their first attempt.	Montpellier won the Cup at their first attempt.	229569311	1478143668176	1478143668371	 	32
448898	4835624	Montpellier won the Cup at their first attempt.	Montpellier won the Cup at their first attempt.	229569312	1478143668423	1478143668759	SHIFT	16
448898	4835624	Montpellier won the Cup at their first attempt.	Montpellier won the Cup at their first attempt.	229569314	1478143668619	1478143668774	C	67
448898	4835624	Montpellier won the Cup at their first attempt.	Montpellier won the Cup at their first attempt.	229569316	1478143668774	1478143668802	p	85
448898	4835624	Montpellier won the Cup at their first attempt.	Montpellier won the Cup at their first attempt.	229569323	1478143668854	1478143668994	 	32
448898	4835624	Montpellier won the Cup at their first attempt.	Montpellier won the Cup at their first attempt.	229569324	1478143668894	1478143669034	a	65
448898	4835624	Montpellier won the Cup at their first attempt.	Montpellier won the Cup at their first attempt.	229569325	1478143668946	1478143669066	t	84
448898	4835624	Montpellier won the Cup at their first attempt.	Montpellier won the Cup at their first attempt.	229569335	1478143669058	1478143669294	 	32
448898	4835624	Montpellier won the Cup at their first attempt.	Montpellier won the Cup at their first attempt.	229569326	1478143669126	1478143669234	t	84
448898	4835624	Montpellier won the Cup at their first attempt.	Montpellier won the Cup at their first attempt.	229569337	1478143669186	1478143669369	h	72
448898	4835624	Montpellier won the Cup at their first attempt.	Montpellier won the Cup at their first attempt.	229569340	1478143669286	1478143669387	e	69
448898	4835624	Montpellier won the Cup at their first attempt.	Montpellier won the Cup at their first attempt.	229569343	1478143669369	1478143669504	i	73
448898	4835624	Montpellier won the Cup at their first attempt.	Montpellier won the Cup at their first attempt.	229569346	1478143669427	1478143669557	r	82
448898	4835624	Montpellier won the Cup at their first attempt.	Montpellier won the Cup at their first attempt.	229569353	1478143669504	1478143669751	 	32
448898	4835624	Montpellier won the Cup at their first attempt.	Montpellier won the Cup at their first attempt.	229569349	1478143669585	1478143669699	f	70
448898	4835624	Montpellier won the Cup at their first attempt.	Montpellier won the Cup at their first attempt.	229569356	1478143669683	1478143669842	i	73
448898	4835624	Montpellier won the Cup at their first attempt.	Montpellier won the Cup at their first attempt.	229569358	1478143669759	1478143669862	r	82
448898	4835624	Montpellier won the Cup at their first attempt.	Montpellier won the Cup at their first attempt.	229569361	1478143669818	1478143669971	s	83
448898	4835624	Montpellier won the Cup at their first attempt.	Montpellier won the Cup at their first attempt.	229569365	1478143669915	1478143670045	t	84
448898	4835624	Montpellier won the Cup at their first attempt.	Montpellier won the Cup at their first attempt.	229569369	1478143669971	1478143670151	 	32
448898	4835624	Montpellier won the Cup at their first attempt.	Montpellier won the Cup at their first attempt.	229569373	1478143670084	1478143670209	a	65
448898	4835624	Montpellier won the Cup at their first attempt.	Montpellier won the Cup at their first attempt.	229569375	1478143670199	1478143670237	t	84
448898	4835624	Montpellier won the Cup at their first attempt.	Montpellier won the Cup at their first attempt.	229569377	1478143670300	1478143670446	t	84
448898	4835624	Montpellier won the Cup at their first attempt.	Montpellier won the Cup at their first attempt.	229569379	1478143670386	1478143670534	e	69
448898	4835624	Montpellier won the Cup at their first attempt.	Montpellier won the Cup at their first attempt.	229569389	1478143670474	1478143670594	m	77
448898	4835624	Montpellier won the Cup at their first attempt.	Montpellier won the Cup at their first attempt.	229569390	1478143670526	1478143670665	p	80
448898	4835624	Montpellier won the Cup at their first attempt.	Montpellier won the Cup at their first attempt.	229569392	1478143670619	1478143670716	t	84
448898	4835624	Montpellier won the Cup at their first attempt.	Montpellier won the Cup at their first attempt.	229569394	1478143670747	1478143670930	.	190
448898	4835635	Chambers is still too inconsistent to start for most Fantasy teams.	Chambers is still too inconsistent to start for most Fantasy teams.	229569462	1478143673113	1478143673240	SHIFT	16
448898	4835635	Chambers is still too inconsistent to start for most Fantasy teams.	Chambers is still too inconsistent to start for most Fantasy teams.	229569464	1478143673157	1478143673280	C	67
448898	4835635	Chambers is still too inconsistent to start for most Fantasy teams.	Chambers is still too inconsistent to start for most Fantasy teams.	229569466	1478143673271	1478143673395	h	72
448898	4835635	Chambers is still too inconsistent to start for most Fantasy teams.	Chambers is still too inconsistent to start for most Fantasy teams.	229569469	1478143673356	1478143673464	a	65
448898	4835635	Chambers is still too inconsistent to start for most Fantasy teams.	Chambers is still too inconsistent to start for most Fantasy teams.	229569472	1478143673456	1478143673540	m	77
448898	4835635	Chambers is still too inconsistent to start for most Fantasy teams.	Chambers is still too inconsistent to start for most Fantasy teams.	229569475	1478143673618	1478143673743	e	66
448898	4835635	Chambers is still too inconsistent to start for most Fantasy teams.	Chambers is still too inconsistent to start for most Fantasy teams.	229569483	1478143673674	1478143673864	r	82
448898	4835635	Chambers is still too inconsistent to start for most Fantasy teams.	Chambers is still too inconsistent to start for most Fantasy teams.	229569485	1478143673808	1478143673892	 	83
448898	4835635	Chambers is still too inconsistent to start for most Fantasy teams.	Chambers is still too inconsistent to start for most Fantasy teams.	229569488	1478143673884	1478143674048	i	73
448898	4835635	Chambers is still too inconsistent to start for most Fantasy teams.	Chambers is still too inconsistent to start for most Fantasy teams.	229569492	1478143673976	1478143674072	s	83
448898	4835635	Chambers is still too inconsistent to start for most Fantasy teams.	Chambers is still too inconsistent to start for most Fantasy teams.	229569496	1478143674088	1478143674296	 	32
448898	4835635	Chambers is still too inconsistent to start for most Fantasy teams.	Chambers is still too inconsistent to start for most Fantasy teams.	229569514	1478143674184	1478143674348	s	83
448898	4835635	Chambers is still too inconsistent to start for most Fantasy teams.	Chambers is still too inconsistent to start for most Fantasy teams.	229569518	1478143674261	1478143674392	t	84
448898	4835635	Chambers is still too inconsistent to start for most Fantasy teams.	Chambers is still too inconsistent to start for most Fantasy teams.	229569521	1478143674344	1478143674458	i	73
448898	4835635	Chambers is still too inconsistent to start for most Fantasy teams.	Chambers is still too inconsistent to start for most Fantasy teams.	229569524	1478143674392	1478143674490	l	76
448898	4835635	Chambers is still too inconsistent to start for most Fantasy teams.	Chambers is still too inconsistent to start for most Fantasy teams.	229569527	1478143674552	1478143674675	l	76
448898	4835635	Chambers is still too inconsistent to start for most Fantasy teams.	Chambers is still too inconsistent to start for most Fantasy teams.	229569528	1478143674602	1478143674793	 	32
448898	4835635	Chambers is still too inconsistent to start for most Fantasy teams.	Chambers is still too inconsistent to start for most Fantasy teams.	229569563	1478143674675	1478143674847	t	84
448898	4835635	Chambers is still too inconsistent to start for most Fantasy teams.	Chambers is still too inconsistent to start for most Fantasy teams.	229569565	1478143674742	1478143674862	o	79
448898	4835635	Chambers is still too inconsistent to start for most Fantasy teams.	Chambers is still too inconsistent to start for most Fantasy teams.	229569568	1478143674878	1478143675044	 	32
448898	4835635	Chambers is still too inconsistent to start for most Fantasy teams.	Chambers is still too inconsistent to start for most Fantasy teams.	229569571	1478143674928	1478143675068	o	79
448898	4835635	Chambers is still too inconsistent to start for most Fantasy teams.	Chambers is still too inconsistent to start for most Fantasy teams.	229569574	1478143675380	1478143675464	BKSP	8
448898	4835635	Chambers is still too inconsistent to start for most Fantasy teams.	Chambers is still too inconsistent to start for most Fantasy teams.	229569577	1478143675508	1478143675579	BKSP	8
448898	4835635	Chambers is still too inconsistent to start for most Fantasy teams.	Chambers is still too inconsistent to start for most Fantasy teams.	229569581	1478143675688	1478143675828	o	79
448898	4835635	Chambers is still too inconsistent to start for most Fantasy teams.	Chambers is still too inconsistent to start for most Fantasy teams.	229569584	1478143675777	1478143675981	 	32
448898	4835635	Chambers is still too inconsistent to start for most Fantasy teams.	Chambers is still too inconsistent to start for most Fantasy teams.	229569618	1478143675913	1478143676050	i	73
448898	4835635	Chambers is still too inconsistent to start for most Fantasy teams.	Chambers is still too inconsistent to start for most Fantasy teams.	229569621	1478143675964	1478143676098	n	78
448898	4835635	Chambers is still too inconsistent to start for most Fantasy teams.	Chambers is still too inconsistent to start for most Fantasy teams.	229569624	1478143676050	1478143676158	c	67
448898	4835635	Chambers is still too inconsistent to start for most Fantasy teams.	Chambers is still too inconsistent to start for most Fantasy teams.	229569626	1478143676173	1478143676320	o	79
448898	4835635	Chambers is still too inconsistent to start for most Fantasy teams.	Chambers is still too inconsistent to start for most Fantasy teams.	229569628	1478143676383	1478143676509	n	78
448898	4835635	Chambers is still too inconsistent to start for most Fantasy teams.	Chambers is still too inconsistent to start for most Fantasy teams.	229569630	1478143676650	1478143676730	s	83
448898	4835635	Chambers is still too inconsistent to start for most Fantasy teams.	Chambers is still too inconsistent to start for most Fantasy teams.	229569632	1478143676734	1478143676893	i	73
448898	4835635	Chambers is still too inconsistent to start for most Fantasy teams.	Chambers is still too inconsistent to start for most Fantasy teams.	229569636	1478143676813	1478143676948	s	83
448898	4835635	Chambers is still too inconsistent to start for most Fantasy teams.	Chambers is still too inconsistent to start for most Fantasy teams.	229569639	1478143676940	1478143677065	t	84
448898	4835635	Chambers is still too inconsistent to start for most Fantasy teams.	Chambers is still too inconsistent to start for most Fantasy teams.	229569641	1478143677012	1478143677150	e	69
448898	4835635	Chambers is still too inconsistent to start for most Fantasy teams.	Chambers is still too inconsistent to start for most Fantasy teams.	229569643	1478143677112	1478143677292	n	78
448898	4835635	Chambers is still too inconsistent to start for most Fantasy teams.	Chambers is still too inconsistent to start for most Fantasy teams.	229569648	1478143677210	1478143677344	t	84
448898	4835635	Chambers is still too inconsistent to start for most Fantasy teams.	Chambers is still too inconsistent to start for most Fantasy teams.	229569649	1478143677281	1478143677497	 	32
448898	4835635	Chambers is still too inconsistent to start for most Fantasy teams.	Chambers is still too inconsistent to start for most Fantasy teams.	229569651	1478143677393	1478143677512	t	84
448898	4835635	Chambers is still too inconsistent to start for most Fantasy teams.	Chambers is still too inconsistent to start for most Fantasy teams.	229569653	1478143677448	1478143677630	o	79
448898	4835635	Chambers is still too inconsistent to start for most Fantasy teams.	Chambers is still too inconsistent to start for most Fantasy teams.	229569663	1478143677528	1478143677800	 	32
448898	4835635	Chambers is still too inconsistent to start for most Fantasy teams.	Chambers is still too inconsistent to start for most Fantasy teams.	229569655	1478143677594	1478143677731	s	83
448898	4835635	Chambers is still too inconsistent to start for most Fantasy teams.	Chambers is still too inconsistent to start for most Fantasy teams.	229569665	1478143677678	1478143677816	t	84
448898	4835635	Chambers is still too inconsistent to start for most Fantasy teams.	Chambers is still too inconsistent to start for most Fantasy teams.	229569667	1478143677800	1478143677922	a	65
448898	4835635	Chambers is still too inconsistent to start for most Fantasy teams.	Chambers is still too inconsistent to start for most Fantasy teams.	229569669	1478143677865	1478143677981	r	82
448898	4835635	Chambers is still too inconsistent to start for most Fantasy teams.	Chambers is still too inconsistent to start for most Fantasy teams.	229569671	1478143678012	1478143678110	t	84
448898	4835635	Chambers is still too inconsistent to start for most Fantasy teams.	Chambers is still too inconsistent to start for most Fantasy teams.	229569685	1478143678095	1478143678347	 	32
448898	4835635	Chambers is still too inconsistent to start for most Fantasy teams.	Chambers is still too inconsistent to start for most Fantasy teams.	229569675	1478143678150	1478143678300	f	70
448898	4835635	Chambers is still too inconsistent to start for most Fantasy teams.	Chambers is still too inconsistent to start for most Fantasy teams.	229569687	1478143678248	1478143678441	o	79
448898	4835635	Chambers is still too inconsistent to start for most Fantasy teams.	Chambers is still too inconsistent to start for most Fantasy teams.	229569689	1478143678347	1478143678481	r	82
448898	4835635	Chambers is still too inconsistent to start for most Fantasy teams.	Chambers is still too inconsistent to start for most Fantasy teams.	229569690	1478143678414	1478143678595	 	32
448898	4835635	Chambers is still too inconsistent to start for most Fantasy teams.	Chambers is still too inconsistent to start for most Fantasy teams.	229569691	1478143678574	1478143678770	m	77
448898	4835635	Chambers is still too inconsistent to start for most Fantasy teams.	Chambers is still too inconsistent to start for most Fantasy teams.	229569711	1478143678679	1478143678898	o	79
448898	4835635	Chambers is still too inconsistent to start for most Fantasy teams.	Chambers is still too inconsistent to start for most Fantasy teams.	229569713	1478143678731	1478143678930	r	82
448898	4835635	Chambers is still too inconsistent to start for most Fantasy teams.	Chambers is still too inconsistent to start for most Fantasy teams.	229569717	1478143678822	1478143678938	e	69
448898	4835635	Chambers is still too inconsistent to start for most Fantasy teams.	Chambers is still too inconsistent to start for most Fantasy teams.	229569719	1478143679054	1478143679146	BKSP	8
448898	4835635	Chambers is still too inconsistent to start for most Fantasy teams.	Chambers is still too inconsistent to start for most Fantasy teams.	229569721	1478143679188	1478143679288	BKSP	8
448898	4835635	Chambers is still too inconsistent to start for most Fantasy teams.	Chambers is still too inconsistent to start for most Fantasy teams.	229569724	1478143679266	1478143679385	s	83
448898	4835635	Chambers is still too inconsistent to start for most Fantasy teams.	Chambers is still too inconsistent to start for most Fantasy teams.	229569729	1478143679332	1478143679419	t	84
448898	4835635	Chambers is still too inconsistent to start for most Fantasy teams.	Chambers is still too inconsistent to start for most Fantasy teams.	229569732	1478143679401	1478143679576	 	32
448898	4835635	Chambers is still too inconsistent to start for most Fantasy teams.	Chambers is still too inconsistent to start for most Fantasy teams.	229569738	1478143679841	1478143680034	SHIFT	16
448898	4835635	Chambers is still too inconsistent to start for most Fantasy teams.	Chambers is still too inconsistent to start for most Fantasy teams.	229569725	1478143679919	1478143680080	F	70
448898	4835635	Chambers is still too inconsistent to start for most Fantasy teams.	Chambers is still too inconsistent to start for most Fantasy teams.	229569728	1478143680111	1478143680191	a	65
448898	4835635	Chambers is still too inconsistent to start for most Fantasy teams.	Chambers is still too inconsistent to start for most Fantasy teams.	229569731	1478143680147	1478143680308	n	78
448898	4835635	Chambers is still too inconsistent to start for most Fantasy teams.	Chambers is still too inconsistent to start for most Fantasy teams.	229569735	1478143680246	1478143680417	t	84
448898	4835635	Chambers is still too inconsistent to start for most Fantasy teams.	Chambers is still too inconsistent to start for most Fantasy teams.	229569739	1478143680347	1478143680527	a	65
448898	4835635	Chambers is still too inconsistent to start for most Fantasy teams.	Chambers is still too inconsistent to start for most Fantasy teams.	229569765	1478143680468	1478143680670	s	83
448898	4835635	Chambers is still too inconsistent to start for most Fantasy teams.	Chambers is still too inconsistent to start for most Fantasy teams.	229569766	1478143680606	1478143680697	y	89
448898	4835635	Chambers is still too inconsistent to start for most Fantasy teams.	Chambers is still too inconsistent to start for most Fantasy teams.	229569767	1478143680670	1478143680869	 	32
448898	4835635	Chambers is still too inconsistent to start for most Fantasy teams.	Chambers is still too inconsistent to start for most Fantasy teams.	229569768	1478143680843	1478143681042	t	84
448898	4835635	Chambers is still too inconsistent to start for most Fantasy teams.	Chambers is still too inconsistent to start for most Fantasy teams.	229569770	1478143680881	1478143681099	e	69
448898	4835635	Chambers is still too inconsistent to start for most Fantasy teams.	Chambers is still too inconsistent to start for most Fantasy teams.	229569772	1478143681318	1478143681414	a	65
448898	4835635	Chambers is still too inconsistent to start for most Fantasy teams.	Chambers is still too inconsistent to start for most Fantasy teams.	229569789	1478143681457	1478143681575	m	77
448898	4835635	Chambers is still too inconsistent to start for most Fantasy teams.	Chambers is still too inconsistent to start for most Fantasy teams.	229569790	1478143681550	1478143681689	s	83
448898	4835644	Team Chick hasn't been in the SuperBowl every year for no reason.	Team Chick hasn't been in the SuperBowl every year for no reason.	229569893	1478143683741	1478143683908	SHIFT	16
448898	4835644	Team Chick hasn't been in the SuperBowl every year for no reason.	Team Chick hasn't been in the SuperBowl every year for no reason.	229569894	1478143683832	1478143683936	T	84
448898	4835644	Team Chick hasn't been in the SuperBowl every year for no reason.	Team Chick hasn't been in the SuperBowl every year for no reason.	229569895	1478143683964	1478143684116	e	69
448898	4835644	Team Chick hasn't been in the SuperBowl every year for no reason.	Team Chick hasn't been in the SuperBowl every year for no reason.	229569896	1478143684056	1478143684168	a	65
448898	4835644	Team Chick hasn't been in the SuperBowl every year for no reason.	Team Chick hasn't been in the SuperBowl every year for no reason.	229569897	1478143684120	1478143684274	m	77
448898	4835644	Team Chick hasn't been in the SuperBowl every year for no reason.	Team Chick hasn't been in the SuperBowl every year for no reason.	229569907	1478143684194	1478143684390	 	32
448898	4835644	Team Chick hasn't been in the SuperBowl every year for no reason.	Team Chick hasn't been in the SuperBowl every year for no reason.	229569912	1478143684274	1478143684406	SHIFT	16
448898	4835644	Team Chick hasn't been in the SuperBowl every year for no reason.	Team Chick hasn't been in the SuperBowl every year for no reason.	229569916	1478143684342	1478143684461	C	67
448898	4835644	Team Chick hasn't been in the SuperBowl every year for no reason.	Team Chick hasn't been in the SuperBowl every year for no reason.	229569919	1478143684421	1478143684591	h	72
448898	4835644	Team Chick hasn't been in the SuperBowl every year for no reason.	Team Chick hasn't been in the SuperBowl every year for no reason.	229569924	1478143684497	1478143684638	i	73
448898	4835644	Team Chick hasn't been in the SuperBowl every year for no reason.	Team Chick hasn't been in the SuperBowl every year for no reason.	229569927	1478143684557	1478143684707	c	67
448898	4835644	Team Chick hasn't been in the SuperBowl every year for no reason.	Team Chick hasn't been in the SuperBowl every year for no reason.	229569934	1478143684690	1478143684838	k	75
448898	4835644	Team Chick hasn't been in the SuperBowl every year for no reason.	Team Chick hasn't been in the SuperBowl every year for no reason.	229569936	1478143684771	1478143684968	 	32
448898	4835644	Team Chick hasn't been in the SuperBowl every year for no reason.	Team Chick hasn't been in the SuperBowl every year for no reason.	229569937	1478143684854	1478143684997	h	72
448898	4835644	Team Chick hasn't been in the SuperBowl every year for no reason.	Team Chick hasn't been in the SuperBowl every year for no reason.	229569938	1478143684909	1478143685056	a	65
448898	4835644	Team Chick hasn't been in the SuperBowl every year for no reason.	Team Chick hasn't been in the SuperBowl every year for no reason.	229569942	1478143684972	1478143685147	s	83
448898	4835644	Team Chick hasn't been in the SuperBowl every year for no reason.	Team Chick hasn't been in the SuperBowl every year for no reason.	229569964	1478143685072	1478143685252	n	78
448898	4835644	Team Chick hasn't been in the SuperBowl every year for no reason.	Team Chick hasn't been in the SuperBowl every year for no reason.	229569966	1478143685139	1478143685284	'	222
448898	4835644	Team Chick hasn't been in the SuperBowl every year for no reason.	Team Chick hasn't been in the SuperBowl every year for no reason.	229569967	1478143685224	1478143685340	t	84
448898	4835644	Team Chick hasn't been in the SuperBowl every year for no reason.	Team Chick hasn't been in the SuperBowl every year for no reason.	229569968	1478143685272	1478143685463	 	32
448898	4835644	Team Chick hasn't been in the SuperBowl every year for no reason.	Team Chick hasn't been in the SuperBowl every year for no reason.	229569974	1478143685356	1478143685507	b	66
448898	4835644	Team Chick hasn't been in the SuperBowl every year for no reason.	Team Chick hasn't been in the SuperBowl every year for no reason.	229569969	1478143685438	1478143685491	e	69
448898	4835644	Team Chick hasn't been in the SuperBowl every year for no reason.	Team Chick hasn't been in the SuperBowl every year for no reason.	229569981	1478143685538	1478143685648	e	69
448898	4835644	Team Chick hasn't been in the SuperBowl every year for no reason.	Team Chick hasn't been in the SuperBowl every year for no reason.	229570008	1478143685622	1478143685774	n	78
448898	4835644	Team Chick hasn't been in the SuperBowl every year for no reason.	Team Chick hasn't been in the SuperBowl every year for no reason.	229570009	1478143685720	1478143685875	 	32
448898	4835644	Team Chick hasn't been in the SuperBowl every year for no reason.	Team Chick hasn't been in the SuperBowl every year for no reason.	229570010	1478143685789	1478143685986	i	73
448898	4835644	Team Chick hasn't been in the SuperBowl every year for no reason.	Team Chick hasn't been in the SuperBowl every year for no reason.	229570011	1478143685906	1478143686026	n	78
448898	4835644	Team Chick hasn't been in the SuperBowl every year for no reason.	Team Chick hasn't been in the SuperBowl every year for no reason.	229570012	1478143685950	1478143686185	 	32
448898	4835644	Team Chick hasn't been in the SuperBowl every year for no reason.	Team Chick hasn't been in the SuperBowl every year for no reason.	229570021	1478143686064	1478143686241	t	84
448898	4835644	Team Chick hasn't been in the SuperBowl every year for no reason.	Team Chick hasn't been in the SuperBowl every year for no reason.	229570026	1478143686157	1478143686333	h	72
448898	4835644	Team Chick hasn't been in the SuperBowl every year for no reason.	Team Chick hasn't been in the SuperBowl every year for no reason.	229570023	1478143686241	1478143686305	e	69
448898	4835644	Team Chick hasn't been in the SuperBowl every year for no reason.	Team Chick hasn't been in the SuperBowl every year for no reason.	229570030	1478143686313	1478143686473	 	32
448898	4835644	Team Chick hasn't been in the SuperBowl every year for no reason.	Team Chick hasn't been in the SuperBowl every year for no reason.	229570037	1478143686361	1478143686528	SHIFT	16
448898	4835644	Team Chick hasn't been in the SuperBowl every year for no reason.	Team Chick hasn't been in the SuperBowl every year for no reason.	229570034	1478143686382	1478143686489	S	83
448898	4835644	Team Chick hasn't been in the SuperBowl every year for no reason.	Team Chick hasn't been in the SuperBowl every year for no reason.	229570039	1478143686504	1478143686641	U	85
448898	4835644	Team Chick hasn't been in the SuperBowl every year for no reason.	Team Chick hasn't been in the SuperBowl every year for no reason.	229570051	1478143686576	1478143686744	p	80
448898	4835644	Team Chick hasn't been in the SuperBowl every year for no reason.	Team Chick hasn't been in the SuperBowl every year for no reason.	229570053	1478143686693	1478143686797	e	69
448898	4835644	Team Chick hasn't been in the SuperBowl every year for no reason.	Team Chick hasn't been in the SuperBowl every year for no reason.	229570054	1478143686724	1478143686859	r	82
448898	4835644	Team Chick hasn't been in the SuperBowl every year for no reason.	Team Chick hasn't been in the SuperBowl every year for no reason.	229570056	1478143686906	1478143687107	SHIFT	16
448898	4835644	Team Chick hasn't been in the SuperBowl every year for no reason.	Team Chick hasn't been in the SuperBowl every year for no reason.	229570059	1478143686984	1478143687123	B	66
448898	4835644	Team Chick hasn't been in the SuperBowl every year for no reason.	Team Chick hasn't been in the SuperBowl every year for no reason.	229570063	1478143687170	1478143687308	o	79
448898	4835644	Team Chick hasn't been in the SuperBowl every year for no reason.	Team Chick hasn't been in the SuperBowl every year for no reason.	229570089	1478143687252	1478143687378	w	87
448898	4835644	Team Chick hasn't been in the SuperBowl every year for no reason.	Team Chick hasn't been in the SuperBowl every year for no reason.	229570090	1478143687371	1478143687508	l	76
448898	4835644	Team Chick hasn't been in the SuperBowl every year for no reason.	Team Chick hasn't been in the SuperBowl every year for no reason.	229570092	1478143687427	1478143687651	 	32
448898	4835644	Team Chick hasn't been in the SuperBowl every year for no reason.	Team Chick hasn't been in the SuperBowl every year for no reason.	229570091	1478143687500	1478143687607	e	69
448898	4835644	Team Chick hasn't been in the SuperBowl every year for no reason.	Team Chick hasn't been in the SuperBowl every year for no reason.	229570094	1478143687638	1478143687757	v	86
448898	4835644	Team Chick hasn't been in the SuperBowl every year for no reason.	Team Chick hasn't been in the SuperBowl every year for no reason.	229570096	1478143687789	1478143687927	e	69
448898	4835644	Team Chick hasn't been in the SuperBowl every year for no reason.	Team Chick hasn't been in the SuperBowl every year for no reason.	229570157	1478143687851	1478143687976	r	82
448898	4835644	Team Chick hasn't been in the SuperBowl every year for no reason.	Team Chick hasn't been in the SuperBowl every year for no reason.	229570159	1478143688186	1478143688337	BKSP	8
448898	4835644	Team Chick hasn't been in the SuperBowl every year for no reason.	Team Chick hasn't been in the SuperBowl every year for no reason.	229570161	1478143688431	1478143689331	BKSP	8
448898	4835644	Team Chick hasn't been in the SuperBowl every year for no reason.	Team Chick hasn't been in the SuperBowl every year for no reason.	229570162	1478143689558	1478143689666	BKSP	8
448898	4835644	Team Chick hasn't been in the SuperBowl every year for no reason.	Team Chick hasn't been in the SuperBowl every year for no reason.	229570163	1478143689737	1478143689827	BKSP	8
448898	4835644	Team Chick hasn't been in the SuperBowl every year for no reason.	Team Chick hasn't been in the SuperBowl every year for no reason.	229570164	1478143689952	1478143690146	u	85
448898	4835644	Team Chick hasn't been in the SuperBowl every year for no reason.	Team Chick hasn't been in the SuperBowl every year for no reason.	229570167	1478143690046	1478143690240	p	80
448898	4835644	Team Chick hasn't been in the SuperBowl every year for no reason.	Team Chick hasn't been in the SuperBowl every year for no reason.	229570165	1478143690091	1478143690224	v	86
448898	4835644	Team Chick hasn't been in the SuperBowl every year for no reason.	Team Chick hasn't been in the SuperBowl every year for no reason.	229570169	1478143690287	1478143690431	e	69
448898	4835644	Team Chick hasn't been in the SuperBowl every year for no reason.	Team Chick hasn't been in the SuperBowl every year for no reason.	229570222	1478143690364	1478143690490	r	82
448898	4835644	Team Chick hasn't been in the SuperBowl every year for no reason.	Team Chick hasn't been in the SuperBowl every year for no reason.	229570225	1478143690621	1478143690728	BKSP	8
448898	4835644	Team Chick hasn't been in the SuperBowl every year for no reason.	Team Chick hasn't been in the SuperBowl every year for no reason.	229570227	1478143690790	1478143690879	BKSP	8
448898	4835644	Team Chick hasn't been in the SuperBowl every year for no reason.	Team Chick hasn't been in the SuperBowl every year for no reason.	229570229	1478143690973	1478143691071	BKSP	8
448898	4835644	Team Chick hasn't been in the SuperBowl every year for no reason.	Team Chick hasn't been in the SuperBowl every year for no reason.	229570232	1478143691227	1478143691342	e	69
448898	4835644	Team Chick hasn't been in the SuperBowl every year for no reason.	Team Chick hasn't been in the SuperBowl every year for no reason.	229570235	1478143691274	1478143691389	r	82
448898	4835644	Team Chick hasn't been in the SuperBowl every year for no reason.	Team Chick hasn't been in the SuperBowl every year for no reason.	229570238	1478143691420	1478143691581	SHIFT	16
448898	4835644	Team Chick hasn't been in the SuperBowl every year for no reason.	Team Chick hasn't been in the SuperBowl every year for no reason.	229570241	1478143691518	1478143691612	B	66
448898	4835644	Team Chick hasn't been in the SuperBowl every year for no reason.	Team Chick hasn't been in the SuperBowl every year for no reason.	229570244	1478143691643	1478143691786	o	79
448898	4835644	Team Chick hasn't been in the SuperBowl every year for no reason.	Team Chick hasn't been in the SuperBowl every year for no reason.	229570243	1478143691701	1478143691845	w	87
448898	4835644	Team Chick hasn't been in the SuperBowl every year for no reason.	Team Chick hasn't been in the SuperBowl every year for no reason.	229570247	1478143691825	1478143691998	l	76
448898	4835644	Team Chick hasn't been in the SuperBowl every year for no reason.	Team Chick hasn't been in the SuperBowl every year for no reason.	229570253	1478143691897	1478143692118	 	32
448898	4835644	Team Chick hasn't been in the SuperBowl every year for no reason.	Team Chick hasn't been in the SuperBowl every year for no reason.	229570250	1478143691981	1478143692110	e	69
448898	4835644	Team Chick hasn't been in the SuperBowl every year for no reason.	Team Chick hasn't been in the SuperBowl every year for no reason.	229570258	1478143692097	1478143692249	v	86
448898	4835644	Team Chick hasn't been in the SuperBowl every year for no reason.	Team Chick hasn't been in the SuperBowl every year for no reason.	229570261	1478143692264	1478143692448	e	69
448898	4835644	Team Chick hasn't been in the SuperBowl every year for no reason.	Team Chick hasn't been in the SuperBowl every year for no reason.	229570290	1478143692365	1478143692526	r	82
448898	4835644	Team Chick hasn't been in the SuperBowl every year for no reason.	Team Chick hasn't been in the SuperBowl every year for no reason.	229570291	1478143692605	1478143692729	y	89
448898	4835644	Team Chick hasn't been in the SuperBowl every year for no reason.	Team Chick hasn't been in the SuperBowl every year for no reason.	229570292	1478143692932	1478143693160	 	32
448898	4835644	Team Chick hasn't been in the SuperBowl every year for no reason.	Team Chick hasn't been in the SuperBowl every year for no reason.	229570294	1478143693135	1478143693263	y	89
448898	4835644	Team Chick hasn't been in the SuperBowl every year for no reason.	Team Chick hasn't been in the SuperBowl every year for no reason.	229570296	1478143693287	1478143693469	e	69
448898	4835644	Team Chick hasn't been in the SuperBowl every year for no reason.	Team Chick hasn't been in the SuperBowl every year for no reason.	229570300	1478143693397	1478143693517	r	65
448898	4835644	Team Chick hasn't been in the SuperBowl every year for no reason.	Team Chick hasn't been in the SuperBowl every year for no reason.	229570301	1478143693532	1478143693750	 	32
448898	4835644	Team Chick hasn't been in the SuperBowl every year for no reason.	Team Chick hasn't been in the SuperBowl every year for no reason.	229570302	1478143693618	1478143693750	f	70
448898	4835644	Team Chick hasn't been in the SuperBowl every year for no reason.	Team Chick hasn't been in the SuperBowl every year for no reason.	229570303	1478143693668	1478143693873	o	79
448898	4835644	Team Chick hasn't been in the SuperBowl every year for no reason.	Team Chick hasn't been in the SuperBowl every year for no reason.	229570335	1478143693805	1478143693965	r	82
448898	4835644	Team Chick hasn't been in the SuperBowl every year for no reason.	Team Chick hasn't been in the SuperBowl every year for no reason.	229570340	1478143693865	1478143694045	 	32
448898	4835644	Team Chick hasn't been in the SuperBowl every year for no reason.	Team Chick hasn't been in the SuperBowl every year for no reason.	229570343	1478143693937	1478143694121	n	78
448898	4835644	Team Chick hasn't been in the SuperBowl every year for no reason.	Team Chick hasn't been in the SuperBowl every year for no reason.	229570347	1478143694013	1478143694185	o	79
448898	4835644	Team Chick hasn't been in the SuperBowl every year for no reason.	Team Chick hasn't been in the SuperBowl every year for no reason.	229570350	1478143694113	1478143694343	 	32
448898	4835644	Team Chick hasn't been in the SuperBowl every year for no reason.	Team Chick hasn't been in the SuperBowl every year for no reason.	229570367	1478143694201	1478143694415	r	82
448898	4835644	Team Chick hasn't been in the SuperBowl every year for no reason.	Team Chick hasn't been in the SuperBowl every year for no reason.	229570368	1478143694300	1478143694435	e	69
448898	4835644	Team Chick hasn't been in the SuperBowl every year for no reason.	Team Chick hasn't been in the SuperBowl every year for no reason.	229570369	1478143694407	1478143694555	a	65
448898	4835644	Team Chick hasn't been in the SuperBowl every year for no reason.	Team Chick hasn't been in the SuperBowl every year for no reason.	229570371	1478143694491	1478143694670	s	83
448898	4835644	Team Chick hasn't been in the SuperBowl every year for no reason.	Team Chick hasn't been in the SuperBowl every year for no reason.	229570373	1478143694586	1478143694727	o	79
448898	4835644	Team Chick hasn't been in the SuperBowl every year for no reason.	Team Chick hasn't been in the SuperBowl every year for no reason.	229570377	1478143694670	1478143694870	n	78
448898	4835655	I tried that to no avail.	I tried that to no avail.	229570508	1478143697502	1478143697657	SHIFT	16
448898	4835655	I tried that to no avail.	I tried that to no avail.	229570511	1478143697565	1478143697673	I	73
448898	4835655	I tried that to no avail.	I tried that to no avail.	229570515	1478143697673	1478143697892	 	32
448898	4835655	I tried that to no avail.	I tried that to no avail.	229570518	1478143697758	1478143697908	t	84
448898	4835655	I tried that to no avail.	I tried that to no avail.	229570522	1478143697808	1478143697960	r	82
448898	4835655	I tried that to no avail.	I tried that to no avail.	229570538	1478143697939	1478143698107	i	73
448898	4835655	I tried that to no avail.	I tried that to no avail.	229570541	1478143698012	1478143698107	e	69
448898	4835655	I tried that to no avail.	I tried that to no avail.	229570545	1478143698170	1478143698282	d	68
448898	4835655	I tried that to no avail.	I tried that to no avail.	229570548	1478143698242	1478143698458	 	32
448898	4835655	I tried that to no avail.	I tried that to no avail.	229570556	1478143698342	1478143698504	t	84
448898	4835655	I tried that to no avail.	I tried that to no avail.	229570558	1478143698392	1478143698561	h	72
448898	4835655	I tried that to no avail.	I tried that to no avail.	229570562	1478143698504	1478143698627	a	65
448898	4835655	I tried that to no avail.	I tried that to no avail.	229570565	1478143698553	1478143698647	t	84
448898	4835655	I tried that to no avail.	I tried that to no avail.	229570567	1478143698610	1478143698799	 	32
448898	4835655	I tried that to no avail.	I tried that to no avail.	229570578	1478143698727	1478143698887	t	84
448898	4835655	I tried that to no avail.	I tried that to no avail.	229570580	1478143698783	1478143698951	o	79
448898	4835655	I tried that to no avail.	I tried that to no avail.	229570583	1478143698895	1478143699051	 	32
448898	4835655	I tried that to no avail.	I tried that to no avail.	229570584	1478143698967	1478143699151	n	78
448898	4835655	I tried that to no avail.	I tried that to no avail.	229570587	1478143699043	1478143699215	o	79
448898	4835655	I tried that to no avail.	I tried that to no avail.	229570593	1478143699175	1478143699400	 	32
448898	4835655	I tried that to no avail.	I tried that to no avail.	229570614	1478143699274	1478143699452	a	65
448898	4835655	I tried that to no avail.	I tried that to no avail.	229570615	1478143699358	1478143699524	v	86
448898	4835655	I tried that to no avail.	I tried that to no avail.	229570617	1478143699460	1478143699608	a	65
448898	4835655	I tried that to no avail.	I tried that to no avail.	229570618	1478143699532	1478143699644	i	73
448898	4835655	I tried that to no avail.	I tried that to no avail.	229570619	1478143699588	1478143699691	l	76
448898	4835659	I decided that I am going to stay here!	I decided that I am going to stay here!	229570744	1478143702347	1478143702464	SHIFT	16
448898	4835659	I decided that I am going to stay here!	I decided that I am going to stay here!	229570746	1478143702384	1478143702519	I	73
448898	4835659	I decided that I am going to stay here!	I decided that I am going to stay here!	229570748	1478143702496	1478143702709	 	32
448898	4835659	I decided that I am going to stay here!	I decided that I am going to stay here!	229570747	1478143702564	1478143702662	d	68
448898	4835659	I decided that I am going to stay here!	I decided that I am going to stay here!	229570749	1478143702787	1478143702896	e	69
448898	4835659	I decided that I am going to stay here!	I decided that I am going to stay here!	229570750	1478143702974	1478143703081	c	67
448898	4835659	I decided that I am going to stay here!	I decided that I am going to stay here!	229570783	1478143703036	1478143703211	i	73
448898	4835659	I decided that I am going to stay here!	I decided that I am going to stay here!	229570786	1478143703174	1478143703278	d	68
448898	4835659	I decided that I am going to stay here!	I decided that I am going to stay here!	229570788	1478143703340	1478143703416	e	69
448898	4835659	I decided that I am going to stay here!	I decided that I am going to stay here!	229570790	1478143703463	1478143703574	d	68
448898	4835659	I decided that I am going to stay here!	I decided that I am going to stay here!	229570800	1478143703566	1478143703775	 	32
448898	4835659	I decided that I am going to stay here!	I decided that I am going to stay here!	229570791	1478143703615	1478143703715	t	84
448898	4835659	I decided that I am going to stay here!	I decided that I am going to stay here!	229570811	1478143703698	1478143703859	h	72
448898	4835659	I decided that I am going to stay here!	I decided that I am going to stay here!	229570806	1478143703763	1478143703855	a	65
448898	4835659	I decided that I am going to stay here!	I decided that I am going to stay here!	229570815	1478143703799	1478143703911	t	84
448898	4835659	I decided that I am going to stay here!	I decided that I am going to stay here!	229570819	1478143703875	1478143704051	 	32
448898	4835659	I decided that I am going to stay here!	I decided that I am going to stay here!	229570822	1478143703939	1478143704071	SHIFT	16
448898	4835659	I decided that I am going to stay here!	I decided that I am going to stay here!	229570824	1478143703999	1478143704119	I	73
448898	4835659	I decided that I am going to stay here!	I decided that I am going to stay here!	229570832	1478143704099	1478143704297	 	32
448898	4835659	I decided that I am going to stay here!	I decided that I am going to stay here!	229570833	1478143704192	1478143704301	a	65
448898	4835659	I decided that I am going to stay here!	I decided that I am going to stay here!	229570834	1478143704264	1478143704425	m	77
448898	4835659	I decided that I am going to stay here!	I decided that I am going to stay here!	229570836	1478143704381	1478143704599	 	32
448898	4835659	I decided that I am going to stay here!	I decided that I am going to stay here!	229570841	1478143704551	1478143704696	g	71
448898	4835659	I decided that I am going to stay here!	I decided that I am going to stay here!	229570862	1478143704662	1478143704816	o	79
448898	4835659	I decided that I am going to stay here!	I decided that I am going to stay here!	229570867	1478143704736	1478143704890	i	73
448898	4835659	I decided that I am going to stay here!	I decided that I am going to stay here!	229570871	1478143704767	1478143704918	n	78
448898	4835659	I decided that I am going to stay here!	I decided that I am going to stay here!	229570872	1478143704832	1478143704939	g	71
448898	4835659	I decided that I am going to stay here!	I decided that I am going to stay here!	229570886	1478143704918	1478143705155	 	32
448898	4835659	I decided that I am going to stay here!	I decided that I am going to stay here!	229570874	1478143704989	1478143705107	t	84
448898	4835659	I decided that I am going to stay here!	I decided that I am going to stay here!	229570889	1478143705066	1478143705239	o	79
448898	4835659	I decided that I am going to stay here!	I decided that I am going to stay here!	229570892	1478143705167	1478143705421	 	32
448898	4835659	I decided that I am going to stay here!	I decided that I am going to stay here!	229570890	1478143705207	1478143705348	s	83
448898	4835659	I decided that I am going to stay here!	I decided that I am going to stay here!	229570894	1478143705292	1478143705437	t	84
448898	4835659	I decided that I am going to stay here!	I decided that I am going to stay here!	229570898	1478143705399	1478143705576	a	65
448898	4835659	I decided that I am going to stay here!	I decided that I am going to stay here!	229570905	1478143705501	1478143705640	y	89
448898	4835659	I decided that I am going to stay here!	I decided that I am going to stay here!	229570909	1478143705628	1478143705786	 	32
448898	4835659	I decided that I am going to stay here!	I decided that I am going to stay here!	229570913	1478143705751	1478143705810	e	72
448898	4835659	I decided that I am going to stay here!	I decided that I am going to stay here!	229570917	1478143705770	1478143705814	r	69
448898	4835659	I decided that I am going to stay here!	I decided that I am going to stay here!	229570930	1478143705881	1478143706042	e	69
448898	4835659	I decided that I am going to stay here!	I decided that I am going to stay here!	229570935	1478143706042	1478143706215	SHIFT	16
448898	4835659	I decided that I am going to stay here!	I decided that I am going to stay here!	229570938	1478143706098	1478143706231	!	49
448898	4835665	Please call me if you have any questions.	Please call me if you have any questions.	229571015	1478143708419	1478143708539	SHIFT	16
448898	4835665	Please call me if you have any questions.	Please call me if you have any questions.	229571018	1478143708450	1478143708571	P	80
448898	4835665	Please call me if you have any questions.	Please call me if you have any questions.	229571023	1478143708602	1478143708756	l	76
448898	4835665	Please call me if you have any questions.	Please call me if you have any questions.	229571026	1478143708673	1478143708811	e	69
448898	4835665	Please call me if you have any questions.	Please call me if you have any questions.	229571027	1478143708756	1478143708955	a	65
448898	4835665	Please call me if you have any questions.	Please call me if you have any questions.	229571040	1478143708883	1478143709007	s	83
448898	4835665	Please call me if you have any questions.	Please call me if you have any questions.	229571043	1478143708915	1478143709051	e	69
448898	4835665	Please call me if you have any questions.	Please call me if you have any questions.	229571045	1478143709023	1478143709227	 	32
448898	4835665	Please call me if you have any questions.	Please call me if you have any questions.	229571047	1478143709131	1478143709287	c	67
448898	4835665	Please call me if you have any questions.	Please call me if you have any questions.	229571052	1478143709203	1478143709343	a	65
448898	4835665	Please call me if you have any questions.	Please call me if you have any questions.	229571054	1478143709275	1478143709374	l	76
448898	4835665	Please call me if you have any questions.	Please call me if you have any questions.	229571061	1478143709430	1478143709589	l	76
448898	4835665	Please call me if you have any questions.	Please call me if you have any questions.	229571069	1478143709506	1478143709739	 	32
448898	4835665	Please call me if you have any questions.	Please call me if you have any questions.	229571071	1478143709702	1478143709826	m	77
448898	4835665	Please call me if you have any questions.	Please call me if you have any questions.	229571073	1478143709776	1478143709893	e	69
448898	4835665	Please call me if you have any questions.	Please call me if you have any questions.	229571074	1478143709857	1478143710033	 	32
448898	4835665	Please call me if you have any questions.	Please call me if you have any questions.	229571113	1478143709925	1478143710118	i	73
448898	4835665	Please call me if you have any questions.	Please call me if you have any questions.	229571112	1478143709981	1478143710081	f	70
448898	4835665	Please call me if you have any questions.	Please call me if you have any questions.	229571114	1478143710081	1478143710295	 	32
448898	4835665	Please call me if you have any questions.	Please call me if you have any questions.	229571116	1478143710189	1478143710357	o	79
448898	4835665	Please call me if you have any questions.	Please call me if you have any questions.	229571119	1478143710247	1478143710389	u	85
448898	4835665	Please call me if you have any questions.	Please call me if you have any questions.	229571124	1478143710331	1478143710409	 	32
448898	4835665	Please call me if you have any questions.	Please call me if you have any questions.	229571130	1478143710611	1478143710706	BKSP	8
448898	4835665	Please call me if you have any questions.	Please call me if you have any questions.	229571135	1478143710753	1478143710841	BKSP	8
448898	4835665	Please call me if you have any questions.	Please call me if you have any questions.	229571139	1478143710903	1478143710994	BKSP	8
448898	4835665	Please call me if you have any questions.	Please call me if you have any questions.	229571143	1478143710994	1478143711112	y	89
448898	4835665	Please call me if you have any questions.	Please call me if you have any questions.	229571118	1478143711076	1478143711254	o	79
448898	4835665	Please call me if you have any questions.	Please call me if you have any questions.	229571121	1478143711164	1478143711275	u	85
448898	4835665	Please call me if you have any questions.	Please call me if you have any questions.	229571127	1478143711212	1478143711475	 	32
448898	4835665	Please call me if you have any questions.	Please call me if you have any questions.	229571151	1478143711353	1478143711527	h	72
448898	4835665	Please call me if you have any questions.	Please call me if you have any questions.	229571153	1478143711415	1478143711531	a	65
448898	4835665	Please call me if you have any questions.	Please call me if you have any questions.	229571156	1478143711463	1478143711623	v	86
448898	4835665	Please call me if you have any questions.	Please call me if you have any questions.	229571159	1478143711544	1478143711676	e	69
448898	4835665	Please call me if you have any questions.	Please call me if you have any questions.	229571160	1478143711623	1478143711792	 	32
448898	4835665	Please call me if you have any questions.	Please call me if you have any questions.	229571162	1478143711723	1478143711852	a	65
448898	4835665	Please call me if you have any questions.	Please call me if you have any questions.	229571164	1478143711807	1478143711968	n	78
448898	4835665	Please call me if you have any questions.	Please call me if you have any questions.	229571170	1478143711908	1478143712050	y	89
448898	4835665	Please call me if you have any questions.	Please call me if you have any questions.	229571172	1478143712015	1478143712210	 	32
448898	4835665	Please call me if you have any questions.	Please call me if you have any questions.	229571174	1478143712142	1478143712278	q	81
448898	4835665	Please call me if you have any questions.	Please call me if you have any questions.	229571177	1478143712258	1478143712426	u	85
448898	4835665	Please call me if you have any questions.	Please call me if you have any questions.	229571180	1478143712357	1478143712581	e	69
448898	4835665	Please call me if you have any questions.	Please call me if you have any questions.	229571197	1478143712535	1478143712692	t	84
448898	4835665	Please call me if you have any questions.	Please call me if you have any questions.	229571195	1478143712557	1478143712661	i	73
448898	4835665	Please call me if you have any questions.	Please call me if you have any questions.	229571200	1478143712817	1478143712928	BKSP	8
448898	4835665	Please call me if you have any questions.	Please call me if you have any questions.	229571204	1478143712990	1478143713090	BKSP	8
448898	4835665	Please call me if you have any questions.	Please call me if you have any questions.	229571206	1478143713107	1478143713214	s	83
448898	4835665	Please call me if you have any questions.	Please call me if you have any questions.	229571211	1478143713162	1478143713298	t	84
448898	4835665	Please call me if you have any questions.	Please call me if you have any questions.	229571216	1478143713214	1478143713430	i	73
448898	4835665	Please call me if you have any questions.	Please call me if you have any questions.	229571209	1478143713278	1478143713479	o	79
448898	4835665	Please call me if you have any questions.	Please call me if you have any questions.	229571214	1478143713361	1478143713494	n	78
448898	4835665	Please call me if you have any questions.	Please call me if you have any questions.	229571219	1478143713479	1478143713578	s	83
448898	4835671	I would like to attend if so.	I would like to attend if so.	229571306	1478143715768	1478143715896	SHIFT	16
448898	4835671	I would like to attend if so.	I would like to attend if so.	229571308	1478143715812	1478143715949	I	73
448898	4835671	I would like to attend if so.	I would like to attend if so.	229571313	1478143715911	1478143716124	 	32
448898	4835671	I would like to attend if so.	I would like to attend if so.	229571310	1478143715965	1478143716100	w	87
448898	4835671	I would like to attend if so.	I would like to attend if so.	229571319	1478143716038	1478143716176	o	79
448898	4835671	I would like to attend if so.	I would like to attend if so.	229571322	1478143716100	1478143716267	u	85
448898	4835671	I would like to attend if so.	I would like to attend if so.	229571326	1478143716200	1478143716333	l	76
448898	4835671	I would like to attend if so.	I would like to attend if so.	229571331	1478143716282	1478143716413	d	68
448898	4835671	I would like to attend if so.	I would like to attend if so.	229571335	1478143716361	1478143716535	 	32
448898	4835671	I would like to attend if so.	I would like to attend if so.	229571349	1478143716432	1478143716584	l	76
448898	4835671	I would like to attend if so.	I would like to attend if so.	229571350	1478143716483	1478143716600	i	73
448898	4835671	I would like to attend if so.	I would like to attend if so.	229571352	1478143716612	1478143716764	k	75
448898	4835671	I would like to attend if so.	I would like to attend if so.	229571355	1478143716683	1478143716780	e	69
448898	4835671	I would like to attend if so.	I would like to attend if so.	229571358	1478143716827	1478143717030	 	32
448898	4835671	I would like to attend if so.	I would like to attend if so.	229571360	1478143716993	1478143717083	t	84
448898	4835671	I would like to attend if so.	I would like to attend if so.	229571362	1478143717049	1478143717227	o	79
448898	4835671	I would like to attend if so.	I would like to attend if so.	229571364	1478143717162	1478143717365	 	32
448898	4835671	I would like to attend if so.	I would like to attend if so.	229571366	1478143717282	1478143717448	a	65
448898	4835671	I would like to attend if so.	I would like to attend if so.	229571368	1478143717345	1478143717448	t	84
448898	4835671	I would like to attend if so.	I would like to attend if so.	229571370	1478143717526	1478143717683	t	84
448898	4835671	I would like to attend if so.	I would like to attend if so.	229571373	1478143717591	1478143717735	e	69
448898	4835671	I would like to attend if so.	I would like to attend if so.	229571375	1478143717729	1478143717856	n	78
448898	4835671	I would like to attend if so.	I would like to attend if so.	229571378	1478143717779	1478143717905	d	68
448898	4835671	I would like to attend if so.	I would like to attend if so.	229571382	1478143717835	1478143718010	 	32
448898	4835671	I would like to attend if so.	I would like to attend if so.	229571401	1478143717905	1478143718090	i	73
448898	4835671	I would like to attend if so.	I would like to attend if so.	229571404	1478143717972	1478143718098	f	70
448898	4835671	I would like to attend if so.	I would like to attend if so.	229571407	1478143718082	1478143718254	 	32
448898	4835671	I would like to attend if so.	I would like to attend if so.	229571406	1478143718130	1478143718254	s	83
448898	4835671	I would like to attend if so.	I would like to attend if so.	229571408	1478143718186	1478143718294	o	79
448898	4835677	Can you rough out a slide on rating agencies?	Can you rough out a slide on rating agencies?	229571524	1478143720546	1478143720701	SHIFT	16
448898	4835677	Can you rough out a slide on rating agencies?	Can you rough out a slide on rating agencies?	229571522	1478143720605	1478143720685	C	67
448898	4835677	Can you rough out a slide on rating agencies?	Can you rough out a slide on rating agencies?	229571526	1478143720748	1478143720839	a	65
448898	4835677	Can you rough out a slide on rating agencies?	Can you rough out a slide on rating agencies?	229571530	1478143720803	1478143720951	n	78
448898	4835677	Can you rough out a slide on rating agencies?	Can you rough out a slide on rating agencies?	229571544	1478143720901	1478143721127	 	32
448898	4835677	Can you rough out a slide on rating agencies?	Can you rough out a slide on rating agencies?	229571533	1478143720955	1478143721075	y	89
448898	4835677	Can you rough out a slide on rating agencies?	Can you rough out a slide on rating agencies?	229571547	1478143721005	1478143721178	o	79
448898	4835677	Can you rough out a slide on rating agencies?	Can you rough out a slide on rating agencies?	229571549	1478143721067	1478143721239	u	85
448898	4835677	Can you rough out a slide on rating agencies?	Can you rough out a slide on rating agencies?	229571552	1478143721155	1478143721346	 	32
448898	4835677	Can you rough out a slide on rating agencies?	Can you rough out a slide on rating agencies?	229571553	1478143721270	1478143721389	r	82
448898	4835677	Can you rough out a slide on rating agencies?	Can you rough out a slide on rating agencies?	229571554	1478143721340	1478143721473	o	79
448898	4835677	Can you rough out a slide on rating agencies?	Can you rough out a slide on rating agencies?	229571555	1478143721404	1478143721544	u	85
448898	4835677	Can you rough out a slide on rating agencies?	Can you rough out a slide on rating agencies?	229571568	1478143721489	1478143721619	g	71
448898	4835677	Can you rough out a slide on rating agencies?	Can you rough out a slide on rating agencies?	229571570	1478143721615	1478143721769	h	72
448898	4835677	Can you rough out a slide on rating agencies?	Can you rough out a slide on rating agencies?	229571574	1478143721816	1478143722019	 	32
448898	4835677	Can you rough out a slide on rating agencies?	Can you rough out a slide on rating agencies?	229571579	1478143721985	1478143722126	o	79
448898	4835677	Can you rough out a slide on rating agencies?	Can you rough out a slide on rating agencies?	229571598	1478143722040	1478143722186	u	85
448898	4835677	Can you rough out a slide on rating agencies?	Can you rough out a slide on rating agencies?	229571608	1478143722105	1478143722199	t	84
448898	4835677	Can you rough out a slide on rating agencies?	Can you rough out a slide on rating agencies?	229571612	1478143722190	1478143722328	 	32
448898	4835677	Can you rough out a slide on rating agencies?	Can you rough out a slide on rating agencies?	229571620	1478143722259	1478143722359	a	65
448898	4835677	Can you rough out a slide on rating agencies?	Can you rough out a slide on rating agencies?	229571634	1478143722359	1478143722581	 	32
448898	4835677	Can you rough out a slide on rating agencies?	Can you rough out a slide on rating agencies?	229571624	1478143722409	1478143722526	s	83
448898	4835677	Can you rough out a slide on rating agencies?	Can you rough out a slide on rating agencies?	229571638	1478143722476	1478143722689	l	76
448898	4835677	Can you rough out a slide on rating agencies?	Can you rough out a slide on rating agencies?	229571640	1478143722573	1478143722736	i	73
448898	4835677	Can you rough out a slide on rating agencies?	Can you rough out a slide on rating agencies?	229571636	1478143722617	1478143722689	d	68
448898	4835677	Can you rough out a slide on rating agencies?	Can you rough out a slide on rating agencies?	229571643	1478143722736	1478143722857	e	69
448898	4835677	Can you rough out a slide on rating agencies?	Can you rough out a slide on rating agencies?	229571645	1478143722789	1478143722960	 	32
448898	4835677	Can you rough out a slide on rating agencies?	Can you rough out a slide on rating agencies?	229571651	1478143722873	1478143723032	o	79
448898	4835677	Can you rough out a slide on rating agencies?	Can you rough out a slide on rating agencies?	229571655	1478143722926	1478143723137	n	78
448898	4835677	Can you rough out a slide on rating agencies?	Can you rough out a slide on rating agencies?	229571658	1478143723008	1478143723149	 	32
448898	4835677	Can you rough out a slide on rating agencies?	Can you rough out a slide on rating agencies?	229571660	1478143723060	1478143723178	r	82
448898	4835677	Can you rough out a slide on rating agencies?	Can you rough out a slide on rating agencies?	229571662	1478143723129	1478143723253	a	65
448898	4835677	Can you rough out a slide on rating agencies?	Can you rough out a slide on rating agencies?	229571666	1478143723209	1478143723329	t	84
448898	4835677	Can you rough out a slide on rating agencies?	Can you rough out a slide on rating agencies?	229571689	1478143723321	1478143723475	i	73
448898	4835677	Can you rough out a slide on rating agencies?	Can you rough out a slide on rating agencies?	229571690	1478143723381	1478143723526	n	78
448898	4835677	Can you rough out a slide on rating agencies?	Can you rough out a slide on rating agencies?	229571692	1478143723442	1478143723590	g	71
448898	4835677	Can you rough out a slide on rating agencies?	Can you rough out a slide on rating agencies?	229571695	1478143723582	1478143723769	 	32
448898	4835677	Can you rough out a slide on rating agencies?	Can you rough out a slide on rating agencies?	229571700	1478143723773	1478143723897	a	65
448898	4835677	Can you rough out a slide on rating agencies?	Can you rough out a slide on rating agencies?	229571704	1478143723913	1478143724101	g	71
448898	4835677	Can you rough out a slide on rating agencies?	Can you rough out a slide on rating agencies?	229571715	1478143724037	1478143724185	e	69
448898	4835677	Can you rough out a slide on rating agencies?	Can you rough out a slide on rating agencies?	229571719	1478143724191	1478143724335	n	78
448898	4835677	Can you rough out a slide on rating agencies?	Can you rough out a slide on rating agencies?	229571722	1478143724291	1478143724401	c	67
448898	4835677	Can you rough out a slide on rating agencies?	Can you rough out a slide on rating agencies?	229571725	1478143724391	1478143724559	i	73
448898	4835677	Can you rough out a slide on rating agencies?	Can you rough out a slide on rating agencies?	229571767	1478143724460	1478143724608	e	69
448898	4835677	Can you rough out a slide on rating agencies?	Can you rough out a slide on rating agencies?	229571772	1478143724526	1478143724670	s	83
448898	4835677	Can you rough out a slide on rating agencies?	Can you rough out a slide on rating agencies?	229571776	1478143724749	1478143724861	/	191
448898	4835677	Can you rough out a slide on rating agencies?	Can you rough out a slide on rating agencies?	229571779	1478143725156	1478143725258	BKSP	8
448898	4835677	Can you rough out a slide on rating agencies?	Can you rough out a slide on rating agencies?	229571787	1478143725274	1478143725538	SHIFT	16
448898	4835677	Can you rough out a slide on rating agencies?	Can you rough out a slide on rating agencies?	229571783	1478143725368	1478143725506	?	191
448898	4835680	Not like you'll get paid for it.	Not like you'll get paid for it.	229571893	1478143727832	1478143727952	SHIFT	16
448898	4835680	Not like you'll get paid for it.	Not like you'll get paid for it.	229571894	1478143727879	1478143728015	N	78
448898	4835680	Not like you'll get paid for it.	Not like you'll get paid for it.	229571897	1478143728025	1478143728188	o	79
448898	4835680	Not like you'll get paid for it.	Not like you'll get paid for it.	229571899	1478143728097	1478143728248	t	84
448898	4835680	Not like you'll get paid for it.	Not like you'll get paid for it.	229571901	1478143728167	1478143728383	 	32
448898	4835680	Not like you'll get paid for it.	Not like you'll get paid for it.	229571907	1478143728263	1478143728435	l	76
448898	4835680	Not like you'll get paid for it.	Not like you'll get paid for it.	229571909	1478143728331	1478143728451	i	73
448898	4835680	Not like you'll get paid for it.	Not like you'll get paid for it.	229571910	1478143728466	1478143728637	k	75
448898	4835680	Not like you'll get paid for it.	Not like you'll get paid for it.	229571911	1478143728566	1478143728677	e	69
448898	4835680	Not like you'll get paid for it.	Not like you'll get paid for it.	229571912	1478143728631	1478143728838	 	32
448898	4835680	Not like you'll get paid for it.	Not like you'll get paid for it.	229571931	1478143728732	1478143728890	y	89
448898	4835680	Not like you'll get paid for it.	Not like you'll get paid for it.	229571933	1478143728798	1478143728942	o	79
448898	4835680	Not like you'll get paid for it.	Not like you'll get paid for it.	229571935	1478143728890	1478143729066	u	85
448898	4835680	Not like you'll get paid for it.	Not like you'll get paid for it.	229571937	1478143728986	1478143729102	'	222
448898	4835680	Not like you'll get paid for it.	Not like you'll get paid for it.	229571938	1478143729489	1478143729600	l	76
448898	4835680	Not like you'll get paid for it.	Not like you'll get paid for it.	229571941	1478143729662	1478143729813	l	76
448898	4835680	Not like you'll get paid for it.	Not like you'll get paid for it.	229571944	1478143729829	1478143730032	 	32
448898	4835680	Not like you'll get paid for it.	Not like you'll get paid for it.	229571950	1478143729950	1478143730080	g	71
448898	4835680	Not like you'll get paid for it.	Not like you'll get paid for it.	229571952	1478143730095	1478143730204	e	69
448898	4835680	Not like you'll get paid for it.	Not like you'll get paid for it.	229571954	1478143730138	1478143730259	t	84
448898	4835680	Not like you'll get paid for it.	Not like you'll get paid for it.	229571956	1478143730204	1478143730378	 	32
448898	4835680	Not like you'll get paid for it.	Not like you'll get paid for it.	229571958	1478143730393	1478143730466	p	80
448898	4835680	Not like you'll get paid for it.	Not like you'll get paid for it.	229571992	1478143730442	1478143730549	a	65
448898	4835680	Not like you'll get paid for it.	Not like you'll get paid for it.	229571994	1478143730564	1478143730713	i	73
448898	4835680	Not like you'll get paid for it.	Not like you'll get paid for it.	229571995	1478143730807	1478143730951	d	68
448898	4835680	Not like you'll get paid for it.	Not like you'll get paid for it.	229571996	1478143731018	1478143731229	 	32
448898	4835680	Not like you'll get paid for it.	Not like you'll get paid for it.	229572007	1478143731135	1478143731281	f	70
448898	4835680	Not like you'll get paid for it.	Not like you'll get paid for it.	229572009	1478143731219	1478143731388	o	79
448898	4835680	Not like you'll get paid for it.	Not like you'll get paid for it.	229572012	1478143731301	1478143731412	r	82
448898	4835680	Not like you'll get paid for it.	Not like you'll get paid for it.	229572020	1478143731360	1478143731536	 	32
448898	4835680	Not like you'll get paid for it.	Not like you'll get paid for it.	229572015	1478143731436	1478143731536	i	73
448898	4835680	Not like you'll get paid for it.	Not like you'll get paid for it.	229572026	1478143731483	1478143731584	t	84
448898	4835689	David, Cindy and Mary will each report to the Office of the Chairman.	David, Cindy and Mary will each report to the Office of the Chairman.	229572155	1478143734043	1478143734321	SHIFT	16
448898	4835689	David, Cindy and Mary will each report to the Office of the Chairman.	David, Cindy and Mary will each report to the Office of the Chairman.	229572156	1478143734197	1478143734321	D	68
448898	4835689	David, Cindy and Mary will each report to the Office of the Chairman.	David, Cindy and Mary will each report to the Office of the Chairman.	229572157	1478143734383	1478143734440	a	65
448898	4835689	David, Cindy and Mary will each report to the Office of the Chairman.	David, Cindy and Mary will each report to the Office of the Chairman.	229572159	1478143734581	1478143734735	v	86
448898	4835689	David, Cindy and Mary will each report to the Office of the Chairman.	David, Cindy and Mary will each report to the Office of the Chairman.	229572160	1478143734707	1478143734845	i	73
448898	4835689	David, Cindy and Mary will each report to the Office of the Chairman.	David, Cindy and Mary will each report to the Office of the Chairman.	229572175	1478143734792	1478143734924	d	68
448898	4835689	David, Cindy and Mary will each report to the Office of the Chairman.	David, Cindy and Mary will each report to the Office of the Chairman.	229572178	1478143734924	1478143735090	,	188
448898	4835689	David, Cindy and Mary will each report to the Office of the Chairman.	David, Cindy and Mary will each report to the Office of the Chairman.	229572180	1478143734994	1478143735187	 	32
448898	4835689	David, Cindy and Mary will each report to the Office of the Chairman.	David, Cindy and Mary will each report to the Office of the Chairman.	229572183	1478143735105	1478143735259	SHIFT	16
448898	4835689	David, Cindy and Mary will each report to the Office of the Chairman.	David, Cindy and Mary will each report to the Office of the Chairman.	229572185	1478143735168	1478143735275	C	67
448898	4835689	David, Cindy and Mary will each report to the Office of the Chairman.	David, Cindy and Mary will each report to the Office of the Chairman.	229572188	1478143735306	1478143735473	i	73
448898	4835689	David, Cindy and Mary will each report to the Office of the Chairman.	David, Cindy and Mary will each report to the Office of the Chairman.	229572211	1478143735370	1478143735545	n	78
448898	4835689	David, Cindy and Mary will each report to the Office of the Chairman.	David, Cindy and Mary will each report to the Office of the Chairman.	229572213	1478143735444	1478143735624	d	68
448898	4835689	David, Cindy and Mary will each report to the Office of the Chairman.	David, Cindy and Mary will each report to the Office of the Chairman.	229572219	1478143735592	1478143735724	y	89
448898	4835689	David, Cindy and Mary will each report to the Office of the Chairman.	David, Cindy and Mary will each report to the Office of the Chairman.	229572222	1478143735691	1478143735861	 	32
448898	4835689	David, Cindy and Mary will each report to the Office of the Chairman.	David, Cindy and Mary will each report to the Office of the Chairman.	229572227	1478143735792	1478143735900	a	65
448898	4835689	David, Cindy and Mary will each report to the Office of the Chairman.	David, Cindy and Mary will each report to the Office of the Chairman.	229572230	1478143735876	1478143736012	n	78
448898	4835689	David, Cindy and Mary will each report to the Office of the Chairman.	David, Cindy and Mary will each report to the Office of the Chairman.	229572244	1478143735936	1478143736079	d	68
448898	4835689	David, Cindy and Mary will each report to the Office of the Chairman.	David, Cindy and Mary will each report to the Office of the Chairman.	229572246	1478143736067	1478143736159	 	32
448898	4835689	David, Cindy and Mary will each report to the Office of the Chairman.	David, Cindy and Mary will each report to the Office of the Chairman.	229572248	1478143736128	1478143736256	SHIFT	16
448898	4835689	David, Cindy and Mary will each report to the Office of the Chairman.	David, Cindy and Mary will each report to the Office of the Chairman.	229572250	1478143736222	1478143736393	M	77
448898	4835689	David, Cindy and Mary will each report to the Office of the Chairman.	David, Cindy and Mary will each report to the Office of the Chairman.	229572252	1478143736328	1478143736462	a	65
448898	4835689	David, Cindy and Mary will each report to the Office of the Chairman.	David, Cindy and Mary will each report to the Office of the Chairman.	229572254	1478143736393	1478143736509	r	82
448898	4835689	David, Cindy and Mary will each report to the Office of the Chairman.	David, Cindy and Mary will each report to the Office of the Chairman.	229572257	1478143736572	1478143736711	y	89
448898	4835689	David, Cindy and Mary will each report to the Office of the Chairman.	David, Cindy and Mary will each report to the Office of the Chairman.	229572268	1478143736661	1478143736902	 	32
448898	4835689	David, Cindy and Mary will each report to the Office of the Chairman.	David, Cindy and Mary will each report to the Office of the Chairman.	229572267	1478143736779	1478143736878	w	87
448898	4835689	David, Cindy and Mary will each report to the Office of the Chairman.	David, Cindy and Mary will each report to the Office of the Chairman.	229572270	1478143736844	1478143737009	i	73
448898	4835689	David, Cindy and Mary will each report to the Office of the Chairman.	David, Cindy and Mary will each report to the Office of the Chairman.	229572271	1478143736926	1478143737025	l	76
448898	4835689	David, Cindy and Mary will each report to the Office of the Chairman.	David, Cindy and Mary will each report to the Office of the Chairman.	229572272	1478143737078	1478143737251	l	76
448898	4835689	David, Cindy and Mary will each report to the Office of the Chairman.	David, Cindy and Mary will each report to the Office of the Chairman.	229572285	1478143737146	1478143737363	 	32
448898	4835689	David, Cindy and Mary will each report to the Office of the Chairman.	David, Cindy and Mary will each report to the Office of the Chairman.	229572282	1478143737228	1478143737347	e	69
448898	4835689	David, Cindy and Mary will each report to the Office of the Chairman.	David, Cindy and Mary will each report to the Office of the Chairman.	229572289	1478143737303	1478143737419	a	65
448898	4835689	David, Cindy and Mary will each report to the Office of the Chairman.	David, Cindy and Mary will each report to the Office of the Chairman.	229572293	1478143737435	1478143737572	c	67
448898	4835689	David, Cindy and Mary will each report to the Office of the Chairman.	David, Cindy and Mary will each report to the Office of the Chairman.	229572294	1478143737542	1478143737710	h	72
448898	4835689	David, Cindy and Mary will each report to the Office of the Chairman.	David, Cindy and Mary will each report to the Office of the Chairman.	229572301	1478143737629	1478143737789	 	32
448898	4835689	David, Cindy and Mary will each report to the Office of the Chairman.	David, Cindy and Mary will each report to the Office of the Chairman.	229572302	1478143737662	1478143737846	r	82
448898	4835689	David, Cindy and Mary will each report to the Office of the Chairman.	David, Cindy and Mary will each report to the Office of the Chairman.	229572303	1478143737761	1478143737888	e	69
448898	4835689	David, Cindy and Mary will each report to the Office of the Chairman.	David, Cindy and Mary will each report to the Office of the Chairman.	229572304	1478143737814	1478143738024	p	80
448898	4835689	David, Cindy and Mary will each report to the Office of the Chairman.	David, Cindy and Mary will each report to the Office of the Chairman.	229572306	1478143737879	1478143738065	o	79
448898	4835689	David, Cindy and Mary will each report to the Office of the Chairman.	David, Cindy and Mary will each report to the Office of the Chairman.	229572322	1478143737963	1478143738121	r	82
448898	4835689	David, Cindy and Mary will each report to the Office of the Chairman.	David, Cindy and Mary will each report to the Office of the Chairman.	229572324	1478143738040	1478143738141	t	84
448898	4835689	David, Cindy and Mary will each report to the Office of the Chairman.	David, Cindy and Mary will each report to the Office of the Chairman.	229572332	1478143738117	1478143738297	 	32
448898	4835689	David, Cindy and Mary will each report to the Office of the Chairman.	David, Cindy and Mary will each report to the Office of the Chairman.	229572337	1478143738217	1478143738329	t	84
448898	4835689	David, Cindy and Mary will each report to the Office of the Chairman.	David, Cindy and Mary will each report to the Office of the Chairman.	229572341	1478143738249	1478143738450	o	79
448898	4835689	David, Cindy and Mary will each report to the Office of the Chairman.	David, Cindy and Mary will each report to the Office of the Chairman.	229572344	1478143738375	1478143738579	t	32
448898	4835689	David, Cindy and Mary will each report to the Office of the Chairman.	David, Cindy and Mary will each report to the Office of the Chairman.	229572354	1478143738513	1478143738688	h	72
448898	4835689	David, Cindy and Mary will each report to the Office of the Chairman.	David, Cindy and Mary will each report to the Office of the Chairman.	229572347	1478143738555	1478143738659	e	69
448898	4835689	David, Cindy and Mary will each report to the Office of the Chairman.	David, Cindy and Mary will each report to the Office of the Chairman.	229572361	1478143738675	1478143738859	 	32
448898	4835689	David, Cindy and Mary will each report to the Office of the Chairman.	David, Cindy and Mary will each report to the Office of the Chairman.	229572366	1478143738748	1478143738899	SHIFT	16
448898	4835689	David, Cindy and Mary will each report to the Office of the Chairman.	David, Cindy and Mary will each report to the Office of the Chairman.	229572369	1478143738835	1478143738987	O	79
448898	4835689	David, Cindy and Mary will each report to the Office of the Chairman.	David, Cindy and Mary will each report to the Office of the Chairman.	229572373	1478143738947	1478143739051	f	70
448898	4835689	David, Cindy and Mary will each report to the Office of the Chairman.	David, Cindy and Mary will each report to the Office of the Chairman.	229572374	1478143739095	1478143739187	f	70
448898	4835689	David, Cindy and Mary will each report to the Office of the Chairman.	David, Cindy and Mary will each report to the Office of the Chairman.	229572376	1478143739171	1478143739346	i	73
448898	4835689	David, Cindy and Mary will each report to the Office of the Chairman.	David, Cindy and Mary will each report to the Office of the Chairman.	229572375	1478143739223	1478143739330	c	67
448898	4835689	David, Cindy and Mary will each report to the Office of the Chairman.	David, Cindy and Mary will each report to the Office of the Chairman.	229572377	1478143739392	1478143739464	e	69
448898	4835689	David, Cindy and Mary will each report to the Office of the Chairman.	David, Cindy and Mary will each report to the Office of the Chairman.	229572388	1478143739436	1478143739627	 	32
448898	4835689	David, Cindy and Mary will each report to the Office of the Chairman.	David, Cindy and Mary will each report to the Office of the Chairman.	229572393	1478143739516	1478143739725	o	79
448898	4835689	David, Cindy and Mary will each report to the Office of the Chairman.	David, Cindy and Mary will each report to the Office of the Chairman.	229572390	1478143739578	1478143739678	f	70
448898	4835689	David, Cindy and Mary will each report to the Office of the Chairman.	David, Cindy and Mary will each report to the Office of the Chairman.	229572401	1478143739694	1478143739941	 	32
448898	4835689	David, Cindy and Mary will each report to the Office of the Chairman.	David, Cindy and Mary will each report to the Office of the Chairman.	229572395	1478143739745	1478143739889	t	84
448898	4835689	David, Cindy and Mary will each report to the Office of the Chairman.	David, Cindy and Mary will each report to the Office of the Chairman.	229572403	1478143739813	1478143739978	h	72
448898	4835689	David, Cindy and Mary will each report to the Office of the Chairman.	David, Cindy and Mary will each report to the Office of the Chairman.	229572405	1478143739883	1478143739981	e	69
448898	4835689	David, Cindy and Mary will each report to the Office of the Chairman.	David, Cindy and Mary will each report to the Office of the Chairman.	229572407	1478143739997	1478143740165	 	32
448898	4835689	David, Cindy and Mary will each report to the Office of the Chairman.	David, Cindy and Mary will each report to the Office of the Chairman.	229572408	1478143740042	1478143740201	SHIFT	16
448898	4835689	David, Cindy and Mary will each report to the Office of the Chairman.	David, Cindy and Mary will each report to the Office of the Chairman.	229572410	1478143740098	1478143740205	C	67
448898	4835689	David, Cindy and Mary will each report to the Office of the Chairman.	David, Cindy and Mary will each report to the Office of the Chairman.	229572412	1478143740205	1478143740330	h	72
448898	4835689	David, Cindy and Mary will each report to the Office of the Chairman.	David, Cindy and Mary will each report to the Office of the Chairman.	229572413	1478143740361	1478143740482	i	73
448898	4835689	David, Cindy and Mary will each report to the Office of the Chairman.	David, Cindy and Mary will each report to the Office of the Chairman.	229572455	1478143740418	1478143740566	r	82
448898	4835689	David, Cindy and Mary will each report to the Office of the Chairman.	David, Cindy and Mary will each report to the Office of the Chairman.	229572457	1478143740529	1478143740661	m	77
448898	4835689	David, Cindy and Mary will each report to the Office of the Chairman.	David, Cindy and Mary will each report to the Office of the Chairman.	229572461	1478143740634	1478143740722	a	65
448898	4835689	David, Cindy and Mary will each report to the Office of the Chairman.	David, Cindy and Mary will each report to the Office of the Chairman.	229572463	1478143740701	1478143740829	n	78
448898	4835689	David, Cindy and Mary will each report to the Office of the Chairman.	David, Cindy and Mary will each report to the Office of the Chairman.	229572467	1478143741014	1478143741104	BKSP	8
448898	4835689	David, Cindy and Mary will each report to the Office of the Chairman.	David, Cindy and Mary will each report to the Office of the Chairman.	229572470	1478143741167	1478143741268	BKSP	8
448898	4835689	David, Cindy and Mary will each report to the Office of the Chairman.	David, Cindy and Mary will each report to the Office of the Chairman.	229572473	1478143741315	1478143741417	BKSP	8
448898	4835689	David, Cindy and Mary will each report to the Office of the Chairman.	David, Cindy and Mary will each report to the Office of the Chairman.	229572475	1478143741480	1478143741567	BKSP	8
448898	4835689	David, Cindy and Mary will each report to the Office of the Chairman.	David, Cindy and Mary will each report to the Office of the Chairman.	229572477	1478143741630	1478143741718	BKSP	8
448898	4835689	David, Cindy and Mary will each report to the Office of the Chairman.	David, Cindy and Mary will each report to the Office of the Chairman.	229572479	1478143741733	1478143741853	a	65
448898	4835689	David, Cindy and Mary will each report to the Office of the Chairman.	David, Cindy and Mary will each report to the Office of the Chairman.	229572480	1478143741817	1478143741954	i	73
448898	4835689	David, Cindy and Mary will each report to the Office of the Chairman.	David, Cindy and Mary will each report to the Office of the Chairman.	229572482	1478143741900	1478143742039	r	82
448898	4835689	David, Cindy and Mary will each report to the Office of the Chairman.	David, Cindy and Mary will each report to the Office of the Chairman.	229572484	1478143742017	1478143742146	m	77
448898	4835689	David, Cindy and Mary will each report to the Office of the Chairman.	David, Cindy and Mary will each report to the Office of the Chairman.	229572486	1478143742162	1478143742258	a	65
448898	4835689	David, Cindy and Mary will each report to the Office of the Chairman.	David, Cindy and Mary will each report to the Office of the Chairman.	229572488	1478143742222	1478143742317	n	78
448898	4835700	Every Enron employee has an internet email address.	Every Enron employee has an internet email address.	229572625	1478143744768	1478143744935	SHIFT	16
448898	4835700	Every Enron employee has an internet email address.	Every Enron employee has an internet email address.	229572621	1478143744815	1478143744919	E	69
448898	4835700	Every Enron employee has an internet email address.	Every Enron employee has an internet email address.	229572631	1478143744966	1478143745056	v	86
448898	4835700	Every Enron employee has an internet email address.	Every Enron employee has an internet email address.	229572639	1478143745088	1478143745208	e	69
448898	4835700	Every Enron employee has an internet email address.	Every Enron employee has an internet email address.	229572646	1478143745155	1478143745224	r	82
448898	4835700	Every Enron employee has an internet email address.	Every Enron employee has an internet email address.	229572650	1478143745286	1478143745405	y	89
448898	4835700	Every Enron employee has an internet email address.	Every Enron employee has an internet email address.	229572667	1478143745371	1478143745554	 	32
448898	4835700	Every Enron employee has an internet email address.	Every Enron employee has an internet email address.	229572671	1478143745457	1478143745586	SHIFT	16
448898	4835700	Every Enron employee has an internet email address.	Every Enron employee has an internet email address.	229572674	1478143745488	1478143745586	E	69
448898	4835700	Every Enron employee has an internet email address.	Every Enron employee has an internet email address.	229572677	1478143745617	1478143745778	n	78
448898	4835700	Every Enron employee has an internet email address.	Every Enron employee has an internet email address.	229572681	1478143745675	1478143745818	r	82
448898	4835700	Every Enron employee has an internet email address.	Every Enron employee has an internet email address.	229572685	1478143745771	1478143745948	o	79
448898	4835700	Every Enron employee has an internet email address.	Every Enron employee has an internet email address.	229572689	1478143745963	1478143746176	n	78
448898	4835700	Every Enron employee has an internet email address.	Every Enron employee has an internet email address.	229572740	1478143746140	1478143746319	 	32
448898	4835700	Every Enron employee has an internet email address.	Every Enron employee has an internet email address.	229572742	1478143746507	1478143746665	e	69
448898	4835700	Every Enron employee has an internet email address.	Every Enron employee has an internet email address.	229572744	1478143746623	1478143746792	m	77
448898	4835700	Every Enron employee has an internet email address.	Every Enron employee has an internet email address.	229572745	1478143746756	1478143746875	p	80
448898	4835700	Every Enron employee has an internet email address.	Every Enron employee has an internet email address.	229572746	1478143746922	1478143747010	l	76
448898	4835700	Every Enron employee has an internet email address.	Every Enron employee has an internet email address.	229572758	1478143747067	1478143747250	o	79
448898	4835700	Every Enron employee has an internet email address.	Every Enron employee has an internet email address.	229572747	1478143747111	1478143747190	y	89
448898	4835700	Every Enron employee has an internet email address.	Every Enron employee has an internet email address.	229572759	1478143747239	1478143747326	e	69
448898	4835700	Every Enron employee has an internet email address.	Every Enron employee has an internet email address.	229572760	1478143747388	1478143747487	e	69
448898	4835700	Every Enron employee has an internet email address.	Every Enron employee has an internet email address.	229572761	1478143747439	1478143747649	 	32
448898	4835700	Every Enron employee has an internet email address.	Every Enron employee has an internet email address.	229572787	1478143747507	1478143747701	h	72
448898	4835700	Every Enron employee has an internet email address.	Every Enron employee has an internet email address.	229572785	1478143747548	1478143747701	a	65
448898	4835700	Every Enron employee has an internet email address.	Every Enron employee has an internet email address.	229572796	1478143747610	1478143747750	s	83
448898	4835700	Every Enron employee has an internet email address.	Every Enron employee has an internet email address.	229572803	1478143747741	1478143747877	 	32
448898	4835700	Every Enron employee has an internet email address.	Every Enron employee has an internet email address.	229572809	1478143747794	1478143747937	a	65
448898	4835700	Every Enron employee has an internet email address.	Every Enron employee has an internet email address.	229572811	1478143747893	1478143748038	n	78
448898	4835700	Every Enron employee has an internet email address.	Every Enron employee has an internet email address.	229572817	1478143747992	1478143748202	 	32
448898	4835700	Every Enron employee has an internet email address.	Every Enron employee has an internet email address.	229572831	1478143748133	1478143748283	i	73
448898	4835700	Every Enron employee has an internet email address.	Every Enron employee has an internet email address.	229572841	1478143748195	1478143748384	n	78
448898	4835700	Every Enron employee has an internet email address.	Every Enron employee has an internet email address.	229572836	1478143748260	1478143748364	t	84
448898	4835700	Every Enron employee has an internet email address.	Every Enron employee has an internet email address.	229572845	1478143748344	1478143748503	e	69
448898	4835700	Every Enron employee has an internet email address.	Every Enron employee has an internet email address.	229572849	1478143748455	1478143748599	r	82
448898	4835700	Every Enron employee has an internet email address.	Every Enron employee has an internet email address.	229572855	1478143748744	1478143748900	n	78
448898	4835700	Every Enron employee has an internet email address.	Every Enron employee has an internet email address.	229572867	1478143748852	1478143748996	e	69
448898	4835700	Every Enron employee has an internet email address.	Every Enron employee has an internet email address.	229572870	1478143748952	1478143749080	t	84
448898	4835700	Every Enron employee has an internet email address.	Every Enron employee has an internet email address.	229572873	1478143749024	1478143749230	 	32
448898	4835700	Every Enron employee has an internet email address.	Every Enron employee has an internet email address.	229572878	1478143749192	1478143749364	e	69
448898	4835700	Every Enron employee has an internet email address.	Every Enron employee has an internet email address.	229572881	1478143749324	1478143749485	m	77
448898	4835700	Every Enron employee has an internet email address.	Every Enron employee has an internet email address.	229572894	1478143749444	1478143749544	a	65
448898	4835700	Every Enron employee has an internet email address.	Every Enron employee has an internet email address.	229572896	1478143749533	1478143749645	i	73
448898	4835700	Every Enron employee has an internet email address.	Every Enron employee has an internet email address.	229572900	1478143749568	1478143749753	l	76
448898	4835700	Every Enron employee has an internet email address.	Every Enron employee has an internet email address.	229572906	1478143749676	1478143749898	 	32
448898	4835700	Every Enron employee has an internet email address.	Every Enron employee has an internet email address.	229572950	1478143749773	1478143749946	a	65
448898	4835700	Every Enron employee has an internet email address.	Every Enron employee has an internet email address.	229572953	1478143749844	1478143749977	d	68
448898	4835700	Every Enron employee has an internet email address.	Every Enron employee has an internet email address.	229572955	1478143750024	1478143750135	d	68
448898	4835700	Every Enron employee has an internet email address.	Every Enron employee has an internet email address.	229572958	1478143750181	1478143750378	r	82
448898	4835700	Every Enron employee has an internet email address.	Every Enron employee has an internet email address.	229572960	1478143750246	1478143750410	e	69
448898	4835700	Every Enron employee has an internet email address.	Every Enron employee has an internet email address.	229572962	1478143750313	1478143750422	s	83
448898	4835700	Every Enron employee has an internet email address.	Every Enron employee has an internet email address.	229572964	1478143750471	1478143750579	s	83
