PARTICIPANT_ID	TEST_SECTION_ID	SENTENCE	USER_INPUT	KEYSTROKE_ID	PRESS_TIME	RELEASE_TIME	LETTER	KEYCODE
449391	4841040	The single between the two versions is the treatment of foreign banks.	The single between the two versions is the treatment of foreign banks. 	229827575	1478150957140	1478150957458	SHIFT	16
449391	4841040	The single between the two versions is the treatment of foreign banks.	The single between the two versions is the treatment of foreign banks. 	229827573	1478150957275	1478150957355	T	84
449391	4841040	The single between the two versions is the treatment of foreign banks.	The single between the two versions is the treatment of foreign banks. 	229827577	1478150957947	1478150958050	h	72
449391	4841040	The single between the two versions is the treatment of foreign banks.	The single between the two versions is the treatment of foreign banks. 	229827581	1478150958027	1478150958082	e	69
449391	4841040	The single between the two versions is the treatment of foreign banks.	The single between the two versions is the treatment of foreign banks. 	229827585	1478150958835	1478150959509	 	32
449391	4841040	The single between the two versions is the treatment of foreign banks.	The single between the two versions is the treatment of foreign banks. 	229827589	1478150960219	1478150960275	s	83
449391	4841040	The single between the two versions is the treatment of foreign banks.	The single between the two versions is the treatment of foreign banks. 	229827657	1478150960363	1478150960467	i	79
449391	4841040	The single between the two versions is the treatment of foreign banks.	The single between the two versions is the treatment of foreign banks. 	229827658	1478150960539	1478150960675	n	78
449391	4841040	The single between the two versions is the treatment of foreign banks.	The single between the two versions is the treatment of foreign banks. 	229827659	1478150961451	1478150961514	BKSP	8
449391	4841040	The single between the two versions is the treatment of foreign banks.	The single between the two versions is the treatment of foreign banks. 	229827660	1478150961635	1478150961698	BKSP	8
449391	4841040	The single between the two versions is the treatment of foreign banks.	The single between the two versions is the treatment of foreign banks. 	229827662	1478150961763	1478150961834	BKSP	8
449391	4841040	The single between the two versions is the treatment of foreign banks.	The single between the two versions is the treatment of foreign banks. 	229827664	1478150963307	1478150963459	i	73
449391	4841040	The single between the two versions is the treatment of foreign banks.	The single between the two versions is the treatment of foreign banks. 	229827736	1478150963411	1478150963523	n	78
449391	4841040	The single between the two versions is the treatment of foreign banks.	The single between the two versions is the treatment of foreign banks. 	229827739	1478150963515	1478150963571	g	71
449391	4841040	The single between the two versions is the treatment of foreign banks.	The single between the two versions is the treatment of foreign banks. 	229827741	1478150963995	1478150964058	l	76
449391	4841040	The single between the two versions is the treatment of foreign banks.	The single between the two versions is the treatment of foreign banks. 	229827743	1478150964107	1478150964171	e	69
449391	4841040	The single between the two versions is the treatment of foreign banks.	The single between the two versions is the treatment of foreign banks. 	229827744	1478150965099	1478150965155	 	32
449391	4841040	The single between the two versions is the treatment of foreign banks.	The single between the two versions is the treatment of foreign banks. 	229827745	1478150966099	1478150966171	b	66
449391	4841040	The single between the two versions is the treatment of foreign banks.	The single between the two versions is the treatment of foreign banks. 	229827788	1478150966235	1478150966306	e	69
449391	4841040	The single between the two versions is the treatment of foreign banks.	The single between the two versions is the treatment of foreign banks. 	229827791	1478150966699	1478150966795	t	84
449391	4841040	The single between the two versions is the treatment of foreign banks.	The single between the two versions is the treatment of foreign banks. 	229827795	1478150967011	1478150967115	w	87
449391	4841040	The single between the two versions is the treatment of foreign banks.	The single between the two versions is the treatment of foreign banks. 	229827798	1478150967315	1478150967379	e	69
449391	4841040	The single between the two versions is the treatment of foreign banks.	The single between the two versions is the treatment of foreign banks. 	229827802	1478150967459	1478150967547	e	69
449391	4841040	The single between the two versions is the treatment of foreign banks.	The single between the two versions is the treatment of foreign banks. 	229827865	1478150967691	1478150967763	n	78
449391	4841040	The single between the two versions is the treatment of foreign banks.	The single between the two versions is the treatment of foreign banks. 	229827868	1478150967995	1478150968050	 	32
449391	4841040	The single between the two versions is the treatment of foreign banks.	The single between the two versions is the treatment of foreign banks. 	229827870	1478150969323	1478150969379	t	84
449391	4841040	The single between the two versions is the treatment of foreign banks.	The single between the two versions is the treatment of foreign banks. 	229827873	1478150969427	1478150969499	h	72
449391	4841040	The single between the two versions is the treatment of foreign banks.	The single between the two versions is the treatment of foreign banks. 	229827878	1478150969595	1478150969683	e	69
449391	4841040	The single between the two versions is the treatment of foreign banks.	The single between the two versions is the treatment of foreign banks. 	229827993	1478150969795	1478150969867	 	32
449391	4841040	The single between the two versions is the treatment of foreign banks.	The single between the two versions is the treatment of foreign banks. 	229827998	1478150972492	1478150972643	t	84
449391	4841040	The single between the two versions is the treatment of foreign banks.	The single between the two versions is the treatment of foreign banks. 	229828003	1478150972659	1478150972779	w	87
449391	4841040	The single between the two versions is the treatment of foreign banks.	The single between the two versions is the treatment of foreign banks. 	229828009	1478150972827	1478150972923	o	79
449391	4841040	The single between the two versions is the treatment of foreign banks.	The single between the two versions is the treatment of foreign banks. 	229828013	1478150973187	1478150973250	 	32
449391	4841040	The single between the two versions is the treatment of foreign banks.	The single between the two versions is the treatment of foreign banks. 	229828061	1478150973723	1478150973819	v	86
449391	4841040	The single between the two versions is the treatment of foreign banks.	The single between the two versions is the treatment of foreign banks. 	229828062	1478150973907	1478150974003	e	69
449391	4841040	The single between the two versions is the treatment of foreign banks.	The single between the two versions is the treatment of foreign banks. 	229828063	1478150974091	1478150974155	r	82
449391	4841040	The single between the two versions is the treatment of foreign banks.	The single between the two versions is the treatment of foreign banks. 	229828064	1478150974427	1478150974499	s	83
449391	4841040	The single between the two versions is the treatment of foreign banks.	The single between the two versions is the treatment of foreign banks. 	229828065	1478150974547	1478150974611	i	73
449391	4841040	The single between the two versions is the treatment of foreign banks.	The single between the two versions is the treatment of foreign banks. 	229828146	1478150974747	1478150974827	o	79
449391	4841040	The single between the two versions is the treatment of foreign banks.	The single between the two versions is the treatment of foreign banks. 	229828148	1478150975091	1478150975147	n	78
449391	4841040	The single between the two versions is the treatment of foreign banks.	The single between the two versions is the treatment of foreign banks. 	229828149	1478150975243	1478150975323	s	83
449391	4841040	The single between the two versions is the treatment of foreign banks.	The single between the two versions is the treatment of foreign banks. 	229828150	1478150976419	1478150976475	 	32
449391	4841040	The single between the two versions is the treatment of foreign banks.	The single between the two versions is the treatment of foreign banks. 	229828152	1478150977675	1478150977747	i	73
449391	4841040	The single between the two versions is the treatment of foreign banks.	The single between the two versions is the treatment of foreign banks. 	229828173	1478150977811	1478150977875	s	83
449391	4841040	The single between the two versions is the treatment of foreign banks.	The single between the two versions is the treatment of foreign banks. 	229828176	1478150977947	1478150978011	 	32
449391	4841040	The single between the two versions is the treatment of foreign banks.	The single between the two versions is the treatment of foreign banks. 	229828180	1478150978267	1478150978315	t	84
449391	4841040	The single between the two versions is the treatment of foreign banks.	The single between the two versions is the treatment of foreign banks. 	229828185	1478150978363	1478150978435	h	72
449391	4841040	The single between the two versions is the treatment of foreign banks.	The single between the two versions is the treatment of foreign banks. 	229828190	1478150978499	1478150978571	e	69
449391	4841040	The single between the two versions is the treatment of foreign banks.	The single between the two versions is the treatment of foreign banks. 	229828217	1478150978627	1478150978695	 	32
449391	4841040	The single between the two versions is the treatment of foreign banks.	The single between the two versions is the treatment of foreign banks. 	229828218	1478150979291	1478150979355	t	84
449391	4841040	The single between the two versions is the treatment of foreign banks.	The single between the two versions is the treatment of foreign banks. 	229828220	1478150979571	1478150979667	r	82
449391	4841040	The single between the two versions is the treatment of foreign banks.	The single between the two versions is the treatment of foreign banks. 	229828222	1478150979811	1478150979931	e	69
449391	4841040	The single between the two versions is the treatment of foreign banks.	The single between the two versions is the treatment of foreign banks. 	229828224	1478150980107	1478150980195	a	65
449391	4841040	The single between the two versions is the treatment of foreign banks.	The single between the two versions is the treatment of foreign banks. 	229828269	1478150980339	1478150980419	t	84
449391	4841040	The single between the two versions is the treatment of foreign banks.	The single between the two versions is the treatment of foreign banks. 	229828270	1478150981059	1478150981123	m	77
449391	4841040	The single between the two versions is the treatment of foreign banks.	The single between the two versions is the treatment of foreign banks. 	229828272	1478150981107	1478150981171	e	69
449391	4841040	The single between the two versions is the treatment of foreign banks.	The single between the two versions is the treatment of foreign banks. 	229828274	1478150981283	1478150981359	n	78
449391	4841040	The single between the two versions is the treatment of foreign banks.	The single between the two versions is the treatment of foreign banks. 	229828276	1478150981359	1478150981411	t	84
449391	4841040	The single between the two versions is the treatment of foreign banks.	The single between the two versions is the treatment of foreign banks. 	229828412	1478150982380	1478150982435	 	32
449391	4841040	The single between the two versions is the treatment of foreign banks.	The single between the two versions is the treatment of foreign banks. 	229828415	1478150984387	1478150984467	o	79
449391	4841040	The single between the two versions is the treatment of foreign banks.	The single between the two versions is the treatment of foreign banks. 	229828419	1478150984507	1478150984555	f	70
449391	4841040	The single between the two versions is the treatment of foreign banks.	The single between the two versions is the treatment of foreign banks. 	229828421	1478150984651	1478150984723	 	32
449391	4841040	The single between the two versions is the treatment of foreign banks.	The single between the two versions is the treatment of foreign banks. 	229828423	1478150985259	1478150985307	f	70
449391	4841040	The single between the two versions is the treatment of foreign banks.	The single between the two versions is the treatment of foreign banks. 	229828496	1478150985331	1478150985411	o	79
449391	4841040	The single between the two versions is the treatment of foreign banks.	The single between the two versions is the treatment of foreign banks. 	229828498	1478150985643	1478150985707	r	82
449391	4841040	The single between the two versions is the treatment of foreign banks.	The single between the two versions is the treatment of foreign banks. 	229828500	1478150985795	1478150985867	e	69
449391	4841040	The single between the two versions is the treatment of foreign banks.	The single between the two versions is the treatment of foreign banks. 	229828502	1478150986091	1478150986147	g	71
449391	4841040	The single between the two versions is the treatment of foreign banks.	The single between the two versions is the treatment of foreign banks. 	229828504	1478150986907	1478150986987	BKSP	8
449391	4841040	The single between the two versions is the treatment of foreign banks.	The single between the two versions is the treatment of foreign banks. 	229828506	1478150987283	1478150987363	i	73
449391	4841040	The single between the two versions is the treatment of foreign banks.	The single between the two versions is the treatment of foreign banks. 	229828547	1478150987571	1478150987619	g	71
449391	4841040	The single between the two versions is the treatment of foreign banks.	The single between the two versions is the treatment of foreign banks. 	229828549	1478150987643	1478150987723	n	78
449391	4841040	The single between the two versions is the treatment of foreign banks.	The single between the two versions is the treatment of foreign banks. 	229828550	1478150987851	1478150987927	 	32
449391	4841040	The single between the two versions is the treatment of foreign banks.	The single between the two versions is the treatment of foreign banks. 	229828551	1478150988283	1478150988347	b	66
449391	4841040	The single between the two versions is the treatment of foreign banks.	The single between the two versions is the treatment of foreign banks. 	229828552	1478150988395	1478150988443	a	65
449391	4841040	The single between the two versions is the treatment of foreign banks.	The single between the two versions is the treatment of foreign banks. 	229828603	1478150988539	1478150988619	n	78
449391	4841040	The single between the two versions is the treatment of foreign banks.	The single between the two versions is the treatment of foreign banks. 	229828605	1478150988795	1478150988883	k	75
449391	4841040	The single between the two versions is the treatment of foreign banks.	The single between the two versions is the treatment of foreign banks. 	229828609	1478150988915	1478150988979	s	83
449391	4841040	The single between the two versions is the treatment of foreign banks.	The single between the two versions is the treatment of foreign banks. 	229828611	1478150989563	1478150989627	.	190
449391	4841040	The single between the two versions is the treatment of foreign banks.	The single between the two versions is the treatment of foreign banks. 	229828614	1478150989771	1478150989827	 	32
449391	4841072	We need to talk about this month.	We need to talk about this month,	229829043	1478150995507	1478150995947	SHIFT	16
449391	4841072	We need to talk about this month.	We need to talk about this month,	229829045	1478150995875	1478150996003	W	87
449391	4841072	We need to talk about this month.	We need to talk about this month,	229829046	1478150996259	1478150996315	e	51
449391	4841072	We need to talk about this month.	We need to talk about this month,	229829049	1478150997571	1478150997683	BKSP	8
449391	4841072	We need to talk about this month.	We need to talk about this month,	229829052	1478150997755	1478150997843	BKSP	8
449391	4841072	We need to talk about this month.	We need to talk about this month,	229829054	1478150997971	1478150998043	e	69
449391	4841072	We need to talk about this month.	We need to talk about this month,	229829056	1478150998459	1478150998523	 	32
449391	4841072	We need to talk about this month.	We need to talk about this month,	229829083	1478150999435	1478150999507	n	78
449391	4841072	We need to talk about this month.	We need to talk about this month,	229829088	1478150999723	1478150999779	e	69
449391	4841072	We need to talk about this month.	We need to talk about this month,	229829094	1478150999843	1478150999899	e	69
449391	4841072	We need to talk about this month.	We need to talk about this month,	229829101	1478151000003	1478151000051	d	68
449391	4841072	We need to talk about this month.	We need to talk about this month,	229829107	1478151000107	1478151000179	 	32
449391	4841072	We need to talk about this month.	We need to talk about this month,	229829150	1478151000411	1478151000459	t	84
449391	4841072	We need to talk about this month.	We need to talk about this month,	229829152	1478151000483	1478151000563	o	79
449391	4841072	We need to talk about this month.	We need to talk about this month,	229829154	1478151000667	1478151000747	 	32
449391	4841072	We need to talk about this month.	We need to talk about this month,	229829156	1478151001035	1478151001091	t	84
449391	4841072	We need to talk about this month.	We need to talk about this month,	229829159	1478151001131	1478151001219	a	65
449391	4841072	We need to talk about this month.	We need to talk about this month,	229829195	1478151001467	1478151001531	l	76
449391	4841072	We need to talk about this month.	We need to talk about this month,	229829197	1478151001603	1478151001667	k	75
449391	4841072	We need to talk about this month.	We need to talk about this month,	229829199	1478151001795	1478151001859	 	32
449391	4841072	We need to talk about this month.	We need to talk about this month,	229829201	1478151002267	1478151002339	a	65
449391	4841072	We need to talk about this month.	We need to talk about this month,	229829203	1478151002347	1478151002419	b	66
449391	4841072	We need to talk about this month.	We need to talk about this month,	229829233	1478151002539	1478151002659	o	79
449391	4841072	We need to talk about this month.	We need to talk about this month,	229829238	1478151002755	1478151002835	u	85
449391	4841072	We need to talk about this month.	We need to talk about this month,	229829243	1478151002867	1478151002923	t	84
449391	4841072	We need to talk about this month.	We need to talk about this month,	229829250	1478151003027	1478151003083	 	32
449391	4841072	We need to talk about this month.	We need to talk about this month,	229829254	1478151003339	1478151003395	t	84
449391	4841072	We need to talk about this month.	We need to talk about this month,	229829304	1478151003411	1478151003475	h	72
449391	4841072	We need to talk about this month.	We need to talk about this month,	229829305	1478151003571	1478151003707	i	73
449391	4841072	We need to talk about this month.	We need to talk about this month,	229829307	1478151003747	1478151003843	s	83
449391	4841072	We need to talk about this month.	We need to talk about this month,	229829309	1478151003899	1478151003987	 	32
449391	4841072	We need to talk about this month.	We need to talk about this month,	229829311	1478151004523	1478151004667	m	77
449391	4841072	We need to talk about this month.	We need to talk about this month,	229829333	1478151004691	1478151004819	o	79
449391	4841072	We need to talk about this month.	We need to talk about this month,	229829334	1478151004883	1478151004971	n	78
449391	4841072	We need to talk about this month.	We need to talk about this month,	229829335	1478151005211	1478151005267	t	84
449391	4841072	We need to talk about this month.	We need to talk about this month,	229829338	1478151005299	1478151005371	h	72
449391	4841072	We need to talk about this month.	We need to talk about this month,	229829341	1478151005843	1478151005891	,	188
449391	4841086	Do you have a number for him?	Do you have a number for him?	229829572	1478151009715	1478151009979	SHIFT	16
449391	4841086	Do you have a number for him?	Do you have a number for him?	229829575	1478151009907	1478151009986	D	68
449391	4841086	Do you have a number for him?	Do you have a number for him?	229829577	1478151010027	1478151010091	o	79
449391	4841086	Do you have a number for him?	Do you have a number for him?	229829579	1478151010203	1478151010283	 	32
449391	4841086	Do you have a number for him?	Do you have a number for him?	229829582	1478151010483	1478151010540	y	89
449391	4841086	Do you have a number for him?	Do you have a number for him?	229829591	1478151010572	1478151010635	o	79
449391	4841086	Do you have a number for him?	Do you have a number for him?	229829626	1478151010675	1478151010723	u	85
449391	4841086	Do you have a number for him?	Do you have a number for him?	229829630	1478151010795	1478151010875	 	32
449391	4841086	Do you have a number for him?	Do you have a number for him?	229829632	1478151011243	1478151011323	n	78
449391	4841086	Do you have a number for him?	Do you have a number for him?	229829637	1478151011403	1478151011467	e	69
449391	4841086	Do you have a number for him?	Do you have a number for him?	229829642	1478151011531	1478151011587	e	69
449391	4841086	Do you have a number for him?	Do you have a number for him?	229829823	1478151011667	1478151011731	d	68
449391	4841086	Do you have a number for him?	Do you have a number for him?	229829824	1478151011787	1478151011851	 	32
449391	4841086	Do you have a number for him?	Do you have a number for him?	229829825	1478151013219	1478151013331	BKSP	8
449391	4841086	Do you have a number for him?	Do you have a number for him?	229829826	1478151013387	1478151013435	BKSP	8
449391	4841086	Do you have a number for him?	Do you have a number for him?	229829827	1478151013531	1478151013555	BKSP	8
449391	4841086	Do you have a number for him?	Do you have a number for him?	229829828	1478151013723	1478151013771	BKSP	8
449391	4841086	Do you have a number for him?	Do you have a number for him?	229829829	1478151014115	1478151014179	BKSP	8
449391	4841086	Do you have a number for him?	Do you have a number for him?	229829830	1478151015459	1478151015523	h	72
449391	4841086	Do you have a number for him?	Do you have a number for him?	229829831	1478151015547	1478151015635	a	65
449391	4841086	Do you have a number for him?	Do you have a number for him?	229829832	1478151015763	1478151015827	v	86
449391	4841086	Do you have a number for him?	Do you have a number for him?	229829866	1478151015859	1478151015907	e	69
449391	4841086	Do you have a number for him?	Do you have a number for him?	229829867	1478151015987	1478151016043	 	32
449391	4841086	Do you have a number for him?	Do you have a number for him?	229829868	1478151016115	1478151016195	a	65
449391	4841086	Do you have a number for him?	Do you have a number for him?	229829869	1478151016251	1478151016315	 	32
449391	4841086	Do you have a number for him?	Do you have a number for him?	229829870	1478151017027	1478151017131	u	85
449391	4841086	Do you have a number for him?	Do you have a number for him?	229830006	1478151017059	1478151017259	n	78
449391	4841086	Do you have a number for him?	Do you have a number for him?	229830009	1478151017267	1478151017339	u	85
449391	4841086	Do you have a number for him?	Do you have a number for him?	229830013	1478151018179	1478151018227	BKSP	8
449391	4841086	Do you have a number for him?	Do you have a number for him?	229830016	1478151018323	1478151018379	BKSP	8
449391	4841086	Do you have a number for him?	Do you have a number for him?	229830018	1478151018419	1478151018491	BKSP	8
449391	4841086	Do you have a number for him?	Do you have a number for him?	229830021	1478151018971	1478151019051	n	78
449391	4841086	Do you have a number for him?	Do you have a number for him?	229830022	1478151019795	1478151019843	u	85
449391	4841086	Do you have a number for him?	Do you have a number for him?	229830025	1478151019907	1478151019963	m	77
449391	4841086	Do you have a number for him?	Do you have a number for him?	229830026	1478151020347	1478151020403	b	66
449391	4841086	Do you have a number for him?	Do you have a number for him?	229830031	1478151020459	1478151020515	e	69
449391	4841086	Do you have a number for him?	Do you have a number for him?	229830033	1478151020603	1478151020667	r	82
449391	4841086	Do you have a number for him?	Do you have a number for him?	229830035	1478151020731	1478151020795	 	32
449391	4841086	Do you have a number for him?	Do you have a number for him?	229830036	1478151021099	1478151021147	f	70
449391	4841086	Do you have a number for him?	Do you have a number for him?	229830038	1478151021171	1478151021251	o	79
449391	4841086	Do you have a number for him?	Do you have a number for him?	229830071	1478151021307	1478151021355	r	82
449391	4841086	Do you have a number for him?	Do you have a number for him?	229830072	1478151021387	1478151021451	 	32
449391	4841086	Do you have a number for him?	Do you have a number for him?	229830073	1478151021939	1478151022003	h	72
449391	4841086	Do you have a number for him?	Do you have a number for him?	229830074	1478151022100	1478151022187	i	73
449391	4841086	Do you have a number for him?	Do you have a number for him?	229830075	1478151022259	1478151022323	m	77
449391	4841086	Do you have a number for him?	Do you have a number for him?	229830101	1478151022651	1478151022971	SHIFT	16
449391	4841086	Do you have a number for him?	Do you have a number for him?	229830097	1478151022859	1478151022923	?	191
449391	4841101	What level of detail do you need?	What level of detail do you need?	229830325	1478151026435	1478151027091	SHIFT	16
449391	4841101	What level of detail do you need?	What level of detail do you need?	229830329	1478151027068	1478151027123	W	87
449391	4841101	What level of detail do you need?	What level of detail do you need?	229830331	1478151027227	1478151027291	h	72
449391	4841101	What level of detail do you need?	What level of detail do you need?	229830334	1478151027435	1478151027555	a	65
449391	4841101	What level of detail do you need?	What level of detail do you need?	229830339	1478151027587	1478151027651	t	84
449391	4841101	What level of detail do you need?	What level of detail do you need?	229830344	1478151027843	1478151027907	 	32
449391	4841101	What level of detail do you need?	What level of detail do you need?	229830526	1478151028411	1478151028571	;	186
449391	4841101	What level of detail do you need?	What level of detail do you need?	229830529	1478151029355	1478151029475	\	220
449391	4841101	What level of detail do you need?	What level of detail do you need?	229830531	1478151030459	1478151030523	BKSP	8
449391	4841101	What level of detail do you need?	What level of detail do you need?	229830533	1478151030571	1478151030643	BKSP	8
449391	4841101	What level of detail do you need?	What level of detail do you need?	229830535	1478151030963	1478151031043	l	76
449391	4841101	What level of detail do you need?	What level of detail do you need?	229830536	1478151031428	1478151031500	e	69
449391	4841101	What level of detail do you need?	What level of detail do you need?	229830537	1478151032180	1478151032251	v	86
449391	4841101	What level of detail do you need?	What level of detail do you need?	229830585	1478151032283	1478151032387	e	69
449391	4841101	What level of detail do you need?	What level of detail do you need?	229830587	1478151032843	1478151032923	l	76
449391	4841101	What level of detail do you need?	What level of detail do you need?	229830589	1478151033324	1478151033379	 	32
449391	4841101	What level of detail do you need?	What level of detail do you need?	229830592	1478151033795	1478151033891	o	79
449391	4841101	What level of detail do you need?	What level of detail do you need?	229830595	1478151033987	1478151034043	d	68
449391	4841101	What level of detail do you need?	What level of detail do you need?	229830730	1478151034691	1478151034827	BKSP	8
449391	4841101	What level of detail do you need?	What level of detail do you need?	229830732	1478151034931	1478151035043	f	70
449391	4841101	What level of detail do you need?	What level of detail do you need?	229830734	1478151035427	1478151035483	 	32
449391	4841101	What level of detail do you need?	What level of detail do you need?	229830740	1478151037636	1478151037707	d	68
449391	4841101	What level of detail do you need?	What level of detail do you need?	229830742	1478151037795	1478151037883	e	69
449391	4841101	What level of detail do you need?	What level of detail do you need?	229830745	1478151038444	1478151038499	t	84
449391	4841101	What level of detail do you need?	What level of detail do you need?	229830834	1478151038507	1478151038603	a	65
449391	4841101	What level of detail do you need?	What level of detail do you need?	229830836	1478151038719	1478151038787	i	73
449391	4841101	What level of detail do you need?	What level of detail do you need?	229830837	1478151039052	1478151039139	l	76
449391	4841101	What level of detail do you need?	What level of detail do you need?	229830839	1478151039379	1478151039459	 	32
449391	4841101	What level of detail do you need?	What level of detail do you need?	229830841	1478151041340	1478151041387	d	68
449391	4841101	What level of detail do you need?	What level of detail do you need?	229830876	1478151041403	1478151041475	o	79
449391	4841101	What level of detail do you need?	What level of detail do you need?	229830880	1478151041596	1478151041675	 	32
449391	4841101	What level of detail do you need?	What level of detail do you need?	229830885	1478151042067	1478151042115	y	89
449391	4841101	What level of detail do you need?	What level of detail do you need?	229830888	1478151042147	1478151042227	o	79
449391	4841101	What level of detail do you need?	What level of detail do you need?	229830894	1478151042275	1478151042315	u	85
449391	4841101	What level of detail do you need?	What level of detail do you need?	229830924	1478151042388	1478151042435	 	32
449391	4841101	What level of detail do you need?	What level of detail do you need?	229830927	1478151042715	1478151042787	n	78
449391	4841101	What level of detail do you need?	What level of detail do you need?	229830930	1478151042923	1478151042987	e	69
449391	4841101	What level of detail do you need?	What level of detail do you need?	229830933	1478151043083	1478151043155	d	68
449391	4841101	What level of detail do you need?	What level of detail do you need?	229830939	1478151043243	1478151043291	d	68
449391	4841101	What level of detail do you need?	What level of detail do you need?	229831062	1478151045012	1478151045139	BKSP	8
449391	4841101	What level of detail do you need?	What level of detail do you need?	229831064	1478151045195	1478151045291	BKSP	8
449391	4841101	What level of detail do you need?	What level of detail do you need?	229831066	1478151046004	1478151046059	e	69
449391	4841101	What level of detail do you need?	What level of detail do you need?	229831069	1478151046147	1478151046219	d	68
449391	4841101	What level of detail do you need?	What level of detail do you need?	229831072	1478151046868	1478151046923	?	191
449391	4841118	I was a bit rusty but I didn't want to miss the elections back home.	I was a bit rusty but I didn't want to miss the elections back home.	229831262	1478151051204	1478151051275	I	73
449391	4841118	I was a bit rusty but I didn't want to miss the elections back home.	I was a bit rusty but I didn't want to miss the elections back home.	229831265	1478151051387	1478151051491	 	32
449391	4841118	I was a bit rusty but I didn't want to miss the elections back home.	I was a bit rusty but I didn't want to miss the elections back home.	229831267	1478151051852	1478151051939	w	87
449391	4841118	I was a bit rusty but I didn't want to miss the elections back home.	I was a bit rusty but I didn't want to miss the elections back home.	229831269	1478151052051	1478151052155	a	65
449391	4841118	I was a bit rusty but I didn't want to miss the elections back home.	I was a bit rusty but I didn't want to miss the elections back home.	229831276	1478151052204	1478151052299	s	83
449391	4841118	I was a bit rusty but I didn't want to miss the elections back home.	I was a bit rusty but I didn't want to miss the elections back home.	229831346	1478151052363	1478151052435	 	32
449391	4841118	I was a bit rusty but I didn't want to miss the elections back home.	I was a bit rusty but I didn't want to miss the elections back home.	229831347	1478151052980	1478151053051	a	65
449391	4841118	I was a bit rusty but I didn't want to miss the elections back home.	I was a bit rusty but I didn't want to miss the elections back home.	229831349	1478151053131	1478151053204	 	32
449391	4841118	I was a bit rusty but I didn't want to miss the elections back home.	I was a bit rusty but I didn't want to miss the elections back home.	229831352	1478151054124	1478151054171	b	66
449391	4841118	I was a bit rusty but I didn't want to miss the elections back home.	I was a bit rusty but I didn't want to miss the elections back home.	229831355	1478151054179	1478151054267	i	73
449391	4841118	I was a bit rusty but I didn't want to miss the elections back home.	I was a bit rusty but I didn't want to miss the elections back home.	229831480	1478151054340	1478151054387	t	84
449391	4841118	I was a bit rusty but I didn't want to miss the elections back home.	I was a bit rusty but I didn't want to miss the elections back home.	229831484	1478151054411	1478151054491	 	32
449391	4841118	I was a bit rusty but I didn't want to miss the elections back home.	I was a bit rusty but I didn't want to miss the elections back home.	229831489	1478151056620	1478151056675	r	82
449391	4841118	I was a bit rusty but I didn't want to miss the elections back home.	I was a bit rusty but I didn't want to miss the elections back home.	229831494	1478151056715	1478151056795	u	85
449391	4841118	I was a bit rusty but I didn't want to miss the elections back home.	I was a bit rusty but I didn't want to miss the elections back home.	229831497	1478151057340	1478151057443	s	83
449391	4841118	I was a bit rusty but I didn't want to miss the elections back home.	I was a bit rusty but I didn't want to miss the elections back home.	229831607	1478151057788	1478151057835	t	84
449391	4841118	I was a bit rusty but I didn't want to miss the elections back home.	I was a bit rusty but I didn't want to miss the elections back home.	229831609	1478151057891	1478151057963	y	89
449391	4841118	I was a bit rusty but I didn't want to miss the elections back home.	I was a bit rusty but I didn't want to miss the elections back home.	229831612	1478151058212	1478151058283	 	32
449391	4841118	I was a bit rusty but I didn't want to miss the elections back home.	I was a bit rusty but I didn't want to miss the elections back home.	229831614	1478151059716	1478151059803	b	66
449391	4841118	I was a bit rusty but I didn't want to miss the elections back home.	I was a bit rusty but I didn't want to miss the elections back home.	229831617	1478151059811	1478151059899	u	85
449391	4841118	I was a bit rusty but I didn't want to miss the elections back home.	I was a bit rusty but I didn't want to miss the elections back home.	229831677	1478151059916	1478151059963	t	84
449391	4841118	I was a bit rusty but I didn't want to miss the elections back home.	I was a bit rusty but I didn't want to miss the elections back home.	229831680	1478151060044	1478151060115	 	32
449391	4841118	I was a bit rusty but I didn't want to miss the elections back home.	I was a bit rusty but I didn't want to miss the elections back home.	229831684	1478151060395	1478151060659	SHIFT	16
449391	4841118	I was a bit rusty but I didn't want to miss the elections back home.	I was a bit rusty but I didn't want to miss the elections back home.	229831682	1478151060508	1478151060571	I	73
449391	4841118	I was a bit rusty but I didn't want to miss the elections back home.	I was a bit rusty but I didn't want to miss the elections back home.	229831686	1478151060740	1478151060811	 	32
449391	4841118	I was a bit rusty but I didn't want to miss the elections back home.	I was a bit rusty but I didn't want to miss the elections back home.	229831688	1478151061180	1478151061259	c	67
449391	4841118	I was a bit rusty but I didn't want to miss the elections back home.	I was a bit rusty but I didn't want to miss the elections back home.	229831747	1478151061347	1478151061443	a	65
449391	4841118	I was a bit rusty but I didn't want to miss the elections back home.	I was a bit rusty but I didn't want to miss the elections back home.	229831753	1478151061708	1478151061779	n	78
449391	4841118	I was a bit rusty but I didn't want to miss the elections back home.	I was a bit rusty but I didn't want to miss the elections back home.	229831759	1478151062220	1478151062307	'	222
449391	4841118	I was a bit rusty but I didn't want to miss the elections back home.	I was a bit rusty but I didn't want to miss the elections back home.	229831764	1478151062500	1478151062563	t	84
449391	4841118	I was a bit rusty but I didn't want to miss the elections back home.	I was a bit rusty but I didn't want to miss the elections back home.	229831770	1478151062635	1478151062699	 	32
449391	4841118	I was a bit rusty but I didn't want to miss the elections back home.	I was a bit rusty but I didn't want to miss the elections back home.	229831970	1478151063676	1478151063771	BKSP	8
449391	4841118	I was a bit rusty but I didn't want to miss the elections back home.	I was a bit rusty but I didn't want to miss the elections back home.	229831975	1478151064091	1478151064139	BKSP	8
449391	4841118	I was a bit rusty but I didn't want to miss the elections back home.	I was a bit rusty but I didn't want to miss the elections back home.	229831979	1478151064211	1478151064227	BKSP	8
449391	4841118	I was a bit rusty but I didn't want to miss the elections back home.	I was a bit rusty but I didn't want to miss the elections back home.	229831983	1478151064301	1478151064339	BKSP	8
449391	4841118	I was a bit rusty but I didn't want to miss the elections back home.	I was a bit rusty but I didn't want to miss the elections back home.	229831987	1478151064403	1478151064459	BKSP	8
449391	4841118	I was a bit rusty but I didn't want to miss the elections back home.	I was a bit rusty but I didn't want to miss the elections back home.	229831990	1478151064499	1478151064563	BKSP	8
449391	4841118	I was a bit rusty but I didn't want to miss the elections back home.	I was a bit rusty but I didn't want to miss the elections back home.	229831995	1478151065708	1478151065771	d	68
449391	4841118	I was a bit rusty but I didn't want to miss the elections back home.	I was a bit rusty but I didn't want to miss the elections back home.	229831999	1478151065779	1478151065875	i	73
449391	4841118	I was a bit rusty but I didn't want to miss the elections back home.	I was a bit rusty but I didn't want to miss the elections back home.	229832003	1478151065939	1478151065995	d	68
449391	4841118	I was a bit rusty but I didn't want to miss the elections back home.	I was a bit rusty but I didn't want to miss the elections back home.	229832007	1478151066244	1478151066307	n	78
449391	4841118	I was a bit rusty but I didn't want to miss the elections back home.	I was a bit rusty but I didn't want to miss the elections back home.	229832010	1478151066728	1478151066803	'	222
449391	4841118	I was a bit rusty but I didn't want to miss the elections back home.	I was a bit rusty but I didn't want to miss the elections back home.	229832087	1478151066844	1478151066899	t	84
449391	4841118	I was a bit rusty but I didn't want to miss the elections back home.	I was a bit rusty but I didn't want to miss the elections back home.	229832090	1478151066956	1478151067019	 	32
449391	4841118	I was a bit rusty but I didn't want to miss the elections back home.	I was a bit rusty but I didn't want to miss the elections back home.	229832093	1478151068412	1478151068499	w	87
449391	4841118	I was a bit rusty but I didn't want to miss the elections back home.	I was a bit rusty but I didn't want to miss the elections back home.	229832095	1478151068668	1478151068819	a	65
449391	4841118	I was a bit rusty but I didn't want to miss the elections back home.	I was a bit rusty but I didn't want to miss the elections back home.	229832098	1478151069308	1478151069364	n	78
449391	4841118	I was a bit rusty but I didn't want to miss the elections back home.	I was a bit rusty but I didn't want to miss the elections back home.	229832173	1478151069404	1478151069451	t	84
449391	4841118	I was a bit rusty but I didn't want to miss the elections back home.	I was a bit rusty but I didn't want to miss the elections back home.	229832176	1478151069524	1478151069595	 	32
449391	4841118	I was a bit rusty but I didn't want to miss the elections back home.	I was a bit rusty but I didn't want to miss the elections back home.	229832179	1478151070516	1478151070571	t	84
449391	4841118	I was a bit rusty but I didn't want to miss the elections back home.	I was a bit rusty but I didn't want to miss the elections back home.	229832181	1478151070588	1478151070659	o	79
449391	4841118	I was a bit rusty but I didn't want to miss the elections back home.	I was a bit rusty but I didn't want to miss the elections back home.	229832186	1478151070788	1478151070867	 	32
449391	4841118	I was a bit rusty but I didn't want to miss the elections back home.	I was a bit rusty but I didn't want to miss the elections back home.	229832257	1478151071788	1478151071923	m	77
449391	4841118	I was a bit rusty but I didn't want to miss the elections back home.	I was a bit rusty but I didn't want to miss the elections back home.	229832259	1478151071908	1478151072011	i	73
449391	4841118	I was a bit rusty but I didn't want to miss the elections back home.	I was a bit rusty but I didn't want to miss the elections back home.	229832264	1478151072075	1478151072123	s	83
449391	4841118	I was a bit rusty but I didn't want to miss the elections back home.	I was a bit rusty but I didn't want to miss the elections back home.	229832268	1478151072204	1478151072267	s	83
449391	4841118	I was a bit rusty but I didn't want to miss the elections back home.	I was a bit rusty but I didn't want to miss the elections back home.	229832270	1478151072388	1478151072459	 	32
449391	4841118	I was a bit rusty but I didn't want to miss the elections back home.	I was a bit rusty but I didn't want to miss the elections back home.	229832388	1478151073532	1478151073579	t	84
449391	4841118	I was a bit rusty but I didn't want to miss the elections back home.	I was a bit rusty but I didn't want to miss the elections back home.	229832390	1478151073636	1478151073707	h	72
449391	4841118	I was a bit rusty but I didn't want to miss the elections back home.	I was a bit rusty but I didn't want to miss the elections back home.	229832396	1478151073860	1478151073939	e	69
449391	4841118	I was a bit rusty but I didn't want to miss the elections back home.	I was a bit rusty but I didn't want to miss the elections back home.	229832400	1478151074508	1478151074579	 	32
449391	4841118	I was a bit rusty but I didn't want to miss the elections back home.	I was a bit rusty but I didn't want to miss the elections back home.	229832404	1478151076092	1478151076147	e	69
449391	4841118	I was a bit rusty but I didn't want to miss the elections back home.	I was a bit rusty but I didn't want to miss the elections back home.	229832447	1478151076212	1478151076275	l	76
449391	4841118	I was a bit rusty but I didn't want to miss the elections back home.	I was a bit rusty but I didn't want to miss the elections back home.	229832449	1478151076340	1478151076403	e	69
449391	4841118	I was a bit rusty but I didn't want to miss the elections back home.	I was a bit rusty but I didn't want to miss the elections back home.	229832451	1478151076980	1478151077043	c	67
449391	4841118	I was a bit rusty but I didn't want to miss the elections back home.	I was a bit rusty but I didn't want to miss the elections back home.	229832453	1478151077436	1478151077491	t	84
449391	4841118	I was a bit rusty but I didn't want to miss the elections back home.	I was a bit rusty but I didn't want to miss the elections back home.	229832455	1478151077540	1478151077587	i	73
449391	4841118	I was a bit rusty but I didn't want to miss the elections back home.	I was a bit rusty but I didn't want to miss the elections back home.	229832501	1478151077668	1478151077747	o	79
449391	4841118	I was a bit rusty but I didn't want to miss the elections back home.	I was a bit rusty but I didn't want to miss the elections back home.	229832503	1478151077948	1478151078011	n	78
449391	4841118	I was a bit rusty but I didn't want to miss the elections back home.	I was a bit rusty but I didn't want to miss the elections back home.	229832506	1478151078052	1478151078115	s	83
449391	4841118	I was a bit rusty but I didn't want to miss the elections back home.	I was a bit rusty but I didn't want to miss the elections back home.	229832509	1478151078236	1478151078291	 	32
449391	4841118	I was a bit rusty but I didn't want to miss the elections back home.	I was a bit rusty but I didn't want to miss the elections back home.	229832511	1478151078748	1478151078803	b	66
449391	4841118	I was a bit rusty but I didn't want to miss the elections back home.	I was a bit rusty but I didn't want to miss the elections back home.	229832527	1478151078836	1478151078915	a	65
449391	4841118	I was a bit rusty but I didn't want to miss the elections back home.	I was a bit rusty but I didn't want to miss the elections back home.	229832528	1478151079060	1478151079123	c	67
449391	4841118	I was a bit rusty but I didn't want to miss the elections back home.	I was a bit rusty but I didn't want to miss the elections back home.	229832530	1478151079188	1478151079259	k	75
449391	4841118	I was a bit rusty but I didn't want to miss the elections back home.	I was a bit rusty but I didn't want to miss the elections back home.	229832532	1478151079404	1478151079467	 	32
449391	4841118	I was a bit rusty but I didn't want to miss the elections back home.	I was a bit rusty but I didn't want to miss the elections back home.	229832534	1478151079724	1478151079771	h	72
449391	4841118	I was a bit rusty but I didn't want to miss the elections back home.	I was a bit rusty but I didn't want to miss the elections back home.	229832607	1478151079828	1478151079923	o	79
449391	4841118	I was a bit rusty but I didn't want to miss the elections back home.	I was a bit rusty but I didn't want to miss the elections back home.	229832609	1478151079980	1478151080075	m	77
449391	4841118	I was a bit rusty but I didn't want to miss the elections back home.	I was a bit rusty but I didn't want to miss the elections back home.	229832613	1478151080212	1478151080275	e	69
449391	4841118	I was a bit rusty but I didn't want to miss the elections back home.	I was a bit rusty but I didn't want to miss the elections back home.	229832616	1478151081220	1478151081275	.	190
449391	4841154	We will keep trying.	We will keep trying.	229832858	1478151085435	1478151085707	SHIFT	16
449391	4841154	We will keep trying.	We will keep trying.	229832862	1478151085684	1478151085763	W	87
449391	4841154	We will keep trying.	We will keep trying.	229832865	1478151085916	1478151085971	e	69
449391	4841154	We will keep trying.	We will keep trying.	229832868	1478151086108	1478151086179	 	32
449391	4841154	We will keep trying.	We will keep trying.	229832871	1478151086452	1478151086515	w	87
449391	4841154	We will keep trying.	We will keep trying.	229832874	1478151086548	1478151086627	i	73
449391	4841154	We will keep trying.	We will keep trying.	229832963	1478151086772	1478151086827	l	76
449391	4841154	We will keep trying.	We will keep trying.	229832965	1478151086868	1478151086939	l	76
449391	4841154	We will keep trying.	We will keep trying.	229832967	1478151087148	1478151087219	 	32
449391	4841154	We will keep trying.	We will keep trying.	229832969	1478151088404	1478151088459	k	75
449391	4841154	We will keep trying.	We will keep trying.	229832971	1478151088532	1478151088579	e	69
449391	4841154	We will keep trying.	We will keep trying.	229833039	1478151088668	1478151088731	e	69
449391	4841154	We will keep trying.	We will keep trying.	229833044	1478151088852	1478151088915	p	80
449391	4841154	We will keep trying.	We will keep trying.	229833049	1478151089084	1478151089139	 	32
449391	4841154	We will keep trying.	We will keep trying.	229833053	1478151089572	1478151089627	t	84
449391	4841154	We will keep trying.	We will keep trying.	229833056	1478151089724	1478151089803	r	82
449391	4841154	We will keep trying.	We will keep trying.	229833146	1478151091076	1478151091139	y	89
449391	4841154	We will keep trying.	We will keep trying.	229833148	1478151091892	1478151091955	i	73
449391	4841154	We will keep trying.	We will keep trying.	229833150	1478151091972	1478151092027	n	78
449391	4841154	We will keep trying.	We will keep trying.	229833152	1478151092132	1478151092195	g	71
449391	4841154	We will keep trying.	We will keep trying.	229833153	1478151092764	1478151092827	.	190
449391	4841165	Our schedule now calls for critical communication in the afternoons.	Our schedule now calls for critical communication in the afternoons.	229833318	1478151095987	1478151096251	SHIFT	16
449391	4841165	Our schedule now calls for critical communication in the afternoons.	Our schedule now calls for critical communication in the afternoons.	229833316	1478151096108	1478151096219	O	79
449391	4841165	Our schedule now calls for critical communication in the afternoons.	Our schedule now calls for critical communication in the afternoons.	229833319	1478151096460	1478151096555	u	85
449391	4841165	Our schedule now calls for critical communication in the afternoons.	Our schedule now calls for critical communication in the afternoons.	229833322	1478151096604	1478151096667	r	82
449391	4841165	Our schedule now calls for critical communication in the afternoons.	Our schedule now calls for critical communication in the afternoons.	229833326	1478151096724	1478151096795	 	32
449391	4841165	Our schedule now calls for critical communication in the afternoons.	Our schedule now calls for critical communication in the afternoons.	229833329	1478151097340	1478151097435	s	83
449391	4841165	Our schedule now calls for critical communication in the afternoons.	Our schedule now calls for critical communication in the afternoons.	229833378	1478151097444	1478151097507	c	67
449391	4841165	Our schedule now calls for critical communication in the afternoons.	Our schedule now calls for critical communication in the afternoons.	229833383	1478151097596	1478151097667	h	72
449391	4841165	Our schedule now calls for critical communication in the afternoons.	Our schedule now calls for critical communication in the afternoons.	229833387	1478151097900	1478151097956	e	69
449391	4841165	Our schedule now calls for critical communication in the afternoons.	Our schedule now calls for critical communication in the afternoons.	229833390	1478151098404	1478151098459	d	68
449391	4841165	Our schedule now calls for critical communication in the afternoons.	Our schedule now calls for critical communication in the afternoons.	229833394	1478151098492	1478151098563	u	85
449391	4841165	Our schedule now calls for critical communication in the afternoons.	Our schedule now calls for critical communication in the afternoons.	229833496	1478151098772	1478151098851	l	76
449391	4841165	Our schedule now calls for critical communication in the afternoons.	Our schedule now calls for critical communication in the afternoons.	229833498	1478151098892	1478151098947	e	69
449391	4841165	Our schedule now calls for critical communication in the afternoons.	Our schedule now calls for critical communication in the afternoons.	229833500	1478151099036	1478151099099	 	32
449391	4841165	Our schedule now calls for critical communication in the afternoons.	Our schedule now calls for critical communication in the afternoons.	229833501	1478151100556	1478151100643	n	78
449391	4841165	Our schedule now calls for critical communication in the afternoons.	Our schedule now calls for critical communication in the afternoons.	229833502	1478151100652	1478151100763	o	79
449391	4841165	Our schedule now calls for critical communication in the afternoons.	Our schedule now calls for critical communication in the afternoons.	229833612	1478151100772	1478151100827	w	87
449391	4841165	Our schedule now calls for critical communication in the afternoons.	Our schedule now calls for critical communication in the afternoons.	229833615	1478151100900	1478151100971	 	32
449391	4841165	Our schedule now calls for critical communication in the afternoons.	Our schedule now calls for critical communication in the afternoons.	229833617	1478151102804	1478151102876	c	67
449391	4841165	Our schedule now calls for critical communication in the afternoons.	Our schedule now calls for critical communication in the afternoons.	229833620	1478151102900	1478151103011	a	65
449391	4841165	Our schedule now calls for critical communication in the afternoons.	Our schedule now calls for critical communication in the afternoons.	229833621	1478151103364	1478151103419	l	76
449391	4841165	Our schedule now calls for critical communication in the afternoons.	Our schedule now calls for critical communication in the afternoons.	229833645	1478151103492	1478151103555	l	76
449391	4841165	Our schedule now calls for critical communication in the afternoons.	Our schedule now calls for critical communication in the afternoons.	229833646	1478151103628	1478151103691	s	83
449391	4841165	Our schedule now calls for critical communication in the afternoons.	Our schedule now calls for critical communication in the afternoons.	229833647	1478151103780	1478151103843	 	32
449391	4841165	Our schedule now calls for critical communication in the afternoons.	Our schedule now calls for critical communication in the afternoons.	229833648	1478151104236	1478151104283	f	70
449391	4841165	Our schedule now calls for critical communication in the afternoons.	Our schedule now calls for critical communication in the afternoons.	229833650	1478151104324	1478151104403	o	79
449391	4841165	Our schedule now calls for critical communication in the afternoons.	Our schedule now calls for critical communication in the afternoons.	229833752	1478151104460	1478151104523	r	82
449391	4841165	Our schedule now calls for critical communication in the afternoons.	Our schedule now calls for critical communication in the afternoons.	229833757	1478151104572	1478151104643	 	32
449391	4841165	Our schedule now calls for critical communication in the afternoons.	Our schedule now calls for critical communication in the afternoons.	229833763	1478151106324	1478151106428	c	67
449391	4841165	Our schedule now calls for critical communication in the afternoons.	Our schedule now calls for critical communication in the afternoons.	229833771	1478151106876	1478151106939	r	82
449391	4841165	Our schedule now calls for critical communication in the afternoons.	Our schedule now calls for critical communication in the afternoons.	229833778	1478151106988	1478151107067	i	73
449391	4841165	Our schedule now calls for critical communication in the afternoons.	Our schedule now calls for critical communication in the afternoons.	229833821	1478151107236	1478151107300	t	84
449391	4841165	Our schedule now calls for critical communication in the afternoons.	Our schedule now calls for critical communication in the afternoons.	229833823	1478151107308	1478151107388	i	73
449391	4841165	Our schedule now calls for critical communication in the afternoons.	Our schedule now calls for critical communication in the afternoons.	229833826	1478151107644	1478151107731	c	67
449391	4841165	Our schedule now calls for critical communication in the afternoons.	Our schedule now calls for critical communication in the afternoons.	229833829	1478151107940	1478151108003	a	65
449391	4841165	Our schedule now calls for critical communication in the afternoons.	Our schedule now calls for critical communication in the afternoons.	229833833	1478151108044	1478151108147	l	76
449391	4841165	Our schedule now calls for critical communication in the afternoons.	Our schedule now calls for critical communication in the afternoons.	229833942	1478151108636	1478151108699	 	32
449391	4841165	Our schedule now calls for critical communication in the afternoons.	Our schedule now calls for critical communication in the afternoons.	229833945	1478151110044	1478151110091	c	67
449391	4841165	Our schedule now calls for critical communication in the afternoons.	Our schedule now calls for critical communication in the afternoons.	229833946	1478151110172	1478151110251	o	79
449391	4841165	Our schedule now calls for critical communication in the afternoons.	Our schedule now calls for critical communication in the afternoons.	229833947	1478151110436	1478151110491	m	77
449391	4841165	Our schedule now calls for critical communication in the afternoons.	Our schedule now calls for critical communication in the afternoons.	229833948	1478151110556	1478151110627	m	77
449391	4841165	Our schedule now calls for critical communication in the afternoons.	Our schedule now calls for critical communication in the afternoons.	229834032	1478151110788	1478151110868	u	85
449391	4841165	Our schedule now calls for critical communication in the afternoons.	Our schedule now calls for critical communication in the afternoons.	229834034	1478151111236	1478151111372	n	78
449391	4841165	Our schedule now calls for critical communication in the afternoons.	Our schedule now calls for critical communication in the afternoons.	229834038	1478151111356	1478151111467	i	73
449391	4841165	Our schedule now calls for critical communication in the afternoons.	Our schedule now calls for critical communication in the afternoons.	229834039	1478151112028	1478151112124	c	67
449391	4841165	Our schedule now calls for critical communication in the afternoons.	Our schedule now calls for critical communication in the afternoons.	229834041	1478151112156	1478151112255	a	65
449391	4841165	Our schedule now calls for critical communication in the afternoons.	Our schedule now calls for critical communication in the afternoons.	229834066	1478151112548	1478151112595	t	84
449391	4841165	Our schedule now calls for critical communication in the afternoons.	Our schedule now calls for critical communication in the afternoons.	229834069	1478151112652	1478151112716	i	73
449391	4841165	Our schedule now calls for critical communication in the afternoons.	Our schedule now calls for critical communication in the afternoons.	229834071	1478151112788	1478151112876	o	79
449391	4841165	Our schedule now calls for critical communication in the afternoons.	Our schedule now calls for critical communication in the afternoons.	229834073	1478151112884	1478151112940	n	78
449391	4841165	Our schedule now calls for critical communication in the afternoons.	Our schedule now calls for critical communication in the afternoons.	229834075	1478151113252	1478151113316	 	32
449391	4841165	Our schedule now calls for critical communication in the afternoons.	Our schedule now calls for critical communication in the afternoons.	229834248	1478151115172	1478151115395	i	73
449391	4841165	Our schedule now calls for critical communication in the afternoons.	Our schedule now calls for critical communication in the afternoons.	229834251	1478151115380	1478151115475	n	78
449391	4841165	Our schedule now calls for critical communication in the afternoons.	Our schedule now calls for critical communication in the afternoons.	229834254	1478151115612	1478151115684	 	32
449391	4841165	Our schedule now calls for critical communication in the afternoons.	Our schedule now calls for critical communication in the afternoons.	229834256	1478151117420	1478151117476	t	84
449391	4841165	Our schedule now calls for critical communication in the afternoons.	Our schedule now calls for critical communication in the afternoons.	229834258	1478151117492	1478151117556	h	72
449391	4841165	Our schedule now calls for critical communication in the afternoons.	Our schedule now calls for critical communication in the afternoons.	229834310	1478151117660	1478151117700	e	69
449391	4841165	Our schedule now calls for critical communication in the afternoons.	Our schedule now calls for critical communication in the afternoons.	229834313	1478151117764	1478151117836	 	32
449391	4841165	Our schedule now calls for critical communication in the afternoons.	Our schedule now calls for critical communication in the afternoons.	229834315	1478151118500	1478151118636	a	65
449391	4841165	Our schedule now calls for critical communication in the afternoons.	Our schedule now calls for critical communication in the afternoons.	229834319	1478151118668	1478151118732	f	70
449391	4841165	Our schedule now calls for critical communication in the afternoons.	Our schedule now calls for critical communication in the afternoons.	229834322	1478151118948	1478151119004	t	84
449391	4841165	Our schedule now calls for critical communication in the afternoons.	Our schedule now calls for critical communication in the afternoons.	229834363	1478151119060	1478151119116	e	69
449391	4841165	Our schedule now calls for critical communication in the afternoons.	Our schedule now calls for critical communication in the afternoons.	229834366	1478151119204	1478151119284	r	82
449391	4841165	Our schedule now calls for critical communication in the afternoons.	Our schedule now calls for critical communication in the afternoons.	229834370	1478151119612	1478151119684	n	78
449391	4841165	Our schedule now calls for critical communication in the afternoons.	Our schedule now calls for critical communication in the afternoons.	229834375	1478151119828	1478151119916	o	79
449391	4841165	Our schedule now calls for critical communication in the afternoons.	Our schedule now calls for critical communication in the afternoons.	229834378	1478151119932	1478151120028	o	79
449391	4841165	Our schedule now calls for critical communication in the afternoons.	Our schedule now calls for critical communication in the afternoons.	229834521	1478151120156	1478151120316	o	79
449391	4841165	Our schedule now calls for critical communication in the afternoons.	Our schedule now calls for critical communication in the afternoons.	229834524	1478151120484	1478151120556	n	78
449391	4841165	Our schedule now calls for critical communication in the afternoons.	Our schedule now calls for critical communication in the afternoons.	229834527	1478151120644	1478151120732	d	68
449391	4841165	Our schedule now calls for critical communication in the afternoons.	Our schedule now calls for critical communication in the afternoons.	229834528	1478151121308	1478151121428	BKSP	8
449391	4841165	Our schedule now calls for critical communication in the afternoons.	Our schedule now calls for critical communication in the afternoons.	229834529	1478151121492	1478151121532	s	83
449391	4841165	Our schedule now calls for critical communication in the afternoons.	Our schedule now calls for critical communication in the afternoons.	229834530	1478151122004	1478151122076	BKSP	8
449391	4841165	Our schedule now calls for critical communication in the afternoons.	Our schedule now calls for critical communication in the afternoons.	229834531	1478151122164	1478151122204	BKSP	8
449391	4841165	Our schedule now calls for critical communication in the afternoons.	Our schedule now calls for critical communication in the afternoons.	229834532	1478151122292	1478151122339	BKSP	8
449391	4841165	Our schedule now calls for critical communication in the afternoons.	Our schedule now calls for critical communication in the afternoons.	229834534	1478151123788	1478151123852	n	78
449391	4841165	Our schedule now calls for critical communication in the afternoons.	Our schedule now calls for critical communication in the afternoons.	229834535	1478151123900	1478151123948	s	83
449391	4841165	Our schedule now calls for critical communication in the afternoons.	Our schedule now calls for critical communication in the afternoons.	229834539	1478151124268	1478151124332	.	190
449391	4841192	Ruth, here is an estimated November purchase.	Ruth, here is an estimated November purchase.	229834809	1478151128516	1478151128908	SHIFT	16
449391	4841192	Ruth, here is an estimated November purchase.	Ruth, here is an estimated November purchase.	229834811	1478151128868	1478151128963	R	82
449391	4841192	Ruth, here is an estimated November purchase.	Ruth, here is an estimated November purchase.	229834813	1478151129172	1478151129236	u	85
449391	4841192	Ruth, here is an estimated November purchase.	Ruth, here is an estimated November purchase.	229834814	1478151129372	1478151129428	t	84
449391	4841192	Ruth, here is an estimated November purchase.	Ruth, here is an estimated November purchase.	229834816	1478151129476	1478151129548	h	72
449391	4841192	Ruth, here is an estimated November purchase.	Ruth, here is an estimated November purchase.	229834819	1478151130196	1478151130252	,	188
449391	4841192	Ruth, here is an estimated November purchase.	Ruth, here is an estimated November purchase.	229834906	1478151130348	1478151130420	 	32
449391	4841192	Ruth, here is an estimated November purchase.	Ruth, here is an estimated November purchase.	229834908	1478151131795	1478151131876	h	72
449391	4841192	Ruth, here is an estimated November purchase.	Ruth, here is an estimated November purchase.	229834910	1478151131940	1478151132004	e	69
449391	4841192	Ruth, here is an estimated November purchase.	Ruth, here is an estimated November purchase.	229834912	1478151132108	1478151132164	r	82
449391	4841192	Ruth, here is an estimated November purchase.	Ruth, here is an estimated November purchase.	229834914	1478151132260	1478151132340	e	69
449391	4841192	Ruth, here is an estimated November purchase.	Ruth, here is an estimated November purchase.	229835101	1478151132956	1478151133020	'	222
449391	4841192	Ruth, here is an estimated November purchase.	Ruth, here is an estimated November purchase.	229835104	1478151133052	1478151133116	s	83
449391	4841192	Ruth, here is an estimated November purchase.	Ruth, here is an estimated November purchase.	229835105	1478151133204	1478151133252	 	32
449391	4841192	Ruth, here is an estimated November purchase.	Ruth, here is an estimated November purchase.	229835107	1478151134388	1478151134476	BKSP	8
449391	4841192	Ruth, here is an estimated November purchase.	Ruth, here is an estimated November purchase.	229835109	1478151134572	1478151134644	BKSP	8
449391	4841192	Ruth, here is an estimated November purchase.	Ruth, here is an estimated November purchase.	229835111	1478151134780	1478151134844	BKSP	8
449391	4841192	Ruth, here is an estimated November purchase.	Ruth, here is an estimated November purchase.	229835114	1478151135372	1478151135428	 	32
449391	4841192	Ruth, here is an estimated November purchase.	Ruth, here is an estimated November purchase.	229835118	1478151136500	1478151136572	i	73
449391	4841192	Ruth, here is an estimated November purchase.	Ruth, here is an estimated November purchase.	229835138	1478151136636	1478151136692	s	83
449391	4841192	Ruth, here is an estimated November purchase.	Ruth, here is an estimated November purchase.	229835141	1478151136772	1478151136844	 	32
449391	4841192	Ruth, here is an estimated November purchase.	Ruth, here is an estimated November purchase.	229835143	1478151137036	1478151137092	a	65
449391	4841192	Ruth, here is an estimated November purchase.	Ruth, here is an estimated November purchase.	229835146	1478151137132	1478151137196	n	78
449391	4841192	Ruth, here is an estimated November purchase.	Ruth, here is an estimated November purchase.	229835149	1478151137332	1478151137396	 	32
449391	4841192	Ruth, here is an estimated November purchase.	Ruth, here is an estimated November purchase.	229835227	1478151138996	1478151139060	e	69
449391	4841192	Ruth, here is an estimated November purchase.	Ruth, here is an estimated November purchase.	229835230	1478151139156	1478151139284	s	83
449391	4841192	Ruth, here is an estimated November purchase.	Ruth, here is an estimated November purchase.	229835234	1478151139628	1478151139692	t	84
449391	4841192	Ruth, here is an estimated November purchase.	Ruth, here is an estimated November purchase.	229835238	1478151139748	1478151139820	i	73
449391	4841192	Ruth, here is an estimated November purchase.	Ruth, here is an estimated November purchase.	229835242	1478151140124	1478151140188	m	77
449391	4841192	Ruth, here is an estimated November purchase.	Ruth, here is an estimated November purchase.	229835262	1478151140228	1478151140324	a	65
449391	4841192	Ruth, here is an estimated November purchase.	Ruth, here is an estimated November purchase.	229835266	1478151140500	1478151140572	t	84
449391	4841192	Ruth, here is an estimated November purchase.	Ruth, here is an estimated November purchase.	229835269	1478151140628	1478151140684	e	69
449391	4841192	Ruth, here is an estimated November purchase.	Ruth, here is an estimated November purchase.	229835271	1478151140772	1478151140852	d	68
449391	4841192	Ruth, here is an estimated November purchase.	Ruth, here is an estimated November purchase.	229835273	1478151140932	1478151140996	 	32
449391	4841192	Ruth, here is an estimated November purchase.	Ruth, here is an estimated November purchase.	229835428	1478151142196	1478151142484	SHIFT	16
449391	4841192	Ruth, here is an estimated November purchase.	Ruth, here is an estimated November purchase.	229835426	1478151142348	1478151142412	N	78
449391	4841192	Ruth, here is an estimated November purchase.	Ruth, here is an estimated November purchase.	229835431	1478151142572	1478151142668	o	79
449391	4841192	Ruth, here is an estimated November purchase.	Ruth, here is an estimated November purchase.	229835434	1478151143020	1478151143108	v	86
449391	4841192	Ruth, here is an estimated November purchase.	Ruth, here is an estimated November purchase.	229835437	1478151143324	1478151143444	e	69
449391	4841192	Ruth, here is an estimated November purchase.	Ruth, here is an estimated November purchase.	229835441	1478151143732	1478151143804	m	77
449391	4841192	Ruth, here is an estimated November purchase.	Ruth, here is an estimated November purchase.	229835576	1478151144244	1478151144316	b	66
449391	4841192	Ruth, here is an estimated November purchase.	Ruth, here is an estimated November purchase.	229835582	1478151144428	1478151144516	e	69
449391	4841192	Ruth, here is an estimated November purchase.	Ruth, here is an estimated November purchase.	229835587	1478151144476	1478151144579	r	82
449391	4841192	Ruth, here is an estimated November purchase.	Ruth, here is an estimated November purchase.	229835592	1478151144852	1478151144916	 	32
449391	4841192	Ruth, here is an estimated November purchase.	Ruth, here is an estimated November purchase.	229835596	1478151146644	1478151146764	p	80
449391	4841192	Ruth, here is an estimated November purchase.	Ruth, here is an estimated November purchase.	229835664	1478151146924	1478151146988	u	85
449391	4841192	Ruth, here is an estimated November purchase.	Ruth, here is an estimated November purchase.	229835666	1478151147412	1478151147484	r	82
449391	4841192	Ruth, here is an estimated November purchase.	Ruth, here is an estimated November purchase.	229835670	1478151147868	1478151147916	c	67
449391	4841192	Ruth, here is an estimated November purchase.	Ruth, here is an estimated November purchase.	229835675	1478151147948	1478151148004	h	72
449391	4841192	Ruth, here is an estimated November purchase.	Ruth, here is an estimated November purchase.	229835680	1478151148132	1478151148220	a	65
449391	4841192	Ruth, here is an estimated November purchase.	Ruth, here is an estimated November purchase.	229835720	1478151148340	1478151148404	s	83
449391	4841192	Ruth, here is an estimated November purchase.	Ruth, here is an estimated November purchase.	229835723	1478151148508	1478151148580	e	69
449391	4841192	Ruth, here is an estimated November purchase.	Ruth, here is an estimated November purchase.	229835725	1478151149052	1478151149116	.	190
449391	4841218	Are you on the diet with me?	Are you on the diet with me?	229836022	1478151153588	1478151154172	SHIFT	16
449391	4841218	Are you on the diet with me?	Are you on the diet with me?	229836025	1478151154124	1478151154212	A	65
449391	4841218	Are you on the diet with me?	Are you on the diet with me?	229836031	1478151154548	1478151154628	r	82
449391	4841218	Are you on the diet with me?	Are you on the diet with me?	229836041	1478151154644	1478151154732	e	69
449391	4841218	Are you on the diet with me?	Are you on the diet with me?	229836048	1478151154844	1478151154908	 	32
449391	4841218	Are you on the diet with me?	Are you on the diet with me?	229836052	1478151155308	1478151155356	y	89
449391	4841218	Are you on the diet with me?	Are you on the diet with me?	229836087	1478151155396	1478151155460	o	79
449391	4841218	Are you on the diet with me?	Are you on the diet with me?	229836089	1478151155500	1478151155548	u	85
449391	4841218	Are you on the diet with me?	Are you on the diet with me?	229836092	1478151155620	1478151155660	 	32
449391	4841218	Are you on the diet with me?	Are you on the diet with me?	229836096	1478151156108	1478151156244	o	79
449391	4841218	Are you on the diet with me?	Are you on the diet with me?	229836163	1478151156212	1478151156300	n	78
449391	4841218	Are you on the diet with me?	Are you on the diet with me?	229836165	1478151156388	1478151156468	 	32
449391	4841218	Are you on the diet with me?	Are you on the diet with me?	229836167	1478151156564	1478151156628	a	65
449391	4841218	Are you on the diet with me?	Are you on the diet with me?	229836169	1478151156724	1478151156788	 	32
449391	4841218	Are you on the diet with me?	Are you on the diet with me?	229836171	1478151157196	1478151157236	d	68
449391	4841218	Are you on the diet with me?	Are you on the diet with me?	229836174	1478151157284	1478151157372	i	73
449391	4841218	Are you on the diet with me?	Are you on the diet with me?	229836510	1478151158756	1478151158828	e	69
449391	4841218	Are you on the diet with me?	Are you on the diet with me?	229836513	1478151158956	1478151159020	r	82
449391	4841218	Are you on the diet with me?	Are you on the diet with me?	229836516	1478151159604	1478151159724	BKSP	8
449391	4841218	Are you on the diet with me?	Are you on the diet with me?	229836522	1478151159804	1478151159916	t	84
449391	4841218	Are you on the diet with me?	Are you on the diet with me?	229836527	1478151160612	1478151160692	 	32
449391	4841218	Are you on the diet with me?	Are you on the diet with me?	229836531	1478151161660	1478151161724	BKSP	8
449391	4841218	Are you on the diet with me?	Are you on the diet with me?	229836535	1478151161836	1478151161852	BKSP	8
449391	4841218	Are you on the diet with me?	Are you on the diet with me?	229836539	1478151161932	1478151161972	BKSP	8
449391	4841218	Are you on the diet with me?	Are you on the diet with me?	229836541	1478151162132	1478151162156	BKSP	8
449391	4841218	Are you on the diet with me?	Are you on the diet with me?	229836544	1478151162228	1478151162260	BKSP	8
449391	4841218	Are you on the diet with me?	Are you on the diet with me?	229836546	1478151162308	1478151162364	BKSP	8
449391	4841218	Are you on the diet with me?	Are you on the diet with me?	229836550	1478151162588	1478151162652	BKSP	8
449391	4841218	Are you on the diet with me?	Are you on the diet with me?	229836555	1478151163516	1478151163572	t	84
449391	4841218	Are you on the diet with me?	Are you on the diet with me?	229836566	1478151163596	1478151163660	h	72
449391	4841218	Are you on the diet with me?	Are you on the diet with me?	229836568	1478151163724	1478151163780	e	69
449391	4841218	Are you on the diet with me?	Are you on the diet with me?	229836572	1478151163828	1478151163892	 	32
449391	4841218	Are you on the diet with me?	Are you on the diet with me?	229836578	1478151164516	1478151164564	d	68
449391	4841218	Are you on the diet with me?	Are you on the diet with me?	229836585	1478151164588	1478151164668	i	73
449391	4841218	Are you on the diet with me?	Are you on the diet with me?	229836641	1478151164876	1478151164932	e	69
449391	4841218	Are you on the diet with me?	Are you on the diet with me?	229836644	1478151165124	1478151165172	t	84
449391	4841218	Are you on the diet with me?	Are you on the diet with me?	229836647	1478151165300	1478151165364	 	32
449391	4841218	Are you on the diet with me?	Are you on the diet with me?	229836650	1478151165732	1478151165772	w	87
449391	4841218	Are you on the diet with me?	Are you on the diet with me?	229836653	1478151165788	1478151165868	i	73
449391	4841218	Are you on the diet with me?	Are you on the diet with me?	229836702	1478151165965	1478151166020	t	84
449391	4841218	Are you on the diet with me?	Are you on the diet with me?	229836705	1478151166028	1478151166092	h	72
449391	4841218	Are you on the diet with me?	Are you on the diet with me?	229836706	1478151166252	1478151166324	 	32
449391	4841218	Are you on the diet with me?	Are you on the diet with me?	229836707	1478151166572	1478151166636	m	77
449391	4841218	Are you on the diet with me?	Are you on the diet with me?	229836709	1478151166684	1478151166752	e	69
449391	4841218	Are you on the diet with me?	Are you on the diet with me?	229836737	1478151167060	1478151167380	SHIFT	16
449391	4841218	Are you on the diet with me?	Are you on the diet with me?	229836734	1478151167244	1478151167292	?	191
449391	4841238	And I can't turn my phone on.	And I can't turn my phone on.	229837044	1478151171220	1478151171468	SHIFT	16
449391	4841238	And I can't turn my phone on.	And I can't turn my phone on.	229837047	1478151171396	1478151171476	A	65
449391	4841238	And I can't turn my phone on.	And I can't turn my phone on.	229837051	1478151171556	1478151172420	SHIFT	16
449391	4841238	And I can't turn my phone on.	And I can't turn my phone on.	229837054	1478151173381	1478151173436	n	78
449391	4841238	And I can't turn my phone on.	And I can't turn my phone on.	229837059	1478151173492	1478151173540	d	68
449391	4841238	And I can't turn my phone on.	And I can't turn my phone on.	229837063	1478151173572	1478151173628	 	32
449391	4841238	And I can't turn my phone on.	And I can't turn my phone on.	229837137	1478151174348	1478151174652	SHIFT	16
449391	4841238	And I can't turn my phone on.	And I can't turn my phone on.	229837070	1478151174477	1478151174548	I	73
449391	4841238	And I can't turn my phone on.	And I can't turn my phone on.	229837143	1478151174764	1478151174820	 	32
449391	4841238	And I can't turn my phone on.	And I can't turn my phone on.	229837148	1478151175092	1478151175164	c	67
449391	4841238	And I can't turn my phone on.	And I can't turn my phone on.	229837153	1478151175284	1478151175364	a	65
449391	4841238	And I can't turn my phone on.	And I can't turn my phone on.	229837157	1478151175420	1478151175496	n	78
449391	4841238	And I can't turn my phone on.	And I can't turn my phone on.	229837163	1478151175988	1478151176060	'	222
449391	4841238	And I can't turn my phone on.	And I can't turn my phone on.	229837288	1478151176108	1478151176164	t	84
449391	4841238	And I can't turn my phone on.	And I can't turn my phone on.	229837291	1478151176212	1478151176276	 	32
449391	4841238	And I can't turn my phone on.	And I can't turn my phone on.	229837294	1478151178109	1478151178148	t	84
449391	4841238	And I can't turn my phone on.	And I can't turn my phone on.	229837298	1478151178180	1478151178244	u	85
449391	4841238	And I can't turn my phone on.	And I can't turn my phone on.	229837301	1478151178332	1478151178388	r	82
449391	4841238	And I can't turn my phone on.	And I can't turn my phone on.	229837455	1478151178468	1478151178548	n	78
449391	4841238	And I can't turn my phone on.	And I can't turn my phone on.	229837459	1478151178740	1478151178812	 	32
449391	4841238	And I can't turn my phone on.	And I can't turn my phone on.	229837463	1478151180517	1478151180636	m	77
449391	4841238	And I can't turn my phone on.	And I can't turn my phone on.	229837469	1478151181548	1478151181604	y	89
449391	4841238	And I can't turn my phone on.	And I can't turn my phone on.	229837476	1478151181652	1478151181732	 	32
449391	4841238	And I can't turn my phone on.	And I can't turn my phone on.	229837523	1478151182124	1478151182212	p	80
449391	4841238	And I can't turn my phone on.	And I can't turn my phone on.	229837525	1478151182268	1478151182316	h	72
449391	4841238	And I can't turn my phone on.	And I can't turn my phone on.	229837528	1478151182372	1478151182444	o	79
449391	4841238	And I can't turn my phone on.	And I can't turn my phone on.	229837531	1478151182701	1478151182772	n	78
449391	4841238	And I can't turn my phone on.	And I can't turn my phone on.	229837533	1478151182828	1478151182892	e	69
449391	4841238	And I can't turn my phone on.	And I can't turn my phone on.	229837580	1478151183284	1478151183356	 	32
449391	4841238	And I can't turn my phone on.	And I can't turn my phone on.	229837582	1478151183564	1478151183721	o	79
449391	4841238	And I can't turn my phone on.	And I can't turn my phone on.	229837584	1478151183661	1478151183756	n	78
449391	4841238	And I can't turn my phone on.	And I can't turn my phone on.	229837586	1478151184276	1478151184324	.	190
449391	4841258	TXU is off, everyone else OK.	TXU is off, everyone else OK.	229838188	1478151190572	1478151190692	CTRL	17
449391	4841258	TXU is off, everyone else OK.	TXU is off, everyone else OK.	229838212	1478151191180	1478151195756	SHIFT	16
449391	4841258	TXU is off, everyone else OK.	TXU is off, everyone else OK.	229838195	1478151193221	1478151193284	T	84
449391	4841258	TXU is off, everyone else OK.	TXU is off, everyone else OK.	229838202	1478151195125	1478151195180	X	88
449391	4841258	TXU is off, everyone else OK.	TXU is off, everyone else OK.	229838207	1478151195260	1478151195324	U	85
449391	4841258	TXU is off, everyone else OK.	TXU is off, everyone else OK.	229838216	1478151195973	1478151196036	 	32
449391	4841258	TXU is off, everyone else OK.	TXU is off, everyone else OK.	229838220	1478151196941	1478151197028	i	73
449391	4841258	TXU is off, everyone else OK.	TXU is off, everyone else OK.	229838328	1478151197125	1478151197180	d	68
449391	4841258	TXU is off, everyone else OK.	TXU is off, everyone else OK.	229838330	1478151197661	1478151197740	BKSP	8
449391	4841258	TXU is off, everyone else OK.	TXU is off, everyone else OK.	229838334	1478151197812	1478151197884	s	83
449391	4841258	TXU is off, everyone else OK.	TXU is off, everyone else OK.	229838340	1478151197940	1478151197996	 	32
449391	4841258	TXU is off, everyone else OK.	TXU is off, everyone else OK.	229838346	1478151199077	1478151199148	o	79
449391	4841258	TXU is off, everyone else OK.	TXU is off, everyone else OK.	229838350	1478151199325	1478151199364	f	70
449391	4841258	TXU is off, everyone else OK.	TXU is off, everyone else OK.	229838454	1478151199461	1478151199524	f	70
449391	4841258	TXU is off, everyone else OK.	TXU is off, everyone else OK.	229838456	1478151199933	1478151199996	,	188
449391	4841258	TXU is off, everyone else OK.	TXU is off, everyone else OK.	229838461	1478151200117	1478151200180	 	32
449391	4841258	TXU is off, everyone else OK.	TXU is off, everyone else OK.	229838465	1478151201445	1478151201484	e	69
449391	4841258	TXU is off, everyone else OK.	TXU is off, everyone else OK.	229838470	1478151201524	1478151201580	v	86
449391	4841258	TXU is off, everyone else OK.	TXU is off, everyone else OK.	229838511	1478151201637	1478151201700	e	69
449391	4841258	TXU is off, everyone else OK.	TXU is off, everyone else OK.	229838512	1478151201837	1478151201892	r	82
449391	4841258	TXU is off, everyone else OK.	TXU is off, everyone else OK.	229838513	1478151201932	1478151201996	y	89
449391	4841258	TXU is off, everyone else OK.	TXU is off, everyone else OK.	229838514	1478151202581	1478151202700	o	79
449391	4841258	TXU is off, everyone else OK.	TXU is off, everyone else OK.	229838515	1478151202724	1478151202804	n	78
449391	4841258	TXU is off, everyone else OK.	TXU is off, everyone else OK.	229838543	1478151202861	1478151202916	e	69
449391	4841258	TXU is off, everyone else OK.	TXU is off, everyone else OK.	229838545	1478151203012	1478151203084	 	32
449391	4841258	TXU is off, everyone else OK.	TXU is off, everyone else OK.	229838548	1478151203413	1478151203460	e	69
449391	4841258	TXU is off, everyone else OK.	TXU is off, everyone else OK.	229838550	1478151203500	1478151203564	l	76
449391	4841258	TXU is off, everyone else OK.	TXU is off, everyone else OK.	229838553	1478151203701	1478151203764	s	83
449391	4841258	TXU is off, everyone else OK.	TXU is off, everyone else OK.	229838612	1478151203861	1478151203924	e	69
449391	4841258	TXU is off, everyone else OK.	TXU is off, everyone else OK.	229838615	1478151204100	1478151204156	 	32
449391	4841258	TXU is off, everyone else OK.	TXU is off, everyone else OK.	229838616	1478151204485	1478151204548	i	73
449391	4841258	TXU is off, everyone else OK.	TXU is off, everyone else OK.	229838618	1478151204612	1478151204652	s	83
449391	4841258	TXU is off, everyone else OK.	TXU is off, everyone else OK.	229838619	1478151204757	1478151204820	 	32
449391	4841258	TXU is off, everyone else OK.	TXU is off, everyone else OK.	229838900	1478151205525	1478151205644	o	79
449391	4841258	TXU is off, everyone else OK.	TXU is off, everyone else OK.	229838904	1478151205629	1478151205716	k	75
449391	4841258	TXU is off, everyone else OK.	TXU is off, everyone else OK.	229838908	1478151206685	1478151206756	BKSP	8
449391	4841258	TXU is off, everyone else OK.	TXU is off, everyone else OK.	229838911	1478151206828	1478151206900	BKSP	8
449391	4841258	TXU is off, everyone else OK.	TXU is off, everyone else OK.	229838914	1478151207277	1478151207340	BKSP	8
449391	4841258	TXU is off, everyone else OK.	TXU is off, everyone else OK.	229838915	1478151207428	1478151207476	BKSP	8
449391	4841258	TXU is off, everyone else OK.	TXU is off, everyone else OK.	229838916	1478151207540	1478151207596	BKSP	8
449391	4841258	TXU is off, everyone else OK.	TXU is off, everyone else OK.	229838922	1478151208140	1478151209404	SHIFT	16
449391	4841258	TXU is off, everyone else OK.	TXU is off, everyone else OK.	229838917	1478151208837	1478151208980	O	79
449391	4841258	TXU is off, everyone else OK.	TXU is off, everyone else OK.	229838919	1478151208957	1478151209068	K	75
449391	4841258	TXU is off, everyone else OK.	TXU is off, everyone else OK.	229838926	1478151209773	1478151209828	.	190
449391	4841283	Upon returning to the U.	Upon returning to the U.	229839201	1478151215260	1478151215484	SHIFT	16
449391	4841283	Upon returning to the U.	Upon returning to the U.	229839197	1478151215349	1478151215420	U	85
449391	4841283	Upon returning to the U.	Upon returning to the U.	229839205	1478151215709	1478151215837	p	80
449391	4841283	Upon returning to the U.	Upon returning to the U.	229839209	1478151215829	1478151215924	o	79
449391	4841283	Upon returning to the U.	Upon returning to the U.	229839213	1478151216117	1478151216180	n	78
449391	4841283	Upon returning to the U.	Upon returning to the U.	229839217	1478151216309	1478151216368	 	32
449391	4841283	Upon returning to the U.	Upon returning to the U.	229839350	1478151216773	1478151216836	r	82
449391	4841283	Upon returning to the U.	Upon returning to the U.	229839353	1478151216821	1478151216972	e	69
449391	4841283	Upon returning to the U.	Upon returning to the U.	229839355	1478151217253	1478151217300	t	84
449391	4841283	Upon returning to the U.	Upon returning to the U.	229839357	1478151217349	1478151217412	u	85
449391	4841283	Upon returning to the U.	Upon returning to the U.	229839360	1478151219653	1478151219708	r	82
449391	4841283	Upon returning to the U.	Upon returning to the U.	229839399	1478151219901	1478151219980	n	78
449391	4841283	Upon returning to the U.	Upon returning to the U.	229839402	1478151220133	1478151220276	i	73
449391	4841283	Upon returning to the U.	Upon returning to the U.	229839403	1478151220261	1478151220340	n	78
449391	4841283	Upon returning to the U.	Upon returning to the U.	229839404	1478151220364	1478151220420	g	71
449391	4841283	Upon returning to the U.	Upon returning to the U.	229839405	1478151220673	1478151220732	 	32
449391	4841283	Upon returning to the U.	Upon returning to the U.	229839428	1478151220941	1478151220988	t	84
449391	4841283	Upon returning to the U.	Upon returning to the U.	229839430	1478151221029	1478151221084	o	79
449391	4841283	Upon returning to the U.	Upon returning to the U.	229839433	1478151221221	1478151221292	 	32
449391	4841283	Upon returning to the U.	Upon returning to the U.	229839437	1478151221405	1478151221460	t	84
449391	4841283	Upon returning to the U.	Upon returning to the U.	229839442	1478151221501	1478151221564	h	72
449391	4841283	Upon returning to the U.	Upon returning to the U.	229839505	1478151221653	1478151221708	e	69
449391	4841283	Upon returning to the U.	Upon returning to the U.	229839508	1478151221789	1478151221860	 	32
449391	4841283	Upon returning to the U.	Upon returning to the U.	229839512	1478151222124	1478151222580	SHIFT	16
449391	4841283	Upon returning to the U.	Upon returning to the U.	229839510	1478151222237	1478151222308	U	85
449391	4841283	Upon returning to the U.	Upon returning to the U.	229839513	1478151222957	1478151223012	.	190
449391	4841296	It's not working very well.	It's not working very well.	229839778	1478151227148	1478151227340	SHIFT	16
449391	4841296	It's not working very well.	It's not working very well.	229839772	1478151227245	1478151227316	I	73
449391	4841296	It's not working very well.	It's not working very well.	229839785	1478151227637	1478151227708	t	84
449391	4841296	It's not working very well.	It's not working very well.	229839791	1478151228101	1478151228164	'	222
449391	4841296	It's not working very well.	It's not working very well.	229839798	1478151228213	1478151228276	s	83
449391	4841296	It's not working very well.	It's not working very well.	229839806	1478151228349	1478151228412	 	32
449391	4841296	It's not working very well.	It's not working very well.	229839916	1478151228853	1478151228949	n	78
449391	4841296	It's not working very well.	It's not working very well.	229839919	1478151228941	1478151229036	o	79
449391	4841296	It's not working very well.	It's not working very well.	229839926	1478151229637	1478151229716	t	84
449391	4841296	It's not working very well.	It's not working very well.	229839933	1478151230693	1478151230740	 	32
449391	4841296	It's not working very well.	It's not working very well.	229839942	1478151231837	1478151231916	w	87
449391	4841296	It's not working very well.	It's not working very well.	229840010	1478151231941	1478151232028	o	79
449391	4841296	It's not working very well.	It's not working very well.	229840015	1478151232277	1478151232332	r	82
449391	4841296	It's not working very well.	It's not working very well.	229840018	1478151232509	1478151232588	k	75
449391	4841296	It's not working very well.	It's not working very well.	229840021	1478151232989	1478151233124	i	73
449391	4841296	It's not working very well.	It's not working very well.	229840059	1478151233109	1478151233205	n	78
449391	4841296	It's not working very well.	It's not working very well.	229840063	1478151233197	1478151233252	g	71
449391	4841296	It's not working very well.	It's not working very well.	229840068	1478151233413	1478151233484	 	32
449391	4841296	It's not working very well.	It's not working very well.	229840073	1478151233813	1478151233924	w	87
449391	4841296	It's not working very well.	It's not working very well.	229840079	1478151233957	1478151234028	e	69
449391	4841296	It's not working very well.	It's not working very well.	229840085	1478151234301	1478151234356	l	76
449391	4841296	It's not working very well.	It's not working very well.	229840287	1478151234413	1478151234446	;	186
449391	4841296	It's not working very well.	It's not working very well.	229840290	1478151234443	1478151234468	l	76
449391	4841296	It's not working very well.	It's not working very well.	229840293	1478151234797	1478151234868	.	190
449391	4841296	It's not working very well.	It's not working very well.	229840296	1478151235973	1478151236012	BKSP	8
449391	4841296	It's not working very well.	It's not working very well.	229840297	1478151236165	1478151236188	BKSP	8
449391	4841296	It's not working very well.	It's not working very well.	229840299	1478151236277	1478151236324	BKSP	8
449391	4841296	It's not working very well.	It's not working very well.	229840301	1478151236413	1478151236468	BKSP	8
449391	4841296	It's not working very well.	It's not working very well.	229840303	1478151236669	1478151236724	BKSP	8
449391	4841296	It's not working very well.	It's not working very well.	229840305	1478151236805	1478151236876	BKSP	8
449391	4841296	It's not working very well.	It's not working very well.	229840307	1478151237933	1478151238020	v	86
449391	4841296	It's not working very well.	It's not working very well.	229840309	1478151238061	1478151238164	e	69
449391	4841296	It's not working very well.	It's not working very well.	229840314	1478151238309	1478151238364	r	82
449391	4841296	It's not working very well.	It's not working very well.	229840318	1478151238429	1478151238492	y	89
449391	4841296	It's not working very well.	It's not working very well.	229840322	1478151238645	1478151238724	 	32
449391	4841296	It's not working very well.	It's not working very well.	229840327	1478151239037	1478151239165	w	87
449391	4841296	It's not working very well.	It's not working very well.	229840375	1478151239157	1478151239236	e	69
449391	4841296	It's not working very well.	It's not working very well.	229840378	1478151239797	1478151239844	l	76
449391	4841296	It's not working very well.	It's not working very well.	229840384	1478151239901	1478151239972	l	76
449391	4841296	It's not working very well.	It's not working very well.	229840391	1478151240149	1478151240212	.	190
449391	4841316	I might have something at the office.	I might have something at the office.	229840711	1478151244932	1478151245180	SHIFT	16
449391	4841316	I might have something at the office.	I might have something at the office.	229840707	1478151245077	1478151245156	I	73
449391	4841316	I might have something at the office.	I might have something at the office.	229840713	1478151245309	1478151245380	 	32
449391	4841316	I might have something at the office.	I might have something at the office.	229840715	1478151245709	1478151245837	m	77
449391	4841316	I might have something at the office.	I might have something at the office.	229840716	1478151245829	1478151245932	i	73
449391	4841316	I might have something at the office.	I might have something at the office.	229840717	1478151245941	1478151245996	g	71
449391	4841316	I might have something at the office.	I might have something at the office.	229840809	1478151246045	1478151246133	h	72
449391	4841316	I might have something at the office.	I might have something at the office.	229840810	1478151246149	1478151246204	t	84
449391	4841316	I might have something at the office.	I might have something at the office.	229840812	1478151246405	1478151246468	 	32
449391	4841316	I might have something at the office.	I might have something at the office.	229840816	1478151247605	1478151247668	h	72
449391	4841316	I might have something at the office.	I might have something at the office.	229840820	1478151247749	1478151247868	a	65
449391	4841316	I might have something at the office.	I might have something at the office.	229840915	1478151248045	1478151248125	v	86
449391	4841316	I might have something at the office.	I might have something at the office.	229840919	1478151248165	1478151248228	e	69
449391	4841316	I might have something at the office.	I might have something at the office.	229840924	1478151248325	1478151248412	 	32
449391	4841316	I might have something at the office.	I might have something at the office.	229840930	1478151249669	1478151249740	s	83
449391	4841316	I might have something at the office.	I might have something at the office.	229840937	1478151249789	1478151249884	o	79
449391	4841316	I might have something at the office.	I might have something at the office.	229840975	1478151250005	1478151250092	m	77
449391	4841316	I might have something at the office.	I might have something at the office.	229840979	1478151250189	1478151250245	e	69
449391	4841316	I might have something at the office.	I might have something at the office.	229840983	1478151250517	1478151250580	t	84
449391	4841316	I might have something at the office.	I might have something at the office.	229840988	1478151250613	1478151250689	h	72
449391	4841316	I might have something at the office.	I might have something at the office.	229840992	1478151250829	1478151250908	i	73
449391	4841316	I might have something at the office.	I might have something at the office.	229841118	1478151250933	1478151250996	n	78
449391	4841316	I might have something at the office.	I might have something at the office.	229841120	1478151251117	1478151251188	g	71
449391	4841316	I might have something at the office.	I might have something at the office.	229841122	1478151251301	1478151251356	 	32
449391	4841316	I might have something at the office.	I might have something at the office.	229841125	1478151253389	1478151253540	a	65
449391	4841316	I might have something at the office.	I might have something at the office.	229841129	1478151253581	1478151253644	t	84
449391	4841316	I might have something at the office.	I might have something at the office.	229841164	1478151253805	1478151253877	 	32
449391	4841316	I might have something at the office.	I might have something at the office.	229841165	1478151254061	1478151254124	t	84
449391	4841316	I might have something at the office.	I might have something at the office.	229841166	1478151254165	1478151254228	h	72
449391	4841316	I might have something at the office.	I might have something at the office.	229841167	1478151254389	1478151254453	e	69
449391	4841316	I might have something at the office.	I might have something at the office.	229841168	1478151254525	1478151254588	 	32
449391	4841316	I might have something at the office.	I might have something at the office.	229841225	1478151255117	1478151255213	o	79
449391	4841316	I might have something at the office.	I might have something at the office.	229841227	1478151255381	1478151255436	f	70
449391	4841316	I might have something at the office.	I might have something at the office.	229841229	1478151255525	1478151255573	f	70
449391	4841316	I might have something at the office.	I might have something at the office.	229841231	1478151255629	1478151255700	i	73
449391	4841316	I might have something at the office.	I might have something at the office.	229841233	1478151255757	1478151255829	v	86
449391	4841316	I might have something at the office.	I might have something at the office.	229841396	1478151256325	1478151256397	=	187
449391	4841316	I might have something at the office.	I might have something at the office.	229841397	1478151256333	1478151256420	BKSP	8
449391	4841316	I might have something at the office.	I might have something at the office.	229841399	1478151257701	1478151257789	BKSP	8
449391	4841316	I might have something at the office.	I might have something at the office.	229841403	1478151257981	1478151258069	c	67
449391	4841316	I might have something at the office.	I might have something at the office.	229841407	1478151258197	1478151258285	e	69
449391	4841316	I might have something at the office.	I might have something at the office.	229841411	1478151259349	1478151259405	.	190
449391	4841337	I sent it to her.	I sent it to her.	229841775	1478151264381	1478151264949	SHIFT	16
449391	4841337	I sent it to her.	I sent it to her.	229841772	1478151264781	1478151264853	I	73
449391	4841337	I sent it to her.	I sent it to her.	229841782	1478151265085	1478151265133	 	32
449391	4841337	I sent it to her.	I sent it to her.	229841786	1478151265349	1478151265429	s	83
449391	4841337	I sent it to her.	I sent it to her.	229841789	1478151265661	1478151265741	e	69
449391	4841337	I sent it to her.	I sent it to her.	229841794	1478151266493	1478151266565	n	78
449391	4841337	I sent it to her.	I sent it to her.	229841885	1478151266605	1478151266669	t	84
449391	4841337	I sent it to her.	I sent it to her.	229841886	1478151268197	1478151268261	 	32
449391	4841337	I sent it to her.	I sent it to her.	229841889	1478151269077	1478151269141	i	73
449391	4841337	I sent it to her.	I sent it to her.	229841890	1478151269181	1478151269237	t	84
449391	4841337	I sent it to her.	I sent it to her.	229841892	1478151269325	1478151269389	 	32
449391	4841337	I sent it to her.	I sent it to her.	229841929	1478151269629	1478151269677	t	84
449391	4841337	I sent it to her.	I sent it to her.	229841932	1478151269685	1478151269749	o	79
449391	4841337	I sent it to her.	I sent it to her.	229841935	1478151269885	1478151269957	 	32
449391	4841337	I sent it to her.	I sent it to her.	229841938	1478151270165	1478151270237	h	72
449391	4841337	I sent it to her.	I sent it to her.	229841941	1478151270293	1478151270397	e	69
449391	4841337	I sent it to her.	I sent it to her.	229841999	1478151270405	1478151270493	r	82
449391	4841337	I sent it to her.	I sent it to her.	229842003	1478151270965	1478151271029	.	190
