PARTICIPANT_ID	TEST_SECTION_ID	SENTENCE	USER_INPUT	KEYSTROKE_ID	PRESS_TIME	RELEASE_TIME	LETTER	KEYCODE
452162	4869413	Let's wait until Monday.	Let;s wait until  Monday.	231176141	1478187310550	1478187310720	SHIFT	16
452162	4869413	Let's wait until Monday.	Let;s wait until  Monday.	231176146	1478187310660	1478187310809	L	76
452162	4869413	Let's wait until Monday.	Let;s wait until  Monday.	231176152	1478187310770	1478187310947	e	69
452162	4869413	Let's wait until Monday.	Let;s wait until  Monday.	231176155	1478187311364	1478187311440	i	73
452162	4869413	Let's wait until Monday.	Let;s wait until  Monday.	231176160	1478187311680	1478187311814	s	83
452162	4869413	Let's wait until Monday.	Let;s wait until  Monday.	231176166	1478187311864	1478187311944	'	222
452162	4869413	Let's wait until Monday.	Let;s wait until  Monday.	231176249	1478187312176	1478187312264	BKSP	8
452162	4869413	Let's wait until Monday.	Let;s wait until  Monday.	231176252	1478187312354	1478187312434	BKSP	8
452162	4869413	Let's wait until Monday.	Let;s wait until  Monday.	231176254	1478187312514	1478187312600	BKSP	8
452162	4869413	Let's wait until Monday.	Let;s wait until  Monday.	231176258	1478187312690	1478187312817	t	84
452162	4869413	Let's wait until Monday.	Let;s wait until  Monday.	231176261	1478187312817	1478187312960	;	186
452162	4869413	Let's wait until Monday.	Let;s wait until  Monday.	231176264	1478187312980	1478187313124	s	83
452162	4869413	Let's wait until Monday.	Let;s wait until  Monday.	231176268	1478187313104	1478187313314	 	32
452162	4869413	Let's wait until Monday.	Let;s wait until  Monday.	231176314	1478187313234	1478187313336	w	87
452162	4869413	Let's wait until Monday.	Let;s wait until  Monday.	231176324	1478187313426	1478187313641	a	65
452162	4869413	Let's wait until Monday.	Let;s wait until  Monday.	231176335	1478187313620	1478187313720	i	73
452162	4869413	Let's wait until Monday.	Let;s wait until  Monday.	231176345	1478187313811	1478187313910	t	84
452162	4869413	Let's wait until Monday.	Let;s wait until  Monday.	231176358	1478187313990	1478187314067	 	32
452162	4869413	Let's wait until Monday.	Let;s wait until  Monday.	231176369	1478187314177	1478187314257	u	85
452162	4869413	Let's wait until Monday.	Let;s wait until  Monday.	231176448	1478187314388	1478187314517	n	78
452162	4869413	Let's wait until Monday.	Let;s wait until  Monday.	231176450	1478187314547	1478187314697	t	84
452162	4869413	Let's wait until Monday.	Let;s wait until  Monday.	231176454	1478187314674	1478187314760	i	73
452162	4869413	Let's wait until Monday.	Let;s wait until  Monday.	231176459	1478187315380	1478187315474	l	76
452162	4869413	Let's wait until Monday.	Let;s wait until  Monday.	231176462	1478187315544	1478187315667	 	32
452162	4869413	Let's wait until Monday.	Let;s wait until  Monday.	231176497	1478187315689	1478187315907	SHIFT	16
452162	4869413	Let's wait until Monday.	Let;s wait until  Monday.	231176494	1478187315719	1478187315817	 	32
452162	4869413	Let's wait until Monday.	Let;s wait until  Monday.	231176500	1478187315780	1478187315907	M	77
452162	4869413	Let's wait until Monday.	Let;s wait until  Monday.	231176501	1478187315937	1478187316024	o	79
452162	4869413	Let's wait until Monday.	Let;s wait until  Monday.	231176503	1478187316064	1478187316180	n	78
452162	4869413	Let's wait until Monday.	Let;s wait until  Monday.	231176506	1478187316180	1478187316313	d	68
452162	4869413	Let's wait until Monday.	Let;s wait until  Monday.	231176723	1478187316290	1478187316504	a	65
452162	4869413	Let's wait until Monday.	Let;s wait until  Monday.	231176727	1478187316454	1478187316534	y	89
452162	4869413	Let's wait until Monday.	Let;s wait until  Monday.	231176729	1478187316674	1478187316760	.	190
452162	4869435	I'm still in Dallas!	I'm still in Dallas!	231177067	1478187321044	1478187321300	SHIFT	16
452162	4869435	I'm still in Dallas!	I'm still in Dallas!	231177063	1478187321124	1478187321220	I	73
452162	4869435	I'm still in Dallas!	I'm still in Dallas!	231177070	1478187321640	1478187321737	'	222
452162	4869435	I'm still in Dallas!	I'm still in Dallas!	231177072	1478187322277	1478187322390	,	188
452162	4869435	I'm still in Dallas!	I'm still in Dallas!	231177077	1478187322600	1478187322677	 	32
452162	4869435	I'm still in Dallas!	I'm still in Dallas!	231177081	1478187322917	1478187322977	BKSP	8
452162	4869435	I'm still in Dallas!	I'm still in Dallas!	231177089	1478187323077	1478187323157	BKSP	8
452162	4869435	I'm still in Dallas!	I'm still in Dallas!	231177095	1478187323377	1478187323497	m	77
452162	4869435	I'm still in Dallas!	I'm still in Dallas!	231177149	1478187323648	1478187323764	 	32
452162	4869435	I'm still in Dallas!	I'm still in Dallas!	231177153	1478187323764	1478187323927	s	83
452162	4869435	I'm still in Dallas!	I'm still in Dallas!	231177159	1478187323896	1478187324057	t	84
452162	4869435	I'm still in Dallas!	I'm still in Dallas!	231177164	1478187324007	1478187324080	i	73
452162	4869435	I'm still in Dallas!	I'm still in Dallas!	231177170	1478187324200	1478187324277	l	76
452162	4869435	I'm still in Dallas!	I'm still in Dallas!	231177239	1478187324359	1478187324434	l	76
452162	4869435	I'm still in Dallas!	I'm still in Dallas!	231177247	1478187324464	1478187324567	 	32
452162	4869435	I'm still in Dallas!	I'm still in Dallas!	231177254	1478187324837	1478187324928	i	73
452162	4869435	I'm still in Dallas!	I'm still in Dallas!	231177262	1478187324978	1478187325077	n	78
452162	4869435	I'm still in Dallas!	I'm still in Dallas!	231177271	1478187325127	1478187325267	 	32
452162	4869435	I'm still in Dallas!	I'm still in Dallas!	231177323	1478187325257	1478187325417	SHIFT	16
452162	4869435	I'm still in Dallas!	I'm still in Dallas!	231177329	1478187325329	1478187325457	D	68
452162	4869435	I'm still in Dallas!	I'm still in Dallas!	231177335	1478187325447	1478187325637	a	65
452162	4869435	I'm still in Dallas!	I'm still in Dallas!	231177341	1478187325637	1478187325687	l	76
452162	4869435	I'm still in Dallas!	I'm still in Dallas!	231177346	1478187325767	1478187325840	l	76
452162	4869435	I'm still in Dallas!	I'm still in Dallas!	231177355	1478187325860	1478187326024	a	65
452162	4869435	I'm still in Dallas!	I'm still in Dallas!	231177415	1478187326066	1478187326240	s	83
452162	4869435	I'm still in Dallas!	I'm still in Dallas!	231177429	1478187326400	1478187326800	SHIFT	16
452162	4869435	I'm still in Dallas!	I'm still in Dallas!	231177419	1478187326610	1478187326790	!	49
452162	4869452	So I don't know who it ll be carrying the load.	So I don't know who it ll be carrying the load. 	231177666	1478187329767	1478187329910	SHIFT	16
452162	4869452	So I don't know who it ll be carrying the load.	So I don't know who it ll be carrying the load. 	231177669	1478187329877	1478187330025	S	83
452162	4869452	So I don't know who it ll be carrying the load.	So I don't know who it ll be carrying the load. 	231177671	1478187329990	1478187330087	o	79
452162	4869452	So I don't know who it ll be carrying the load.	So I don't know who it ll be carrying the load. 	231177674	1478187330197	1478187330313	 	32
452162	4869452	So I don't know who it ll be carrying the load.	So I don't know who it ll be carrying the load. 	231177678	1478187330343	1478187330417	i	73
452162	4869452	So I don't know who it ll be carrying the load.	So I don't know who it ll be carrying the load. 	231177680	1478187330497	1478187330584	n	78
452162	4869452	So I don't know who it ll be carrying the load.	So I don't know who it ll be carrying the load. 	231177819	1478187330917	1478187331000	BKSP	8
452162	4869452	So I don't know who it ll be carrying the load.	So I don't know who it ll be carrying the load. 	231177823	1478187331120	1478187331363	 	32
452162	4869452	So I don't know who it ll be carrying the load.	So I don't know who it ll be carrying the load. 	231177829	1478187331256	1478187331383	d	68
452162	4869452	So I don't know who it ll be carrying the load.	So I don't know who it ll be carrying the load. 	231177837	1478187331673	1478187331750	BKSP	8
452162	4869452	So I don't know who it ll be carrying the load.	So I don't know who it ll be carrying the load. 	231177843	1478187331830	1478187331907	BKSP	8
452162	4869452	So I don't know who it ll be carrying the load.	So I don't know who it ll be carrying the load. 	231177848	1478187332007	1478187332114	BKSP	8
452162	4869452	So I don't know who it ll be carrying the load.	So I don't know who it ll be carrying the load. 	231177861	1478187332194	1478187332423	SHIFT	16
452162	4869452	So I don't know who it ll be carrying the load.	So I don't know who it ll be carrying the load. 	231177854	1478187332304	1478187332393	I	73
452162	4869452	So I don't know who it ll be carrying the load.	So I don't know who it ll be carrying the load. 	231177866	1478187332513	1478187332660	 	32
452162	4869452	So I don't know who it ll be carrying the load.	So I don't know who it ll be carrying the load. 	231177870	1478187332760	1478187332920	d	68
452162	4869452	So I don't know who it ll be carrying the load.	So I don't know who it ll be carrying the load. 	231178001	1478187332870	1478187332952	o	79
452162	4869452	So I don't know who it ll be carrying the load.	So I don't know who it ll be carrying the load. 	231178009	1478187333012	1478187333093	n	78
452162	4869452	So I don't know who it ll be carrying the load.	So I don't know who it ll be carrying the load. 	231178012	1478187333700	1478187333824	'	222
452162	4869452	So I don't know who it ll be carrying the load.	So I don't know who it ll be carrying the load. 	231178018	1478187334497	1478187334640	t	84
452162	4869452	So I don't know who it ll be carrying the load.	So I don't know who it ll be carrying the load. 	231178022	1478187334680	1478187334770	 	32
452162	4869452	So I don't know who it ll be carrying the load.	So I don't know who it ll be carrying the load. 	231178027	1478187334840	1478187334897	k	75
452162	4869452	So I don't know who it ll be carrying the load.	So I don't know who it ll be carrying the load. 	231178066	1478187334968	1478187335057	n	78
452162	4869452	So I don't know who it ll be carrying the load.	So I don't know who it ll be carrying the load. 	231178069	1478187335097	1478187335190	o	79
452162	4869452	So I don't know who it ll be carrying the load.	So I don't know who it ll be carrying the load. 	231178073	1478187335131	1478187335270	w	87
452162	4869452	So I don't know who it ll be carrying the load.	So I don't know who it ll be carrying the load. 	231178077	1478187335300	1478187335414	 	32
452162	4869452	So I don't know who it ll be carrying the load.	So I don't know who it ll be carrying the load. 	231178085	1478187335536	1478187335657	w	87
452162	4869452	So I don't know who it ll be carrying the load.	So I don't know who it ll be carrying the load. 	231178190	1478187335637	1478187335747	h	72
452162	4869452	So I don't know who it ll be carrying the load.	So I don't know who it ll be carrying the load. 	231178194	1478187335777	1478187335864	o	79
452162	4869452	So I don't know who it ll be carrying the load.	So I don't know who it ll be carrying the load. 	231178201	1478187336184	1478187336277	 	32
452162	4869452	So I don't know who it ll be carrying the load.	So I don't know who it ll be carrying the load. 	231178210	1478187336417	1478187336530	i	73
452162	4869452	So I don't know who it ll be carrying the load.	So I don't know who it ll be carrying the load. 	231178217	1478187336560	1478187336680	s	83
452162	4869452	So I don't know who it ll be carrying the load.	So I don't know who it ll be carrying the load. 	231178222	1478187336900	1478187336984	BKSP	8
452162	4869452	So I don't know who it ll be carrying the load.	So I don't know who it ll be carrying the load. 	231178228	1478187337184	1478187337284	i	73
452162	4869452	So I don't know who it ll be carrying the load.	So I don't know who it ll be carrying the load. 	231178409	1478187337636	1478187337747	 	32
452162	4869452	So I don't know who it ll be carrying the load.	So I don't know who it ll be carrying the load. 	231178413	1478187338067	1478187338130	BKSP	8
452162	4869452	So I don't know who it ll be carrying the load.	So I don't know who it ll be carrying the load. 	231178415	1478187338231	1478187338313	BKSP	8
452162	4869452	So I don't know who it ll be carrying the load.	So I don't know who it ll be carrying the load. 	231178418	1478187338489	1478187338597	t	84
452162	4869452	So I don't know who it ll be carrying the load.	So I don't know who it ll be carrying the load. 	231178420	1478187338597	1478187338777	 	32
452162	4869452	So I don't know who it ll be carrying the load.	So I don't know who it ll be carrying the load. 	231178422	1478187338745	1478187338817	w	87
452162	4869452	So I don't know who it ll be carrying the load.	So I don't know who it ll be carrying the load. 	231178425	1478187339157	1478187339234	BKSP	8
452162	4869452	So I don't know who it ll be carrying the load.	So I don't know who it ll be carrying the load. 	231178432	1478187339634	1478187339704	l	76
452162	4869452	So I don't know who it ll be carrying the load.	So I don't know who it ll be carrying the load. 	231178457	1478187339776	1478187339877	l	76
452162	4869452	So I don't know who it ll be carrying the load.	So I don't know who it ll be carrying the load. 	231178464	1478187339877	1478187339993	 	32
452162	4869452	So I don't know who it ll be carrying the load.	So I don't know who it ll be carrying the load. 	231178469	1478187339960	1478187340104	b	66
452162	4869452	So I don't know who it ll be carrying the load.	So I don't know who it ll be carrying the load. 	231178473	1478187340134	1478187340244	e	69
452162	4869452	So I don't know who it ll be carrying the load.	So I don't know who it ll be carrying the load. 	231178480	1478187340244	1478187340377	 	32
452162	4869452	So I don't know who it ll be carrying the load.	So I don't know who it ll be carrying the load. 	231178540	1478187340483	1478187340597	c	67
452162	4869452	So I don't know who it ll be carrying the load.	So I don't know who it ll be carrying the load. 	231178544	1478187340627	1478187340841	a	65
452162	4869452	So I don't know who it ll be carrying the load.	So I don't know who it ll be carrying the load. 	231178548	1478187340817	1478187340930	r	82
452162	4869452	So I don't know who it ll be carrying the load.	So I don't know who it ll be carrying the load. 	231178550	1478187341010	1478187341104	r	82
452162	4869452	So I don't know who it ll be carrying the load.	So I don't know who it ll be carrying the load. 	231178552	1478187341184	1478187341297	y	89
452162	4869452	So I don't know who it ll be carrying the load.	So I don't know who it ll be carrying the load. 	231178611	1478187341409	1478187341510	i	73
452162	4869452	So I don't know who it ll be carrying the load.	So I don't know who it ll be carrying the load. 	231178617	1478187341570	1478187341650	n	78
452162	4869452	So I don't know who it ll be carrying the load.	So I don't know who it ll be carrying the load. 	231178623	1478187341670	1478187341796	g	71
452162	4869452	So I don't know who it ll be carrying the load.	So I don't know who it ll be carrying the load. 	231178627	1478187341864	1478187341975	 	32
452162	4869452	So I don't know who it ll be carrying the load.	So I don't know who it ll be carrying the load. 	231178632	1478187341975	1478187342098	t	84
452162	4869452	So I don't know who it ll be carrying the load.	So I don't know who it ll be carrying the load. 	231178674	1478187342108	1478187342179	h	72
452162	4869452	So I don't know who it ll be carrying the load.	So I don't know who it ll be carrying the load. 	231178685	1478187342229	1478187342363	e	69
452162	4869452	So I don't know who it ll be carrying the load.	So I don't know who it ll be carrying the load. 	231178692	1478187342338	1478187342539	 	32
452162	4869452	So I don't know who it ll be carrying the load.	So I don't know who it ll be carrying the load. 	231178697	1478187342539	1478187342615	l	76
452162	4869452	So I don't know who it ll be carrying the load.	So I don't know who it ll be carrying the load. 	231178700	1478187342695	1478187342788	o	79
452162	4869452	So I don't know who it ll be carrying the load.	So I don't know who it ll be carrying the load. 	231178748	1478187342850	1478187343015	a	65
452162	4869452	So I don't know who it ll be carrying the load.	So I don't know who it ll be carrying the load. 	231178754	1478187343045	1478187343178	d	68
452162	4869452	So I don't know who it ll be carrying the load.	So I don't know who it ll be carrying the load. 	231178763	1478187343288	1478187343362	.	190
452162	4869452	So I don't know who it ll be carrying the load.	So I don't know who it ll be carrying the load. 	231178775	1478187343492	1478187343555	 	32
452162	4869481	I was a bit rusty but I didn't want to miss the elections back home.	I was a bit rusty but I didn't want to miss the elections back home.	231179051	1478187346408	1478187346648	SHIFT	16
452162	4869481	I was a bit rusty but I didn't want to miss the elections back home.	I was a bit rusty but I didn't want to miss the elections back home.	231179060	1478187346538	1478187346648	I	73
452162	4869481	I was a bit rusty but I didn't want to miss the elections back home.	I was a bit rusty but I didn't want to miss the elections back home.	231179068	1478187346698	1478187346839	 	32
452162	4869481	I was a bit rusty but I didn't want to miss the elections back home.	I was a bit rusty but I didn't want to miss the elections back home.	231179079	1478187346839	1478187346955	w	87
452162	4869481	I was a bit rusty but I didn't want to miss the elections back home.	I was a bit rusty but I didn't want to miss the elections back home.	231179090	1478187347015	1478187347155	a	65
452162	4869481	I was a bit rusty but I didn't want to miss the elections back home.	I was a bit rusty but I didn't want to miss the elections back home.	231179128	1478187347108	1478187347227	s	83
452162	4869481	I was a bit rusty but I didn't want to miss the elections back home.	I was a bit rusty but I didn't want to miss the elections back home.	231179131	1478187347207	1478187347302	 	32
452162	4869481	I was a bit rusty but I didn't want to miss the elections back home.	I was a bit rusty but I didn't want to miss the elections back home.	231179135	1478187347332	1478187347508	a	65
452162	4869481	I was a bit rusty but I didn't want to miss the elections back home.	I was a bit rusty but I didn't want to miss the elections back home.	231179139	1478187347508	1478187347659	 	32
452162	4869481	I was a bit rusty but I didn't want to miss the elections back home.	I was a bit rusty but I didn't want to miss the elections back home.	231179144	1478187347603	1478187347731	b	66
452162	4869481	I was a bit rusty but I didn't want to miss the elections back home.	I was a bit rusty but I didn't want to miss the elections back home.	231179148	1478187347751	1478187347845	i	73
452162	4869481	I was a bit rusty but I didn't want to miss the elections back home.	I was a bit rusty but I didn't want to miss the elections back home.	231179233	1478187347877	1478187348012	t	84
452162	4869481	I was a bit rusty but I didn't want to miss the elections back home.	I was a bit rusty but I didn't want to miss the elections back home.	231179235	1478187348012	1478187348115	 	32
452162	4869481	I was a bit rusty but I didn't want to miss the elections back home.	I was a bit rusty but I didn't want to miss the elections back home.	231179237	1478187348185	1478187348298	m	77
452162	4869481	I was a bit rusty but I didn't want to miss the elections back home.	I was a bit rusty but I didn't want to miss the elections back home.	231179241	1478187348708	1478187348795	BKSP	8
452162	4869481	I was a bit rusty but I didn't want to miss the elections back home.	I was a bit rusty but I didn't want to miss the elections back home.	231179244	1478187348825	1478187348938	r	82
452162	4869481	I was a bit rusty but I didn't want to miss the elections back home.	I was a bit rusty but I didn't want to miss the elections back home.	231179247	1478187348948	1478187349035	u	85
452162	4869481	I was a bit rusty but I didn't want to miss the elections back home.	I was a bit rusty but I didn't want to miss the elections back home.	231179424	1478187349076	1478187349227	s	83
452162	4869481	I was a bit rusty but I didn't want to miss the elections back home.	I was a bit rusty but I didn't want to miss the elections back home.	231179426	1478187349188	1478187349339	t	84
452162	4869481	I was a bit rusty but I didn't want to miss the elections back home.	I was a bit rusty but I didn't want to miss the elections back home.	231179430	1478187349499	1478187349605	 	32
452162	4869481	I was a bit rusty but I didn't want to miss the elections back home.	I was a bit rusty but I didn't want to miss the elections back home.	231179436	1478187349954	1478187350035	BKSP	8
452162	4869481	I was a bit rusty but I didn't want to miss the elections back home.	I was a bit rusty but I didn't want to miss the elections back home.	231179443	1478187350165	1478187350186	BKSP	8
452162	4869481	I was a bit rusty but I didn't want to miss the elections back home.	I was a bit rusty but I didn't want to miss the elections back home.	231179448	1478187350978	1478187351098	t	84
452162	4869481	I was a bit rusty but I didn't want to miss the elections back home.	I was a bit rusty but I didn't want to miss the elections back home.	231179456	1478187351528	1478187351622	y	89
452162	4869481	I was a bit rusty but I didn't want to miss the elections back home.	I was a bit rusty but I didn't want to miss the elections back home.	231179489	1478187351794	1478187351915	 	32
452162	4869481	I was a bit rusty but I didn't want to miss the elections back home.	I was a bit rusty but I didn't want to miss the elections back home.	231179491	1478187351945	1478187352018	b	66
452162	4869481	I was a bit rusty but I didn't want to miss the elections back home.	I was a bit rusty but I didn't want to miss the elections back home.	231179494	1478187352038	1478187352118	u	85
452162	4869481	I was a bit rusty but I didn't want to miss the elections back home.	I was a bit rusty but I didn't want to miss the elections back home.	231179498	1478187352178	1478187352325	t	84
452162	4869481	I was a bit rusty but I didn't want to miss the elections back home.	I was a bit rusty but I didn't want to miss the elections back home.	231179499	1478187352325	1478187352422	 	32
452162	4869481	I was a bit rusty but I didn't want to miss the elections back home.	I was a bit rusty but I didn't want to miss the elections back home.	231179568	1478187352724	1478187352822	i	73
452162	4869481	I was a bit rusty but I didn't want to miss the elections back home.	I was a bit rusty but I didn't want to miss the elections back home.	231179572	1478187352922	1478187353002	 	32
452162	4869481	I was a bit rusty but I didn't want to miss the elections back home.	I was a bit rusty but I didn't want to miss the elections back home.	231179580	1478187353222	1478187353282	BKSP	8
452162	4869481	I was a bit rusty but I didn't want to miss the elections back home.	I was a bit rusty but I didn't want to miss the elections back home.	231179584	1478187353362	1478187353492	BKSP	8
452162	4869481	I was a bit rusty but I didn't want to miss the elections back home.	I was a bit rusty but I didn't want to miss the elections back home.	231179590	1478187353522	1478187353691	SHIFT	16
452162	4869481	I was a bit rusty but I didn't want to miss the elections back home.	I was a bit rusty but I didn't want to miss the elections back home.	231179594	1478187353652	1478187353755	I	73
452162	4869481	I was a bit rusty but I didn't want to miss the elections back home.	I was a bit rusty but I didn't want to miss the elections back home.	231179596	1478187353815	1478187353946	 	32
452162	4869481	I was a bit rusty but I didn't want to miss the elections back home.	I was a bit rusty but I didn't want to miss the elections back home.	231179759	1478187353925	1478187354075	d	68
452162	4869481	I was a bit rusty but I didn't want to miss the elections back home.	I was a bit rusty but I didn't want to miss the elections back home.	231179765	1478187354052	1478187354151	i	73
452162	4869481	I was a bit rusty but I didn't want to miss the elections back home.	I was a bit rusty but I didn't want to miss the elections back home.	231179770	1478187354230	1478187354362	n	78
452162	4869481	I was a bit rusty but I didn't want to miss the elections back home.	I was a bit rusty but I didn't want to miss the elections back home.	231179779	1478187355522	1478187355612	BKSP	8
452162	4869481	I was a bit rusty but I didn't want to miss the elections back home.	I was a bit rusty but I didn't want to miss the elections back home.	231179785	1478187355862	1478187356025	d	68
452162	4869481	I was a bit rusty but I didn't want to miss the elections back home.	I was a bit rusty but I didn't want to miss the elections back home.	231179789	1478187355957	1478187356055	n	78
452162	4869481	I was a bit rusty but I didn't want to miss the elections back home.	I was a bit rusty but I didn't want to miss the elections back home.	231179793	1478187356165	1478187356308	'	222
452162	4869481	I was a bit rusty but I didn't want to miss the elections back home.	I was a bit rusty but I didn't want to miss the elections back home.	231179872	1478187356308	1478187356455	t	84
452162	4869481	I was a bit rusty but I didn't want to miss the elections back home.	I was a bit rusty but I didn't want to miss the elections back home.	231179877	1478187356485	1478187356602	 	32
452162	4869481	I was a bit rusty but I didn't want to miss the elections back home.	I was a bit rusty but I didn't want to miss the elections back home.	231179882	1478187356852	1478187356995	e	69
452162	4869481	I was a bit rusty but I didn't want to miss the elections back home.	I was a bit rusty but I didn't want to miss the elections back home.	231179991	1478187357015	1478187357242	a	65
452162	4869481	I was a bit rusty but I didn't want to miss the elections back home.	I was a bit rusty but I didn't want to miss the elections back home.	231179887	1478187357175	1478187357242	n	78
452162	4869481	I was a bit rusty but I didn't want to miss the elections back home.	I was a bit rusty but I didn't want to miss the elections back home.	231179997	1478187357305	1478187357382	t	84
452162	4869481	I was a bit rusty but I didn't want to miss the elections back home.	I was a bit rusty but I didn't want to miss the elections back home.	231180004	1478187357592	1478187357658	BKSP	8
452162	4869481	I was a bit rusty but I didn't want to miss the elections back home.	I was a bit rusty but I didn't want to miss the elections back home.	231180010	1478187357748	1478187357815	BKSP	8
452162	4869481	I was a bit rusty but I didn't want to miss the elections back home.	I was a bit rusty but I didn't want to miss the elections back home.	231180017	1478187357907	1478187357991	BKSP	8
452162	4869481	I was a bit rusty but I didn't want to miss the elections back home.	I was a bit rusty but I didn't want to miss the elections back home.	231180024	1478187358091	1478187358181	BKSP	8
452162	4869481	I was a bit rusty but I didn't want to miss the elections back home.	I was a bit rusty but I didn't want to miss the elections back home.	231180026	1478187358211	1478187358325	w	87
452162	4869481	I was a bit rusty but I didn't want to miss the elections back home.	I was a bit rusty but I didn't want to miss the elections back home.	231180033	1478187358355	1478187358554	a	65
452162	4869481	I was a bit rusty but I didn't want to miss the elections back home.	I was a bit rusty but I didn't want to miss the elections back home.	231180037	1478187358515	1478187358598	n	78
452162	4869481	I was a bit rusty but I didn't want to miss the elections back home.	I was a bit rusty but I didn't want to miss the elections back home.	231180045	1478187358628	1478187358762	t	84
452162	4869481	I was a bit rusty but I didn't want to miss the elections back home.	I was a bit rusty but I didn't want to miss the elections back home.	231180074	1478187358772	1478187358872	 	32
452162	4869481	I was a bit rusty but I didn't want to miss the elections back home.	I was a bit rusty but I didn't want to miss the elections back home.	231180079	1478187358882	1478187359014	t	84
452162	4869481	I was a bit rusty but I didn't want to miss the elections back home.	I was a bit rusty but I didn't want to miss the elections back home.	231180085	1478187359194	1478187359258	o	79
452162	4869481	I was a bit rusty but I didn't want to miss the elections back home.	I was a bit rusty but I didn't want to miss the elections back home.	231180087	1478187359458	1478187359555	 	32
452162	4869481	I was a bit rusty but I didn't want to miss the elections back home.	I was a bit rusty but I didn't want to miss the elections back home.	231180090	1478187359635	1478187359748	m	77
452162	4869481	I was a bit rusty but I didn't want to miss the elections back home.	I was a bit rusty but I didn't want to miss the elections back home.	231180118	1478187359800	1478187359915	i	73
452162	4869481	I was a bit rusty but I didn't want to miss the elections back home.	I was a bit rusty but I didn't want to miss the elections back home.	231180126	1478187359915	1478187360005	s	83
452162	4869481	I was a bit rusty but I didn't want to miss the elections back home.	I was a bit rusty but I didn't want to miss the elections back home.	231180134	1478187360075	1478187360219	s	83
452162	4869481	I was a bit rusty but I didn't want to miss the elections back home.	I was a bit rusty but I didn't want to miss the elections back home.	231180139	1478187360182	1478187360358	 	32
452162	4869481	I was a bit rusty but I didn't want to miss the elections back home.	I was a bit rusty but I didn't want to miss the elections back home.	231180188	1478187360338	1478187360438	t	84
452162	4869481	I was a bit rusty but I didn't want to miss the elections back home.	I was a bit rusty but I didn't want to miss the elections back home.	231180192	1478187360438	1478187360498	h	72
452162	4869481	I was a bit rusty but I didn't want to miss the elections back home.	I was a bit rusty but I didn't want to miss the elections back home.	231180197	1478187360498	1478187360635	e	69
452162	4869481	I was a bit rusty but I didn't want to miss the elections back home.	I was a bit rusty but I didn't want to miss the elections back home.	231180206	1478187360645	1478187360756	 	32
452162	4869481	I was a bit rusty but I didn't want to miss the elections back home.	I was a bit rusty but I didn't want to miss the elections back home.	231180216	1478187360756	1478187360875	e	69
452162	4869481	I was a bit rusty but I didn't want to miss the elections back home.	I was a bit rusty but I didn't want to miss the elections back home.	231180222	1478187360935	1478187361035	l	76
452162	4869481	I was a bit rusty but I didn't want to miss the elections back home.	I was a bit rusty but I didn't want to miss the elections back home.	231180275	1478187361035	1478187361138	e	69
452162	4869481	I was a bit rusty but I didn't want to miss the elections back home.	I was a bit rusty but I didn't want to miss the elections back home.	231180283	1478187361258	1478187361396	c	67
452162	4869481	I was a bit rusty but I didn't want to miss the elections back home.	I was a bit rusty but I didn't want to miss the elections back home.	231180291	1478187361446	1478187361590	t	84
452162	4869481	I was a bit rusty but I didn't want to miss the elections back home.	I was a bit rusty but I didn't want to miss the elections back home.	231180297	1478187361508	1478187361620	i	73
452162	4869481	I was a bit rusty but I didn't want to miss the elections back home.	I was a bit rusty but I didn't want to miss the elections back home.	231180302	1478187361670	1478187361778	o	79
452162	4869481	I was a bit rusty but I didn't want to miss the elections back home.	I was a bit rusty but I didn't want to miss the elections back home.	231180335	1478187361798	1478187361895	n	78
452162	4869481	I was a bit rusty but I didn't want to miss the elections back home.	I was a bit rusty but I didn't want to miss the elections back home.	231180340	1478187361955	1478187362102	s	83
452162	4869481	I was a bit rusty but I didn't want to miss the elections back home.	I was a bit rusty but I didn't want to miss the elections back home.	231180348	1478187362102	1478187362211	 	32
452162	4869481	I was a bit rusty but I didn't want to miss the elections back home.	I was a bit rusty but I didn't want to miss the elections back home.	231180352	1478187362331	1478187362402	b	66
452162	4869481	I was a bit rusty but I didn't want to miss the elections back home.	I was a bit rusty but I didn't want to miss the elections back home.	231180356	1478187362452	1478187362595	a	65
452162	4869481	I was a bit rusty but I didn't want to miss the elections back home.	I was a bit rusty but I didn't want to miss the elections back home.	231180394	1478187362706	1478187362839	c	67
452162	4869481	I was a bit rusty but I didn't want to miss the elections back home.	I was a bit rusty but I didn't want to miss the elections back home.	231180396	1478187362869	1478187362962	k	75
452162	4869481	I was a bit rusty but I didn't want to miss the elections back home.	I was a bit rusty but I didn't want to miss the elections back home.	231180400	1478187363082	1478187363275	 	32
452162	4869481	I was a bit rusty but I didn't want to miss the elections back home.	I was a bit rusty but I didn't want to miss the elections back home.	231180406	1478187363242	1478187363348	h	72
452162	4869481	I was a bit rusty but I didn't want to miss the elections back home.	I was a bit rusty but I didn't want to miss the elections back home.	231180412	1478187363398	1478187363515	o	79
452162	4869481	I was a bit rusty but I didn't want to miss the elections back home.	I was a bit rusty but I didn't want to miss the elections back home.	231180490	1478187363577	1478187363658	m	77
452162	4869481	I was a bit rusty but I didn't want to miss the elections back home.	I was a bit rusty but I didn't want to miss the elections back home.	231180498	1478187363688	1478187363778	e	69
452162	4869481	I was a bit rusty but I didn't want to miss the elections back home.	I was a bit rusty but I didn't want to miss the elections back home.	231180503	1478187364218	1478187364265	.	190
452162	4869517	What period does the max rate assumption cover?	What period does the max rate assumption cover?	231180783	1478187368132	1478187368315	SHIFT	16
452162	4869517	What period does the max rate assumption cover?	What period does the max rate assumption cover?	231180786	1478187368242	1478187368395	W	87
452162	4869517	What period does the max rate assumption cover?	What period does the max rate assumption cover?	231180791	1478187368395	1478187368455	h	72
452162	4869517	What period does the max rate assumption cover?	What period does the max rate assumption cover?	231180798	1478187368455	1478187368635	a	65
452162	4869517	What period does the max rate assumption cover?	What period does the max rate assumption cover?	231180804	1478187368585	1478187368728	t	84
452162	4869517	What period does the max rate assumption cover?	What period does the max rate assumption cover?	231180851	1478187368699	1478187368876	 	32
452162	4869517	What period does the max rate assumption cover?	What period does the max rate assumption cover?	231180854	1478187368841	1478187368948	p	80
452162	4869517	What period does the max rate assumption cover?	What period does the max rate assumption cover?	231180859	1478187368938	1478187369115	e	69
452162	4869517	What period does the max rate assumption cover?	What period does the max rate assumption cover?	231180863	1478187369078	1478187369211	r	82
452162	4869517	What period does the max rate assumption cover?	What period does the max rate assumption cover?	231180868	1478187369188	1478187369289	i	73
452162	4869517	What period does the max rate assumption cover?	What period does the max rate assumption cover?	231180870	1478187369349	1478187369442	o	79
452162	4869517	What period does the max rate assumption cover?	What period does the max rate assumption cover?	231180906	1478187369483	1478187369622	d	68
452162	4869517	What period does the max rate assumption cover?	What period does the max rate assumption cover?	231180911	1478187369602	1478187369851	 	32
452162	4869517	What period does the max rate assumption cover?	What period does the max rate assumption cover?	231180914	1478187369715	1478187369881	d	68
452162	4869517	What period does the max rate assumption cover?	What period does the max rate assumption cover?	231180920	1478187369812	1478187369931	o	79
452162	4869517	What period does the max rate assumption cover?	What period does the max rate assumption cover?	231180925	1478187370021	1478187370132	e	69
452162	4869517	What period does the max rate assumption cover?	What period does the max rate assumption cover?	231180971	1478187370213	1478187370408	s	83
452162	4869517	What period does the max rate assumption cover?	What period does the max rate assumption cover?	231180973	1478187370342	1478187370438	 	32
452162	4869517	What period does the max rate assumption cover?	What period does the max rate assumption cover?	231180978	1478187370568	1478187370648	h	72
452162	4869517	What period does the max rate assumption cover?	What period does the max rate assumption cover?	231180983	1478187370658	1478187370755	t	84
452162	4869517	What period does the max rate assumption cover?	What period does the max rate assumption cover?	231181090	1478187370755	1478187370908	e	69
452162	4869517	What period does the max rate assumption cover?	What period does the max rate assumption cover?	231180987	1478187370835	1478187370898	h	72
452162	4869517	What period does the max rate assumption cover?	What period does the max rate assumption cover?	231181098	1478187371189	1478187371268	BKSP	8
452162	4869517	What period does the max rate assumption cover?	What period does the max rate assumption cover?	231181108	1478187371348	1478187371435	BKSP	8
452162	4869517	What period does the max rate assumption cover?	What period does the max rate assumption cover?	231181114	1478187371515	1478187371592	BKSP	8
452162	4869517	What period does the max rate assumption cover?	What period does the max rate assumption cover?	231181122	1478187371682	1478187371769	BKSP	8
452162	4869517	What period does the max rate assumption cover?	What period does the max rate assumption cover?	231181126	1478187371819	1478187371945	t	84
452162	4869517	What period does the max rate assumption cover?	What period does the max rate assumption cover?	231181131	1478187371945	1478187372019	h	72
452162	4869517	What period does the max rate assumption cover?	What period does the max rate assumption cover?	231181135	1478187372029	1478187372162	e	69
452162	4869517	What period does the max rate assumption cover?	What period does the max rate assumption cover?	231181139	1478187372118	1478187372282	 	32
452162	4869517	What period does the max rate assumption cover?	What period does the max rate assumption cover?	231181143	1478187372282	1478187372342	e	77
452162	4869517	What period does the max rate assumption cover?	What period does the max rate assumption cover?	231181204	1478187372533	1478187372658	a	65
452162	4869517	What period does the max rate assumption cover?	What period does the max rate assumption cover?	231181214	1478187372948	1478187373015	BKSP	8
452162	4869517	What period does the max rate assumption cover?	What period does the max rate assumption cover?	231181220	1478187373095	1478187373195	BKSP	8
452162	4869517	What period does the max rate assumption cover?	What period does the max rate assumption cover?	231181228	1478187373171	1478187373282	a	65
452162	4869517	What period does the max rate assumption cover?	What period does the max rate assumption cover?	231181235	1478187373352	1478187373571	x	88
452162	4869517	What period does the max rate assumption cover?	What period does the max rate assumption cover?	231181240	1478187373522	1478187373671	 	32
452162	4869517	What period does the max rate assumption cover?	What period does the max rate assumption cover?	231181247	1478187373691	1478187373768	t	84
452162	4869517	What period does the max rate assumption cover?	What period does the max rate assumption cover?	231181323	1478187373778	1478187373955	a	65
452162	4869517	What period does the max rate assumption cover?	What period does the max rate assumption cover?	231181329	1478187373995	1478187374058	t	84
452162	4869517	What period does the max rate assumption cover?	What period does the max rate assumption cover?	231181334	1478187374308	1478187374391	BKSP	8
452162	4869517	What period does the max rate assumption cover?	What period does the max rate assumption cover?	231181337	1478187374491	1478187374569	BKSP	8
452162	4869517	What period does the max rate assumption cover?	What period does the max rate assumption cover?	231181339	1478187374649	1478187374758	BKSP	8
452162	4869517	What period does the max rate assumption cover?	What period does the max rate assumption cover?	231181344	1478187374858	1478187374985	r	82
452162	4869517	What period does the max rate assumption cover?	What period does the max rate assumption cover?	231181347	1478187374985	1478187375147	a	65
452162	4869517	What period does the max rate assumption cover?	What period does the max rate assumption cover?	231181400	1478187375125	1478187375252	t	84
452162	4869517	What period does the max rate assumption cover?	What period does the max rate assumption cover?	231181405	1478187375252	1478187375382	e	69
452162	4869517	What period does the max rate assumption cover?	What period does the max rate assumption cover?	231181409	1478187375382	1478187375508	 	32
452162	4869517	What period does the max rate assumption cover?	What period does the max rate assumption cover?	231181411	1478187375508	1478187375675	a	65
452162	4869517	What period does the max rate assumption cover?	What period does the max rate assumption cover?	231181413	1478187375795	1478187375882	s	83
452162	4869517	What period does the max rate assumption cover?	What period does the max rate assumption cover?	231181415	1478187375962	1478187376068	s	83
452162	4869517	What period does the max rate assumption cover?	What period does the max rate assumption cover?	231181451	1478187375995	1478187376068	u	85
452162	4869517	What period does the max rate assumption cover?	What period does the max rate assumption cover?	231181458	1478187376180	1478187376355	m	77
452162	4869517	What period does the max rate assumption cover?	What period does the max rate assumption cover?	231181465	1478187376375	1478187376501	p	80
452162	4869517	What period does the max rate assumption cover?	What period does the max rate assumption cover?	231181471	1478187376523	1478187376651	t	84
452162	4869517	What period does the max rate assumption cover?	What period does the max rate assumption cover?	231181476	1478187376612	1478187376712	i	73
452162	4869517	What period does the max rate assumption cover?	What period does the max rate assumption cover?	231181478	1478187376772	1478187376882	o	79
452162	4869517	What period does the max rate assumption cover?	What period does the max rate assumption cover?	231181568	1478187376902	1478187377012	n	78
452162	4869517	What period does the max rate assumption cover?	What period does the max rate assumption cover?	231181572	1478187377062	1478187377154	 	32
452162	4869517	What period does the max rate assumption cover?	What period does the max rate assumption cover?	231181577	1478187377643	1478187377786	c	67
452162	4869517	What period does the max rate assumption cover?	What period does the max rate assumption cover?	231181580	1478187377755	1478187377835	o	79
452162	4869517	What period does the max rate assumption cover?	What period does the max rate assumption cover?	231181586	1478187378155	1478187378298	v	86
452162	4869517	What period does the max rate assumption cover?	What period does the max rate assumption cover?	231181656	1478187378308	1478187378522	e	69
452162	4869517	What period does the max rate assumption cover?	What period does the max rate assumption cover?	231181660	1478187378475	1478187378602	r	82
452162	4869517	What period does the max rate assumption cover?	What period does the max rate assumption cover?	231181670	1478187378788	1478187379208	SHIFT	16
452162	4869517	What period does the max rate assumption cover?	What period does the max rate assumption cover?	231181664	1478187378978	1478187379078	?	191
452162	4869543	We've pursued other options and as a result we've made some progress.	We've puseued other options and as a result we've  made some progress.	231181896	1478187381715	1478187382008	SHIFT	16
452162	4869543	We've pursued other options and as a result we've made some progress.	We've puseued other options and as a result we've  made some progress.	231181901	1478187381845	1478187382008	W	87
452162	4869543	We've pursued other options and as a result we've made some progress.	We've puseued other options and as a result we've  made some progress.	231181904	1478187382008	1478187382165	e	69
452162	4869543	We've pursued other options and as a result we've made some progress.	We've puseued other options and as a result we've  made some progress.	231181908	1478187382405	1478187382501	'	222
452162	4869543	We've pursued other options and as a result we've made some progress.	We've puseued other options and as a result we've  made some progress.	231181913	1478187382551	1478187382666	v	86
452162	4869543	We've pursued other options and as a result we've made some progress.	We've puseued other options and as a result we've  made some progress.	231181977	1478187382645	1478187382804	e	69
452162	4869543	We've pursued other options and as a result we've made some progress.	We've puseued other options and as a result we've  made some progress.	231181981	1478187382804	1478187382935	 	32
452162	4869543	We've pursued other options and as a result we've made some progress.	We've puseued other options and as a result we've  made some progress.	231181987	1478187383255	1478187383355	p	80
452162	4869543	We've pursued other options and as a result we've made some progress.	We've puseued other options and as a result we've  made some progress.	231181992	1478187383435	1478187383528	u	85
452162	4869543	We've pursued other options and as a result we've made some progress.	We've puseued other options and as a result we've  made some progress.	231181998	1478187383848	1478187384011	s	83
452162	4869543	We've pursued other options and as a result we've made some progress.	We've puseued other options and as a result we've  made some progress.	231182188	1478187383978	1478187384123	e	69
452162	4869543	We've pursued other options and as a result we've made some progress.	We've puseued other options and as a result we've  made some progress.	231182193	1478187384083	1478187384185	u	85
452162	4869543	We've pursued other options and as a result we've made some progress.	We've puseued other options and as a result we've  made some progress.	231182200	1478187384215	1478187384292	e	69
452162	4869543	We've pursued other options and as a result we've made some progress.	We've puseued other options and as a result we've  made some progress.	231182209	1478187384412	1478187384491	d	68
452162	4869543	We've pursued other options and as a result we've made some progress.	We've puseued other options and as a result we've  made some progress.	231182220	1478187384455	1478187384662	 	32
452162	4869543	We've pursued other options and as a result we've made some progress.	We've puseued other options and as a result we've  made some progress.	231182229	1478187385079	1478187385138	BKSP	8
452162	4869543	We've pursued other options and as a result we've made some progress.	We've puseued other options and as a result we've  made some progress.	231182235	1478187385218	1478187385302	BKSP	8
452162	4869543	We've pursued other options and as a result we've made some progress.	We've puseued other options and as a result we've  made some progress.	231182243	1478187385382	1478187385458	BKSP	8
452162	4869543	We've pursued other options and as a result we've made some progress.	We've puseued other options and as a result we've  made some progress.	231182250	1478187385558	1478187385642	BKSP	8
452162	4869543	We've pursued other options and as a result we've made some progress.	We've puseued other options and as a result we've  made some progress.	231182259	1478187386488	1478187386568	u	85
452162	4869543	We've pursued other options and as a result we've made some progress.	We've puseued other options and as a result we've  made some progress.	231182258	1478187386568	1478187386647	e	69
452162	4869543	We've pursued other options and as a result we've made some progress.	We've puseued other options and as a result we've  made some progress.	231182267	1478187386747	1478187386858	d	68
452162	4869543	We've pursued other options and as a result we've made some progress.	We've puseued other options and as a result we've  made some progress.	231182277	1478187386858	1478187386952	 	32
452162	4869543	We've pursued other options and as a result we've made some progress.	We've puseued other options and as a result we've  made some progress.	231182286	1478187387122	1478187387222	o	79
452162	4869543	We've pursued other options and as a result we've made some progress.	We've puseued other options and as a result we've  made some progress.	231182293	1478187387302	1478187387412	t	84
452162	4869543	We've pursued other options and as a result we've made some progress.	We've puseued other options and as a result we've  made some progress.	231182336	1478187387434	1478187387495	h	72
452162	4869543	We've pursued other options and as a result we've made some progress.	We've puseued other options and as a result we've  made some progress.	231182337	1478187387467	1478187387682	e	69
452162	4869543	We've pursued other options and as a result we've made some progress.	We've puseued other options and as a result we've  made some progress.	231182338	1478187387625	1478187387723	r	82
452162	4869543	We've pursued other options and as a result we've made some progress.	We've puseued other options and as a result we've  made some progress.	231182341	1478187387682	1478187387768	 	32
452162	4869543	We've pursued other options and as a result we've made some progress.	We've puseued other options and as a result we've  made some progress.	231182344	1478187388372	1478187388438	o	79
452162	4869543	We've pursued other options and as a result we've made some progress.	We've puseued other options and as a result we've  made some progress.	231182357	1478187388520	1478187388612	p	80
452162	4869543	We've pursued other options and as a result we've made some progress.	We've puseued other options and as a result we've  made some progress.	231182359	1478187388662	1478187388805	t	84
452162	4869543	We've pursued other options and as a result we've made some progress.	We've puseued other options and as a result we've  made some progress.	231182361	1478187388762	1478187388855	i	73
452162	4869543	We've pursued other options and as a result we've made some progress.	We've puseued other options and as a result we've  made some progress.	231182365	1478187388935	1478187388955	o	73
452162	4869543	We've pursued other options and as a result we've made some progress.	We've puseued other options and as a result we've  made some progress.	231182544	1478187389079	1478187389202	n	78
452162	4869543	We've pursued other options and as a result we've made some progress.	We've puseued other options and as a result we've  made some progress.	231182547	1478187389862	1478187389925	BKSP	8
452162	4869543	We've pursued other options and as a result we've made some progress.	We've puseued other options and as a result we've  made some progress.	231182550	1478187390005	1478187390105	BKSP	8
452162	4869543	We've pursued other options and as a result we've made some progress.	We've puseued other options and as a result we've  made some progress.	231182553	1478187390778	1478187390851	BKSP	8
452162	4869543	We've pursued other options and as a result we've made some progress.	We've puseued other options and as a result we've  made some progress.	231182557	1478187391495	1478187391555	o	79
452162	4869543	We've pursued other options and as a result we've made some progress.	We've puseued other options and as a result we've  made some progress.	231182562	1478187391705	1478187391785	n	78
452162	4869543	We've pursued other options and as a result we've made some progress.	We've puseued other options and as a result we've  made some progress.	231182570	1478187391845	1478187391955	s	83
452162	4869543	We've pursued other options and as a result we've made some progress.	We've puseued other options and as a result we've  made some progress.	231182577	1478187391975	1478187392068	 	32
452162	4869543	We've pursued other options and as a result we've made some progress.	We've puseued other options and as a result we've  made some progress.	231182598	1478187392090	1478187392215	a	65
452162	4869543	We've pursued other options and as a result we've made some progress.	We've puseued other options and as a result we've  made some progress.	231182604	1478187392215	1478187392292	n	78
452162	4869543	We've pursued other options and as a result we've made some progress.	We've puseued other options and as a result we've  made some progress.	231182607	1478187392282	1478187392443	d	68
452162	4869543	We've pursued other options and as a result we've made some progress.	We've puseued other options and as a result we've  made some progress.	231182612	1478187392402	1478187392482	 	32
452162	4869543	We've pursued other options and as a result we've made some progress.	We've puseued other options and as a result we've  made some progress.	231182618	1478187392502	1478187392650	a	65
452162	4869543	We've pursued other options and as a result we've made some progress.	We've puseued other options and as a result we've  made some progress.	231182760	1478187392650	1478187392722	 	32
452162	4869543	We've pursued other options and as a result we've made some progress.	We've puseued other options and as a result we've  made some progress.	231182766	1478187392683	1478187392822	s	83
452162	4869543	We've pursued other options and as a result we've made some progress.	We've puseued other options and as a result we've  made some progress.	231182773	1478187393315	1478187393378	BKSP	8
452162	4869543	We've pursued other options and as a result we've made some progress.	We've puseued other options and as a result we've  made some progress.	231182780	1478187393458	1478187393595	BKSP	8
452162	4869543	We've pursued other options and as a result we've made some progress.	We've puseued other options and as a result we've  made some progress.	231182785	1478187393875	1478187394038	s	83
452162	4869543	We've pursued other options and as a result we've made some progress.	We've puseued other options and as a result we've  made some progress.	231182792	1478187394038	1478187394115	 	32
452162	4869543	We've pursued other options and as a result we've made some progress.	We've puseued other options and as a result we've  made some progress.	231182796	1478187394155	1478187394375	a	65
452162	4869543	We've pursued other options and as a result we've made some progress.	We've puseued other options and as a result we've  made some progress.	231182814	1478187394295	1478187394422	 	32
452162	4869543	We've pursued other options and as a result we've made some progress.	We've puseued other options and as a result we've  made some progress.	231182816	1478187394375	1478187394532	r	82
452162	4869543	We've pursued other options and as a result we've made some progress.	We've puseued other options and as a result we've  made some progress.	231182817	1478187394532	1478187394614	e	69
452162	4869543	We've pursued other options and as a result we've made some progress.	We've puseued other options and as a result we've  made some progress.	231182819	1478187394674	1478187394875	s	83
452162	4869543	We've pursued other options and as a result we've made some progress.	We've puseued other options and as a result we've  made some progress.	231182821	1478187394822	1478187394914	u	85
452162	4869543	We've pursued other options and as a result we've made some progress.	We've puseued other options and as a result we've  made some progress.	231182825	1478187394964	1478187395098	l	76
452162	4869543	We've pursued other options and as a result we've made some progress.	We've puseued other options and as a result we've  made some progress.	231182864	1478187395042	1478187395160	t	84
452162	4869543	We've pursued other options and as a result we've made some progress.	We've puseued other options and as a result we've  made some progress.	231182868	1478187395160	1478187395291	 	32
452162	4869543	We've pursued other options and as a result we've made some progress.	We've puseued other options and as a result we've  made some progress.	231182872	1478187395268	1478187395419	w	87
452162	4869543	We've pursued other options and as a result we've made some progress.	We've puseued other options and as a result we've  made some progress.	231182878	1478187395419	1478187395612	e	69
452162	4869543	We've pursued other options and as a result we've made some progress.	We've puseued other options and as a result we've  made some progress.	231182881	1478187395832	1478187395924	'	222
452162	4869543	We've pursued other options and as a result we've made some progress.	We've puseued other options and as a result we've  made some progress.	231182887	1478187395986	1478187396099	v	86
452162	4869543	We've pursued other options and as a result we've made some progress.	We've puseued other options and as a result we've  made some progress.	231182895	1478187396121	1478187396298	e	69
452162	4869543	We've pursued other options and as a result we've made some progress.	We've puseued other options and as a result we've  made some progress.	231182896	1478187396298	1478187396410	 	32
452162	4869543	We've pursued other options and as a result we've made some progress.	We've puseued other options and as a result we've  made some progress.	231182897	1478187396440	1478187396450	m	32
452162	4869543	We've pursued other options and as a result we've made some progress.	We've puseued other options and as a result we've  made some progress.	231182937	1478187396488	1478187396630	a	65
452162	4869543	We've pursued other options and as a result we've made some progress.	We've puseued other options and as a result we've  made some progress.	231182943	1478187396630	1478187396778	d	68
452162	4869543	We've pursued other options and as a result we've made some progress.	We've puseued other options and as a result we've  made some progress.	231182949	1478187396838	1478187397019	e	69
452162	4869543	We've pursued other options and as a result we've made some progress.	We've puseued other options and as a result we've  made some progress.	231182956	1478187397035	1478187397158	 	32
452162	4869543	We've pursued other options and as a result we've made some progress.	We've puseued other options and as a result we've  made some progress.	231182961	1478187397178	1478187397282	s	83
452162	4869543	We've pursued other options and as a result we've made some progress.	We've puseued other options and as a result we've  made some progress.	231182991	1478187397272	1478187397368	o	79
452162	4869543	We've pursued other options and as a result we've made some progress.	We've puseued other options and as a result we've  made some progress.	231182994	1478187397418	1478187397515	m	77
452162	4869543	We've pursued other options and as a result we've made some progress.	We've puseued other options and as a result we've  made some progress.	231182998	1478187397492	1478187397638	e	69
452162	4869543	We've pursued other options and as a result we've made some progress.	We've puseued other options and as a result we've  made some progress.	231183004	1478187397718	1478187397925	 	32
452162	4869543	We've pursued other options and as a result we've made some progress.	We've puseued other options and as a result we've  made some progress.	231183011	1478187397858	1478187398026	p	80
452162	4869543	We've pursued other options and as a result we've made some progress.	We've puseued other options and as a result we've  made some progress.	231183106	1478187397995	1478187398105	r	82
452162	4869543	We've pursued other options and as a result we've made some progress.	We've puseued other options and as a result we've  made some progress.	231183112	1478187398435	1478187398548	o	79
452162	4869543	We've pursued other options and as a result we've made some progress.	We've puseued other options and as a result we've  made some progress.	231183117	1478187398628	1478187398728	g	71
452162	4869543	We've pursued other options and as a result we've made some progress.	We've puseued other options and as a result we've  made some progress.	231183121	1478187398978	1478187399108	r	82
452162	4869543	We've pursued other options and as a result we've made some progress.	We've puseued other options and as a result we've  made some progress.	231183125	1478187399108	1478187399225	e	69
452162	4869543	We've pursued other options and as a result we've made some progress.	We've puseued other options and as a result we've  made some progress.	231183131	1478187399305	1478187399395	s	83
452162	4869543	We've pursued other options and as a result we've made some progress.	We've puseued other options and as a result we've  made some progress.	231183145	1478187399476	1478187399608	s	83
452162	4869543	We've pursued other options and as a result we've made some progress.	We've puseued other options and as a result we've  made some progress.	231183149	1478187399608	1478187399672	.	190
452162	4869575	We know the engine is capable.	We know the engine is capable.	231183432	1478187402662	1478187402828	SHIFT	16
452162	4869575	We know the engine is capable.	We know the engine is capable.	231183443	1478187402772	1478187402931	W	87
452162	4869575	We know the engine is capable.	We know the engine is capable.	231183438	1478187402829	1478187402901	a	65
452162	4869575	We know the engine is capable.	We know the engine is capable.	231183448	1478187403161	1478187403271	e	69
452162	4869575	We know the engine is capable.	We know the engine is capable.	231183451	1478187403621	1478187403682	BKSP	8
452162	4869575	We know the engine is capable.	We know the engine is capable.	231183455	1478187403782	1478187403878	BKSP	8
452162	4869575	We know the engine is capable.	We know the engine is capable.	231183461	1478187403898	1478187404020	e	69
452162	4869575	We know the engine is capable.	We know the engine is capable.	231183467	1478187404020	1478187404150	 	32
452162	4869575	We know the engine is capable.	We know the engine is capable.	231183485	1478187404212	1478187404315	k	75
452162	4869575	We know the engine is capable.	We know the engine is capable.	231183486	1478187404355	1478187404455	n	78
452162	4869575	We know the engine is capable.	We know the engine is capable.	231183488	1478187404505	1478187404611	o	79
452162	4869575	We know the engine is capable.	We know the engine is capable.	231183493	1478187404631	1478187404855	w	87
452162	4869575	We know the engine is capable.	We know the engine is capable.	231183539	1478187404762	1478187404887	 	32
452162	4869575	We know the engine is capable.	We know the engine is capable.	231183543	1478187404907	1478187405028	t	84
452162	4869575	We know the engine is capable.	We know the engine is capable.	231183546	1478187405028	1478187405112	h	72
452162	4869575	We know the engine is capable.	We know the engine is capable.	231183552	1478187405122	1478187405252	e	69
452162	4869575	We know the engine is capable.	We know the engine is capable.	231183555	1478187405252	1478187405346	 	32
452162	4869575	We know the engine is capable.	We know the engine is capable.	231183558	1478187405386	1478187405495	e	69
452162	4869575	We know the engine is capable.	We know the engine is capable.	231183585	1478187405515	1478187405620	n	78
452162	4869575	We know the engine is capable.	We know the engine is capable.	231183587	1478187405670	1478187405778	g	71
452162	4869575	We know the engine is capable.	We know the engine is capable.	231183591	1478187405768	1478187405842	i	73
452162	4869575	We know the engine is capable.	We know the engine is capable.	231183594	1478187406053	1478187406122	n	78
452162	4869575	We know the engine is capable.	We know the engine is capable.	231183596	1478187406152	1478187406275	e	69
452162	4869575	We know the engine is capable.	We know the engine is capable.	231183625	1478187406295	1478187406395	 	32
452162	4869575	We know the engine is capable.	We know the engine is capable.	231183629	1478187406475	1478187406562	i	73
452162	4869575	We know the engine is capable.	We know the engine is capable.	231183634	1478187406562	1478187406738	s	83
452162	4869575	We know the engine is capable.	We know the engine is capable.	231183638	1478187406692	1478187406818	 	32
452162	4869575	We know the engine is capable.	We know the engine is capable.	231183642	1478187406868	1478187406962	c	67
452162	4869575	We know the engine is capable.	We know the engine is capable.	231183688	1478187407013	1478187407195	a	65
452162	4869575	We know the engine is capable.	We know the engine is capable.	231183690	1478187407205	1478187407285	p	219
452162	4869575	We know the engine is capable.	We know the engine is capable.	231183692	1478187407285	1478187407430	a	65
452162	4869575	We know the engine is capable.	We know the engine is capable.	231183696	1478187407750	1478187407835	BKSP	8
452162	4869575	We know the engine is capable.	We know the engine is capable.	231183699	1478187407915	1478187407991	BKSP	8
452162	4869575	We know the engine is capable.	We know the engine is capable.	231183703	1478187408071	1478187408162	BKSP	8
452162	4869575	We know the engine is capable.	We know the engine is capable.	231183706	1478187408363	1478187408405	[	219
452162	4869575	We know the engine is capable.	We know the engine is capable.	231183909	1478187408886	1478187408985	BKSP	8
452162	4869575	We know the engine is capable.	We know the engine is capable.	231183910	1478187409285	1478187409378	p	80
452162	4869575	We know the engine is capable.	We know the engine is capable.	231183913	1478187409528	1478187409652	b	66
452162	4869575	We know the engine is capable.	We know the engine is capable.	231183916	1478187409702	1478187409851	a	65
452162	4869575	We know the engine is capable.	We know the engine is capable.	231183920	1478187410565	1478187410632	BKSP	8
452162	4869575	We know the engine is capable.	We know the engine is capable.	231183925	1478187410712	1478187410821	BKSP	8
452162	4869575	We know the engine is capable.	We know the engine is capable.	231183929	1478187410921	1478187411042	a	65
452162	4869575	We know the engine is capable.	We know the engine is capable.	231183933	1478187411765	1478187411848	b	66
452162	4869575	We know the engine is capable.	We know the engine is capable.	231184093	1478187411880	1478187411988	;	186
452162	4869575	We know the engine is capable.	We know the engine is capable.	231184099	1478187411988	1478187412115	e	69
452162	4869575	We know the engine is capable.	We know the engine is capable.	231184105	1478187412395	1478187412455	BKSP	8
452162	4869575	We know the engine is capable.	We know the engine is capable.	231184110	1478187412555	1478187412615	BKSP	8
452162	4869575	We know the engine is capable.	We know the engine is capable.	231184115	1478187412715	1478187412805	BKSP	8
452162	4869575	We know the engine is capable.	We know the engine is capable.	231184121	1478187413892	1478187413978	b	66
452162	4869575	We know the engine is capable.	We know the engine is capable.	231184125	1478187414038	1478187414098	l	76
452162	4869575	We know the engine is capable.	We know the engine is capable.	231184130	1478187414138	1478187414295	e	69
452162	4869575	We know the engine is capable.	We know the engine is capable.	231184138	1478187414515	1478187414562	.	190
452162	4869600	Thank you for your prompt reply.	Thank you for your prompt rely.	231184406	1478187416905	1478187417098	SHIFT	16
452162	4869600	Thank you for your prompt reply.	Thank you for your prompt rely.	231184414	1478187417045	1478187417178	T	84
452162	4869600	Thank you for your prompt reply.	Thank you for your prompt rely.	231184423	1478187417138	1478187417238	h	72
452162	4869600	Thank you for your prompt reply.	Thank you for your prompt rely.	231184432	1478187417288	1478187417428	a	65
452162	4869600	Thank you for your prompt reply.	Thank you for your prompt rely.	231184439	1478187417448	1478187417538	n	78
452162	4869600	Thank you for your prompt reply.	Thank you for your prompt rely.	231184448	1478187417958	1478187418055	k	75
452162	4869600	Thank you for your prompt reply.	Thank you for your prompt rely.	231184506	1478187418117	1478187418218	 	32
452162	4869600	Thank you for your prompt reply.	Thank you for your prompt rely.	231184510	1478187418258	1478187418345	y	89
452162	4869600	Thank you for your prompt reply.	Thank you for your prompt rely.	231184512	1478187418405	1478187418555	o	79
452162	4869600	Thank you for your prompt reply.	Thank you for your prompt rely.	231184514	1478187418535	1478187418635	u	85
452162	4869600	Thank you for your prompt reply.	Thank you for your prompt rely.	231184516	1478187418665	1478187418805	 	32
452162	4869600	Thank you for your prompt reply.	Thank you for your prompt rely.	231184622	1478187418887	1478187418998	f	70
452162	4869600	Thank you for your prompt reply.	Thank you for your prompt rely.	231184625	1478187419238	1478187419355	o	79
452162	4869600	Thank you for your prompt reply.	Thank you for your prompt rely.	231184629	1478187419385	1478187419528	r	82
452162	4869600	Thank you for your prompt reply.	Thank you for your prompt rely.	231184635	1478187420505	1478187420692	 	32
452162	4869600	Thank you for your prompt reply.	Thank you for your prompt rely.	231184642	1478187420692	1478187420758	y	89
452162	4869600	Thank you for your prompt reply.	Thank you for your prompt rely.	231184671	1478187420890	1478187421019	o	79
452162	4869600	Thank you for your prompt reply.	Thank you for your prompt rely.	231184675	1478187420978	1478187421058	u	85
452162	4869600	Thank you for your prompt reply.	Thank you for your prompt rely.	231184680	1478187421108	1478187421240	r	82
452162	4869600	Thank you for your prompt reply.	Thank you for your prompt rely.	231184687	1478187421290	1478187421435	 	32
452162	4869600	Thank you for your prompt reply.	Thank you for your prompt rely.	231184691	1478187421445	1478187421559	p	80
452162	4869600	Thank you for your prompt reply.	Thank you for your prompt rely.	231184771	1478187421611	1478187421735	r	82
452162	4869600	Thank you for your prompt reply.	Thank you for your prompt rely.	231184776	1478187421735	1478187421795	o	79
452162	4869600	Thank you for your prompt reply.	Thank you for your prompt rely.	231184779	1478187422312	1478187422405	m	77
452162	4869600	Thank you for your prompt reply.	Thank you for your prompt rely.	231184783	1478187422485	1478187422568	p	80
452162	4869600	Thank you for your prompt reply.	Thank you for your prompt rely.	231184788	1478187423111	1478187423222	t	84
452162	4869600	Thank you for your prompt reply.	Thank you for your prompt rely.	231184832	1478187423274	1478187423418	 	32
452162	4869600	Thank you for your prompt reply.	Thank you for your prompt rely.	231184834	1478187423418	1478187423564	r	82
452162	4869600	Thank you for your prompt reply.	Thank you for your prompt rely.	231184837	1478187423542	1478187423685	e	69
452162	4869600	Thank you for your prompt reply.	Thank you for your prompt rely.	231184839	1478187423715	1478187423812	l	76
452162	4869600	Thank you for your prompt reply.	Thank you for your prompt rely.	231184841	1478187424052	1478187424155	y	89
452162	4869600	Thank you for your prompt reply.	Thank you for your prompt rely.	231184871	1478187424566	1478187424632	.	190
452162	4869619	Treasa knows the details.	TReasa knows the details/	231185138	1478187426978	1478187427635	SHIFT	16
452162	4869619	Treasa knows the details.	TReasa knows the details/	231185135	1478187427108	1478187427266	T	84
452162	4869619	Treasa knows the details.	TReasa knows the details/	231185142	1478187427556	1478187427705	R	82
452162	4869619	Treasa knows the details.	TReasa knows the details/	231185147	1478187427705	1478187427835	e	69
452162	4869619	Treasa knows the details.	TReasa knows the details/	231185151	1478187428278	1478187428451	a	65
452162	4869619	Treasa knows the details.	TReasa knows the details/	231185161	1478187428451	1478187428615	s	83
452162	4869619	Treasa knows the details.	TReasa knows the details/	231185220	1478187428615	1478187428772	a	65
452162	4869619	Treasa knows the details.	TReasa knows the details/	231185222	1478187429142	1478187429255	 	32
452162	4869619	Treasa knows the details.	TReasa knows the details/	231185224	1478187429355	1478187429431	k	75
452162	4869619	Treasa knows the details.	TReasa knows the details/	231185228	1478187429491	1478187429578	n	78
452162	4869619	Treasa knows the details.	TReasa knows the details/	231185230	1478187429668	1478187429802	o	79
452162	4869619	Treasa knows the details.	TReasa knows the details/	231185284	1478187430214	1478187430322	w	87
452162	4869619	Treasa knows the details.	TReasa knows the details/	231185288	1478187430422	1478187430586	s	83
452162	4869619	Treasa knows the details.	TReasa knows the details/	231185293	1478187430531	1478187430699	 	32
452162	4869619	Treasa knows the details.	TReasa knows the details/	231185296	1478187430665	1478187430772	t	84
452162	4869619	Treasa knows the details.	TReasa knows the details/	231185299	1478187430772	1478187430872	h	72
452162	4869619	Treasa knows the details.	TReasa knows the details/	231185350	1478187430872	1478187430962	e	69
452162	4869619	Treasa knows the details.	TReasa knows the details/	231185352	1478187430982	1478187431131	 	32
452162	4869619	Treasa knows the details.	TReasa knows the details/	231185355	1478187431078	1478187431191	d	68
452162	4869619	Treasa knows the details.	TReasa knows the details/	231185358	1478187431626	1478187431762	e	69
452162	4869619	Treasa knows the details.	TReasa knows the details/	231185362	1478187431802	1478187431922	t	84
452162	4869619	Treasa knows the details.	TReasa knows the details/	231185400	1478187431932	1478187432088	a	65
452162	4869619	Treasa knows the details.	TReasa knows the details/	231185406	1478187432088	1478187432187	i	73
452162	4869619	Treasa knows the details.	TReasa knows the details/	231185411	1478187432277	1478187432342	l	76
452162	4869619	Treasa knows the details.	TReasa knows the details/	231185415	1478187432412	1478187432562	s	83
452162	4869619	Treasa knows the details.	TReasa knows the details/	231185419	1478187432502	1478187432572	/	191
452162	4869628	I meant to try and explain, not to redo.	I meant to try and explain, not to rede.	231185652	1478187434900	1478187435115	SHIFT	16
452162	4869628	I meant to try and explain, not to redo.	I meant to try and explain, not to rede.	231185651	1478187435010	1478187435095	I	73
452162	4869628	I meant to try and explain, not to redo.	I meant to try and explain, not to rede.	231185653	1478187435175	1478187435222	n	78
452162	4869628	I meant to try and explain, not to redo.	I meant to try and explain, not to rede.	231185654	1478187435604	1478187435671	BKSP	8
452162	4869628	I meant to try and explain, not to redo.	I meant to try and explain, not to rede.	231185655	1478187435831	1478187435938	 	32
452162	4869628	I meant to try and explain, not to redo.	I meant to try and explain, not to rede.	231185657	1478187435978	1478187436082	m	77
452162	4869628	I meant to try and explain, not to redo.	I meant to try and explain, not to rede.	231185660	1478187436082	1478187436151	e	69
452162	4869628	I meant to try and explain, not to redo.	I meant to try and explain, not to rede.	231185690	1478187436151	1478187436331	a	65
452162	4869628	I meant to try and explain, not to redo.	I meant to try and explain, not to rede.	231185692	1478187436295	1478187436375	n	78
452162	4869628	I meant to try and explain, not to redo.	I meant to try and explain, not to rede.	231185695	1478187436435	1478187436578	t	84
452162	4869628	I meant to try and explain, not to redo.	I meant to try and explain, not to rede.	231185700	1478187436809	1478187436939	 	32
452162	4869628	I meant to try and explain, not to redo.	I meant to try and explain, not to rede.	231185759	1478187436902	1478187437035	t	84
452162	4869628	I meant to try and explain, not to redo.	I meant to try and explain, not to rede.	231185763	1478187437012	1478187437099	o	79
452162	4869628	I meant to try and explain, not to redo.	I meant to try and explain, not to rede.	231185768	1478187437159	1478187437255	 	32
452162	4869628	I meant to try and explain, not to redo.	I meant to try and explain, not to rede.	231185772	1478187437477	1478187437578	t	84
452162	4869628	I meant to try and explain, not to redo.	I meant to try and explain, not to rede.	231185778	1478187437688	1478187437778	r	82
452162	4869628	I meant to try and explain, not to redo.	I meant to try and explain, not to rede.	231185784	1478187437818	1478187437892	y	89
452162	4869628	I meant to try and explain, not to redo.	I meant to try and explain, not to rede.	231185804	1478187437974	1478187438052	 	32
452162	4869628	I meant to try and explain, not to redo.	I meant to try and explain, not to rede.	231185807	1478187438052	1478187438202	a	65
452162	4869628	I meant to try and explain, not to redo.	I meant to try and explain, not to rede.	231185809	1478187438202	1478187438275	n	78
452162	4869628	I meant to try and explain, not to redo.	I meant to try and explain, not to rede.	231185811	1478187438275	1478187438402	d	68
452162	4869628	I meant to try and explain, not to redo.	I meant to try and explain, not to rede.	231185849	1478187438392	1478187438530	 	32
452162	4869628	I meant to try and explain, not to redo.	I meant to try and explain, not to rede.	231185852	1478187438530	1478187438635	e	69
452162	4869628	I meant to try and explain, not to redo.	I meant to try and explain, not to rede.	231185856	1478187438745	1478187438898	x	88
452162	4869628	I meant to try and explain, not to redo.	I meant to try and explain, not to rede.	231185858	1478187438978	1478187439094	p	80
452162	4869628	I meant to try and explain, not to redo.	I meant to try and explain, not to rede.	231185860	1478187439234	1478187439386	a	65
452162	4869628	I meant to try and explain, not to redo.	I meant to try and explain, not to rede.	231185943	1478187439355	1478187439449	l	76
452162	4869628	I meant to try and explain, not to redo.	I meant to try and explain, not to rede.	231185949	1478187439803	1478187439865	BKSP	8
452162	4869628	I meant to try and explain, not to redo.	I meant to try and explain, not to rede.	231185954	1478187439945	1478187440038	BKSP	8
452162	4869628	I meant to try and explain, not to redo.	I meant to try and explain, not to rede.	231185960	1478187440308	1478187440410	l	76
452162	4869628	I meant to try and explain, not to redo.	I meant to try and explain, not to rede.	231185964	1478187440410	1478187440569	a	65
452162	4869628	I meant to try and explain, not to redo.	I meant to try and explain, not to rede.	231185971	1478187440505	1478187440579	i	73
452162	4869628	I meant to try and explain, not to redo.	I meant to try and explain, not to rede.	231185976	1478187440649	1478187440738	n	78
452162	4869628	I meant to try and explain, not to redo.	I meant to try and explain, not to rede.	231185981	1478187440808	1478187440855	 	32
452162	4869628	I meant to try and explain, not to redo.	I meant to try and explain, not to rede.	231186062	1478187441257	1478187441321	BKSP	8
452162	4869628	I meant to try and explain, not to redo.	I meant to try and explain, not to rede.	231186070	1478187441531	1478187441592	,	188
452162	4869628	I meant to try and explain, not to redo.	I meant to try and explain, not to rede.	231186077	1478187441722	1478187441895	 	32
452162	4869628	I meant to try and explain, not to redo.	I meant to try and explain, not to rede.	231186083	1478187441860	1478187441955	n	78
452162	4869628	I meant to try and explain, not to redo.	I meant to try and explain, not to rede.	231186089	1478187442005	1478187442091	o	79
452162	4869628	I meant to try and explain, not to redo.	I meant to try and explain, not to rede.	231186092	1478187442154	1478187442231	t	84
452162	4869628	I meant to try and explain, not to redo.	I meant to try and explain, not to rede.	231186138	1478187442888	1478187443012	 	32
452162	4869628	I meant to try and explain, not to redo.	I meant to try and explain, not to rede.	231186141	1478187442968	1478187443082	t	84
452162	4869628	I meant to try and explain, not to redo.	I meant to try and explain, not to rede.	231186146	1478187443082	1478187443161	o	79
452162	4869628	I meant to try and explain, not to redo.	I meant to try and explain, not to rede.	231186150	1478187443211	1478187443332	 	32
452162	4869628	I meant to try and explain, not to redo.	I meant to try and explain, not to rede.	231186154	1478187443332	1478187443458	r	82
452162	4869628	I meant to try and explain, not to redo.	I meant to try and explain, not to rede.	231186206	1478187443468	1478187443575	e	69
452162	4869628	I meant to try and explain, not to redo.	I meant to try and explain, not to rede.	231186214	1478187443797	1478187443897	d	68
452162	4869628	I meant to try and explain, not to redo.	I meant to try and explain, not to rede.	231186221	1478187443977	1478187444088	e	69
452162	4869628	I meant to try and explain, not to redo.	I meant to try and explain, not to rede.	231186229	1478187444098	1478187444185	.	190
452162	4869648	Let me know if you have further questions.	Let me know if you have further questions.	231186530	1478187448043	1478187448203	SHIFT	16
452162	4869648	Let me know if you have further questions.	Let me know if you have further questions.	231186537	1478187448165	1478187448295	L	76
452162	4869648	Let me know if you have further questions.	Let me know if you have further questions.	231186541	1478187448262	1478187448425	e	69
452162	4869648	Let me know if you have further questions.	Let me know if you have further questions.	231186545	1478187448905	1478187449035	t	84
452162	4869648	Let me know if you have further questions.	Let me know if you have further questions.	231186552	1478187449065	1478187449145	 	32
452162	4869648	Let me know if you have further questions.	Let me know if you have further questions.	231186558	1478187449205	1478187449285	n	78
452162	4869648	Let me know if you have further questions.	Let me know if you have further questions.	231186752	1478187449306	1478187449442	e	69
452162	4869648	Let me know if you have further questions.	Let me know if you have further questions.	231186761	1478187449752	1478187449815	BKSP	8
452162	4869648	Let me know if you have further questions.	Let me know if you have further questions.	231186772	1478187449925	1478187450008	BKSP	8
452162	4869648	Let me know if you have further questions.	Let me know if you have further questions.	231186780	1478187451458	1478187451578	m	77
452162	4869648	Let me know if you have further questions.	Let me know if you have further questions.	231186786	1478187451542	1478187451668	e	69
452162	4869648	Let me know if you have further questions.	Let me know if you have further questions.	231186790	1478187451658	1478187451762	 	32
452162	4869648	Let me know if you have further questions.	Let me know if you have further questions.	231186795	1478187451842	1478187451908	k	75
452162	4869648	Let me know if you have further questions.	Let me know if you have further questions.	231186828	1478187452120	1478187452212	n	78
452162	4869648	Let me know if you have further questions.	Let me know if you have further questions.	231186833	1478187452262	1478187452371	o	79
452162	4869648	Let me know if you have further questions.	Let me know if you have further questions.	231186840	1478187452371	1478187452523	w	87
452162	4869648	Let me know if you have further questions.	Let me know if you have further questions.	231186844	1478187452482	1478187452578	 	32
452162	4869648	Let me know if you have further questions.	Let me know if you have further questions.	231186848	1478187452648	1478187452755	i	73
452162	4869648	Let me know if you have further questions.	Let me know if you have further questions.	231186867	1478187452786	1478187452923	f	70
452162	4869648	Let me know if you have further questions.	Let me know if you have further questions.	231186871	1478187452868	1478187452963	 	32
452162	4869648	Let me know if you have further questions.	Let me know if you have further questions.	231186878	1478187453043	1478187453145	y	89
452162	4869648	Let me know if you have further questions.	Let me know if you have further questions.	231186882	1478187453205	1478187453315	o	79
452162	4869648	Let me know if you have further questions.	Let me know if you have further questions.	231186885	1478187453315	1478187453418	u	85
452162	4869648	Let me know if you have further questions.	Let me know if you have further questions.	231186933	1478187453480	1478187453572	 	32
452162	4869648	Let me know if you have further questions.	Let me know if you have further questions.	231186939	1478187453612	1478187453685	h	72
452162	4869648	Let me know if you have further questions.	Let me know if you have further questions.	231186948	1478187453685	1478187453851	a	65
452162	4869648	Let me know if you have further questions.	Let me know if you have further questions.	231186954	1478187453828	1478187453962	v	86
452162	4869648	Let me know if you have further questions.	Let me know if you have further questions.	231186959	1478187453972	1478187454123	e	69
452162	4869648	Let me know if you have further questions.	Let me know if you have further questions.	231187012	1478187454082	1478187454195	 	32
452162	4869648	Let me know if you have further questions.	Let me know if you have further questions.	231187016	1478187454345	1478187454438	f	70
452162	4869648	Let me know if you have further questions.	Let me know if you have further questions.	231187021	1478187454458	1478187454552	u	85
452162	4869648	Let me know if you have further questions.	Let me know if you have further questions.	231187024	1478187454582	1478187454658	r	82
452162	4869648	Let me know if you have further questions.	Let me know if you have further questions.	231187026	1478187454758	1478187454859	t	84
452162	4869648	Let me know if you have further questions.	Let me know if you have further questions.	231187066	1478187454835	1478187454888	h	72
452162	4869648	Let me know if you have further questions.	Let me know if you have further questions.	231187068	1478187455028	1478187455242	e	69
452162	4869648	Let me know if you have further questions.	Let me know if you have further questions.	231187075	1478187455162	1478187455302	r	82
452162	4869648	Let me know if you have further questions.	Let me know if you have further questions.	231187081	1478187455798	1478187455994	 	32
452162	4869648	Let me know if you have further questions.	Let me know if you have further questions.	231187089	1478187455994	1478187456139	q	81
452162	4869648	Let me know if you have further questions.	Let me know if you have further questions.	231187143	1478187456118	1478187456235	u	85
452162	4869648	Let me know if you have further questions.	Let me know if you have further questions.	231187153	1478187456198	1478187456312	e	69
452162	4869648	Let me know if you have further questions.	Let me know if you have further questions.	231187160	1478187456372	1478187456595	s	83
452162	4869648	Let me know if you have further questions.	Let me know if you have further questions.	231187171	1478187456548	1478187456712	t	84
452162	4869648	Let me know if you have further questions.	Let me know if you have further questions.	231187178	1478187456677	1478187456792	i	73
452162	4869648	Let me know if you have further questions.	Let me know if you have further questions.	231187185	1478187456842	1478187456938	o	79
452162	4869648	Let me know if you have further questions.	Let me know if you have further questions.	231187219	1478187456970	1478187457028	n	78
452162	4869648	Let me know if you have further questions.	Let me know if you have further questions.	231187223	1478187457605	1478187457705	s	83
452162	4869648	Let me know if you have further questions.	Let me know if you have further questions.	231187230	1478187457715	1478187457778	.	190
452162	4869678	Did you not read my first email?	Did you not read my first email?	231187474	1478187460538	1478187460683	SHIFT	16
452162	4869678	Did you not read my first email?	Did you not read my first email?	231187477	1478187460658	1478187460811	D	68
452162	4869678	Did you not read my first email?	Did you not read my first email?	231187485	1478187460771	1478187460888	i	73
452162	4869678	Did you not read my first email?	Did you not read my first email?	231187494	1478187461238	1478187461362	d	68
452162	4869678	Did you not read my first email?	Did you not read my first email?	231187500	1478187461314	1478187461442	 	32
452162	4869678	Did you not read my first email?	Did you not read my first email?	231187505	1478187461482	1478187461562	y	89
452162	4869678	Did you not read my first email?	Did you not read my first email?	231187542	1478187461624	1478187461752	o	79
452162	4869678	Did you not read my first email?	Did you not read my first email?	231187549	1478187461752	1478187461815	u	85
452162	4869678	Did you not read my first email?	Did you not read my first email?	231187556	1478187461915	1478187461995	 	32
452162	4869678	Did you not read my first email?	Did you not read my first email?	231187561	1478187462105	1478187462201	n	78
452162	4869678	Did you not read my first email?	Did you not read my first email?	231187570	1478187462211	1478187462315	e	69
452162	4869678	Did you not read my first email?	Did you not read my first email?	231187691	1478187462825	1478187462898	BKSP	8
452162	4869678	Did you not read my first email?	Did you not read my first email?	231187693	1478187463058	1478187463175	o	79
452162	4869678	Did you not read my first email?	Did you not read my first email?	231187694	1478187463175	1478187463302	t	84
452162	4869678	Did you not read my first email?	Did you not read my first email?	231187695	1478187463282	1478187463415	 	32
452162	4869678	Did you not read my first email?	Did you not read my first email?	231187697	1478187463685	1478187463862	r	82
452162	4869678	Did you not read my first email?	Did you not read my first email?	231187751	1478187463828	1478187463974	e	69
452162	4869678	Did you not read my first email?	Did you not read my first email?	231187752	1478187463974	1478187464155	a	65
452162	4869678	Did you not read my first email?	Did you not read my first email?	231187754	1478187464132	1478187464295	d	68
452162	4869678	Did you not read my first email?	Did you not read my first email?	231187759	1478187464325	1478187464392	 	32
452162	4869678	Did you not read my first email?	Did you not read my first email?	231187764	1478187464522	1478187464602	m	77
452162	4869678	Did you not read my first email?	Did you not read my first email?	231187770	1478187464722	1478187464802	y	89
452162	4869678	Did you not read my first email?	Did you not read my first email?	231187834	1478187464885	1478187464998	 	32
452162	4869678	Did you not read my first email?	Did you not read my first email?	231187838	1478187465188	1478187465285	f	70
452162	4869678	Did you not read my first email?	Did you not read my first email?	231187843	1478187465285	1478187465368	i	73
452162	4869678	Did you not read my first email?	Did you not read my first email?	231187846	1478187465428	1478187465541	r	82
452162	4869678	Did you not read my first email?	Did you not read my first email?	231187850	1478187465721	1478187465915	s	83
452162	4869678	Did you not read my first email?	Did you not read my first email?	231187906	1478187465882	1478187465988	t	84
452162	4869678	Did you not read my first email?	Did you not read my first email?	231187908	1478187466038	1478187466138	 	32
452162	4869678	Did you not read my first email?	Did you not read my first email?	231187911	1478187466298	1478187466435	e	69
452162	4869678	Did you not read my first email?	Did you not read my first email?	231187914	1478187466425	1478187466570	m	77
452162	4869678	Did you not read my first email?	Did you not read my first email?	231187918	1478187466548	1478187466725	a	65
452162	4869678	Did you not read my first email?	Did you not read my first email?	231187920	1478187466875	1478187466938	l	76
452162	4869678	Did you not read my first email?	Did you not read my first email?	231188031	1478187467240	1478187467298	BKSP	8
452162	4869678	Did you not read my first email?	Did you not read my first email?	231188036	1478187467668	1478187467732	i	73
452162	4869678	Did you not read my first email?	Did you not read my first email?	231188042	1478187467832	1478187467922	l	76
452162	4869678	Did you not read my first email?	Did you not read my first email?	231188047	1478187468326	1478187468422	?	191
452162	4869695	Here's the September purchase for September.	Here's the Septmeber purchasr for September	231188298	1478187471179	1478187471302	H	72
452162	4869695	Here's the September purchase for September.	Here's the Septmeber purchasr for September	231188302	1478187471302	1478187471478	e	69
452162	4869695	Here's the September purchase for September.	Here's the Septmeber purchasr for September	231188305	1478187471442	1478187471578	r	82
452162	4869695	Here's the September purchase for September.	Here's the Septmeber purchasr for September	231188309	1478187471578	1478187471682	e	69
452162	4869695	Here's the September purchase for September.	Here's the Septmeber purchasr for September	231188314	1478187472122	1478187472231	'	222
452162	4869695	Here's the September purchase for September.	Here's the Septmeber purchasr for September	231188343	1478187472263	1478187472410	s	83
452162	4869695	Here's the September purchase for September.	Here's the Septmeber purchasr for September	231188349	1478187472375	1478187472506	 	32
452162	4869695	Here's the September purchase for September.	Here's the Septmeber purchasr for September	231188352	1478187472468	1478187472582	t	84
452162	4869695	Here's the September purchase for September.	Here's the Septmeber purchasr for September	231188353	1478187472612	1478187472698	h	72
452162	4869695	Here's the September purchase for September.	Here's the Septmeber purchasr for September	231188487	1478187472635	1478187472740	e	69
452162	4869695	Here's the September purchase for September.	Here's the Septmeber purchasr for September	231188493	1478187472790	1478187472915	 	32
452162	4869695	Here's the September purchase for September.	Here's the Septmeber purchasr for September	231188498	1478187473075	1478187473268	SHIFT	16
452162	4869695	Here's the September purchase for September.	Here's the Septmeber purchasr for September	231188502	1478187473188	1478187473291	S	83
452162	4869695	Here's the September purchase for September.	Here's the Septmeber purchasr for September	231188505	1478187473258	1478187473465	E	69
452162	4869695	Here's the September purchase for September.	Here's the Septmeber purchasr for September	231188507	1478187473975	1478187474052	BKSP	8
452162	4869695	Here's the September purchase for September.	Here's the Septmeber purchasr for September	231188509	1478187474132	1478187474275	e	69
452162	4869695	Here's the September purchase for September.	Here's the Septmeber purchasr for September	231188510	1478187474345	1478187474498	p	80
452162	4869695	Here's the September purchase for September.	Here's the Septmeber purchasr for September	231188569	1478187474518	1478187474632	t	84
452162	4869695	Here's the September purchase for September.	Here's the Septmeber purchasr for September	231188573	1478187474712	1478187474842	m	77
452162	4869695	Here's the September purchase for September.	Here's the Septmeber purchasr for September	231188579	1478187474852	1478187474995	e	69
452162	4869695	Here's the September purchase for September.	Here's the Septmeber purchasr for September	231188584	1478187475191	1478187475238	b	66
452162	4869695	Here's the September purchase for September.	Here's the Septmeber purchasr for September	231188590	1478187475498	1478187475722	e	69
452162	4869695	Here's the September purchase for September.	Here's the Septmeber purchasr for September	231188702	1478187475668	1478187475814	r	82
452162	4869695	Here's the September purchase for September.	Here's the Septmeber purchasr for September	231188706	1478187476114	1478187476339	 	32
452162	4869695	Here's the September purchase for September.	Here's the Septmeber purchasr for September	231188714	1478187476339	1478187476438	p	80
452162	4869695	Here's the September purchase for September.	Here's the Septmeber purchasr for September	231188722	1478187476548	1478187476645	u	85
452162	4869695	Here's the September purchase for September.	Here's the Septmeber purchasr for September	231188729	1478187477258	1478187477365	r	82
452162	4869695	Here's the September purchase for September.	Here's the Septmeber purchasr for September	231188736	1478187477465	1478187477622	c	67
452162	4869695	Here's the September purchase for September.	Here's the Septmeber purchasr for September	231188779	1478187477622	1478187477722	h	72
452162	4869695	Here's the September purchase for September.	Here's the Septmeber purchasr for September	231188782	1478187477732	1478187477925	a	65
452162	4869695	Here's the September purchase for September.	Here's the Septmeber purchasr for September	231188785	1478187477945	1478187478008	s	83
452162	4869695	Here's the September purchase for September.	Here's the Septmeber purchasr for September	231188788	1478187478338	1478187478455	r	82
452162	4869695	Here's the September purchase for September.	Here's the Septmeber purchasr for September	231188790	1478187478485	1478187478635	 	32
452162	4869695	Here's the September purchase for September.	Here's the Septmeber purchasr for September	231188876	1478187478645	1478187478758	o	79
452162	4869695	Here's the September purchase for September.	Here's the Septmeber purchasr for September	231188881	1478187478818	1478187478902	f	70
452162	4869695	Here's the September purchase for September.	Here's the Septmeber purchasr for September	231188886	1478187478922	1478187479028	 	32
452162	4869695	Here's the September purchase for September.	Here's the Septmeber purchasr for September	231188892	1478187479460	1478187479542	BKSP	8
452162	4869695	Here's the September purchase for September.	Here's the Septmeber purchasr for September	231188895	1478187479642	1478187479705	BKSP	8
452162	4869695	Here's the September purchase for September.	Here's the Septmeber purchasr for September	231188898	1478187479795	1478187479875	BKSP	8
452162	4869695	Here's the September purchase for September.	Here's the Septmeber purchasr for September	231188901	1478187479945	1478187480069	f	70
452162	4869695	Here's the September purchase for September.	Here's the Septmeber purchasr for September	231188904	1478187480089	1478187480178	o	79
452162	4869695	Here's the September purchase for September.	Here's the Septmeber purchasr for September	231188943	1478187480188	1478187480331	r	82
452162	4869695	Here's the September purchase for September.	Here's the Septmeber purchasr for September	231188946	1478187480295	1478187480410	 	32
452162	4869695	Here's the September purchase for September.	Here's the Septmeber purchasr for September	231188948	1478187480600	1478187480812	SHIFT	16
452162	4869695	Here's the September purchase for September.	Here's the Septmeber purchasr for September	231188952	1478187480682	1478187480822	S	83
452162	4869695	Here's the September purchase for September.	Here's the Septmeber purchasr for September	231188955	1478187480812	1478187480962	e	69
452162	4869695	Here's the September purchase for September.	Here's the Septmeber purchasr for September	231188959	1478187481082	1478187481212	p	80
452162	4869695	Here's the September purchase for September.	Here's the Septmeber purchasr for September	231189034	1478187481354	1478187481465	t	84
452162	4869695	Here's the September purchase for September.	Here's the Septmeber purchasr for September	231189037	1478187481525	1478187481652	e	69
452162	4869695	Here's the September purchase for September.	Here's the Septmeber purchasr for September	231189041	1478187481652	1478187481735	m	77
452162	4869695	Here's the September purchase for September.	Here's the Septmeber purchasr for September	231189046	1478187481955	1478187482055	b	66
452162	4869695	Here's the September purchase for September.	Here's the Septmeber purchasr for September	231189053	1478187482105	1478187482282	e	69
452162	4869695	Here's the September purchase for September.	Here's the Septmeber purchasr for September	231189049	1478187482235	1478187482354	r	82
452162	4869713	He was recognized in his field as a pioneer.	He was reconginezed in his field as pioneer.	231189280	1478187484618	1478187484772	SHIFT	16
452162	4869713	He was recognized in his field as a pioneer.	He was reconginezed in his field as pioneer.	231189287	1478187484728	1478187484822	H	72
452162	4869713	He was recognized in his field as a pioneer.	He was reconginezed in his field as pioneer.	231189294	1478187484822	1478187484982	e	69
452162	4869713	He was recognized in his field as a pioneer.	He was reconginezed in his field as pioneer.	231189302	1478187485032	1478187485188	 	32
452162	4869713	He was recognized in his field as a pioneer.	He was reconginezed in his field as pioneer.	231189307	1478187485142	1478187485300	w	87
452162	4869713	He was recognized in his field as a pioneer.	He was reconginezed in his field as pioneer.	231189314	1478187485380	1478187485542	a	65
452162	4869713	He was recognized in his field as a pioneer.	He was reconginezed in his field as pioneer.	231189340	1478187485475	1478187485622	s	83
452162	4869713	He was recognized in his field as a pioneer.	He was reconginezed in his field as pioneer.	231189343	1478187485574	1478187485722	 	32
452162	4869713	He was recognized in his field as a pioneer.	He was reconginezed in his field as pioneer.	231189348	1478187485862	1478187485979	r	82
452162	4869713	He was recognized in his field as a pioneer.	He was reconginezed in his field as pioneer.	231189354	1478187485955	1478187486068	e	69
452162	4869713	He was recognized in his field as a pioneer.	He was reconginezed in his field as pioneer.	231189358	1478187486198	1478187486345	c	67
452162	4869713	He was recognized in his field as a pioneer.	He was reconginezed in his field as pioneer.	231189362	1478187486375	1478187486452	o	79
452162	4869713	He was recognized in his field as a pioneer.	He was reconginezed in his field as pioneer.	231189416	1478187486554	1478187486635	n	78
452162	4869713	He was recognized in his field as a pioneer.	He was reconginezed in his field as pioneer.	231189422	1478187486645	1478187486788	g	71
452162	4869713	He was recognized in his field as a pioneer.	He was reconginezed in his field as pioneer.	231189431	1478187486838	1478187486939	i	73
452162	4869713	He was recognized in his field as a pioneer.	He was reconginezed in his field as pioneer.	231189436	1478187486999	1478187487082	n	78
452162	4869713	He was recognized in his field as a pioneer.	He was reconginezed in his field as pioneer.	231189447	1478187487143	1478187487270	e	69
452162	4869713	He was recognized in his field as a pioneer.	He was reconginezed in his field as pioneer.	231189619	1478187487482	1478187487612	x	88
452162	4869713	He was recognized in his field as a pioneer.	He was reconginezed in his field as pioneer.	231189620	1478187488043	1478187488138	BKSP	8
452162	4869713	He was recognized in his field as a pioneer.	He was reconginezed in his field as pioneer.	231189621	1478187488738	1478187488868	z	90
452162	4869713	He was recognized in his field as a pioneer.	He was reconginezed in his field as pioneer.	231189625	1478187489078	1478187489222	e	69
452162	4869713	He was recognized in his field as a pioneer.	He was reconginezed in his field as pioneer.	231189627	1478187489352	1478187489483	d	68
452162	4869713	He was recognized in his field as a pioneer.	He was reconginezed in his field as pioneer.	231189670	1478187489451	1478187489556	 	32
452162	4869713	He was recognized in his field as a pioneer.	He was reconginezed in his field as pioneer.	231189673	1478187489606	1478187489706	i	73
452162	4869713	He was recognized in his field as a pioneer.	He was reconginezed in his field as pioneer.	231189675	1478187489746	1478187489862	n	78
452162	4869713	He was recognized in his field as a pioneer.	He was reconginezed in his field as pioneer.	231189676	1478187489882	1478187490043	 	32
452162	4869713	He was recognized in his field as a pioneer.	He was reconginezed in his field as pioneer.	231189677	1478187490020	1478187490138	h	72
452162	4869713	He was recognized in his field as a pioneer.	He was reconginezed in his field as pioneer.	231189679	1478187490148	1478187490265	i	73
452162	4869713	He was recognized in his field as a pioneer.	He was reconginezed in his field as pioneer.	231189752	1478187490265	1478187490396	s	83
452162	4869713	He was recognized in his field as a pioneer.	He was reconginezed in his field as pioneer.	231189755	1478187490375	1478187490549	 	32
452162	4869713	He was recognized in his field as a pioneer.	He was reconginezed in his field as pioneer.	231189759	1478187490569	1478187490678	f	70
452162	4869713	He was recognized in his field as a pioneer.	He was reconginezed in his field as pioneer.	231189763	1478187491458	1478187491562	i	73
452162	4869713	He was recognized in his field as a pioneer.	He was reconginezed in his field as pioneer.	231189766	1478187491562	1478187491655	e	69
452162	4869713	He was recognized in his field as a pioneer.	He was reconginezed in his field as pioneer.	231189911	1478187491747	1478187491795	d	68
452162	4869713	He was recognized in his field as a pioneer.	He was reconginezed in his field as pioneer.	231189917	1478187492197	1478187492275	BKSP	8
452162	4869713	He was recognized in his field as a pioneer.	He was reconginezed in his field as pioneer.	231189919	1478187492485	1478187492538	l	76
452162	4869713	He was recognized in his field as a pioneer.	He was reconginezed in his field as pioneer.	231189924	1478187492628	1478187492662	d	68
452162	4869713	He was recognized in his field as a pioneer.	He was reconginezed in his field as pioneer.	231189928	1478187493628	1478187493698	 	32
452162	4869713	He was recognized in his field as a pioneer.	He was reconginezed in his field as pioneer.	231189935	1478187493698	1478187493835	a	65
452162	4869713	He was recognized in his field as a pioneer.	He was reconginezed in his field as pioneer.	231189998	1478187493835	1478187493988	s	83
452162	4869713	He was recognized in his field as a pioneer.	He was reconginezed in his field as pioneer.	231190001	1478187493925	1478187494278	 	32
452162	4869713	He was recognized in his field as a pioneer.	He was reconginezed in his field as pioneer.	231190003	1478187494250	1478187494358	p	80
452162	4869713	He was recognized in his field as a pioneer.	He was reconginezed in his field as pioneer.	231190007	1478187494949	1478187495042	i	73
452162	4869713	He was recognized in his field as a pioneer.	He was reconginezed in his field as pioneer.	231190011	1478187495112	1478187495205	o	79
452162	4869713	He was recognized in his field as a pioneer.	He was reconginezed in his field as pioneer.	231190087	1478187495317	1478187495382	n	78
452162	4869713	He was recognized in his field as a pioneer.	He was reconginezed in his field as pioneer.	231190093	1478187495732	1478187495818	e	69
452162	4869713	He was recognized in his field as a pioneer.	He was reconginezed in his field as pioneer.	231190095	1478187495898	1478187496091	e	69
452162	4869713	He was recognized in his field as a pioneer.	He was reconginezed in his field as pioneer.	231190099	1478187496058	1478187496155	r	82
452162	4869713	He was recognized in his field as a pioneer.	He was reconginezed in his field as pioneer.	231190104	1478187496195	1478187496262	.	190
452162	4869735	He is expected to miss six weeks of action due to the procedure.	He is expected to miss six weeks of action due to the procedure.	231190359	1478187499142	1478187499305	SHIFT	16
452162	4869735	He is expected to miss six weeks of action due to the procedure.	He is expected to miss six weeks of action due to the procedure.	231190364	1478187499252	1478187499355	H	72
452162	4869735	He is expected to miss six weeks of action due to the procedure.	He is expected to miss six weeks of action due to the procedure.	231190370	1478187499365	1478187499528	e	69
452162	4869735	He is expected to miss six weeks of action due to the procedure.	He is expected to miss six weeks of action due to the procedure.	231190378	1478187499558	1478187499685	 	32
452162	4869735	He is expected to miss six weeks of action due to the procedure.	He is expected to miss six weeks of action due to the procedure.	231190383	1478187499705	1478187499835	i	73
452162	4869735	He is expected to miss six weeks of action due to the procedure.	He is expected to miss six weeks of action due to the procedure.	231190429	1478187499795	1478187499945	s	83
452162	4869735	He is expected to miss six weeks of action due to the procedure.	He is expected to miss six weeks of action due to the procedure.	231190435	1478187499908	1478187500005	 	32
452162	4869735	He is expected to miss six weeks of action due to the procedure.	He is expected to miss six weeks of action due to the procedure.	231190440	1478187500085	1478187500198	e	69
452162	4869735	He is expected to miss six weeks of action due to the procedure.	He is expected to miss six weeks of action due to the procedure.	231190445	1478187500343	1478187500488	x	88
452162	4869735	He is expected to miss six weeks of action due to the procedure.	He is expected to miss six weeks of action due to the procedure.	231190448	1478187500658	1478187500805	p	80
452162	4869735	He is expected to miss six weeks of action due to the procedure.	He is expected to miss six weeks of action due to the procedure.	231190454	1478187500805	1478187500915	e	69
452162	4869735	He is expected to miss six weeks of action due to the procedure.	He is expected to miss six weeks of action due to the procedure.	231190488	1478187501028	1478187501138	c	67
452162	4869735	He is expected to miss six weeks of action due to the procedure.	He is expected to miss six weeks of action due to the procedure.	231190494	1478187501218	1478187501332	t	84
452162	4869735	He is expected to miss six weeks of action due to the procedure.	He is expected to miss six weeks of action due to the procedure.	231190499	1478187501362	1478187501442	e	69
452162	4869735	He is expected to miss six weeks of action due to the procedure.	He is expected to miss six weeks of action due to the procedure.	231190507	1478187501522	1478187501668	d	68
452162	4869735	He is expected to miss six weeks of action due to the procedure.	He is expected to miss six weeks of action due to the procedure.	231190547	1478187501658	1478187501778	 	32
452162	4869735	He is expected to miss six weeks of action due to the procedure.	He is expected to miss six weeks of action due to the procedure.	231190548	1478187501735	1478187501878	t	84
452162	4869735	He is expected to miss six weeks of action due to the procedure.	He is expected to miss six weeks of action due to the procedure.	231190549	1478187501878	1478187501972	o	79
452162	4869735	He is expected to miss six weeks of action due to the procedure.	He is expected to miss six weeks of action due to the procedure.	231190551	1478187502012	1478187502102	 	32
452162	4869735	He is expected to miss six weeks of action due to the procedure.	He is expected to miss six weeks of action due to the procedure.	231190553	1478187502152	1478187502275	m	77
452162	4869735	He is expected to miss six weeks of action due to the procedure.	He is expected to miss six weeks of action due to the procedure.	231190557	1478187502325	1478187502424	i	73
452162	4869735	He is expected to miss six weeks of action due to the procedure.	He is expected to miss six weeks of action due to the procedure.	231190573	1478187502434	1478187502518	s	83
452162	4869735	He is expected to miss six weeks of action due to the procedure.	He is expected to miss six weeks of action due to the procedure.	231190574	1478187502578	1478187502698	s	83
452162	4869735	He is expected to miss six weeks of action due to the procedure.	He is expected to miss six weeks of action due to the procedure.	231190577	1478187502698	1478187502855	 	32
452162	4869735	He is expected to miss six weeks of action due to the procedure.	He is expected to miss six weeks of action due to the procedure.	231190581	1478187502885	1478187503003	s	83
452162	4869735	He is expected to miss six weeks of action due to the procedure.	He is expected to miss six weeks of action due to the procedure.	231190648	1478187502968	1478187503050	i	73
452162	4869735	He is expected to miss six weeks of action due to the procedure.	He is expected to miss six weeks of action due to the procedure.	231190654	1478187503110	1478187503271	x	88
452162	4869735	He is expected to miss six weeks of action due to the procedure.	He is expected to miss six weeks of action due to the procedure.	231190662	1478187503291	1478187503418	 	32
452162	4869735	He is expected to miss six weeks of action due to the procedure.	He is expected to miss six weeks of action due to the procedure.	231190667	1478187503490	1478187503610	w	87
452162	4869735	He is expected to miss six weeks of action due to the procedure.	He is expected to miss six weeks of action due to the procedure.	231190671	1478187503720	1478187503798	e	69
452162	4869735	He is expected to miss six weeks of action due to the procedure.	He is expected to miss six weeks of action due to the procedure.	231190674	1478187503858	1478187503992	e	69
452162	4869735	He is expected to miss six weeks of action due to the procedure.	He is expected to miss six weeks of action due to the procedure.	231190703	1478187503992	1478187504088	k	75
452162	4869735	He is expected to miss six weeks of action due to the procedure.	He is expected to miss six weeks of action due to the procedure.	231190706	1478187504098	1478187504235	s	83
452162	4869735	He is expected to miss six weeks of action due to the procedure.	He is expected to miss six weeks of action due to the procedure.	231190709	1478187504202	1478187504312	 	32
452162	4869735	He is expected to miss six weeks of action due to the procedure.	He is expected to miss six weeks of action due to the procedure.	231190712	1478187504362	1478187504475	o	79
452162	4869735	He is expected to miss six weeks of action due to the procedure.	He is expected to miss six weeks of action due to the procedure.	231190716	1478187504505	1478187504664	f	70
452162	4869735	He is expected to miss six weeks of action due to the procedure.	He is expected to miss six weeks of action due to the procedure.	231190749	1478187504565	1478187504696	 	32
452162	4869735	He is expected to miss six weeks of action due to the procedure.	He is expected to miss six weeks of action due to the procedure.	231190753	1478187504746	1478187504868	a	65
452162	4869735	He is expected to miss six weeks of action due to the procedure.	He is expected to miss six weeks of action due to the procedure.	231190759	1478187504978	1478187505138	c	67
452162	4869735	He is expected to miss six weeks of action due to the procedure.	He is expected to miss six weeks of action due to the procedure.	231190763	1478187505208	1478187505318	t	84
452162	4869735	He is expected to miss six weeks of action due to the procedure.	He is expected to miss six weeks of action due to the procedure.	231190770	1478187505259	1478187505368	i	73
452162	4869735	He is expected to miss six weeks of action due to the procedure.	He is expected to miss six weeks of action due to the procedure.	231190779	1478187505428	1478187505529	o	79
452162	4869735	He is expected to miss six weeks of action due to the procedure.	He is expected to miss six weeks of action due to the procedure.	231190845	1478187505539	1478187505638	n	78
452162	4869735	He is expected to miss six weeks of action due to the procedure.	He is expected to miss six weeks of action due to the procedure.	231190848	1478187505698	1478187505782	 	32
452162	4869735	He is expected to miss six weeks of action due to the procedure.	He is expected to miss six weeks of action due to the procedure.	231190851	1478187506438	1478187506603	d	68
452162	4869735	He is expected to miss six weeks of action due to the procedure.	He is expected to miss six weeks of action due to the procedure.	231190856	1478187506568	1478187506662	u	85
452162	4869735	He is expected to miss six weeks of action due to the procedure.	He is expected to miss six weeks of action due to the procedure.	231190862	1478187506742	1478187506948	e	69
452162	4869735	He is expected to miss six weeks of action due to the procedure.	He is expected to miss six weeks of action due to the procedure.	231190920	1478187507448	1478187507572	 	32
452162	4869735	He is expected to miss six weeks of action due to the procedure.	He is expected to miss six weeks of action due to the procedure.	231190923	1478187507528	1478187507642	t	84
452162	4869735	He is expected to miss six weeks of action due to the procedure.	He is expected to miss six weeks of action due to the procedure.	231190927	1478187507642	1478187507715	o	79
452162	4869735	He is expected to miss six weeks of action due to the procedure.	He is expected to miss six weeks of action due to the procedure.	231190932	1478187507755	1478187507862	 	32
452162	4869735	He is expected to miss six weeks of action due to the procedure.	He is expected to miss six weeks of action due to the procedure.	231191016	1478187507795	1478187507924	t	84
452162	4869735	He is expected to miss six weeks of action due to the procedure.	He is expected to miss six weeks of action due to the procedure.	231191018	1478187507944	1478187508018	h	72
452162	4869735	He is expected to miss six weeks of action due to the procedure.	He is expected to miss six weeks of action due to the procedure.	231191023	1478187508018	1478187508202	e	69
452162	4869735	He is expected to miss six weeks of action due to the procedure.	He is expected to miss six weeks of action due to the procedure.	231191027	1478187508522	1478187508742	 	32
452162	4869735	He is expected to miss six weeks of action due to the procedure.	He is expected to miss six weeks of action due to the procedure.	231191031	1478187508772	1478187508872	r	82
452162	4869735	He is expected to miss six weeks of action due to the procedure.	He is expected to miss six weeks of action due to the procedure.	231191041	1478187508902	1478187509012	p	80
452162	4869735	He is expected to miss six weeks of action due to the procedure.	He is expected to miss six weeks of action due to the procedure.	231191231	1478187509234	1478187509318	BKSP	8
452162	4869735	He is expected to miss six weeks of action due to the procedure.	He is expected to miss six weeks of action due to the procedure.	231191238	1478187509398	1478187509475	BKSP	8
452162	4869735	He is expected to miss six weeks of action due to the procedure.	He is expected to miss six weeks of action due to the procedure.	231191243	1478187509735	1478187509845	r	82
452162	4869735	He is expected to miss six weeks of action due to the procedure.	He is expected to miss six weeks of action due to the procedure.	231191249	1478187510215	1478187510295	BKSP	8
452162	4869735	He is expected to miss six weeks of action due to the procedure.	He is expected to miss six weeks of action due to the procedure.	231191255	1478187510795	1478187510905	p	80
452162	4869735	He is expected to miss six weeks of action due to the procedure.	He is expected to miss six weeks of action due to the procedure.	231191260	1478187510955	1478187511065	r	82
452162	4869735	He is expected to miss six weeks of action due to the procedure.	He is expected to miss six weeks of action due to the procedure.	231191265	1478187511738	1478187511828	o	79
452162	4869735	He is expected to miss six weeks of action due to the procedure.	He is expected to miss six weeks of action due to the procedure.	231191272	1478187511908	1478187512005	c	67
452162	4869735	He is expected to miss six weeks of action due to the procedure.	He is expected to miss six weeks of action due to the procedure.	231191375	1478187512595	1478187512715	e	69
452162	4869735	He is expected to miss six weeks of action due to the procedure.	He is expected to miss six weeks of action due to the procedure.	231191377	1478187512825	1478187512948	d	68
452162	4869735	He is expected to miss six weeks of action due to the procedure.	He is expected to miss six weeks of action due to the procedure.	231191380	1478187513655	1478187513755	u	85
452162	4869735	He is expected to miss six weeks of action due to the procedure.	He is expected to miss six weeks of action due to the procedure.	231191382	1478187513755	1478187513845	r	82
452162	4869735	He is expected to miss six weeks of action due to the procedure.	He is expected to miss six weeks of action due to the procedure.	231191384	1478187513845	1478187513995	e	69
452162	4869735	He is expected to miss six weeks of action due to the procedure.	He is expected to miss six weeks of action due to the procedure.	231191389	1478187513958	1478187514037	.	190
