PARTICIPANT_ID	TEST_SECTION_ID	SENTENCE	USER_INPUT	KEYSTROKE_ID	PRESS_TIME	RELEASE_TIME	LETTER	KEYCODE
454260	4891423	A bad thing has been turned into a good thing and.	A bad thing has been turned into a good thing ad.	232204624	1478202253466	1478202253589	CAPS_LOCK	20
454260	4891423	A bad thing has been turned into a good thing and.	A bad thing has been turned into a good thing ad.	232204631	1478202253590	1478202253788	A	65
454260	4891423	A bad thing has been turned into a good thing and.	A bad thing has been turned into a good thing ad.	232204637	1478202253668	1478202253789	CAPS_LOCK	20
454260	4891423	A bad thing has been turned into a good thing and.	A bad thing has been turned into a good thing ad.	232204647	1478202253764	1478202253892	 	32
454260	4891423	A bad thing has been turned into a good thing and.	A bad thing has been turned into a good thing ad.	232204657	1478202253893	1478202253980	b	66
454260	4891423	A bad thing has been turned into a good thing and.	A bad thing has been turned into a good thing ad.	232204664	1478202253981	1478202254142	a	65
454260	4891423	A bad thing has been turned into a good thing and.	A bad thing has been turned into a good thing ad.	232204699	1478202254060	1478202254172	d	68
454260	4891423	A bad thing has been turned into a good thing and.	A bad thing has been turned into a good thing ad.	232204710	1478202254132	1478202254220	 	32
454260	4891423	A bad thing has been turned into a good thing and.	A bad thing has been turned into a good thing ad.	232204722	1478202254268	1478202254404	t	84
454260	4891423	A bad thing has been turned into a good thing and.	A bad thing has been turned into a good thing ad.	232204733	1478202254332	1478202254428	h	72
454260	4891423	A bad thing has been turned into a good thing and.	A bad thing has been turned into a good thing ad.	232204742	1478202254405	1478202254556	i	73
454260	4891423	A bad thing has been turned into a good thing and.	A bad thing has been turned into a good thing ad.	232204750	1478202254557	1478202254708	n	78
454260	4891423	A bad thing has been turned into a good thing and.	A bad thing has been turned into a good thing ad.	232204760	1478202254684	1478202254804	g	71
454260	4891423	A bad thing has been turned into a good thing and.	A bad thing has been turned into a good thing ad.	232204766	1478202254764	1478202254884	 	32
454260	4891423	A bad thing has been turned into a good thing and.	A bad thing has been turned into a good thing ad.	232204773	1478202254887	1478202254988	h	72
454260	4891423	A bad thing has been turned into a good thing and.	A bad thing has been turned into a good thing ad.	232204780	1478202254989	1478202255172	a	65
454260	4891423	A bad thing has been turned into a good thing and.	A bad thing has been turned into a good thing ad.	232204811	1478202255060	1478202255177	s	83
454260	4891423	A bad thing has been turned into a good thing and.	A bad thing has been turned into a good thing ad.	232204816	1478202255124	1478202255244	 	32
454260	4891423	A bad thing has been turned into a good thing and.	A bad thing has been turned into a good thing ad.	232204825	1478202255260	1478202255348	b	66
454260	4891423	A bad thing has been turned into a good thing and.	A bad thing has been turned into a good thing ad.	232204837	1478202255324	1478202255396	e	69
454260	4891423	A bad thing has been turned into a good thing and.	A bad thing has been turned into a good thing ad.	232204847	1478202255476	1478202255596	e	69
454260	4891423	A bad thing has been turned into a good thing and.	A bad thing has been turned into a good thing ad.	232204856	1478202255564	1478202255660	n	78
454260	4891423	A bad thing has been turned into a good thing and.	A bad thing has been turned into a good thing ad.	232204876	1478202255628	1478202255772	 	32
454260	4891423	A bad thing has been turned into a good thing and.	A bad thing has been turned into a good thing ad.	232204881	1478202255756	1478202255852	t	84
454260	4891423	A bad thing has been turned into a good thing and.	A bad thing has been turned into a good thing ad.	232204888	1478202255852	1478202255940	u	85
454260	4891423	A bad thing has been turned into a good thing and.	A bad thing has been turned into a good thing ad.	232204893	1478202255941	1478202256045	r	82
454260	4891423	A bad thing has been turned into a good thing and.	A bad thing has been turned into a good thing ad.	232204900	1478202256028	1478202256124	n	78
454260	4891423	A bad thing has been turned into a good thing and.	A bad thing has been turned into a good thing ad.	232204966	1478202256092	1478202256212	e	69
454260	4891423	A bad thing has been turned into a good thing and.	A bad thing has been turned into a good thing ad.	232204970	1478202256276	1478202256412	d	68
454260	4891423	A bad thing has been turned into a good thing and.	A bad thing has been turned into a good thing ad.	232204979	1478202256452	1478202256580	 	32
454260	4891423	A bad thing has been turned into a good thing and.	A bad thing has been turned into a good thing ad.	232204989	1478202256795	1478202256916	i	73
454260	4891423	A bad thing has been turned into a good thing and.	A bad thing has been turned into a good thing ad.	232204996	1478202256844	1478202256956	n	78
454260	4891423	A bad thing has been turned into a good thing and.	A bad thing has been turned into a good thing ad.	232205020	1478202256916	1478202257036	t	84
454260	4891423	A bad thing has been turned into a good thing and.	A bad thing has been turned into a good thing ad.	232205026	1478202257036	1478202257164	o	79
454260	4891423	A bad thing has been turned into a good thing and.	A bad thing has been turned into a good thing ad.	232205030	1478202257084	1478202257204	 	32
454260	4891423	A bad thing has been turned into a good thing and.	A bad thing has been turned into a good thing ad.	232205037	1478202257164	1478202257307	a	65
454260	4891423	A bad thing has been turned into a good thing and.	A bad thing has been turned into a good thing ad.	232205044	1478202257275	1478202257411	 	32
454260	4891423	A bad thing has been turned into a good thing and.	A bad thing has been turned into a good thing ad.	232205074	1478202257371	1478202257499	g	71
454260	4891423	A bad thing has been turned into a good thing and.	A bad thing has been turned into a good thing ad.	232205077	1478202257540	1478202257603	o	79
454260	4891423	A bad thing has been turned into a good thing and.	A bad thing has been turned into a good thing ad.	232205081	1478202257676	1478202257771	o	79
454260	4891423	A bad thing has been turned into a good thing and.	A bad thing has been turned into a good thing ad.	232205085	1478202257772	1478202257868	d	68
454260	4891423	A bad thing has been turned into a good thing and.	A bad thing has been turned into a good thing ad.	232205090	1478202257859	1478202257979	 	32
454260	4891423	A bad thing has been turned into a good thing and.	A bad thing has been turned into a good thing ad.	232205121	1478202257963	1478202258075	t	84
454260	4891423	A bad thing has been turned into a good thing and.	A bad thing has been turned into a good thing ad.	232205125	1478202258027	1478202258123	h	72
454260	4891423	A bad thing has been turned into a good thing and.	A bad thing has been turned into a good thing ad.	232205134	1478202258076	1478202258187	i	73
454260	4891423	A bad thing has been turned into a good thing and.	A bad thing has been turned into a good thing ad.	232205146	1478202258219	1478202258323	n	78
454260	4891423	A bad thing has been turned into a good thing and.	A bad thing has been turned into a good thing ad.	232205153	1478202258267	1478202258363	g	71
454260	4891423	A bad thing has been turned into a good thing and.	A bad thing has been turned into a good thing ad.	232205160	1478202258395	1478202258515	 	32
454260	4891423	A bad thing has been turned into a good thing and.	A bad thing has been turned into a good thing ad.	232205182	1478202258520	1478202258675	a	65
454260	4891423	A bad thing has been turned into a good thing and.	A bad thing has been turned into a good thing ad.	232205189	1478202258676	1478202258763	d	68
454260	4891423	A bad thing has been turned into a good thing and.	A bad thing has been turned into a good thing ad.	232205196	1478202258811	1478202258939	.	190
454260	4891449	TXU is off, everyone else OK.	Txu is off, everyone else OK.	232205816	1478202263539	1478202263659	CAPS_LOCK	20
454260	4891449	TXU is off, everyone else OK.	Txu is off, everyone else OK.	232205824	1478202263660	1478202263795	T	84
454260	4891449	TXU is off, everyone else OK.	Txu is off, everyone else OK.	232205833	1478202263795	1478202263882	CAPS_LOCK	20
454260	4891449	TXU is off, everyone else OK.	Txu is off, everyone else OK.	232205840	1478202264003	1478202264114	x	88
454260	4891449	TXU is off, everyone else OK.	Txu is off, everyone else OK.	232205844	1478202264107	1478202264203	u	85
454260	4891449	TXU is off, everyone else OK.	Txu is off, everyone else OK.	232205849	1478202264754	1478202264866	 	32
454260	4891449	TXU is off, everyone else OK.	Txu is off, everyone else OK.	232205856	1478202264914	1478202265051	u	85
454260	4891449	TXU is off, everyone else OK.	Txu is off, everyone else OK.	232206005	1478202264947	1478202265055	i	73
454260	4891449	TXU is off, everyone else OK.	Txu is off, everyone else OK.	232206015	1478202265011	1478202265157	s	83
454260	4891449	TXU is off, everyone else OK.	Txu is off, everyone else OK.	232206026	1478202265106	1478202265226	 	32
454260	4891449	TXU is off, everyone else OK.	Txu is off, everyone else OK.	232206041	1478202265498	1478202265562	BKSP	8
454260	4891449	TXU is off, everyone else OK.	Txu is off, everyone else OK.	232206052	1478202265650	1478202265722	BKSP	8
454260	4891449	TXU is off, everyone else OK.	Txu is off, everyone else OK.	232206061	1478202265818	1478202265866	BKSP	8
454260	4891449	TXU is off, everyone else OK.	Txu is off, everyone else OK.	232206070	1478202265946	1478202266050	BKSP	8
454260	4891449	TXU is off, everyone else OK.	Txu is off, everyone else OK.	232206077	1478202266338	1478202266458	i	73
454260	4891449	TXU is off, everyone else OK.	Txu is off, everyone else OK.	232206086	1478202266434	1478202266626	s	83
454260	4891449	TXU is off, everyone else OK.	Txu is off, everyone else OK.	232206098	1478202266514	1478202266658	 	32
454260	4891449	TXU is off, everyone else OK.	Txu is off, everyone else OK.	232206102	1478202266714	1478202266810	o	79
454260	4891449	TXU is off, everyone else OK.	Txu is off, everyone else OK.	232206145	1478202267114	1478202267178	f	70
454260	4891449	TXU is off, everyone else OK.	Txu is off, everyone else OK.	232206151	1478202267258	1478202267362	f	70
454260	4891449	TXU is off, everyone else OK.	Txu is off, everyone else OK.	232206156	1478202267426	1478202267546	,	188
454260	4891449	TXU is off, everyone else OK.	Txu is off, everyone else OK.	232206161	1478202267547	1478202267682	 	32
454260	4891449	TXU is off, everyone else OK.	Txu is off, everyone else OK.	232206166	1478202267683	1478202267802	e	69
454260	4891449	TXU is off, everyone else OK.	Txu is off, everyone else OK.	232206185	1478202267827	1478202267938	v	86
454260	4891449	TXU is off, everyone else OK.	Txu is off, everyone else OK.	232206189	1478202267906	1478202268106	e	69
454260	4891449	TXU is off, everyone else OK.	Txu is off, everyone else OK.	232206193	1478202268034	1478202268162	r	82
454260	4891449	TXU is off, everyone else OK.	Txu is off, everyone else OK.	232206200	1478202268146	1478202268266	y	89
454260	4891449	TXU is off, everyone else OK.	Txu is off, everyone else OK.	232206236	1478202268234	1478202268370	o	79
454260	4891449	TXU is off, everyone else OK.	Txu is off, everyone else OK.	232206242	1478202268395	1478202268514	n	78
454260	4891449	TXU is off, everyone else OK.	Txu is off, everyone else OK.	232206247	1478202268426	1478202268546	e	69
454260	4891449	TXU is off, everyone else OK.	Txu is off, everyone else OK.	232206251	1478202268515	1478202268658	 	32
454260	4891449	TXU is off, everyone else OK.	Txu is off, everyone else OK.	232206259	1478202268626	1478202268746	e	69
454260	4891449	TXU is off, everyone else OK.	Txu is off, everyone else OK.	232206303	1478202268730	1478202268858	l	76
454260	4891449	TXU is off, everyone else OK.	Txu is off, everyone else OK.	232206309	1478202268826	1478202268994	s	83
454260	4891449	TXU is off, everyone else OK.	Txu is off, everyone else OK.	232206317	1478202268898	1478202269026	e	69
454260	4891449	TXU is off, everyone else OK.	Txu is off, everyone else OK.	232206321	1478202268986	1478202269082	 	32
454260	4891449	TXU is off, everyone else OK.	Txu is off, everyone else OK.	232206325	1478202269138	1478202269226	CAPS_LOCK	20
454260	4891449	TXU is off, everyone else OK.	Txu is off, everyone else OK.	232206330	1478202269227	1478202269354	O	79
454260	4891449	TXU is off, everyone else OK.	Txu is off, everyone else OK.	232206335	1478202269290	1478202269418	K	75
454260	4891449	TXU is off, everyone else OK.	Txu is off, everyone else OK.	232206338	1478202269419	1478202269514	CAPS_LOCK	20
454260	4891449	TXU is off, everyone else OK.	Txu is off, everyone else OK.	232206340	1478202269562	1478202269650	.	190
454260	4891472	Expect much better numbers on James  home turf this week.	Expect much better number on James home turf this wekk.	232206591	1478202271466	1478202271626	CAPS_LOCK	20
454260	4891472	Expect much better numbers on James  home turf this week.	Expect much better number on James home turf this wekk.	232206597	1478202271626	1478202271761	E	69
454260	4891472	Expect much better numbers on James  home turf this week.	Expect much better number on James home turf this wekk.	232206602	1478202271714	1478202271785	CAPS_LOCK	20
454260	4891472	Expect much better numbers on James  home turf this week.	Expect much better number on James home turf this wekk.	232206608	1478202271906	1478202272017	x	88
454260	4891472	Expect much better numbers on James  home turf this week.	Expect much better number on James home turf this wekk.	232206617	1478202272058	1478202272185	p	80
454260	4891472	Expect much better numbers on James  home turf this week.	Expect much better number on James home turf this wekk.	232206627	1478202272121	1478202272257	e	69
454260	4891472	Expect much better numbers on James  home turf this week.	Expect much better number on James home turf this wekk.	232206633	1478202272282	1478202272361	c	67
454260	4891472	Expect much better numbers on James  home turf this week.	Expect much better number on James home turf this wekk.	232206670	1478202272489	1478202272617	t	84
454260	4891472	Expect much better numbers on James  home turf this week.	Expect much better number on James home turf this wekk.	232206677	1478202272561	1478202272681	 	32
454260	4891472	Expect much better numbers on James  home turf this week.	Expect much better number on James home turf this wekk.	232206684	1478202272682	1478202272753	m	77
454260	4891472	Expect much better numbers on James  home turf this week.	Expect much better number on James home turf this wekk.	232206694	1478202272809	1478202272921	u	85
454260	4891472	Expect much better numbers on James  home turf this week.	Expect much better number on James home turf this wekk.	232206702	1478202272922	1478202273025	c	67
454260	4891472	Expect much better numbers on James  home turf this week.	Expect much better number on James home turf this wekk.	232206748	1478202273001	1478202273097	h	72
454260	4891472	Expect much better numbers on James  home turf this week.	Expect much better number on James home turf this wekk.	232206751	1478202273062	1478202273185	 	32
454260	4891472	Expect much better numbers on James  home turf this week.	Expect much better number on James home turf this wekk.	232206757	1478202273217	1478202273329	b	66
454260	4891472	Expect much better numbers on James  home turf this week.	Expect much better number on James home turf this wekk.	232206759	1478202273273	1478202273401	e	69
454260	4891472	Expect much better numbers on James  home turf this week.	Expect much better number on James home turf this wekk.	232206763	1478202273393	1478202273466	t	84
454260	4891472	Expect much better numbers on James  home turf this week.	Expect much better number on James home turf this wekk.	232206766	1478202273545	1478202273705	t	84
454260	4891472	Expect much better numbers on James  home turf this week.	Expect much better number on James home turf this wekk.	232206797	1478202273689	1478202273865	e	69
454260	4891472	Expect much better numbers on James  home turf this week.	Expect much better number on James home turf this wekk.	232206805	1478202273777	1478202273905	r	82
454260	4891472	Expect much better numbers on James  home turf this week.	Expect much better number on James home turf this wekk.	232206812	1478202273825	1478202273961	 	32
454260	4891472	Expect much better numbers on James  home turf this week.	Expect much better number on James home turf this wekk.	232206816	1478202273962	1478202274049	u	78
454260	4891472	Expect much better numbers on James  home turf this week.	Expect much better number on James home turf this wekk.	232206824	1478202274153	1478202274249	m	77
454260	4891472	Expect much better numbers on James  home turf this week.	Expect much better number on James home turf this wekk.	232206850	1478202274345	1478202274465	b	66
454260	4891472	Expect much better numbers on James  home turf this week.	Expect much better number on James home turf this wekk.	232206853	1478202274385	1478202274561	e	69
454260	4891472	Expect much better numbers on James  home turf this week.	Expect much better number on James home turf this wekk.	232206857	1478202274466	1478202274625	r	82
454260	4891472	Expect much better numbers on James  home turf this week.	Expect much better number on James home turf this wekk.	232206863	1478202274529	1478202274665	 	32
454260	4891472	Expect much better numbers on James  home turf this week.	Expect much better number on James home turf this wekk.	232206870	1478202274666	1478202274801	o	79
454260	4891472	Expect much better numbers on James  home turf this week.	Expect much better number on James home turf this wekk.	232206981	1478202274745	1478202274833	n	78
454260	4891472	Expect much better numbers on James  home turf this week.	Expect much better number on James home turf this wekk.	232206987	1478202274806	1478202274921	 	32
454260	4891472	Expect much better numbers on James  home turf this week.	Expect much better number on James home turf this wekk.	232206996	1478202274945	1478202275113	CAPS_LOCK	20
454260	4891472	Expect much better numbers on James  home turf this week.	Expect much better number on James home turf this wekk.	232207003	1478202275114	1478202275193	J	74
454260	4891472	Expect much better numbers on James  home turf this week.	Expect much better number on James home turf this wekk.	232207007	1478202275233	1478202275369	CAPS_LOCK	20
454260	4891472	Expect much better numbers on James  home turf this week.	Expect much better number on James home turf this wekk.	232207013	1478202275505	1478202275649	a	65
454260	4891472	Expect much better numbers on James  home turf this week.	Expect much better number on James home turf this wekk.	232207016	1478202275873	1478202276033	m	77
454260	4891472	Expect much better numbers on James  home turf this week.	Expect much better number on James home turf this wekk.	232207056	1478202275961	1478202276169	e	69
454260	4891472	Expect much better numbers on James  home turf this week.	Expect much better number on James home turf this wekk.	232207061	1478202276065	1478202276225	s	83
454260	4891472	Expect much better numbers on James  home turf this week.	Expect much better number on James home turf this wekk.	232207069	1478202276129	1478202276265	 	32
454260	4891472	Expect much better numbers on James  home turf this week.	Expect much better number on James home turf this wekk.	232207075	1478202276266	1478202276393	h	72
454260	4891472	Expect much better numbers on James  home turf this week.	Expect much better number on James home turf this wekk.	232207088	1478202276345	1478202276473	o	79
454260	4891472	Expect much better numbers on James  home turf this week.	Expect much better number on James home turf this wekk.	232207099	1478202276513	1478202276649	m	77
454260	4891472	Expect much better numbers on James  home turf this week.	Expect much better number on James home turf this wekk.	232207147	1478202276585	1478202276721	e	69
454260	4891472	Expect much better numbers on James  home turf this week.	Expect much better number on James home turf this wekk.	232207151	1478202276653	1478202276825	 	32
454260	4891472	Expect much better numbers on James  home turf this week.	Expect much better number on James home turf this wekk.	232207154	1478202276793	1478202276905	t	84
454260	4891472	Expect much better numbers on James  home turf this week.	Expect much better number on James home turf this wekk.	232207157	1478202276929	1478202277057	u	85
454260	4891472	Expect much better numbers on James  home turf this week.	Expect much better number on James home turf this wekk.	232207161	1478202277001	1478202277097	r	82
454260	4891472	Expect much better numbers on James  home turf this week.	Expect much better number on James home turf this wekk.	232207166	1478202277217	1478202277313	f	70
454260	4891472	Expect much better numbers on James  home turf this week.	Expect much better number on James home turf this wekk.	232207191	1478202277289	1478202277393	 	32
454260	4891472	Expect much better numbers on James  home turf this week.	Expect much better number on James home turf this wekk.	232207199	1478202277481	1478202277609	t	84
454260	4891472	Expect much better numbers on James  home turf this week.	Expect much better number on James home turf this wekk.	232207207	1478202277545	1478202277689	h	72
454260	4891472	Expect much better numbers on James  home turf this week.	Expect much better number on James home turf this wekk.	232207212	1478202277609	1478202277753	i	73
454260	4891472	Expect much better numbers on James  home turf this week.	Expect much better number on James home turf this wekk.	232207328	1478202277665	1478202277809	s	83
454260	4891472	Expect much better numbers on James  home turf this week.	Expect much better number on James home turf this wekk.	232207334	1478202277737	1478202277848	 	32
454260	4891472	Expect much better numbers on James  home turf this week.	Expect much better number on James home turf this wekk.	232207343	1478202277913	1478202278073	t	84
454260	4891472	Expect much better numbers on James  home turf this week.	Expect much better number on James home turf this wekk.	232207348	1478202278025	1478202278152	e	69
454260	4891472	Expect much better numbers on James  home turf this week.	Expect much better number on James home turf this wekk.	232207356	1478202278281	1478202278337	BKSP	8
454260	4891472	Expect much better numbers on James  home turf this week.	Expect much better number on James home turf this wekk.	232207365	1478202278417	1478202278528	BKSP	8
454260	4891472	Expect much better numbers on James  home turf this week.	Expect much better number on James home turf this wekk.	232207377	1478202278473	1478202278609	w	87
454260	4891472	Expect much better numbers on James  home turf this week.	Expect much better number on James home turf this wekk.	232207385	1478202278552	1478202278665	e	69
454260	4891472	Expect much better numbers on James  home turf this week.	Expect much better number on James home turf this wekk.	232207394	1478202278665	1478202278745	k	75
454260	4891472	Expect much better numbers on James  home turf this week.	Expect much better number on James home turf this wekk.	232207402	1478202278801	1478202278913	k	75
454260	4891472	Expect much better numbers on James  home turf this week.	Expect much better number on James home turf this wekk.	232207409	1478202279064	1478202279201	.	190
454260	4891490	Please let me know if there is any way that I can help you.	Please let me know if there is any way that I can help you.	232207809	1478202280864	1478202280976	CAPS_LOCK	20
454260	4891490	Please let me know if there is any way that I can help you.	Please let me know if there is any way that I can help you.	232207814	1478202281096	1478202281168	CAPS_LOCK	20
454260	4891490	Please let me know if there is any way that I can help you.	Please let me know if there is any way that I can help you.	232207817	1478202281521	1478202281624	CAPS_LOCK	20
454260	4891490	Please let me know if there is any way that I can help you.	Please let me know if there is any way that I can help you.	232207822	1478202281656	1478202281712	O	80
454260	4891490	Please let me know if there is any way that I can help you.	Please let me know if there is any way that I can help you.	232207825	1478202281713	1478202281840	CAPS_LOCK	20
454260	4891490	Please let me know if there is any way that I can help you.	Please let me know if there is any way that I can help you.	232207828	1478202282360	1478202282496	BKSP	8
454260	4891490	Please let me know if there is any way that I can help you.	Please let me know if there is any way that I can help you.	232207834	1478202282497	1478202282656	l	76
454260	4891490	Please let me know if there is any way that I can help you.	Please let me know if there is any way that I can help you.	232207838	1478202282657	1478202282784	e	69
454260	4891490	Please let me know if there is any way that I can help you.	Please let me know if there is any way that I can help you.	232207868	1478202282736	1478202283016	a	65
454260	4891490	Please let me know if there is any way that I can help you.	Please let me know if there is any way that I can help you.	232207876	1478202282960	1478202283129	s	83
454260	4891490	Please let me know if there is any way that I can help you.	Please let me know if there is any way that I can help you.	232207885	1478202283048	1478202283224	e	69
454260	4891490	Please let me know if there is any way that I can help you.	Please let me know if there is any way that I can help you.	232207891	1478202283112	1478202283256	 	32
454260	4891490	Please let me know if there is any way that I can help you.	Please let me know if there is any way that I can help you.	232207896	1478202283225	1478202283408	l	76
454260	4891490	Please let me know if there is any way that I can help you.	Please let me know if there is any way that I can help you.	232207922	1478202283320	1478202283528	e	69
454260	4891490	Please let me know if there is any way that I can help you.	Please let me know if there is any way that I can help you.	232207931	1478202283501	1478202283640	t	84
454260	4891490	Please let me know if there is any way that I can help you.	Please let me know if there is any way that I can help you.	232207944	1478202283600	1478202283728	 	32
454260	4891490	Please let me know if there is any way that I can help you.	Please let me know if there is any way that I can help you.	232207954	1478202283729	1478202283856	m	77
454260	4891490	Please let me know if there is any way that I can help you.	Please let me know if there is any way that I can help you.	232207963	1478202283800	1478202283929	e	69
454260	4891490	Please let me know if there is any way that I can help you.	Please let me know if there is any way that I can help you.	232207989	1478202283880	1478202283976	 	32
454260	4891490	Please let me know if there is any way that I can help you.	Please let me know if there is any way that I can help you.	232207992	1478202284024	1478202284128	k	75
454260	4891490	Please let me know if there is any way that I can help you.	Please let me know if there is any way that I can help you.	232207997	1478202284232	1478202284424	n	78
454260	4891490	Please let me know if there is any way that I can help you.	Please let me know if there is any way that I can help you.	232208006	1478202284304	1478202284464	o	79
454260	4891490	Please let me know if there is any way that I can help you.	Please let me know if there is any way that I can help you.	232208012	1478202284376	1478202284520	w	87
454260	4891490	Please let me know if there is any way that I can help you.	Please let me know if there is any way that I can help you.	232208044	1478202284464	1478202284584	 	32
454260	4891490	Please let me know if there is any way that I can help you.	Please let me know if there is any way that I can help you.	232208056	1478202284585	1478202284760	i	73
454260	4891490	Please let me know if there is any way that I can help you.	Please let me know if there is any way that I can help you.	232208072	1478202284648	1478202284776	f	70
454260	4891490	Please let me know if there is any way that I can help you.	Please let me know if there is any way that I can help you.	232208085	1478202284752	1478202284888	 	32
454260	4891490	Please let me know if there is any way that I can help you.	Please let me know if there is any way that I can help you.	232208097	1478202284864	1478202284976	t	84
454260	4891490	Please let me know if there is any way that I can help you.	Please let me know if there is any way that I can help you.	232208168	1478202284928	1478202285080	h	72
454260	4891490	Please let me know if there is any way that I can help you.	Please let me know if there is any way that I can help you.	232208175	1478202285112	1478202285240	r	82
454260	4891490	Please let me know if there is any way that I can help you.	Please let me know if there is any way that I can help you.	232208186	1478202285192	1478202285288	e	69
454260	4891490	Please let me know if there is any way that I can help you.	Please let me know if there is any way that I can help you.	232208196	1478202285448	1478202285520	BKSP	8
454260	4891490	Please let me know if there is any way that I can help you.	Please let me know if there is any way that I can help you.	232208209	1478202285608	1478202285680	BKSP	8
454260	4891490	Please let me know if there is any way that I can help you.	Please let me know if there is any way that I can help you.	232208218	1478202285704	1478202285824	e	69
454260	4891490	Please let me know if there is any way that I can help you.	Please let me know if there is any way that I can help you.	232208223	1478202285784	1478202285928	r	82
454260	4891490	Please let me know if there is any way that I can help you.	Please let me know if there is any way that I can help you.	232208252	1478202285888	1478202286024	e	69
454260	4891490	Please let me know if there is any way that I can help you.	Please let me know if there is any way that I can help you.	232208259	1478202285960	1478202286096	 	32
454260	4891490	Please let me know if there is any way that I can help you.	Please let me know if there is any way that I can help you.	232208269	1478202286096	1478202286223	i	73
454260	4891490	Please let me know if there is any way that I can help you.	Please let me know if there is any way that I can help you.	232208277	1478202286152	1478202286271	s	83
454260	4891490	Please let me know if there is any way that I can help you.	Please let me know if there is any way that I can help you.	232208289	1478202286216	1478202286351	 	32
454260	4891490	Please let me know if there is any way that I can help you.	Please let me know if there is any way that I can help you.	232208302	1478202286576	1478202286687	a	65
454260	4891490	Please let me know if there is any way that I can help you.	Please let me know if there is any way that I can help you.	232208367	1478202286664	1478202286743	n	78
454260	4891490	Please let me know if there is any way that I can help you.	Please let me know if there is any way that I can help you.	232208374	1478202286816	1478202286952	y	89
454260	4891490	Please let me know if there is any way that I can help you.	Please let me know if there is any way that I can help you.	232208380	1478202286952	1478202287071	 	32
454260	4891490	Please let me know if there is any way that I can help you.	Please let me know if there is any way that I can help you.	232208389	1478202287207	1478202287375	w	87
454260	4891490	Please let me know if there is any way that I can help you.	Please let me know if there is any way that I can help you.	232208399	1478202287279	1478202287447	a	65
454260	4891490	Please let me know if there is any way that I can help you.	Please let me know if there is any way that I can help you.	232208479	1478202287415	1478202287551	y	89
454260	4891490	Please let me know if there is any way that I can help you.	Please let me know if there is any way that I can help you.	232208486	1478202287768	1478202287903	 	32
454260	4891490	Please let me know if there is any way that I can help you.	Please let me know if there is any way that I can help you.	232208495	1478202288135	1478202288255	t	84
454260	4891490	Please let me know if there is any way that I can help you.	Please let me know if there is any way that I can help you.	232208507	1478202288232	1478202288376	h	72
454260	4891490	Please let me know if there is any way that I can help you.	Please let me know if there is any way that I can help you.	232208514	1478202288295	1478202288463	a	65
454260	4891490	Please let me know if there is any way that I can help you.	Please let me know if there is any way that I can help you.	232208573	1478202288407	1478202288527	t	84
454260	4891490	Please let me know if there is any way that I can help you.	Please let me know if there is any way that I can help you.	232208578	1478202288479	1478202288599	 	32
454260	4891490	Please let me know if there is any way that I can help you.	Please let me know if there is any way that I can help you.	232208588	1478202288775	1478202289032	SHIFT	16
454260	4891490	Please let me know if there is any way that I can help you.	Please let me know if there is any way that I can help you.	232208597	1478202288912	1478202289071	I	73
454260	4891490	Please let me know if there is any way that I can help you.	Please let me know if there is any way that I can help you.	232208605	1478202289032	1478202289239	 	32
454260	4891490	Please let me know if there is any way that I can help you.	Please let me know if there is any way that I can help you.	232208611	1478202289247	1478202289399	c	67
454260	4891490	Please let me know if there is any way that I can help you.	Please let me know if there is any way that I can help you.	232208647	1478202289343	1478202289503	a	65
454260	4891490	Please let me know if there is any way that I can help you.	Please let me know if there is any way that I can help you.	232208652	1478202289504	1478202289631	n	78
454260	4891490	Please let me know if there is any way that I can help you.	Please let me know if there is any way that I can help you.	232208658	1478202289632	1478202289751	 	32
454260	4891490	Please let me know if there is any way that I can help you.	Please let me know if there is any way that I can help you.	232208662	1478202289831	1478202289903	h	72
454260	4891490	Please let me know if there is any way that I can help you.	Please let me know if there is any way that I can help you.	232208672	1478202289904	1478202289991	e	69
454260	4891490	Please let me know if there is any way that I can help you.	Please let me know if there is any way that I can help you.	232208680	1478202289992	1478202290055	l	76
454260	4891490	Please let me know if there is any way that I can help you.	Please let me know if there is any way that I can help you.	232208826	1478202290151	1478202290279	p	80
454260	4891490	Please let me know if there is any way that I can help you.	Please let me know if there is any way that I can help you.	232208830	1478202290280	1478202290375	 	32
454260	4891490	Please let me know if there is any way that I can help you.	Please let me know if there is any way that I can help you.	232208839	1478202291007	1478202291127	y	89
454260	4891490	Please let me know if there is any way that I can help you.	Please let me know if there is any way that I can help you.	232208844	1478202291095	1478202291231	o	79
454260	4891490	Please let me know if there is any way that I can help you.	Please let me know if there is any way that I can help you.	232208944	1478202291151	1478202291271	u	85
454260	4891490	Please let me know if there is any way that I can help you.	Please let me know if there is any way that I can help you.	232208950	1478202291535	1478202291623	,	190
454260	4891490	Please let me know if there is any way that I can help you.	Please let me know if there is any way that I can help you.	232208956	1478202291943	1478202292023	BKSP	8
454260	4891519	Amy will be here to cover.	Amy will be here to cover.	232209208	1478202294311	1478202294438	CAPS_LOCK	20
454260	4891519	Amy will be here to cover.	Amy will be here to cover.	232209213	1478202294414	1478202294599	A	65
454260	4891519	Amy will be here to cover.	Amy will be here to cover.	232209218	1478202294534	1478202294622	CAPS_LOCK	20
454260	4891519	Amy will be here to cover.	Amy will be here to cover.	232209222	1478202294609	1478202294678	m	77
454260	4891519	Amy will be here to cover.	Amy will be here to cover.	232209226	1478202294767	1478202294846	y	89
454260	4891519	Amy will be here to cover.	Amy will be here to cover.	232209231	1478202294822	1478202294951	 	32
454260	4891519	Amy will be here to cover.	Amy will be here to cover.	232209300	1478202294894	1478202295037	w	87
454260	4891519	Amy will be here to cover.	Amy will be here to cover.	232209304	1478202295038	1478202295094	i	73
454260	4891519	Amy will be here to cover.	Amy will be here to cover.	232209309	1478202295214	1478202295270	l	76
454260	4891519	Amy will be here to cover.	Amy will be here to cover.	232209315	1478202295351	1478202295454	l	76
454260	4891519	Amy will be here to cover.	Amy will be here to cover.	232209321	1478202295455	1478202295558	 	32
454260	4891519	Amy will be here to cover.	Amy will be here to cover.	232209324	1478202295591	1478202295694	b	66
454260	4891519	Amy will be here to cover.	Amy will be here to cover.	232209348	1478202295670	1478202295790	e	69
454260	4891519	Amy will be here to cover.	Amy will be here to cover.	232209355	1478202295750	1478202295854	 	32
454260	4891519	Amy will be here to cover.	Amy will be here to cover.	232209361	1478202295855	1478202295982	h	72
454260	4891519	Amy will be here to cover.	Amy will be here to cover.	232209370	1478202295926	1478202296046	e	69
454260	4891519	Amy will be here to cover.	Amy will be here to cover.	232209377	1478202296047	1478202296190	r	82
454260	4891519	Amy will be here to cover.	Amy will be here to cover.	232209398	1478202296142	1478202296246	e	69
454260	4891519	Amy will be here to cover.	Amy will be here to cover.	232209403	1478202296196	1478202296326	 	32
454260	4891519	Amy will be here to cover.	Amy will be here to cover.	232209409	1478202296311	1478202296430	t	84
454260	4891519	Amy will be here to cover.	Amy will be here to cover.	232209418	1478202296406	1478202296526	o	79
454260	4891519	Amy will be here to cover.	Amy will be here to cover.	232209425	1478202296454	1478202296566	 	32
454260	4891519	Amy will be here to cover.	Amy will be here to cover.	232209433	1478202296662	1478202296758	c	67
454260	4891519	Amy will be here to cover.	Amy will be here to cover.	232209460	1478202296763	1478202296886	o	79
454260	4891519	Amy will be here to cover.	Amy will be here to cover.	232209461	1478202296862	1478202296942	v	86
454260	4891519	Amy will be here to cover.	Amy will be here to cover.	232209465	1478202296943	1478202297102	e	69
454260	4891519	Amy will be here to cover.	Amy will be here to cover.	232209471	1478202297054	1478202297182	r	82
454260	4891519	Amy will be here to cover.	Amy will be here to cover.	232209474	1478202297183	1478202297318	.	190
454260	4891532	I will be out on Friday, but any other day is fine.	I will be out on Friday, but any other is is fine.	232209772	1478202298846	1478202299070	CAPS_LOCK	20
454260	4891532	I will be out on Friday, but any other day is fine.	I will be out on Friday, but any other is is fine.	232209783	1478202299174	1478202299366	I	73
454260	4891532	I will be out on Friday, but any other day is fine.	I will be out on Friday, but any other is is fine.	232209793	1478202299366	1478202299494	CAPS_LOCK	20
454260	4891532	I will be out on Friday, but any other day is fine.	I will be out on Friday, but any other is is fine.	232209801	1478202299494	1478202299678	 	32
454260	4891532	I will be out on Friday, but any other day is fine.	I will be out on Friday, but any other is is fine.	232209811	1478202299686	1478202299814	w	87
454260	4891532	I will be out on Friday, but any other day is fine.	I will be out on Friday, but any other is is fine.	232209814	1478202299886	1478202299974	i	73
454260	4891532	I will be out on Friday, but any other day is fine.	I will be out on Friday, but any other is is fine.	232209821	1478202300478	1478202300534	l	76
454260	4891532	I will be out on Friday, but any other day is fine.	I will be out on Friday, but any other is is fine.	232209834	1478202300630	1478202300718	l	76
454260	4891532	I will be out on Friday, but any other day is fine.	I will be out on Friday, but any other is is fine.	232209836	1478202300718	1478202300830	 	32
454260	4891532	I will be out on Friday, but any other day is fine.	I will be out on Friday, but any other is is fine.	232209842	1478202300861	1478202300950	b	66
454260	4891532	I will be out on Friday, but any other day is fine.	I will be out on Friday, but any other is is fine.	232209848	1478202300934	1478202301045	e	69
454260	4891532	I will be out on Friday, but any other day is fine.	I will be out on Friday, but any other is is fine.	232209958	1478202301005	1478202301117	 	32
454260	4891532	I will be out on Friday, but any other day is fine.	I will be out on Friday, but any other is is fine.	232209967	1478202301357	1478202301597	o	79
454260	4891532	I will be out on Friday, but any other day is fine.	I will be out on Friday, but any other is is fine.	232209976	1478202301541	1478202301717	u	85
454260	4891532	I will be out on Friday, but any other day is fine.	I will be out on Friday, but any other is is fine.	232209982	1478202301662	1478202301821	t	84
454260	4891532	I will be out on Friday, but any other day is fine.	I will be out on Friday, but any other is is fine.	232209986	1478202301765	1478202301909	 	32
454260	4891532	I will be out on Friday, but any other day is fine.	I will be out on Friday, but any other is is fine.	232209991	1478202301941	1478202302157	o	79
454260	4891532	I will be out on Friday, but any other day is fine.	I will be out on Friday, but any other is is fine.	232210061	1478202302077	1478202302205	n	78
454260	4891532	I will be out on Friday, but any other day is fine.	I will be out on Friday, but any other is is fine.	232210070	1478202302174	1478202302293	 	32
454260	4891532	I will be out on Friday, but any other day is fine.	I will be out on Friday, but any other is is fine.	232210081	1478202302373	1478202302589	SHIFT	16
454260	4891532	I will be out on Friday, but any other day is fine.	I will be out on Friday, but any other is is fine.	232210087	1478202302493	1478202302613	F	70
454260	4891532	I will be out on Friday, but any other day is fine.	I will be out on Friday, but any other is is fine.	232210091	1478202302718	1478202302813	r	82
454260	4891532	I will be out on Friday, but any other day is fine.	I will be out on Friday, but any other is is fine.	232210095	1478202302845	1478202302989	i	73
454260	4891532	I will be out on Friday, but any other day is fine.	I will be out on Friday, but any other is is fine.	232210188	1478202302973	1478202303142	d	68
454260	4891532	I will be out on Friday, but any other day is fine.	I will be out on Friday, but any other is is fine.	232210194	1478202303094	1478202303230	a	65
454260	4891532	I will be out on Friday, but any other day is fine.	I will be out on Friday, but any other is is fine.	232210205	1478202303269	1478202303389	y	89
454260	4891532	I will be out on Friday, but any other day is fine.	I will be out on Friday, but any other is is fine.	232210214	1478202303558	1478202303670	,	188
454260	4891532	I will be out on Friday, but any other day is fine.	I will be out on Friday, but any other is is fine.	232210225	1478202303749	1478202303862	 	32
454260	4891532	I will be out on Friday, but any other day is fine.	I will be out on Friday, but any other is is fine.	232210233	1478202303950	1478202304134	b	66
454260	4891532	I will be out on Friday, but any other day is fine.	I will be out on Friday, but any other is is fine.	232210266	1478202304165	1478202304301	u	85
454260	4891532	I will be out on Friday, but any other day is fine.	I will be out on Friday, but any other is is fine.	232210268	1478202304325	1478202304485	t	84
454260	4891532	I will be out on Friday, but any other day is fine.	I will be out on Friday, but any other is is fine.	232210273	1478202304429	1478202304565	 	32
454260	4891532	I will be out on Friday, but any other day is fine.	I will be out on Friday, but any other is is fine.	232210279	1478202304597	1478202304741	a	65
454260	4891532	I will be out on Friday, but any other day is fine.	I will be out on Friday, but any other is is fine.	232210288	1478202304742	1478202304837	n	78
454260	4891532	I will be out on Friday, but any other day is fine.	I will be out on Friday, but any other is is fine.	232210330	1478202304885	1478202304997	y	89
454260	4891532	I will be out on Friday, but any other day is fine.	I will be out on Friday, but any other is is fine.	232210342	1478202304998	1478202305133	 	32
454260	4891532	I will be out on Friday, but any other day is fine.	I will be out on Friday, but any other is is fine.	232210351	1478202305134	1478202305253	o	79
454260	4891532	I will be out on Friday, but any other day is fine.	I will be out on Friday, but any other is is fine.	232210362	1478202305254	1478202305341	t	84
454260	4891532	I will be out on Friday, but any other day is fine.	I will be out on Friday, but any other is is fine.	232210373	1478202305365	1478202305477	h	72
454260	4891532	I will be out on Friday, but any other day is fine.	I will be out on Friday, but any other is is fine.	232210409	1478202305421	1478202305565	e	69
454260	4891532	I will be out on Friday, but any other day is fine.	I will be out on Friday, but any other is is fine.	232210419	1478202305501	1478202305629	r	82
454260	4891532	I will be out on Friday, but any other day is fine.	I will be out on Friday, but any other is is fine.	232210428	1478202305549	1478202305709	 	32
454260	4891532	I will be out on Friday, but any other day is fine.	I will be out on Friday, but any other is is fine.	232210441	1478202305710	1478202305838	i	73
454260	4891532	I will be out on Friday, but any other day is fine.	I will be out on Friday, but any other is is fine.	232210449	1478202305805	1478202305917	s	83
454260	4891532	I will be out on Friday, but any other day is fine.	I will be out on Friday, but any other is is fine.	232210572	1478202305877	1478202305981	 	32
454260	4891532	I will be out on Friday, but any other day is fine.	I will be out on Friday, but any other is is fine.	232210578	1478202306620	1478202306749	i	73
454260	4891532	I will be out on Friday, but any other day is fine.	I will be out on Friday, but any other is is fine.	232210589	1478202306669	1478202306805	s	83
454260	4891532	I will be out on Friday, but any other day is fine.	I will be out on Friday, but any other is is fine.	232210601	1478202306749	1478202306869	 	32
454260	4891532	I will be out on Friday, but any other day is fine.	I will be out on Friday, but any other is is fine.	232210609	1478202306901	1478202306941	n	78
454260	4891532	I will be out on Friday, but any other day is fine.	I will be out on Friday, but any other is is fine.	232210618	1478202307173	1478202307229	BKSP	8
454260	4891532	I will be out on Friday, but any other day is fine.	I will be out on Friday, but any other is is fine.	232210629	1478202307325	1478202307413	f	70
454260	4891532	I will be out on Friday, but any other day is fine.	I will be out on Friday, but any other is is fine.	232210686	1478202307381	1478202307549	i	73
454260	4891532	I will be out on Friday, but any other day is fine.	I will be out on Friday, but any other is is fine.	232210691	1478202307485	1478202307549	n	78
454260	4891532	I will be out on Friday, but any other day is fine.	I will be out on Friday, but any other is is fine.	232210695	1478202307573	1478202307653	e	69
454260	4891532	I will be out on Friday, but any other day is fine.	I will be out on Friday, but any other is is fine.	232210697	1478202307869	1478202308053	.	190
454260	4891553	This has now become the most pressing story in the capital.	This has now become the most pressing story in the capital.	232210881	1478202309804	1478202309980	CAPS_LOCK	20
454260	4891553	This has now become the most pressing story in the capital.	This has now become the most pressing story in the capital.	232210885	1478202310028	1478202310141	T	84
454260	4891553	This has now become the most pressing story in the capital.	This has now become the most pressing story in the capital.	232210891	1478202310213	1478202310340	CAPS_LOCK	20
454260	4891553	This has now become the most pressing story in the capital.	This has now become the most pressing story in the capital.	232210896	1478202310341	1478202310525	h	72
454260	4891553	This has now become the most pressing story in the capital.	This has now become the most pressing story in the capital.	232210904	1478202310412	1478202310556	i	73
454260	4891553	This has now become the most pressing story in the capital.	This has now become the most pressing story in the capital.	232210913	1478202310508	1478202310572	s	83
454260	4891553	This has now become the most pressing story in the capital.	This has now become the most pressing story in the capital.	232211029	1478202310557	1478202310661	 	32
454260	4891553	This has now become the most pressing story in the capital.	This has now become the most pressing story in the capital.	232211032	1478202311109	1478202311268	h	72
454260	4891553	This has now become the most pressing story in the capital.	This has now become the most pressing story in the capital.	232211035	1478202311197	1478202311381	a	65
454260	4891553	This has now become the most pressing story in the capital.	This has now become the most pressing story in the capital.	232211038	1478202311292	1478202311436	s	83
454260	4891553	This has now become the most pressing story in the capital.	This has now become the most pressing story in the capital.	232211043	1478202311391	1478202311485	 	32
454260	4891553	This has now become the most pressing story in the capital.	This has now become the most pressing story in the capital.	232211050	1478202311532	1478202311764	n	78
454260	4891553	This has now become the most pressing story in the capital.	This has now become the most pressing story in the capital.	232211173	1478202311629	1478202311788	o	79
454260	4891553	This has now become the most pressing story in the capital.	This has now become the most pressing story in the capital.	232211183	1478202311692	1478202311836	w	87
454260	4891553	This has now become the most pressing story in the capital.	This has now become the most pressing story in the capital.	232211196	1478202311789	1478202311909	 	32
454260	4891553	This has now become the most pressing story in the capital.	This has now become the most pressing story in the capital.	232211205	1478202311957	1478202311980	b	66
454260	4891553	This has now become the most pressing story in the capital.	This has now become the most pressing story in the capital.	232211213	1478202312285	1478202312372	BKSP	8
454260	4891553	This has now become the most pressing story in the capital.	This has now become the most pressing story in the capital.	232211225	1478202312820	1478202312932	b	66
454260	4891553	This has now become the most pressing story in the capital.	This has now become the most pressing story in the capital.	232211232	1478202312933	1478202313060	e	69
454260	4891553	This has now become the most pressing story in the capital.	This has now become the most pressing story in the capital.	232211260	1478202313012	1478202313124	c	67
454260	4891553	This has now become the most pressing story in the capital.	This has now become the most pressing story in the capital.	232211263	1478202313125	1478202313300	o	79
454260	4891553	This has now become the most pressing story in the capital.	This has now become the most pressing story in the capital.	232211268	1478202313236	1478202313404	m	77
454260	4891553	This has now become the most pressing story in the capital.	This has now become the most pressing story in the capital.	232211271	1478202313356	1478202313516	e	69
454260	4891553	This has now become the most pressing story in the capital.	This has now become the most pressing story in the capital.	232211274	1478202313764	1478202313908	 	32
454260	4891553	This has now become the most pressing story in the capital.	This has now become the most pressing story in the capital.	232211322	1478202313838	1478202313972	t	84
454260	4891553	This has now become the most pressing story in the capital.	This has now become the most pressing story in the capital.	232211330	1478202313940	1478202314076	h	72
454260	4891553	This has now become the most pressing story in the capital.	This has now become the most pressing story in the capital.	232211335	1478202314396	1478202314524	e	69
454260	4891553	This has now become the most pressing story in the capital.	This has now become the most pressing story in the capital.	232211338	1478202314540	1478202314668	 	32
454260	4891553	This has now become the most pressing story in the capital.	This has now become the most pressing story in the capital.	232211342	1478202314684	1478202314900	m	77
454260	4891553	This has now become the most pressing story in the capital.	This has now become the most pressing story in the capital.	232211366	1478202314764	1478202314956	o	79
454260	4891553	This has now become the most pressing story in the capital.	This has now become the most pressing story in the capital.	232211370	1478202314844	1478202315028	s	83
454260	4891553	This has now become the most pressing story in the capital.	This has now become the most pressing story in the capital.	232211374	1478202314957	1478202315084	t	84
454260	4891553	This has now become the most pressing story in the capital.	This has now become the most pressing story in the capital.	232211380	1478202315052	1478202315148	 	32
454260	4891553	This has now become the most pressing story in the capital.	This has now become the most pressing story in the capital.	232211382	1478202315149	1478202315324	p	80
454260	4891553	This has now become the most pressing story in the capital.	This has now become the most pressing story in the capital.	232211388	1478202315300	1478202315500	r	82
454260	4891553	This has now become the most pressing story in the capital.	This has now become the most pressing story in the capital.	232211417	1478202315388	1478202315540	e	69
454260	4891553	This has now become the most pressing story in the capital.	This has now become the most pressing story in the capital.	232211420	1478202315510	1478202315579	s	83
454260	4891553	This has now become the most pressing story in the capital.	This has now become the most pressing story in the capital.	232211424	1478202315651	1478202315724	s	83
454260	4891553	This has now become the most pressing story in the capital.	This has now become the most pressing story in the capital.	232211426	1478202315892	1478202316092	i	73
454260	4891553	This has now become the most pressing story in the capital.	This has now become the most pressing story in the capital.	232211428	1478202315988	1478202316164	n	78
454260	4891553	This has now become the most pressing story in the capital.	This has now become the most pressing story in the capital.	232211519	1478202316092	1478202316283	g	71
454260	4891553	This has now become the most pressing story in the capital.	This has now become the most pressing story in the capital.	232211529	1478202316307	1478202316443	 	32
454260	4891553	This has now become the most pressing story in the capital.	This has now become the most pressing story in the capital.	232211536	1478202316412	1478202316627	s	83
454260	4891553	This has now become the most pressing story in the capital.	This has now become the most pressing story in the capital.	232211545	1478202316572	1478202316692	t	84
454260	4891553	This has now become the most pressing story in the capital.	This has now become the most pressing story in the capital.	232211554	1478202316747	1478202316908	o	79
454260	4891553	This has now become the most pressing story in the capital.	This has now become the most pressing story in the capital.	232211560	1478202316909	1478202317043	r	82
454260	4891553	This has now become the most pressing story in the capital.	This has now become the most pressing story in the capital.	232211571	1478202317048	1478202317139	y	89
454260	4891553	This has now become the most pressing story in the capital.	This has now become the most pressing story in the capital.	232211572	1478202317171	1478202317307	 	32
454260	4891553	This has now become the most pressing story in the capital.	This has now become the most pressing story in the capital.	232211574	1478202317308	1478202317483	i	73
454260	4891553	This has now become the most pressing story in the capital.	This has now become the most pressing story in the capital.	232211603	1478202317404	1478202317499	n	78
454260	4891553	This has now become the most pressing story in the capital.	This has now become the most pressing story in the capital.	232211606	1478202317459	1478202317612	 	32
454260	4891553	This has now become the most pressing story in the capital.	This has now become the most pressing story in the capital.	232211608	1478202317556	1478202317667	t	84
454260	4891553	This has now become the most pressing story in the capital.	This has now become the most pressing story in the capital.	232211615	1478202317643	1478202317780	h	72
454260	4891553	This has now become the most pressing story in the capital.	This has now become the most pressing story in the capital.	232211622	1478202317739	1478202317843	e	69
454260	4891553	This has now become the most pressing story in the capital.	This has now become the most pressing story in the capital.	232211633	1478202317811	1478202317979	 	32
454260	4891553	This has now become the most pressing story in the capital.	This has now become the most pressing story in the capital.	232211716	1478202317915	1478202318083	c	67
454260	4891553	This has now become the most pressing story in the capital.	This has now become the most pressing story in the capital.	232211722	1478202318026	1478202318139	a	65
454260	4891553	This has now become the most pressing story in the capital.	This has now become the most pressing story in the capital.	232211729	1478202318395	1478202318620	p	80
454260	4891553	This has now become the most pressing story in the capital.	This has now become the most pressing story in the capital.	232211736	1478202318524	1478202318651	i	73
454260	4891553	This has now become the most pressing story in the capital.	This has now become the most pressing story in the capital.	232211741	1478202318621	1478202318795	t	84
454260	4891553	This has now become the most pressing story in the capital.	This has now become the most pressing story in the capital.	232211776	1478202318731	1478202318827	a	65
454260	4891553	This has now become the most pressing story in the capital.	This has now become the most pressing story in the capital.	232211785	1478202318801	1478202318867	l	76
454260	4891576	Brady only has five catches this season.	Brady only has five catches this season.	232212064	1478202320612	1478202320819	CAPS_LOCK	20
454260	4891576	Brady only has five catches this season.	Brady only has five catches this season.	232212068	1478202320923	1478202321035	V	66
454260	4891576	Brady only has five catches this season.	Brady only has five catches this season.	232212073	1478202321003	1478202321155	CAPS_LOCK	20
454260	4891576	Brady only has five catches this season.	Brady only has five catches this season.	232212078	1478202321563	1478202321691	BKSP	8
454260	4891576	Brady only has five catches this season.	Brady only has five catches this season.	232212082	1478202321692	1478202321803	r	82
454260	4891576	Brady only has five catches this season.	Brady only has five catches this season.	232212086	1478202321755	1478202321939	a	65
454260	4891576	Brady only has five catches this season.	Brady only has five catches this season.	232212142	1478202321915	1478202322043	d	68
454260	4891576	Brady only has five catches this season.	Brady only has five catches this season.	232212146	1478202322044	1478202322219	y	89
454260	4891576	Brady only has five catches this season.	Brady only has five catches this season.	232212154	1478202322259	1478202322387	 	32
454260	4891576	Brady only has five catches this season.	Brady only has five catches this season.	232212159	1478202322427	1478202322571	o	79
454260	4891576	Brady only has five catches this season.	Brady only has five catches this season.	232212164	1478202322499	1478202322611	n	78
454260	4891576	Brady only has five catches this season.	Brady only has five catches this season.	232212171	1478202322691	1478202322827	l	76
454260	4891576	Brady only has five catches this season.	Brady only has five catches this season.	232212189	1478202322851	1478202322995	y	89
454260	4891576	Brady only has five catches this season.	Brady only has five catches this season.	232212194	1478202322995	1478202323123	 	32
454260	4891576	Brady only has five catches this season.	Brady only has five catches this season.	232212199	1478202323123	1478202323227	h	72
454260	4891576	Brady only has five catches this season.	Brady only has five catches this season.	232212206	1478202323163	1478202323346	a	65
454260	4891576	Brady only has five catches this season.	Brady only has five catches this season.	232212262	1478202323242	1478202323386	s	83
454260	4891576	Brady only has five catches this season.	Brady only has five catches this season.	232212268	1478202323339	1478202323459	 	32
454260	4891576	Brady only has five catches this season.	Brady only has five catches this season.	232212271	1478202323531	1478202323611	f	70
454260	4891576	Brady only has five catches this season.	Brady only has five catches this season.	232212277	1478202323635	1478202323810	i	73
454260	4891576	Brady only has five catches this season.	Brady only has five catches this season.	232212282	1478202323754	1478202323890	v	86
454260	4891576	Brady only has five catches this season.	Brady only has five catches this season.	232212289	1478202323842	1478202323971	e	69
454260	4891576	Brady only has five catches this season.	Brady only has five catches this season.	232212323	1478202323938	1478202324091	 	32
454260	4891576	Brady only has five catches this season.	Brady only has five catches this season.	232212330	1478202324091	1478202324203	c	67
454260	4891576	Brady only has five catches this season.	Brady only has five catches this season.	232212336	1478202324162	1478202324355	a	65
454260	4891576	Brady only has five catches this season.	Brady only has five catches this season.	232212346	1478202324331	1478202324458	t	84
454260	4891576	Brady only has five catches this season.	Brady only has five catches this season.	232212360	1478202324618	1478202324722	c	67
454260	4891576	Brady only has five catches this season.	Brady only has five catches this season.	232212371	1478202324723	1478202324882	h	72
454260	4891576	Brady only has five catches this season.	Brady only has five catches this season.	232212410	1478202324810	1478202325042	e	69
454260	4891576	Brady only has five catches this season.	Brady only has five catches this season.	232212412	1478202324914	1478202325074	s	83
454260	4891576	Brady only has five catches this season.	Brady only has five catches this season.	232212419	1478202325043	1478202325163	 	32
454260	4891576	Brady only has five catches this season.	Brady only has five catches this season.	232212427	1478202325307	1478202325426	t	84
454260	4891576	Brady only has five catches this season.	Brady only has five catches this season.	232212436	1478202325394	1478202325571	h	72
454260	4891576	Brady only has five catches this season.	Brady only has five catches this season.	232212455	1478202325450	1478202325627	i	73
454260	4891576	Brady only has five catches this season.	Brady only has five catches this season.	232212456	1478202325515	1478202325627	s	83
454260	4891576	Brady only has five catches this season.	Brady only has five catches this season.	232212461	1478202325594	1478202325810	 	32
454260	4891576	Brady only has five catches this season.	Brady only has five catches this season.	232212464	1478202325739	1478202325866	s	83
454260	4891576	Brady only has five catches this season.	Brady only has five catches this season.	232212466	1478202325811	1478202325962	e	69
454260	4891576	Brady only has five catches this season.	Brady only has five catches this season.	232212469	1478202325963	1478202326203	a	65
454260	4891576	Brady only has five catches this season.	Brady only has five catches this season.	232212493	1478202326083	1478202326274	s	83
454260	4891576	Brady only has five catches this season.	Brady only has five catches this season.	232212500	1478202326275	1478202326442	o	79
454260	4891576	Brady only has five catches this season.	Brady only has five catches this season.	232212508	1478202326354	1478202326498	n	78
454260	4891597	New switches can also be added to the Paging System.	New switches can also be added to the Paging System	232212692	1478202328354	1478202328514	CAPS_LOCK	20
454260	4891597	New switches can also be added to the Paging System.	New switches can also be added to the Paging System	232212698	1478202328514	1478202328650	N	78
454260	4891597	New switches can also be added to the Paging System.	New switches can also be added to the Paging System	232212702	1478202328594	1478202328690	CAPS_LOCK	20
454260	4891597	New switches can also be added to the Paging System.	New switches can also be added to the Paging System	232212705	1478202328786	1478202329010	e	69
454260	4891597	New switches can also be added to the Paging System.	New switches can also be added to the Paging System	232212707	1478202328898	1478202329050	w	87
454260	4891597	New switches can also be added to the Paging System.	New switches can also be added to the Paging System	232212710	1478202329051	1478202329218	 	32
454260	4891597	New switches can also be added to the Paging System.	New switches can also be added to the Paging System	232212769	1478202329162	1478202329282	s	83
454260	4891597	New switches can also be added to the Paging System.	New switches can also be added to the Paging System	232212771	1478202329394	1478202329586	w	87
454260	4891597	New switches can also be added to the Paging System.	New switches can also be added to the Paging System	232212774	1478202329706	1478202329906	i	73
454260	4891597	New switches can also be added to the Paging System.	New switches can also be added to the Paging System	232212779	1478202329826	1478202329938	t	84
454260	4891597	New switches can also be added to the Paging System.	New switches can also be added to the Paging System	232212788	1478202330050	1478202330170	c	67
454260	4891597	New switches can also be added to the Paging System.	New switches can also be added to the Paging System	232212840	1478202330138	1478202330282	h	72
454260	4891597	New switches can also be added to the Paging System.	New switches can also be added to the Paging System	232212848	1478202330234	1478202330410	e	69
454260	4891597	New switches can also be added to the Paging System.	New switches can also be added to the Paging System	232212855	1478202330314	1478202330411	s	83
454260	4891597	New switches can also be added to the Paging System.	New switches can also be added to the Paging System	232212863	1478202330370	1478202330506	 	32
454260	4891597	New switches can also be added to the Paging System.	New switches can also be added to the Paging System	232212869	1478202330506	1478202330626	c	67
454260	4891597	New switches can also be added to the Paging System.	New switches can also be added to the Paging System	232212949	1478202330538	1478202330657	a	65
454260	4891597	New switches can also be added to the Paging System.	New switches can also be added to the Paging System	232212953	1478202330641	1478202330770	n	78
454260	4891597	New switches can also be added to the Paging System.	New switches can also be added to the Paging System	232212957	1478202330738	1478202330898	 	32
454260	4891597	New switches can also be added to the Paging System.	New switches can also be added to the Paging System	232212964	1478202330834	1478202330985	a	65
454260	4891597	New switches can also be added to the Paging System.	New switches can also be added to the Paging System	232212972	1478202331010	1478202331130	l	76
454260	4891597	New switches can also be added to the Paging System.	New switches can also be added to the Paging System	232212979	1478202331465	1478202331586	s	83
454260	4891597	New switches can also be added to the Paging System.	New switches can also be added to the Paging System	232213006	1478202331609	1478202331761	o	79
454260	4891597	New switches can also be added to the Paging System.	New switches can also be added to the Paging System	232213014	1478202331713	1478202331833	 	32
454260	4891597	New switches can also be added to the Paging System.	New switches can also be added to the Paging System	232213028	1478202331889	1478202332025	b	66
454260	4891597	New switches can also be added to the Paging System.	New switches can also be added to the Paging System	232213036	1478202331969	1478202332097	e	69
454260	4891597	New switches can also be added to the Paging System.	New switches can also be added to the Paging System	232213114	1478202332065	1478202332193	 	32
454260	4891597	New switches can also be added to the Paging System.	New switches can also be added to the Paging System	232213122	1478202332177	1478202332329	a	65
454260	4891597	New switches can also be added to the Paging System.	New switches can also be added to the Paging System	232213131	1478202332290	1478202332370	d	68
454260	4891597	New switches can also be added to the Paging System.	New switches can also be added to the Paging System	232213138	1478202332442	1478202332585	d	68
454260	4891597	New switches can also be added to the Paging System.	New switches can also be added to the Paging System	232213146	1478202332522	1478202332818	e	69
454260	4891597	New switches can also be added to the Paging System.	New switches can also be added to the Paging System	232213226	1478202332673	1478202332822	d	68
454260	4891597	New switches can also be added to the Paging System.	New switches can also be added to the Paging System	232213230	1478202332889	1478202333057	 	32
454260	4891597	New switches can also be added to the Paging System.	New switches can also be added to the Paging System	232213232	1478202333017	1478202333161	t	84
454260	4891597	New switches can also be added to the Paging System.	New switches can also be added to the Paging System	232213239	1478202333162	1478202333305	o	79
454260	4891597	New switches can also be added to the Paging System.	New switches can also be added to the Paging System	232213246	1478202333281	1478202333433	 	32
454260	4891597	New switches can also be added to the Paging System.	New switches can also be added to the Paging System	232213253	1478202333753	1478202333921	SHIFT	16
454260	4891597	New switches can also be added to the Paging System.	New switches can also be added to the Paging System	232213297	1478202333873	1478202333993	P	80
454260	4891597	New switches can also be added to the Paging System.	New switches can also be added to the Paging System	232213304	1478202334034	1478202334146	a	65
454260	4891597	New switches can also be added to the Paging System.	New switches can also be added to the Paging System	232213308	1478202334202	1478202334321	g	71
454260	4891597	New switches can also be added to the Paging System.	New switches can also be added to the Paging System	232213315	1478202334305	1478202334529	i	73
454260	4891597	New switches can also be added to the Paging System.	New switches can also be added to the Paging System	232213331	1478202334417	1478202334601	n	78
454260	4891597	New switches can also be added to the Paging System.	New switches can also be added to the Paging System	232213424	1478202334529	1478202334666	g	71
454260	4891597	New switches can also be added to the Paging System.	New switches can also be added to the Paging System	232213430	1478202334625	1478202334746	 	32
454260	4891597	New switches can also be added to the Paging System.	New switches can also be added to the Paging System	232213436	1478202334809	1478202335089	SHIFT	16
454260	4891597	New switches can also be added to the Paging System.	New switches can also be added to the Paging System	232213439	1478202334969	1478202335090	S	83
454260	4891597	New switches can also be added to the Paging System.	New switches can also be added to the Paging System	232213446	1478202335569	1478202335698	y	89
454260	4891597	New switches can also be added to the Paging System.	New switches can also be added to the Paging System	232213452	1478202335738	1478202335913	s	83
454260	4891597	New switches can also be added to the Paging System.	New switches can also be added to the Paging System	232213963	1478202335849	1478202336001	t	84
454260	4891597	New switches can also be added to the Paging System.	New switches can also be added to the Paging System	232213970	1478202336993	1478202337169	t	84
454260	4891597	New switches can also be added to the Paging System.	New switches can also be added to the Paging System	232213976	1478202337201	1478202337353	m	77
454260	4891597	New switches can also be added to the Paging System.	New switches can also be added to the Paging System	232213984	1478202337857	1478202337985	BKSP	8
454260	4891597	New switches can also be added to the Paging System.	New switches can also be added to the Paging System	232213991	1478202339025	1478202339121	BKSP	8
454260	4891597	New switches can also be added to the Paging System.	New switches can also be added to the Paging System	232213997	1478202339122	1478202339264	e	69
454260	4891597	New switches can also be added to the Paging System.	New switches can also be added to the Paging System	232214001	1478202339209	1478202339312	m	77
454260	4891597	New switches can also be added to the Paging System.	New switches can also be added to the Paging System	232214004	1478202339713	1478202340504	ARW_LEFT	37
454260	4891597	New switches can also be added to the Paging System.	New switches can also be added to the Paging System	232214010	1478202340608	1478202340688	ARW_LEFT	37
454260	4891597	New switches can also be added to the Paging System.	New switches can also be added to the Paging System	232214018	1478202340761	1478202340840	ARW_LEFT	37
454260	4891597	New switches can also be added to the Paging System.	New switches can also be added to the Paging System	232214029	1478202340912	1478202341033	ARW_LEFT	37
454260	4891597	New switches can also be added to the Paging System.	New switches can also be added to the Paging System	232214037	1478202341536	1478202341632	t	84
454260	4891597	New switches can also be added to the Paging System.	New switches can also be added to the Paging System	232214019	1478202341636	1478202341728	h	72
454260	4891597	New switches can also be added to the Paging System.	New switches can also be added to the Paging System	232214028	1478202341729	1478202341848	e	69
454260	4891597	New switches can also be added to the Paging System.	New switches can also be added to the Paging System	232214036	1478202341849	1478202341968	 	32
454260	4891624	Weinke could have a big game.	Weike could have a big game.	232214305	1478202343952	1478202344448	SHIFT	16
454260	4891624	Weinke could have a big game.	Weike could have a big game.	232214310	1478202344304	1478202344472	W	87
454260	4891624	Weinke could have a big game.	Weike could have a big game.	232214314	1478202344688	1478202344792	e	69
454260	4891624	Weinke could have a big game.	Weike could have a big game.	232214321	1478202344824	1478202344951	i	73
454260	4891624	Weinke could have a big game.	Weike could have a big game.	232214329	1478202345016	1478202345191	k	75
454260	4891624	Weinke could have a big game.	Weike could have a big game.	232214381	1478202345112	1478202345231	e	69
454260	4891624	Weinke could have a big game.	Weike could have a big game.	232214385	1478202345184	1478202345311	 	32
454260	4891624	Weinke could have a big game.	Weike could have a big game.	232214391	1478202345408	1478202345528	c	67
454260	4891624	Weinke could have a big game.	Weike could have a big game.	232214396	1478202345480	1478202345631	o	79
454260	4891624	Weinke could have a big game.	Weike could have a big game.	232214404	1478202345600	1478202345751	u	85
454260	4891624	Weinke could have a big game.	Weike could have a big game.	232214408	1478202345727	1478202345840	l	76
454260	4891624	Weinke could have a big game.	Weike could have a big game.	232214428	1478202345791	1478202345919	d	68
454260	4891624	Weinke could have a big game.	Weike could have a big game.	232214433	1478202345871	1478202345960	 	32
454260	4891624	Weinke could have a big game.	Weike could have a big game.	232214442	1478202345960	1478202346096	h	72
454260	4891624	Weinke could have a big game.	Weike could have a big game.	232214449	1478202346016	1478202346128	a	65
454260	4891624	Weinke could have a big game.	Weike could have a big game.	232214455	1478202346129	1478202346296	v	86
454260	4891624	Weinke could have a big game.	Weike could have a big game.	232214508	1478202346231	1478202346424	e	69
454260	4891624	Weinke could have a big game.	Weike could have a big game.	232214516	1478202346300	1478202346425	 	32
454260	4891624	Weinke could have a big game.	Weike could have a big game.	232214524	1478202346425	1478202346511	a	65
454260	4891624	Weinke could have a big game.	Weike could have a big game.	232214531	1478202346463	1478202346616	 	32
454260	4891624	Weinke could have a big game.	Weike could have a big game.	232214537	1478202347047	1478202347215	b	66
454260	4891624	Weinke could have a big game.	Weike could have a big game.	232214572	1478202347111	1478202347264	i	73
454260	4891624	Weinke could have a big game.	Weike could have a big game.	232214579	1478202347264	1478202347391	g	71
454260	4891624	Weinke could have a big game.	Weike could have a big game.	232214583	1478202347392	1478202347503	 	32
454260	4891624	Weinke could have a big game.	Weike could have a big game.	232214587	1478202347575	1478202347735	g	71
454260	4891624	Weinke could have a big game.	Weike could have a big game.	232214593	1478202347671	1478202347767	a	65
454260	4891624	Weinke could have a big game.	Weike could have a big game.	232214713	1478202347783	1478202347879	m	188
454260	4891624	Weinke could have a big game.	Weike could have a big game.	232214718	1478202347880	1478202347975	e	69
454260	4891624	Weinke could have a big game.	Weike could have a big game.	232214724	1478202348304	1478202348367	BKSP	8
454260	4891624	Weinke could have a big game.	Weike could have a big game.	232214728	1478202348455	1478202348519	BKSP	8
454260	4891624	Weinke could have a big game.	Weike could have a big game.	232214731	1478202348591	1478202348655	BKSP	8
454260	4891624	Weinke could have a big game.	Weike could have a big game.	232214734	1478202348743	1478202348823	m	77
454260	4891624	Weinke could have a big game.	Weike could have a big game.	232214739	1478202348911	1478202349016	e	69
454260	4891640	Fuel surcharges, if applicable are included in the fees listed.	FFuel surcharges, if applicable are included in the fees listed.	232250979	1478202783717	1478202783860	CAPS_LOCK	20
454260	4891640	Fuel surcharges, if applicable are included in the fees listed.	FFuel surcharges, if applicable are included in the fees listed.	232250983	1478202783884	1478202783925	F	70
454260	4891640	Fuel surcharges, if applicable are included in the fees listed.	FFuel surcharges, if applicable are included in the fees listed.	232250990	1478202783964	1478202784100	F	70
454260	4891640	Fuel surcharges, if applicable are included in the fees listed.	FFuel surcharges, if applicable are included in the fees listed.	232250997	1478202784061	1478202784180	CAPS_LOCK	20
454260	4891640	Fuel surcharges, if applicable are included in the fees listed.	FFuel surcharges, if applicable are included in the fees listed.	232251002	1478202784204	1478202784317	u	85
454260	4891640	Fuel surcharges, if applicable are included in the fees listed.	FFuel surcharges, if applicable are included in the fees listed.	232251009	1478202784318	1478202784444	e	69
454260	4891640	Fuel surcharges, if applicable are included in the fees listed.	FFuel surcharges, if applicable are included in the fees listed.	232251016	1478202784445	1478202784612	l	76
454260	4891640	Fuel surcharges, if applicable are included in the fees listed.	FFuel surcharges, if applicable are included in the fees listed.	232251063	1478202784524	1478202784692	 	32
454260	4891640	Fuel surcharges, if applicable are included in the fees listed.	FFuel surcharges, if applicable are included in the fees listed.	232251072	1478202784636	1478202784796	s	83
454260	4891640	Fuel surcharges, if applicable are included in the fees listed.	FFuel surcharges, if applicable are included in the fees listed.	232251079	1478202784764	1478202784932	u	85
454260	4891640	Fuel surcharges, if applicable are included in the fees listed.	FFuel surcharges, if applicable are included in the fees listed.	232251085	1478202784933	1478202785068	r	82
454260	4891640	Fuel surcharges, if applicable are included in the fees listed.	FFuel surcharges, if applicable are included in the fees listed.	232251090	1478202785252	1478202785388	c	67
454260	4891640	Fuel surcharges, if applicable are included in the fees listed.	FFuel surcharges, if applicable are included in the fees listed.	232251096	1478202785389	1478202785548	h	72
454260	4891640	Fuel surcharges, if applicable are included in the fees listed.	FFuel surcharges, if applicable are included in the fees listed.	232251116	1478202785460	1478202785652	a	65
454260	4891640	Fuel surcharges, if applicable are included in the fees listed.	FFuel surcharges, if applicable are included in the fees listed.	232251121	1478202785620	1478202785708	r	82
454260	4891640	Fuel surcharges, if applicable are included in the fees listed.	FFuel surcharges, if applicable are included in the fees listed.	232251128	1478202785812	1478202785996	g	71
454260	4891640	Fuel surcharges, if applicable are included in the fees listed.	FFuel surcharges, if applicable are included in the fees listed.	232251136	1478202785892	1478202786084	e	69
454260	4891640	Fuel surcharges, if applicable are included in the fees listed.	FFuel surcharges, if applicable are included in the fees listed.	232251144	1478202785997	1478202786100	s	83
454260	4891640	Fuel surcharges, if applicable are included in the fees listed.	FFuel surcharges, if applicable are included in the fees listed.	232251151	1478202786124	1478202786244	,	188
454260	4891640	Fuel surcharges, if applicable are included in the fees listed.	FFuel surcharges, if applicable are included in the fees listed.	232251219	1478202786236	1478202786364	 	32
454260	4891640	Fuel surcharges, if applicable are included in the fees listed.	FFuel surcharges, if applicable are included in the fees listed.	232251224	1478202786372	1478202786516	i	73
454260	4891640	Fuel surcharges, if applicable are included in the fees listed.	FFuel surcharges, if applicable are included in the fees listed.	232251232	1478202786452	1478202786556	f	70
454260	4891640	Fuel surcharges, if applicable are included in the fees listed.	FFuel surcharges, if applicable are included in the fees listed.	232251239	1478202786517	1478202786668	 	32
454260	4891640	Fuel surcharges, if applicable are included in the fees listed.	FFuel surcharges, if applicable are included in the fees listed.	232251247	1478202786636	1478202786796	a	65
454260	4891640	Fuel surcharges, if applicable are included in the fees listed.	FFuel surcharges, if applicable are included in the fees listed.	232251253	1478202787052	1478202787148	p	80
454260	4891640	Fuel surcharges, if applicable are included in the fees listed.	FFuel surcharges, if applicable are included in the fees listed.	232251297	1478202787220	1478202787348	p	80
454260	4891640	Fuel surcharges, if applicable are included in the fees listed.	FFuel surcharges, if applicable are included in the fees listed.	232251305	1478202787308	1478202787420	l	76
454260	4891640	Fuel surcharges, if applicable are included in the fees listed.	FFuel surcharges, if applicable are included in the fees listed.	232251313	1478202787500	1478202787652	i	73
454260	4891640	Fuel surcharges, if applicable are included in the fees listed.	FFuel surcharges, if applicable are included in the fees listed.	232251323	1478202787572	1478202787708	c	67
454260	4891640	Fuel surcharges, if applicable are included in the fees listed.	FFuel surcharges, if applicable are included in the fees listed.	232251386	1478202787652	1478202787796	a	65
454260	4891640	Fuel surcharges, if applicable are included in the fees listed.	FFuel surcharges, if applicable are included in the fees listed.	232251394	1478202787852	1478202787940	b	66
454260	4891640	Fuel surcharges, if applicable are included in the fees listed.	FFuel surcharges, if applicable are included in the fees listed.	232251400	1478202788060	1478202788164	l	76
454260	4891640	Fuel surcharges, if applicable are included in the fees listed.	FFuel surcharges, if applicable are included in the fees listed.	232251408	1478202788116	1478202788228	e	69
454260	4891640	Fuel surcharges, if applicable are included in the fees listed.	FFuel surcharges, if applicable are included in the fees listed.	232251415	1478202788212	1478202788350	 	32
454260	4891640	Fuel surcharges, if applicable are included in the fees listed.	FFuel surcharges, if applicable are included in the fees listed.	232251454	1478202788300	1478202788406	a	65
454260	4891640	Fuel surcharges, if applicable are included in the fees listed.	FFuel surcharges, if applicable are included in the fees listed.	232251458	1478202788408	1478202788564	r	82
454260	4891640	Fuel surcharges, if applicable are included in the fees listed.	FFuel surcharges, if applicable are included in the fees listed.	232251465	1478202788476	1478202788620	e	69
454260	4891640	Fuel surcharges, if applicable are included in the fees listed.	FFuel surcharges, if applicable are included in the fees listed.	232251468	1478202788556	1478202788708	 	32
454260	4891640	Fuel surcharges, if applicable are included in the fees listed.	FFuel surcharges, if applicable are included in the fees listed.	232251477	1478202788772	1478202788964	i	73
454260	4891640	Fuel surcharges, if applicable are included in the fees listed.	FFuel surcharges, if applicable are included in the fees listed.	232251510	1478202788852	1478202788968	n	78
454260	4891640	Fuel surcharges, if applicable are included in the fees listed.	FFuel surcharges, if applicable are included in the fees listed.	232251518	1478202788969	1478202789060	c	67
454260	4891640	Fuel surcharges, if applicable are included in the fees listed.	FFuel surcharges, if applicable are included in the fees listed.	232251525	1478202789060	1478202789212	l	76
454260	4891640	Fuel surcharges, if applicable are included in the fees listed.	FFuel surcharges, if applicable are included in the fees listed.	232251534	1478202789172	1478202789324	u	85
454260	4891640	Fuel surcharges, if applicable are included in the fees listed.	FFuel surcharges, if applicable are included in the fees listed.	232251540	1478202789252	1478202789396	d	68
454260	4891640	Fuel surcharges, if applicable are included in the fees listed.	FFuel surcharges, if applicable are included in the fees listed.	232251597	1478202789348	1478202789492	e	69
454260	4891640	Fuel surcharges, if applicable are included in the fees listed.	FFuel surcharges, if applicable are included in the fees listed.	232251603	1478202789492	1478202789620	d	68
454260	4891640	Fuel surcharges, if applicable are included in the fees listed.	FFuel surcharges, if applicable are included in the fees listed.	232251609	1478202789588	1478202789731	 	32
454260	4891640	Fuel surcharges, if applicable are included in the fees listed.	FFuel surcharges, if applicable are included in the fees listed.	232251616	1478202789700	1478202789868	i	73
454260	4891640	Fuel surcharges, if applicable are included in the fees listed.	FFuel surcharges, if applicable are included in the fees listed.	232251623	1478202789764	1478202789899	n	78
454260	4891640	Fuel surcharges, if applicable are included in the fees listed.	FFuel surcharges, if applicable are included in the fees listed.	232251629	1478202790244	1478202790404	 	32
454260	4891640	Fuel surcharges, if applicable are included in the fees listed.	FFuel surcharges, if applicable are included in the fees listed.	232251675	1478202790364	1478202790507	t	84
454260	4891640	Fuel surcharges, if applicable are included in the fees listed.	FFuel surcharges, if applicable are included in the fees listed.	232251681	1478202790468	1478202790635	h	72
454260	4891640	Fuel surcharges, if applicable are included in the fees listed.	FFuel surcharges, if applicable are included in the fees listed.	232251686	1478202790555	1478202790699	e	69
454260	4891640	Fuel surcharges, if applicable are included in the fees listed.	FFuel surcharges, if applicable are included in the fees listed.	232251694	1478202790628	1478202790771	 	32
454260	4891640	Fuel surcharges, if applicable are included in the fees listed.	FFuel surcharges, if applicable are included in the fees listed.	232251704	1478202790851	1478202790963	f	70
454260	4891640	Fuel surcharges, if applicable are included in the fees listed.	FFuel surcharges, if applicable are included in the fees listed.	232251710	1478202791067	1478202791180	e	69
454260	4891640	Fuel surcharges, if applicable are included in the fees listed.	FFuel surcharges, if applicable are included in the fees listed.	232251770	1478202791283	1478202791524	e	69
454260	4891640	Fuel surcharges, if applicable are included in the fees listed.	FFuel surcharges, if applicable are included in the fees listed.	232251782	1478202791395	1478202791563	s	83
454260	4891640	Fuel surcharges, if applicable are included in the fees listed.	FFuel surcharges, if applicable are included in the fees listed.	232251793	1478202791524	1478202791667	 	32
454260	4891640	Fuel surcharges, if applicable are included in the fees listed.	FFuel surcharges, if applicable are included in the fees listed.	232251804	1478202791755	1478202791964	l	76
454260	4891640	Fuel surcharges, if applicable are included in the fees listed.	FFuel surcharges, if applicable are included in the fees listed.	232251817	1478202791964	1478202792099	i	73
454260	4891640	Fuel surcharges, if applicable are included in the fees listed.	FFuel surcharges, if applicable are included in the fees listed.	232251853	1478202792043	1478202792203	s	83
454260	4891640	Fuel surcharges, if applicable are included in the fees listed.	FFuel surcharges, if applicable are included in the fees listed.	232251861	1478202792179	1478202792347	t	84
454260	4891640	Fuel surcharges, if applicable are included in the fees listed.	FFuel surcharges, if applicable are included in the fees listed.	232251869	1478202792275	1478202792419	e	69
454260	4891640	Fuel surcharges, if applicable are included in the fees listed.	FFuel surcharges, if applicable are included in the fees listed.	232251875	1478202792491	1478202792603	d	68
454260	4891640	Fuel surcharges, if applicable are included in the fees listed.	FFuel surcharges, if applicable are included in the fees listed.	232251883	1478202792659	1478202792827	.	190
454260	4892423	China replaced three ministers on Thursday.	China replace three ministers on Thursday.	232252079	1478202794499	1478202794779	SHIFT	16
454260	4892423	China replaced three ministers on Thursday.	China replace three ministers on Thursday.	232252085	1478202794659	1478202794780	C	67
454260	4892423	China replaced three ministers on Thursday.	China replace three ministers on Thursday.	232252089	1478202794907	1478202795043	h	72
454260	4892423	China replaced three ministers on Thursday.	China replace three ministers on Thursday.	232252101	1478202794979	1478202795172	i	73
454260	4892423	China replaced three ministers on Thursday.	China replace three ministers on Thursday.	232252107	1478202795155	1478202795307	n	78
454260	4892423	China replaced three ministers on Thursday.	China replace three ministers on Thursday.	232252155	1478202795291	1478202795443	a	65
454260	4892423	China replaced three ministers on Thursday.	China replace three ministers on Thursday.	232252160	1478202795379	1478202795531	 	32
454260	4892423	China replaced three ministers on Thursday.	China replace three ministers on Thursday.	232252170	1478202795531	1478202795699	r	82
454260	4892423	China replaced three ministers on Thursday.	China replace three ministers on Thursday.	232252181	1478202795611	1478202795747	e	69
454260	4892423	China replaced three ministers on Thursday.	China replace three ministers on Thursday.	232252189	1478202795739	1478202795923	p	80
454260	4892423	China replaced three ministers on Thursday.	China replace three ministers on Thursday.	232252238	1478202795843	1478202796003	l	76
454260	4892423	China replaced three ministers on Thursday.	China replace three ministers on Thursday.	232252244	1478202795939	1478202796067	a	65
454260	4892423	China replaced three ministers on Thursday.	China replace three ministers on Thursday.	232252249	1478202796043	1478202796171	c	67
454260	4892423	China replaced three ministers on Thursday.	China replace three ministers on Thursday.	232252256	1478202796147	1478202796299	e	69
454260	4892423	China replaced three ministers on Thursday.	China replace three ministers on Thursday.	232252263	1478202796251	1478202796371	 	32
454260	4892423	China replaced three ministers on Thursday.	China replace three ministers on Thursday.	232252271	1478202796395	1478202796515	t	84
454260	4892423	China replaced three ministers on Thursday.	China replace three ministers on Thursday.	232252293	1478202796519	1478202796643	h	72
454260	4892423	China replaced three ministers on Thursday.	China replace three ministers on Thursday.	232252297	1478202796683	1478202796843	r	82
454260	4892423	China replaced three ministers on Thursday.	China replace three ministers on Thursday.	232252304	1478202796771	1478202796875	e	69
454260	4892423	China replaced three ministers on Thursday.	China replace three ministers on Thursday.	232252311	1478202796955	1478202797099	e	69
454260	4892423	China replaced three ministers on Thursday.	China replace three ministers on Thursday.	232252400	1478202797091	1478202797234	 	32
454260	4892423	China replaced three ministers on Thursday.	China replace three ministers on Thursday.	232252403	1478202797259	1478202797395	m	77
454260	4892423	China replaced three ministers on Thursday.	China replace three ministers on Thursday.	232252412	1478202797355	1478202797530	i	73
454260	4892423	China replaced three ministers on Thursday.	China replace three ministers on Thursday.	232252417	1478202797578	1478202797763	n	78
454260	4892423	China replaced three ministers on Thursday.	China replace three ministers on Thursday.	232252507	1478202797667	1478202797834	i	73
454260	4892423	China replaced three ministers on Thursday.	China replace three ministers on Thursday.	232252513	1478202797723	1478202797867	s	83
454260	4892423	China replaced three ministers on Thursday.	China replace three ministers on Thursday.	232252520	1478202797890	1478202798026	t	84
454260	4892423	China replaced three ministers on Thursday.	China replace three ministers on Thursday.	232252522	1478202797995	1478202798163	e	69
454260	4892423	China replaced three ministers on Thursday.	China replace three ministers on Thursday.	232252527	1478202798130	1478202798322	r	82
454260	4892423	China replaced three ministers on Thursday.	China replace three ministers on Thursday.	232252531	1478202798274	1478202798450	s	83
454260	4892423	China replaced three ministers on Thursday.	China replace three ministers on Thursday.	232252536	1478202798498	1478202798626	 	32
454260	4892423	China replaced three ministers on Thursday.	China replace three ministers on Thursday.	232252606	1478202798602	1478202798843	o	79
454260	4892423	China replaced three ministers on Thursday.	China replace three ministers on Thursday.	232252617	1478202798722	1478202798843	n	78
454260	4892423	China replaced three ministers on Thursday.	China replace three ministers on Thursday.	232252628	1478202798778	1478202798898	 	32
454260	4892423	China replaced three ministers on Thursday.	China replace three ministers on Thursday.	232252638	1478202799002	1478202799218	SHIFT	16
454260	4892423	China replaced three ministers on Thursday.	China replace three ministers on Thursday.	232252650	1478202799122	1478202799250	T	84
454260	4892423	China replaced three ministers on Thursday.	China replace three ministers on Thursday.	232252659	1478202799338	1478202799482	h	72
454260	4892423	China replaced three ministers on Thursday.	China replace three ministers on Thursday.	232252665	1478202799507	1478202799634	u	85
454260	4892423	China replaced three ministers on Thursday.	China replace three ministers on Thursday.	232252828	1478202799638	1478202799770	r	82
454260	4892423	China replaced three ministers on Thursday.	China replace three ministers on Thursday.	232252831	1478202799850	1478202800050	s	83
454260	4892423	China replaced three ministers on Thursday.	China replace three ministers on Thursday.	232252836	1478202800490	1478202800651	d	68
454260	4892423	China replaced three ministers on Thursday.	China replace three ministers on Thursday.	232252841	1478202801226	1478202801298	a	65
454260	4892423	China replaced three ministers on Thursday.	China replace three ministers on Thursday.	232252850	1478202801346	1478202801458	y	89
454260	4892423	China replaced three ministers on Thursday.	China replace three ministers on Thursday.	232252892	1478202801666	1478202801746	.	190
454260	4892442	Rookie Kevin Swayne will move into the starting lineup.	Rookie Kevin Swayne will move into the starting lineup.	232253194	1478202803314	1478202803682	SHIFT	16
454260	4892442	Rookie Kevin Swayne will move into the starting lineup.	Rookie Kevin Swayne will move into the starting lineup.	232253200	1478202803546	1478202803714	R	82
454260	4892442	Rookie Kevin Swayne will move into the starting lineup.	Rookie Kevin Swayne will move into the starting lineup.	232253206	1478202803850	1478202803954	o	79
454260	4892442	Rookie Kevin Swayne will move into the starting lineup.	Rookie Kevin Swayne will move into the starting lineup.	232253209	1478202804066	1478202804138	k	75
454260	4892442	Rookie Kevin Swayne will move into the starting lineup.	Rookie Kevin Swayne will move into the starting lineup.	232253213	1478202804586	1478202804666	BKSP	8
454260	4892442	Rookie Kevin Swayne will move into the starting lineup.	Rookie Kevin Swayne will move into the starting lineup.	232253216	1478202804802	1478202804914	o	79
454260	4892442	Rookie Kevin Swayne will move into the starting lineup.	Rookie Kevin Swayne will move into the starting lineup.	232253219	1478202804986	1478202805089	k	75
454260	4892442	Rookie Kevin Swayne will move into the starting lineup.	Rookie Kevin Swayne will move into the starting lineup.	232253307	1478202805170	1478202805329	i	73
454260	4892442	Rookie Kevin Swayne will move into the starting lineup.	Rookie Kevin Swayne will move into the starting lineup.	232253310	1478202805266	1478202805401	e	69
454260	4892442	Rookie Kevin Swayne will move into the starting lineup.	Rookie Kevin Swayne will move into the starting lineup.	232253314	1478202805353	1478202805473	 	32
454260	4892442	Rookie Kevin Swayne will move into the starting lineup.	Rookie Kevin Swayne will move into the starting lineup.	232253316	1478202805634	1478202805985	SHIFT	16
454260	4892442	Rookie Kevin Swayne will move into the starting lineup.	Rookie Kevin Swayne will move into the starting lineup.	232253321	1478202805889	1478202806001	K	75
454260	4892442	Rookie Kevin Swayne will move into the starting lineup.	Rookie Kevin Swayne will move into the starting lineup.	232253326	1478202806145	1478202806289	e	69
454260	4892442	Rookie Kevin Swayne will move into the starting lineup.	Rookie Kevin Swayne will move into the starting lineup.	232253381	1478202806329	1478202806497	v	86
454260	4892442	Rookie Kevin Swayne will move into the starting lineup.	Rookie Kevin Swayne will move into the starting lineup.	232253384	1478202806449	1478202806665	i	73
454260	4892442	Rookie Kevin Swayne will move into the starting lineup.	Rookie Kevin Swayne will move into the starting lineup.	232253391	1478202806521	1478202806689	n	78
454260	4892442	Rookie Kevin Swayne will move into the starting lineup.	Rookie Kevin Swayne will move into the starting lineup.	232253399	1478202806609	1478202806762	 	32
454260	4892442	Rookie Kevin Swayne will move into the starting lineup.	Rookie Kevin Swayne will move into the starting lineup.	232253406	1478202806705	1478202807217	SHIFT	16
454260	4892442	Rookie Kevin Swayne will move into the starting lineup.	Rookie Kevin Swayne will move into the starting lineup.	232253499	1478202807089	1478202807257	S	83
454260	4892442	Rookie Kevin Swayne will move into the starting lineup.	Rookie Kevin Swayne will move into the starting lineup.	232253503	1478202807530	1478202807737	w	87
454260	4892442	Rookie Kevin Swayne will move into the starting lineup.	Rookie Kevin Swayne will move into the starting lineup.	232253507	1478202807649	1478202807833	a	65
454260	4892442	Rookie Kevin Swayne will move into the starting lineup.	Rookie Kevin Swayne will move into the starting lineup.	232253512	1478202807849	1478202807969	y	89
454260	4892442	Rookie Kevin Swayne will move into the starting lineup.	Rookie Kevin Swayne will move into the starting lineup.	232253517	1478202808089	1478202808225	n	78
454260	4892442	Rookie Kevin Swayne will move into the starting lineup.	Rookie Kevin Swayne will move into the starting lineup.	232253551	1478202808169	1478202808298	e	69
454260	4892442	Rookie Kevin Swayne will move into the starting lineup.	Rookie Kevin Swayne will move into the starting lineup.	232253554	1478202808241	1478202808361	 	32
454260	4892442	Rookie Kevin Swayne will move into the starting lineup.	Rookie Kevin Swayne will move into the starting lineup.	232253557	1478202808441	1478202808553	w	87
454260	4892442	Rookie Kevin Swayne will move into the starting lineup.	Rookie Kevin Swayne will move into the starting lineup.	232253560	1478202808554	1478202808625	i	73
454260	4892442	Rookie Kevin Swayne will move into the starting lineup.	Rookie Kevin Swayne will move into the starting lineup.	232253563	1478202808745	1478202808817	l	76
454260	4892442	Rookie Kevin Swayne will move into the starting lineup.	Rookie Kevin Swayne will move into the starting lineup.	232253568	1478202808889	1478202808993	l	76
454260	4892442	Rookie Kevin Swayne will move into the starting lineup.	Rookie Kevin Swayne will move into the starting lineup.	232253592	1478202808969	1478202809089	 	32
454260	4892442	Rookie Kevin Swayne will move into the starting lineup.	Rookie Kevin Swayne will move into the starting lineup.	232253596	1478202809153	1478202809329	m	77
454260	4892442	Rookie Kevin Swayne will move into the starting lineup.	Rookie Kevin Swayne will move into the starting lineup.	232253602	1478202809225	1478202809425	o	79
454260	4892442	Rookie Kevin Swayne will move into the starting lineup.	Rookie Kevin Swayne will move into the starting lineup.	232253606	1478202809377	1478202809505	v	86
454260	4892442	Rookie Kevin Swayne will move into the starting lineup.	Rookie Kevin Swayne will move into the starting lineup.	232253614	1478202809457	1478202809609	e	69
454260	4892442	Rookie Kevin Swayne will move into the starting lineup.	Rookie Kevin Swayne will move into the starting lineup.	232253659	1478202809537	1478202809634	 	32
454260	4892442	Rookie Kevin Swayne will move into the starting lineup.	Rookie Kevin Swayne will move into the starting lineup.	232253663	1478202809634	1478202809809	i	73
454260	4892442	Rookie Kevin Swayne will move into the starting lineup.	Rookie Kevin Swayne will move into the starting lineup.	232253669	1478202809705	1478202809841	n	78
454260	4892442	Rookie Kevin Swayne will move into the starting lineup.	Rookie Kevin Swayne will move into the starting lineup.	232253674	1478202809865	1478202810001	t	84
454260	4892442	Rookie Kevin Swayne will move into the starting lineup.	Rookie Kevin Swayne will move into the starting lineup.	232253679	1478202809985	1478202810153	o	79
454260	4892442	Rookie Kevin Swayne will move into the starting lineup.	Rookie Kevin Swayne will move into the starting lineup.	232253731	1478202810081	1478202810209	 	32
454260	4892442	Rookie Kevin Swayne will move into the starting lineup.	Rookie Kevin Swayne will move into the starting lineup.	232253736	1478202810157	1478202810257	t	84
454260	4892442	Rookie Kevin Swayne will move into the starting lineup.	Rookie Kevin Swayne will move into the starting lineup.	232253743	1478202810257	1478202810386	h	72
454260	4892442	Rookie Kevin Swayne will move into the starting lineup.	Rookie Kevin Swayne will move into the starting lineup.	232253749	1478202810329	1478202810449	e	69
454260	4892442	Rookie Kevin Swayne will move into the starting lineup.	Rookie Kevin Swayne will move into the starting lineup.	232253756	1478202810409	1478202810561	 	32
454260	4892442	Rookie Kevin Swayne will move into the starting lineup.	Rookie Kevin Swayne will move into the starting lineup.	232253762	1478202810785	1478202810921	s	83
454260	4892442	Rookie Kevin Swayne will move into the starting lineup.	Rookie Kevin Swayne will move into the starting lineup.	232253799	1478202810905	1478202811049	t	84
454260	4892442	Rookie Kevin Swayne will move into the starting lineup.	Rookie Kevin Swayne will move into the starting lineup.	232253808	1478202811050	1478202811265	a	65
454260	4892442	Rookie Kevin Swayne will move into the starting lineup.	Rookie Kevin Swayne will move into the starting lineup.	232253815	1478202811169	1478202811265	r	82
454260	4892442	Rookie Kevin Swayne will move into the starting lineup.	Rookie Kevin Swayne will move into the starting lineup.	232253820	1478202811353	1478202811473	t	84
454260	4892442	Rookie Kevin Swayne will move into the starting lineup.	Rookie Kevin Swayne will move into the starting lineup.	232253825	1478202811449	1478202811617	i	73
454260	4892442	Rookie Kevin Swayne will move into the starting lineup.	Rookie Kevin Swayne will move into the starting lineup.	232253893	1478202811529	1478202811657	n	78
454260	4892442	Rookie Kevin Swayne will move into the starting lineup.	Rookie Kevin Swayne will move into the starting lineup.	232253899	1478202811585	1478202811721	g	71
454260	4892442	Rookie Kevin Swayne will move into the starting lineup.	Rookie Kevin Swayne will move into the starting lineup.	232253908	1478202811673	1478202811785	 	32
454260	4892442	Rookie Kevin Swayne will move into the starting lineup.	Rookie Kevin Swayne will move into the starting lineup.	232253915	1478202811753	1478202811864	l	76
454260	4892442	Rookie Kevin Swayne will move into the starting lineup.	Rookie Kevin Swayne will move into the starting lineup.	232253922	1478202812057	1478202812193	n	73
454260	4892442	Rookie Kevin Swayne will move into the starting lineup.	Rookie Kevin Swayne will move into the starting lineup.	232253927	1478202812521	1478202812657	e	69
454260	4892442	Rookie Kevin Swayne will move into the starting lineup.	Rookie Kevin Swayne will move into the starting lineup.	232253950	1478202812661	1478202812896	u	85
454260	4892442	Rookie Kevin Swayne will move into the starting lineup.	Rookie Kevin Swayne will move into the starting lineup.	232253953	1478202812784	1478202812937	p	80
454260	4892442	Rookie Kevin Swayne will move into the starting lineup.	Rookie Kevin Swayne will move into the starting lineup.	232253955	1478202813128	1478202813321	.	190
454260	4892462	About 20 were Americans, but there were also Dutch and Swiss.	About 20 were Americans, but there were also Dutch and Swiss.	232254192	1478202814928	1478202815096	CAPS_LOCK	20
454260	4892462	About 20 were Americans, but there were also Dutch and Swiss.	About 20 were Americans, but there were also Dutch and Swiss.	232254196	1478202815064	1478202815264	A	65
454260	4892462	About 20 were Americans, but there were also Dutch and Swiss.	About 20 were Americans, but there were also Dutch and Swiss.	232254200	1478202815176	1478202815296	CAPS_LOCK	20
454260	4892462	About 20 were Americans, but there were also Dutch and Swiss.	About 20 were Americans, but there were also Dutch and Swiss.	232254203	1478202815265	1478202815352	b	66
454260	4892462	About 20 were Americans, but there were also Dutch and Swiss.	About 20 were Americans, but there were also Dutch and Swiss.	232254205	1478202815464	1478202815680	o	79
454260	4892462	About 20 were Americans, but there were also Dutch and Swiss.	About 20 were Americans, but there were also Dutch and Swiss.	232254210	1478202815552	1478202815744	u	85
454260	4892462	About 20 were Americans, but there were also Dutch and Swiss.	About 20 were Americans, but there were also Dutch and Swiss.	232254280	1478202815720	1478202815880	t	84
454260	4892462	About 20 were Americans, but there were also Dutch and Swiss.	About 20 were Americans, but there were also Dutch and Swiss.	232254286	1478202815881	1478202816056	 	32
454260	4892462	About 20 were Americans, but there were also Dutch and Swiss.	About 20 were Americans, but there were also Dutch and Swiss.	232254290	1478202816208	1478202816344	2	50
454260	4892462	About 20 were Americans, but there were also Dutch and Swiss.	About 20 were Americans, but there were also Dutch and Swiss.	232254296	1478202816345	1478202816528	0	48
454260	4892462	About 20 were Americans, but there were also Dutch and Swiss.	About 20 were Americans, but there were also Dutch and Swiss.	232254300	1478202816488	1478202816608	 	32
454260	4892462	About 20 were Americans, but there were also Dutch and Swiss.	About 20 were Americans, but there were also Dutch and Swiss.	232254301	1478202816640	1478202816872	w	87
454260	4892462	About 20 were Americans, but there were also Dutch and Swiss.	About 20 were Americans, but there were also Dutch and Swiss.	232254395	1478202817432	1478202817616	e	69
454260	4892462	About 20 were Americans, but there were also Dutch and Swiss.	About 20 were Americans, but there were also Dutch and Swiss.	232254400	1478202817704	1478202817944	r	82
454260	4892462	About 20 were Americans, but there were also Dutch and Swiss.	About 20 were Americans, but there were also Dutch and Swiss.	232254406	1478202817872	1478202818040	e	69
454260	4892462	About 20 were Americans, but there were also Dutch and Swiss.	About 20 were Americans, but there were also Dutch and Swiss.	232254413	1478202818008	1478202818152	 	32
454260	4892462	About 20 were Americans, but there were also Dutch and Swiss.	About 20 were Americans, but there were also Dutch and Swiss.	232254417	1478202818200	1478202818328	a	65
454260	4892462	About 20 were Americans, but there were also Dutch and Swiss.	About 20 were Americans, but there were also Dutch and Swiss.	232254527	1478202818368	1478202818424	m	77
454260	4892462	About 20 were Americans, but there were also Dutch and Swiss.	About 20 were Americans, but there were also Dutch and Swiss.	232254535	1478202818680	1478202818744	BKSP	8
454260	4892462	About 20 were Americans, but there were also Dutch and Swiss.	About 20 were Americans, but there were also Dutch and Swiss.	232254540	1478202818824	1478202818960	BKSP	8
454260	4892462	About 20 were Americans, but there were also Dutch and Swiss.	About 20 were Americans, but there were also Dutch and Swiss.	232254547	1478202818896	1478202819080	SHIFT	16
454260	4892462	About 20 were Americans, but there were also Dutch and Swiss.	About 20 were Americans, but there were also Dutch and Swiss.	232254552	1478202818976	1478202819120	A	65
454260	4892462	About 20 were Americans, but there were also Dutch and Swiss.	About 20 were Americans, but there were also Dutch and Swiss.	232254558	1478202819112	1478202819264	m	77
454260	4892462	About 20 were Americans, but there were also Dutch and Swiss.	About 20 were Americans, but there were also Dutch and Swiss.	232254563	1478202819264	1478202819392	e	69
454260	4892462	About 20 were Americans, but there were also Dutch and Swiss.	About 20 were Americans, but there were also Dutch and Swiss.	232254581	1478202819336	1478202819440	r	82
454260	4892462	About 20 were Americans, but there were also Dutch and Swiss.	About 20 were Americans, but there were also Dutch and Swiss.	232254584	1478202819441	1478202819608	i	73
454260	4892462	About 20 were Americans, but there were also Dutch and Swiss.	About 20 were Americans, but there were also Dutch and Swiss.	232254590	1478202819536	1478202819656	c	67
454260	4892462	About 20 were Americans, but there were also Dutch and Swiss.	About 20 were Americans, but there were also Dutch and Swiss.	232254598	1478202819608	1478202819720	a	65
454260	4892462	About 20 were Americans, but there were also Dutch and Swiss.	About 20 were Americans, but there were also Dutch and Swiss.	232254606	1478202819695	1478202819809	n	78
454260	4892462	About 20 were Americans, but there were also Dutch and Swiss.	About 20 were Americans, but there were also Dutch and Swiss.	232254613	1478202819811	1478202819918	s	83
454260	4892462	About 20 were Americans, but there were also Dutch and Swiss.	About 20 were Americans, but there were also Dutch and Swiss.	232254637	1478202819922	1478202819984	,	188
454260	4892462	About 20 were Americans, but there were also Dutch and Swiss.	About 20 were Americans, but there were also Dutch and Swiss.	232254645	1478202820007	1478202820128	 	32
454260	4892462	About 20 were Americans, but there were also Dutch and Swiss.	About 20 were Americans, but there were also Dutch and Swiss.	232254654	1478202820151	1478202820296	b	66
454260	4892462	About 20 were Americans, but there were also Dutch and Swiss.	About 20 were Americans, but there were also Dutch and Swiss.	232254660	1478202820200	1478202820351	u	85
454260	4892462	About 20 were Americans, but there were also Dutch and Swiss.	About 20 were Americans, but there were also Dutch and Swiss.	232254749	1478202820296	1478202820407	t	84
454260	4892462	About 20 were Americans, but there were also Dutch and Swiss.	About 20 were Americans, but there were also Dutch and Swiss.	232254756	1478202820408	1478202820535	 	32
454260	4892462	About 20 were Americans, but there were also Dutch and Swiss.	About 20 were Americans, but there were also Dutch and Swiss.	232254763	1478202820695	1478202820824	t	84
454260	4892462	About 20 were Americans, but there were also Dutch and Swiss.	About 20 were Americans, but there were also Dutch and Swiss.	232254770	1478202820825	1478202820960	h	72
454260	4892462	About 20 were Americans, but there were also Dutch and Swiss.	About 20 were Americans, but there were also Dutch and Swiss.	232254776	1478202820903	1478202821072	e	69
454260	4892462	About 20 were Americans, but there were also Dutch and Swiss.	About 20 were Americans, but there were also Dutch and Swiss.	232254785	1478202821072	1478202821343	r	82
454260	4892462	About 20 were Americans, but there were also Dutch and Swiss.	About 20 were Americans, but there were also Dutch and Swiss.	232254876	1478202821247	1478202821423	e	69
454260	4892462	About 20 were Americans, but there were also Dutch and Swiss.	About 20 were Americans, but there were also Dutch and Swiss.	232254881	1478202821424	1478202821583	 	32
454260	4892462	About 20 were Americans, but there were also Dutch and Swiss.	About 20 were Americans, but there were also Dutch and Swiss.	232254886	1478202821615	1478202821775	w	87
454260	4892462	About 20 were Americans, but there were also Dutch and Swiss.	About 20 were Americans, but there were also Dutch and Swiss.	232254894	1478202821687	1478202821831	e	69
454260	4892462	About 20 were Americans, but there were also Dutch and Swiss.	About 20 were Americans, but there were also Dutch and Swiss.	232254901	1478202821767	1478202821911	 	32
454260	4892462	About 20 were Americans, but there were also Dutch and Swiss.	About 20 were Americans, but there were also Dutch and Swiss.	232254907	1478202822279	1478202822399	BKSP	8
454260	4892462	About 20 were Americans, but there were also Dutch and Swiss.	About 20 were Americans, but there were also Dutch and Swiss.	232254913	1478202822400	1478202822535	r	82
454260	4892462	About 20 were Americans, but there were also Dutch and Swiss.	About 20 were Americans, but there were also Dutch and Swiss.	232254947	1478202822455	1478202822583	e	69
454260	4892462	About 20 were Americans, but there were also Dutch and Swiss.	About 20 were Americans, but there were also Dutch and Swiss.	232254953	1478202822584	1478202822719	 	32
454260	4892462	About 20 were Americans, but there were also Dutch and Swiss.	About 20 were Americans, but there were also Dutch and Swiss.	232254960	1478202822671	1478202822815	a	65
454260	4892462	About 20 were Americans, but there were also Dutch and Swiss.	About 20 were Americans, but there were also Dutch and Swiss.	232254968	1478202822863	1478202822984	l	76
454260	4892462	About 20 were Americans, but there were also Dutch and Swiss.	About 20 were Americans, but there were also Dutch and Swiss.	232254978	1478202822991	1478202823127	s	83
454260	4892462	About 20 were Americans, but there were also Dutch and Swiss.	About 20 were Americans, but there were also Dutch and Swiss.	232254987	1478202823128	1478202823263	o	79
454260	4892462	About 20 were Americans, but there were also Dutch and Swiss.	About 20 were Americans, but there were also Dutch and Swiss.	232255095	1478202823215	1478202823319	 	32
454260	4892462	About 20 were Americans, but there were also Dutch and Swiss.	About 20 were Americans, but there were also Dutch and Swiss.	232255104	1478202823471	1478202823727	SHIFT	16
454260	4892462	About 20 were Americans, but there were also Dutch and Swiss.	About 20 were Americans, but there were also Dutch and Swiss.	232255114	1478202823647	1478202823783	D	68
454260	4892462	About 20 were Americans, but there were also Dutch and Swiss.	About 20 were Americans, but there were also Dutch and Swiss.	232255122	1478202823815	1478202823975	u	85
454260	4892462	About 20 were Americans, but there were also Dutch and Swiss.	About 20 were Americans, but there were also Dutch and Swiss.	232255126	1478202824095	1478202824231	t	84
454260	4892462	About 20 were Americans, but there were also Dutch and Swiss.	About 20 were Americans, but there were also Dutch and Swiss.	232255130	1478202824423	1478202824551	c	67
454260	4892462	About 20 were Americans, but there were also Dutch and Swiss.	About 20 were Americans, but there were also Dutch and Swiss.	232255139	1478202824552	1478202824695	h	72
454260	4892462	About 20 were Americans, but there were also Dutch and Swiss.	About 20 were Americans, but there were also Dutch and Swiss.	232255248	1478202824871	1478202824991	 	32
454260	4892462	About 20 were Americans, but there were also Dutch and Swiss.	About 20 were Americans, but there were also Dutch and Swiss.	232255255	1478202824992	1478202825463	SHIFT	16
454260	4892462	About 20 were Americans, but there were also Dutch and Swiss.	About 20 were Americans, but there were also Dutch and Swiss.	232255252	1478202825119	1478202825271	A	65
454260	4892462	About 20 were Americans, but there were also Dutch and Swiss.	About 20 were Americans, but there were also Dutch and Swiss.	232255261	1478202825711	1478202825791	BKSP	8
454260	4892462	About 20 were Americans, but there were also Dutch and Swiss.	About 20 were Americans, but there were also Dutch and Swiss.	232255265	1478202825823	1478202825975	a	65
454260	4892462	About 20 were Americans, but there were also Dutch and Swiss.	About 20 were Americans, but there were also Dutch and Swiss.	232255272	1478202825943	1478202826079	d	68
454260	4892462	About 20 were Americans, but there were also Dutch and Swiss.	About 20 were Americans, but there were also Dutch and Swiss.	232255402	1478202826007	1478202826103	n	78
454260	4892462	About 20 were Americans, but there were also Dutch and Swiss.	About 20 were Americans, but there were also Dutch and Swiss.	232255407	1478202826447	1478202826607	SHIFT	16
454260	4892462	About 20 were Americans, but there were also Dutch and Swiss.	About 20 were Americans, but there were also Dutch and Swiss.	232255413	1478202826703	1478202826775	BKSP	8
454260	4892462	About 20 were Americans, but there were also Dutch and Swiss.	About 20 were Americans, but there were also Dutch and Swiss.	232255421	1478202826863	1478202826934	BKSP	8
454260	4892462	About 20 were Americans, but there were also Dutch and Swiss.	About 20 were Americans, but there were also Dutch and Swiss.	232255426	1478202827054	1478202827207	n	78
454260	4892462	About 20 were Americans, but there were also Dutch and Swiss.	About 20 were Americans, but there were also Dutch and Swiss.	232255428	1478202827103	1478202827231	d	68
454260	4892462	About 20 were Americans, but there were also Dutch and Swiss.	About 20 were Americans, but there were also Dutch and Swiss.	232255432	1478202827207	1478202827318	 	32
454260	4892462	About 20 were Americans, but there were also Dutch and Swiss.	About 20 were Americans, but there were also Dutch and Swiss.	232255441	1478202827295	1478202827935	SHIFT	16
454260	4892462	About 20 were Americans, but there were also Dutch and Swiss.	About 20 were Americans, but there were also Dutch and Swiss.	232255436	1478202827710	1478202827862	S	83
454260	4892462	About 20 were Americans, but there were also Dutch and Swiss.	About 20 were Americans, but there were also Dutch and Swiss.	232255447	1478202828094	1478202828207	w	87
454260	4892462	About 20 were Americans, but there were also Dutch and Swiss.	About 20 were Americans, but there were also Dutch and Swiss.	232255490	1478202828558	1478202828695	i	73
454260	4892462	About 20 were Americans, but there were also Dutch and Swiss.	About 20 were Americans, but there were also Dutch and Swiss.	232255494	1478202828695	1478202828767	s	83
454260	4892462	About 20 were Americans, but there were also Dutch and Swiss.	About 20 were Americans, but there were also Dutch and Swiss.	232255501	1478202828863	1478202828983	s	83
454260	4892462	About 20 were Americans, but there were also Dutch and Swiss.	About 20 were Americans, but there were also Dutch and Swiss.	232255506	1478202828984	1478202829142	.	190
454260	4892493	I will be back Friday.	I will be back Friday.	232255758	1478202830982	1478202831158	CAPS_LOCK	20
454260	4892493	I will be back Friday.	I will be back Friday.	232255764	1478202831190	1478202831342	I	73
454260	4892493	I will be back Friday.	I will be back Friday.	232255770	1478202831294	1478202831398	CAPS_LOCK	20
454260	4892493	I will be back Friday.	I will be back Friday.	232255777	1478202831374	1478202831542	 	32
454260	4892493	I will be back Friday.	I will be back Friday.	232255787	1478202831486	1478202831606	w	87
454260	4892493	I will be back Friday.	I will be back Friday.	232255794	1478202831607	1478202831726	i	73
454260	4892493	I will be back Friday.	I will be back Friday.	232255801	1478202831814	1478202831894	l	76
454260	4892493	I will be back Friday.	I will be back Friday.	232255800	1478202831950	1478202832046	l	76
454260	4892493	I will be back Friday.	I will be back Friday.	232255805	1478202832047	1478202832126	 	32
454260	4892493	I will be back Friday.	I will be back Friday.	232255811	1478202832142	1478202832254	b	66
454260	4892493	I will be back Friday.	I will be back Friday.	232255817	1478202832198	1478202832302	e	69
454260	4892493	I will be back Friday.	I will be back Friday.	232255831	1478202832278	1478202832374	 	32
454260	4892493	I will be back Friday.	I will be back Friday.	232255836	1478202832374	1478202832470	b	66
454260	4892493	I will be back Friday.	I will be back Friday.	232255841	1478202832430	1478202832590	a	65
454260	4892493	I will be back Friday.	I will be back Friday.	232255845	1478202832534	1478202832646	c	67
454260	4892493	I will be back Friday.	I will be back Friday.	232255849	1478202832614	1478202832734	k	75
454260	4892493	I will be back Friday.	I will be back Friday.	232255895	1478202832718	1478202832854	 	32
454260	4892493	I will be back Friday.	I will be back Friday.	232255900	1478202832958	1478202833182	SHIFT	16
454260	4892493	I will be back Friday.	I will be back Friday.	232255908	1478202833070	1478202833190	F	70
454260	4892493	I will be back Friday.	I will be back Friday.	232255916	1478202833286	1478202833382	r	82
454260	4892493	I will be back Friday.	I will be back Friday.	232255928	1478202833382	1478202833526	i	73
454260	4892493	I will be back Friday.	I will be back Friday.	232255934	1478202833510	1478202833662	d	68
454260	4892493	I will be back Friday.	I will be back Friday.	232255952	1478202833614	1478202833742	a	65
454260	4892493	I will be back Friday.	I will be back Friday.	232255957	1478202833926	1478202834094	y	89
454260	4892493	I will be back Friday.	I will be back Friday.	232255961	1478202834094	1478202834230	.	190
