PARTICIPANT_ID	TEST_SECTION_ID	SENTENCE	USER_INPUT	KEYSTROKE_ID	PRESS_TIME	RELEASE_TIME	LETTER	KEYCODE
454564	4894888	Spanish football reaches boiling point this weekend.	Spanish football reaches boiling point this weekend	232369974	1478204648120	1478204652175	SHIFT	16
454564	4894888	Spanish football reaches boiling point this weekend.	Spanish football reaches boiling point this weekend	232369972	1478204651993	1478204652126	S	83
454564	4894888	Spanish football reaches boiling point this weekend.	Spanish football reaches boiling point this weekend	232369981	1478204652146	1478204652222	P	80
454564	4894888	Spanish football reaches boiling point this weekend.	Spanish football reaches boiling point this weekend	232369985	1478204652893	1478204652994	a	65
454564	4894888	Spanish football reaches boiling point this weekend.	Spanish football reaches boiling point this weekend	232369989	1478204653125	1478204653196	BKSP	8
454564	4894888	Spanish football reaches boiling point this weekend.	Spanish football reaches boiling point this weekend	232369993	1478204653263	1478204653343	BKSP	8
454564	4894888	Spanish football reaches boiling point this weekend.	Spanish football reaches boiling point this weekend	232369994	1478204653791	1478204653879	p	80
454564	4894888	Spanish football reaches boiling point this weekend.	Spanish football reaches boiling point this weekend	232369996	1478204653910	1478204654007	a	65
454564	4894888	Spanish football reaches boiling point this weekend.	Spanish football reaches boiling point this weekend	232370010	1478204653982	1478204654076	n	78
454564	4894888	Spanish football reaches boiling point this weekend.	Spanish football reaches boiling point this weekend	232370014	1478204654039	1478204654143	i	73
454564	4894888	Spanish football reaches boiling point this weekend.	Spanish football reaches boiling point this weekend	232370019	1478204654149	1478204654255	s	83
454564	4894888	Spanish football reaches boiling point this weekend.	Spanish football reaches boiling point this weekend	232370025	1478204654216	1478204654297	h	72
454564	4894888	Spanish football reaches boiling point this weekend.	Spanish football reaches boiling point this weekend	232370028	1478204654396	1478204654481	 	32
454564	4894888	Spanish football reaches boiling point this weekend.	Spanish football reaches boiling point this weekend	232370030	1478204654496	1478204654599	f	70
454564	4894888	Spanish football reaches boiling point this weekend.	Spanish football reaches boiling point this weekend	232370051	1478204654566	1478204654649	o	79
454564	4894888	Spanish football reaches boiling point this weekend.	Spanish football reaches boiling point this weekend	232370054	1478204654796	1478204654912	o	79
454564	4894888	Spanish football reaches boiling point this weekend.	Spanish football reaches boiling point this weekend	232370056	1478204654965	1478204655119	t	84
454564	4894888	Spanish football reaches boiling point this weekend.	Spanish football reaches boiling point this weekend	232370058	1478204655081	1478204655181	b	66
454564	4894888	Spanish football reaches boiling point this weekend.	Spanish football reaches boiling point this weekend	232370064	1478204655212	1478204655327	a	65
454564	4894888	Spanish football reaches boiling point this weekend.	Spanish football reaches boiling point this weekend	232370120	1478204655301	1478204655365	l	76
454564	4894888	Spanish football reaches boiling point this weekend.	Spanish football reaches boiling point this weekend	232370123	1478204655428	1478204655498	l	76
454564	4894888	Spanish football reaches boiling point this weekend.	Spanish football reaches boiling point this weekend	232370125	1478204655566	1478204655650	 	32
454564	4894888	Spanish football reaches boiling point this weekend.	Spanish football reaches boiling point this weekend	232370129	1478204655713	1478204655834	r	82
454564	4894888	Spanish football reaches boiling point this weekend.	Spanish football reaches boiling point this weekend	232370132	1478204655767	1478204655913	e	69
454564	4894888	Spanish football reaches boiling point this weekend.	Spanish football reaches boiling point this weekend	232370139	1478204655967	1478204656168	a	65
454564	4894888	Spanish football reaches boiling point this weekend.	Spanish football reaches boiling point this weekend	232370164	1478204656129	1478204656255	c	67
454564	4894888	Spanish football reaches boiling point this weekend.	Spanish football reaches boiling point this weekend	232370168	1478204656234	1478204656326	h	72
454564	4894888	Spanish football reaches boiling point this weekend.	Spanish football reaches boiling point this weekend	232370171	1478204656343	1478204656451	e	69
454564	4894888	Spanish football reaches boiling point this weekend.	Spanish football reaches boiling point this weekend	232370173	1478204656384	1478204656527	s	83
454564	4894888	Spanish football reaches boiling point this weekend.	Spanish football reaches boiling point this weekend	232370175	1478204656498	1478204656582	 	32
454564	4894888	Spanish football reaches boiling point this weekend.	Spanish football reaches boiling point this weekend	232370294	1478204656698	1478204656818	n	78
454564	4894888	Spanish football reaches boiling point this weekend.	Spanish football reaches boiling point this weekend	232370177	1478204656727	1478204656800	b	66
454564	4894888	Spanish football reaches boiling point this weekend.	Spanish football reaches boiling point this weekend	232370296	1478204657630	1478204657753	BKSP	8
454564	4894888	Spanish football reaches boiling point this weekend.	Spanish football reaches boiling point this weekend	232370297	1478204657815	1478204657932	BKSP	8
454564	4894888	Spanish football reaches boiling point this weekend.	Spanish football reaches boiling point this weekend	232370298	1478204658168	1478204658316	b	66
454564	4894888	Spanish football reaches boiling point this weekend.	Spanish football reaches boiling point this weekend	232370300	1478204658353	1478204658487	o	79
454564	4894888	Spanish football reaches boiling point this weekend.	Spanish football reaches boiling point this weekend	232370305	1478204658453	1478204658554	i	73
454564	4894888	Spanish football reaches boiling point this weekend.	Spanish football reaches boiling point this weekend	232370312	1478204658601	1478204658701	l	76
454564	4894888	Spanish football reaches boiling point this weekend.	Spanish football reaches boiling point this weekend	232370317	1478204658786	1478204658905	i	73
454564	4894888	Spanish football reaches boiling point this weekend.	Spanish football reaches boiling point this weekend	232370342	1478204658854	1478204658967	n	78
454564	4894888	Spanish football reaches boiling point this weekend.	Spanish football reaches boiling point this weekend	232370345	1478204658951	1478204659079	g	71
454564	4894888	Spanish football reaches boiling point this weekend.	Spanish football reaches boiling point this weekend	232370351	1478204659054	1478204659119	 	32
454564	4894888	Spanish football reaches boiling point this weekend.	Spanish football reaches boiling point this weekend	232370359	1478204659170	1478204659304	p	80
454564	4894888	Spanish football reaches boiling point this weekend.	Spanish football reaches boiling point this weekend	232370366	1478204659270	1478204659355	o	79
454564	4894888	Spanish football reaches boiling point this weekend.	Spanish football reaches boiling point this weekend	232370375	1478204659486	1478204659647	i	73
454564	4894888	Spanish football reaches boiling point this weekend.	Spanish football reaches boiling point this weekend	232370420	1478204659617	1478204659737	n	78
454564	4894888	Spanish football reaches boiling point this weekend.	Spanish football reaches boiling point this weekend	232370424	1478204659887	1478204660022	t	84
454564	4894888	Spanish football reaches boiling point this weekend.	Spanish football reaches boiling point this weekend	232370428	1478204659987	1478204660103	 	32
454564	4894888	Spanish football reaches boiling point this weekend.	Spanish football reaches boiling point this weekend	232370432	1478204660187	1478204660295	t	84
454564	4894888	Spanish football reaches boiling point this weekend.	Spanish football reaches boiling point this weekend	232370435	1478204660256	1478204660372	h	72
454564	4894888	Spanish football reaches boiling point this weekend.	Spanish football reaches boiling point this weekend	232370440	1478204660403	1478204660519	i	73
454564	4894888	Spanish football reaches boiling point this weekend.	Spanish football reaches boiling point this weekend	232370456	1478204660539	1478204660604	s	83
454564	4894888	Spanish football reaches boiling point this weekend.	Spanish football reaches boiling point this weekend	232370459	1478204660636	1478204660727	 	32
454564	4894888	Spanish football reaches boiling point this weekend.	Spanish football reaches boiling point this weekend	232370465	1478204660705	1478204660834	w	87
454564	4894888	Spanish football reaches boiling point this weekend.	Spanish football reaches boiling point this weekend	232370471	1478204660872	1478204660972	e	69
454564	4894888	Spanish football reaches boiling point this weekend.	Spanish football reaches boiling point this weekend	232370478	1478204661235	1478204661320	e	69
454564	4894888	Spanish football reaches boiling point this weekend.	Spanish football reaches boiling point this weekend	232370506	1478204661357	1478204661437	k	75
454564	4894888	Spanish football reaches boiling point this weekend.	Spanish football reaches boiling point this weekend	232370512	1478204661520	1478204661604	e	69
454564	4894888	Spanish football reaches boiling point this weekend.	Spanish football reaches boiling point this weekend	232370518	1478204661658	1478204661759	n	78
454564	4894888	Spanish football reaches boiling point this weekend.	Spanish football reaches boiling point this weekend	232370522	1478204661740	1478204661821	d	68
454564	4894919	Normally we just eat and run.	Normally we just eat and run.	232370672	1478204663707	1478204664324	SHIFT	16
454564	4894919	Normally we just eat and run.	Normally we just eat and run.	232370677	1478204664260	1478204664376	N	78
454564	4894919	Normally we just eat and run.	Normally we just eat and run.	232370682	1478204664439	1478204664523	o	79
454564	4894919	Normally we just eat and run.	Normally we just eat and run.	232370687	1478204664560	1478204664703	r	82
454564	4894919	Normally we just eat and run.	Normally we just eat and run.	232370691	1478204664677	1478204664777	m	77
454564	4894919	Normally we just eat and run.	Normally we just eat and run.	232370698	1478204664808	1478204664927	a	65
454564	4894919	Normally we just eat and run.	Normally we just eat and run.	232370751	1478204664908	1478204664977	l	76
454564	4894919	Normally we just eat and run.	Normally we just eat and run.	232370758	1478204665024	1478204665140	l	76
454564	4894919	Normally we just eat and run.	Normally we just eat and run.	232370765	1478204665177	1478204665325	y	89
454564	4894919	Normally we just eat and run.	Normally we just eat and run.	232370775	1478204665340	1478204665441	 	32
454564	4894919	Normally we just eat and run.	Normally we just eat and run.	232370780	1478204665661	1478204665793	w	87
454564	4894919	Normally we just eat and run.	Normally we just eat and run.	232370801	1478204665725	1478204665878	e	69
454564	4894919	Normally we just eat and run.	Normally we just eat and run.	232370806	1478204665894	1478204665945	 	32
454564	4894919	Normally we just eat and run.	Normally we just eat and run.	232370812	1478204666078	1478204666262	j	74
454564	4894919	Normally we just eat and run.	Normally we just eat and run.	232370817	1478204666178	1478204666294	u	85
454564	4894919	Normally we just eat and run.	Normally we just eat and run.	232370819	1478204666244	1478204666363	s	83
454564	4894919	Normally we just eat and run.	Normally we just eat and run.	232370847	1478204666310	1478204666418	t	84
454564	4894919	Normally we just eat and run.	Normally we just eat and run.	232370854	1478204666434	1478204666527	 	32
454564	4894919	Normally we just eat and run.	Normally we just eat and run.	232370863	1478204666543	1478204666711	e	69
454564	4894919	Normally we just eat and run.	Normally we just eat and run.	232370871	1478204666635	1478204666814	a	65
454564	4894919	Normally we just eat and run.	Normally we just eat and run.	232370878	1478204666778	1478204666902	t	84
454564	4894919	Normally we just eat and run.	Normally we just eat and run.	232370911	1478204666878	1478204666944	 	32
454564	4894919	Normally we just eat and run.	Normally we just eat and run.	232370917	1478204667024	1478204667109	a	65
454564	4894919	Normally we just eat and run.	Normally we just eat and run.	232370921	1478204667125	1478204667202	n	78
454564	4894919	Normally we just eat and run.	Normally we just eat and run.	232370923	1478204667218	1478204667335	d	68
454564	4894919	Normally we just eat and run.	Normally we just eat and run.	232370926	1478204667310	1478204667394	 	32
454564	4894919	Normally we just eat and run.	Normally we just eat and run.	232370928	1478204667463	1478204667638	r	82
454564	4894919	Normally we just eat and run.	Normally we just eat and run.	232370963	1478204667563	1478204667662	u	85
454564	4894919	Normally we just eat and run.	Normally we just eat and run.	232370966	1478204667621	1478204667709	n	78
454564	4894930	You haven't seen 120 in some time.	You haven't seen 120 in some time	232371167	1478204670213	1478204670467	SHIFT	16
454564	4894930	You haven't seen 120 in some time.	You haven't seen 120 in some time	232371173	1478204670367	1478204670483	Y	89
454564	4894930	You haven't seen 120 in some time.	You haven't seen 120 in some time	232371179	1478204670630	1478204670732	o	79
454564	4894930	You haven't seen 120 in some time.	You haven't seen 120 in some time	232371183	1478204670682	1478204670814	u	85
454564	4894930	You haven't seen 120 in some time.	You haven't seen 120 in some time	232371187	1478204670830	1478204670958	 	32
454564	4894930	You haven't seen 120 in some time.	You haven't seen 120 in some time	232371243	1478204670930	1478204671062	h	72
454564	4894930	You haven't seen 120 in some time.	You haven't seen 120 in some time	232371246	1478204671030	1478204671182	a	65
454564	4894930	You haven't seen 120 in some time.	You haven't seen 120 in some time	232371251	1478204671138	1478204671315	v	86
454564	4894930	You haven't seen 120 in some time.	You haven't seen 120 in some time	232371255	1478204671263	1478204671414	e	69
454564	4894930	You haven't seen 120 in some time.	You haven't seen 120 in some time	232371260	1478204671445	1478204671568	n	78
454564	4894930	You haven't seen 120 in some time.	You haven't seen 120 in some time	232371264	1478204672146	1478204672245	'	222
454564	4894930	You haven't seen 120 in some time.	You haven't seen 120 in some time	232371312	1478204672315	1478204672415	t	84
454564	4894930	You haven't seen 120 in some time.	You haven't seen 120 in some time	232371319	1478204672446	1478204672525	 	32
454564	4894930	You haven't seen 120 in some time.	You haven't seen 120 in some time	232371325	1478204672816	1478204672969	s	83
454564	4894930	You haven't seen 120 in some time.	You haven't seen 120 in some time	232371329	1478204672932	1478204673047	e	69
454564	4894930	You haven't seen 120 in some time.	You haven't seen 120 in some time	232371331	1478204673101	1478204673232	e	69
454564	4894930	You haven't seen 120 in some time.	You haven't seen 120 in some time	232371419	1478204673270	1478204673332	 	78
454564	4894930	You haven't seen 120 in some time.	You haven't seen 120 in some time	232371423	1478204673402	1478204673502	 	32
454564	4894930	You haven't seen 120 in some time.	You haven't seen 120 in some time	232371427	1478204674249	1478204674317	1	97
454564	4894930	You haven't seen 120 in some time.	You haven't seen 120 in some time	232371431	1478204674718	1478204674819	=	187
454564	4894930	You haven't seen 120 in some time.	You haven't seen 120 in some time	232371531	1478204674888	1478204674951	=	187
454564	4894930	You haven't seen 120 in some time.	You haven't seen 120 in some time	232371536	1478204675103	1478204675219	BKSP	8
454564	4894930	You haven't seen 120 in some time.	You haven't seen 120 in some time	232371542	1478204675273	1478204675351	BKSP	8
454564	4894930	You haven't seen 120 in some time.	You haven't seen 120 in some time	232371547	1478204675404	1478204675488	BKSP	8
454564	4894930	You haven't seen 120 in some time.	You haven't seen 120 in some time	232371552	1478204675535	1478204675633	BKSP	8
454564	4894930	You haven't seen 120 in some time.	You haven't seen 120 in some time	232371560	1478204676405	1478204676547	1	97
454564	4894930	You haven't seen 120 in some time.	You haven't seen 120 in some time	232371566	1478204676505	1478204676621	2	98
454564	4894930	You haven't seen 120 in some time.	You haven't seen 120 in some time	232371573	1478204676705	1478204676821	0	96
454564	4894930	You haven't seen 120 in some time.	You haven't seen 120 in some time	232371580	1478204677005	1478204677105	 	32
454564	4894930	You haven't seen 120 in some time.	You haven't seen 120 in some time	232371596	1478204677290	1478204677390	i	73
454564	4894930	You haven't seen 120 in some time.	You haven't seen 120 in some time	232371601	1478204677331	1478204677470	n	78
454564	4894930	You haven't seen 120 in some time.	You haven't seen 120 in some time	232371606	1478204677475	1478204677598	 	32
454564	4894930	You haven't seen 120 in some time.	You haven't seen 120 in some time	232371612	1478204677575	1478204677722	s	83
454564	4894930	You haven't seen 120 in some time.	You haven't seen 120 in some time	232371639	1478204677675	1478204677806	o	79
454564	4894930	You haven't seen 120 in some time.	You haven't seen 120 in some time	232371642	1478204677738	1478204677838	m	77
454564	4894930	You haven't seen 120 in some time.	You haven't seen 120 in some time	232371648	1478204677782	1478204677890	e	69
454564	4894930	You haven't seen 120 in some time.	You haven't seen 120 in some time	232371652	1478204677922	1478204677991	 	32
454564	4894930	You haven't seen 120 in some time.	You haven't seen 120 in some time	232371657	1478204678038	1478204678133	t	84
454564	4894930	You haven't seen 120 in some time.	You haven't seen 120 in some time	232371675	1478204678106	1478204678222	i	73
454564	4894930	You haven't seen 120 in some time.	You haven't seen 120 in some time	232371678	1478204678174	1478204678282	m	77
454564	4894930	You haven't seen 120 in some time.	You haven't seen 120 in some time	232371679	1478204678237	1478204678329	e	69
454564	4894946	Sorry for any inconvenience.	Sorry for any inconvenience	232371804	1478204679756	1478204679941	SHIFT	16
454564	4894946	Sorry for any inconvenience.	Sorry for any inconvenience	232371807	1478204679878	1478204679978	S	83
454564	4894946	Sorry for any inconvenience.	Sorry for any inconvenience	232371810	1478204680009	1478204680117	o	79
454564	4894946	Sorry for any inconvenience.	Sorry for any inconvenience	232371814	1478204680094	1478204680194	r	82
454564	4894946	Sorry for any inconvenience.	Sorry for any inconvenience	232371817	1478204680278	1478204680434	r	82
454564	4894946	Sorry for any inconvenience.	Sorry for any inconvenience	232371842	1478204680394	1478204680510	y	89
454564	4894946	Sorry for any inconvenience.	Sorry for any inconvenience	232371846	1478204680525	1478204680594	 	32
454564	4894946	Sorry for any inconvenience.	Sorry for any inconvenience	232371852	1478204680657	1478204680774	f	70
454564	4894946	Sorry for any inconvenience.	Sorry for any inconvenience	232371860	1478204680738	1478204680823	o	79
454564	4894946	Sorry for any inconvenience.	Sorry for any inconvenience	232371866	1478204680854	1478204680978	r	82
454564	4894946	Sorry for any inconvenience.	Sorry for any inconvenience	232371895	1478204680940	1478204681025	 	32
454564	4894946	Sorry for any inconvenience.	Sorry for any inconvenience	232371898	1478204681110	1478204681222	a	65
454564	4894946	Sorry for any inconvenience.	Sorry for any inconvenience	232371907	1478204681179	1478204681279	n	78
454564	4894946	Sorry for any inconvenience.	Sorry for any inconvenience	232371916	1478204681310	1478204681445	y	89
454564	4894946	Sorry for any inconvenience.	Sorry for any inconvenience	232371923	1478204681410	1478204681479	 	32
454564	4894946	Sorry for any inconvenience.	Sorry for any inconvenience	232371929	1478204681574	1478204681695	i	73
454564	4894946	Sorry for any inconvenience.	Sorry for any inconvenience	232371973	1478204681624	1478204681745	n	78
454564	4894946	Sorry for any inconvenience.	Sorry for any inconvenience	232371977	1478204681826	1478204682006	c	67
454564	4894946	Sorry for any inconvenience.	Sorry for any inconvenience	232371984	1478204681974	1478204682079	o	79
454564	4894946	Sorry for any inconvenience.	Sorry for any inconvenience	232371989	1478204682025	1478204682158	n	78
454564	4894946	Sorry for any inconvenience.	Sorry for any inconvenience	232371992	1478204682326	1478204682443	v	86
454564	4894946	Sorry for any inconvenience.	Sorry for any inconvenience	232371995	1478204682512	1478204682654	e	69
454564	4894946	Sorry for any inconvenience.	Sorry for any inconvenience	232372036	1478204682628	1478204682727	n	78
454564	4894946	Sorry for any inconvenience.	Sorry for any inconvenience	232372039	1478204682859	1478204682981	i	73
454564	4894946	Sorry for any inconvenience.	Sorry for any inconvenience	232372043	1478204683012	1478204683142	e	69
454564	4894946	Sorry for any inconvenience.	Sorry for any inconvenience	232372050	1478204683112	1478204683212	n	78
454564	4894946	Sorry for any inconvenience.	Sorry for any inconvenience	232372054	1478204683412	1478204683543	c	67
454564	4894957	He did not say when that would be.	He did not say when that would be.	232372253	1478204683482	1478204685615	e	69
454564	4894957	He did not say when that would be.	He did not say when that would be.	232372248	1478204685199	1478204685396	SHIFT	16
454564	4894957	He did not say when that would be.	He did not say when that would be.	232372251	1478204685362	1478204685443	H	72
454564	4894957	He did not say when that would be.	He did not say when that would be.	232372257	1478204685646	1478204685715	 	32
454564	4894957	He did not say when that would be.	He did not say when that would be.	232372259	1478204685784	1478204685863	d	68
454564	4894957	He did not say when that would be.	He did not say when that would be.	232372262	1478204686047	1478204686136	BKSP	8
454564	4894957	He did not say when that would be.	He did not say when that would be.	232372268	1478204686184	1478204686278	BKSP	8
454564	4894957	He did not say when that would be.	He did not say when that would be.	232372274	1478204686316	1478204686416	BKSP	8
454564	4894957	He did not say when that would be.	He did not say when that would be.	232372286	1478204686582	1478204686886	SHIFT	16
454564	4894957	He did not say when that would be.	He did not say when that would be.	232372281	1478204686733	1478204686848	H	72
454564	4894957	He did not say when that would be.	He did not say when that would be.	232372292	1478204686917	1478204687033	e	69
454564	4894957	He did not say when that would be.	He did not say when that would be.	232372322	1478204687365	1478204687486	 	32
454564	4894957	He did not say when that would be.	He did not say when that would be.	232372324	1478204687648	1478204687723	d	68
454564	4894957	He did not say when that would be.	He did not say when that would be.	232372326	1478204687754	1478204687829	i	73
454564	4894957	He did not say when that would be.	He did not say when that would be.	232372328	1478204687845	1478204687922	d	68
454564	4894957	He did not say when that would be.	He did not say when that would be.	232372333	1478204687954	1478204688014	 	32
454564	4894957	He did not say when that would be.	He did not say when that would be.	232372364	1478204688134	1478204688232	n	78
454564	4894957	He did not say when that would be.	He did not say when that would be.	232372368	1478204688187	1478204688310	o	79
454564	4894957	He did not say when that would be.	He did not say when that would be.	232372370	1478204688286	1478204688397	t	84
454564	4894957	He did not say when that would be.	He did not say when that would be.	232372373	1478204688362	1478204688463	 	32
454564	4894957	He did not say when that would be.	He did not say when that would be.	232372375	1478204688503	1478204688666	s	83
454564	4894957	He did not say when that would be.	He did not say when that would be.	232372397	1478204688752	1478204688947	a	65
454564	4894957	He did not say when that would be.	He did not say when that would be.	232372400	1478204688878	1478204689006	y	89
454564	4894957	He did not say when that would be.	He did not say when that would be.	232372402	1478204688963	1478204689063	 	32
454564	4894957	He did not say when that would be.	He did not say when that would be.	232372404	1478204689167	1478204689302	w	87
454564	4894957	He did not say when that would be.	He did not say when that would be.	232372432	1478204689263	1478204689382	h	72
454564	4894957	He did not say when that would be.	He did not say when that would be.	232372435	1478204689404	1478204689534	e	69
454564	4894957	He did not say when that would be.	He did not say when that would be.	232372439	1478204689504	1478204689589	n	78
454564	4894957	He did not say when that would be.	He did not say when that would be.	232372442	1478204689667	1478204689747	 	32
454564	4894957	He did not say when that would be.	He did not say when that would be.	232372445	1478204689836	1478204690014	t	84
454564	4894957	He did not say when that would be.	He did not say when that would be.	232372463	1478204689989	1478204690118	h	72
454564	4894957	He did not say when that would be.	He did not say when that would be.	232372465	1478204690089	1478204690234	a	65
454564	4894957	He did not say when that would be.	He did not say when that would be.	232372467	1478204690182	1478204690290	t	84
454564	4894957	He did not say when that would be.	He did not say when that would be.	232372469	1478204690321	1478204690421	 	32
454564	4894957	He did not say when that would be.	He did not say when that would be.	232372473	1478204690452	1478204690573	w	87
454564	4894957	He did not say when that would be.	He did not say when that would be.	232372504	1478204690521	1478204690690	o	79
454564	4894957	He did not say when that would be.	He did not say when that would be.	232372507	1478204690590	1478204690705	u	85
454564	4894957	He did not say when that would be.	He did not say when that would be.	232372510	1478204690752	1478204690848	l	76
454564	4894957	He did not say when that would be.	He did not say when that would be.	232372514	1478204690863	1478204690965	d	68
454564	4894957	He did not say when that would be.	He did not say when that would be.	232372518	1478204690934	1478204691021	 	32
454564	4894957	He did not say when that would be.	He did not say when that would be.	232372524	1478204691091	1478204691198	b	66
454564	4894957	He did not say when that would be.	He did not say when that would be.	232372535	1478204691182	1478204691286	e	69
454564	4894970	Please call tomorrow if possible.	Please call tomorrow if possible	232372739	1478204693308	1478204693809	SHIFT	16
454564	4894970	Please call tomorrow if possible.	Please call tomorrow if possible	232372734	1478204693590	1478204693724	P	80
454564	4894970	Please call tomorrow if possible.	Please call tomorrow if possible	232372744	1478204694009	1478204694158	l	76
454564	4894970	Please call tomorrow if possible.	Please call tomorrow if possible	232372749	1478204694125	1478204694334	e	69
454564	4894970	Please call tomorrow if possible.	Please call tomorrow if possible	232372756	1478204694309	1478204694478	s	83
454564	4894970	Please call tomorrow if possible.	Please call tomorrow if possible	232372823	1478204694457	1478204694610	a	65
454564	4894970	Please call tomorrow if possible.	Please call tomorrow if possible	232372824	1478204694673	1478204694753	BKSP	8
454564	4894970	Please call tomorrow if possible.	Please call tomorrow if possible	232372830	1478204694810	1478204694942	BKSP	8
454564	4894970	Please call tomorrow if possible.	Please call tomorrow if possible	232372834	1478204694894	1478204694994	a	65
454564	4894970	Please call tomorrow if possible.	Please call tomorrow if possible	232372839	1478204694925	1478204695141	s	83
454564	4894970	Please call tomorrow if possible.	Please call tomorrow if possible	232372844	1478204695041	1478204695173	e	69
454564	4894970	Please call tomorrow if possible.	Please call tomorrow if possible	232372848	1478204695257	1478204695345	 	32
454564	4894970	Please call tomorrow if possible.	Please call tomorrow if possible	232372852	1478204695574	1478204695790	c	67
454564	4894970	Please call tomorrow if possible.	Please call tomorrow if possible	232372885	1478204695711	1478204695864	a	65
454564	4894970	Please call tomorrow if possible.	Please call tomorrow if possible	232372888	1478204696043	1478204696111	l	76
454564	4894970	Please call tomorrow if possible.	Please call tomorrow if possible	232372890	1478204696174	1478204696262	l	76
454564	4894970	Please call tomorrow if possible.	Please call tomorrow if possible	232372892	1478204696224	1478204696344	 	32
454564	4894970	Please call tomorrow if possible.	Please call tomorrow if possible	232372894	1478204696359	1478204696497	t	84
454564	4894970	Please call tomorrow if possible.	Please call tomorrow if possible	232372962	1478204696453	1478204696558	o	79
454564	4894970	Please call tomorrow if possible.	Please call tomorrow if possible	232372966	1478204696514	1478204696630	m	77
454564	4894970	Please call tomorrow if possible.	Please call tomorrow if possible	232372972	1478204696613	1478204696749	r	82
454564	4894970	Please call tomorrow if possible.	Please call tomorrow if possible	232372976	1478204696713	1478204696790	o	79
454564	4894970	Please call tomorrow if possible.	Please call tomorrow if possible	232372980	1478204696860	1478204696954	o	79
454564	4894970	Please call tomorrow if possible.	Please call tomorrow if possible	232372987	1478204697244	1478204697312	BKSP	8
454564	4894970	Please call tomorrow if possible.	Please call tomorrow if possible	232372990	1478204697375	1478204697464	BKSP	8
454564	4894970	Please call tomorrow if possible.	Please call tomorrow if possible	232372994	1478204697661	1478204697770	BKSP	8
454564	4894970	Please call tomorrow if possible.	Please call tomorrow if possible	232372998	1478204697877	1478204697972	o	79
454564	4894970	Please call tomorrow if possible.	Please call tomorrow if possible	232373030	1478204697990	1478204698056	r	82
454564	4894970	Please call tomorrow if possible.	Please call tomorrow if possible	232373033	1478204698129	1478204698245	r	82
454564	4894970	Please call tomorrow if possible.	Please call tomorrow if possible	232373037	1478204698260	1478204698355	w	87
454564	4894970	Please call tomorrow if possible.	Please call tomorrow if possible	232373045	1478204698390	1478204698441	o	79
454564	4894970	Please call tomorrow if possible.	Please call tomorrow if possible	232373050	1478204698646	1478204698714	BKSP	8
454564	4894970	Please call tomorrow if possible.	Please call tomorrow if possible	232373054	1478204698777	1478204698865	BKSP	8
454564	4894970	Please call tomorrow if possible.	Please call tomorrow if possible	232373059	1478204698978	1478204699085	o	79
454564	4894970	Please call tomorrow if possible.	Please call tomorrow if possible	232373074	1478204699066	1478204699172	w	87
454564	4894970	Please call tomorrow if possible.	Please call tomorrow if possible	232373075	1478204699200	1478204699294	 	32
454564	4894970	Please call tomorrow if possible.	Please call tomorrow if possible	232373078	1478204699400	1478204699500	i	73
454564	4894970	Please call tomorrow if possible.	Please call tomorrow if possible	232373080	1478204699547	1478204699701	f	70
454564	4894970	Please call tomorrow if possible.	Please call tomorrow if possible	232373082	1478204699663	1478204699773	 	32
454564	4894970	Please call tomorrow if possible.	Please call tomorrow if possible	232373083	1478204699832	1478204699959	p	80
454564	4894970	Please call tomorrow if possible.	Please call tomorrow if possible	232373103	1478204699900	1478204700045	o	79
454564	4894970	Please call tomorrow if possible.	Please call tomorrow if possible	232373109	1478204700016	1478204700116	s	83
454564	4894970	Please call tomorrow if possible.	Please call tomorrow if possible	232373114	1478204700182	1478204700301	s	83
454564	4894970	Please call tomorrow if possible.	Please call tomorrow if possible	232373119	1478204700267	1478204700442	i	73
454564	4894970	Please call tomorrow if possible.	Please call tomorrow if possible	232373125	1478204700372	1478204700494	b	66
454564	4894970	Please call tomorrow if possible.	Please call tomorrow if possible	232373133	1478204700457	1478204700590	l	76
454564	4894970	Please call tomorrow if possible.	Please call tomorrow if possible	232373136	1478204700602	1478204700675	e	69
454564	4894982	Zack Crockett may be used in goal-line situations.	Zack Crockett may be used in goal-line situations	232373343	1478204702166	1478204702682	SHIFT	16
454564	4894982	Zack Crockett may be used in goal-line situations.	Zack Crockett may be used in goal-line situations	232373339	1478204702551	1478204702651	Z	90
454564	4894982	Zack Crockett may be used in goal-line situations.	Zack Crockett may be used in goal-line situations	232373347	1478204702836	1478204703020	a	65
454564	4894982	Zack Crockett may be used in goal-line situations.	Zack Crockett may be used in goal-line situations	232373354	1478204702936	1478204703104	c	67
454564	4894982	Zack Crockett may be used in goal-line situations.	Zack Crockett may be used in goal-line situations	232373361	1478204703035	1478204703120	k	75
454564	4894982	Zack Crockett may be used in goal-line situations.	Zack Crockett may be used in goal-line situations	232373367	1478204703204	1478204703336	 	32
454564	4894982	Zack Crockett may be used in goal-line situations.	Zack Crockett may be used in goal-line situations	232373448	1478204703361	1478204703636	SHIFT	16
454564	4894982	Zack Crockett may be used in goal-line situations.	Zack Crockett may be used in goal-line situations	232373443	1478204703468	1478204703605	C	67
454564	4894982	Zack Crockett may be used in goal-line situations.	Zack Crockett may be used in goal-line situations	232373452	1478204704153	1478204704286	r	82
454564	4894982	Zack Crockett may be used in goal-line situations.	Zack Crockett may be used in goal-line situations	232373460	1478204704253	1478204704337	o	79
454564	4894982	Zack Crockett may be used in goal-line situations.	Zack Crockett may be used in goal-line situations	232373466	1478204704384	1478204704501	c	67
454564	4894982	Zack Crockett may be used in goal-line situations.	Zack Crockett may be used in goal-line situations	232373471	1478204704506	1478204704579	k	75
454564	4894982	Zack Crockett may be used in goal-line situations.	Zack Crockett may be used in goal-line situations	232373555	1478204704985	1478204705132	e	69
454564	4894982	Zack Crockett may be used in goal-line situations.	Zack Crockett may be used in goal-line situations	232373558	1478204705102	1478204705223	t	84
454564	4894982	Zack Crockett may be used in goal-line situations.	Zack Crockett may be used in goal-line situations	232373561	1478204705285	1478204705406	t	84
454564	4894982	Zack Crockett may be used in goal-line situations.	Zack Crockett may be used in goal-line situations	232373565	1478204705422	1478204705507	 	32
454564	4894982	Zack Crockett may be used in goal-line situations.	Zack Crockett may be used in goal-line situations	232373570	1478204705669	1478204705779	m	77
454564	4894982	Zack Crockett may be used in goal-line situations.	Zack Crockett may be used in goal-line situations	232373592	1478204705806	1478204705948	a	65
454564	4894982	Zack Crockett may be used in goal-line situations.	Zack Crockett may be used in goal-line situations	232373596	1478204705874	1478204705998	y	89
454564	4894982	Zack Crockett may be used in goal-line situations.	Zack Crockett may be used in goal-line situations	232373602	1478204705979	1478204706047	 	32
454564	4894982	Zack Crockett may be used in goal-line situations.	Zack Crockett may be used in goal-line situations	232373607	1478204706170	1478204706263	b	66
454564	4894982	Zack Crockett may be used in goal-line situations.	Zack Crockett may be used in goal-line situations	232373613	1478204706294	1478204706389	e	69
454564	4894982	Zack Crockett may be used in goal-line situations.	Zack Crockett may be used in goal-line situations	232373629	1478204706364	1478204706433	 	32
454564	4894982	Zack Crockett may be used in goal-line situations.	Zack Crockett may be used in goal-line situations	232373634	1478204706480	1478204706606	u	85
454564	4894982	Zack Crockett may be used in goal-line situations.	Zack Crockett may be used in goal-line situations	232373639	1478204706580	1478204706724	s	83
454564	4894982	Zack Crockett may be used in goal-line situations.	Zack Crockett may be used in goal-line situations	232373645	1478204706740	1478204706884	e	69
454564	4894982	Zack Crockett may be used in goal-line situations.	Zack Crockett may be used in goal-line situations	232373653	1478204706840	1478204706990	d	68
454564	4894982	Zack Crockett may be used in goal-line situations.	Zack Crockett may be used in goal-line situations	232373676	1478204706955	1478204707032	 	32
454564	4894982	Zack Crockett may be used in goal-line situations.	Zack Crockett may be used in goal-line situations	232373680	1478204707109	1478204707210	i	73
454564	4894982	Zack Crockett may be used in goal-line situations.	Zack Crockett may be used in goal-line situations	232373685	1478204707166	1478204707241	n	78
454564	4894982	Zack Crockett may be used in goal-line situations.	Zack Crockett may be used in goal-line situations	232373689	1478204707309	1478204707425	 	32
454564	4894982	Zack Crockett may be used in goal-line situations.	Zack Crockett may be used in goal-line situations	232373693	1478204707487	1478204707611	g	71
454564	4894982	Zack Crockett may be used in goal-line situations.	Zack Crockett may be used in goal-line situations	232373771	1478204707566	1478204707664	o	79
454564	4894982	Zack Crockett may be used in goal-line situations.	Zack Crockett may be used in goal-line situations	232373773	1478204707726	1478204707846	a	65
454564	4894982	Zack Crockett may be used in goal-line situations.	Zack Crockett may be used in goal-line situations	232373775	1478204707810	1478204707909	l	76
454564	4894982	Zack Crockett may be used in goal-line situations.	Zack Crockett may be used in goal-line situations	232373777	1478204708606	1478204708711	-	189
454564	4894982	Zack Crockett may be used in goal-line situations.	Zack Crockett may be used in goal-line situations	232373778	1478204708958	1478204709111	l	76
454564	4894982	Zack Crockett may be used in goal-line situations.	Zack Crockett may be used in goal-line situations	232373841	1478204709058	1478204709211	i	73
454564	4894982	Zack Crockett may be used in goal-line situations.	Zack Crockett may be used in goal-line situations	232373846	1478204709129	1478204709261	n	78
454564	4894982	Zack Crockett may be used in goal-line situations.	Zack Crockett may be used in goal-line situations	232373850	1478204709282	1478204709422	e	69
454564	4894982	Zack Crockett may be used in goal-line situations.	Zack Crockett may be used in goal-line situations	232373854	1478204709383	1478204709484	 	32
454564	4894982	Zack Crockett may be used in goal-line situations.	Zack Crockett may be used in goal-line situations	232373859	1478204709758	1478204709858	s	83
454564	4894982	Zack Crockett may be used in goal-line situations.	Zack Crockett may be used in goal-line situations	232373866	1478204709974	1478204710091	i	73
454564	4894982	Zack Crockett may be used in goal-line situations.	Zack Crockett may be used in goal-line situations	232373876	1478204710112	1478204710238	t	84
454564	4894982	Zack Crockett may be used in goal-line situations.	Zack Crockett may be used in goal-line situations	232373880	1478204710212	1478204710341	u	85
454564	4894982	Zack Crockett may be used in goal-line situations.	Zack Crockett may be used in goal-line situations	232373886	1478204710312	1478204710487	a	65
454564	4894982	Zack Crockett may be used in goal-line situations.	Zack Crockett may be used in goal-line situations	232373892	1478204710428	1478204710542	t	84
454564	4894982	Zack Crockett may be used in goal-line situations.	Zack Crockett may be used in goal-line situations	232373920	1478204710512	1478204710709	i	73
454564	4894982	Zack Crockett may be used in goal-line situations.	Zack Crockett may be used in goal-line situations	232373924	1478204710585	1478204710736	o	79
454564	4894982	Zack Crockett may be used in goal-line situations.	Zack Crockett may be used in goal-line situations	232373928	1478204710684	1478204710813	n	78
454564	4894982	Zack Crockett may be used in goal-line situations.	Zack Crockett may be used in goal-line situations	232373935	1478204710829	1478204710929	s	83
454564	4894994	Clinton attended the US college basketball finals.	Clinton attended the US college baksetball finals	232374113	1478204712632	1478204712901	SHIFT	16
454564	4894994	Clinton attended the US college basketball finals.	Clinton attended the US college baksetball finals	232374120	1478204712806	1478204712947	C	67
454564	4894994	Clinton attended the US college basketball finals.	Clinton attended the US college baksetball finals	232374126	1478204713016	1478204713187	l	76
454564	4894994	Clinton attended the US college basketball finals.	Clinton attended the US college baksetball finals	232374132	1478204713097	1478204713282	i	73
454564	4894994	Clinton attended the US college basketball finals.	Clinton attended the US college baksetball finals	232374137	1478204713214	1478204713332	n	78
454564	4894994	Clinton attended the US college basketball finals.	Clinton attended the US college baksetball finals	232374143	1478204713348	1478204713464	t	84
454564	4894994	Clinton attended the US college basketball finals.	Clinton attended the US college baksetball finals	232374162	1478204713497	1478204713641	o	79
454564	4894994	Clinton attended the US college basketball finals.	Clinton attended the US college baksetball finals	232374165	1478204713606	1478204713709	n	78
454564	4894994	Clinton attended the US college basketball finals.	Clinton attended the US college baksetball finals	232374170	1478204713795	1478204713880	 	32
454564	4894994	Clinton attended the US college basketball finals.	Clinton attended the US college baksetball finals	232374176	1478204713964	1478204714110	a	65
454564	4894994	Clinton attended the US college basketball finals.	Clinton attended the US college baksetball finals	232374222	1478204714064	1478204714168	t	84
454564	4894994	Clinton attended the US college basketball finals.	Clinton attended the US college baksetball finals	232374227	1478204714249	1478204714374	t	84
454564	4894994	Clinton attended the US college basketball finals.	Clinton attended the US college baksetball finals	232374232	1478204714333	1478204714464	e	69
454564	4894994	Clinton attended the US college basketball finals.	Clinton attended the US college baksetball finals	232374236	1478204714517	1478204714617	n	78
454564	4894994	Clinton attended the US college basketball finals.	Clinton attended the US college baksetball finals	232374238	1478204714849	1478204715034	d	68
454564	4894994	Clinton attended the US college basketball finals.	Clinton attended the US college baksetball finals	232374285	1478204714949	1478204715134	e	69
454564	4894994	Clinton attended the US college basketball finals.	Clinton attended the US college baksetball finals	232374290	1478204715165	1478204715301	d	68
454564	4894994	Clinton attended the US college basketball finals.	Clinton attended the US college baksetball finals	232374293	1478204715280	1478204715341	 	32
454564	4894994	Clinton attended the US college basketball finals.	Clinton attended the US college baksetball finals	232374296	1478204715434	1478204715574	t	84
454564	4894994	Clinton attended the US college basketball finals.	Clinton attended the US college baksetball finals	232374301	1478204715534	1478204715618	h	72
454564	4894994	Clinton attended the US college basketball finals.	Clinton attended the US college baksetball finals	232374307	1478204715634	1478204715798	e	69
454564	4894994	Clinton attended the US college basketball finals.	Clinton attended the US college baksetball finals	232374393	1478204715765	1478204715866	 	32
454564	4894994	Clinton attended the US college basketball finals.	Clinton attended the US college baksetball finals	232374402	1478204715881	1478204716197	SHIFT	16
454564	4894994	Clinton attended the US college basketball finals.	Clinton attended the US college baksetball finals	232374395	1478204716065	1478204716181	U	85
454564	4894994	Clinton attended the US college basketball finals.	Clinton attended the US college baksetball finals	232374406	1478204716219	1478204716366	s	83
454564	4894994	Clinton attended the US college basketball finals.	Clinton attended the US college baksetball finals	232374414	1478204716698	1478204716813	BKSP	8
454564	4894994	Clinton attended the US college basketball finals.	Clinton attended the US college baksetball finals	232374422	1478204716898	1478204717152	SHIFT	16
454564	4894994	Clinton attended the US college basketball finals.	Clinton attended the US college baksetball finals	232374417	1478204717036	1478204717137	S	83
454564	4894994	Clinton attended the US college basketball finals.	Clinton attended the US college baksetball finals	232374426	1478204717237	1478204717337	 	32
454564	4894994	Clinton attended the US college basketball finals.	Clinton attended the US college baksetball finals	232374432	1478204717453	1478204717622	c	67
454564	4894994	Clinton attended the US college basketball finals.	Clinton attended the US college baksetball finals	232374455	1478204717784	1478204717875	o	79
454564	4894994	Clinton attended the US college basketball finals.	Clinton attended the US college baksetball finals	232374457	1478204717984	1478204718059	l	76
454564	4894994	Clinton attended the US college basketball finals.	Clinton attended the US college baksetball finals	232374460	1478204718118	1478204718201	l	76
454564	4894994	Clinton attended the US college basketball finals.	Clinton attended the US college baksetball finals	232374463	1478204718222	1478204718370	e	69
454564	4894994	Clinton attended the US college basketball finals.	Clinton attended the US college baksetball finals	232374496	1478204718318	1478204718421	g	71
454564	4894994	Clinton attended the US college basketball finals.	Clinton attended the US college baksetball finals	232374500	1478204718469	1478204718554	e	69
454564	4894994	Clinton attended the US college basketball finals.	Clinton attended the US college baksetball finals	232374507	1478204718569	1478204718638	 	32
454564	4894994	Clinton attended the US college basketball finals.	Clinton attended the US college baksetball finals	232374512	1478204718723	1478204718823	b	66
454564	4894994	Clinton attended the US college basketball finals.	Clinton attended the US college baksetball finals	232374518	1478204718839	1478204718933	a	65
454564	4894994	Clinton attended the US college basketball finals.	Clinton attended the US college baksetball finals	232374553	1478204718918	1478204719029	k	75
454564	4894994	Clinton attended the US college basketball finals.	Clinton attended the US college baksetball finals	232374557	1478204719002	1478204719162	s	83
454564	4894994	Clinton attended the US college basketball finals.	Clinton attended the US college baksetball finals	232374561	1478204719110	1478204719278	e	69
454564	4894994	Clinton attended the US college basketball finals.	Clinton attended the US college baksetball finals	232374564	1478204719223	1478204719385	t	84
454564	4894994	Clinton attended the US college basketball finals.	Clinton attended the US college baksetball finals	232374570	1478204719454	1478204719584	a	65
454564	4894994	Clinton attended the US college basketball finals.	Clinton attended the US college baksetball finals	232374573	1478204719621	1478204719739	b	66
454564	4894994	Clinton attended the US college basketball finals.	Clinton attended the US college baksetball finals	232374639	1478204719813	1478204719894	l	76
454564	4894994	Clinton attended the US college basketball finals.	Clinton attended the US college baksetball finals	232374644	1478204720156	1478204720189	BKSP	8
454564	4894994	Clinton attended the US college basketball finals.	Clinton attended the US college baksetball finals	232374648	1478204720240	1478204720340	BKSP	8
454564	4894994	Clinton attended the US college basketball finals.	Clinton attended the US college baksetball finals	232374653	1478204720387	1478204720461	BKSP	8
454564	4894994	Clinton attended the US college basketball finals.	Clinton attended the US college baksetball finals	232374658	1478204720724	1478204720814	b	66
454564	4894994	Clinton attended the US college basketball finals.	Clinton attended the US college baksetball finals	232374665	1478204720824	1478204720977	a	65
454564	4894994	Clinton attended the US college basketball finals.	Clinton attended the US college baksetball finals	232374661	1478204720889	1478204720945	l	76
454564	4894994	Clinton attended the US college basketball finals.	Clinton attended the US college baksetball finals	232374669	1478204721008	1478204721081	l	76
454564	4894994	Clinton attended the US college basketball finals.	Clinton attended the US college baksetball finals	232374682	1478204721257	1478204721363	 	32
454564	4894994	Clinton attended the US college basketball finals.	Clinton attended the US college baksetball finals	232374685	1478204721572	1478204721693	f	70
454564	4894994	Clinton attended the US college basketball finals.	Clinton attended the US college baksetball finals	232374689	1478204721673	1478204721780	i	73
454564	4894994	Clinton attended the US college basketball finals.	Clinton attended the US college baksetball finals	232374696	1478204721725	1478204721845	n	78
454564	4894994	Clinton attended the US college basketball finals.	Clinton attended the US college baksetball finals	232374715	1478204721822	1478204721931	a	65
454564	4894994	Clinton attended the US college basketball finals.	Clinton attended the US college baksetball finals	232374719	1478204721889	1478204721994	l	76
454564	4894994	Clinton attended the US college basketball finals.	Clinton attended the US college baksetball finals	232374723	1478204722026	1478204722125	s	83
454564	4895012	Donovan McNabb is one of my starters.	Donovan McNabb is one of my starters.	232374896	1478204723607	1478204723844	SHIFT	16
454564	4895012	Donovan McNabb is one of my starters.	Donovan McNabb is one of my starters.	232374899	1478204723765	1478204723860	D	68
454564	4895012	Donovan McNabb is one of my starters.	Donovan McNabb is one of my starters.	232374900	1478204723928	1478204724084	o	79
454564	4895012	Donovan McNabb is one of my starters.	Donovan McNabb is one of my starters.	232374903	1478204724045	1478204724160	n	78
454564	4895012	Donovan McNabb is one of my starters.	Donovan McNabb is one of my starters.	232374907	1478204724207	1478204724329	o	79
454564	4895012	Donovan McNabb is one of my starters.	Donovan McNabb is one of my starters.	232374908	1478204724576	1478204724725	v	86
454564	4895012	Donovan McNabb is one of my starters.	Donovan McNabb is one of my starters.	232374990	1478204724645	1478204724829	a	65
454564	4895012	Donovan McNabb is one of my starters.	Donovan McNabb is one of my starters.	232374995	1478204724800	1478204724891	n	78
454564	4895012	Donovan McNabb is one of my starters.	Donovan McNabb is one of my starters.	232374999	1478204724992	1478204725081	 	32
454564	4895012	Donovan McNabb is one of my starters.	Donovan McNabb is one of my starters.	232375003	1478204725230	1478204725413	SHIFT	16
454564	4895012	Donovan McNabb is one of my starters.	Donovan McNabb is one of my starters.	232375006	1478204725293	1478204725431	M	77
454564	4895012	Donovan McNabb is one of my starters.	Donovan McNabb is one of my starters.	232375009	1478204726078	1478204726210	c	67
454564	4895012	Donovan McNabb is one of my starters.	Donovan McNabb is one of my starters.	232375013	1478204726178	1478204726347	SHIFT	16
454564	4895012	Donovan McNabb is one of my starters.	Donovan McNabb is one of my starters.	232375026	1478204726262	1478204726369	N	78
454564	4895012	Donovan McNabb is one of my starters.	Donovan McNabb is one of my starters.	232375028	1478204726429	1478204726581	a	65
454564	4895012	Donovan McNabb is one of my starters.	Donovan McNabb is one of my starters.	232375031	1478204726531	1478204726632	b	66
454564	4895012	Donovan McNabb is one of my starters.	Donovan McNabb is one of my starters.	232375034	1478204726695	1478204726783	b	66
454564	4895012	Donovan McNabb is one of my starters.	Donovan McNabb is one of my starters.	232375038	1478204726798	1478204726900	 	32
454564	4895012	Donovan McNabb is one of my starters.	Donovan McNabb is one of my starters.	232375041	1478204726932	1478204727048	i	73
454564	4895012	Donovan McNabb is one of my starters.	Donovan McNabb is one of my starters.	232375046	1478204727065	1478204727181	s	83
454564	4895012	Donovan McNabb is one of my starters.	Donovan McNabb is one of my starters.	232375050	1478204727132	1478204727248	 	32
454564	4895012	Donovan McNabb is one of my starters.	Donovan McNabb is one of my starters.	232375055	1478204727295	1478204727432	o	79
454564	4895012	Donovan McNabb is one of my starters.	Donovan McNabb is one of my starters.	232375060	1478204727368	1478204727485	n	78
454564	4895012	Donovan McNabb is one of my starters.	Donovan McNabb is one of my starters.	232375087	1478204727464	1478204727579	e	69
454564	4895012	Donovan McNabb is one of my starters.	Donovan McNabb is one of my starters.	232375088	1478204727595	1478204727702	 	32
454564	4895012	Donovan McNabb is one of my starters.	Donovan McNabb is one of my starters.	232375090	1478204727764	1478204727864	o	79
454564	4895012	Donovan McNabb is one of my starters.	Donovan McNabb is one of my starters.	232375093	1478204727895	1478204727978	f	70
454564	4895012	Donovan McNabb is one of my starters.	Donovan McNabb is one of my starters.	232375098	1478204727994	1478204728055	 	32
454564	4895012	Donovan McNabb is one of my starters.	Donovan McNabb is one of my starters.	232375102	1478204728149	1478204728233	m	77
454564	4895012	Donovan McNabb is one of my starters.	Donovan McNabb is one of my starters.	232375146	1478204728256	1478204728381	y	89
454564	4895012	Donovan McNabb is one of my starters.	Donovan McNabb is one of my starters.	232375149	1478204728349	1478204728433	 	32
454564	4895012	Donovan McNabb is one of my starters.	Donovan McNabb is one of my starters.	232375153	1478204728480	1478204728621	s	83
454564	4895012	Donovan McNabb is one of my starters.	Donovan McNabb is one of my starters.	232375158	1478204728596	1478204728700	t	84
454564	4895012	Donovan McNabb is one of my starters.	Donovan McNabb is one of my starters.	232375167	1478204728750	1478204728934	a	65
454564	4895012	Donovan McNabb is one of my starters.	Donovan McNabb is one of my starters.	232375202	1478204729034	1478204729150	r	82
454564	4895012	Donovan McNabb is one of my starters.	Donovan McNabb is one of my starters.	232375206	1478204729213	1478204729349	t	84
454564	4895012	Donovan McNabb is one of my starters.	Donovan McNabb is one of my starters.	232375212	1478204729297	1478204729472	e	69
454564	4895012	Donovan McNabb is one of my starters.	Donovan McNabb is one of my starters.	232375216	1478204729430	1478204729581	r	82
454564	4895012	Donovan McNabb is one of my starters.	Donovan McNabb is one of my starters.	232375252	1478204729550	1478204729682	s	83
454564	4895022	Please set me, Heidi DuBose, up as their travel arranger.	Please set me, Heidi Dubose, up as their travel arranger.	232376151	1478204729898	1478204742949	.	190
454564	4895022	Please set me, Heidi DuBose, up as their travel arranger.	Please set me, Heidi Dubose, up as their travel arranger.	232375463	1478204731284	1478204731805	SHIFT	16
454564	4895022	Please set me, Heidi DuBose, up as their travel arranger.	Please set me, Heidi Dubose, up as their travel arranger.	232375456	1478204731715	1478204731790	P	80
454564	4895022	Please set me, Heidi DuBose, up as their travel arranger.	Please set me, Heidi Dubose, up as their travel arranger.	232375466	1478204731916	1478204732006	l	76
454564	4895022	Please set me, Heidi DuBose, up as their travel arranger.	Please set me, Heidi Dubose, up as their travel arranger.	232375468	1478204732054	1478204732169	e	69
454564	4895022	Please set me, Heidi DuBose, up as their travel arranger.	Please set me, Heidi Dubose, up as their travel arranger.	232375471	1478204732597	1478204732725	a	65
454564	4895022	Please set me, Heidi DuBose, up as their travel arranger.	Please set me, Heidi Dubose, up as their travel arranger.	232375509	1478204732658	1478204732890	s	83
454564	4895022	Please set me, Heidi DuBose, up as their travel arranger.	Please set me, Heidi Dubose, up as their travel arranger.	232375515	1478204732801	1478204732939	e	69
454564	4895022	Please set me, Heidi DuBose, up as their travel arranger.	Please set me, Heidi Dubose, up as their travel arranger.	232375521	1478204733202	1478204733365	 	32
454564	4895022	Please set me, Heidi DuBose, up as their travel arranger.	Please set me, Heidi Dubose, up as their travel arranger.	232375526	1478204733339	1478204733523	s	83
454564	4895022	Please set me, Heidi DuBose, up as their travel arranger.	Please set me, Heidi Dubose, up as their travel arranger.	232375531	1478204733408	1478204733671	e	69
454564	4895022	Please set me, Heidi DuBose, up as their travel arranger.	Please set me, Heidi Dubose, up as their travel arranger.	232375581	1478204733571	1478204733741	t	84
454564	4895022	Please set me, Heidi DuBose, up as their travel arranger.	Please set me, Heidi Dubose, up as their travel arranger.	232375583	1478204733698	1478204733774	 	32
454564	4895022	Please set me, Heidi DuBose, up as their travel arranger.	Please set me, Heidi Dubose, up as their travel arranger.	232375584	1478204733903	1478204733991	m	77
454564	4895022	Please set me, Heidi DuBose, up as their travel arranger.	Please set me, Heidi Dubose, up as their travel arranger.	232375587	1478204734072	1478204734188	e	69
454564	4895022	Please set me, Heidi DuBose, up as their travel arranger.	Please set me, Heidi Dubose, up as their travel arranger.	232375590	1478204734472	1478204734557	,	188
454564	4895022	Please set me, Heidi DuBose, up as their travel arranger.	Please set me, Heidi Dubose, up as their travel arranger.	232375594	1478204734619	1478204734741	 	32
454564	4895022	Please set me, Heidi DuBose, up as their travel arranger.	Please set me, Heidi Dubose, up as their travel arranger.	232375645	1478204734686	1478204735072	SHIFT	16
454564	4895022	Please set me, Heidi DuBose, up as their travel arranger.	Please set me, Heidi Dubose, up as their travel arranger.	232375640	1478204734904	1478204735007	H	72
454564	4895022	Please set me, Heidi DuBose, up as their travel arranger.	Please set me, Heidi Dubose, up as their travel arranger.	232375652	1478204735157	1478204735317	e	69
454564	4895022	Please set me, Heidi DuBose, up as their travel arranger.	Please set me, Heidi Dubose, up as their travel arranger.	232375659	1478204735288	1478204735389	i	73
454564	4895022	Please set me, Heidi DuBose, up as their travel arranger.	Please set me, Heidi Dubose, up as their travel arranger.	232375666	1478204735621	1478204735765	d	68
454564	4895022	Please set me, Heidi DuBose, up as their travel arranger.	Please set me, Heidi Dubose, up as their travel arranger.	232375742	1478204735724	1478204735823	i	73
454564	4895022	Please set me, Heidi DuBose, up as their travel arranger.	Please set me, Heidi Dubose, up as their travel arranger.	232375746	1478204735873	1478204736005	 	32
454564	4895022	Please set me, Heidi DuBose, up as their travel arranger.	Please set me, Heidi Dubose, up as their travel arranger.	232375752	1478204736021	1478204736229	SHIFT	16
454564	4895022	Please set me, Heidi DuBose, up as their travel arranger.	Please set me, Heidi Dubose, up as their travel arranger.	232375755	1478204736143	1478204736290	D	68
454564	4895022	Please set me, Heidi DuBose, up as their travel arranger.	Please set me, Heidi Dubose, up as their travel arranger.	232375760	1478204736375	1478204736575	u	85
454564	4895022	Please set me, Heidi DuBose, up as their travel arranger.	Please set me, Heidi Dubose, up as their travel arranger.	232375766	1478204736934	1478204737060	b	66
454564	4895022	Please set me, Heidi DuBose, up as their travel arranger.	Please set me, Heidi Dubose, up as their travel arranger.	232375838	1478204736995	1478204737145	o	79
454564	4895022	Please set me, Heidi DuBose, up as their travel arranger.	Please set me, Heidi Dubose, up as their travel arranger.	232375840	1478204737223	1478204737392	s	83
454564	4895022	Please set me, Heidi DuBose, up as their travel arranger.	Please set me, Heidi Dubose, up as their travel arranger.	232375843	1478204737423	1478204737541	e	69
454564	4895022	Please set me, Heidi DuBose, up as their travel arranger.	Please set me, Heidi Dubose, up as their travel arranger.	232375847	1478204737924	1478204738012	,	188
454564	4895022	Please set me, Heidi DuBose, up as their travel arranger.	Please set me, Heidi Dubose, up as their travel arranger.	232375850	1478204738077	1478204738179	 	32
454564	4895022	Please set me, Heidi DuBose, up as their travel arranger.	Please set me, Heidi Dubose, up as their travel arranger.	232375856	1478204738245	1478204738397	u	85
454564	4895022	Please set me, Heidi DuBose, up as their travel arranger.	Please set me, Heidi Dubose, up as their travel arranger.	232375888	1478204738347	1478204738479	p	80
454564	4895022	Please set me, Heidi DuBose, up as their travel arranger.	Please set me, Heidi Dubose, up as their travel arranger.	232375891	1478204738495	1478204738645	a	65
454564	4895022	Please set me, Heidi DuBose, up as their travel arranger.	Please set me, Heidi Dubose, up as their travel arranger.	232375896	1478204738826	1478204738913	BKSP	8
454564	4895022	Please set me, Heidi DuBose, up as their travel arranger.	Please set me, Heidi Dubose, up as their travel arranger.	232375900	1478204739114	1478204739207	 	32
454564	4895022	Please set me, Heidi DuBose, up as their travel arranger.	Please set me, Heidi Dubose, up as their travel arranger.	232375904	1478204739256	1478204739413	a	65
454564	4895022	Please set me, Heidi DuBose, up as their travel arranger.	Please set me, Heidi Dubose, up as their travel arranger.	232375909	1478204739349	1478204739509	s	83
454564	4895022	Please set me, Heidi DuBose, up as their travel arranger.	Please set me, Heidi Dubose, up as their travel arranger.	232375952	1478204739472	1478204739556	 	32
454564	4895022	Please set me, Heidi DuBose, up as their travel arranger.	Please set me, Heidi Dubose, up as their travel arranger.	232375953	1478204739619	1478204739726	t	84
454564	4895022	Please set me, Heidi DuBose, up as their travel arranger.	Please set me, Heidi Dubose, up as their travel arranger.	232375957	1478204739680	1478204739791	h	72
454564	4895022	Please set me, Heidi DuBose, up as their travel arranger.	Please set me, Heidi Dubose, up as their travel arranger.	232375961	1478204739807	1478204739876	e	69
454564	4895022	Please set me, Heidi DuBose, up as their travel arranger.	Please set me, Heidi Dubose, up as their travel arranger.	232375964	1478204739891	1478204739960	i	73
454564	4895022	Please set me, Heidi DuBose, up as their travel arranger.	Please set me, Heidi Dubose, up as their travel arranger.	232375965	1478204740476	1478204740576	r	82
454564	4895022	Please set me, Heidi DuBose, up as their travel arranger.	Please set me, Heidi Dubose, up as their travel arranger.	232376002	1478204740593	1478204740661	 	32
454564	4895022	Please set me, Heidi DuBose, up as their travel arranger.	Please set me, Heidi Dubose, up as their travel arranger.	232376006	1478204740876	1478204741017	t	84
454564	4895022	Please set me, Heidi DuBose, up as their travel arranger.	Please set me, Heidi Dubose, up as their travel arranger.	232376009	1478204740977	1478204741205	r	82
454564	4895022	Please set me, Heidi DuBose, up as their travel arranger.	Please set me, Heidi Dubose, up as their travel arranger.	232376014	1478204741177	1478204741368	a	65
454564	4895022	Please set me, Heidi DuBose, up as their travel arranger.	Please set me, Heidi Dubose, up as their travel arranger.	232376045	1478204741323	1478204741461	v	86
454564	4895022	Please set me, Heidi DuBose, up as their travel arranger.	Please set me, Heidi Dubose, up as their travel arranger.	232376049	1478204741402	1478204741534	e	69
454564	4895022	Please set me, Heidi DuBose, up as their travel arranger.	Please set me, Heidi Dubose, up as their travel arranger.	232376052	1478204741492	1478204741561	l	76
454564	4895022	Please set me, Heidi DuBose, up as their travel arranger.	Please set me, Heidi Dubose, up as their travel arranger.	232376056	1478204741624	1478204741700	 	32
454564	4895022	Please set me, Heidi DuBose, up as their travel arranger.	Please set me, Heidi Dubose, up as their travel arranger.	232376061	1478204741757	1478204741909	a	65
454564	4895022	Please set me, Heidi DuBose, up as their travel arranger.	Please set me, Heidi Dubose, up as their travel arranger.	232376090	1478204741810	1478204741937	r	82
454564	4895022	Please set me, Heidi DuBose, up as their travel arranger.	Please set me, Heidi Dubose, up as their travel arranger.	232376096	1478204741993	1478204742133	r	82
454564	4895022	Please set me, Heidi DuBose, up as their travel arranger.	Please set me, Heidi Dubose, up as their travel arranger.	232376103	1478204742109	1478204742194	a	65
454564	4895022	Please set me, Heidi DuBose, up as their travel arranger.	Please set me, Heidi Dubose, up as their travel arranger.	232376115	1478204742225	1478204742300	n	78
454564	4895022	Please set me, Heidi DuBose, up as their travel arranger.	Please set me, Heidi Dubose, up as their travel arranger.	232376123	1478204742347	1478204742481	g	71
454564	4895022	Please set me, Heidi DuBose, up as their travel arranger.	Please set me, Heidi Dubose, up as their travel arranger.	232376144	1478204742416	1478204742581	e	69
454564	4895022	Please set me, Heidi DuBose, up as their travel arranger.	Please set me, Heidi Dubose, up as their travel arranger.	232376147	1478204742597	1478204742728	r	82
454564	4895043	US ships will also lead a second task force.	US ships will also lead a second task force.	232376282	1478204744484	1478204745101	SHIFT	16
454564	4895043	US ships will also lead a second task force.	US ships will also lead a second task force.	232376274	1478204744817	1478204744969	U	85
454564	4895043	US ships will also lead a second task force.	US ships will also lead a second task force.	232376278	1478204744985	1478204745030	S	83
454564	4895043	US ships will also lead a second task force.	US ships will also lead a second task force.	232376286	1478204745285	1478204745386	 	32
454564	4895043	US ships will also lead a second task force.	US ships will also lead a second task force.	232376291	1478204745401	1478204745508	s	83
454564	4895043	US ships will also lead a second task force.	US ships will also lead a second task force.	232376330	1478204745470	1478204745602	h	72
454564	4895043	US ships will also lead a second task force.	US ships will also lead a second task force.	232376335	1478204745523	1478204745670	i	73
454564	4895043	US ships will also lead a second task force.	US ships will also lead a second task force.	232376349	1478204745618	1478204745797	p	80
454564	4895043	US ships will also lead a second task force.	US ships will also lead a second task force.	232376359	1478204745771	1478204745871	s	83
454564	4895043	US ships will also lead a second task force.	US ships will also lead a second task force.	232376365	1478204745902	1478204746017	 	32
454564	4895043	US ships will also lead a second task force.	US ships will also lead a second task force.	232376374	1478204746218	1478204746301	w	87
454564	4895043	US ships will also lead a second task force.	US ships will also lead a second task force.	232376402	1478204746269	1478204746387	i	73
454564	4895043	US ships will also lead a second task force.	US ships will also lead a second task force.	232376406	1478204746472	1478204746587	l	76
454564	4895043	US ships will also lead a second task force.	US ships will also lead a second task force.	232376412	1478204746649	1478204746746	l	76
454564	4895043	US ships will also lead a second task force.	US ships will also lead a second task force.	232376417	1478204746871	1478204746988	 	32
454564	4895043	US ships will also lead a second task force.	US ships will also lead a second task force.	232376421	1478204747003	1478204747140	a	65
454564	4895043	US ships will also lead a second task force.	US ships will also lead a second task force.	232376458	1478204747088	1478204747204	l	76
454564	4895043	US ships will also lead a second task force.	US ships will also lead a second task force.	232376466	1478204747219	1478204747341	s	83
454564	4895043	US ships will also lead a second task force.	US ships will also lead a second task force.	232376479	1478204747303	1478204747450	o	79
454564	4895043	US ships will also lead a second task force.	US ships will also lead a second task force.	232376488	1478204747504	1478204747604	 	32
454564	4895043	US ships will also lead a second task force.	US ships will also lead a second task force.	232376494	1478204747651	1478204747753	l	76
454564	4895043	US ships will also lead a second task force.	US ships will also lead a second task force.	232376500	1478204747788	1478204747936	e	69
454564	4895043	US ships will also lead a second task force.	US ships will also lead a second task force.	232376527	1478204747953	1478204748173	a	65
454564	4895043	US ships will also lead a second task force.	US ships will also lead a second task force.	232376532	1478204748073	1478204748213	d	68
454564	4895043	US ships will also lead a second task force.	US ships will also lead a second task force.	232376538	1478204748189	1478204748289	 	32
454564	4895043	US ships will also lead a second task force.	US ships will also lead a second task force.	232376545	1478204748421	1478204748556	a	65
454564	4895043	US ships will also lead a second task force.	US ships will also lead a second task force.	232376564	1478204748521	1478204748606	 	32
454564	4895043	US ships will also lead a second task force.	US ships will also lead a second task force.	232376566	1478204748670	1478204748823	s	83
454564	4895043	US ships will also lead a second task force.	US ships will also lead a second task force.	232376569	1478204748755	1478204748874	e	69
454564	4895043	US ships will also lead a second task force.	US ships will also lead a second task force.	232376573	1478204748973	1478204749109	c	67
454564	4895043	US ships will also lead a second task force.	US ships will also lead a second task force.	232376578	1478204749090	1478204749225	o	79
454564	4895043	US ships will also lead a second task force.	US ships will also lead a second task force.	232376608	1478204749156	1478204749301	n	78
454564	4895043	US ships will also lead a second task force.	US ships will also lead a second task force.	232376610	1478204749274	1478204749374	d	68
454564	4895043	US ships will also lead a second task force.	US ships will also lead a second task force.	232376613	1478204749390	1478204749506	 	32
454564	4895043	US ships will also lead a second task force.	US ships will also lead a second task force.	232376617	1478204749553	1478204749707	t	84
454564	4895043	US ships will also lead a second task force.	US ships will also lead a second task force.	232376621	1478204749607	1478204749802	a	65
454564	4895043	US ships will also lead a second task force.	US ships will also lead a second task force.	232376682	1478204749754	1478204749906	s	83
454564	4895043	US ships will also lead a second task force.	US ships will also lead a second task force.	232376688	1478204749937	1478204750038	k	75
454564	4895043	US ships will also lead a second task force.	US ships will also lead a second task force.	232376693	1478204750207	1478204750323	 	32
454564	4895043	US ships will also lead a second task force.	US ships will also lead a second task force.	232376699	1478204750354	1478204750501	f	70
454564	4895043	US ships will also lead a second task force.	US ships will also lead a second task force.	232376704	1478204750476	1478204750597	o	79
454564	4895043	US ships will also lead a second task force.	US ships will also lead a second task force.	232376733	1478204750573	1478204750642	r	82
454564	4895043	US ships will also lead a second task force.	US ships will also lead a second task force.	232376736	1478204750777	1478204750993	c	67
454564	4895043	US ships will also lead a second task force.	US ships will also lead a second task force.	232376742	1478204750924	1478204751076	e	69
454564	4895054	Nick makes work fun.	Nick makes work fun	232376916	1478204752610	1478204752842	SHIFT	16
454564	4895054	Nick makes work fun.	Nick makes work fun	232376925	1478204752910	1478204753326	SHIFT	16
454564	4895054	Nick makes work fun.	Nick makes work fun	232376919	1478204752942	1478204753041	N	78
454564	4895054	Nick makes work fun.	Nick makes work fun	232376930	1478204753461	1478204753543	i	73
454564	4895054	Nick makes work fun.	Nick makes work fun	232376935	1478204753579	1478204753696	c	67
454564	4895054	Nick makes work fun.	Nick makes work fun	232376941	1478204753660	1478204753743	k	75
454564	4895054	Nick makes work fun.	Nick makes work fun	232376945	1478204753811	1478204753880	 	32
454564	4895054	Nick makes work fun.	Nick makes work fun	232376955	1478204753960	1478204754085	m	77
454564	4895054	Nick makes work fun.	Nick makes work fun	232376959	1478204754061	1478204754213	a	65
454564	4895054	Nick makes work fun.	Nick makes work fun	232376963	1478204754195	1478204754296	k	75
454564	4895054	Nick makes work fun.	Nick makes work fun	232376966	1478204754428	1478204754562	e	69
454564	4895054	Nick makes work fun.	Nick makes work fun	232376974	1478204754480	1478204754621	s	83
454564	4895054	Nick makes work fun.	Nick makes work fun	232376975	1478204754600	1478204754681	 	32
454564	4895054	Nick makes work fun.	Nick makes work fun	232376977	1478204754712	1478204754848	w	87
454564	4895054	Nick makes work fun.	Nick makes work fun	232376979	1478204754797	1478204754881	o	79
454564	4895054	Nick makes work fun.	Nick makes work fun	232376981	1478204754928	1478204755047	r	82
454564	4895054	Nick makes work fun.	Nick makes work fun	232377040	1478204755013	1478204755097	k	75
454564	4895054	Nick makes work fun.	Nick makes work fun	232377045	1478204755160	1478204755247	 	32
454564	4895054	Nick makes work fun.	Nick makes work fun	232377049	1478204755281	1478204755397	f	70
454564	4895054	Nick makes work fun.	Nick makes work fun	232377053	1478204755373	1478204755501	u	85
454564	4895054	Nick makes work fun.	Nick makes work fun	232377055	1478204755477	1478204755581	n	78
454564	4895064	We currently have 6 employees.	We currently have 6 employees.	232377183	1478204757584	1478204757816	SHIFT	16
454564	4895064	We currently have 6 employees.	We currently have 6 employees.	232377187	1478204757731	1478204757893	W	87
454564	4895064	We currently have 6 employees.	We currently have 6 employees.	232377191	1478204757847	1478204757984	e	69
454564	4895064	We currently have 6 employees.	We currently have 6 employees.	232377198	1478204758000	1478204758084	 	32
454564	4895064	We currently have 6 employees.	We currently have 6 employees.	232377204	1478204758263	1478204758429	c	67
454564	4895064	We currently have 6 employees.	We currently have 6 employees.	232377232	1478204758401	1478204758516	u	85
454564	4895064	We currently have 6 employees.	We currently have 6 employees.	232377233	1478204758717	1478204758817	r	82
454564	4895064	We currently have 6 employees.	We currently have 6 employees.	232377236	1478204758864	1478204758981	r	82
454564	4895064	We currently have 6 employees.	We currently have 6 employees.	232377240	1478204758948	1478204759064	e	69
454564	4895064	We currently have 6 employees.	We currently have 6 employees.	232377244	1478204759087	1478204759196	n	78
454564	4895064	We currently have 6 employees.	We currently have 6 employees.	232377334	1478204759167	1478204759302	t	84
454564	4895064	We currently have 6 employees.	We currently have 6 employees.	232377341	1478204759406	1478204759565	l	76
454564	4895064	We currently have 6 employees.	We currently have 6 employees.	232377337	1478204759429	1478204759518	y	89
454564	4895064	We currently have 6 employees.	We currently have 6 employees.	232377347	1478204760134	1478204760218	 	32
454564	4895064	We currently have 6 employees.	We currently have 6 employees.	232377354	1478204760318	1478204760451	h	72
454564	4895064	We currently have 6 employees.	We currently have 6 employees.	232377394	1478204760419	1478204760562	a	65
454564	4895064	We currently have 6 employees.	We currently have 6 employees.	232377400	1478204760519	1478204760667	v	86
454564	4895064	We currently have 6 employees.	We currently have 6 employees.	232377408	1478204760603	1478204760749	e	69
454564	4895064	We currently have 6 employees.	We currently have 6 employees.	232377416	1478204760703	1478204760788	 	32
454564	4895064	We currently have 6 employees.	We currently have 6 employees.	232377421	1478204761167	1478204761268	6	102
454564	4895064	We currently have 6 employees.	We currently have 6 employees.	232377427	1478204761304	1478204761404	 	32
454564	4895064	We currently have 6 employees.	We currently have 6 employees.	232377504	1478204761689	1478204761837	e	69
454564	4895064	We currently have 6 employees.	We currently have 6 employees.	232377507	1478204761805	1478204761952	m	77
454564	4895064	We currently have 6 employees.	We currently have 6 employees.	232377512	1478204762237	1478204762389	p	80
454564	4895064	We currently have 6 employees.	We currently have 6 employees.	232377516	1478204762305	1478204762436	l	76
454564	4895064	We currently have 6 employees.	We currently have 6 employees.	232377520	1478204762521	1478204762652	o	79
454564	4895064	We currently have 6 employees.	We currently have 6 employees.	232377580	1478204762673	1478204762789	y	89
454564	4895064	We currently have 6 employees.	We currently have 6 employees.	232377584	1478204762952	1478204763106	e	69
454564	4895064	We currently have 6 employees.	We currently have 6 employees.	232377591	1478204763169	1478204763339	e	69
454564	4895064	We currently have 6 employees.	We currently have 6 employees.	232377597	1478204763306	1478204763454	s	83
454564	4895072	It reads like she is in.	It reads like she is in.	232377778	1478204765333	1478204765910	SHIFT	16
454564	4895072	It reads like she is in.	It reads like she is in.	232377770	1478204765641	1478204765809	I	73
454564	4895072	It reads like she is in.	It reads like she is in.	232377774	1478204765756	1478204765894	T	84
454564	4895072	It reads like she is in.	It reads like she is in.	232377781	1478204766095	1478204766189	BKSP	8
454564	4895072	It reads like she is in.	It reads like she is in.	232377783	1478204766210	1478204766295	t	84
454564	4895072	It reads like she is in.	It reads like she is in.	232377785	1478204766326	1478204766426	 	32
454564	4895072	It reads like she is in.	It reads like she is in.	232377788	1478204766610	1478204766741	r	82
454564	4895072	It reads like she is in.	It reads like she is in.	232377838	1478204766667	1478204766842	e	69
454564	4895072	It reads like she is in.	It reads like she is in.	232377849	1478204766858	1478204767057	a	65
454564	4895072	It reads like she is in.	It reads like she is in.	232377858	1478204766972	1478204767095	d	68
454564	4895072	It reads like she is in.	It reads like she is in.	232377867	1478204767127	1478204767269	s	83
454564	4895072	It reads like she is in.	It reads like she is in.	232377876	1478204767242	1478204767342	 	32
454564	4895072	It reads like she is in.	It reads like she is in.	232377884	1478204767426	1478204767556	l	76
454564	4895072	It reads like she is in.	It reads like she is in.	232377944	1478204767493	1478204767589	i	73
454564	4895072	It reads like she is in.	It reads like she is in.	232377949	1478204767674	1478204767772	k	75
454564	4895072	It reads like she is in.	It reads like she is in.	232377957	1478204767796	1478204767869	e	69
454564	4895072	It reads like she is in.	It reads like she is in.	232377960	1478204767896	1478204767944	 	32
454564	4895072	It reads like she is in.	It reads like she is in.	232377965	1478204768012	1478204768112	s	83
454564	4895072	It reads like she is in.	It reads like she is in.	232377970	1478204768343	1478204768497	h	72
454564	4895072	It reads like she is in.	It reads like she is in.	232378002	1478204768567	1478204768712	e	69
454564	4895072	It reads like she is in.	It reads like she is in.	232378006	1478204768728	1478204768843	 	32
454564	4895072	It reads like she is in.	It reads like she is in.	232378010	1478204768897	1478204768997	i	73
454564	4895072	It reads like she is in.	It reads like she is in.	232378013	1478204769013	1478204769133	s	83
454564	4895072	It reads like she is in.	It reads like she is in.	232378063	1478204769097	1478204769198	 	32
454564	4895072	It reads like she is in.	It reads like she is in.	232378068	1478204769260	1478204769354	i	73
454564	4895072	It reads like she is in.	It reads like she is in.	232378075	1478204769313	1478204769398	n	78
454564	4895079	Still hustling to find dollars for the quarter end.	Still hustling to find dollars for the quarter end.	232378757	1478204769645	1478204780126	.	190
454564	4895079	Still hustling to find dollars for the quarter end.	Still hustling to find dollars for the quarter end.	232378242	1478204771327	1478204771528	SHIFT	16
454564	4895079	Still hustling to find dollars for the quarter end.	Still hustling to find dollars for the quarter end.	232378244	1478204771411	1478204771543	S	83
454564	4895079	Still hustling to find dollars for the quarter end.	Still hustling to find dollars for the quarter end.	232378248	1478204771674	1478204771770	i	73
454564	4895079	Still hustling to find dollars for the quarter end.	Still hustling to find dollars for the quarter end.	232378250	1478204771876	1478204771987	BKSP	8
454564	4895079	Still hustling to find dollars for the quarter end.	Still hustling to find dollars for the quarter end.	232378252	1478204772013	1478204772130	t	84
454564	4895079	Still hustling to find dollars for the quarter end.	Still hustling to find dollars for the quarter end.	232378255	1478204772094	1478204772192	i	73
454564	4895079	Still hustling to find dollars for the quarter end.	Still hustling to find dollars for the quarter end.	232378259	1478204772234	1478204772334	l	76
454564	4895079	Still hustling to find dollars for the quarter end.	Still hustling to find dollars for the quarter end.	232378283	1478204772400	1478204772495	l	76
454564	4895079	Still hustling to find dollars for the quarter end.	Still hustling to find dollars for the quarter end.	232378287	1478204772549	1478204772666	 	32
454564	4895079	Still hustling to find dollars for the quarter end.	Still hustling to find dollars for the quarter end.	232378292	1478204772797	1478204772924	h	72
454564	4895079	Still hustling to find dollars for the quarter end.	Still hustling to find dollars for the quarter end.	232378297	1478204772894	1478204773045	u	85
454564	4895079	Still hustling to find dollars for the quarter end.	Still hustling to find dollars for the quarter end.	232378348	1478204773019	1478204773188	s	83
454564	4895079	Still hustling to find dollars for the quarter end.	Still hustling to find dollars for the quarter end.	232378351	1478204773165	1478204773317	t	84
454564	4895079	Still hustling to find dollars for the quarter end.	Still hustling to find dollars for the quarter end.	232378356	1478204773350	1478204773535	l	76
454564	4895079	Still hustling to find dollars for the quarter end.	Still hustling to find dollars for the quarter end.	232378361	1478204773482	1478204773635	i	73
454564	4895079	Still hustling to find dollars for the quarter end.	Still hustling to find dollars for the quarter end.	232378365	1478204773566	1478204773719	n	78
454564	4895079	Still hustling to find dollars for the quarter end.	Still hustling to find dollars for the quarter end.	232378368	1478204773751	1478204773917	g	71
454564	4895079	Still hustling to find dollars for the quarter end.	Still hustling to find dollars for the quarter end.	232378390	1478204773929	1478204774020	 	32
454564	4895079	Still hustling to find dollars for the quarter end.	Still hustling to find dollars for the quarter end.	232378395	1478204774213	1478204774324	t	84
454564	4895079	Still hustling to find dollars for the quarter end.	Still hustling to find dollars for the quarter end.	232378402	1478204774296	1478204774396	o	79
454564	4895079	Still hustling to find dollars for the quarter end.	Still hustling to find dollars for the quarter end.	232378407	1478204774420	1478204774520	 	32
454564	4895079	Still hustling to find dollars for the quarter end.	Still hustling to find dollars for the quarter end.	232378411	1478204774583	1478204774734	f	70
454564	4895079	Still hustling to find dollars for the quarter end.	Still hustling to find dollars for the quarter end.	232378485	1478204774696	1478204774793	o	79
454564	4895079	Still hustling to find dollars for the quarter end.	Still hustling to find dollars for the quarter end.	232378489	1478204774983	1478204775059	BKSP	8
454564	4895079	Still hustling to find dollars for the quarter end.	Still hustling to find dollars for the quarter end.	232378492	1478204775184	1478204775369	i	73
454564	4895079	Still hustling to find dollars for the quarter end.	Still hustling to find dollars for the quarter end.	232378497	1478204775282	1478204775422	n	78
454564	4895079	Still hustling to find dollars for the quarter end.	Still hustling to find dollars for the quarter end.	232378500	1478204775522	1478204775654	d	68
454564	4895079	Still hustling to find dollars for the quarter end.	Still hustling to find dollars for the quarter end.	232378505	1478204775669	1478204775754	 	32
454564	4895079	Still hustling to find dollars for the quarter end.	Still hustling to find dollars for the quarter end.	232378510	1478204775953	1478204776067	d	68
454564	4895079	Still hustling to find dollars for the quarter end.	Still hustling to find dollars for the quarter end.	232378526	1478204776021	1478204776117	o	79
454564	4895079	Still hustling to find dollars for the quarter end.	Still hustling to find dollars for the quarter end.	232378532	1478204776185	1478204776266	l	76
454564	4895079	Still hustling to find dollars for the quarter end.	Still hustling to find dollars for the quarter end.	232378537	1478204776338	1478204776413	l	76
454564	4895079	Still hustling to find dollars for the quarter end.	Still hustling to find dollars for the quarter end.	232378541	1478204776379	1478204776554	a	65
454564	4895079	Still hustling to find dollars for the quarter end.	Still hustling to find dollars for the quarter end.	232378543	1478204776469	1478204776621	r	82
454564	4895079	Still hustling to find dollars for the quarter end.	Still hustling to find dollars for the quarter end.	232378586	1478204776569	1478204776679	s	83
454564	4895079	Still hustling to find dollars for the quarter end.	Still hustling to find dollars for the quarter end.	232378588	1478204776717	1478204776784	 	32
454564	4895079	Still hustling to find dollars for the quarter end.	Still hustling to find dollars for the quarter end.	232378591	1478204776986	1478204777125	f	70
454564	4895079	Still hustling to find dollars for the quarter end.	Still hustling to find dollars for the quarter end.	232378597	1478204777098	1478204777205	o	79
454564	4895079	Still hustling to find dollars for the quarter end.	Still hustling to find dollars for the quarter end.	232378600	1478204777176	1478204777325	r	82
454564	4895079	Still hustling to find dollars for the quarter end.	Still hustling to find dollars for the quarter end.	232378634	1478204777302	1478204777376	 	32
454564	4895079	Still hustling to find dollars for the quarter end.	Still hustling to find dollars for the quarter end.	232378637	1478204777424	1478204777529	t	84
454564	4895079	Still hustling to find dollars for the quarter end.	Still hustling to find dollars for the quarter end.	232378641	1478204777485	1478204777576	h	72
454564	4895079	Still hustling to find dollars for the quarter end.	Still hustling to find dollars for the quarter end.	232378645	1478204777607	1478204777717	e	69
454564	4895079	Still hustling to find dollars for the quarter end.	Still hustling to find dollars for the quarter end.	232378652	1478204777724	1478204777801	 	32
454564	4895079	Still hustling to find dollars for the quarter end.	Still hustling to find dollars for the quarter end.	232378660	1478204778072	1478204778172	q	81
454564	4895079	Still hustling to find dollars for the quarter end.	Still hustling to find dollars for the quarter end.	232378697	1478204778184	1478204778300	u	85
454564	4895079	Still hustling to find dollars for the quarter end.	Still hustling to find dollars for the quarter end.	232378700	1478204778625	1478204778737	a	65
454564	4895079	Still hustling to find dollars for the quarter end.	Still hustling to find dollars for the quarter end.	232378704	1478204778687	1478204778800	r	82
454564	4895079	Still hustling to find dollars for the quarter end.	Still hustling to find dollars for the quarter end.	232378712	1478204778857	1478204778989	t	84
454564	4895079	Still hustling to find dollars for the quarter end.	Still hustling to find dollars for the quarter end.	232378738	1478204778972	1478204779126	e	69
454564	4895079	Still hustling to find dollars for the quarter end.	Still hustling to find dollars for the quarter end.	232378742	1478204779072	1478204779188	r	82
454564	4895079	Still hustling to find dollars for the quarter end.	Still hustling to find dollars for the quarter end.	232378746	1478204779221	1478204779286	 	32
454564	4895079	Still hustling to find dollars for the quarter end.	Still hustling to find dollars for the quarter end.	232378753	1478204779525	1478204779641	e	69
454564	4895079	Still hustling to find dollars for the quarter end.	Still hustling to find dollars for the quarter end.	232378760	1478204779673	1478204779757	n	78
454564	4895079	Still hustling to find dollars for the quarter end.	Still hustling to find dollars for the quarter end.	232378766	1478204779857	1478204780004	d	68
