PARTICIPANT_ID	TEST_SECTION_ID	SENTENCE	USER_INPUT	KEYSTROKE_ID	PRESS_TIME	RELEASE_TIME	LETTER	KEYCODE
456632	4918072	Nothing but good news everyday.	Nothing but good news everyday.	233463386	1478227249830	1478227249999	SHIFT	16
456632	4918072	Nothing but good news everyday.	Nothing but good news everyday.	233463382	1478227249889	1478227249992	N	78
456632	4918072	Nothing but good news everyday.	Nothing but good news everyday.	233463389	1478227250120	1478227250233	o	79
456632	4918072	Nothing but good news everyday.	Nothing but good news everyday.	233463392	1478227250714	1478227250835	t	84
456632	4918072	Nothing but good news everyday.	Nothing but good news everyday.	233463393	1478227250804	1478227250911	h	72
456632	4918072	Nothing but good news everyday.	Nothing but good news everyday.	233463394	1478227250954	1478227251074	i	73
456632	4918072	Nothing but good news everyday.	Nothing but good news everyday.	233463403	1478227251008	1478227251140	n	78
456632	4918072	Nothing but good news everyday.	Nothing but good news everyday.	233463405	1478227251069	1478227251176	g	71
456632	4918072	Nothing but good news everyday.	Nothing but good news everyday.	233463408	1478227251171	1478227251273	 	32
456632	4918072	Nothing but good news everyday.	Nothing but good news everyday.	233463411	1478227251291	1478227251381	b	66
456632	4918072	Nothing but good news everyday.	Nothing but good news everyday.	233463414	1478227251363	1478227251458	u	85
456632	4918072	Nothing but good news everyday.	Nothing but good news everyday.	233463416	1478227251489	1478227251581	t	84
456632	4918072	Nothing but good news everyday.	Nothing but good news everyday.	233463445	1478227251573	1478227251682	 	32
456632	4918072	Nothing but good news everyday.	Nothing but good news everyday.	233463447	1478227251760	1478227251900	g	71
456632	4918072	Nothing but good news everyday.	Nothing but good news everyday.	233463449	1478227251908	1478227252004	o	79
456632	4918072	Nothing but good news everyday.	Nothing but good news everyday.	233463450	1478227252062	1478227252135	o	79
456632	4918072	Nothing but good news everyday.	Nothing but good news everyday.	233463452	1478227252113	1478227252235	d	68
456632	4918072	Nothing but good news everyday.	Nothing but good news everyday.	233463464	1478227252227	1478227252330	 	32
456632	4918072	Nothing but good news everyday.	Nothing but good news everyday.	233463469	1478227252337	1478227252434	n	78
456632	4918072	Nothing but good news everyday.	Nothing but good news everyday.	233463471	1478227252383	1478227252566	e	69
456632	4918072	Nothing but good news everyday.	Nothing but good news everyday.	233463474	1478227252463	1478227252609	w	87
456632	4918072	Nothing but good news everyday.	Nothing but good news everyday.	233463477	1478227252665	1478227252796	s	83
456632	4918072	Nothing but good news everyday.	Nothing but good news everyday.	233463489	1478227252724	1478227252825	 	32
456632	4918072	Nothing but good news everyday.	Nothing but good news everyday.	233463493	1478227252868	1478227252993	e	69
456632	4918072	Nothing but good news everyday.	Nothing but good news everyday.	233463497	1478227253030	1478227253145	v	86
456632	4918072	Nothing but good news everyday.	Nothing but good news everyday.	233463499	1478227253164	1478227253308	e	69
456632	4918072	Nothing but good news everyday.	Nothing but good news everyday.	233463506	1478227253242	1478227253397	r	82
456632	4918072	Nothing but good news everyday.	Nothing but good news everyday.	233463547	1478227253353	1478227253440	y	89
456632	4918072	Nothing but good news everyday.	Nothing but good news everyday.	233463550	1478227253490	1478227253664	d	68
456632	4918072	Nothing but good news everyday.	Nothing but good news everyday.	233463554	1478227253607	1478227253794	a	65
456632	4918072	Nothing but good news everyday.	Nothing but good news everyday.	233463557	1478227254331	1478227254441	y	89
456632	4918072	Nothing but good news everyday.	Nothing but good news everyday.	233463559	1478227254519	1478227254636	.	190
456632	4918088	I'm still in Dallas!	I'm still in Dallas!	233463636	1478227256666	1478227256799	SHIFT	16
456632	4918088	I'm still in Dallas!	I'm still in Dallas!	233463638	1478227256704	1478227256807	I	73
456632	4918088	I'm still in Dallas!	I'm still in Dallas!	233463640	1478227256872	1478227257021	'	222
456632	4918088	I'm still in Dallas!	I'm still in Dallas!	233463642	1478227256931	1478227257093	m	77
456632	4918088	I'm still in Dallas!	I'm still in Dallas!	233463644	1478227257043	1478227257132	 	32
456632	4918088	I'm still in Dallas!	I'm still in Dallas!	233463750	1478227257101	1478227257270	s	83
456632	4918088	I'm still in Dallas!	I'm still in Dallas!	233463752	1478227257218	1478227257343	t	84
456632	4918088	I'm still in Dallas!	I'm still in Dallas!	233463753	1478227257298	1478227257402	i	73
456632	4918088	I'm still in Dallas!	I'm still in Dallas!	233463754	1478227257457	1478227257684	l	76
456632	4918088	I'm still in Dallas!	I'm still in Dallas!	233463755	1478227257640	1478227257735	 	32
456632	4918088	I'm still in Dallas!	I'm still in Dallas!	233463756	1478227258246	1478227258345	BKSP	8
456632	4918088	I'm still in Dallas!	I'm still in Dallas!	233463757	1478227259440	1478227259585	l	76
456632	4918088	I'm still in Dallas!	I'm still in Dallas!	233463766	1478227259518	1478227259627	 	32
456632	4918088	I'm still in Dallas!	I'm still in Dallas!	233463769	1478227259733	1478227259851	i	73
456632	4918088	I'm still in Dallas!	I'm still in Dallas!	233463775	1478227259778	1478227259909	n	78
456632	4918088	I'm still in Dallas!	I'm still in Dallas!	233463782	1478227259837	1478227259939	 	32
456632	4918088	I'm still in Dallas!	I'm still in Dallas!	233463787	1478227259976	1478227260073	D	16
456632	4918088	I'm still in Dallas!	I'm still in Dallas!	233463836	1478227260065	1478227260229	A	65
456632	4918088	I'm still in Dallas!	I'm still in Dallas!	233463837	1478227260175	1478227260258	l	76
456632	4918088	I'm still in Dallas!	I'm still in Dallas!	233463838	1478227260322	1478227260417	l	76
456632	4918088	I'm still in Dallas!	I'm still in Dallas!	233463839	1478227260424	1478227260605	a	65
456632	4918088	I'm still in Dallas!	I'm still in Dallas!	233463840	1478227260796	1478227260881	BKSP	8
456632	4918088	I'm still in Dallas!	I'm still in Dallas!	233463842	1478227260921	1478227261016	BKSP	8
456632	4918088	I'm still in Dallas!	I'm still in Dallas!	233463846	1478227261083	1478227261183	BKSP	8
456632	4918088	I'm still in Dallas!	I'm still in Dallas!	233463851	1478227261257	1478227261354	BKSP	8
456632	4918088	I'm still in Dallas!	I'm still in Dallas!	233463858	1478227261579	1478227261766	a	65
456632	4918088	I'm still in Dallas!	I'm still in Dallas!	233463940	1478227261687	1478227261864	s	83
456632	4918088	I'm still in Dallas!	I'm still in Dallas!	233463944	1478227261885	1478227261987	l	76
456632	4918088	I'm still in Dallas!	I'm still in Dallas!	233463947	1478227262071	1478227262167	l	76
456632	4918088	I'm still in Dallas!	I'm still in Dallas!	233463953	1478227262473	1478227262575	BKSP	8
456632	4918088	I'm still in Dallas!	I'm still in Dallas!	233463958	1478227262632	1478227262747	BKSP	8
456632	4918088	I'm still in Dallas!	I'm still in Dallas!	233463963	1478227262824	1478227262912	BKSP	8
456632	4918088	I'm still in Dallas!	I'm still in Dallas!	233463967	1478227263072	1478227263184	l	76
456632	4918088	I'm still in Dallas!	I'm still in Dallas!	233463970	1478227263240	1478227263342	l	76
456632	4918088	I'm still in Dallas!	I'm still in Dallas!	233463986	1478227263320	1478227263512	a	65
456632	4918088	I'm still in Dallas!	I'm still in Dallas!	233463988	1478227263394	1478227263518	s	83
456632	4918088	I'm still in Dallas!	I'm still in Dallas!	233463993	1478227263581	1478227263858	SHIFT	16
456632	4918088	I'm still in Dallas!	I'm still in Dallas!	233463991	1478227263671	1478227263780	!	49
456632	4918099	I don't have Lost Creek yet - hopefully before you leave.	I don't have Lost Creek yet- hopefully before you leave.	233464096	1478227265579	1478227265706	SHIFT	16
456632	4918099	I don't have Lost Creek yet - hopefully before you leave.	I don't have Lost Creek yet- hopefully before you leave.	233464099	1478227265673	1478227265759	 	73
456632	4918099	I don't have Lost Creek yet - hopefully before you leave.	I don't have Lost Creek yet- hopefully before you leave.	233464104	1478227265818	1478227265941	d	68
456632	4918099	I don't have Lost Creek yet - hopefully before you leave.	I don't have Lost Creek yet- hopefully before you leave.	233464113	1478227265948	1478227266086	o	79
456632	4918099	I don't have Lost Creek yet - hopefully before you leave.	I don't have Lost Creek yet- hopefully before you leave.	233464129	1478227266022	1478227266133	n	78
456632	4918099	I don't have Lost Creek yet - hopefully before you leave.	I don't have Lost Creek yet- hopefully before you leave.	233464134	1478227266108	1478227266207	'	222
456632	4918099	I don't have Lost Creek yet - hopefully before you leave.	I don't have Lost Creek yet- hopefully before you leave.	233464137	1478227266155	1478227266264	t	84
456632	4918099	I don't have Lost Creek yet - hopefully before you leave.	I don't have Lost Creek yet- hopefully before you leave.	233464139	1478227266271	1478227266358	 	32
456632	4918099	I don't have Lost Creek yet - hopefully before you leave.	I don't have Lost Creek yet- hopefully before you leave.	233464141	1478227266338	1478227266431	h	72
456632	4918099	I don't have Lost Creek yet - hopefully before you leave.	I don't have Lost Creek yet- hopefully before you leave.	233464165	1478227266395	1478227266571	a	65
456632	4918099	I don't have Lost Creek yet - hopefully before you leave.	I don't have Lost Creek yet- hopefully before you leave.	233464167	1478227266483	1478227266622	v	86
456632	4918099	I don't have Lost Creek yet - hopefully before you leave.	I don't have Lost Creek yet- hopefully before you leave.	233464170	1478227266564	1478227266687	e	69
456632	4918099	I don't have Lost Creek yet - hopefully before you leave.	I don't have Lost Creek yet- hopefully before you leave.	233464174	1478227266643	1478227266759	 	32
456632	4918099	I don't have Lost Creek yet - hopefully before you leave.	I don't have Lost Creek yet- hopefully before you leave.	233464184	1478227266821	1478227266990	SHIFT	16
456632	4918099	I don't have Lost Creek yet - hopefully before you leave.	I don't have Lost Creek yet- hopefully before you leave.	233464179	1478227266871	1478227266968	L	76
456632	4918099	I don't have Lost Creek yet - hopefully before you leave.	I don't have Lost Creek yet- hopefully before you leave.	233464189	1478227267047	1478227267124	o	79
456632	4918099	I don't have Lost Creek yet - hopefully before you leave.	I don't have Lost Creek yet- hopefully before you leave.	233464201	1478227267095	1478227267239	s	83
456632	4918099	I don't have Lost Creek yet - hopefully before you leave.	I don't have Lost Creek yet- hopefully before you leave.	233464202	1478227267174	1478227267290	t	84
456632	4918099	I don't have Lost Creek yet - hopefully before you leave.	I don't have Lost Creek yet- hopefully before you leave.	233464203	1478227267232	1478227267349	 	32
456632	4918099	I don't have Lost Creek yet - hopefully before you leave.	I don't have Lost Creek yet- hopefully before you leave.	233464204	1478227267449	1478227267604	C	16
456632	4918099	I don't have Lost Creek yet - hopefully before you leave.	I don't have Lost Creek yet- hopefully before you leave.	233464205	1478227267703	1478227267848	r	82
456632	4918099	I don't have Lost Creek yet - hopefully before you leave.	I don't have Lost Creek yet- hopefully before you leave.	233464243	1478227267782	1478227267898	e	69
456632	4918099	I don't have Lost Creek yet - hopefully before you leave.	I don't have Lost Creek yet- hopefully before you leave.	233464248	1478227267935	1478227268067	e	69
456632	4918099	I don't have Lost Creek yet - hopefully before you leave.	I don't have Lost Creek yet- hopefully before you leave.	233464254	1478227268038	1478227268152	k	75
456632	4918099	I don't have Lost Creek yet - hopefully before you leave.	I don't have Lost Creek yet- hopefully before you leave.	233464257	1478227268173	1478227268296	 	32
456632	4918099	I don't have Lost Creek yet - hopefully before you leave.	I don't have Lost Creek yet- hopefully before you leave.	233464259	1478227268415	1478227268517	y	89
456632	4918099	I don't have Lost Creek yet - hopefully before you leave.	I don't have Lost Creek yet- hopefully before you leave.	233464263	1478227268546	1478227268678	e	69
456632	4918099	I don't have Lost Creek yet - hopefully before you leave.	I don't have Lost Creek yet- hopefully before you leave.	233464347	1478227268619	1478227268736	t	84
456632	4918099	I don't have Lost Creek yet - hopefully before you leave.	I don't have Lost Creek yet- hopefully before you leave.	233464348	1478227268713	1478227268802	[	219
456632	4918099	I don't have Lost Creek yet - hopefully before you leave.	I don't have Lost Creek yet- hopefully before you leave.	233464351	1478227268865	1478227268974	 	32
456632	4918099	I don't have Lost Creek yet - hopefully before you leave.	I don't have Lost Creek yet- hopefully before you leave.	233464353	1478227269483	1478227269572	BKSP	8
456632	4918099	I don't have Lost Creek yet - hopefully before you leave.	I don't have Lost Creek yet- hopefully before you leave.	233464354	1478227269630	1478227269753	BKSP	8
456632	4918099	I don't have Lost Creek yet - hopefully before you leave.	I don't have Lost Creek yet- hopefully before you leave.	233464355	1478227270406	1478227270562	-	189
456632	4918099	I don't have Lost Creek yet - hopefully before you leave.	I don't have Lost Creek yet- hopefully before you leave.	233464357	1478227270478	1478227270579	 	32
456632	4918099	I don't have Lost Creek yet - hopefully before you leave.	I don't have Lost Creek yet- hopefully before you leave.	233464359	1478227270930	1478227271055	h	72
456632	4918099	I don't have Lost Creek yet - hopefully before you leave.	I don't have Lost Creek yet- hopefully before you leave.	233464368	1478227271019	1478227271144	o	79
456632	4918099	I don't have Lost Creek yet - hopefully before you leave.	I don't have Lost Creek yet- hopefully before you leave.	233464369	1478227271047	1478227271217	p	80
456632	4918099	I don't have Lost Creek yet - hopefully before you leave.	I don't have Lost Creek yet- hopefully before you leave.	233464370	1478227271180	1478227271297	e	69
456632	4918099	I don't have Lost Creek yet - hopefully before you leave.	I don't have Lost Creek yet- hopefully before you leave.	233464371	1478227271369	1478227271523	f	70
456632	4918099	I don't have Lost Creek yet - hopefully before you leave.	I don't have Lost Creek yet- hopefully before you leave.	233464372	1478227271441	1478227271552	u	85
456632	4918099	I don't have Lost Creek yet - hopefully before you leave.	I don't have Lost Creek yet- hopefully before you leave.	233464373	1478227271464	1478227271573	l	76
456632	4918099	I don't have Lost Creek yet - hopefully before you leave.	I don't have Lost Creek yet- hopefully before you leave.	233464374	1478227271631	1478227271783	l	76
456632	4918099	I don't have Lost Creek yet - hopefully before you leave.	I don't have Lost Creek yet- hopefully before you leave.	233464398	1478227271711	1478227271857	y	89
456632	4918099	I don't have Lost Creek yet - hopefully before you leave.	I don't have Lost Creek yet- hopefully before you leave.	233464401	1478227271798	1478227271911	 	32
456632	4918099	I don't have Lost Creek yet - hopefully before you leave.	I don't have Lost Creek yet- hopefully before you leave.	233464405	1478227272010	1478227272118	b	66
456632	4918099	I don't have Lost Creek yet - hopefully before you leave.	I don't have Lost Creek yet- hopefully before you leave.	233464409	1478227272177	1478227272285	e	69
456632	4918099	I don't have Lost Creek yet - hopefully before you leave.	I don't have Lost Creek yet- hopefully before you leave.	233464414	1478227272364	1478227272466	f	70
456632	4918099	I don't have Lost Creek yet - hopefully before you leave.	I don't have Lost Creek yet- hopefully before you leave.	233464428	1478227272452	1478227272562	o	79
456632	4918099	I don't have Lost Creek yet - hopefully before you leave.	I don't have Lost Creek yet- hopefully before you leave.	233464432	1478227272554	1478227272687	r	82
456632	4918099	I don't have Lost Creek yet - hopefully before you leave.	I don't have Lost Creek yet- hopefully before you leave.	233464437	1478227272607	1478227272730	e	69
456632	4918099	I don't have Lost Creek yet - hopefully before you leave.	I don't have Lost Creek yet- hopefully before you leave.	233464443	1478227272664	1478227272773	 	32
456632	4918099	I don't have Lost Creek yet - hopefully before you leave.	I don't have Lost Creek yet- hopefully before you leave.	233464448	1478227272744	1478227272841	y	89
456632	4918099	I don't have Lost Creek yet - hopefully before you leave.	I don't have Lost Creek yet- hopefully before you leave.	233464471	1478227272825	1478227272965	o	79
456632	4918099	I don't have Lost Creek yet - hopefully before you leave.	I don't have Lost Creek yet- hopefully before you leave.	233464474	1478227272899	1478227273045	u	85
456632	4918099	I don't have Lost Creek yet - hopefully before you leave.	I don't have Lost Creek yet- hopefully before you leave.	233464480	1478227272986	1478227273111	 	32
456632	4918099	I don't have Lost Creek yet - hopefully before you leave.	I don't have Lost Creek yet- hopefully before you leave.	233464482	1478227273081	1478227273196	l	76
456632	4918099	I don't have Lost Creek yet - hopefully before you leave.	I don't have Lost Creek yet- hopefully before you leave.	233464483	1478227273294	1478227273461	e	69
456632	4918099	I don't have Lost Creek yet - hopefully before you leave.	I don't have Lost Creek yet- hopefully before you leave.	233464492	1478227273425	1478227273593	a	65
456632	4918099	I don't have Lost Creek yet - hopefully before you leave.	I don't have Lost Creek yet- hopefully before you leave.	233464498	1478227273506	1478227273666	v	86
456632	4918099	I don't have Lost Creek yet - hopefully before you leave.	I don't have Lost Creek yet- hopefully before you leave.	233464503	1478227273607	1478227273732	e	69
456632	4918099	I don't have Lost Creek yet - hopefully before you leave.	I don't have Lost Creek yet- hopefully before you leave.	233464507	1478227273680	1478227273790	.	190
456632	4918109	The children will entertain you while you wait.	The children will entertain you while you wait.	233464706	1478227276285	1478227276499	SHIFT	16
456632	4918109	The children will entertain you while you wait.	The children will entertain you while you wait.	233464696	1478227276340	1478227276446	T	84
456632	4918109	The children will entertain you while you wait.	The children will entertain you while you wait.	233464712	1478227276511	1478227276626	e	69
456632	4918109	The children will entertain you while you wait.	The children will entertain you while you wait.	233464719	1478227277011	1478227277083	BKSP	8
456632	4918109	The children will entertain you while you wait.	The children will entertain you while you wait.	233464726	1478227277186	1478227277264	h	72
456632	4918109	The children will entertain you while you wait.	The children will entertain you while you wait.	233464731	1478227277228	1478227277334	e	69
456632	4918109	The children will entertain you while you wait.	The children will entertain you while you wait.	233464734	1478227277376	1478227277485	 	32
456632	4918109	The children will entertain you while you wait.	The children will entertain you while you wait.	233464733	1478227277463	1478227277592	c	67
456632	4918109	The children will entertain you while you wait.	The children will entertain you while you wait.	233464736	1478227277548	1478227277666	h	72
456632	4918109	The children will entertain you while you wait.	The children will entertain you while you wait.	233464739	1478227277606	1478227277724	i	73
456632	4918109	The children will entertain you while you wait.	The children will entertain you while you wait.	233464742	1478227277651	1478227277782	l	76
456632	4918109	The children will entertain you while you wait.	The children will entertain you while you wait.	233464745	1478227277731	1478227277863	d	68
456632	4918109	The children will entertain you while you wait.	The children will entertain you while you wait.	233464769	1478227277840	1478227278001	r	82
456632	4918109	The children will entertain you while you wait.	The children will entertain you while you wait.	233464774	1478227277950	1478227278096	e	69
456632	4918109	The children will entertain you while you wait.	The children will entertain you while you wait.	233464779	1478227278053	1478227278191	n	78
456632	4918109	The children will entertain you while you wait.	The children will entertain you while you wait.	233464783	1478227278155	1478227278263	 	32
456632	4918109	The children will entertain you while you wait.	The children will entertain you while you wait.	233464786	1478227278300	1478227278446	w	87
456632	4918109	The children will entertain you while you wait.	The children will entertain you while you wait.	233464804	1478227278400	1478227278505	i	73
456632	4918109	The children will entertain you while you wait.	The children will entertain you while you wait.	233464809	1478227278440	1478227278526	l	76
456632	4918109	The children will entertain you while you wait.	The children will entertain you while you wait.	233464812	1478227278585	1478227278708	l	76
456632	4918109	The children will entertain you while you wait.	The children will entertain you while you wait.	233464818	1478227278650	1478227278737	 	32
456632	4918109	The children will entertain you while you wait.	The children will entertain you while you wait.	233464822	1478227278794	1478227278921	e	69
456632	4918109	The children will entertain you while you wait.	The children will entertain you while you wait.	233464828	1478227278915	1478227279017	n	78
456632	4918109	The children will entertain you while you wait.	The children will entertain you while you wait.	233464835	1478227279068	1478227279125	e	69
456632	4918109	The children will entertain you while you wait.	The children will entertain you while you wait.	233464855	1478227279645	1478227279736	BKSP	8
456632	4918109	The children will entertain you while you wait.	The children will entertain you while you wait.	233464859	1478227279724	1478227279819	t	84
456632	4918109	The children will entertain you while you wait.	The children will entertain you while you wait.	233464862	1478227279894	1478227280015	e	69
456632	4918109	The children will entertain you while you wait.	The children will entertain you while you wait.	233464864	1478227279950	1478227280060	r	82
456632	4918109	The children will entertain you while you wait.	The children will entertain you while you wait.	233464868	1478227280212	1478227280357	t	84
456632	4918109	The children will entertain you while you wait.	The children will entertain you while you wait.	233464878	1478227280320	1478227280472	a	65
456632	4918109	The children will entertain you while you wait.	The children will entertain you while you wait.	233464880	1478227280429	1478227280556	i	73
456632	4918109	The children will entertain you while you wait.	The children will entertain you while you wait.	233464881	1478227280484	1478227280646	n	78
456632	4918109	The children will entertain you while you wait.	The children will entertain you while you wait.	233464882	1478227280581	1478227280704	 	32
456632	4918109	The children will entertain you while you wait.	The children will entertain you while you wait.	233464883	1478227280754	1478227280863	y	89
456632	4918109	The children will entertain you while you wait.	The children will entertain you while you wait.	233464888	1478227280857	1478227280989	o	79
456632	4918109	The children will entertain you while you wait.	The children will entertain you while you wait.	233464892	1478227280915	1478227281047	u	85
456632	4918109	The children will entertain you while you wait.	The children will entertain you while you wait.	233464895	1478227280966	1478227281091	 	32
456632	4918109	The children will entertain you while you wait.	The children will entertain you while you wait.	233464899	1478227281041	1478227281194	w	87
456632	4918109	The children will entertain you while you wait.	The children will entertain you while you wait.	233464903	1478227281136	1478227281265	h	72
456632	4918109	The children will entertain you while you wait.	The children will entertain you while you wait.	233464916	1478227281201	1478227281310	i	73
456632	4918109	The children will entertain you while you wait.	The children will entertain you while you wait.	233464918	1478227281232	1478227281376	l	76
456632	4918109	The children will entertain you while you wait.	The children will entertain you while you wait.	233464921	1478227281295	1478227281412	e	69
456632	4918109	The children will entertain you while you wait.	The children will entertain you while you wait.	233464924	1478227281397	1478227281520	 	32
456632	4918109	The children will entertain you while you wait.	The children will entertain you while you wait.	233464927	1478227281498	1478227281608	y	89
456632	4918109	The children will entertain you while you wait.	The children will entertain you while you wait.	233464930	1478227281557	1478227281732	o	79
456632	4918109	The children will entertain you while you wait.	The children will entertain you while you wait.	233464978	1478227281645	1478227281800	u	85
456632	4918109	The children will entertain you while you wait.	The children will entertain you while you wait.	233464982	1478227281726	1478227281843	 	32
456632	4918109	The children will entertain you while you wait.	The children will entertain you while you wait.	233464985	1478227281814	1478227281960	w	87
456632	4918109	The children will entertain you while you wait.	The children will entertain you while you wait.	233464988	1478227282010	1478227282155	a	65
456632	4918109	The children will entertain you while you wait.	The children will entertain you while you wait.	233464991	1478227282148	1478227282243	i	73
456632	4918109	The children will entertain you while you wait.	The children will entertain you while you wait.	233464994	1478227282608	1478227282692	t	84
456632	4918109	The children will entertain you while you wait.	The children will entertain you while you wait.	233464997	1478227282698	1478227282793	.	190
456632	4918121	That ranks fifth for the week.	That ranks fifth for the week.	233465161	1478227284862	1478227284983	SHIFT	16
456632	4918121	That ranks fifth for the week.	That ranks fifth for the week.	233465164	1478227284911	1478227285021	T	84
456632	4918121	That ranks fifth for the week.	That ranks fifth for the week.	233465170	1478227285292	1478227285381	h	72
456632	4918121	That ranks fifth for the week.	That ranks fifth for the week.	233465174	1478227285479	1478227285623	a	65
456632	4918121	That ranks fifth for the week.	That ranks fifth for the week.	233465176	1478227285558	1478227285680	t	84
456632	4918121	That ranks fifth for the week.	That ranks fifth for the week.	233465196	1478227285673	1478227285775	 	32
456632	4918121	That ranks fifth for the week.	That ranks fifth for the week.	233465199	1478227285838	1478227285992	r	82
456632	4918121	That ranks fifth for the week.	That ranks fifth for the week.	233465201	1478227285942	1478227286109	a	65
456632	4918121	That ranks fifth for the week.	That ranks fifth for the week.	233465205	1478227286028	1478227286153	n	78
456632	4918121	That ranks fifth for the week.	That ranks fifth for the week.	233465210	1478227286087	1478227286196	k	75
456632	4918121	That ranks fifth for the week.	That ranks fifth for the week.	233465224	1478227286190	1478227286292	s	83
456632	4918121	That ranks fifth for the week.	That ranks fifth for the week.	233465227	1478227286275	1478227286379	 	32
456632	4918121	That ranks fifth for the week.	That ranks fifth for the week.	233465230	1478227286350	1478227286461	f	70
456632	4918121	That ranks fifth for the week.	That ranks fifth for the week.	233465235	1478227286439	1478227286526	i	73
456632	4918121	That ranks fifth for the week.	That ranks fifth for the week.	233465240	1478227286504	1478227286620	f	70
456632	4918121	That ranks fifth for the week.	That ranks fifth for the week.	233465246	1478227286726	1478227286857	t	84
456632	4918121	That ranks fifth for the week.	That ranks fifth for the week.	233465258	1478227286835	1478227286922	h	72
456632	4918121	That ranks fifth for the week.	That ranks fifth for the week.	233465259	1478227287149	1478227287236	 	32
456632	4918121	That ranks fifth for the week.	That ranks fifth for the week.	233465261	1478227287287	1478227287374	f	70
456632	4918121	That ranks fifth for the week.	That ranks fifth for the week.	233465263	1478227287367	1478227287470	o	79
456632	4918121	That ranks fifth for the week.	That ranks fifth for the week.	233465265	1478227287447	1478227287563	r	82
456632	4918121	That ranks fifth for the week.	That ranks fifth for the week.	233465283	1478227287549	1478227287636	 	32
456632	4918121	That ranks fifth for the week.	That ranks fifth for the week.	233465285	1478227287622	1478227287741	t	84
456632	4918121	That ranks fifth for the week.	That ranks fifth for the week.	233465287	1478227287696	1478227287800	h	72
456632	4918121	That ranks fifth for the week.	That ranks fifth for the week.	233465289	1478227287770	1478227287895	e	69
456632	4918121	That ranks fifth for the week.	That ranks fifth for the week.	233465291	1478227287858	1478227287952	 	32
456632	4918121	That ranks fifth for the week.	That ranks fifth for the week.	233465293	1478227287960	1478227288142	w	87
456632	4918121	That ranks fifth for the week.	That ranks fifth for the week.	233465302	1478227288041	1478227288176	e	69
456632	4918121	That ranks fifth for the week.	That ranks fifth for the week.	233465305	1478227288200	1478227288327	e	69
456632	4918121	That ranks fifth for the week.	That ranks fifth for the week.	233465308	1478227288363	1478227288466	k	75
456632	4918121	That ranks fifth for the week.	That ranks fifth for the week.	233465311	1478227288544	1478227288645	.	190
456632	4918130	I spoke with Greg.	I spoke with Greg.	233465458	1478227291159	1478227291299	SHIFT	16
456632	4918130	I spoke with Greg.	I spoke with Greg.	233465461	1478227291208	1478227291312	I	73
456632	4918130	I spoke with Greg.	I spoke with Greg.	233465462	1478227291335	1478227291418	 	32
456632	4918130	I spoke with Greg.	I spoke with Greg.	233465463	1478227291425	1478227291585	s	83
456632	4918130	I spoke with Greg.	I spoke with Greg.	233465464	1478227291556	1478227291694	p	80
456632	4918130	I spoke with Greg.	I spoke with Greg.	233465501	1478227291628	1478227291758	o	79
456632	4918130	I spoke with Greg.	I spoke with Greg.	233465505	1478227291904	1478227291999	k	75
456632	4918130	I spoke with Greg.	I spoke with Greg.	233465508	1478227291977	1478227292107	e	69
456632	4918130	I spoke with Greg.	I spoke with Greg.	233465512	1478227292101	1478227292202	 	32
456632	4918130	I spoke with Greg.	I spoke with Greg.	233465547	1478227292195	1478227292356	w	87
456632	4918130	I spoke with Greg.	I spoke with Greg.	233465520	1478227292247	1478227292342	i	73
456632	4918130	I spoke with Greg.	I spoke with Greg.	233465550	1478227292370	1478227292473	t	84
456632	4918130	I spoke with Greg.	I spoke with Greg.	233465553	1478227292429	1478227292537	h	72
456632	4918130	I spoke with Greg.	I spoke with Greg.	233465556	1478227292495	1478227292606	 	32
456632	4918130	I spoke with Greg.	I spoke with Greg.	233465559	1478227292590	1478227292709	G	16
456632	4918130	I spoke with Greg.	I spoke with Greg.	233465563	1478227292766	1478227292885	r	82
456632	4918130	I spoke with Greg.	I spoke with Greg.	233465588	1478227292835	1478227292994	e	69
456632	4918130	I spoke with Greg.	I spoke with Greg.	233465592	1478227293086	1478227293196	g	71
456632	4918130	I spoke with Greg.	I spoke with Greg.	233465597	1478227293188	1478227293300	.	190
456632	4918133	He was replaced by Kent Graham.	He was replaced by Kent Graham.	233465742	1478227295502	1478227295845	SHIFT	16
456632	4918133	He was replaced by Kent Graham.	He was replaced by Kent Graham.	233465739	1478227295724	1478227295816	H	72
456632	4918133	He was replaced by Kent Graham.	He was replaced by Kent Graham.	233465745	1478227295910	1478227296041	e	69
456632	4918133	He was replaced by Kent Graham.	He was replaced by Kent Graham.	233465747	1478227296083	1478227296178	 	32
456632	4918133	He was replaced by Kent Graham.	He was replaced by Kent Graham.	233465749	1478227296193	1478227296365	w	87
456632	4918133	He was replaced by Kent Graham.	He was replaced by Kent Graham.	233465775	1478227296325	1478227296511	a	65
456632	4918133	He was replaced by Kent Graham.	He was replaced by Kent Graham.	233465782	1478227296410	1478227296561	s	83
456632	4918133	He was replaced by Kent Graham.	He was replaced by Kent Graham.	233465787	1478227296481	1478227296591	 	32
456632	4918133	He was replaced by Kent Graham.	He was replaced by Kent Graham.	233465792	1478227296628	1478227296767	r	82
456632	4918133	He was replaced by Kent Graham.	He was replaced by Kent Graham.	233465799	1478227296708	1478227296868	e	69
456632	4918133	He was replaced by Kent Graham.	He was replaced by Kent Graham.	233465826	1478227296775	1478227296899	p	80
456632	4918133	He was replaced by Kent Graham.	He was replaced by Kent Graham.	233465830	1478227296963	1478227297059	l	76
456632	4918133	He was replaced by Kent Graham.	He was replaced by Kent Graham.	233465834	1478227296999	1478227297131	a	65
456632	4918133	He was replaced by Kent Graham.	He was replaced by Kent Graham.	233465838	1478227297170	1478227297270	c	67
456632	4918133	He was replaced by Kent Graham.	He was replaced by Kent Graham.	233465843	1478227297328	1478227297416	e	69
456632	4918133	He was replaced by Kent Graham.	He was replaced by Kent Graham.	233465845	1478227297480	1478227297594	d	68
456632	4918133	He was replaced by Kent Graham.	He was replaced by Kent Graham.	233465895	1478227298014	1478227298094	b	66
456632	4918133	He was replaced by Kent Graham.	He was replaced by Kent Graham.	233465897	1478227298339	1478227298477	BKSP	8
456632	4918133	He was replaced by Kent Graham.	He was replaced by Kent Graham.	233465899	1478227298448	1478227298546	 	32
456632	4918133	He was replaced by Kent Graham.	He was replaced by Kent Graham.	233465902	1478227298553	1478227298637	b	66
456632	4918133	He was replaced by Kent Graham.	He was replaced by Kent Graham.	233465904	1478227298661	1478227298778	y	89
456632	4918133	He was replaced by Kent Graham.	He was replaced by Kent Graham.	233465959	1478227298741	1478227298851	 	32
456632	4918133	He was replaced by Kent Graham.	He was replaced by Kent Graham.	233465970	1478227299015	1478227299147	SHIFT	16
456632	4918133	He was replaced by Kent Graham.	He was replaced by Kent Graham.	233465964	1478227299053	1478227299140	K	75
456632	4918133	He was replaced by Kent Graham.	He was replaced by Kent Graham.	233465974	1478227299161	1478227299302	e	69
456632	4918133	He was replaced by Kent Graham.	He was replaced by Kent Graham.	233465981	1478227299259	1478227299360	n	78
456632	4918133	He was replaced by Kent Graham.	He was replaced by Kent Graham.	233465989	1478227299817	1478227299920	t	84
456632	4918133	He was replaced by Kent Graham.	He was replaced by Kent Graham.	233465995	1478227299941	1478227300051	 	32
456632	4918133	He was replaced by Kent Graham.	He was replaced by Kent Graham.	233466014	1478227300095	1478227300230	SHIFT	16
456632	4918133	He was replaced by Kent Graham.	He was replaced by Kent Graham.	233466013	1478227300124	1478227300216	G	71
456632	4918133	He was replaced by Kent Graham.	He was replaced by Kent Graham.	233466016	1478227300300	1478227300420	r	82
456632	4918133	He was replaced by Kent Graham.	He was replaced by Kent Graham.	233466018	1478227300376	1478227300536	a	65
456632	4918133	He was replaced by Kent Graham.	He was replaced by Kent Graham.	233466019	1478227300521	1478227300616	h	72
456632	4918133	He was replaced by Kent Graham.	He was replaced by Kent Graham.	233466022	1478227300673	1478227300825	a	65
456632	4918133	He was replaced by Kent Graham.	He was replaced by Kent Graham.	233466024	1478227300795	1478227300899	m	77
456632	4918133	He was replaced by Kent Graham.	He was replaced by Kent Graham.	233466027	1478227300913	1478227301014	.	190
456632	4918139	Ty needs to work on our model before we could start anything anyway.	Ty needs to work on our model before we could start antying anyway.	233466169	1478227303148	1478227303259	SHIFT	16
456632	4918139	Ty needs to work on our model before we could start anything anyway.	Ty needs to work on our model before we could start antying anyway.	233466174	1478227303194	1478227303304	T	84
456632	4918139	Ty needs to work on our model before we could start anything anyway.	Ty needs to work on our model before we could start antying anyway.	233466176	1478227303618	1478227303731	y	89
456632	4918139	Ty needs to work on our model before we could start anything anyway.	Ty needs to work on our model before we could start antying anyway.	233466180	1478227303816	1478227303929	 	32
456632	4918139	Ty needs to work on our model before we could start anything anyway.	Ty needs to work on our model before we could start antying anyway.	233466183	1478227303935	1478227304039	n	78
456632	4918139	Ty needs to work on our model before we could start anything anyway.	Ty needs to work on our model before we could start antying anyway.	233466214	1478227304023	1478227304139	e	69
456632	4918139	Ty needs to work on our model before we could start anything anyway.	Ty needs to work on our model before we could start antying anyway.	233466217	1478227304183	1478227304277	e	69
456632	4918139	Ty needs to work on our model before we could start anything anyway.	Ty needs to work on our model before we could start antying anyway.	233466223	1478227304347	1478227304500	d	68
456632	4918139	Ty needs to work on our model before we could start anything anyway.	Ty needs to work on our model before we could start antying anyway.	233466227	1478227304413	1478227304575	s	83
456632	4918139	Ty needs to work on our model before we could start anything anyway.	Ty needs to work on our model before we could start antying anyway.	233466232	1478227304492	1478227304583	 	32
456632	4918139	Ty needs to work on our model before we could start anything anyway.	Ty needs to work on our model before we could start antying anyway.	233466238	1478227304611	1478227304729	t	84
456632	4918139	Ty needs to work on our model before we could start anything anyway.	Ty needs to work on our model before we could start antying anyway.	233466291	1478227304664	1478227304780	o	79
456632	4918139	Ty needs to work on our model before we could start anything anyway.	Ty needs to work on our model before we could start antying anyway.	233466293	1478227304723	1478227304817	 	32
456632	4918139	Ty needs to work on our model before we could start anything anyway.	Ty needs to work on our model before we could start antying anyway.	233466296	1478227305053	1478227305240	w	87
456632	4918139	Ty needs to work on our model before we could start anything anyway.	Ty needs to work on our model before we could start antying anyway.	233466298	1478227305170	1478227305262	o	79
456632	4918139	Ty needs to work on our model before we could start anything anyway.	Ty needs to work on our model before we could start antying anyway.	233466300	1478227305269	1478227305408	r	82
456632	4918139	Ty needs to work on our model before we could start anything anyway.	Ty needs to work on our model before we could start antying anyway.	233466303	1478227305380	1478227305488	k	75
456632	4918139	Ty needs to work on our model before we could start anything anyway.	Ty needs to work on our model before we could start antying anyway.	233466307	1478227305745	1478227305840	 	32
456632	4918139	Ty needs to work on our model before we could start anything anyway.	Ty needs to work on our model before we could start antying anyway.	233466316	1478227305862	1478227306015	o	79
456632	4918139	Ty needs to work on our model before we could start anything anyway.	Ty needs to work on our model before we could start antying anyway.	233466322	1478227305956	1478227306074	n	78
456632	4918139	Ty needs to work on our model before we could start anything anyway.	Ty needs to work on our model before we could start antying anyway.	233466328	1478227306009	1478227306154	 	32
456632	4918139	Ty needs to work on our model before we could start anything anyway.	Ty needs to work on our model before we could start antying anyway.	233466333	1478227306148	1478227306287	o	79
456632	4918139	Ty needs to work on our model before we could start anything anyway.	Ty needs to work on our model before we could start antying anyway.	233466348	1478227306199	1478227306330	u	85
456632	4918139	Ty needs to work on our model before we could start anything anyway.	Ty needs to work on our model before we could start antying anyway.	233466349	1478227306302	1478227306419	r	82
456632	4918139	Ty needs to work on our model before we could start anything anyway.	Ty needs to work on our model before we could start antying anyway.	233466351	1478227306374	1478227306510	 	32
456632	4918139	Ty needs to work on our model before we could start anything anyway.	Ty needs to work on our model before we could start antying anyway.	233466354	1478227306517	1478227306664	m	77
456632	4918139	Ty needs to work on our model before we could start anything anyway.	Ty needs to work on our model before we could start antying anyway.	233466356	1478227306627	1478227306758	o	79
456632	4918139	Ty needs to work on our model before we could start anything anyway.	Ty needs to work on our model before we could start antying anyway.	233466396	1478227306713	1478227306809	e	69
456632	4918139	Ty needs to work on our model before we could start anything anyway.	Ty needs to work on our model before we could start antying anyway.	233466397	1478227307150	1478227307244	BKSP	8
456632	4918139	Ty needs to work on our model before we could start anything anyway.	Ty needs to work on our model before we could start antying anyway.	233466399	1478227307266	1478227307376	d	68
456632	4918139	Ty needs to work on our model before we could start anything anyway.	Ty needs to work on our model before we could start antying anyway.	233466401	1478227307447	1478227307560	e	69
456632	4918139	Ty needs to work on our model before we could start anything anyway.	Ty needs to work on our model before we could start antying anyway.	233466403	1478227307544	1478227307663	l	76
456632	4918139	Ty needs to work on our model before we could start anything anyway.	Ty needs to work on our model before we could start antying anyway.	233466405	1478227307625	1478227307735	 	32
456632	4918139	Ty needs to work on our model before we could start anything anyway.	Ty needs to work on our model before we could start antying anyway.	233466407	1478227307750	1478227307863	b	66
456632	4918139	Ty needs to work on our model before we could start anything anyway.	Ty needs to work on our model before we could start antying anyway.	233466409	1478227307899	1478227308022	e	69
456632	4918139	Ty needs to work on our model before we could start anything anyway.	Ty needs to work on our model before we could start antying anyway.	233466410	1478227308036	1478227308139	f	70
456632	4918139	Ty needs to work on our model before we could start anything anyway.	Ty needs to work on our model before we could start antying anyway.	233466411	1478227308132	1478227308227	o	79
456632	4918139	Ty needs to work on our model before we could start anything anyway.	Ty needs to work on our model before we could start antying anyway.	233466412	1478227308241	1478227308358	r	82
456632	4918139	Ty needs to work on our model before we could start anything anyway.	Ty needs to work on our model before we could start antying anyway.	233466419	1478227308285	1478227308415	e	69
456632	4918139	Ty needs to work on our model before we could start anything anyway.	Ty needs to work on our model before we could start antying anyway.	233466420	1478227308343	1478227308437	 	32
456632	4918139	Ty needs to work on our model before we could start anything anyway.	Ty needs to work on our model before we could start antying anyway.	233466422	1478227308489	1478227308666	w	87
456632	4918139	Ty needs to work on our model before we could start anything anyway.	Ty needs to work on our model before we could start antying anyway.	233466424	1478227308587	1478227308710	e	69
456632	4918139	Ty needs to work on our model before we could start anything anyway.	Ty needs to work on our model before we could start antying anyway.	233466426	1478227308673	1478227308761	 	32
456632	4918139	Ty needs to work on our model before we could start anything anyway.	Ty needs to work on our model before we could start antying anyway.	233466428	1478227308838	1478227308978	c	67
456632	4918139	Ty needs to work on our model before we could start anything anyway.	Ty needs to work on our model before we could start antying anyway.	233466455	1478227308896	1478227309022	o	79
456632	4918139	Ty needs to work on our model before we could start anything anyway.	Ty needs to work on our model before we could start antying anyway.	233466463	1478227308963	1478227309058	u	85
456632	4918139	Ty needs to work on our model before we could start anything anyway.	Ty needs to work on our model before we could start antying anyway.	233466469	1478227309119	1478227309242	l	76
456632	4918139	Ty needs to work on our model before we could start anything anyway.	Ty needs to work on our model before we could start antying anyway.	233466472	1478227309527	1478227309644	d	68
456632	4918139	Ty needs to work on our model before we could start anything anyway.	Ty needs to work on our model before we could start antying anyway.	233466477	1478227309658	1478227309730	 	32
456632	4918139	Ty needs to work on our model before we could start anything anyway.	Ty needs to work on our model before we could start antying anyway.	233466481	1478227309762	1478227309893	s	83
456632	4918139	Ty needs to work on our model before we could start anything anyway.	Ty needs to work on our model before we could start antying anyway.	233466538	1478227309849	1478227309937	t	84
456632	4918139	Ty needs to work on our model before we could start anything anyway.	Ty needs to work on our model before we could start antying anyway.	233466544	1478227309959	1478227310105	a	65
456632	4918139	Ty needs to work on our model before we could start anything anyway.	Ty needs to work on our model before we could start antying anyway.	233466549	1478227310040	1478227310149	r	82
456632	4918139	Ty needs to work on our model before we could start anything anyway.	Ty needs to work on our model before we could start antying anyway.	233466555	1478227310233	1478227310312	t	84
456632	4918139	Ty needs to work on our model before we could start anything anyway.	Ty needs to work on our model before we could start antying anyway.	233466561	1478227310825	1478227310926	 	32
456632	4918139	Ty needs to work on our model before we could start anything anyway.	Ty needs to work on our model before we could start antying anyway.	233466563	1478227310948	1478227311102	a	65
456632	4918139	Ty needs to work on our model before we could start anything anyway.	Ty needs to work on our model before we could start antying anyway.	233466572	1478227311059	1478227311152	n	78
456632	4918139	Ty needs to work on our model before we could start anything anyway.	Ty needs to work on our model before we could start antying anyway.	233466576	1478227311224	1478227311326	t	84
456632	4918139	Ty needs to work on our model before we could start anything anyway.	Ty needs to work on our model before we could start antying anyway.	233466580	1478227311296	1478227311390	y	89
456632	4918139	Ty needs to work on our model before we could start anything anyway.	Ty needs to work on our model before we could start antying anyway.	233466585	1478227311478	1478227311603	i	73
456632	4918139	Ty needs to work on our model before we could start anything anyway.	Ty needs to work on our model before we could start antying anyway.	233466654	1478227311529	1478227311676	n	78
456632	4918139	Ty needs to work on our model before we could start anything anyway.	Ty needs to work on our model before we could start antying anyway.	233466658	1478227311589	1478227311723	g	71
456632	4918139	Ty needs to work on our model before we could start anything anyway.	Ty needs to work on our model before we could start antying anyway.	233466662	1478227311716	1478227311817	 	32
456632	4918139	Ty needs to work on our model before we could start anything anyway.	Ty needs to work on our model before we could start antying anyway.	233466668	1478227311782	1478227311955	a	65
456632	4918139	Ty needs to work on our model before we could start anything anyway.	Ty needs to work on our model before we could start antying anyway.	233466674	1478227311977	1478227312093	n	78
456632	4918139	Ty needs to work on our model before we could start anything anyway.	Ty needs to work on our model before we could start antying anyway.	233466681	1478227312241	1478227312334	y	89
456632	4918139	Ty needs to work on our model before we could start anything anyway.	Ty needs to work on our model before we could start antying anyway.	233466687	1478227312386	1478227312540	w	87
456632	4918139	Ty needs to work on our model before we could start anything anyway.	Ty needs to work on our model before we could start antying anyway.	233466682	1478227312496	1478227312663	a	65
456632	4918139	Ty needs to work on our model before we could start anything anyway.	Ty needs to work on our model before we could start antying anyway.	233466688	1478227312613	1478227312706	y	89
456632	4918154	She would hate to see us not get our expense reports paid.	She would hate to see us not get our expense reports paid.	233467490	1478227312764	1478227325667	.	190
456632	4918154	She would hate to see us not get our expense reports paid.	She would hate to see us not get our expense reports paid.	233466861	1478227314576	1478227314705	SHIFT	16
456632	4918154	She would hate to see us not get our expense reports paid.	She would hate to see us not get our expense reports paid.	233466866	1478227314635	1478227314740	S	83
456632	4918154	She would hate to see us not get our expense reports paid.	She would hate to see us not get our expense reports paid.	233466869	1478227314760	1478227314855	h	72
456632	4918154	She would hate to see us not get our expense reports paid.	She would hate to see us not get our expense reports paid.	233466872	1478227314861	1478227314989	w	87
456632	4918154	She would hate to see us not get our expense reports paid.	She would hate to see us not get our expense reports paid.	233466875	1478227314956	1478227315062	 	32
456632	4918154	She would hate to see us not get our expense reports paid.	She would hate to see us not get our expense reports paid.	233466881	1478227315069	1478227315209	o	79
456632	4918154	She would hate to see us not get our expense reports paid.	She would hate to see us not get our expense reports paid.	233466993	1478227315136	1478227315249	u	85
456632	4918154	She would hate to see us not get our expense reports paid.	She would hate to see us not get our expense reports paid.	233466997	1478227315285	1478227315395	d	76
456632	4918154	She would hate to see us not get our expense reports paid.	She would hate to see us not get our expense reports paid.	233467001	1478227315826	1478227315908	BKSP	8
456632	4918154	She would hate to see us not get our expense reports paid.	She would hate to see us not get our expense reports paid.	233467009	1478227315965	1478227316074	BKSP	8
456632	4918154	She would hate to see us not get our expense reports paid.	She would hate to see us not get our expense reports paid.	233467018	1478227316127	1478227316252	BKSP	8
456632	4918154	She would hate to see us not get our expense reports paid.	She would hate to see us not get our expense reports paid.	233467022	1478227316310	1478227316406	BKSP	8
456632	4918154	She would hate to see us not get our expense reports paid.	She would hate to see us not get our expense reports paid.	233467027	1478227316468	1478227316575	BKSP	8
456632	4918154	She would hate to see us not get our expense reports paid.	She would hate to see us not get our expense reports paid.	233467030	1478227316649	1478227316751	BKSP	8
456632	4918154	She would hate to see us not get our expense reports paid.	She would hate to see us not get our expense reports paid.	233467032	1478227316745	1478227316860	e	69
456632	4918154	She would hate to see us not get our expense reports paid.	She would hate to see us not get our expense reports paid.	233467036	1478227316872	1478227316986	 	32
456632	4918154	She would hate to see us not get our expense reports paid.	She would hate to see us not get our expense reports paid.	233467041	1478227317016	1478227317148	w	87
456632	4918154	She would hate to see us not get our expense reports paid.	She would hate to see us not get our expense reports paid.	233467035	1478227317089	1478227317220	o	79
456632	4918154	She would hate to see us not get our expense reports paid.	She would hate to see us not get our expense reports paid.	233467038	1478227317154	1478227317264	u	85
456632	4918154	She would hate to see us not get our expense reports paid.	She would hate to see us not get our expense reports paid.	233467045	1478227317280	1478227317396	l	76
456632	4918154	She would hate to see us not get our expense reports paid.	She would hate to see us not get our expense reports paid.	233467050	1478227317330	1478227317469	d	68
456632	4918154	She would hate to see us not get our expense reports paid.	She would hate to see us not get our expense reports paid.	233467052	1478227317433	1478227317537	 	32
456632	4918154	She would hate to see us not get our expense reports paid.	She would hate to see us not get our expense reports paid.	233467055	1478227317543	1478227317638	h	72
456632	4918154	She would hate to see us not get our expense reports paid.	She would hate to see us not get our expense reports paid.	233467091	1478227317622	1478227317773	a	65
456632	4918154	She would hate to see us not get our expense reports paid.	She would hate to see us not get our expense reports paid.	233467092	1478227317730	1478227317910	t	84
456632	4918154	She would hate to see us not get our expense reports paid.	She would hate to see us not get our expense reports paid.	233467093	1478227317904	1478227318046	e	69
456632	4918154	She would hate to see us not get our expense reports paid.	She would hate to see us not get our expense reports paid.	233467094	1478227318167	1478227318291	 	32
456632	4918154	She would hate to see us not get our expense reports paid.	She would hate to see us not get our expense reports paid.	233467095	1478227318404	1478227318522	t	84
456632	4918154	She would hate to see us not get our expense reports paid.	She would hate to see us not get our expense reports paid.	233467124	1478227318470	1478227318596	o	79
456632	4918154	She would hate to see us not get our expense reports paid.	She would hate to see us not get our expense reports paid.	233467126	1478227318537	1478227318639	 	32
456632	4918154	She would hate to see us not get our expense reports paid.	She would hate to see us not get our expense reports paid.	233467128	1478227318632	1478227318779	s	83
456632	4918154	She would hate to see us not get our expense reports paid.	She would hate to see us not get our expense reports paid.	233467132	1478227318713	1478227318835	e	69
456632	4918154	She would hate to see us not get our expense reports paid.	She would hate to see us not get our expense reports paid.	233467135	1478227318872	1478227318985	e	69
456632	4918154	She would hate to see us not get our expense reports paid.	She would hate to see us not get our expense reports paid.	233467167	1478227318946	1478227319073	 	32
456632	4918154	She would hate to see us not get our expense reports paid.	She would hate to see us not get our expense reports paid.	233467170	1478227319171	1478227319281	u	85
456632	4918154	She would hate to see us not get our expense reports paid.	She would hate to see us not get our expense reports paid.	233467172	1478227319420	1478227319544	s	83
456632	4918154	She would hate to see us not get our expense reports paid.	She would hate to see us not get our expense reports paid.	233467174	1478227319536	1478227319632	 	32
456632	4918154	She would hate to see us not get our expense reports paid.	She would hate to see us not get our expense reports paid.	233467178	1478227319674	1478227319793	n	78
456632	4918154	She would hate to see us not get our expense reports paid.	She would hate to see us not get our expense reports paid.	233467205	1478227319734	1478227319852	o	79
456632	4918154	She would hate to see us not get our expense reports paid.	She would hate to see us not get our expense reports paid.	233467208	1478227319808	1478227319917	t	84
456632	4918154	She would hate to see us not get our expense reports paid.	She would hate to see us not get our expense reports paid.	233467214	1478227319924	1478227320025	 	32
456632	4918154	She would hate to see us not get our expense reports paid.	She would hate to see us not get our expense reports paid.	233467219	1478227320070	1478227320201	g	71
456632	4918154	She would hate to see us not get our expense reports paid.	She would hate to see us not get our expense reports paid.	233467225	1478227320258	1478227320422	e	69
456632	4918154	She would hate to see us not get our expense reports paid.	She would hate to see us not get our expense reports paid.	233467282	1478227320328	1478227320466	t	84
456632	4918154	She would hate to see us not get our expense reports paid.	She would hate to see us not get our expense reports paid.	233467283	1478227320961	1478227321097	 	32
456632	4918154	She would hate to see us not get our expense reports paid.	She would hate to see us not get our expense reports paid.	233467287	1478227321288	1478227321397	o	79
456632	4918154	She would hate to see us not get our expense reports paid.	She would hate to see us not get our expense reports paid.	233467290	1478227321310	1478227321435	u	85
456632	4918154	She would hate to see us not get our expense reports paid.	She would hate to see us not get our expense reports paid.	233467293	1478227321391	1478227321492	r	82
456632	4918154	She would hate to see us not get our expense reports paid.	She would hate to see us not get our expense reports paid.	233467335	1478227321486	1478227321590	 	32
456632	4918154	She would hate to see us not get our expense reports paid.	She would hate to see us not get our expense reports paid.	233467336	1478227321641	1478227321757	e	69
456632	4918154	She would hate to see us not get our expense reports paid.	She would hate to see us not get our expense reports paid.	233467337	1478227321828	1478227321953	x	88
456632	4918154	She would hate to see us not get our expense reports paid.	She would hate to see us not get our expense reports paid.	233467339	1478227321880	1478227321997	p	80
456632	4918154	She would hate to see us not get our expense reports paid.	She would hate to see us not get our expense reports paid.	233467342	1478227322366	1478227322481	n	78
456632	4918154	She would hate to see us not get our expense reports paid.	She would hate to see us not get our expense reports paid.	233467346	1478227322827	1478227322919	BKSP	8
456632	4918154	She would hate to see us not get our expense reports paid.	She would hate to see us not get our expense reports paid.	233467349	1478227322941	1478227323062	e	69
456632	4918154	She would hate to see us not get our expense reports paid.	She would hate to see us not get our expense reports paid.	233467355	1478227323069	1478227323151	n	78
456632	4918154	She would hate to see us not get our expense reports paid.	She would hate to see us not get our expense reports paid.	233467357	1478227323163	1478227323327	s	83
456632	4918154	She would hate to see us not get our expense reports paid.	She would hate to see us not get our expense reports paid.	233467361	1478227323230	1478227323387	e	69
456632	4918154	She would hate to see us not get our expense reports paid.	She would hate to see us not get our expense reports paid.	233467364	1478227323334	1478227323429	 	32
456632	4918154	She would hate to see us not get our expense reports paid.	She would hate to see us not get our expense reports paid.	233467369	1478227323482	1478227323611	r	82
456632	4918154	She would hate to see us not get our expense reports paid.	She would hate to see us not get our expense reports paid.	233467402	1478227323575	1478227323758	e	69
456632	4918154	She would hate to see us not get our expense reports paid.	She would hate to see us not get our expense reports paid.	233467405	1478227323742	1478227323882	p	80
456632	4918154	She would hate to see us not get our expense reports paid.	She would hate to see us not get our expense reports paid.	233467407	1478227323794	1478227323919	o	79
456632	4918154	She would hate to see us not get our expense reports paid.	She would hate to see us not get our expense reports paid.	233467409	1478227323897	1478227323999	r	82
456632	4918154	She would hate to see us not get our expense reports paid.	She would hate to see us not get our expense reports paid.	233467410	1478227324083	1478227324219	t	84
456632	4918154	She would hate to see us not get our expense reports paid.	She would hate to see us not get our expense reports paid.	233467445	1478227324153	1478227324313	s	83
456632	4918154	She would hate to see us not get our expense reports paid.	She would hate to see us not get our expense reports paid.	233467448	1478227324285	1478227324393	 	32
456632	4918154	She would hate to see us not get our expense reports paid.	She would hate to see us not get our expense reports paid.	233467453	1478227324437	1478227324559	s	83
456632	4918154	She would hate to see us not get our expense reports paid.	She would hate to see us not get our expense reports paid.	233467457	1478227324796	1478227324906	BKSP	8
456632	4918154	She would hate to see us not get our expense reports paid.	She would hate to see us not get our expense reports paid.	233467460	1478227325046	1478227325162	p	80
456632	4918154	She would hate to see us not get our expense reports paid.	She would hate to see us not get our expense reports paid.	233467465	1478227325140	1478227325314	a	65
456632	4918154	She would hate to see us not get our expense reports paid.	She would hate to see us not get our expense reports paid.	233467470	1478227325321	1478227325406	i	73
456632	4918154	She would hate to see us not get our expense reports paid.	She would hate to see us not get our expense reports paid.	233467485	1478227325429	1478227325538	d	68
456632	4918171	US vessels will form two separate training units.	US vessels will form two separate training units.	233467793	1478227328554	1478227329460	SHIFT	16
456632	4918171	US vessels will form two separate training units.	US vessels will form two separate training units.	233467779	1478227328639	1478227328773	U	85
456632	4918171	US vessels will form two separate training units.	US vessels will form two separate training units.	233467783	1478227329034	1478227329154	S	83
456632	4918171	US vessels will form two separate training units.	US vessels will form two separate training units.	233467788	1478227329204	1478227329307	 	32
456632	4918171	US vessels will form two separate training units.	US vessels will form two separate training units.	233467802	1478227329602	1478227329710	v	86
456632	4918171	US vessels will form two separate training units.	US vessels will form two separate training units.	233467807	1478227329803	1478227329963	e	69
456632	4918171	US vessels will form two separate training units.	US vessels will form two separate training units.	233467818	1478227329876	1478227330028	s	83
456632	4918171	US vessels will form two separate training units.	US vessels will form two separate training units.	233467819	1478227330078	1478227330246	s	83
456632	4918171	US vessels will form two separate training units.	US vessels will form two separate training units.	233467824	1478227330188	1478227330356	e	69
456632	4918171	US vessels will form two separate training units.	US vessels will form two separate training units.	233467829	1478227330306	1478227330432	l	76
456632	4918171	US vessels will form two separate training units.	US vessels will form two separate training units.	233467836	1478227330454	1478227330578	s	83
456632	4918171	US vessels will form two separate training units.	US vessels will form two separate training units.	233467861	1478227330571	1478227330643	 	32
456632	4918171	US vessels will form two separate training units.	US vessels will form two separate training units.	233467863	1478227330715	1478227330846	w	87
456632	4918171	US vessels will form two separate training units.	US vessels will form two separate training units.	233467865	1478227330788	1478227330889	i	73
456632	4918171	US vessels will form two separate training units.	US vessels will form two separate training units.	233467867	1478227330840	1478227330912	l	76
456632	4918171	US vessels will form two separate training units.	US vessels will form two separate training units.	233467868	1478227330961	1478227331117	l	76
456632	4918171	US vessels will form two separate training units.	US vessels will form two separate training units.	233467878	1478227331058	1478227331184	 	32
456632	4918171	US vessels will form two separate training units.	US vessels will form two separate training units.	233467879	1478227331110	1478227331227	f	70
456632	4918171	US vessels will form two separate training units.	US vessels will form two separate training units.	233467880	1478227331220	1478227331330	o	79
456632	4918171	US vessels will form two separate training units.	US vessels will form two separate training units.	233467881	1478227331359	1478227331467	r	82
456632	4918171	US vessels will form two separate training units.	US vessels will form two separate training units.	233467882	1478227331482	1478227331592	m	77
456632	4918171	US vessels will form two separate training units.	US vessels will form two separate training units.	233467883	1478227331562	1478227331677	 	32
456632	4918171	US vessels will form two separate training units.	US vessels will form two separate training units.	233467885	1478227331703	1478227331836	t	84
456632	4918171	US vessels will form two separate training units.	US vessels will form two separate training units.	233467910	1478227331806	1478227331983	w	87
456632	4918171	US vessels will form two separate training units.	US vessels will form two separate training units.	233467912	1478227331902	1478227332034	o	79
456632	4918171	US vessels will form two separate training units.	US vessels will form two separate training units.	233467916	1478227331990	1478227332084	 	32
456632	4918171	US vessels will form two separate training units.	US vessels will form two separate training units.	233467921	1478227332357	1478227332545	s	83
456632	4918171	US vessels will form two separate training units.	US vessels will form two separate training units.	233467927	1478227332510	1478227332647	e	69
456632	4918171	US vessels will form two separate training units.	US vessels will form two separate training units.	233467989	1478227332640	1478227332765	p	80
456632	4918171	US vessels will form two separate training units.	US vessels will form two separate training units.	233467994	1478227333012	1478227333167	a	65
456632	4918171	US vessels will form two separate training units.	US vessels will form two separate training units.	233467999	1478227333085	1478227333203	r	82
456632	4918171	US vessels will form two separate training units.	US vessels will form two separate training units.	233468003	1478227333591	1478227333754	a	65
456632	4918171	US vessels will form two separate training units.	US vessels will form two separate training units.	233468007	1478227333681	1478227333842	t	84
456632	4918171	US vessels will form two separate training units.	US vessels will form two separate training units.	233468013	1478227333777	1478227333936	e	69
456632	4918171	US vessels will form two separate training units.	US vessels will form two separate training units.	233468014	1478227333972	1478227334046	 	32
456632	4918171	US vessels will form two separate training units.	US vessels will form two separate training units.	233468015	1478227334075	1478227334162	t	84
456632	4918171	US vessels will form two separate training units.	US vessels will form two separate training units.	233468018	1478227334246	1478227334345	r	82
456632	4918171	US vessels will form two separate training units.	US vessels will form two separate training units.	233468021	1478227334276	1478227334463	a	65
456632	4918171	US vessels will form two separate training units.	US vessels will form two separate training units.	233468038	1478227334396	1478227334507	i	73
456632	4918171	US vessels will form two separate training units.	US vessels will form two separate training units.	233468041	1478227334455	1478227334566	n	78
456632	4918171	US vessels will form two separate training units.	US vessels will form two separate training units.	233468043	1478227334588	1478227334713	i	73
456632	4918171	US vessels will form two separate training units.	US vessels will form two separate training units.	233468045	1478227334646	1478227334763	n	78
456632	4918171	US vessels will form two separate training units.	US vessels will form two separate training units.	233468047	1478227334698	1478227334806	g	71
456632	4918171	US vessels will form two separate training units.	US vessels will form two separate training units.	233468051	1478227334791	1478227334924	 	32
456632	4918171	US vessels will form two separate training units.	US vessels will form two separate training units.	233468105	1478227334873	1478227334976	u	85
456632	4918171	US vessels will form two separate training units.	US vessels will form two separate training units.	233468111	1478227335068	1478227335197	n	78
456632	4918171	US vessels will form two separate training units.	US vessels will form two separate training units.	233468117	1478227335344	1478227335454	i	73
456632	4918171	US vessels will form two separate training units.	US vessels will form two separate training units.	233468122	1478227335432	1478227335625	t	84
456632	4918171	US vessels will form two separate training units.	US vessels will form two separate training units.	233468130	1478227335513	1478227335704	e	69
456632	4918171	US vessels will form two separate training units.	US vessels will form two separate training units.	233468139	1478227335948	1478227336025	BKSP	8
456632	4918171	US vessels will form two separate training units.	US vessels will form two separate training units.	233468148	1478227336033	1478227336140	s	83
456632	4918171	US vessels will form two separate training units.	US vessels will form two separate training units.	233468141	1478227336189	1478227336277	.	190
456632	4918186	I was a bit rusty but I didn't want to miss the elections back home.	I was a bit rusty but I didn't want to miss the elections back home.	233468373	1478227339336	1478227339476	SHIFT	16
456632	4918186	I was a bit rusty but I didn't want to miss the elections back home.	I was a bit rusty but I didn't want to miss the elections back home.	233468375	1478227339378	1478227339498	I	73
456632	4918186	I was a bit rusty but I didn't want to miss the elections back home.	I was a bit rusty but I didn't want to miss the elections back home.	233468377	1478227339454	1478227339548	 	32
456632	4918186	I was a bit rusty but I didn't want to miss the elections back home.	I was a bit rusty but I didn't want to miss the elections back home.	233468378	1478227339572	1478227339710	w	87
456632	4918186	I was a bit rusty but I didn't want to miss the elections back home.	I was a bit rusty but I didn't want to miss the elections back home.	233468382	1478227339673	1478227339880	a	65
456632	4918186	I was a bit rusty but I didn't want to miss the elections back home.	I was a bit rusty but I didn't want to miss the elections back home.	233468419	1478227339768	1478227339938	s	83
456632	4918186	I was a bit rusty but I didn't want to miss the elections back home.	I was a bit rusty but I didn't want to miss the elections back home.	233468416	1478227339829	1478227339924	 	32
456632	4918186	I was a bit rusty but I didn't want to miss the elections back home.	I was a bit rusty but I didn't want to miss the elections back home.	233468422	1478227339995	1478227340148	a	65
456632	4918186	I was a bit rusty but I didn't want to miss the elections back home.	I was a bit rusty but I didn't want to miss the elections back home.	233468427	1478227340040	1478227340192	 	32
456632	4918186	I was a bit rusty but I didn't want to miss the elections back home.	I was a bit rusty but I didn't want to miss the elections back home.	233468431	1478227340206	1478227340324	b	66
456632	4918186	I was a bit rusty but I didn't want to miss the elections back home.	I was a bit rusty but I didn't want to miss the elections back home.	233468436	1478227340503	1478227340610	i	73
456632	4918186	I was a bit rusty but I didn't want to miss the elections back home.	I was a bit rusty but I didn't want to miss the elections back home.	233468441	1478227340640	1478227340764	t	84
456632	4918186	I was a bit rusty but I didn't want to miss the elections back home.	I was a bit rusty but I didn't want to miss the elections back home.	233468481	1478227340735	1478227340881	 	32
456632	4918186	I was a bit rusty but I didn't want to miss the elections back home.	I was a bit rusty but I didn't want to miss the elections back home.	233468486	1478227340910	1478227341033	r	82
456632	4918186	I was a bit rusty but I didn't want to miss the elections back home.	I was a bit rusty but I didn't want to miss the elections back home.	233468489	1478227341012	1478227341113	u	85
456632	4918186	I was a bit rusty but I didn't want to miss the elections back home.	I was a bit rusty but I didn't want to miss the elections back home.	233468493	1478227341268	1478227341334	s	83
456632	4918186	I was a bit rusty but I didn't want to miss the elections back home.	I was a bit rusty but I didn't want to miss the elections back home.	233468497	1478227341695	1478227341808	t	84
456632	4918186	I was a bit rusty but I didn't want to miss the elections back home.	I was a bit rusty but I didn't want to miss the elections back home.	233468500	1478227341830	1478227341967	y	89
456632	4918186	I was a bit rusty but I didn't want to miss the elections back home.	I was a bit rusty but I didn't want to miss the elections back home.	233468515	1478227341961	1478227342062	 	32
456632	4918186	I was a bit rusty but I didn't want to miss the elections back home.	I was a bit rusty but I didn't want to miss the elections back home.	233468516	1478227342083	1478227342201	b	66
456632	4918186	I was a bit rusty but I didn't want to miss the elections back home.	I was a bit rusty but I didn't want to miss the elections back home.	233468517	1478227342186	1478227342303	u	85
456632	4918186	I was a bit rusty but I didn't want to miss the elections back home.	I was a bit rusty but I didn't want to miss the elections back home.	233468519	1478227342288	1478227342404	t	84
456632	4918186	I was a bit rusty but I didn't want to miss the elections back home.	I was a bit rusty but I didn't want to miss the elections back home.	233468521	1478227342368	1478227342479	 	32
456632	4918186	I was a bit rusty but I didn't want to miss the elections back home.	I was a bit rusty but I didn't want to miss the elections back home.	233468524	1478227342514	1478227342663	SHIFT	16
456632	4918186	I was a bit rusty but I didn't want to miss the elections back home.	I was a bit rusty but I didn't want to miss the elections back home.	233468552	1478227342575	1478227342694	I	73
456632	4918186	I was a bit rusty but I didn't want to miss the elections back home.	I was a bit rusty but I didn't want to miss the elections back home.	233468555	1478227342640	1478227342737	 	32
456632	4918186	I was a bit rusty but I didn't want to miss the elections back home.	I was a bit rusty but I didn't want to miss the elections back home.	233468557	1478227342773	1478227342897	d	68
456632	4918186	I was a bit rusty but I didn't want to miss the elections back home.	I was a bit rusty but I didn't want to miss the elections back home.	233468559	1478227343103	1478227343183	i	73
456632	4918186	I was a bit rusty but I didn't want to miss the elections back home.	I was a bit rusty but I didn't want to miss the elections back home.	233468562	1478227343213	1478227343335	d	68
456632	4918186	I was a bit rusty but I didn't want to miss the elections back home.	I was a bit rusty but I didn't want to miss the elections back home.	233468568	1478227343365	1478227343473	n	78
456632	4918186	I was a bit rusty but I didn't want to miss the elections back home.	I was a bit rusty but I didn't want to miss the elections back home.	233468584	1478227343444	1478227343598	'	222
456632	4918186	I was a bit rusty but I didn't want to miss the elections back home.	I was a bit rusty but I didn't want to miss the elections back home.	233468587	1478227343547	1478227343650	t	84
456632	4918186	I was a bit rusty but I didn't want to miss the elections back home.	I was a bit rusty but I didn't want to miss the elections back home.	233468588	1478227343635	1478227343722	 	32
456632	4918186	I was a bit rusty but I didn't want to miss the elections back home.	I was a bit rusty but I didn't want to miss the elections back home.	233468591	1478227343738	1478227343897	w	87
456632	4918186	I was a bit rusty but I didn't want to miss the elections back home.	I was a bit rusty but I didn't want to miss the elections back home.	233468592	1478227343876	1478227344037	a	65
456632	4918186	I was a bit rusty but I didn't want to miss the elections back home.	I was a bit rusty but I didn't want to miss the elections back home.	233468650	1478227343992	1478227344146	n	78
456632	4918186	I was a bit rusty but I didn't want to miss the elections back home.	I was a bit rusty but I didn't want to miss the elections back home.	233468653	1478227344272	1478227344351	t	84
456632	4918186	I was a bit rusty but I didn't want to miss the elections back home.	I was a bit rusty but I didn't want to miss the elections back home.	233468660	1478227344343	1478227344449	 	32
456632	4918186	I was a bit rusty but I didn't want to miss the elections back home.	I was a bit rusty but I didn't want to miss the elections back home.	233468665	1478227344866	1478227344974	t	84
456632	4918186	I was a bit rusty but I didn't want to miss the elections back home.	I was a bit rusty but I didn't want to miss the elections back home.	233468671	1478227344968	1478227345087	o	79
456632	4918186	I was a bit rusty but I didn't want to miss the elections back home.	I was a bit rusty but I didn't want to miss the elections back home.	233468695	1478227345028	1478227345137	 	32
456632	4918186	I was a bit rusty but I didn't want to miss the elections back home.	I was a bit rusty but I didn't want to miss the elections back home.	233468697	1478227345181	1478227345274	m	77
456632	4918186	I was a bit rusty but I didn't want to miss the elections back home.	I was a bit rusty but I didn't want to miss the elections back home.	233468701	1478227345296	1478227345429	i	73
456632	4918186	I was a bit rusty but I didn't want to miss the elections back home.	I was a bit rusty but I didn't want to miss the elections back home.	233468704	1478227345384	1478227345488	s	83
456632	4918186	I was a bit rusty but I didn't want to miss the elections back home.	I was a bit rusty but I didn't want to miss the elections back home.	233468709	1478227345550	1478227345637	s	83
456632	4918186	I was a bit rusty but I didn't want to miss the elections back home.	I was a bit rusty but I didn't want to miss the elections back home.	233468734	1478227345608	1478227345706	 	32
456632	4918186	I was a bit rusty but I didn't want to miss the elections back home.	I was a bit rusty but I didn't want to miss the elections back home.	233468739	1478227345714	1478227345815	t	84
456632	4918186	I was a bit rusty but I didn't want to miss the elections back home.	I was a bit rusty but I didn't want to miss the elections back home.	233468748	1478227345765	1478227345875	h	72
456632	4918186	I was a bit rusty but I didn't want to miss the elections back home.	I was a bit rusty but I didn't want to miss the elections back home.	233468752	1478227345859	1478227345991	e	69
456632	4918186	I was a bit rusty but I didn't want to miss the elections back home.	I was a bit rusty but I didn't want to miss the elections back home.	233468757	1478227345926	1478227346013	 	32
456632	4918186	I was a bit rusty but I didn't want to miss the elections back home.	I was a bit rusty but I didn't want to miss the elections back home.	233468770	1478227346062	1478227346165	e	69
456632	4918186	I was a bit rusty but I didn't want to miss the elections back home.	I was a bit rusty but I didn't want to miss the elections back home.	233468780	1478227346142	1478227346253	l	76
456632	4918186	I was a bit rusty but I didn't want to miss the elections back home.	I was a bit rusty but I didn't want to miss the elections back home.	233468785	1478227346246	1478227346333	e	69
456632	4918186	I was a bit rusty but I didn't want to miss the elections back home.	I was a bit rusty but I didn't want to miss the elections back home.	233468790	1478227346425	1478227346540	c	67
456632	4918186	I was a bit rusty but I didn't want to miss the elections back home.	I was a bit rusty but I didn't want to miss the elections back home.	233468795	1478227346548	1478227346667	t	84
456632	4918186	I was a bit rusty but I didn't want to miss the elections back home.	I was a bit rusty but I didn't want to miss the elections back home.	233468817	1478227346623	1478227346756	i	73
456632	4918186	I was a bit rusty but I didn't want to miss the elections back home.	I was a bit rusty but I didn't want to miss the elections back home.	233468820	1478227346660	1478227346793	o	79
456632	4918186	I was a bit rusty but I didn't want to miss the elections back home.	I was a bit rusty but I didn't want to miss the elections back home.	233468822	1478227346705	1478227346835	n	78
456632	4918186	I was a bit rusty but I didn't want to miss the elections back home.	I was a bit rusty but I didn't want to miss the elections back home.	233468824	1478227346828	1478227346930	s	83
456632	4918186	I was a bit rusty but I didn't want to miss the elections back home.	I was a bit rusty but I didn't want to miss the elections back home.	233468826	1478227346901	1478227346999	 	32
456632	4918186	I was a bit rusty but I didn't want to miss the elections back home.	I was a bit rusty but I didn't want to miss the elections back home.	233468833	1478227347050	1478227347167	b	66
456632	4918186	I was a bit rusty but I didn't want to miss the elections back home.	I was a bit rusty but I didn't want to miss the elections back home.	233468871	1478227347160	1478227347284	a	65
456632	4918186	I was a bit rusty but I didn't want to miss the elections back home.	I was a bit rusty but I didn't want to miss the elections back home.	233468878	1478227347321	1478227347459	c	67
456632	4918186	I was a bit rusty but I didn't want to miss the elections back home.	I was a bit rusty but I didn't want to miss the elections back home.	233468885	1478227347385	1478227347517	k	75
456632	4918186	I was a bit rusty but I didn't want to miss the elections back home.	I was a bit rusty but I didn't want to miss the elections back home.	233468889	1478227347452	1478227347555	 	32
456632	4918186	I was a bit rusty but I didn't want to miss the elections back home.	I was a bit rusty but I didn't want to miss the elections back home.	233468891	1478227347847	1478227347957	h	72
456632	4918186	I was a bit rusty but I didn't want to miss the elections back home.	I was a bit rusty but I didn't want to miss the elections back home.	233468897	1478227347927	1478227348096	o	79
456632	4918186	I was a bit rusty but I didn't want to miss the elections back home.	I was a bit rusty but I didn't want to miss the elections back home.	233468901	1478227348045	1478227348181	m	77
456632	4918186	I was a bit rusty but I didn't want to miss the elections back home.	I was a bit rusty but I didn't want to miss the elections back home.	233468904	1478227348124	1478227348226	e	69
456632	4918200	The move is also against our law.	The move is also against our law.	233469069	1478227350676	1478227350808	SHIFT	16
456632	4918200	The move is also against our law.	The move is also against our law.	233469072	1478227350721	1478227350834	T	84
456632	4918200	The move is also against our law.	The move is also against our law.	233469077	1478227350856	1478227350938	h	72
456632	4918200	The move is also against our law.	The move is also against our law.	233469082	1478227350887	1478227351001	e	69
456632	4918200	The move is also against our law.	The move is also against our law.	233469086	1478227351249	1478227351363	 	32
456632	4918200	The move is also against our law.	The move is also against our law.	233469090	1478227351409	1478227351518	m	77
456632	4918200	The move is also against our law.	The move is also against our law.	233469104	1478227351482	1478227351606	o	79
456632	4918200	The move is also against our law.	The move is also against our law.	233469106	1478227351562	1478227351707	v	86
456632	4918200	The move is also against our law.	The move is also against our law.	233469110	1478227351745	1478227351874	e	69
456632	4918200	The move is also against our law.	The move is also against our law.	233469111	1478227351868	1478227351955	 	32
456632	4918200	The move is also against our law.	The move is also against our law.	233469113	1478227351948	1478227352068	i	73
456632	4918200	The move is also against our law.	The move is also against our law.	233469134	1478227352042	1478227352185	s	83
456632	4918200	The move is also against our law.	The move is also against our law.	233469138	1478227352126	1478227352208	 	32
456632	4918200	The move is also against our law.	The move is also against our law.	233469142	1478227352214	1478227352377	a	65
456632	4918200	The move is also against our law.	The move is also against our law.	233469145	1478227352310	1478227352406	l	76
456632	4918200	The move is also against our law.	The move is also against our law.	233469147	1478227352391	1478227352543	s	83
456632	4918200	The move is also against our law.	The move is also against our law.	233469162	1478227352507	1478227352632	o	79
456632	4918200	The move is also against our law.	The move is also against our law.	233469165	1478227352572	1478227352675	 	32
456632	4918200	The move is also against our law.	The move is also against our law.	233469169	1478227352668	1478227352808	a	65
456632	4918200	The move is also against our law.	The move is also against our law.	233469171	1478227352772	1478227352895	g	71
456632	4918200	The move is also against our law.	The move is also against our law.	233469174	1478227352888	1478227353021	a	65
456632	4918200	The move is also against our law.	The move is also against our law.	233469192	1478227352939	1478227353065	i	73
456632	4918200	The move is also against our law.	The move is also against our law.	233469197	1478227352998	1478227353108	n	78
456632	4918200	The move is also against our law.	The move is also against our law.	233469200	1478227353101	1478227353225	s	83
456632	4918200	The move is also against our law.	The move is also against our law.	233469205	1478227353153	1478227353284	t	84
456632	4918200	The move is also against our law.	The move is also against our law.	233469207	1478227353239	1478227353327	 	32
456632	4918200	The move is also against our law.	The move is also against our law.	233469209	1478227353349	1478227353485	o	79
456632	4918200	The move is also against our law.	The move is also against our law.	233469238	1478227353404	1478227353523	u	85
456632	4918200	The move is also against our law.	The move is also against our law.	233469241	1478227353479	1478227353588	r	82
456632	4918200	The move is also against our law.	The move is also against our law.	233469245	1478227353582	1478227353684	 	32
456632	4918200	The move is also against our law.	The move is also against our law.	233469249	1478227353662	1478227353808	l	76
456632	4918200	The move is also against our law.	The move is also against our law.	233469253	1478227353770	1478227353941	a	65
456632	4918200	The move is also against our law.	The move is also against our law.	233469257	1478227353873	1478227354072	w	87
456632	4918208	Our advantages have been brought into fuller play.	Our advantages have been brought into fuller play.	233469426	1478227356610	1478227357421	SHIFT	16
456632	4918208	Our advantages have been brought into fuller play.	Our advantages have been brought into fuller play.	233469424	1478227357018	1478227357121	L	76
456632	4918208	Our advantages have been brought into fuller play.	Our advantages have been brought into fuller play.	233469429	1478227357507	1478227357602	BKSP	8
456632	4918208	Our advantages have been brought into fuller play.	Our advantages have been brought into fuller play.	233469433	1478227357623	1478227357847	SHIFT	16
456632	4918208	Our advantages have been brought into fuller play.	Our advantages have been brought into fuller play.	233469431	1478227357734	1478227357842	O	79
456632	4918208	Our advantages have been brought into fuller play.	Our advantages have been brought into fuller play.	233469438	1478227358007	1478227358103	u	85
456632	4918208	Our advantages have been brought into fuller play.	Our advantages have been brought into fuller play.	233469444	1478227358162	1478227358287	r	82
456632	4918208	Our advantages have been brought into fuller play.	Our advantages have been brought into fuller play.	233469472	1478227358281	1478227358382	 	32
456632	4918208	Our advantages have been brought into fuller play.	Our advantages have been brought into fuller play.	233469474	1478227358453	1478227358616	a	65
456632	4918208	Our advantages have been brought into fuller play.	Our advantages have been brought into fuller play.	233469476	1478227358555	1478227358694	d	68
456632	4918208	Our advantages have been brought into fuller play.	Our advantages have been brought into fuller play.	233469478	1478227358758	1478227358881	v	86
456632	4918208	Our advantages have been brought into fuller play.	Our advantages have been brought into fuller play.	233469482	1478227358860	1478227359045	a	65
456632	4918208	Our advantages have been brought into fuller play.	Our advantages have been brought into fuller play.	233469496	1478227358969	1478227359067	n	78
456632	4918208	Our advantages have been brought into fuller play.	Our advantages have been brought into fuller play.	233469498	1478227359052	1478227359147	t	84
456632	4918208	Our advantages have been brought into fuller play.	Our advantages have been brought into fuller play.	233469500	1478227359182	1478227359351	a	65
456632	4918208	Our advantages have been brought into fuller play.	Our advantages have been brought into fuller play.	233469504	1478227359278	1478227359490	g	71
456632	4918208	Our advantages have been brought into fuller play.	Our advantages have been brought into fuller play.	233469541	1478227359438	1478227359541	s	69
456632	4918208	Our advantages have been brought into fuller play.	Our advantages have been brought into fuller play.	233469543	1478227359613	1478227359712	 	32
456632	4918208	Our advantages have been brought into fuller play.	Our advantages have been brought into fuller play.	233469545	1478227360434	1478227360520	h	72
456632	4918208	Our advantages have been brought into fuller play.	Our advantages have been brought into fuller play.	233469547	1478227360527	1478227360712	a	65
456632	4918208	Our advantages have been brought into fuller play.	Our advantages have been brought into fuller play.	233469559	1478227360623	1478227360784	v	86
456632	4918208	Our advantages have been brought into fuller play.	Our advantages have been brought into fuller play.	233469562	1478227360699	1478227360865	e	69
456632	4918208	Our advantages have been brought into fuller play.	Our advantages have been brought into fuller play.	233469565	1478227360814	1478227360908	 	32
456632	4918208	Our advantages have been brought into fuller play.	Our advantages have been brought into fuller play.	233469566	1478227360948	1478227361063	b	66
456632	4918208	Our advantages have been brought into fuller play.	Our advantages have been brought into fuller play.	233469567	1478227361056	1478227361175	e	69
456632	4918208	Our advantages have been brought into fuller play.	Our advantages have been brought into fuller play.	233469568	1478227361253	1478227361335	e	69
456632	4918208	Our advantages have been brought into fuller play.	Our advantages have been brought into fuller play.	233469575	1478227361298	1478227361436	n	78
456632	4918208	Our advantages have been brought into fuller play.	Our advantages have been brought into fuller play.	233469578	1478227361378	1478227361487	 	32
456632	4918208	Our advantages have been brought into fuller play.	Our advantages have been brought into fuller play.	233469582	1478227361608	1478227361725	b	66
456632	4918208	Our advantages have been brought into fuller play.	Our advantages have been brought into fuller play.	233469585	1478227361816	1478227361939	r	82
456632	4918208	Our advantages have been brought into fuller play.	Our advantages have been brought into fuller play.	233469617	1478227361889	1478227362006	o	79
456632	4918208	Our advantages have been brought into fuller play.	Our advantages have been brought into fuller play.	233469621	1478227361932	1478227362049	u	85
456632	4918208	Our advantages have been brought into fuller play.	Our advantages have been brought into fuller play.	233469627	1478227362099	1478227362202	g	71
456632	4918208	Our advantages have been brought into fuller play.	Our advantages have been brought into fuller play.	233469633	1478227362180	1478227362278	h	72
456632	4918208	Our advantages have been brought into fuller play.	Our advantages have been brought into fuller play.	233469637	1478227362286	1478227362409	t	84
456632	4918208	Our advantages have been brought into fuller play.	Our advantages have been brought into fuller play.	233469642	1478227362387	1478227362452	 	32
456632	4918208	Our advantages have been brought into fuller play.	Our advantages have been brought into fuller play.	233469647	1478227362467	1478227362630	i	73
456632	4918208	Our advantages have been brought into fuller play.	Our advantages have been brought into fuller play.	233469667	1478227362555	1478227362673	n	78
456632	4918208	Our advantages have been brought into fuller play.	Our advantages have been brought into fuller play.	233469671	1478227362702	1478227362817	t	84
456632	4918208	Our advantages have been brought into fuller play.	Our advantages have been brought into fuller play.	233469675	1478227362831	1478227362970	o	79
456632	4918208	Our advantages have been brought into fuller play.	Our advantages have been brought into fuller play.	233469676	1478227362991	1478227363094	 	32
456632	4918208	Our advantages have been brought into fuller play.	Our advantages have been brought into fuller play.	233469678	1478227363151	1478227363297	f	70
456632	4918208	Our advantages have been brought into fuller play.	Our advantages have been brought into fuller play.	233469679	1478227363303	1478227363396	u	85
456632	4918208	Our advantages have been brought into fuller play.	Our advantages have been brought into fuller play.	233469684	1478227363441	1478227363543	l	76
456632	4918208	Our advantages have been brought into fuller play.	Our advantages have been brought into fuller play.	233469686	1478227363590	1478227363722	l	76
456632	4918208	Our advantages have been brought into fuller play.	Our advantages have been brought into fuller play.	233469688	1478227363699	1478227363844	e	69
456632	4918208	Our advantages have been brought into fuller play.	Our advantages have been brought into fuller play.	233469715	1478227363764	1478227363889	r	82
456632	4918208	Our advantages have been brought into fuller play.	Our advantages have been brought into fuller play.	233469718	1478227363837	1478227363941	 	32
456632	4918208	Our advantages have been brought into fuller play.	Our advantages have been brought into fuller play.	233469721	1478227363934	1478227364071	p	80
456632	4918208	Our advantages have been brought into fuller play.	Our advantages have been brought into fuller play.	233469723	1478227364109	1478227364256	l	76
456632	4918208	Our advantages have been brought into fuller play.	Our advantages have been brought into fuller play.	233469725	1478227364203	1478227364366	a	65
456632	4918208	Our advantages have been brought into fuller play.	Our advantages have been brought into fuller play.	233469726	1478227364292	1478227364395	y	89
456632	4918222	Did you tell Steve?	Did you tell Steve?	233469843	1478227366639	1478227366798	SHIFT	16
456632	4918222	Did you tell Steve?	Did you tell Steve?	233469846	1478227366715	1478227366823	D	68
456632	4918222	Did you tell Steve?	Did you tell Steve?	233469849	1478227367044	1478227367145	i	73
456632	4918222	Did you tell Steve?	Did you tell Steve?	233469851	1478227367134	1478227367244	d	68
456632	4918222	Did you tell Steve?	Did you tell Steve?	233469858	1478227367257	1478227367361	 	32
456632	4918222	Did you tell Steve?	Did you tell Steve?	233469875	1478227367339	1478227367458	y	89
456632	4918222	Did you tell Steve?	Did you tell Steve?	233469880	1478227367443	1478227367575	o	79
456632	4918222	Did you tell Steve?	Did you tell Steve?	233469885	1478227367509	1478227367633	u	85
456632	4918222	Did you tell Steve?	Did you tell Steve?	233469890	1478227367560	1478227367675	 	32
456632	4918222	Did you tell Steve?	Did you tell Steve?	233469894	1478227367648	1478227367793	t	84
456632	4918222	Did you tell Steve?	Did you tell Steve?	233469930	1478227367749	1478227367876	e	69
456632	4918222	Did you tell Steve?	Did you tell Steve?	233469933	1478227367830	1478227367934	l	76
456632	4918222	Did you tell Steve?	Did you tell Steve?	233469936	1478227367983	1478227368113	l	76
456632	4918222	Did you tell Steve?	Did you tell Steve?	233469938	1478227368056	1478227368195	 	32
456632	4918222	Did you tell Steve?	Did you tell Steve?	233469944	1478227368216	1478227368401	SHIFT	16
456632	4918222	Did you tell Steve?	Did you tell Steve?	233469941	1478227368260	1478227368393	S	83
456632	4918222	Did you tell Steve?	Did you tell Steve?	233469947	1478227368464	1478227368586	t	84
456632	4918222	Did you tell Steve?	Did you tell Steve?	233469961	1478227368579	1478227368730	e	69
456632	4918222	Did you tell Steve?	Did you tell Steve?	233469964	1478227368772	1478227368899	v	86
456632	4918222	Did you tell Steve?	Did you tell Steve?	233469967	1478227368841	1478227368986	e	69
456632	4918222	Did you tell Steve?	Did you tell Steve?	233469971	1478227369023	1478227369119	?	191
456632	4918225	What is in the plan?	What is in the plan?	233470096	1478227370922	1478227371047	W	87
456632	4918225	What is in the plan?	What is in the plan?	233470100	1478227371096	1478227371177	h	72
456632	4918225	What is in the plan?	What is in the plan?	233470104	1478227371162	1478227371314	a	65
456632	4918225	What is in the plan?	What is in the plan?	233470107	1478227371242	1478227371374	t	84
456632	4918225	What is in the plan?	What is in the plan?	233470149	1478227371321	1478227371424	 	32
456632	4918225	What is in the plan?	What is in the plan?	233470151	1478227371418	1478227371578	i	73
456632	4918225	What is in the plan?	What is in the plan?	233470155	1478227371528	1478227371630	 	32
456632	4918225	What is in the plan?	What is in the plan?	233470158	1478227372120	1478227372203	BKSP	8
456632	4918225	What is in the plan?	What is in the plan?	233470161	1478227372196	1478227372306	s	83
456632	4918225	What is in the plan?	What is in the plan?	233470163	1478227372284	1478227372389	 	32
456632	4918225	What is in the plan?	What is in the plan?	233470165	1478227372410	1478227372550	i	73
456632	4918225	What is in the plan?	What is in the plan?	233470168	1478227372469	1478227372609	n	78
456632	4918225	What is in the plan?	What is in the plan?	233470170	1478227372543	1478227372632	 	32
456632	4918225	What is in the plan?	What is in the plan?	233470172	1478227372602	1478227372712	t	84
456632	4918225	What is in the plan?	What is in the plan?	233470173	1478227372682	1478227372786	h	72
456632	4918225	What is in the plan?	What is in the plan?	233470174	1478227372755	1478227372886	e	69
456632	4918225	What is in the plan?	What is in the plan?	233470175	1478227372850	1478227372939	 	32
456632	4918225	What is in the plan?	What is in the plan?	233470214	1478227372930	1478227373025	p	80
456632	4918225	What is in the plan?	What is in the plan?	233470217	1478227373092	1478227373208	l	76
456632	4918225	What is in the plan?	What is in the plan?	233470219	1478227373202	1478227373326	a	65
456632	4918225	What is in the plan?	What is in the plan?	233470223	1478227373311	1478227373405	n	78
456632	4918225	What is in the plan?	What is in the plan?	233470231	1478227373397	1478227373604	SHIFT	16
456632	4918225	What is in the plan?	What is in the plan?	233470227	1478227373487	1478227373582	?	191
