PARTICIPANT_ID	TEST_SECTION_ID	SENTENCE	USER_INPUT	KEYSTROKE_ID	PRESS_TIME	RELEASE_TIME	LETTER	KEYCODE
457007	4922055	The book will also present details of the economic conditions.	The book will also present details of the economic conditions.	233651923	1478231863402	1478231863528	SHIFT	16
457007	4922055	The book will also present details of the economic conditions.	The book will also present details of the economic conditions.	233651927	1478231863457	1478231863529	T	84
457007	4922055	The book will also present details of the economic conditions.	The book will also present details of the economic conditions.	233651931	1478231863585	1478231863656	h	72
457007	4922055	The book will also present details of the economic conditions.	The book will also present details of the economic conditions.	233651936	1478231863664	1478231863763	e	69
457007	4922055	The book will also present details of the economic conditions.	The book will also present details of the economic conditions.	233651940	1478231863736	1478231863816	 	32
457007	4922055	The book will also present details of the economic conditions.	The book will also present details of the economic conditions.	233651944	1478231863865	1478231863944	b	66
457007	4922055	The book will also present details of the economic conditions.	The book will also present details of the economic conditions.	233651950	1478231863951	1478231864016	o	79
457007	4922055	The book will also present details of the economic conditions.	The book will also present details of the economic conditions.	233651952	1478231864081	1478231864176	o	79
457007	4922055	The book will also present details of the economic conditions.	The book will also present details of the economic conditions.	233651954	1478231864145	1478231864232	k	75
457007	4922055	The book will also present details of the economic conditions.	The book will also present details of the economic conditions.	233651956	1478231864240	1478231864312	 	32
457007	4922055	The book will also present details of the economic conditions.	The book will also present details of the economic conditions.	233651957	1478231864320	1478231864406	w	87
457007	4922055	The book will also present details of the economic conditions.	The book will also present details of the economic conditions.	233651968	1478231864400	1478231864480	i	73
457007	4922055	The book will also present details of the economic conditions.	The book will also present details of the economic conditions.	233651970	1478231864559	1478231864600	l	76
457007	4922055	The book will also present details of the economic conditions.	The book will also present details of the economic conditions.	233651976	1478231864672	1478231864728	l	76
457007	4922055	The book will also present details of the economic conditions.	The book will also present details of the economic conditions.	233651978	1478231864753	1478231864816	 	32
457007	4922055	The book will also present details of the economic conditions.	The book will also present details of the economic conditions.	233651981	1478231864832	1478231864904	a	65
457007	4922055	The book will also present details of the economic conditions.	The book will also present details of the economic conditions.	233651984	1478231864920	1478231864984	l	76
457007	4922055	The book will also present details of the economic conditions.	The book will also present details of the economic conditions.	233651987	1478231865025	1478231865072	s	83
457007	4922055	The book will also present details of the economic conditions.	The book will also present details of the economic conditions.	233651989	1478231865105	1478231865176	o	79
457007	4922055	The book will also present details of the economic conditions.	The book will also present details of the economic conditions.	233651993	1478231865210	1478231865280	 	32
457007	4922055	The book will also present details of the economic conditions.	The book will also present details of the economic conditions.	233651996	1478231865336	1478231865399	p	80
457007	4922055	The book will also present details of the economic conditions.	The book will also present details of the economic conditions.	233651999	1478231865409	1478231865472	r	82
457007	4922055	The book will also present details of the economic conditions.	The book will also present details of the economic conditions.	233652015	1478231865544	1478231865631	e	69
457007	4922055	The book will also present details of the economic conditions.	The book will also present details of the economic conditions.	233652019	1478231865641	1478231865751	s	83
457007	4922055	The book will also present details of the economic conditions.	The book will also present details of the economic conditions.	233652024	1478231865736	1478231865816	e	69
457007	4922055	The book will also present details of the economic conditions.	The book will also present details of the economic conditions.	233652027	1478231865857	1478231865920	n	78
457007	4922055	The book will also present details of the economic conditions.	The book will also present details of the economic conditions.	233652029	1478231865952	1478231866016	t	84
457007	4922055	The book will also present details of the economic conditions.	The book will also present details of the economic conditions.	233652043	1478231866064	1478231866160	 	32
457007	4922055	The book will also present details of the economic conditions.	The book will also present details of the economic conditions.	233652045	1478231866200	1478231866264	d	68
457007	4922055	The book will also present details of the economic conditions.	The book will also present details of the economic conditions.	233652047	1478231866352	1478231866408	e	69
457007	4922055	The book will also present details of the economic conditions.	The book will also present details of the economic conditions.	233652050	1478231866496	1478231866560	t	84
457007	4922055	The book will also present details of the economic conditions.	The book will also present details of the economic conditions.	233652053	1478231866649	1478231866720	a	65
457007	4922055	The book will also present details of the economic conditions.	The book will also present details of the economic conditions.	233652072	1478231866745	1478231866816	i	73
457007	4922055	The book will also present details of the economic conditions.	The book will also present details of the economic conditions.	233652076	1478231866880	1478231866944	l	76
457007	4922055	The book will also present details of the economic conditions.	The book will also present details of the economic conditions.	233652078	1478231866968	1478231867056	s	83
457007	4922055	The book will also present details of the economic conditions.	The book will also present details of the economic conditions.	233652080	1478231867057	1478231867127	 	32
457007	4922055	The book will also present details of the economic conditions.	The book will also present details of the economic conditions.	233652083	1478231867135	1478231867216	o	79
457007	4922055	The book will also present details of the economic conditions.	The book will also present details of the economic conditions.	233652103	1478231867231	1478231867326	f	70
457007	4922055	The book will also present details of the economic conditions.	The book will also present details of the economic conditions.	233652105	1478231867321	1478231867384	 	32
457007	4922055	The book will also present details of the economic conditions.	The book will also present details of the economic conditions.	233652109	1478231867440	1478231867504	t	84
457007	4922055	The book will also present details of the economic conditions.	The book will also present details of the economic conditions.	233652112	1478231867521	1478231867576	h	72
457007	4922055	The book will also present details of the economic conditions.	The book will also present details of the economic conditions.	233652114	1478231867600	1478231867688	e	69
457007	4922055	The book will also present details of the economic conditions.	The book will also present details of the economic conditions.	233652134	1478231867672	1478231867760	 	32
457007	4922055	The book will also present details of the economic conditions.	The book will also present details of the economic conditions.	233652137	1478231867809	1478231867896	c	67
457007	4922055	The book will also present details of the economic conditions.	The book will also present details of the economic conditions.	233652140	1478231867904	1478231868000	o	79
457007	4922055	The book will also present details of the economic conditions.	The book will also present details of the economic conditions.	233652141	1478231867976	1478231868064	n	78
457007	4922055	The book will also present details of the economic conditions.	The book will also present details of the economic conditions.	233652142	1478231868104	1478231868215	o	79
457007	4922055	The book will also present details of the economic conditions.	The book will also present details of the economic conditions.	233652165	1478231868201	1478231868296	m	77
457007	4922055	The book will also present details of the economic conditions.	The book will also present details of the economic conditions.	233652167	1478231868360	1478231868424	i	73
457007	4922055	The book will also present details of the economic conditions.	The book will also present details of the economic conditions.	233652169	1478231868496	1478231868583	c	67
457007	4922055	The book will also present details of the economic conditions.	The book will also present details of the economic conditions.	233652173	1478231868560	1478231868671	 	32
457007	4922055	The book will also present details of the economic conditions.	The book will also present details of the economic conditions.	233652175	1478231868784	1478231868871	c	67
457007	4922055	The book will also present details of the economic conditions.	The book will also present details of the economic conditions.	233652210	1478231868864	1478231868959	o	79
457007	4922055	The book will also present details of the economic conditions.	The book will also present details of the economic conditions.	233652217	1478231868952	1478231869024	n	78
457007	4922055	The book will also present details of the economic conditions.	The book will also present details of the economic conditions.	233652222	1478231869064	1478231869136	d	68
457007	4922055	The book will also present details of the economic conditions.	The book will also present details of the economic conditions.	233652228	1478231869176	1478231869280	i	73
457007	4922055	The book will also present details of the economic conditions.	The book will also present details of the economic conditions.	233652230	1478231869409	1478231869488	t	84
457007	4922055	The book will also present details of the economic conditions.	The book will also present details of the economic conditions.	233652234	1478231869528	1478231869591	i	73
457007	4922055	The book will also present details of the economic conditions.	The book will also present details of the economic conditions.	233652338	1478231869648	1478231869744	o	79
457007	4922055	The book will also present details of the economic conditions.	The book will also present details of the economic conditions.	233652340	1478231869728	1478231869808	n	78
457007	4922055	The book will also present details of the economic conditions.	The book will also present details of the economic conditions.	233652343	1478231870577	1478231870656	s	83
457007	4922055	The book will also present details of the economic conditions.	The book will also present details of the economic conditions.	233652347	1478231870672	1478231870768	.	190
457007	4922055	The book will also present details of the economic conditions.	The book will also present details of the economic conditions.	233652353	1478231872369	1478231872440	e	69
457007	4922068	Let's think out of the box.	Let's think out of the box.	233652531	1478231875176	1478231876784	SHIFT	16
457007	4922068	Let's think out of the box.	Let's think out of the box.	233652533	1478231876737	1478231876816	L	76
457007	4922068	Let's think out of the box.	Let's think out of the box.	233652539	1478231876856	1478231876928	e	69
457007	4922068	Let's think out of the box.	Let's think out of the box.	233652542	1478231877024	1478231877080	t	84
457007	4922068	Let's think out of the box.	Let's think out of the box.	233652546	1478231877088	1478231877167	'	222
457007	4922068	Let's think out of the box.	Let's think out of the box.	233652550	1478231877192	1478231877272	s	83
457007	4922068	Let's think out of the box.	Let's think out of the box.	233652556	1478231877274	1478231877335	 	32
457007	4922068	Let's think out of the box.	Let's think out of the box.	233652559	1478231877360	1478231877432	t	84
457007	4922068	Let's think out of the box.	Let's think out of the box.	233652562	1478231877480	1478231877568	h	72
457007	4922068	Let's think out of the box.	Let's think out of the box.	233652564	1478231877576	1478231877664	i	73
457007	4922068	Let's think out of the box.	Let's think out of the box.	233652571	1478231877640	1478231877768	n	78
457007	4922068	Let's think out of the box.	Let's think out of the box.	233652573	1478231877720	1478231877800	k	75
457007	4922068	Let's think out of the box.	Let's think out of the box.	233652575	1478231877824	1478231877904	 	32
457007	4922068	Let's think out of the box.	Let's think out of the box.	233652577	1478231877912	1478231878007	o	79
457007	4922068	Let's think out of the box.	Let's think out of the box.	233652578	1478231877976	1478231878058	u	85
457007	4922068	Let's think out of the box.	Let's think out of the box.	233652592	1478231878032	1478231878119	t	84
457007	4922068	Let's think out of the box.	Let's think out of the box.	233652595	1478231878104	1478231878175	 	32
457007	4922068	Let's think out of the box.	Let's think out of the box.	233652599	1478231878200	1478231878272	o	79
457007	4922068	Let's think out of the box.	Let's think out of the box.	233652602	1478231878280	1478231878368	f	70
457007	4922068	Let's think out of the box.	Let's think out of the box.	233652605	1478231878336	1478231878415	 	32
457007	4922068	Let's think out of the box.	Let's think out of the box.	233652609	1478231878464	1478231878528	t	84
457007	4922068	Let's think out of the box.	Let's think out of the box.	233652622	1478231878560	1478231878624	h	72
457007	4922068	Let's think out of the box.	Let's think out of the box.	233652624	1478231878632	1478231878720	e	69
457007	4922068	Let's think out of the box.	Let's think out of the box.	233652627	1478231878704	1478231878800	 	32
457007	4922068	Let's think out of the box.	Let's think out of the box.	233652630	1478231878856	1478231878936	b	66
457007	4922068	Let's think out of the box.	Let's think out of the box.	233652632	1478231878944	1478231879039	o	79
457007	4922068	Let's think out of the box.	Let's think out of the box.	233652643	1478231879072	1478231879176	x	88
457007	4922068	Let's think out of the box.	Let's think out of the box.	233652648	1478231879248	1478231879359	.	190
457007	4922073	The film will be shown for the first time.	The film will be shown for the first time.	233652870	1478231881488	1478231881967	SHIFT	16
457007	4922073	The film will be shown for the first time.	The film will be shown for the first time.	233652874	1478231882632	1478231882783	SHIFT	16
457007	4922073	The film will be shown for the first time.	The film will be shown for the first time.	233652880	1478231882736	1478231882815	T	84
457007	4922073	The film will be shown for the first time.	The film will be shown for the first time.	233652883	1478231882864	1478231882926	h	72
457007	4922073	The film will be shown for the first time.	The film will be shown for the first time.	233652886	1478231882920	1478231883014	e	69
457007	4922073	The film will be shown for the first time.	The film will be shown for the first time.	233652890	1478231883008	1478231883112	 	32
457007	4922073	The film will be shown for the first time.	The film will be shown for the first time.	233652893	1478231883184	1478231883264	f	70
457007	4922073	The film will be shown for the first time.	The film will be shown for the first time.	233652911	1478231883271	1478231883352	i	73
457007	4922073	The film will be shown for the first time.	The film will be shown for the first time.	233652917	1478231883425	1478231883528	l	76
457007	4922073	The film will be shown for the first time.	The film will be shown for the first time.	233652922	1478231883528	1478231883608	m	77
457007	4922073	The film will be shown for the first time.	The film will be shown for the first time.	233652926	1478231883640	1478231883728	 	32
457007	4922073	The film will be shown for the first time.	The film will be shown for the first time.	233652930	1478231883992	1478231884071	w	87
457007	4922073	The film will be shown for the first time.	The film will be shown for the first time.	233652945	1478231884064	1478231884128	i	73
457007	4922073	The film will be shown for the first time.	The film will be shown for the first time.	233652949	1478231884208	1478231884256	l	76
457007	4922073	The film will be shown for the first time.	The film will be shown for the first time.	233652951	1478231884296	1478231884368	l	76
457007	4922073	The film will be shown for the first time.	The film will be shown for the first time.	233652953	1478231884400	1478231884480	 	32
457007	4922073	The film will be shown for the first time.	The film will be shown for the first time.	233652955	1478231884504	1478231884575	b	66
457007	4922073	The film will be shown for the first time.	The film will be shown for the first time.	233652957	1478231884584	1478231884655	e	69
457007	4922073	The film will be shown for the first time.	The film will be shown for the first time.	233652968	1478231884624	1478231884712	 	32
457007	4922073	The film will be shown for the first time.	The film will be shown for the first time.	233652971	1478231884736	1478231884807	s	83
457007	4922073	The film will be shown for the first time.	The film will be shown for the first time.	233652973	1478231884815	1478231884856	h	72
457007	4922073	The film will be shown for the first time.	The film will be shown for the first time.	233652975	1478231884944	1478231884998	o	79
457007	4922073	The film will be shown for the first time.	The film will be shown for the first time.	233652976	1478231884984	1478231885072	w	87
457007	4922073	The film will be shown for the first time.	The film will be shown for the first time.	233652977	1478231885120	1478231885176	n	78
457007	4922073	The film will be shown for the first time.	The film will be shown for the first time.	233652978	1478231885191	1478231885247	 	32
457007	4922073	The film will be shown for the first time.	The film will be shown for the first time.	233652979	1478231885264	1478231885352	f	70
457007	4922073	The film will be shown for the first time.	The film will be shown for the first time.	233652980	1478231885376	1478231885432	o	79
457007	4922073	The film will be shown for the first time.	The film will be shown for the first time.	233652981	1478231885456	1478231885544	r	82
457007	4922073	The film will be shown for the first time.	The film will be shown for the first time.	233652982	1478231885552	1478231885607	 	32
457007	4922073	The film will be shown for the first time.	The film will be shown for the first time.	233652995	1478231885664	1478231885720	t	84
457007	4922073	The film will be shown for the first time.	The film will be shown for the first time.	233652997	1478231885760	1478231885816	h	72
457007	4922073	The film will be shown for the first time.	The film will be shown for the first time.	233652998	1478231885840	1478231885918	e	69
457007	4922073	The film will be shown for the first time.	The film will be shown for the first time.	233652999	1478231885904	1478231885985	 	32
457007	4922073	The film will be shown for the first time.	The film will be shown for the first time.	233653000	1478231886064	1478231886128	f	70
457007	4922073	The film will be shown for the first time.	The film will be shown for the first time.	233653001	1478231886168	1478231886238	i	73
457007	4922073	The film will be shown for the first time.	The film will be shown for the first time.	233653002	1478231886232	1478231886319	r	82
457007	4922073	The film will be shown for the first time.	The film will be shown for the first time.	233653003	1478231886312	1478231886399	s	83
457007	4922073	The film will be shown for the first time.	The film will be shown for the first time.	233653004	1478231886440	1478231886544	t	84
457007	4922073	The film will be shown for the first time.	The film will be shown for the first time.	233653005	1478231886545	1478231886624	 	32
457007	4922073	The film will be shown for the first time.	The film will be shown for the first time.	233653013	1478231886630	1478231886703	t	84
457007	4922073	The film will be shown for the first time.	The film will be shown for the first time.	233653014	1478231886736	1478231886822	i	73
457007	4922073	The film will be shown for the first time.	The film will be shown for the first time.	233653016	1478231886818	1478231886888	m	77
457007	4922073	The film will be shown for the first time.	The film will be shown for the first time.	233653018	1478231886920	1478231886999	e	69
457007	4922073	The film will be shown for the first time.	The film will be shown for the first time.	233653020	1478231887040	1478231887128	.	190
457007	4922084	I am all about Win-Win here.	I am all about Win-Win here.	233653154	1478231889895	1478231890023	SHIFT	16
457007	4922084	I am all about Win-Win here.	I am all about Win-Win here.	233653159	1478231889959	1478231890040	I	73
457007	4922084	I am all about Win-Win here.	I am all about Win-Win here.	233653164	1478231890088	1478231890168	 	32
457007	4922084	I am all about Win-Win here.	I am all about Win-Win here.	233653169	1478231890184	1478231890272	a	65
457007	4922084	I am all about Win-Win here.	I am all about Win-Win here.	233653173	1478231890296	1478231890359	m	77
457007	4922084	I am all about Win-Win here.	I am all about Win-Win here.	233653177	1478231890408	1478231890479	 	32
457007	4922084	I am all about Win-Win here.	I am all about Win-Win here.	233653189	1478231890520	1478231890599	a	65
457007	4922084	I am all about Win-Win here.	I am all about Win-Win here.	233653193	1478231890632	1478231890679	l	76
457007	4922084	I am all about Win-Win here.	I am all about Win-Win here.	233653198	1478231890744	1478231890823	l	76
457007	4922084	I am all about Win-Win here.	I am all about Win-Win here.	233653203	1478231890832	1478231890911	 	32
457007	4922084	I am all about Win-Win here.	I am all about Win-Win here.	233653207	1478231890920	1478231890998	a	65
457007	4922084	I am all about Win-Win here.	I am all about Win-Win here.	233653225	1478231891072	1478231891159	b	66
457007	4922084	I am all about Win-Win here.	I am all about Win-Win here.	233653228	1478231891160	1478231891239	o	79
457007	4922084	I am all about Win-Win here.	I am all about Win-Win here.	233653231	1478231891216	1478231891287	u	85
457007	4922084	I am all about Win-Win here.	I am all about Win-Win here.	233653234	1478231891247	1478231891327	t	84
457007	4922084	I am all about Win-Win here.	I am all about Win-Win here.	233653235	1478231891344	1478231891423	 	32
457007	4922084	I am all about Win-Win here.	I am all about Win-Win here.	233653286	1478231891438	1478231891567	SHIFT	16
457007	4922084	I am all about Win-Win here.	I am all about Win-Win here.	233653288	1478231891480	1478231891568	W	87
457007	4922084	I am all about Win-Win here.	I am all about Win-Win here.	233653291	1478231891616	1478231891719	i	73
457007	4922084	I am all about Win-Win here.	I am all about Win-Win here.	233653293	1478231891704	1478231891783	n	78
457007	4922084	I am all about Win-Win here.	I am all about Win-Win here.	233653296	1478231891896	1478231891983	-	189
457007	4922084	I am all about Win-Win here.	I am all about Win-Win here.	233653301	1478231892223	1478231892287	BKSP	8
457007	4922084	I am all about Win-Win here.	I am all about Win-Win here.	233653305	1478231892600	1478231892687	-	189
457007	4922084	I am all about Win-Win here.	I am all about Win-Win here.	233653335	1478231893023	1478231893175	SHIFT	16
457007	4922084	I am all about Win-Win here.	I am all about Win-Win here.	233653334	1478231893096	1478231893168	W	87
457007	4922084	I am all about Win-Win here.	I am all about Win-Win here.	233653337	1478231893248	1478231893343	i	73
457007	4922084	I am all about Win-Win here.	I am all about Win-Win here.	233653340	1478231893320	1478231893415	n	78
457007	4922084	I am all about Win-Win here.	I am all about Win-Win here.	233653344	1478231893431	1478231893495	 	32
457007	4922084	I am all about Win-Win here.	I am all about Win-Win here.	233653347	1478231893552	1478231893630	h	72
457007	4922084	I am all about Win-Win here.	I am all about Win-Win here.	233653361	1478231893624	1478231893702	e	69
457007	4922084	I am all about Win-Win here.	I am all about Win-Win here.	233653364	1478231893784	1478231893848	r	82
457007	4922084	I am all about Win-Win here.	I am all about Win-Win here.	233653369	1478231893904	1478231893999	e	69
457007	4922090	Met with partners in San Francisco.	Met with partners in San Francisco.	233653678	1478231893984	1478231901039	.	190
457007	4922090	Met with partners in San Francisco.	Met with partners in San Francisco.	233653488	1478231896687	1478231897015	SHIFT	16
457007	4922090	Met with partners in San Francisco.	Met with partners in San Francisco.	233653491	1478231896962	1478231897023	M	77
457007	4922090	Met with partners in San Francisco.	Met with partners in San Francisco.	233653493	1478231897128	1478231897199	e	69
457007	4922090	Met with partners in San Francisco.	Met with partners in San Francisco.	233653496	1478231897288	1478231897352	t	84
457007	4922090	Met with partners in San Francisco.	Met with partners in San Francisco.	233653499	1478231897360	1478231897431	 	32
457007	4922090	Met with partners in San Francisco.	Met with partners in San Francisco.	233653502	1478231897448	1478231897519	w	87
457007	4922090	Met with partners in San Francisco.	Met with partners in San Francisco.	233653506	1478231897552	1478231897615	i	73
457007	4922090	Met with partners in San Francisco.	Met with partners in San Francisco.	233653507	1478231897624	1478231897679	t	84
457007	4922090	Met with partners in San Francisco.	Met with partners in San Francisco.	233653508	1478231897720	1478231897783	h	72
457007	4922090	Met with partners in San Francisco.	Met with partners in San Francisco.	233653509	1478231897792	1478231897863	 	32
457007	4922090	Met with partners in San Francisco.	Met with partners in San Francisco.	233653510	1478231897904	1478231897975	p	80
457007	4922090	Met with partners in San Francisco.	Met with partners in San Francisco.	233653549	1478231897960	1478231898007	a	65
457007	4922090	Met with partners in San Francisco.	Met with partners in San Francisco.	233653550	1478231898072	1478231898151	r	82
457007	4922090	Met with partners in San Francisco.	Met with partners in San Francisco.	233653551	1478231898246	1478231898335	t	84
457007	4922090	Met with partners in San Francisco.	Met with partners in San Francisco.	233653552	1478231898384	1478231898463	n	78
457007	4922090	Met with partners in San Francisco.	Met with partners in San Francisco.	233653553	1478231898472	1478231898535	e	69
457007	4922090	Met with partners in San Francisco.	Met with partners in San Francisco.	233653554	1478231898616	1478231898679	r	82
457007	4922090	Met with partners in San Francisco.	Met with partners in San Francisco.	233653566	1478231898728	1478231898815	s	83
457007	4922090	Met with partners in San Francisco.	Met with partners in San Francisco.	233653567	1478231898824	1478231898919	 	32
457007	4922090	Met with partners in San Francisco.	Met with partners in San Francisco.	233653569	1478231898960	1478231899055	i	73
457007	4922090	Met with partners in San Francisco.	Met with partners in San Francisco.	233653571	1478231899023	1478231899121	n	78
457007	4922090	Met with partners in San Francisco.	Met with partners in San Francisco.	233653592	1478231899104	1478231899175	 	32
457007	4922090	Met with partners in San Francisco.	Met with partners in San Francisco.	233653594	1478231899223	1478231899327	SHIFT	16
457007	4922090	Met with partners in San Francisco.	Met with partners in San Francisco.	233653598	1478231899280	1478231899360	S	83
457007	4922090	Met with partners in San Francisco.	Met with partners in San Francisco.	233653603	1478231899423	1478231899495	a	65
457007	4922090	Met with partners in San Francisco.	Met with partners in San Francisco.	233653607	1478231899544	1478231899607	n	78
457007	4922090	Met with partners in San Francisco.	Met with partners in San Francisco.	233653611	1478231899608	1478231899679	 	32
457007	4922090	Met with partners in San Francisco.	Met with partners in San Francisco.	233653619	1478231899703	1478231899831	SHIFT	16
457007	4922090	Met with partners in San Francisco.	Met with partners in San Francisco.	233653634	1478231899784	1478231899855	F	70
457007	4922090	Met with partners in San Francisco.	Met with partners in San Francisco.	233653636	1478231899920	1478231899983	r	82
457007	4922090	Met with partners in San Francisco.	Met with partners in San Francisco.	233653637	1478231900048	1478231900127	a	65
457007	4922090	Met with partners in San Francisco.	Met with partners in San Francisco.	233653639	1478231900150	1478231900223	n	78
457007	4922090	Met with partners in San Francisco.	Met with partners in San Francisco.	233653644	1478231900232	1478231900311	c	67
457007	4922090	Met with partners in San Francisco.	Met with partners in San Francisco.	233653646	1478231900368	1478231900439	i	73
457007	4922090	Met with partners in San Francisco.	Met with partners in San Francisco.	233653668	1478231900520	1478231900591	s	83
457007	4922090	Met with partners in San Francisco.	Met with partners in San Francisco.	233653670	1478231900664	1478231900751	c	67
457007	4922090	Met with partners in San Francisco.	Met with partners in San Francisco.	233653673	1478231900784	1478231900855	o	79
457007	4922097	Binoche welcomed the movie industry to the French riviera.	Binoche welcomed the movie industry to the French riviera.	233653858	1478231905738	1478231906050	SHIFT	16
457007	4922097	Binoche welcomed the movie industry to the French riviera.	Binoche welcomed the movie industry to the French riviera.	233653860	1478231905995	1478231906074	B	66
457007	4922097	Binoche welcomed the movie industry to the French riviera.	Binoche welcomed the movie industry to the French riviera.	233653862	1478231906083	1478231906178	i	73
457007	4922097	Binoche welcomed the movie industry to the French riviera.	Binoche welcomed the movie industry to the French riviera.	233653864	1478231906211	1478231906322	n	78
457007	4922097	Binoche welcomed the movie industry to the French riviera.	Binoche welcomed the movie industry to the French riviera.	233653867	1478231906315	1478231906402	o	79
457007	4922097	Binoche welcomed the movie industry to the French riviera.	Binoche welcomed the movie industry to the French riviera.	233653871	1478231906443	1478231906522	c	67
457007	4922097	Binoche welcomed the movie industry to the French riviera.	Binoche welcomed the movie industry to the French riviera.	233653900	1478231906555	1478231906626	h	72
457007	4922097	Binoche welcomed the movie industry to the French riviera.	Binoche welcomed the movie industry to the French riviera.	233653901	1478231906683	1478231906786	e	69
457007	4922097	Binoche welcomed the movie industry to the French riviera.	Binoche welcomed the movie industry to the French riviera.	233653903	1478231906859	1478231906946	 	32
457007	4922097	Binoche welcomed the movie industry to the French riviera.	Binoche welcomed the movie industry to the French riviera.	233653906	1478231907132	1478231907202	w	87
457007	4922097	Binoche welcomed the movie industry to the French riviera.	Binoche welcomed the movie industry to the French riviera.	233653909	1478231907283	1478231907330	e	69
457007	4922097	Binoche welcomed the movie industry to the French riviera.	Binoche welcomed the movie industry to the French riviera.	233653916	1478231907380	1478231907442	l	76
457007	4922097	Binoche welcomed the movie industry to the French riviera.	Binoche welcomed the movie industry to the French riviera.	233653917	1478231907459	1478231907530	c	67
457007	4922097	Binoche welcomed the movie industry to the French riviera.	Binoche welcomed the movie industry to the French riviera.	233653918	1478231907571	1478231907650	o	79
457007	4922097	Binoche welcomed the movie industry to the French riviera.	Binoche welcomed the movie industry to the French riviera.	233653920	1478231907627	1478231907713	m	77
457007	4922097	Binoche welcomed the movie industry to the French riviera.	Binoche welcomed the movie industry to the French riviera.	233653943	1478231907675	1478231907730	e	69
457007	4922097	Binoche welcomed the movie industry to the French riviera.	Binoche welcomed the movie industry to the French riviera.	233653950	1478231907803	1478231907899	d	68
457007	4922097	Binoche welcomed the movie industry to the French riviera.	Binoche welcomed the movie industry to the French riviera.	233653957	1478231907875	1478231907954	 	32
457007	4922097	Binoche welcomed the movie industry to the French riviera.	Binoche welcomed the movie industry to the French riviera.	233653964	1478231907995	1478231908058	t	84
457007	4922097	Binoche welcomed the movie industry to the French riviera.	Binoche welcomed the movie industry to the French riviera.	233653966	1478231908083	1478231908138	h	72
457007	4922097	Binoche welcomed the movie industry to the French riviera.	Binoche welcomed the movie industry to the French riviera.	233653969	1478231908146	1478231908209	e	69
457007	4922097	Binoche welcomed the movie industry to the French riviera.	Binoche welcomed the movie industry to the French riviera.	233653984	1478231908195	1478231908281	 	32
457007	4922097	Binoche welcomed the movie industry to the French riviera.	Binoche welcomed the movie industry to the French riviera.	233653988	1478231908299	1478231908379	m	77
457007	4922097	Binoche welcomed the movie industry to the French riviera.	Binoche welcomed the movie industry to the French riviera.	233653991	1478231908355	1478231908426	o	79
457007	4922097	Binoche welcomed the movie industry to the French riviera.	Binoche welcomed the movie industry to the French riviera.	233653994	1478231908443	1478231908514	v	86
457007	4922097	Binoche welcomed the movie industry to the French riviera.	Binoche welcomed the movie industry to the French riviera.	233653998	1478231908539	1478231908610	i	73
457007	4922097	Binoche welcomed the movie industry to the French riviera.	Binoche welcomed the movie industry to the French riviera.	233654002	1478231908627	1478231908714	e	69
457007	4922097	Binoche welcomed the movie industry to the French riviera.	Binoche welcomed the movie industry to the French riviera.	233654014	1478231908690	1478231908778	 	32
457007	4922097	Binoche welcomed the movie industry to the French riviera.	Binoche welcomed the movie industry to the French riviera.	233654016	1478231908819	1478231908914	i	73
457007	4922097	Binoche welcomed the movie industry to the French riviera.	Binoche welcomed the movie industry to the French riviera.	233654022	1478231908891	1478231908978	n	78
457007	4922097	Binoche welcomed the movie industry to the French riviera.	Binoche welcomed the movie industry to the French riviera.	233654025	1478231908995	1478231909074	d	68
457007	4922097	Binoche welcomed the movie industry to the French riviera.	Binoche welcomed the movie industry to the French riviera.	233654030	1478231909131	1478231909213	u	85
457007	4922097	Binoche welcomed the movie industry to the French riviera.	Binoche welcomed the movie industry to the French riviera.	233654047	1478231909211	1478231909274	s	83
457007	4922097	Binoche welcomed the movie industry to the French riviera.	Binoche welcomed the movie industry to the French riviera.	233654048	1478231909355	1478231909417	t	84
457007	4922097	Binoche welcomed the movie industry to the French riviera.	Binoche welcomed the movie industry to the French riviera.	233654050	1478231909489	1478231909562	r	82
457007	4922097	Binoche welcomed the movie industry to the French riviera.	Binoche welcomed the movie industry to the French riviera.	233654055	1478231909619	1478231909690	y	89
457007	4922097	Binoche welcomed the movie industry to the French riviera.	Binoche welcomed the movie industry to the French riviera.	233654058	1478231909707	1478231909786	 	32
457007	4922097	Binoche welcomed the movie industry to the French riviera.	Binoche welcomed the movie industry to the French riviera.	233654060	1478231909827	1478231909890	t	84
457007	4922097	Binoche welcomed the movie industry to the French riviera.	Binoche welcomed the movie industry to the French riviera.	233654068	1478231909915	1478231909978	o	79
457007	4922097	Binoche welcomed the movie industry to the French riviera.	Binoche welcomed the movie industry to the French riviera.	233654072	1478231910019	1478231910066	 	32
457007	4922097	Binoche welcomed the movie industry to the French riviera.	Binoche welcomed the movie industry to the French riviera.	233654076	1478231910115	1478231910186	t	84
457007	4922097	Binoche welcomed the movie industry to the French riviera.	Binoche welcomed the movie industry to the French riviera.	233654080	1478231910227	1478231910285	h	72
457007	4922097	Binoche welcomed the movie industry to the French riviera.	Binoche welcomed the movie industry to the French riviera.	233654102	1478231910283	1478231910353	e	69
457007	4922097	Binoche welcomed the movie industry to the French riviera.	Binoche welcomed the movie industry to the French riviera.	233654104	1478231910346	1478231910426	 	32
457007	4922097	Binoche welcomed the movie industry to the French riviera.	Binoche welcomed the movie industry to the French riviera.	233654107	1478231910434	1478231910570	SHIFT	16
457007	4922097	Binoche welcomed the movie industry to the French riviera.	Binoche welcomed the movie industry to the French riviera.	233654110	1478231910539	1478231910602	F	70
457007	4922097	Binoche welcomed the movie industry to the French riviera.	Binoche welcomed the movie industry to the French riviera.	233654113	1478231910659	1478231910730	r	82
457007	4922097	Binoche welcomed the movie industry to the French riviera.	Binoche welcomed the movie industry to the French riviera.	233654115	1478231910803	1478231910874	e	69
457007	4922097	Binoche welcomed the movie industry to the French riviera.	Binoche welcomed the movie industry to the French riviera.	233654118	1478231910907	1478231910970	n	78
457007	4922097	Binoche welcomed the movie industry to the French riviera.	Binoche welcomed the movie industry to the French riviera.	233654128	1478231910986	1478231911058	c	67
457007	4922097	Binoche welcomed the movie industry to the French riviera.	Binoche welcomed the movie industry to the French riviera.	233654129	1478231911107	1478231911185	h	72
457007	4922097	Binoche welcomed the movie industry to the French riviera.	Binoche welcomed the movie industry to the French riviera.	233654130	1478231911171	1478231911242	 	32
457007	4922097	Binoche welcomed the movie industry to the French riviera.	Binoche welcomed the movie industry to the French riviera.	233654132	1478231911395	1478231911466	r	82
457007	4922097	Binoche welcomed the movie industry to the French riviera.	Binoche welcomed the movie industry to the French riviera.	233654133	1478231911523	1478231911609	i	73
457007	4922097	Binoche welcomed the movie industry to the French riviera.	Binoche welcomed the movie industry to the French riviera.	233654147	1478231911603	1478231911682	v	86
457007	4922097	Binoche welcomed the movie industry to the French riviera.	Binoche welcomed the movie industry to the French riviera.	233654149	1478231911747	1478231911826	i	73
457007	4922097	Binoche welcomed the movie industry to the French riviera.	Binoche welcomed the movie industry to the French riviera.	233654150	1478231911899	1478231911978	e	69
457007	4922097	Binoche welcomed the movie industry to the French riviera.	Binoche welcomed the movie industry to the French riviera.	233654152	1478231912043	1478231912114	r	82
457007	4922097	Binoche welcomed the movie industry to the French riviera.	Binoche welcomed the movie industry to the French riviera.	233654153	1478231912171	1478231912242	a	65
457007	4922109	Seems unusual to me.	Seems unusual to me.	233654317	1478231915938	1478231916010	S	16
457007	4922109	Seems unusual to me.	Seems unusual to me.	233654321	1478231916123	1478231916178	e	69
457007	4922109	Seems unusual to me.	Seems unusual to me.	233654326	1478231916259	1478231916330	e	69
457007	4922109	Seems unusual to me.	Seems unusual to me.	233654329	1478231916363	1478231916450	m	77
457007	4922109	Seems unusual to me.	Seems unusual to me.	233654331	1478231916467	1478231916554	s	83
457007	4922109	Seems unusual to me.	Seems unusual to me.	233654354	1478231916561	1478231916642	 	32
457007	4922109	Seems unusual to me.	Seems unusual to me.	233654355	1478231916707	1478231916802	u	85
457007	4922109	Seems unusual to me.	Seems unusual to me.	233654356	1478231916779	1478231916882	n	78
457007	4922109	Seems unusual to me.	Seems unusual to me.	233654358	1478231916939	1478231917034	u	85
457007	4922109	Seems unusual to me.	Seems unusual to me.	233654361	1478231917364	1478231917434	s	83
457007	4922109	Seems unusual to me.	Seems unusual to me.	233654376	1478231917467	1478231917530	u	85
457007	4922109	Seems unusual to me.	Seems unusual to me.	233654378	1478231917555	1478231917626	a	65
457007	4922109	Seems unusual to me.	Seems unusual to me.	233654380	1478231917651	1478231917722	l	76
457007	4922109	Seems unusual to me.	Seems unusual to me.	233654382	1478231917731	1478231917810	 	32
457007	4922109	Seems unusual to me.	Seems unusual to me.	233654385	1478231917931	1478231918002	t	84
457007	4922109	Seems unusual to me.	Seems unusual to me.	233654401	1478231918035	1478231918106	o	79
457007	4922109	Seems unusual to me.	Seems unusual to me.	233654404	1478231918130	1478231918202	 	32
457007	4922109	Seems unusual to me.	Seems unusual to me.	233654408	1478231918234	1478231918306	m	77
457007	4922109	Seems unusual to me.	Seems unusual to me.	233654412	1478231918323	1478231918394	e	69
457007	4922117	See what concerts we have for you in your city.	See what concerts we have for you in your city.	233654625	1478231923041	1478231923129	S	16
457007	4922117	See what concerts we have for you in your city.	See what concerts we have for you in your city.	233654629	1478231923258	1478231923321	e	69
457007	4922117	See what concerts we have for you in your city.	See what concerts we have for you in your city.	233654633	1478231923409	1478231923473	e	69
457007	4922117	See what concerts we have for you in your city.	See what concerts we have for you in your city.	233654636	1478231923497	1478231923585	 	32
457007	4922117	See what concerts we have for you in your city.	See what concerts we have for you in your city.	233654641	1478231923594	1478231923657	w	87
457007	4922117	See what concerts we have for you in your city.	See what concerts we have for you in your city.	233654657	1478231923714	1478231923794	h	72
457007	4922117	See what concerts we have for you in your city.	See what concerts we have for you in your city.	233654662	1478231923770	1478231923833	a	65
457007	4922117	See what concerts we have for you in your city.	See what concerts we have for you in your city.	233654666	1478231923913	1478231923977	t	84
457007	4922117	See what concerts we have for you in your city.	See what concerts we have for you in your city.	233654670	1478231924009	1478231924073	 	32
457007	4922117	See what concerts we have for you in your city.	See what concerts we have for you in your city.	233654672	1478231924114	1478231924184	c	67
457007	4922117	See what concerts we have for you in your city.	See what concerts we have for you in your city.	233654686	1478231924177	1478231924273	o	79
457007	4922117	See what concerts we have for you in your city.	See what concerts we have for you in your city.	233654688	1478231924250	1478231924336	n	78
457007	4922117	See what concerts we have for you in your city.	See what concerts we have for you in your city.	233654694	1478231924330	1478231924385	c	67
457007	4922117	See what concerts we have for you in your city.	See what concerts we have for you in your city.	233654699	1478231924418	1478231924505	e	69
457007	4922117	See what concerts we have for you in your city.	See what concerts we have for you in your city.	233654703	1478231924570	1478231924641	r	82
457007	4922117	See what concerts we have for you in your city.	See what concerts we have for you in your city.	233654709	1478231924730	1478231924792	t	84
457007	4922117	See what concerts we have for you in your city.	See what concerts we have for you in your city.	233654732	1478231924842	1478231924937	s	83
457007	4922117	See what concerts we have for you in your city.	See what concerts we have for you in your city.	233654737	1478231925123	1478231925209	 	32
457007	4922117	See what concerts we have for you in your city.	See what concerts we have for you in your city.	233654740	1478231925482	1478231925592	w	87
457007	4922117	See what concerts we have for you in your city.	See what concerts we have for you in your city.	233654742	1478231925585	1478231925688	e	69
457007	4922117	See what concerts we have for you in your city.	See what concerts we have for you in your city.	233654759	1478231925674	1478231925761	 	32
457007	4922117	See what concerts we have for you in your city.	See what concerts we have for you in your city.	233654762	1478231925802	1478231925865	h	72
457007	4922117	See what concerts we have for you in your city.	See what concerts we have for you in your city.	233654767	1478231925858	1478231925921	a	65
457007	4922117	See what concerts we have for you in your city.	See what concerts we have for you in your city.	233654770	1478231925946	1478231926056	v	86
457007	4922117	See what concerts we have for you in your city.	See what concerts we have for you in your city.	233654773	1478231926042	1478231926145	e	69
457007	4922117	See what concerts we have for you in your city.	See what concerts we have for you in your city.	233654795	1478231926114	1478231926201	 	32
457007	4922117	See what concerts we have for you in your city.	See what concerts we have for you in your city.	233654799	1478231926242	1478231926321	f	70
457007	4922117	See what concerts we have for you in your city.	See what concerts we have for you in your city.	233654802	1478231926346	1478231926417	o	79
457007	4922117	See what concerts we have for you in your city.	See what concerts we have for you in your city.	233654805	1478231926418	1478231926513	r	82
457007	4922117	See what concerts we have for you in your city.	See what concerts we have for you in your city.	233654808	1478231926474	1478231926561	 	32
457007	4922117	See what concerts we have for you in your city.	See what concerts we have for you in your city.	233654811	1478231926626	1478231926689	y	89
457007	4922117	See what concerts we have for you in your city.	See what concerts we have for you in your city.	233654816	1478231926722	1478231926809	o	79
457007	4922117	See what concerts we have for you in your city.	See what concerts we have for you in your city.	233654818	1478231926770	1478231926857	u	85
457007	4922117	See what concerts we have for you in your city.	See what concerts we have for you in your city.	233654822	1478231926874	1478231926945	 	32
457007	4922117	See what concerts we have for you in your city.	See what concerts we have for you in your city.	233654827	1478231926986	1478231927081	i	73
457007	4922117	See what concerts we have for you in your city.	See what concerts we have for you in your city.	233654853	1478231927066	1478231927153	n	78
457007	4922117	See what concerts we have for you in your city.	See what concerts we have for you in your city.	233654854	1478231927146	1478231927210	 	32
457007	4922117	See what concerts we have for you in your city.	See what concerts we have for you in your city.	233654855	1478231927281	1478231927345	y	89
457007	4922117	See what concerts we have for you in your city.	See what concerts we have for you in your city.	233654856	1478231927379	1478231927465	o	79
457007	4922117	See what concerts we have for you in your city.	See what concerts we have for you in your city.	233654859	1478231927425	1478231927521	u	85
457007	4922117	See what concerts we have for you in your city.	See what concerts we have for you in your city.	233654880	1478231927490	1478231927576	r	82
457007	4922117	See what concerts we have for you in your city.	See what concerts we have for you in your city.	233654883	1478231927570	1478231927665	 	32
457007	4922117	See what concerts we have for you in your city.	See what concerts we have for you in your city.	233654885	1478231927706	1478231927801	c	67
457007	4922117	See what concerts we have for you in your city.	See what concerts we have for you in your city.	233654886	1478231927826	1478231927905	i	73
457007	4922117	See what concerts we have for you in your city.	See what concerts we have for you in your city.	233654888	1478231927937	1478231928017	t	84
457007	4922117	See what concerts we have for you in your city.	See what concerts we have for you in your city.	233654890	1478231928082	1478231928193	y	89
457007	4922125	Call me to give me a heads up.	Call me to give a heads up.	233654993	1478231930361	1478231930552	SHIFT	16
457007	4922125	Call me to give me a heads up.	Call me to give a heads up.	233654995	1478231930522	1478231930617	C	67
457007	4922125	Call me to give me a heads up.	Call me to give a heads up.	233655003	1478231930666	1478231930745	a	65
457007	4922125	Call me to give me a heads up.	Call me to give a heads up.	233655004	1478231930786	1478231930841	l	76
457007	4922125	Call me to give me a heads up.	Call me to give a heads up.	233655006	1478231930913	1478231930969	l	76
457007	4922125	Call me to give me a heads up.	Call me to give a heads up.	233655008	1478231930978	1478231931049	 	32
457007	4922125	Call me to give me a heads up.	Call me to give a heads up.	233655022	1478231931082	1478231931161	m	77
457007	4922125	Call me to give me a heads up.	Call me to give a heads up.	233655026	1478231931170	1478231931257	e	69
457007	4922125	Call me to give me a heads up.	Call me to give a heads up.	233655029	1478231931242	1478231931313	 	32
457007	4922125	Call me to give me a heads up.	Call me to give a heads up.	233655034	1478231931378	1478231931441	t	84
457007	4922125	Call me to give me a heads up.	Call me to give a heads up.	233655038	1478231931482	1478231931552	o	79
457007	4922125	Call me to give me a heads up.	Call me to give a heads up.	233655050	1478231931560	1478231931625	 	32
457007	4922125	Call me to give me a heads up.	Call me to give a heads up.	233655057	1478231931666	1478231931745	g	71
457007	4922125	Call me to give me a heads up.	Call me to give a heads up.	233655062	1478231931770	1478231931841	i	73
457007	4922125	Call me to give me a heads up.	Call me to give a heads up.	233655066	1478231931858	1478231931929	v	86
457007	4922125	Call me to give me a heads up.	Call me to give a heads up.	233655069	1478231931946	1478231932040	e	69
457007	4922125	Call me to give me a heads up.	Call me to give a heads up.	233655084	1478231932034	1478231932137	 	32
457007	4922125	Call me to give me a heads up.	Call me to give a heads up.	233655086	1478231932146	1478231932240	a	65
457007	4922125	Call me to give me a heads up.	Call me to give a heads up.	233655088	1478231932234	1478231932329	 	32
457007	4922125	Call me to give me a heads up.	Call me to give a heads up.	233655090	1478231932394	1478231932473	h	72
457007	4922125	Call me to give me a heads up.	Call me to give a heads up.	233655092	1478231932482	1478231932564	e	69
457007	4922125	Call me to give me a heads up.	Call me to give a heads up.	233655122	1478231932562	1478231932673	a	65
457007	4922125	Call me to give me a heads up.	Call me to give a heads up.	233655124	1478231932698	1478231932809	d	68
457007	4922125	Call me to give me a heads up.	Call me to give a heads up.	233655126	1478231932826	1478231932905	s	83
457007	4922125	Call me to give me a heads up.	Call me to give a heads up.	233655127	1478231932938	1478231933028	 	32
457007	4922125	Call me to give me a heads up.	Call me to give a heads up.	233655128	1478231933026	1478231933088	u	85
457007	4922125	Call me to give me a heads up.	Call me to give a heads up.	233655131	1478231933185	1478231933257	p	80
457007	4922136	We're not adversarial in this, but we want to know what's going on.	We're not adversarial in this, but we want to know what's going on.	233655355	1478231937419	1478231937514	W	16
457007	4922136	We're not adversarial in this, but we want to know what's going on.	We're not adversarial in this, but we want to know what's going on.	233655358	1478231937586	1478231937666	e	69
457007	4922136	We're not adversarial in this, but we want to know what's going on.	We're not adversarial in this, but we want to know what's going on.	233655362	1478231937674	1478231937754	'	222
457007	4922136	We're not adversarial in this, but we want to know what's going on.	We're not adversarial in this, but we want to know what's going on.	233655365	1478231937771	1478231937842	r	82
457007	4922136	We're not adversarial in this, but we want to know what's going on.	We're not adversarial in this, but we want to know what's going on.	233655369	1478231937899	1478231937986	e	69
457007	4922136	We're not adversarial in this, but we want to know what's going on.	We're not adversarial in this, but we want to know what's going on.	233655398	1478231937971	1478231938090	 	32
457007	4922136	We're not adversarial in this, but we want to know what's going on.	We're not adversarial in this, but we want to know what's going on.	233655401	1478231938202	1478231938291	n	78
457007	4922136	We're not adversarial in this, but we want to know what's going on.	We're not adversarial in this, but we want to know what's going on.	233655406	1478231938274	1478231938354	o	79
457007	4922136	We're not adversarial in this, but we want to know what's going on.	We're not adversarial in this, but we want to know what's going on.	233655411	1478231938378	1478231938442	t	84
457007	4922136	We're not adversarial in this, but we want to know what's going on.	We're not adversarial in this, but we want to know what's going on.	233655414	1478231938498	1478231938586	 	32
457007	4922136	We're not adversarial in this, but we want to know what's going on.	We're not adversarial in this, but we want to know what's going on.	233655418	1478231938659	1478231938737	a	65
457007	4922136	We're not adversarial in this, but we want to know what's going on.	We're not adversarial in this, but we want to know what's going on.	233655443	1478231938745	1478231938825	d	68
457007	4922136	We're not adversarial in this, but we want to know what's going on.	We're not adversarial in this, but we want to know what's going on.	233655446	1478231938922	1478231938994	v	86
457007	4922136	We're not adversarial in this, but we want to know what's going on.	We're not adversarial in this, but we want to know what's going on.	233655450	1478231939042	1478231939122	e	69
457007	4922136	We're not adversarial in this, but we want to know what's going on.	We're not adversarial in this, but we want to know what's going on.	233655459	1478231939187	1478231939258	r	82
457007	4922136	We're not adversarial in this, but we want to know what's going on.	We're not adversarial in this, but we want to know what's going on.	233655465	1478231939346	1478231939449	s	83
457007	4922136	We're not adversarial in this, but we want to know what's going on.	We're not adversarial in this, but we want to know what's going on.	233655498	1478231939427	1478231939514	a	65
457007	4922136	We're not adversarial in this, but we want to know what's going on.	We're not adversarial in this, but we want to know what's going on.	233655500	1478231939603	1478231939666	r	82
457007	4922136	We're not adversarial in this, but we want to know what's going on.	We're not adversarial in this, but we want to know what's going on.	233655508	1478231939755	1478231939850	i	73
457007	4922136	We're not adversarial in this, but we want to know what's going on.	We're not adversarial in this, but we want to know what's going on.	233655512	1478231939898	1478231939962	a	65
457007	4922136	We're not adversarial in this, but we want to know what's going on.	We're not adversarial in this, but we want to know what's going on.	233655518	1478231939987	1478231940058	l	76
457007	4922136	We're not adversarial in this, but we want to know what's going on.	We're not adversarial in this, but we want to know what's going on.	233655521	1478231940082	1478231940170	 	32
457007	4922136	We're not adversarial in this, but we want to know what's going on.	We're not adversarial in this, but we want to know what's going on.	233655529	1478231940274	1478231940353	i	73
457007	4922136	We're not adversarial in this, but we want to know what's going on.	We're not adversarial in this, but we want to know what's going on.	233655532	1478231940338	1478231940426	n	78
457007	4922136	We're not adversarial in this, but we want to know what's going on.	We're not adversarial in this, but we want to know what's going on.	233655535	1478231940435	1478231940506	 	32
457007	4922136	We're not adversarial in this, but we want to know what's going on.	We're not adversarial in this, but we want to know what's going on.	233655540	1478231940538	1478231940602	t	84
457007	4922136	We're not adversarial in this, but we want to know what's going on.	We're not adversarial in this, but we want to know what's going on.	233655544	1478231940643	1478231940706	h	72
457007	4922136	We're not adversarial in this, but we want to know what's going on.	We're not adversarial in this, but we want to know what's going on.	233655574	1478231940994	1478231941074	i	73
457007	4922136	We're not adversarial in this, but we want to know what's going on.	We're not adversarial in this, but we want to know what's going on.	233655576	1478231941098	1478231941178	s	83
457007	4922136	We're not adversarial in this, but we want to know what's going on.	We're not adversarial in this, but we want to know what's going on.	233655580	1478231941210	1478231941282	,	188
457007	4922136	We're not adversarial in this, but we want to know what's going on.	We're not adversarial in this, but we want to know what's going on.	233655584	1478231941314	1478231941377	 	32
457007	4922136	We're not adversarial in this, but we want to know what's going on.	We're not adversarial in this, but we want to know what's going on.	233655588	1478231941427	1478231941506	b	66
457007	4922136	We're not adversarial in this, but we want to know what's going on.	We're not adversarial in this, but we want to know what's going on.	233655599	1478231941522	1478231941600	u	85
457007	4922136	We're not adversarial in this, but we want to know what's going on.	We're not adversarial in this, but we want to know what's going on.	233655601	1478231941594	1478231941681	t	84
457007	4922136	We're not adversarial in this, but we want to know what's going on.	We're not adversarial in this, but we want to know what's going on.	233655604	1478231941682	1478231941754	 	32
457007	4922136	We're not adversarial in this, but we want to know what's going on.	We're not adversarial in this, but we want to know what's going on.	233655607	1478231941802	1478231941885	w	87
457007	4922136	We're not adversarial in this, but we want to know what's going on.	We're not adversarial in this, but we want to know what's going on.	233655618	1478231941858	1478231941969	e	69
457007	4922136	We're not adversarial in this, but we want to know what's going on.	We're not adversarial in this, but we want to know what's going on.	233655620	1478231941963	1478231942066	 	32
457007	4922136	We're not adversarial in this, but we want to know what's going on.	We're not adversarial in this, but we want to know what's going on.	233655622	1478231942154	1478231942267	w	87
457007	4922136	We're not adversarial in this, but we want to know what's going on.	We're not adversarial in this, but we want to know what's going on.	233655624	1478231942251	1478231942338	a	65
457007	4922136	We're not adversarial in this, but we want to know what's going on.	We're not adversarial in this, but we want to know what's going on.	233655626	1478231942354	1478231942425	n	78
457007	4922136	We're not adversarial in this, but we want to know what's going on.	We're not adversarial in this, but we want to know what's going on.	233655628	1478231942434	1478231942522	t	84
457007	4922136	We're not adversarial in this, but we want to know what's going on.	We're not adversarial in this, but we want to know what's going on.	233655636	1478231942537	1478231942609	 	32
457007	4922136	We're not adversarial in this, but we want to know what's going on.	We're not adversarial in this, but we want to know what's going on.	233655640	1478231942658	1478231942730	t	84
457007	4922136	We're not adversarial in this, but we want to know what's going on.	We're not adversarial in this, but we want to know what's going on.	233655645	1478231942746	1478231942802	o	79
457007	4922136	We're not adversarial in this, but we want to know what's going on.	We're not adversarial in this, but we want to know what's going on.	233655650	1478231942835	1478231942906	 	32
457007	4922136	We're not adversarial in this, but we want to know what's going on.	We're not adversarial in this, but we want to know what's going on.	233655654	1478231942922	1478231942978	k	75
457007	4922136	We're not adversarial in this, but we want to know what's going on.	We're not adversarial in this, but we want to know what's going on.	233655665	1478231942963	1478231943042	n	78
457007	4922136	We're not adversarial in this, but we want to know what's going on.	We're not adversarial in this, but we want to know what's going on.	233655667	1478231943074	1478231943146	o	79
457007	4922136	We're not adversarial in this, but we want to know what's going on.	We're not adversarial in this, but we want to know what's going on.	233655671	1478231943130	1478231943217	w	87
457007	4922136	We're not adversarial in this, but we want to know what's going on.	We're not adversarial in this, but we want to know what's going on.	233655674	1478231943211	1478231943290	 	32
457007	4922136	We're not adversarial in this, but we want to know what's going on.	We're not adversarial in this, but we want to know what's going on.	233655677	1478231943338	1478231943433	w	87
457007	4922136	We're not adversarial in this, but we want to know what's going on.	We're not adversarial in this, but we want to know what's going on.	233655681	1478231943458	1478231943522	h	72
457007	4922136	We're not adversarial in this, but we want to know what's going on.	We're not adversarial in this, but we want to know what's going on.	233655697	1478231943554	1478231943634	a	65
457007	4922136	We're not adversarial in this, but we want to know what's going on.	We're not adversarial in this, but we want to know what's going on.	233655700	1478231943699	1478231943778	t	84
457007	4922136	We're not adversarial in this, but we want to know what's going on.	We're not adversarial in this, but we want to know what's going on.	233655704	1478231943786	1478231943866	'	222
457007	4922136	We're not adversarial in this, but we want to know what's going on.	We're not adversarial in this, but we want to know what's going on.	233655706	1478231943882	1478231943961	s	83
457007	4922136	We're not adversarial in this, but we want to know what's going on.	We're not adversarial in this, but we want to know what's going on.	233655708	1478231943970	1478231944026	 	32
457007	4922136	We're not adversarial in this, but we want to know what's going on.	We're not adversarial in this, but we want to know what's going on.	233655713	1478231944058	1478231944138	g	71
457007	4922136	We're not adversarial in this, but we want to know what's going on.	We're not adversarial in this, but we want to know what's going on.	233655714	1478231944114	1478231944186	o	79
457007	4922136	We're not adversarial in this, but we want to know what's going on.	We're not adversarial in this, but we want to know what's going on.	233655716	1478231944250	1478231944354	i	73
457007	4922136	We're not adversarial in this, but we want to know what's going on.	We're not adversarial in this, but we want to know what's going on.	233655718	1478231944322	1478231944429	n	78
457007	4922136	We're not adversarial in this, but we want to know what's going on.	We're not adversarial in this, but we want to know what's going on.	233655738	1478231944402	1478231944480	g	71
457007	4922136	We're not adversarial in this, but we want to know what's going on.	We're not adversarial in this, but we want to know what's going on.	233655740	1478231944474	1478231944553	 	32
457007	4922136	We're not adversarial in this, but we want to know what's going on.	We're not adversarial in this, but we want to know what's going on.	233655742	1478231944538	1478231944633	o	79
457007	4922136	We're not adversarial in this, but we want to know what's going on.	We're not adversarial in this, but we want to know what's going on.	233655746	1478231944603	1478231944682	n	78
457007	4922146	We are in the process of making a change.	We are in the process of making a change.	233655837	1478231947467	1478231947634	SHIFT	16
457007	4922146	We are in the process of making a change.	We are in the process of making a change.	233655836	1478231947546	1478231947626	W	87
457007	4922146	We are in the process of making a change.	We are in the process of making a change.	233655838	1478231947706	1478231947778	e	69
457007	4922146	We are in the process of making a change.	We are in the process of making a change.	233655840	1478231947779	1478231947869	 	32
457007	4922146	We are in the process of making a change.	We are in the process of making a change.	233655842	1478231947867	1478231947938	a	65
457007	4922146	We are in the process of making a change.	We are in the process of making a change.	233655845	1478231947987	1478231948050	r	82
457007	4922146	We are in the process of making a change.	We are in the process of making a change.	233655858	1478231948123	1478231948193	e	69
457007	4922146	We are in the process of making a change.	We are in the process of making a change.	233655862	1478231948170	1478231948274	 	32
457007	4922146	We are in the process of making a change.	We are in the process of making a change.	233655867	1478231948306	1478231948417	i	73
457007	4922146	We are in the process of making a change.	We are in the process of making a change.	233655870	1478231948370	1478231948474	n	78
457007	4922146	We are in the process of making a change.	We are in the process of making a change.	233655882	1478231948450	1478231948530	 	32
457007	4922146	We are in the process of making a change.	We are in the process of making a change.	233655883	1478231948570	1478231948626	t	84
457007	4922146	We are in the process of making a change.	We are in the process of making a change.	233655885	1478231948650	1478231948714	h	72
457007	4922146	We are in the process of making a change.	We are in the process of making a change.	233655890	1478231948722	1478231948794	e	69
457007	4922146	We are in the process of making a change.	We are in the process of making a change.	233655894	1478231948778	1478231948857	 	32
457007	4922146	We are in the process of making a change.	We are in the process of making a change.	233655898	1478231948866	1478231948930	p	80
457007	4922146	We are in the process of making a change.	We are in the process of making a change.	233655905	1478231948946	1478231949010	r	82
457007	4922146	We are in the process of making a change.	We are in the process of making a change.	233655907	1478231949042	1478231949112	o	79
457007	4922146	We are in the process of making a change.	We are in the process of making a change.	233655911	1478231949106	1478231949202	c	67
457007	4922146	We are in the process of making a change.	We are in the process of making a change.	233655915	1478231949178	1478231949280	e	69
457007	4922146	We are in the process of making a change.	We are in the process of making a change.	233655923	1478231949274	1478231949338	s	83
457007	4922146	We are in the process of making a change.	We are in the process of making a change.	233655924	1478231949410	1478231949490	s	83
457007	4922146	We are in the process of making a change.	We are in the process of making a change.	233655926	1478231949522	1478231949594	 	32
457007	4922146	We are in the process of making a change.	We are in the process of making a change.	233655928	1478231949626	1478231949706	o	79
457007	4922146	We are in the process of making a change.	We are in the process of making a change.	233655930	1478231949730	1478231949816	f	70
457007	4922146	We are in the process of making a change.	We are in the process of making a change.	233655939	1478231949810	1478231949874	 	32
457007	4922146	We are in the process of making a change.	We are in the process of making a change.	233655941	1478231949922	1478231949994	m	77
457007	4922146	We are in the process of making a change.	We are in the process of making a change.	233655943	1478231950002	1478231950066	a	65
457007	4922146	We are in the process of making a change.	We are in the process of making a change.	233655944	1478231950090	1478231950162	k	75
457007	4922146	We are in the process of making a change.	We are in the process of making a change.	233655947	1478231950226	1478231950313	i	73
457007	4922146	We are in the process of making a change.	We are in the process of making a change.	233655961	1478231950298	1478231950378	n	78
457007	4922146	We are in the process of making a change.	We are in the process of making a change.	233655967	1478231950338	1478231950434	g	71
457007	4922146	We are in the process of making a change.	We are in the process of making a change.	233655972	1478231950418	1478231950513	 	32
457007	4922146	We are in the process of making a change.	We are in the process of making a change.	233655977	1478231950530	1478231950616	a	65
457007	4922146	We are in the process of making a change.	We are in the process of making a change.	233655982	1478231950610	1478231950674	 	32
457007	4922146	We are in the process of making a change.	We are in the process of making a change.	233655984	1478231950698	1478231950793	c	67
457007	4922146	We are in the process of making a change.	We are in the process of making a change.	233655989	1478231950826	1478231950890	h	72
457007	4922146	We are in the process of making a change.	We are in the process of making a change.	233655992	1478231950906	1478231950961	a	65
457007	4922146	We are in the process of making a change.	We are in the process of making a change.	233655995	1478231951002	1478231951074	n	78
457007	4922146	We are in the process of making a change.	We are in the process of making a change.	233655999	1478231951114	1478231951186	g	71
457007	4922146	We are in the process of making a change.	We are in the process of making a change.	233656003	1478231951210	1478231951282	e	69
457007	4922153	Through this account cash flows to corporate.	Through this account cash flows to corporate.	233656143	1478231955150	1478231955246	SHIFT	16
457007	4922153	Through this account cash flows to corporate.	Through this account cash flows to corporate.	233656145	1478231955191	1478231955263	T	84
457007	4922153	Through this account cash flows to corporate.	Through this account cash flows to corporate.	233656147	1478231955295	1478231955359	h	72
457007	4922153	Through this account cash flows to corporate.	Through this account cash flows to corporate.	233656151	1478231955407	1478231955462	r	82
457007	4922153	Through this account cash flows to corporate.	Through this account cash flows to corporate.	233656155	1478231955495	1478231955574	o	79
457007	4922153	Through this account cash flows to corporate.	Through this account cash flows to corporate.	233656175	1478231955543	1478231955615	u	85
457007	4922153	Through this account cash flows to corporate.	Through this account cash flows to corporate.	233656181	1478231955655	1478231955695	g	71
457007	4922153	Through this account cash flows to corporate.	Through this account cash flows to corporate.	233656183	1478231956119	1478231956182	h	72
457007	4922153	Through this account cash flows to corporate.	Through this account cash flows to corporate.	233656188	1478231956231	1478231956311	 	32
457007	4922153	Through this account cash flows to corporate.	Through this account cash flows to corporate.	233656192	1478231956455	1478231956526	t	84
457007	4922153	Through this account cash flows to corporate.	Through this account cash flows to corporate.	233656196	1478231956535	1478231956582	h	72
457007	4922153	Through this account cash flows to corporate.	Through this account cash flows to corporate.	233656208	1478231956647	1478231956730	i	73
457007	4922153	Through this account cash flows to corporate.	Through this account cash flows to corporate.	233656209	1478231956711	1478231956790	s	83
457007	4922153	Through this account cash flows to corporate.	Through this account cash flows to corporate.	233656212	1478231956767	1478231956863	 	32
457007	4922153	Through this account cash flows to corporate.	Through this account cash flows to corporate.	233656216	1478231956927	1478231957007	a	65
457007	4922153	Through this account cash flows to corporate.	Through this account cash flows to corporate.	233656219	1478231957055	1478231957134	c	67
457007	4922153	Through this account cash flows to corporate.	Through this account cash flows to corporate.	233656228	1478231957191	1478231957255	c	67
457007	4922153	Through this account cash flows to corporate.	Through this account cash flows to corporate.	233656231	1478231957287	1478231957375	o	79
457007	4922153	Through this account cash flows to corporate.	Through this account cash flows to corporate.	233656235	1478231957327	1478231957430	u	85
457007	4922153	Through this account cash flows to corporate.	Through this account cash flows to corporate.	233656239	1478231957399	1478231957482	n	78
457007	4922153	Through this account cash flows to corporate.	Through this account cash flows to corporate.	233656253	1478231957455	1478231957541	t	84
457007	4922153	Through this account cash flows to corporate.	Through this account cash flows to corporate.	233656256	1478231957537	1478231957647	 	32
457007	4922153	Through this account cash flows to corporate.	Through this account cash flows to corporate.	233656258	1478231957767	1478231957895	c	67
457007	4922153	Through this account cash flows to corporate.	Through this account cash flows to corporate.	233656260	1478231957871	1478231957986	a	65
457007	4922153	Through this account cash flows to corporate.	Through this account cash flows to corporate.	233656262	1478231957959	1478231958039	s	83
457007	4922153	Through this account cash flows to corporate.	Through this account cash flows to corporate.	233656264	1478231958127	1478231958198	h	72
457007	4922153	Through this account cash flows to corporate.	Through this account cash flows to corporate.	233656265	1478231958279	1478231958367	 	32
457007	4922153	Through this account cash flows to corporate.	Through this account cash flows to corporate.	233656266	1478231958447	1478231958503	f	70
457007	4922153	Through this account cash flows to corporate.	Through this account cash flows to corporate.	233656267	1478231958511	1478231958567	l	76
457007	4922153	Through this account cash flows to corporate.	Through this account cash flows to corporate.	233656268	1478231958639	1478231958711	o	79
457007	4922153	Through this account cash flows to corporate.	Through this account cash flows to corporate.	233656284	1478231958671	1478231958743	w	87
457007	4922153	Through this account cash flows to corporate.	Through this account cash flows to corporate.	233656286	1478231958815	1478231958894	s	83
457007	4922153	Through this account cash flows to corporate.	Through this account cash flows to corporate.	233656288	1478231958855	1478231958942	 	32
457007	4922153	Through this account cash flows to corporate.	Through this account cash flows to corporate.	233656290	1478231959007	1478231959071	t	84
457007	4922153	Through this account cash flows to corporate.	Through this account cash flows to corporate.	233656293	1478231959087	1478231959157	o	79
457007	4922153	Through this account cash flows to corporate.	Through this account cash flows to corporate.	233656297	1478231959151	1478231959214	 	32
457007	4922153	Through this account cash flows to corporate.	Through this account cash flows to corporate.	233656299	1478231959263	1478231959351	c	67
457007	4922153	Through this account cash flows to corporate.	Through this account cash flows to corporate.	233656301	1478231959375	1478231959446	o	79
457007	4922153	Through this account cash flows to corporate.	Through this account cash flows to corporate.	233656303	1478231959471	1478231959543	r	82
457007	4922153	Through this account cash flows to corporate.	Through this account cash flows to corporate.	233656307	1478231959615	1478231959710	p	80
457007	4922153	Through this account cash flows to corporate.	Through this account cash flows to corporate.	233656310	1478231959855	1478231959950	o	79
457007	4922153	Through this account cash flows to corporate.	Through this account cash flows to corporate.	233656317	1478231960063	1478231960126	r	82
457007	4922153	Through this account cash flows to corporate.	Through this account cash flows to corporate.	233656319	1478231960167	1478231960247	a	65
457007	4922153	Through this account cash flows to corporate.	Through this account cash flows to corporate.	233656322	1478231960279	1478231960358	t	84
457007	4922153	Through this account cash flows to corporate.	Through this account cash flows to corporate.	233656326	1478231960367	1478231960437	e	69
457007	4922161	No need to send to FL.	No need to send to FL.	233656435	1478231963494	1478231963614	SHIFT	16
457007	4922161	No need to send to FL.	No need to send to FL.	233656438	1478231963551	1478231963631	N	78
457007	4922161	No need to send to FL.	No need to send to FL.	233656440	1478231963719	1478231963774	o	79
457007	4922161	No need to send to FL.	No need to send to FL.	233656445	1478231963807	1478231963886	 	32
457007	4922161	No need to send to FL.	No need to send to FL.	233656448	1478231963912	1478231963982	n	78
457007	4922161	No need to send to FL.	No need to send to FL.	233656452	1478231964023	1478231964078	e	69
457007	4922161	No need to send to FL.	No need to send to FL.	233656478	1478231964143	1478231964190	e	69
457007	4922161	No need to send to FL.	No need to send to FL.	233656479	1478231964279	1478231964358	d	68
457007	4922161	No need to send to FL.	No need to send to FL.	233656480	1478231964375	1478231964446	 	32
457007	4922161	No need to send to FL.	No need to send to FL.	233656481	1478231964527	1478231964590	t	84
457007	4922161	No need to send to FL.	No need to send to FL.	233656483	1478231964631	1478231964702	o	79
457007	4922161	No need to send to FL.	No need to send to FL.	233656505	1478231964718	1478231964790	 	32
457007	4922161	No need to send to FL.	No need to send to FL.	233656509	1478231964831	1478231964919	s	83
457007	4922161	No need to send to FL.	No need to send to FL.	233656512	1478231964895	1478231964991	e	69
457007	4922161	No need to send to FL.	No need to send to FL.	233656516	1478231965031	1478231965118	n	78
457007	4922161	No need to send to FL.	No need to send to FL.	233656519	1478231965151	1478231965254	d	68
457007	4922161	No need to send to FL.	No need to send to FL.	233656532	1478231965257	1478231965342	 	32
457007	4922161	No need to send to FL.	No need to send to FL.	233656534	1478231965399	1478231965462	t	84
457007	4922161	No need to send to FL.	No need to send to FL.	233656537	1478231965495	1478231965557	o	79
457007	4922161	No need to send to FL.	No need to send to FL.	233656542	1478231965551	1478231965622	 	32
457007	4922161	No need to send to FL.	No need to send to FL.	233656553	1478231965630	1478231965894	SHIFT	16
457007	4922161	No need to send to FL.	No need to send to FL.	233656546	1478231965703	1478231965798	F	70
457007	4922161	No need to send to FL.	No need to send to FL.	233656552	1478231965800	1478231965870	L	76
457007	4922169	Lynn checked with Fran and she told her coordinator.	Lynn checked with Fran and she told he coordinator.	233656707	1478231969127	1478231969247	SHIFT	16
457007	4922169	Lynn checked with Fran and she told her coordinator.	Lynn checked with Fran and she told he coordinator.	233656710	1478231969223	1478231969294	L	76
457007	4922169	Lynn checked with Fran and she told her coordinator.	Lynn checked with Fran and she told he coordinator.	233656719	1478231969359	1478231969429	y	89
457007	4922169	Lynn checked with Fran and she told her coordinator.	Lynn checked with Fran and she told he coordinator.	233656723	1478231969470	1478231969534	n	78
457007	4922169	Lynn checked with Fran and she told her coordinator.	Lynn checked with Fran and she told he coordinator.	233656731	1478231969599	1478231969678	n	78
457007	4922169	Lynn checked with Fran and she told her coordinator.	Lynn checked with Fran and she told he coordinator.	233656736	1478231969679	1478231969766	 	32
457007	4922169	Lynn checked with Fran and she told her coordinator.	Lynn checked with Fran and she told he coordinator.	233656768	1478231969847	1478231969934	c	67
457007	4922169	Lynn checked with Fran and she told her coordinator.	Lynn checked with Fran and she told he coordinator.	233656770	1478231969959	1478231970033	h	72
457007	4922169	Lynn checked with Fran and she told her coordinator.	Lynn checked with Fran and she told he coordinator.	233656772	1478231970031	1478231970111	e	69
457007	4922169	Lynn checked with Fran and she told her coordinator.	Lynn checked with Fran and she told he coordinator.	233656774	1478231970110	1478231970198	c	67
457007	4922169	Lynn checked with Fran and she told her coordinator.	Lynn checked with Fran and she told he coordinator.	233656776	1478231970215	1478231970278	k	75
457007	4922169	Lynn checked with Fran and she told her coordinator.	Lynn checked with Fran and she told he coordinator.	233656781	1478231970285	1478231970358	e	69
457007	4922169	Lynn checked with Fran and she told her coordinator.	Lynn checked with Fran and she told he coordinator.	233656783	1478231970423	1478231970509	d	68
457007	4922169	Lynn checked with Fran and she told her coordinator.	Lynn checked with Fran and she told he coordinator.	233656784	1478231970503	1478231970590	 	32
457007	4922169	Lynn checked with Fran and she told her coordinator.	Lynn checked with Fran and she told he coordinator.	233656785	1478231970615	1478231970678	w	87
457007	4922169	Lynn checked with Fran and she told her coordinator.	Lynn checked with Fran and she told he coordinator.	233656788	1478231970719	1478231970790	i	73
457007	4922169	Lynn checked with Fran and she told her coordinator.	Lynn checked with Fran and she told he coordinator.	233656803	1478231970806	1478231970862	t	84
457007	4922169	Lynn checked with Fran and she told her coordinator.	Lynn checked with Fran and she told he coordinator.	233656804	1478231970903	1478231970974	h	72
457007	4922169	Lynn checked with Fran and she told her coordinator.	Lynn checked with Fran and she told he coordinator.	233656805	1478231970983	1478231971047	 	32
457007	4922169	Lynn checked with Fran and she told her coordinator.	Lynn checked with Fran and she told he coordinator.	233656806	1478231971070	1478231971190	SHIFT	16
457007	4922169	Lynn checked with Fran and she told her coordinator.	Lynn checked with Fran and she told he coordinator.	233656807	1478231971135	1478231971229	F	70
457007	4922169	Lynn checked with Fran and she told her coordinator.	Lynn checked with Fran and she told he coordinator.	233656808	1478231971286	1478231971341	r	82
457007	4922169	Lynn checked with Fran and she told her coordinator.	Lynn checked with Fran and she told he coordinator.	233656821	1478231971399	1478231971470	a	65
457007	4922169	Lynn checked with Fran and she told her coordinator.	Lynn checked with Fran and she told he coordinator.	233656824	1478231971503	1478231971566	n	78
457007	4922169	Lynn checked with Fran and she told her coordinator.	Lynn checked with Fran and she told he coordinator.	233656825	1478231971595	1478231971661	 	32
457007	4922169	Lynn checked with Fran and she told her coordinator.	Lynn checked with Fran and she told he coordinator.	233656826	1478231971679	1478231971762	a	65
457007	4922169	Lynn checked with Fran and she told her coordinator.	Lynn checked with Fran and she told he coordinator.	233656829	1478231971782	1478231971861	n	78
457007	4922169	Lynn checked with Fran and she told her coordinator.	Lynn checked with Fran and she told he coordinator.	233656856	1478231971911	1478231972013	d	68
457007	4922169	Lynn checked with Fran and she told her coordinator.	Lynn checked with Fran and she told he coordinator.	233656861	1478231971999	1478231972086	 	32
457007	4922169	Lynn checked with Fran and she told her coordinator.	Lynn checked with Fran and she told he coordinator.	233656865	1478231972183	1478231972254	s	83
457007	4922169	Lynn checked with Fran and she told her coordinator.	Lynn checked with Fran and she told he coordinator.	233656868	1478231972295	1478231972358	h	72
457007	4922169	Lynn checked with Fran and she told her coordinator.	Lynn checked with Fran and she told he coordinator.	233656871	1478231972367	1478231972438	e	69
457007	4922169	Lynn checked with Fran and she told her coordinator.	Lynn checked with Fran and she told he coordinator.	233656881	1478231972454	1478231972518	 	32
457007	4922169	Lynn checked with Fran and she told her coordinator.	Lynn checked with Fran and she told he coordinator.	233656882	1478231972567	1478231972630	t	84
457007	4922169	Lynn checked with Fran and she told her coordinator.	Lynn checked with Fran and she told he coordinator.	233656883	1478231972647	1478231972737	o	79
457007	4922169	Lynn checked with Fran and she told her coordinator.	Lynn checked with Fran and she told he coordinator.	233656884	1478231972735	1478231972830	l	76
457007	4922169	Lynn checked with Fran and she told her coordinator.	Lynn checked with Fran and she told he coordinator.	233656886	1478231972863	1478231972957	d	68
457007	4922169	Lynn checked with Fran and she told her coordinator.	Lynn checked with Fran and she told he coordinator.	233656907	1478231972943	1478231973046	 	32
457007	4922169	Lynn checked with Fran and she told her coordinator.	Lynn checked with Fran and she told he coordinator.	233656909	1478231973087	1478231973166	h	72
457007	4922169	Lynn checked with Fran and she told her coordinator.	Lynn checked with Fran and she told he coordinator.	233656912	1478231973182	1478231973269	e	69
457007	4922169	Lynn checked with Fran and she told her coordinator.	Lynn checked with Fran and she told he coordinator.	233656915	1478231973263	1478231973326	 	32
457007	4922169	Lynn checked with Fran and she told her coordinator.	Lynn checked with Fran and she told he coordinator.	233656918	1478231973415	1478231973470	c	67
457007	4922169	Lynn checked with Fran and she told her coordinator.	Lynn checked with Fran and she told he coordinator.	233656923	1478231973503	1478231973654	o	79
457007	4922169	Lynn checked with Fran and she told her coordinator.	Lynn checked with Fran and she told he coordinator.	233656952	1478231973743	1478231973838	o	79
457007	4922169	Lynn checked with Fran and she told her coordinator.	Lynn checked with Fran and she told he coordinator.	233656956	1478231973935	1478231974014	r	82
457007	4922169	Lynn checked with Fran and she told her coordinator.	Lynn checked with Fran and she told he coordinator.	233656960	1478231974223	1478231974318	d	68
457007	4922169	Lynn checked with Fran and she told her coordinator.	Lynn checked with Fran and she told he coordinator.	233656964	1478231974375	1478231974487	i	73
457007	4922169	Lynn checked with Fran and she told her coordinator.	Lynn checked with Fran and she told he coordinator.	233656972	1478231974463	1478231974558	n	78
457007	4922169	Lynn checked with Fran and she told her coordinator.	Lynn checked with Fran and she told he coordinator.	233656973	1478231974567	1478231974638	a	65
457007	4922169	Lynn checked with Fran and she told her coordinator.	Lynn checked with Fran and she told he coordinator.	233656974	1478231974679	1478231974750	t	84
457007	4922169	Lynn checked with Fran and she told her coordinator.	Lynn checked with Fran and she told he coordinator.	233656976	1478231974783	1478231974861	o	79
457007	4922169	Lynn checked with Fran and she told her coordinator.	Lynn checked with Fran and she told he coordinator.	233656978	1478231974855	1478231974942	r	82
457007	4922177	A bad thing has been turned into a good thing.	A bad thing has been turned into a good thing.	233657118	1478231977806	1478231978646	SHIFT	16
457007	4922177	A bad thing has been turned into a good thing.	A bad thing has been turned into a good thing.	233657119	1478231978853	1478231979422	SHIFT	16
457007	4922177	A bad thing has been turned into a good thing.	A bad thing has been turned into a good thing.	233657121	1478231979336	1478231979423	A	65
457007	4922177	A bad thing has been turned into a good thing.	A bad thing has been turned into a good thing.	233657123	1478231979495	1478231979582	 	32
457007	4922177	A bad thing has been turned into a good thing.	A bad thing has been turned into a good thing.	233657125	1478231979615	1478231979678	b	66
457007	4922177	A bad thing has been turned into a good thing.	A bad thing has been turned into a good thing.	233657127	1478231979687	1478231979769	a	65
457007	4922177	A bad thing has been turned into a good thing.	A bad thing has been turned into a good thing.	233657145	1478231979743	1478231979862	d	68
457007	4922177	A bad thing has been turned into a good thing.	A bad thing has been turned into a good thing.	233657147	1478231979823	1478231979902	 	32
457007	4922177	A bad thing has been turned into a good thing.	A bad thing has been turned into a good thing.	233657150	1478231979983	1478231980062	y	89
457007	4922177	A bad thing has been turned into a good thing.	A bad thing has been turned into a good thing.	233657156	1478231980047	1478231980142	h	72
457007	4922177	A bad thing has been turned into a good thing.	A bad thing has been turned into a good thing.	233657158	1478231980367	1478231980422	BKSP	8
457007	4922177	A bad thing has been turned into a good thing.	A bad thing has been turned into a good thing.	233657162	1478231980479	1478231980549	BKSP	8
457007	4922177	A bad thing has been turned into a good thing.	A bad thing has been turned into a good thing.	233657170	1478231980543	1478231980638	t	84
457007	4922177	A bad thing has been turned into a good thing.	A bad thing has been turned into a good thing.	233657172	1478231980574	1478231980678	h	72
457007	4922177	A bad thing has been turned into a good thing.	A bad thing has been turned into a good thing.	233657177	1478231980703	1478231980806	i	73
457007	4922177	A bad thing has been turned into a good thing.	A bad thing has been turned into a good thing.	233657182	1478231980767	1478231980862	n	78
457007	4922177	A bad thing has been turned into a good thing.	A bad thing has been turned into a good thing.	233657187	1478231980815	1478231980934	g	71
457007	4922177	A bad thing has been turned into a good thing.	A bad thing has been turned into a good thing.	233657191	1478231980902	1478231980998	 	32
457007	4922177	A bad thing has been turned into a good thing.	A bad thing has been turned into a good thing.	233657194	1478231981039	1478231981109	h	72
457007	4922177	A bad thing has been turned into a good thing.	A bad thing has been turned into a good thing.	233657205	1478231981126	1478231981230	a	65
457007	4922177	A bad thing has been turned into a good thing.	A bad thing has been turned into a good thing.	233657208	1478231981263	1478231981389	s	83
457007	4922177	A bad thing has been turned into a good thing.	A bad thing has been turned into a good thing.	233657213	1478231981375	1478231981462	 	32
457007	4922177	A bad thing has been turned into a good thing.	A bad thing has been turned into a good thing.	233657217	1478231981511	1478231981582	b	66
457007	4922177	A bad thing has been turned into a good thing.	A bad thing has been turned into a good thing.	233657221	1478231981590	1478231981646	e	69
457007	4922177	A bad thing has been turned into a good thing.	A bad thing has been turned into a good thing.	233657232	1478231981726	1478231981782	e	69
457007	4922177	A bad thing has been turned into a good thing.	A bad thing has been turned into a good thing.	233657234	1478231981822	1478231981878	n	78
457007	4922177	A bad thing has been turned into a good thing.	A bad thing has been turned into a good thing.	233657235	1478231981903	1478231981957	 	32
457007	4922177	A bad thing has been turned into a good thing.	A bad thing has been turned into a good thing.	233657238	1478231982022	1478231982086	t	84
457007	4922177	A bad thing has been turned into a good thing.	A bad thing has been turned into a good thing.	233657239	1478231982095	1478231982158	u	85
457007	4922177	A bad thing has been turned into a good thing.	A bad thing has been turned into a good thing.	233657251	1478231982199	1478231982278	r	82
457007	4922177	A bad thing has been turned into a good thing.	A bad thing has been turned into a good thing.	233657254	1478231982303	1478231982374	n	78
457007	4922177	A bad thing has been turned into a good thing.	A bad thing has been turned into a good thing.	233657255	1478231982382	1478231982454	e	69
457007	4922177	A bad thing has been turned into a good thing.	A bad thing has been turned into a good thing.	233657258	1478231982518	1478231982614	d	68
457007	4922177	A bad thing has been turned into a good thing.	A bad thing has been turned into a good thing.	233657268	1478231982575	1478231982677	 	32
457007	4922177	A bad thing has been turned into a good thing.	A bad thing has been turned into a good thing.	233657271	1478231982671	1478231982750	i	73
457007	4922177	A bad thing has been turned into a good thing.	A bad thing has been turned into a good thing.	233657274	1478231982735	1478231982813	n	78
457007	4922177	A bad thing has been turned into a good thing.	A bad thing has been turned into a good thing.	233657276	1478231982807	1478231982862	t	84
457007	4922177	A bad thing has been turned into a good thing.	A bad thing has been turned into a good thing.	233657278	1478231982903	1478231982966	o	79
457007	4922177	A bad thing has been turned into a good thing.	A bad thing has been turned into a good thing.	233657279	1478231982983	1478231983054	 	32
457007	4922177	A bad thing has been turned into a good thing.	A bad thing has been turned into a good thing.	233657286	1478231983087	1478231983165	a	65
457007	4922177	A bad thing has been turned into a good thing.	A bad thing has been turned into a good thing.	233657288	1478231983158	1478231983214	 	32
457007	4922177	A bad thing has been turned into a good thing.	A bad thing has been turned into a good thing.	233657290	1478231983239	1478231983326	g	71
457007	4922177	A bad thing has been turned into a good thing.	A bad thing has been turned into a good thing.	233657293	1478231983359	1478231983406	o	79
457007	4922177	A bad thing has been turned into a good thing.	A bad thing has been turned into a good thing.	233657298	1478231983462	1478231983534	o	79
457007	4922177	A bad thing has been turned into a good thing.	A bad thing has been turned into a good thing.	233657309	1478231983495	1478231983616	d	68
457007	4922177	A bad thing has been turned into a good thing.	A bad thing has been turned into a good thing.	233657313	1478231983590	1478231983678	 	32
457007	4922177	A bad thing has been turned into a good thing.	A bad thing has been turned into a good thing.	233657315	1478231983719	1478231983781	t	84
457007	4922177	A bad thing has been turned into a good thing.	A bad thing has been turned into a good thing.	233657318	1478231983767	1478231983854	h	72
457007	4922177	A bad thing has been turned into a good thing.	A bad thing has been turned into a good thing.	233657320	1478231983823	1478231983901	i	73
457007	4922177	A bad thing has been turned into a good thing.	A bad thing has been turned into a good thing.	233657328	1478231983895	1478231983982	n	78
457007	4922177	A bad thing has been turned into a good thing.	A bad thing has been turned into a good thing.	233657329	1478231983991	1478231984078	g	71
