PARTICIPANT_ID	TEST_SECTION_ID	SENTENCE	USER_INPUT	KEYSTROKE_ID	PRESS_TIME	RELEASE_TIME	LETTER	KEYCODE
457549	4928360	What number should he call you on?	What number should he call you on?	233950922	1478241429850	1478241429996	SHIFT	16
457549	4928360	What number should he call you on?	What number should he call you on?	233950924	1478241429969	1478241430080	W	87
457549	4928360	What number should he call you on?	What number should he call you on?	233950926	1478241430088	1478241430180	h	72
457549	4928360	What number should he call you on?	What number should he call you on?	233950928	1478241430188	1478241430268	a	65
457549	4928360	What number should he call you on?	What number should he call you on?	233950932	1478241430334	1478241430414	t	84
457549	4928360	What number should he call you on?	What number should he call you on?	233950949	1478241430410	1478241430494	 	32
457549	4928360	What number should he call you on?	What number should he call you on?	233950952	1478241430554	1478241430602	n	78
457549	4928360	What number should he call you on?	What number should he call you on?	233950954	1478241430687	1478241430776	u	85
457549	4928360	What number should he call you on?	What number should he call you on?	233950956	1478241430865	1478241430920	m	77
457549	4928360	What number should he call you on?	What number should he call you on?	233950958	1478241431009	1478241431080	b	66
457549	4928360	What number should he call you on?	What number should he call you on?	233950969	1478241431073	1478241431173	e	69
457549	4928360	What number should he call you on?	What number should he call you on?	233950970	1478241431149	1478241431237	r	82
457549	4928360	What number should he call you on?	What number should he call you on?	233950972	1478241431209	1478241431281	 	32
457549	4928360	What number should he call you on?	What number should he call you on?	233950974	1478241431349	1478241431449	h	83
457549	4928360	What number should he call you on?	What number should he call you on?	233950976	1478241431489	1478241431587	o	79
457549	4928360	What number should he call you on?	What number should he call you on?	233950984	1478241431568	1478241431623	u	85
457549	4928360	What number should he call you on?	What number should he call you on?	233950986	1478241431698	1478241431790	l	76
457549	4928360	What number should he call you on?	What number should he call you on?	233950988	1478241431803	1478241431890	d	68
457549	4928360	What number should he call you on?	What number should he call you on?	233950990	1478241431838	1478241431922	 	32
457549	4928360	What number should he call you on?	What number should he call you on?	233950993	1478241431975	1478241432059	h	72
457549	4928360	What number should he call you on?	What number should he call you on?	233951012	1478241432051	1478241432115	e	69
457549	4928360	What number should he call you on?	What number should he call you on?	233951013	1478241432131	1478241432211	 	32
457549	4928360	What number should he call you on?	What number should he call you on?	233951014	1478241432272	1478241432323	c	67
457549	4928360	What number should he call you on?	What number should he call you on?	233951015	1478241432388	1478241432496	a	65
457549	4928360	What number should he call you on?	What number should he call you on?	233951016	1478241432445	1478241432497	l	76
457549	4928360	What number should he call you on?	What number should he call you on?	233951017	1478241432565	1478241432629	l	76
457549	4928360	What number should he call you on?	What number should he call you on?	233951027	1478241432647	1478241432710	 	32
457549	4928360	What number should he call you on?	What number should he call you on?	233951032	1478241432759	1478241432807	y	89
457549	4928360	What number should he call you on?	What number should he call you on?	233951037	1478241432874	1478241432974	o	79
457549	4928360	What number should he call you on?	What number should he call you on?	233951044	1478241432943	1478241433002	u	85
457549	4928360	What number should he call you on?	What number should he call you on?	233951050	1478241433040	1478241433097	 	32
457549	4928360	What number should he call you on?	What number should he call you on?	233951074	1478241433135	1478241433302	o	79
457549	4928360	What number should he call you on?	What number should he call you on?	233951076	1478241433258	1478241433358	n	78
457549	4928360	What number should he call you on?	What number should he call you on?	233951083	1478241433499	1478241433818	SHIFT	16
457549	4928360	What number should he call you on?	What number should he call you on?	233951080	1478241433651	1478241433786	?	191
457549	4928369	We want a little May madness of our own.	We want a little May madness of our own	233951279	1478241439069	1478241439289	SHIFT	16
457549	4928369	We want a little May madness of our own.	We want a little May madness of our own	233951284	1478241439229	1478241439377	W	87
457549	4928369	We want a little May madness of our own.	We want a little May madness of our own	233951286	1478241439337	1478241439437	e	69
457549	4928369	We want a little May madness of our own.	We want a little May madness of our own	233951288	1478241439462	1478241439566	 	32
457549	4928369	We want a little May madness of our own.	We want a little May madness of our own	233951289	1478241439801	1478241439921	w	87
457549	4928369	We want a little May madness of our own.	We want a little May madness of our own	233951290	1478241439978	1478241440066	a	65
457549	4928369	We want a little May madness of our own.	We want a little May madness of our own	233951296	1478241440062	1478241440137	n	78
457549	4928369	We want a little May madness of our own.	We want a little May madness of our own	233951297	1478241440155	1478241440235	t	84
457549	4928369	We want a little May madness of our own.	We want a little May madness of our own	233951298	1478241440258	1478241440334	 	32
457549	4928369	We want a little May madness of our own.	We want a little May madness of our own	233951299	1478241440346	1478241440435	a	65
457549	4928369	We want a little May madness of our own.	We want a little May madness of our own	233951300	1478241440418	1478241440490	 	32
457549	4928369	We want a little May madness of our own.	We want a little May madness of our own	233951302	1478241440562	1478241440674	l	76
457549	4928369	We want a little May madness of our own.	We want a little May madness of our own	233951316	1478241440646	1478241440722	i	73
457549	4928369	We want a little May madness of our own.	We want a little May madness of our own	233951320	1478241440702	1478241440774	t	84
457549	4928369	We want a little May madness of our own.	We want a little May madness of our own	233951323	1478241440815	1478241440895	t	84
457549	4928369	We want a little May madness of our own.	We want a little May madness of our own	233951329	1478241440911	1478241440984	l	76
457549	4928369	We want a little May madness of our own.	We want a little May madness of our own	233951332	1478241440983	1478241441083	e	69
457549	4928369	We want a little May madness of our own.	We want a little May madness of our own	233951336	1478241441136	1478241441224	 	32
457549	4928369	We want a little May madness of our own.	We want a little May madness of our own	233951398	1478241441334	1478241441497	SHIFT	16
457549	4928369	We want a little May madness of our own.	We want a little May madness of our own	233951401	1478241441478	1478241441554	M	65
457549	4928369	We want a little May madness of our own.	We want a little May madness of our own	233951403	1478241441742	1478241441800	y	89
457549	4928369	We want a little May madness of our own.	We want a little May madness of our own	233951407	1478241441864	1478241441928	 	32
457549	4928369	We want a little May madness of our own.	We want a little May madness of our own	233951410	1478241442334	1478241442397	BKSP	8
457549	4928369	We want a little May madness of our own.	We want a little May madness of our own	233951413	1478241442459	1478241442523	BKSP	8
457549	4928369	We want a little May madness of our own.	We want a little May madness of our own	233951418	1478241442586	1478241442657	BKSP	8
457549	4928369	We want a little May madness of our own.	We want a little May madness of our own	233951421	1478241442710	1478241442762	BKSP	8
457549	4928369	We want a little May madness of our own.	We want a little May madness of our own	233951424	1478241442880	1478241443057	SHIFT	16
457549	4928369	We want a little May madness of our own.	We want a little May madness of our own	233951431	1478241443021	1478241443132	M	77
457549	4928369	We want a little May madness of our own.	We want a little May madness of our own	233951434	1478241443117	1478241443253	a	65
457549	4928369	We want a little May madness of our own.	We want a little May madness of our own	233951435	1478241443281	1478241443341	y	89
457549	4928369	We want a little May madness of our own.	We want a little May madness of our own	233951437	1478241443388	1478241443468	 	32
457549	4928369	We want a little May madness of our own.	We want a little May madness of our own	233951438	1478241443535	1478241443603	m	77
457549	4928369	We want a little May madness of our own.	We want a little May madness of our own	233951459	1478241443587	1478241443694	a	65
457549	4928369	We want a little May madness of our own.	We want a little May madness of our own	233951462	1478241443732	1478241443816	d	68
457549	4928369	We want a little May madness of our own.	We want a little May madness of our own	233951465	1478241443869	1478241443933	n	78
457549	4928369	We want a little May madness of our own.	We want a little May madness of our own	233951468	1478241443964	1478241444020	e	69
457549	4928369	We want a little May madness of our own.	We want a little May madness of our own	233951471	1478241444115	1478241444194	s	83
457549	4928369	We want a little May madness of our own.	We want a little May madness of our own	233951475	1478241444253	1478241444372	s	83
457549	4928369	We want a little May madness of our own.	We want a little May madness of our own	233951482	1478241444328	1478241444400	 	32
457549	4928369	We want a little May madness of our own.	We want a little May madness of our own	233951484	1478241444425	1478241444527	o	79
457549	4928369	We want a little May madness of our own.	We want a little May madness of our own	233951487	1478241444526	1478241444622	f	70
457549	4928369	We want a little May madness of our own.	We want a little May madness of our own	233951489	1478241444618	1478241444706	 	32
457549	4928369	We want a little May madness of our own.	We want a little May madness of our own	233951492	1478241444752	1478241444880	o	79
457549	4928369	We want a little May madness of our own.	We want a little May madness of our own	233951505	1478241444848	1478241444932	u	85
457549	4928369	We want a little May madness of our own.	We want a little May madness of our own	233951507	1478241444920	1478241444995	r	82
457549	4928369	We want a little May madness of our own.	We want a little May madness of our own	233951510	1478241445019	1478241445108	 	32
457549	4928369	We want a little May madness of our own.	We want a little May madness of our own	233951513	1478241445193	1478241445280	o	79
457549	4928369	We want a little May madness of our own.	We want a little May madness of our own	233951516	1478241445253	1478241445340	w	87
457549	4928369	We want a little May madness of our own.	We want a little May madness of our own	233951518	1478241445345	1478241445408	n	78
457549	4928377	I have an electric knife.	I have an electric knife	233951577	1478241447424	1478241447601	SHIFT	16
457549	4928377	I have an electric knife.	I have an electric knife	233951578	1478241447573	1478241447649	I	73
457549	4928377	I have an electric knife.	I have an electric knife	233951579	1478241447666	1478241447753	 	32
457549	4928377	I have an electric knife.	I have an electric knife	233951580	1478241447792	1478241447875	h	72
457549	4928377	I have an electric knife.	I have an electric knife	233951581	1478241447844	1478241447912	a	65
457549	4928377	I have an electric knife.	I have an electric knife	233951582	1478241447980	1478241448083	v	86
457549	4928377	I have an electric knife.	I have an electric knife	233951600	1478241448100	1478241448172	e	69
457549	4928377	I have an electric knife.	I have an electric knife	233951603	1478241448168	1478241448243	 	32
457549	4928377	I have an electric knife.	I have an electric knife	233951604	1478241448289	1478241448369	a	65
457549	4928377	I have an electric knife.	I have an electric knife	233951605	1478241448345	1478241448392	n	78
457549	4928377	I have an electric knife.	I have an electric knife	233951607	1478241448508	1478241448591	 	32
457549	4928377	I have an electric knife.	I have an electric knife	233951636	1478241448671	1478241448739	e	69
457549	4928377	I have an electric knife.	I have an electric knife	233951638	1478241449073	1478241449145	l	76
457549	4928377	I have an electric knife.	I have an electric knife	233951640	1478241449189	1478241449240	e	69
457549	4928377	I have an electric knife.	I have an electric knife	233951644	1478241449366	1478241449434	c	67
457549	4928377	I have an electric knife.	I have an electric knife	233951647	1478241449497	1478241449633	t	84
457549	4928377	I have an electric knife.	I have an electric knife	233951667	1478241449609	1478241449680	r	82
457549	4928377	I have an electric knife.	I have an electric knife	233951673	1478241449692	1478241449772	i	73
457549	4928377	I have an electric knife.	I have an electric knife	233951679	1478241449826	1478241449921	c	67
457549	4928377	I have an electric knife.	I have an electric knife	233951683	1478241449906	1478241449985	 	32
457549	4928377	I have an electric knife.	I have an electric knife	233951685	1478241450195	1478241450346	k	75
457549	4928377	I have an electric knife.	I have an electric knife	233951687	1478241450355	1478241450462	n	78
457549	4928377	I have an electric knife.	I have an electric knife	233951688	1478241450447	1478241450554	i	73
457549	4928377	I have an electric knife.	I have an electric knife	233951689	1478241450534	1478241450626	f	70
457549	4928377	I have an electric knife.	I have an electric knife	233951691	1478241450595	1478241450714	e	69
457549	4928383	I'll email her later tonight.	I'll email her later tongiht	233951762	1478241452250	1478241452497	SHIFT	16
457549	4928383	I'll email her later tonight.	I'll email her later tongiht	233951766	1478241452468	1478241452536	I	73
457549	4928383	I'll email her later tonight.	I'll email her later tongiht	233951768	1478241452651	1478241452730	'	222
457549	4928383	I'll email her later tonight.	I'll email her later tongiht	233951771	1478241452836	1478241452895	l	76
457549	4928383	I'll email her later tonight.	I'll email her later tongiht	233951773	1478241452972	1478241453058	l	76
457549	4928383	I'll email her later tonight.	I'll email her later tongiht	233951785	1478241453051	1478241453162	 	32
457549	4928383	I'll email her later tonight.	I'll email her later tongiht	233951787	1478241453179	1478241453274	e	69
457549	4928383	I'll email her later tonight.	I'll email her later tongiht	233951790	1478241453291	1478241453350	m	77
457549	4928383	I'll email her later tonight.	I'll email her later tongiht	233951797	1478241453413	1478241453512	a	65
457549	4928383	I'll email her later tonight.	I'll email her later tongiht	233951793	1478241453436	1478241453504	i	73
457549	4928383	I'll email her later tonight.	I'll email her later tongiht	233951801	1478241453582	1478241453681	l	76
457549	4928383	I'll email her later tonight.	I'll email her later tongiht	233951806	1478241453678	1478241453749	 	32
457549	4928383	I'll email her later tonight.	I'll email her later tongiht	233951808	1478241453796	1478241453875	h	72
457549	4928383	I'll email her later tonight.	I'll email her later tongiht	233951813	1478241453848	1478241453979	e	69
457549	4928383	I'll email her later tonight.	I'll email her later tongiht	233951818	1478241453944	1478241454059	r	82
457549	4928383	I'll email her later tonight.	I'll email her later tongiht	233951824	1478241454016	1478241454091	 	32
457549	4928383	I'll email her later tonight.	I'll email her later tongiht	233951829	1478241454172	1478241454275	l	76
457549	4928383	I'll email her later tonight.	I'll email her later tongiht	233951855	1478241454260	1478241454331	a	65
457549	4928383	I'll email her later tonight.	I'll email her later tongiht	233951857	1478241454385	1478241454456	t	84
457549	4928383	I'll email her later tonight.	I'll email her later tongiht	233951860	1478241454535	1478241454623	e	69
457549	4928383	I'll email her later tonight.	I'll email her later tongiht	233951863	1478241454595	1478241454687	r	82
457549	4928383	I'll email her later tonight.	I'll email her later tongiht	233951865	1478241454683	1478241454719	 	32
457549	4928383	I'll email her later tonight.	I'll email her later tongiht	233951868	1478241455017	1478241455105	t	84
457549	4928383	I'll email her later tonight.	I'll email her later tongiht	233951877	1478241455114	1478241455241	o	79
457549	4928383	I'll email her later tonight.	I'll email her later tongiht	233951880	1478241455222	1478241455297	n	78
457549	4928383	I'll email her later tonight.	I'll email her later tongiht	233951883	1478241455337	1478241455416	i	71
457549	4928383	I'll email her later tonight.	I'll email her later tongiht	233951886	1478241455524	1478241455583	h	72
457549	4928383	I'll email her later tonight.	I'll email her later tongiht	233951889	1478241455560	1478241455624	t	84
457549	4928387	Can you help get this cleared up?	Can you help get his leared up?	233952009	1478241457466	1478241457634	SHIFT	16
457549	4928387	Can you help get this cleared up?	Can you help get his leared up?	233952012	1478241457582	1478241457690	C	67
457549	4928387	Can you help get this cleared up?	Can you help get his leared up?	233952015	1478241457732	1478241457851	a	65
457549	4928387	Can you help get this cleared up?	Can you help get his leared up?	233952019	1478241457816	1478241457891	n	78
457549	4928387	Can you help get this cleared up?	Can you help get his leared up?	233952021	1478241457895	1478241457967	 	32
457549	4928387	Can you help get this cleared up?	Can you help get his leared up?	233952024	1478241458010	1478241458085	y	89
457549	4928387	Can you help get this cleared up?	Can you help get his leared up?	233952043	1478241458156	1478241458260	o	79
457549	4928387	Can you help get this cleared up?	Can you help get his leared up?	233952048	1478241458237	1478241458304	u	85
457549	4928387	Can you help get this cleared up?	Can you help get his leared up?	233952052	1478241458386	1478241458445	 	32
457549	4928387	Can you help get this cleared up?	Can you help get his leared up?	233952054	1478241458495	1478241458531	h	72
457549	4928387	Can you help get this cleared up?	Can you help get his leared up?	233952057	1478241458590	1478241458714	e	69
457549	4928387	Can you help get this cleared up?	Can you help get his leared up?	233952108	1478241458715	1478241458778	j	74
457549	4928387	Can you help get this cleared up?	Can you help get his leared up?	233952111	1478241459198	1478241459270	BKSP	8
457549	4928387	Can you help get this cleared up?	Can you help get his leared up?	233952115	1478241459441	1478241459517	l	76
457549	4928387	Can you help get this cleared up?	Can you help get his leared up?	233952119	1478241459609	1478241459693	p	80
457549	4928387	Can you help get this cleared up?	Can you help get his leared up?	233952123	1478241459702	1478241459773	 	32
457549	4928387	Can you help get this cleared up?	Can you help get his leared up?	233952127	1478241459842	1478241459926	g	71
457549	4928387	Can you help get this cleared up?	Can you help get his leared up?	233952137	1478241459995	1478241460082	e	69
457549	4928387	Can you help get this cleared up?	Can you help get his leared up?	233952138	1478241460114	1478241460190	t	84
457549	4928387	Can you help get this cleared up?	Can you help get his leared up?	233952139	1478241460198	1478241460266	 	32
457549	4928387	Can you help get this cleared up?	Can you help get his leared up?	233952140	1478241460333	1478241460398	h	72
457549	4928387	Can you help get this cleared up?	Can you help get his leared up?	233952142	1478241460484	1478241460555	i	73
457549	4928387	Can you help get this cleared up?	Can you help get his leared up?	233952162	1478241460547	1478241460620	s	83
457549	4928387	Can you help get this cleared up?	Can you help get his leared up?	233952164	1478241460645	1478241460732	 	32
457549	4928387	Can you help get this cleared up?	Can you help get his leared up?	233952167	1478241460850	1478241460979	l	76
457549	4928387	Can you help get this cleared up?	Can you help get his leared up?	233952172	1478241460950	1478241461018	e	69
457549	4928387	Can you help get this cleared up?	Can you help get his leared up?	233952180	1478241461072	1478241461205	a	65
457549	4928387	Can you help get this cleared up?	Can you help get his leared up?	233952211	1478241461193	1478241461294	r	82
457549	4928387	Can you help get this cleared up?	Can you help get his leared up?	233952213	1478241461370	1478241461449	e	69
457549	4928387	Can you help get this cleared up?	Can you help get his leared up?	233952216	1478241461558	1478241461666	d	68
457549	4928387	Can you help get this cleared up?	Can you help get his leared up?	233952219	1478241461642	1478241461750	 	32
457549	4928387	Can you help get this cleared up?	Can you help get his leared up?	233952222	1478241461930	1478241462005	u	85
457549	4928387	Can you help get this cleared up?	Can you help get his leared up?	233952224	1478241462083	1478241462195	p	80
457549	4928387	Can you help get this cleared up?	Can you help get his leared up?	233952234	1478241462424	1478241462552	?	191
457549	4928391	I know he's working on it.	I know he's working on it.	233952300	1478241464767	1478241464846	I	73
457549	4928391	I know he's working on it.	I know he's working on it.	233952302	1478241464886	1478241464990	 	32
457549	4928391	I know he's working on it.	I know he's working on it.	233952306	1478241464978	1478241465106	k	75
457549	4928391	I know he's working on it.	I know he's working on it.	233952310	1478241465102	1478241465198	n	78
457549	4928391	I know he's working on it.	I know he's working on it.	233952314	1478241465216	1478241465340	o	79
457549	4928391	I know he's working on it.	I know he's working on it.	233952325	1478241465332	1478241465420	w	87
457549	4928391	I know he's working on it.	I know he's working on it.	233952327	1478241465356	1478241465452	 	32
457549	4928391	I know he's working on it.	I know he's working on it.	233952331	1478241465789	1478241465869	h	72
457549	4928391	I know he's working on it.	I know he's working on it.	233952332	1478241465899	1478241465962	e	69
457549	4928391	I know he's working on it.	I know he's working on it.	233952334	1478241466012	1478241466108	'	222
457549	4928391	I know he's working on it.	I know he's working on it.	233952336	1478241466126	1478241466198	s	83
457549	4928391	I know he's working on it.	I know he's working on it.	233952341	1478241466214	1478241466296	 	32
457549	4928391	I know he's working on it.	I know he's working on it.	233952344	1478241466295	1478241466386	w	87
457549	4928391	I know he's working on it.	I know he's working on it.	233952346	1478241466383	1478241466446	o	79
457549	4928391	I know he's working on it.	I know he's working on it.	233952347	1478241466463	1478241466546	r	82
457549	4928391	I know he's working on it.	I know he's working on it.	233952348	1478241466550	1478241466622	k	75
457549	4928391	I know he's working on it.	I know he's working on it.	233952356	1478241466690	1478241466834	i	73
457549	4928391	I know he's working on it.	I know he's working on it.	233952358	1478241466794	1478241466898	n	78
457549	4928391	I know he's working on it.	I know he's working on it.	233952360	1478241466854	1478241466934	g	71
457549	4928391	I know he's working on it.	I know he's working on it.	233952362	1478241466967	1478241467070	 	32
457549	4928391	I know he's working on it.	I know he's working on it.	233952375	1478241467062	1478241467195	o	79
457549	4928391	I know he's working on it.	I know he's working on it.	233952378	1478241467155	1478241467251	n	78
457549	4928391	I know he's working on it.	I know he's working on it.	233952380	1478241467293	1478241467392	 	32
457549	4928391	I know he's working on it.	I know he's working on it.	233952381	1478241467404	1478241467492	i	73
457549	4928391	I know he's working on it.	I know he's working on it.	233952382	1478241467492	1478241467564	t	84
457549	4928391	I know he's working on it.	I know he's working on it.	233952383	1478241467641	1478241467717	.	190
457549	4928397	I'll presume it is dead until I hear otherwise.	i'll presume it is dead until i hear otherwise	233952491	1478241470387	1478241470547	SHIFT	16
457549	4928397	I'll presume it is dead until I hear otherwise.	i'll presume it is dead until i hear otherwise	233952494	1478241470551	1478241470627	i	73
457549	4928397	I'll presume it is dead until I hear otherwise.	i'll presume it is dead until i hear otherwise	233952498	1478241470724	1478241470804	'	222
457549	4928397	I'll presume it is dead until I hear otherwise.	i'll presume it is dead until i hear otherwise	233952503	1478241470904	1478241470952	l	76
457549	4928397	I'll presume it is dead until I hear otherwise.	i'll presume it is dead until i hear otherwise	233952508	1478241471015	1478241471091	l	76
457549	4928397	I'll presume it is dead until I hear otherwise.	i'll presume it is dead until i hear otherwise	233952513	1478241471119	1478241471203	 	32
457549	4928397	I'll presume it is dead until I hear otherwise.	i'll presume it is dead until i hear otherwise	233952518	1478241471223	1478241471311	p	80
457549	4928397	I'll presume it is dead until I hear otherwise.	i'll presume it is dead until i hear otherwise	233952519	1478241471299	1478241471431	r	82
457549	4928397	I'll presume it is dead until I hear otherwise.	i'll presume it is dead until i hear otherwise	233952520	1478241471399	1478241471483	e	69
457549	4928397	I'll presume it is dead until I hear otherwise.	i'll presume it is dead until i hear otherwise	233952521	1478241471582	1478241471698	s	83
457549	4928397	I'll presume it is dead until I hear otherwise.	i'll presume it is dead until i hear otherwise	233952532	1478241471654	1478241471706	u	85
457549	4928397	I'll presume it is dead until I hear otherwise.	i'll presume it is dead until i hear otherwise	233952533	1478241471809	1478241471881	m	77
457549	4928397	I'll presume it is dead until I hear otherwise.	i'll presume it is dead until i hear otherwise	233952535	1478241471907	1478241471987	e	69
457549	4928397	I'll presume it is dead until I hear otherwise.	i'll presume it is dead until i hear otherwise	233952537	1478241472009	1478241472094	 	32
457549	4928397	I'll presume it is dead until I hear otherwise.	i'll presume it is dead until i hear otherwise	233952540	1478241472161	1478241472241	i	73
457549	4928397	I'll presume it is dead until I hear otherwise.	i'll presume it is dead until i hear otherwise	233952544	1478241472299	1478241472379	t	84
457549	4928397	I'll presume it is dead until I hear otherwise.	i'll presume it is dead until i hear otherwise	233952567	1478241472378	1478241472447	 	32
457549	4928397	I'll presume it is dead until I hear otherwise.	i'll presume it is dead until i hear otherwise	233952569	1478241472505	1478241472571	i	73
457549	4928397	I'll presume it is dead until I hear otherwise.	i'll presume it is dead until i hear otherwise	233952572	1478241472564	1478241472660	s	83
457549	4928397	I'll presume it is dead until I hear otherwise.	i'll presume it is dead until i hear otherwise	233952575	1478241472660	1478241472760	 	32
457549	4928397	I'll presume it is dead until I hear otherwise.	i'll presume it is dead until i hear otherwise	233952578	1478241472862	1478241472950	d	68
457549	4928397	I'll presume it is dead until I hear otherwise.	i'll presume it is dead until i hear otherwise	233952582	1478241473031	1478241473096	e	69
457549	4928397	I'll presume it is dead until I hear otherwise.	i'll presume it is dead until i hear otherwise	233952593	1478241473146	1478241473282	a	65
457549	4928397	I'll presume it is dead until I hear otherwise.	i'll presume it is dead until i hear otherwise	233952596	1478241473278	1478241473394	d	68
457549	4928397	I'll presume it is dead until I hear otherwise.	i'll presume it is dead until i hear otherwise	233952599	1478241473354	1478241473465	 	32
457549	4928397	I'll presume it is dead until I hear otherwise.	i'll presume it is dead until i hear otherwise	233952602	1478241473462	1478241473590	u	85
457549	4928397	I'll presume it is dead until I hear otherwise.	i'll presume it is dead until i hear otherwise	233952680	1478241473578	1478241473661	n	78
457549	4928397	I'll presume it is dead until I hear otherwise.	i'll presume it is dead until i hear otherwise	233952684	1478241473654	1478241473744	t	84
457549	4928397	I'll presume it is dead until I hear otherwise.	i'll presume it is dead until i hear otherwise	233952689	1478241473742	1478241473826	i	73
457549	4928397	I'll presume it is dead until I hear otherwise.	i'll presume it is dead until i hear otherwise	233952697	1478241474250	1478241474378	 	32
457549	4928397	I'll presume it is dead until I hear otherwise.	i'll presume it is dead until i hear otherwise	233952702	1478241474610	1478241474678	BKSP	8
457549	4928397	I'll presume it is dead until I hear otherwise.	i'll presume it is dead until i hear otherwise	233952704	1478241474845	1478241474909	l	76
457549	4928397	I'll presume it is dead until I hear otherwise.	i'll presume it is dead until i hear otherwise	233952706	1478241474928	1478241475024	 	32
457549	4928397	I'll presume it is dead until I hear otherwise.	i'll presume it is dead until i hear otherwise	233952770	1478241475036	1478241475204	SHIFT	16
457549	4928397	I'll presume it is dead until I hear otherwise.	i'll presume it is dead until i hear otherwise	233952775	1478241475204	1478241475224	i	73
457549	4928397	I'll presume it is dead until I hear otherwise.	i'll presume it is dead until i hear otherwise	233952779	1478241475459	1478241475535	h	72
457549	4928397	I'll presume it is dead until I hear otherwise.	i'll presume it is dead until i hear otherwise	233952782	1478241475751	1478241475823	BKSP	8
457549	4928397	I'll presume it is dead until I hear otherwise.	i'll presume it is dead until i hear otherwise	233952784	1478241475868	1478241475976	 	32
457549	4928397	I'll presume it is dead until I hear otherwise.	i'll presume it is dead until i hear otherwise	233952786	1478241476163	1478241476239	h	72
457549	4928397	I'll presume it is dead until I hear otherwise.	i'll presume it is dead until i hear otherwise	233952806	1478241476227	1478241476295	e	69
457549	4928397	I'll presume it is dead until I hear otherwise.	i'll presume it is dead until i hear otherwise	233952808	1478241476381	1478241476489	a	65
457549	4928397	I'll presume it is dead until I hear otherwise.	i'll presume it is dead until i hear otherwise	233952809	1478241476497	1478241476589	r	82
457549	4928397	I'll presume it is dead until I hear otherwise.	i'll presume it is dead until i hear otherwise	233952810	1478241476601	1478241476673	 	32
457549	4928397	I'll presume it is dead until I hear otherwise.	i'll presume it is dead until i hear otherwise	233952811	1478241476774	1478241476849	o	79
457549	4928397	I'll presume it is dead until I hear otherwise.	i'll presume it is dead until i hear otherwise	233952812	1478241476853	1478241476924	t	84
457549	4928397	I'll presume it is dead until I hear otherwise.	i'll presume it is dead until i hear otherwise	233952830	1478241476960	1478241477032	h	72
457549	4928397	I'll presume it is dead until I hear otherwise.	i'll presume it is dead until i hear otherwise	233952832	1478241477008	1478241477124	e	69
457549	4928397	I'll presume it is dead until I hear otherwise.	i'll presume it is dead until i hear otherwise	233952834	1478241477100	1478241477192	r	82
457549	4928397	I'll presume it is dead until I hear otherwise.	i'll presume it is dead until i hear otherwise	233952836	1478241477315	1478241477403	w	87
457549	4928397	I'll presume it is dead until I hear otherwise.	i'll presume it is dead until i hear otherwise	233952840	1478241477460	1478241477536	i	73
457549	4928397	I'll presume it is dead until I hear otherwise.	i'll presume it is dead until i hear otherwise	233952848	1478241477583	1478241477675	s	83
457549	4928397	I'll presume it is dead until I hear otherwise.	i'll presume it is dead until i hear otherwise	233952850	1478241477772	1478241477844	e	69
457549	4928405	I just tracked down Steve.	I just tracked odwn Steve	233952933	1478241480133	1478241480325	SHIFT	16
457549	4928405	I just tracked down Steve.	I just tracked odwn Steve	233952935	1478241480293	1478241480381	I	73
457549	4928405	I just tracked down Steve.	I just tracked odwn Steve	233952937	1478241480401	1478241480501	 	32
457549	4928405	I just tracked down Steve.	I just tracked odwn Steve	233952938	1478241480554	1478241480622	j	74
457549	4928405	I just tracked down Steve.	I just tracked odwn Steve	233952940	1478241480700	1478241480796	u	85
457549	4928405	I just tracked down Steve.	I just tracked odwn Steve	233952948	1478241480740	1478241480828	s	83
457549	4928405	I just tracked down Steve.	I just tracked odwn Steve	233952949	1478241480907	1478241481034	t	84
457549	4928405	I just tracked down Steve.	I just tracked odwn Steve	233952950	1478241481100	1478241481212	 	32
457549	4928405	I just tracked down Steve.	I just tracked odwn Steve	233952951	1478241481345	1478241481485	t	84
457549	4928405	I just tracked down Steve.	I just tracked odwn Steve	233952952	1478241481449	1478241481537	r	82
457549	4928405	I just tracked down Steve.	I just tracked odwn Steve	233952954	1478241481618	1478241481710	a	65
457549	4928405	I just tracked down Steve.	I just tracked odwn Steve	233952960	1478241481796	1478241481868	c	67
457549	4928405	I just tracked down Steve.	I just tracked odwn Steve	233952961	1478241481887	1478241481991	k	75
457549	4928405	I just tracked down Steve.	I just tracked odwn Steve	233952962	1478241481971	1478241482015	e	69
457549	4928405	I just tracked down Steve.	I just tracked odwn Steve	233952963	1478241482103	1478241482178	d	68
457549	4928405	I just tracked down Steve.	I just tracked odwn Steve	233952987	1478241482159	1478241482227	 	32
457549	4928405	I just tracked down Steve.	I just tracked odwn Steve	233952988	1478241482293	1478241482361	d	79
457549	4928405	I just tracked down Steve.	I just tracked odwn Steve	233952989	1478241482475	1478241482560	w	87
457549	4928405	I just tracked down Steve.	I just tracked odwn Steve	233952990	1478241482548	1478241482603	n	78
457549	4928405	I just tracked down Steve.	I just tracked odwn Steve	233952991	1478241482647	1478241482727	 	32
457549	4928405	I just tracked down Steve.	I just tracked odwn Steve	233953002	1478241482795	1478241482868	SHIFT	16
457549	4928405	I just tracked down Steve.	I just tracked odwn Steve	233953003	1478241482828	1478241482932	S	83
457549	4928405	I just tracked down Steve.	I just tracked odwn Steve	233953004	1478241483029	1478241483101	t	84
457549	4928405	I just tracked down Steve.	I just tracked odwn Steve	233953005	1478241483153	1478241483237	e	69
457549	4928405	I just tracked down Steve.	I just tracked odwn Steve	233953006	1478241483310	1478241483442	v	86
457549	4928405	I just tracked down Steve.	I just tracked odwn Steve	233953031	1478241483434	1478241483558	e	69
457549	4928412	Let me know which day is good for you.	Let me know which day is good for you.	233953117	1478241486121	1478241486273	SHIFT	16
457549	4928412	Let me know which day is good for you.	Let me know which day is good for you.	233953119	1478241486230	1478241486345	L	76
457549	4928412	Let me know which day is good for you.	Let me know which day is good for you.	233953120	1478241486338	1478241486445	e	69
457549	4928412	Let me know which day is good for you.	Let me know which day is good for you.	233953122	1478241486473	1478241486572	t	84
457549	4928412	Let me know which day is good for you.	Let me know which day is good for you.	233953123	1478241486533	1478241486620	 	32
457549	4928412	Let me know which day is good for you.	Let me know which day is good for you.	233953125	1478241486664	1478241486771	m	77
457549	4928412	Let me know which day is good for you.	Let me know which day is good for you.	233953135	1478241486752	1478241486840	e	69
457549	4928412	Let me know which day is good for you.	Let me know which day is good for you.	233953138	1478241486828	1478241486900	 	32
457549	4928412	Let me know which day is good for you.	Let me know which day is good for you.	233953143	1478241487003	1478241487126	k	75
457549	4928412	Let me know which day is good for you.	Let me know which day is good for you.	233953147	1478241487106	1478241487187	n	78
457549	4928412	Let me know which day is good for you.	Let me know which day is good for you.	233953153	1478241487228	1478241487304	o	79
457549	4928412	Let me know which day is good for you.	Let me know which day is good for you.	233953158	1478241487327	1478241487407	w	87
457549	4928412	Let me know which day is good for you.	Let me know which day is good for you.	233953164	1478241487367	1478241487438	 	32
457549	4928412	Let me know which day is good for you.	Let me know which day is good for you.	233953166	1478241487507	1478241487586	w	87
457549	4928412	Let me know which day is good for you.	Let me know which day is good for you.	233953168	1478241487535	1478241487590	h	72
457549	4928412	Let me know which day is good for you.	Let me know which day is good for you.	233953170	1478241487681	1478241487733	i	73
457549	4928412	Let me know which day is good for you.	Let me know which day is good for you.	233953172	1478241487754	1478241487849	c	67
457549	4928412	Let me know which day is good for you.	Let me know which day is good for you.	233953182	1478241487841	1478241487897	h	72
457549	4928412	Let me know which day is good for you.	Let me know which day is good for you.	233953184	1478241487915	1478241488025	 	32
457549	4928412	Let me know which day is good for you.	Let me know which day is good for you.	233953186	1478241488023	1478241488111	d	68
457549	4928412	Let me know which day is good for you.	Let me know which day is good for you.	233953189	1478241488160	1478241488275	a	65
457549	4928412	Let me know which day is good for you.	Let me know which day is good for you.	233953188	1478241488208	1478241488251	y	89
457549	4928412	Let me know which day is good for you.	Let me know which day is good for you.	233953190	1478241488329	1478241488408	 	32
457549	4928412	Let me know which day is good for you.	Let me know which day is good for you.	233953201	1478241488381	1478241488452	i	73
457549	4928412	Let me know which day is good for you.	Let me know which day is good for you.	233953202	1478241488482	1478241488562	s	83
457549	4928412	Let me know which day is good for you.	Let me know which day is good for you.	233953203	1478241488538	1478241488633	 	32
457549	4928412	Let me know which day is good for you.	Let me know which day is good for you.	233953204	1478241488675	1478241488754	g	71
457549	4928412	Let me know which day is good for you.	Let me know which day is good for you.	233953206	1478241488743	1478241488802	o	79
457549	4928412	Let me know which day is good for you.	Let me know which day is good for you.	233953208	1478241488871	1478241488923	o	79
457549	4928412	Let me know which day is good for you.	Let me know which day is good for you.	233953215	1478241488967	1478241489058	d	68
457549	4928412	Let me know which day is good for you.	Let me know which day is good for you.	233953217	1478241489026	1478241489134	 	32
457549	4928412	Let me know which day is good for you.	Let me know which day is good for you.	233953219	1478241489139	1478241489206	f	70
457549	4928412	Let me know which day is good for you.	Let me know which day is good for you.	233953222	1478241489232	1478241489307	o	79
457549	4928412	Let me know which day is good for you.	Let me know which day is good for you.	233953288	1478241489300	1478241489391	r	82
457549	4928412	Let me know which day is good for you.	Let me know which day is good for you.	233953290	1478241489384	1478241489480	 	32
457549	4928412	Let me know which day is good for you.	Let me know which day is good for you.	233953293	1478241490094	1478241490118	y	89
457549	4928412	Let me know which day is good for you.	Let me know which day is good for you.	233953296	1478241490245	1478241490348	o	79
457549	4928412	Let me know which day is good for you.	Let me know which day is good for you.	233953298	1478241490297	1478241490404	u	85
457549	4928412	Let me know which day is good for you.	Let me know which day is good for you.	233953299	1478241490582	1478241490661	.	190
457549	4928417	It's this issue's featured eBook.	it's this issue's featured eBook.	233953423	1478241493074	1478241493231	SHIFT	16
457549	4928417	It's this issue's featured eBook.	it's this issue's featured eBook.	233953426	1478241493244	1478241493331	i	73
457549	4928417	It's this issue's featured eBook.	it's this issue's featured eBook.	233953432	1478241493365	1478241493448	t	84
457549	4928417	It's this issue's featured eBook.	it's this issue's featured eBook.	233953436	1478241493445	1478241493552	'	222
457549	4928417	It's this issue's featured eBook.	it's this issue's featured eBook.	233953442	1478241493601	1478241493712	s	83
457549	4928417	It's this issue's featured eBook.	it's this issue's featured eBook.	233953478	1478241493661	1478241493753	 	32
457549	4928417	It's this issue's featured eBook.	it's this issue's featured eBook.	233953482	1478241493810	1478241493909	t	84
457549	4928417	It's this issue's featured eBook.	it's this issue's featured eBook.	233953480	1478241493846	1478241493905	h	72
457549	4928417	It's this issue's featured eBook.	it's this issue's featured eBook.	233953484	1478241494162	1478241494253	i	73
457549	4928417	It's this issue's featured eBook.	it's this issue's featured eBook.	233953486	1478241494462	1478241494554	 	32
457549	4928417	It's this issue's featured eBook.	it's this issue's featured eBook.	233953488	1478241494583	1478241494670	s	83
457549	4928417	It's this issue's featured eBook.	it's this issue's featured eBook.	233953541	1478241494727	1478241494794	i	73
457549	4928417	It's this issue's featured eBook.	it's this issue's featured eBook.	233953542	1478241494983	1478241495054	BKSP	8
457549	4928417	It's this issue's featured eBook.	it's this issue's featured eBook.	233953543	1478241495128	1478241495179	BKSP	8
457549	4928417	It's this issue's featured eBook.	it's this issue's featured eBook.	233953546	1478241495266	1478241495327	BKSP	8
457549	4928417	It's this issue's featured eBook.	it's this issue's featured eBook.	233953547	1478241495417	1478241495481	BKSP	8
457549	4928417	It's this issue's featured eBook.	it's this issue's featured eBook.	233953548	1478241495550	1478241495645	s	83
457549	4928417	It's this issue's featured eBook.	it's this issue's featured eBook.	233953550	1478241495956	1478241496036	BKSP	8
457549	4928417	It's this issue's featured eBook.	it's this issue's featured eBook.	233953552	1478241496156	1478241496227	i	73
457549	4928417	It's this issue's featured eBook.	it's this issue's featured eBook.	233953554	1478241496267	1478241496335	s	83
457549	4928417	It's this issue's featured eBook.	it's this issue's featured eBook.	233953563	1478241496322	1478241496402	 	32
457549	4928417	It's this issue's featured eBook.	it's this issue's featured eBook.	233953565	1478241496467	1478241496526	i	73
457549	4928417	It's this issue's featured eBook.	it's this issue's featured eBook.	233953568	1478241496561	1478241496613	s	83
457549	4928417	It's this issue's featured eBook.	it's this issue's featured eBook.	233953571	1478241496704	1478241496775	s	83
457549	4928417	It's this issue's featured eBook.	it's this issue's featured eBook.	233953573	1478241496755	1478241496823	u	85
457549	4928417	It's this issue's featured eBook.	it's this issue's featured eBook.	233953575	1478241496923	1478241496980	e	69
457549	4928417	It's this issue's featured eBook.	it's this issue's featured eBook.	233953603	1478241496981	1478241497071	'	222
457549	4928417	It's this issue's featured eBook.	it's this issue's featured eBook.	233953606	1478241497158	1478241497266	s	83
457549	4928417	It's this issue's featured eBook.	it's this issue's featured eBook.	233953609	1478241497226	1478241497318	 	32
457549	4928417	It's this issue's featured eBook.	it's this issue's featured eBook.	233953613	1478241497553	1478241497676	f	70
457549	4928417	It's this issue's featured eBook.	it's this issue's featured eBook.	233953636	1478241497668	1478241497756	e	69
457549	4928417	It's this issue's featured eBook.	it's this issue's featured eBook.	233953641	1478241497834	1478241497905	a	65
457549	4928417	It's this issue's featured eBook.	it's this issue's featured eBook.	233953644	1478241497973	1478241498045	t	84
457549	4928417	It's this issue's featured eBook.	it's this issue's featured eBook.	233953648	1478241498050	1478241498129	u	85
457549	4928417	It's this issue's featured eBook.	it's this issue's featured eBook.	233953651	1478241498137	1478241498273	r	82
457549	4928417	It's this issue's featured eBook.	it's this issue's featured eBook.	233953685	1478241498230	1478241498325	e	69
457549	4928417	It's this issue's featured eBook.	it's this issue's featured eBook.	233953687	1478241498429	1478241498544	s	83
457549	4928417	It's this issue's featured eBook.	it's this issue's featured eBook.	233953690	1478241498679	1478241498758	BKSP	8
457549	4928417	It's this issue's featured eBook.	it's this issue's featured eBook.	233953692	1478241498781	1478241498869	d	68
457549	4928417	It's this issue's featured eBook.	it's this issue's featured eBook.	233953698	1478241498878	1478241498961	 	32
457549	4928417	It's this issue's featured eBook.	it's this issue's featured eBook.	233953702	1478241499158	1478241499257	e	69
457549	4928417	It's this issue's featured eBook.	it's this issue's featured eBook.	233953706	1478241499440	1478241499568	SHIFT	16
457549	4928417	It's this issue's featured eBook.	it's this issue's featured eBook.	233953716	1478241499524	1478241499608	B	66
457549	4928417	It's this issue's featured eBook.	it's this issue's featured eBook.	233953717	1478241499683	1478241499762	o	79
457549	4928417	It's this issue's featured eBook.	it's this issue's featured eBook.	233953718	1478241499818	1478241499881	o	79
457549	4928417	It's this issue's featured eBook.	it's this issue's featured eBook.	233953719	1478241499983	1478241500042	k	75
457549	4928417	It's this issue's featured eBook.	it's this issue's featured eBook.	233953720	1478241500360	1478241500447	.	190
457549	4928427	However, he is expected to play in this week's game.	However, he is epected to play in this week's game	233953955	1478241504045	1478241504238	SHIFT	16
457549	4928427	However, he is expected to play in this week's game.	However, he is epected to play in this week's game	233953959	1478241504180	1478241504303	H	72
457549	4928427	However, he is expected to play in this week's game.	However, he is epected to play in this week's game	233953961	1478241504356	1478241504467	o	79
457549	4928427	However, he is expected to play in this week's game.	However, he is epected to play in this week's game	233953964	1478241504468	1478241504545	w	87
457549	4928427	However, he is expected to play in this week's game.	However, he is epected to play in this week's game	233953966	1478241504632	1478241504715	e	69
457549	4928427	However, he is expected to play in this week's game.	However, he is epected to play in this week's game	233953967	1478241504782	1478241504873	v	86
457549	4928427	However, he is expected to play in this week's game.	However, he is epected to play in this week's game	233953997	1478241504920	1478241505047	e	69
457549	4928427	However, he is expected to play in this week's game.	However, he is epected to play in this week's game	233954003	1478241505032	1478241505105	r	82
457549	4928427	However, he is expected to play in this week's game.	However, he is epected to play in this week's game	233954008	1478241505100	1478241505203	,	188
457549	4928427	However, he is expected to play in this week's game.	However, he is epected to play in this week's game	233954012	1478241505239	1478241505318	 	32
457549	4928427	However, he is expected to play in this week's game.	However, he is epected to play in this week's game	233954015	1478241505361	1478241505432	h	72
457549	4928427	However, he is expected to play in this week's game.	However, he is epected to play in this week's game	233954024	1478241505456	1478241505535	e	69
457549	4928427	However, he is expected to play in this week's game.	However, he is epected to play in this week's game	233954026	1478241505540	1478241505612	 	32
457549	4928427	However, he is expected to play in this week's game.	However, he is epected to play in this week's game	233954027	1478241505691	1478241505779	i	73
457549	4928427	However, he is expected to play in this week's game.	However, he is epected to play in this week's game	233954028	1478241505800	1478241505892	s	83
457549	4928427	However, he is expected to play in this week's game.	However, he is epected to play in this week's game	233954077	1478241505876	1478241505936	 	32
457549	4928427	However, he is expected to play in this week's game.	However, he is epected to play in this week's game	233954079	1478241506071	1478241506135	e	69
457549	4928427	However, he is expected to play in this week's game.	However, he is epected to play in this week's game	233954082	1478241506329	1478241506421	p	80
457549	4928427	However, he is expected to play in this week's game.	However, he is epected to play in this week's game	233954086	1478241506443	1478241506510	e	69
457549	4928427	However, he is expected to play in this week's game.	However, he is epected to play in this week's game	233954090	1478241506630	1478241506722	c	67
457549	4928427	However, he is expected to play in this week's game.	However, he is epected to play in this week's game	233954094	1478241506790	1478241506861	t	84
457549	4928427	However, he is expected to play in this week's game.	However, he is epected to play in this week's game	233954105	1478241506927	1478241507001	e	69
457549	4928427	However, he is expected to play in this week's game.	However, he is epected to play in this week's game	233954108	1478241507070	1478241507158	d	68
457549	4928427	However, he is expected to play in this week's game.	However, he is epected to play in this week's game	233954111	1478241507166	1478241507226	 	32
457549	4928427	However, he is expected to play in this week's game.	However, he is epected to play in this week's game	233954114	1478241507253	1478241507324	t	84
457549	4928427	However, he is expected to play in this week's game.	However, he is epected to play in this week's game	233954132	1478241507317	1478241507404	o	79
457549	4928427	However, he is expected to play in this week's game.	However, he is epected to play in this week's game	233954134	1478241507410	1478241507489	 	32
457549	4928427	However, he is expected to play in this week's game.	However, he is epected to play in this week's game	233954136	1478241507517	1478241507580	p	80
457549	4928427	However, he is expected to play in this week's game.	However, he is epected to play in this week's game	233954138	1478241507680	1478241507761	l	76
457549	4928427	However, he is expected to play in this week's game.	However, he is epected to play in this week's game	233954141	1478241507790	1478241507890	a	65
457549	4928427	However, he is expected to play in this week's game.	However, he is epected to play in this week's game	233954158	1478241507886	1478241507945	y	89
457549	4928427	However, he is expected to play in this week's game.	However, he is epected to play in this week's game	233954160	1478241508056	1478241508147	 	32
457549	4928427	However, he is expected to play in this week's game.	However, he is epected to play in this week's game	233954164	1478241508201	1478241508365	i	73
457549	4928427	However, he is expected to play in this week's game.	However, he is epected to play in this week's game	233954166	1478241508306	1478241508409	n	78
457549	4928427	However, he is expected to play in this week's game.	However, he is epected to play in this week's game	233954169	1478241508428	1478241508515	 	32
457549	4928427	However, he is expected to play in this week's game.	However, he is epected to play in this week's game	233954216	1478241508495	1478241508551	t	84
457549	4928427	However, he is expected to play in this week's game.	However, he is epected to play in this week's game	233954218	1478241508591	1478241508627	h	72
457549	4928427	However, he is expected to play in this week's game.	However, he is epected to play in this week's game	233954222	1478241509155	1478241509239	i	73
457549	4928427	However, he is expected to play in this week's game.	However, he is epected to play in this week's game	233954228	1478241509333	1478241509437	s	83
457549	4928427	However, he is expected to play in this week's game.	However, he is epected to play in this week's game	233954235	1478241509400	1478241509500	 	32
457549	4928427	However, he is expected to play in this week's game.	However, he is epected to play in this week's game	233954240	1478241509639	1478241509722	w	87
457549	4928427	However, he is expected to play in this week's game.	However, he is epected to play in this week's game	233954282	1478241509817	1478241509881	e	69
457549	4928427	However, he is expected to play in this week's game.	However, he is epected to play in this week's game	233954284	1478241509927	1478241509991	e	69
457549	4928427	However, he is expected to play in this week's game.	However, he is epected to play in this week's game	233954287	1478241510015	1478241510054	k	75
457549	4928427	However, he is expected to play in this week's game.	However, he is epected to play in this week's game	233954289	1478241510300	1478241510400	'	222
457549	4928427	However, he is expected to play in this week's game.	However, he is epected to play in this week's game	233954294	1478241510434	1478241510526	s	83
457549	4928427	However, he is expected to play in this week's game.	However, he is epected to play in this week's game	233954347	1478241510570	1478241510657	 	32
457549	4928427	However, he is expected to play in this week's game.	However, he is epected to play in this week's game	233954350	1478241510714	1478241510830	f	70
457549	4928427	However, he is expected to play in this week's game.	However, he is epected to play in this week's game	233954354	1478241511131	1478241511215	BKSP	8
457549	4928427	However, he is expected to play in this week's game.	However, he is epected to play in this week's game	233954358	1478241511257	1478241511337	g	71
457549	4928427	However, he is expected to play in this week's game.	However, he is epected to play in this week's game	233954361	1478241511442	1478241511510	a	65
457549	4928427	However, he is expected to play in this week's game.	However, he is epected to play in this week's game	233954366	1478241511482	1478241511566	m	77
457549	4928427	However, he is expected to play in this week's game.	However, he is epected to play in this week's game	233954371	1478241511612	1478241511684	e	69
457549	4928441	He's a questionable Fantasy player to begin with.	He's a questioanble Fantasy player to begin with. 	233954500	1478241513411	1478241513626	SHIFT	16
457549	4928441	He's a questionable Fantasy player to begin with.	He's a questioanble Fantasy player to begin with. 	233954503	1478241513543	1478241513643	H	72
457549	4928441	He's a questionable Fantasy player to begin with.	He's a questioanble Fantasy player to begin with. 	233954506	1478241513786	1478241513914	e	69
457549	4928441	He's a questionable Fantasy player to begin with.	He's a questioanble Fantasy player to begin with. 	233954509	1478241513918	1478241513974	 	32
457549	4928441	He's a questionable Fantasy player to begin with.	He's a questioanble Fantasy player to begin with. 	233954513	1478241514124	1478241514201	i	73
457549	4928441	He's a questionable Fantasy player to begin with.	He's a questioanble Fantasy player to begin with. 	233954520	1478241514217	1478241514293	s	83
457549	4928441	He's a questionable Fantasy player to begin with.	He's a questioanble Fantasy player to begin with. 	233954587	1478241514289	1478241514369	 	32
457549	4928441	He's a questionable Fantasy player to begin with.	He's a questioanble Fantasy player to begin with. 	233954592	1478241514603	1478241514671	BKSP	8
457549	4928441	He's a questionable Fantasy player to begin with.	He's a questioanble Fantasy player to begin with. 	233954594	1478241514744	1478241514803	BKSP	8
457549	4928441	He's a questionable Fantasy player to begin with.	He's a questioanble Fantasy player to begin with. 	233954598	1478241514880	1478241514948	BKSP	8
457549	4928441	He's a questionable Fantasy player to begin with.	He's a questioanble Fantasy player to begin with. 	233954601	1478241515009	1478241515089	BKSP	8
457549	4928441	He's a questionable Fantasy player to begin with.	He's a questioanble Fantasy player to begin with. 	233954604	1478241515238	1478241515333	'	222
457549	4928441	He's a questionable Fantasy player to begin with.	He's a questioanble Fantasy player to begin with. 	233954608	1478241515349	1478241515426	s	83
457549	4928441	He's a questionable Fantasy player to begin with.	He's a questioanble Fantasy player to begin with. 	233954613	1478241515462	1478241515510	 	32
457549	4928441	He's a questionable Fantasy player to begin with.	He's a questioanble Fantasy player to begin with. 	233954615	1478241515522	1478241515630	a	65
457549	4928441	He's a questionable Fantasy player to begin with.	He's a questioanble Fantasy player to begin with. 	233954635	1478241515602	1478241515686	 	32
457549	4928441	He's a questionable Fantasy player to begin with.	He's a questioanble Fantasy player to begin with. 	233954638	1478241515923	1478241515999	q	81
457549	4928441	He's a questionable Fantasy player to begin with.	He's a questioanble Fantasy player to begin with. 	233954642	1478241516165	1478241516249	u	85
457549	4928441	He's a questionable Fantasy player to begin with.	He's a questioanble Fantasy player to begin with. 	233954644	1478241516272	1478241516332	e	69
457549	4928441	He's a questionable Fantasy player to begin with.	He's a questioanble Fantasy player to begin with. 	233954647	1478241516437	1478241516508	s	83
457549	4928441	He's a questionable Fantasy player to begin with.	He's a questioanble Fantasy player to begin with. 	233954650	1478241516588	1478241516653	t	84
457549	4928441	He's a questionable Fantasy player to begin with.	He's a questioanble Fantasy player to begin with. 	233954685	1478241516613	1478241516777	i	73
457549	4928441	He's a questionable Fantasy player to begin with.	He's a questioanble Fantasy player to begin with. 	233954687	1478241516685	1478241516832	o	79
457549	4928441	He's a questionable Fantasy player to begin with.	He's a questioanble Fantasy player to begin with. 	233954690	1478241516821	1478241516901	a	65
457549	4928441	He's a questionable Fantasy player to begin with.	He's a questioanble Fantasy player to begin with. 	233954692	1478241517003	1478241517075	n	78
457549	4928441	He's a questionable Fantasy player to begin with.	He's a questioanble Fantasy player to begin with. 	233954694	1478241517203	1478241517267	b	66
457549	4928441	He's a questionable Fantasy player to begin with.	He's a questioanble Fantasy player to begin with. 	233954696	1478241517396	1478241517512	l	76
457549	4928441	He's a questionable Fantasy player to begin with.	He's a questioanble Fantasy player to begin with. 	233954742	1478241517515	1478241517592	e	69
457549	4928441	He's a questionable Fantasy player to begin with.	He's a questioanble Fantasy player to begin with. 	233954748	1478241517592	1478241517704	 	32
457549	4928441	He's a questionable Fantasy player to begin with.	He's a questioanble Fantasy player to begin with. 	233954752	1478241518113	1478241518233	SHIFT	16
457549	4928441	He's a questionable Fantasy player to begin with.	He's a questioanble Fantasy player to begin with. 	233954757	1478241518173	1478241518237	F	70
457549	4928441	He's a questionable Fantasy player to begin with.	He's a questioanble Fantasy player to begin with. 	233954763	1478241518326	1478241518406	a	65
457549	4928441	He's a questionable Fantasy player to begin with.	He's a questioanble Fantasy player to begin with. 	233954796	1478241518382	1478241518462	n	78
457549	4928441	He's a questionable Fantasy player to begin with.	He's a questioanble Fantasy player to begin with. 	233954802	1478241518487	1478241518559	t	84
457549	4928441	He's a questionable Fantasy player to begin with.	He's a questioanble Fantasy player to begin with. 	233954808	1478241518654	1478241518806	a	65
457549	4928441	He's a questionable Fantasy player to begin with.	He's a questioanble Fantasy player to begin with. 	233954815	1478241518758	1478241518871	s	83
457549	4928441	He's a questionable Fantasy player to begin with.	He's a questioanble Fantasy player to begin with. 	233954819	1478241518850	1478241518930	y	89
457549	4928441	He's a questionable Fantasy player to begin with.	He's a questioanble Fantasy player to begin with. 	233954822	1478241518976	1478241519088	 	32
457549	4928441	He's a questionable Fantasy player to begin with.	He's a questioanble Fantasy player to begin with. 	233954878	1478241519399	1478241519475	p	80
457549	4928441	He's a questionable Fantasy player to begin with.	He's a questioanble Fantasy player to begin with. 	233954880	1478241519573	1478241519656	l	76
457549	4928441	He's a questionable Fantasy player to begin with.	He's a questioanble Fantasy player to begin with. 	233954883	1478241519649	1478241519769	a	65
457549	4928441	He's a questionable Fantasy player to begin with.	He's a questioanble Fantasy player to begin with. 	233954889	1478241519777	1478241519857	y	89
457549	4928441	He's a questionable Fantasy player to begin with.	He's a questioanble Fantasy player to begin with. 	233954892	1478241519910	1478241520050	e	69
457549	4928441	He's a questionable Fantasy player to begin with.	He's a questioanble Fantasy player to begin with. 	233954900	1478241520014	1478241520121	r	82
457549	4928441	He's a questionable Fantasy player to begin with.	He's a questioanble Fantasy player to begin with. 	233954901	1478241520098	1478241520186	 	32
457549	4928441	He's a questionable Fantasy player to begin with.	He's a questioanble Fantasy player to begin with. 	233954903	1478241520233	1478241520312	t	84
457549	4928441	He's a questionable Fantasy player to begin with.	He's a questioanble Fantasy player to begin with. 	233954906	1478241520297	1478241520369	o	79
457549	4928441	He's a questionable Fantasy player to begin with.	He's a questioanble Fantasy player to begin with. 	233954910	1478241520377	1478241520449	 	32
457549	4928441	He's a questionable Fantasy player to begin with.	He's a questioanble Fantasy player to begin with. 	233954916	1478241520476	1478241520556	b	66
457549	4928441	He's a questionable Fantasy player to begin with.	He's a questioanble Fantasy player to begin with. 	233954940	1478241520557	1478241520636	e	69
457549	4928441	He's a questionable Fantasy player to begin with.	He's a questioanble Fantasy player to begin with. 	233954947	1478241520704	1478241520816	g	71
457549	4928441	He's a questionable Fantasy player to begin with.	He's a questioanble Fantasy player to begin with. 	233954955	1478241520812	1478241520955	i	73
457549	4928441	He's a questionable Fantasy player to begin with.	He's a questioanble Fantasy player to begin with. 	233954962	1478241520900	1478241521008	n	78
457549	4928441	He's a questionable Fantasy player to begin with.	He's a questioanble Fantasy player to begin with. 	233955011	1478241521004	1478241521100	 	32
457549	4928441	He's a questionable Fantasy player to begin with.	He's a questioanble Fantasy player to begin with. 	233955012	1478241521155	1478241521227	w	87
457549	4928441	He's a questionable Fantasy player to begin with.	He's a questioanble Fantasy player to begin with. 	233955013	1478241521239	1478241521299	i	73
457549	4928441	He's a questionable Fantasy player to begin with.	He's a questioanble Fantasy player to begin with. 	233955014	1478241521316	1478241521400	t	84
457549	4928441	He's a questionable Fantasy player to begin with.	He's a questioanble Fantasy player to begin with. 	233955015	1478241521412	1478241521467	h	72
457549	4928441	He's a questionable Fantasy player to begin with.	He's a questioanble Fantasy player to begin with. 	233955016	1478241521591	1478241521690	.	190
457549	4928441	He's a questionable Fantasy player to begin with.	He's a questioanble Fantasy player to begin with. 	233955017	1478241521679	1478241521734	 	32
457549	4928457	I decided that I am going to stay here!	I decdided that I am going to stay here!	233955172	1478241523176	1478241523383	SHIFT	16
457549	4928457	I decided that I am going to stay here!	I decdided that I am going to stay here!	233955174	1478241523344	1478241523452	I	73
457549	4928457	I decided that I am going to stay here!	I decdided that I am going to stay here!	233955175	1478241523468	1478241523615	 	32
457549	4928457	I decided that I am going to stay here!	I decdided that I am going to stay here!	233955176	1478241523633	1478241523784	d	68
457549	4928457	I decided that I am going to stay here!	I decdided that I am going to stay here!	233955177	1478241523717	1478241523841	e	69
457549	4928457	I decided that I am going to stay here!	I decdided that I am going to stay here!	233955179	1478241523969	1478241524001	a	65
457549	4928457	I decided that I am going to stay here!	I decdided that I am going to stay here!	233955269	1478241524283	1478241524360	BKSP	8
457549	4928457	I decided that I am going to stay here!	I decdided that I am going to stay here!	233955273	1478241525088	1478241525179	c	67
457549	4928457	I decided that I am going to stay here!	I decdided that I am going to stay here!	233955279	1478241525280	1478241525363	d	68
457549	4928457	I decided that I am going to stay here!	I decdided that I am going to stay here!	233955284	1478241525368	1478241525444	i	73
457549	4928457	I decided that I am going to stay here!	I decdided that I am going to stay here!	233955288	1478241525448	1478241525492	d	68
457549	4928457	I decided that I am going to stay here!	I decdided that I am going to stay here!	233955292	1478241525585	1478241525616	e	69
457549	4928457	I decided that I am going to stay here!	I decdided that I am going to stay here!	233955325	1478241525776	1478241525903	d	68
457549	4928457	I decided that I am going to stay here!	I decdided that I am going to stay here!	233955330	1478241525938	1478241526029	 	32
457549	4928457	I decided that I am going to stay here!	I decdided that I am going to stay here!	233955334	1478241526042	1478241526121	t	84
457549	4928457	I decided that I am going to stay here!	I decdided that I am going to stay here!	233955338	1478241526156	1478241526239	h	72
457549	4928457	I decided that I am going to stay here!	I decdided that I am going to stay here!	233955410	1478241526228	1478241526303	a	65
457549	4928457	I decided that I am going to stay here!	I decdided that I am going to stay here!	233955412	1478241526352	1478241526452	t	84
457549	4928457	I decided that I am going to stay here!	I decdided that I am going to stay here!	233955417	1478241526416	1478241526499	 	32
457549	4928457	I decided that I am going to stay here!	I decdided that I am going to stay here!	233955418	1478241526636	1478241526784	SHIFT	16
457549	4928457	I decided that I am going to stay here!	I decdided that I am going to stay here!	233955422	1478241526733	1478241526824	I	73
457549	4928457	I decided that I am going to stay here!	I decdided that I am going to stay here!	233955426	1478241526817	1478241526892	 	32
457549	4928457	I decided that I am going to stay here!	I decdided that I am going to stay here!	233955430	1478241526941	1478241527056	a	65
457549	4928457	I decided that I am going to stay here!	I decdided that I am going to stay here!	233955456	1478241527009	1478241527092	m	77
457549	4928457	I decided that I am going to stay here!	I decdided that I am going to stay here!	233955460	1478241527144	1478241527239	 	32
457549	4928457	I decided that I am going to stay here!	I decdided that I am going to stay here!	233955465	1478241527378	1478241527473	g	71
457549	4928457	I decided that I am going to stay here!	I decdided that I am going to stay here!	233955469	1478241527458	1478241527545	o	79
457549	4928457	I decided that I am going to stay here!	I decdided that I am going to stay here!	233955472	1478241527510	1478241527657	i	73
457549	4928457	I decided that I am going to stay here!	I decdided that I am going to stay here!	233955505	1478241527598	1478241527713	n	78
457549	4928457	I decided that I am going to stay here!	I decdided that I am going to stay here!	233955509	1478241527650	1478241527737	g	71
457549	4928457	I decided that I am going to stay here!	I decdided that I am going to stay here!	233955513	1478241527757	1478241527854	 	32
457549	4928457	I decided that I am going to stay here!	I decdided that I am going to stay here!	233955517	1478241527845	1478241527938	t	84
457549	4928457	I decided that I am going to stay here!	I decdided that I am going to stay here!	233955520	1478241527921	1478241528020	o	79
457549	4928457	I decided that I am going to stay here!	I decdided that I am going to stay here!	233955525	1478241527977	1478241528080	 	32
457549	4928457	I decided that I am going to stay here!	I decdided that I am going to stay here!	233955527	1478241528159	1478241528235	s	83
457549	4928457	I decided that I am going to stay here!	I decdided that I am going to stay here!	233955536	1478241528299	1478241528363	t	84
457549	4928457	I decided that I am going to stay here!	I decdided that I am going to stay here!	233955537	1478241528459	1478241528543	a	65
457549	4928457	I decided that I am going to stay here!	I decdided that I am going to stay here!	233955540	1478241528515	1478241528595	y	89
457549	4928457	I decided that I am going to stay here!	I decdided that I am going to stay here!	233955544	1478241528621	1478241528701	 	32
457549	4928457	I decided that I am going to stay here!	I decdided that I am going to stay here!	233955549	1478241528735	1478241528806	h	72
457549	4928457	I decided that I am going to stay here!	I decdided that I am going to stay here!	233955600	1478241528810	1478241528898	e	69
457549	4928457	I decided that I am going to stay here!	I decdided that I am going to stay here!	233955605	1478241528891	1478241529007	r	82
457549	4928457	I decided that I am going to stay here!	I decdided that I am going to stay here!	233955612	1478241528983	1478241529086	e	69
457549	4928457	I decided that I am going to stay here!	I decdided that I am going to stay here!	233955683	1478241529062	1478241529754	SHIFT	16
457549	4928457	I decided that I am going to stay here!	I decdided that I am going to stay here!	233955620	1478241529407	1478241529586	!	49
457549	4928457	I decided that I am going to stay here!	I decdided that I am going to stay here!	233955625	1478241529635	1478241529738	"	222
457549	4928457	I decided that I am going to stay here!	I decdided that I am going to stay here!	233955687	1478241530189	1478241530276	BKSP	8
457549	4928472	Did you not read my first email?	Did you not read my first email?	233955796	1478241531940	1478241532152	SHIFT	16
457549	4928472	Did you not read my first email?	Did you not read my first email?	233955798	1478241532113	1478241532229	D	68
457549	4928472	Did you not read my first email?	Did you not read my first email?	233955799	1478241532247	1478241532338	i	73
457549	4928472	Did you not read my first email?	Did you not read my first email?	233955801	1478241532331	1478241532418	d	68
457549	4928472	Did you not read my first email?	Did you not read my first email?	233955805	1478241532427	1478241532506	 	32
457549	4928472	Did you not read my first email?	Did you not read my first email?	233955808	1478241532601	1478241532681	y	89
457549	4928472	Did you not read my first email?	Did you not read my first email?	233955828	1478241532755	1478241532875	o	79
457549	4928472	Did you not read my first email?	Did you not read my first email?	233955832	1478241532860	1478241532891	u	85
457549	4928472	Did you not read my first email?	Did you not read my first email?	233955836	1478241532929	1478241533028	 	32
457549	4928472	Did you not read my first email?	Did you not read my first email?	233955842	1478241533072	1478241533160	k	75
457549	4928472	Did you not read my first email?	Did you not read my first email?	233955913	1478241533157	1478241533256	n	78
457549	4928472	Did you not read my first email?	Did you not read my first email?	233955916	1478241533310	1478241533385	o	79
457549	4928472	Did you not read my first email?	Did you not read my first email?	233955919	1478241533398	1478241533449	t	84
457549	4928472	Did you not read my first email?	Did you not read my first email?	233955920	1478241533544	1478241533616	BKSP	8
457549	4928472	Did you not read my first email?	Did you not read my first email?	233955921	1478241533683	1478241533739	BKSP	8
457549	4928472	Did you not read my first email?	Did you not read my first email?	233955922	1478241533807	1478241533867	BKSP	8
457549	4928472	Did you not read my first email?	Did you not read my first email?	233955923	1478241534174	1478241534237	BKSP	8
457549	4928472	Did you not read my first email?	Did you not read my first email?	233955924	1478241534352	1478241534441	n	78
457549	4928472	Did you not read my first email?	Did you not read my first email?	233955925	1478241534491	1478241534562	o	79
457549	4928472	Did you not read my first email?	Did you not read my first email?	233955927	1478241534585	1478241534648	t	84
457549	4928472	Did you not read my first email?	Did you not read my first email?	233955945	1478241534669	1478241534778	 	32
457549	4928472	Did you not read my first email?	Did you not read my first email?	233955952	1478241534790	1478241534954	r	82
457549	4928472	Did you not read my first email?	Did you not read my first email?	233955961	1478241534902	1478241535026	e	69
457549	4928472	Did you not read my first email?	Did you not read my first email?	233955967	1478241535077	1478241535237	a	65
457549	4928472	Did you not read my first email?	Did you not read my first email?	233955993	1478241535221	1478241535332	d	68
457549	4928472	Did you not read my first email?	Did you not read my first email?	233955995	1478241535313	1478241535389	 	32
457549	4928472	Did you not read my first email?	Did you not read my first email?	233955996	1478241535435	1478241535547	m	77
457549	4928472	Did you not read my first email?	Did you not read my first email?	233955998	1478241535512	1478241535619	y	89
457549	4928472	Did you not read my first email?	Did you not read my first email?	233956002	1478241535643	1478241535719	 	32
457549	4928472	Did you not read my first email?	Did you not read my first email?	233956006	1478241535805	1478241535916	f	70
457549	4928472	Did you not read my first email?	Did you not read my first email?	233956026	1478241535933	1478241536016	i	73
457549	4928472	Did you not read my first email?	Did you not read my first email?	233956029	1478241535985	1478241536080	r	82
457549	4928472	Did you not read my first email?	Did you not read my first email?	233956033	1478241536189	1478241536268	s	83
457549	4928472	Did you not read my first email?	Did you not read my first email?	233956036	1478241536329	1478241536417	t	84
457549	4928472	Did you not read my first email?	Did you not read my first email?	233956038	1478241536430	1478241536525	 	32
457549	4928472	Did you not read my first email?	Did you not read my first email?	233956089	1478241536542	1478241536637	e	69
457549	4928472	Did you not read my first email?	Did you not read my first email?	233956093	1478241536633	1478241536693	m	77
457549	4928472	Did you not read my first email?	Did you not read my first email?	233956095	1478241537053	1478241537172	a	65
457549	4928472	Did you not read my first email?	Did you not read my first email?	233956098	1478241537157	1478241537228	i	73
457549	4928472	Did you not read my first email?	Did you not read my first email?	233956100	1478241537324	1478241537435	l	76
457549	4928472	Did you not read my first email?	Did you not read my first email?	233956120	1478241537588	1478241537800	SHIFT	16
457549	4928472	Did you not read my first email?	Did you not read my first email?	233956117	1478241537688	1478241537796	?	191
457549	4928481	Jan has a lot of detail.	Jan has a lot of detail.	233956264	1478241539228	1478241539580	SHIFT	16
457549	4928481	Jan has a lot of detail.	Jan has a lot of detail.	233956267	1478241539533	1478241539620	J	74
457549	4928481	Jan has a lot of detail.	Jan has a lot of detail.	233956270	1478241539666	1478241539749	a	65
457549	4928481	Jan has a lot of detail.	Jan has a lot of detail.	233956274	1478241539728	1478241539813	n	78
457549	4928481	Jan has a lot of detail.	Jan has a lot of detail.	233956276	1478241539846	1478241539961	 	32
457549	4928481	Jan has a lot of detail.	Jan has a lot of detail.	233956279	1478241540044	1478241540123	h	72
457549	4928481	Jan has a lot of detail.	Jan has a lot of detail.	233956308	1478241540100	1478241540239	a	65
457549	4928481	Jan has a lot of detail.	Jan has a lot of detail.	233956311	1478241540203	1478241540319	s	83
457549	4928481	Jan has a lot of detail.	Jan has a lot of detail.	233956316	1478241540307	1478241540387	 	32
457549	4928481	Jan has a lot of detail.	Jan has a lot of detail.	233956320	1478241540693	1478241540809	l	76
457549	4928481	Jan has a lot of detail.	Jan has a lot of detail.	233956323	1478241541057	1478241541121	BKSP	8
457549	4928481	Jan has a lot of detail.	Jan has a lot of detail.	233956326	1478241541169	1478241541276	a	65
457549	4928481	Jan has a lot of detail.	Jan has a lot of detail.	233956335	1478241541252	1478241541320	 	32
457549	4928481	Jan has a lot of detail.	Jan has a lot of detail.	233956337	1478241541386	1478241541470	l	76
457549	4928481	Jan has a lot of detail.	Jan has a lot of detail.	233956338	1478241541531	1478241541611	t	84
457549	4928481	Jan has a lot of detail.	Jan has a lot of detail.	233956340	1478241541567	1478241541619	o	79
457549	4928481	Jan has a lot of detail.	Jan has a lot of detail.	233956341	1478241541713	1478241541823	 	32
457549	4928481	Jan has a lot of detail.	Jan has a lot of detail.	233956412	1478241541821	1478241541929	f	70
457549	4928481	Jan has a lot of detail.	Jan has a lot of detail.	233956414	1478241541890	1478241541981	o	79
457549	4928481	Jan has a lot of detail.	Jan has a lot of detail.	233956419	1478241542215	1478241542291	BKSP	8
457549	4928481	Jan has a lot of detail.	Jan has a lot of detail.	233956426	1478241542380	1478241542448	BKSP	8
457549	4928481	Jan has a lot of detail.	Jan has a lot of detail.	233956429	1478241542523	1478241542587	BKSP	8
457549	4928481	Jan has a lot of detail.	Jan has a lot of detail.	233956432	1478241542663	1478241542735	BKSP	8
457549	4928481	Jan has a lot of detail.	Jan has a lot of detail.	233956435	1478241542812	1478241542880	BKSP	8
457549	4928481	Jan has a lot of detail.	Jan has a lot of detail.	233956437	1478241542997	1478241543100	o	79
457549	4928481	Jan has a lot of detail.	Jan has a lot of detail.	233956439	1478241543040	1478241543144	t	84
457549	4928481	Jan has a lot of detail.	Jan has a lot of detail.	233956442	1478241543204	1478241543304	 	32
457549	4928481	Jan has a lot of detail.	Jan has a lot of detail.	233956445	1478241543498	1478241543594	o	79
457549	4928481	Jan has a lot of detail.	Jan has a lot of detail.	233956456	1478241543620	1478241543708	f	70
457549	4928481	Jan has a lot of detail.	Jan has a lot of detail.	233956459	1478241543729	1478241543824	 	32
457549	4928481	Jan has a lot of detail.	Jan has a lot of detail.	233956463	1478241543845	1478241543905	f	70
457549	4928481	Jan has a lot of detail.	Jan has a lot of detail.	233956465	1478241544095	1478241544187	BKSP	8
457549	4928481	Jan has a lot of detail.	Jan has a lot of detail.	233956468	1478241544254	1478241544330	d	68
457549	4928481	Jan has a lot of detail.	Jan has a lot of detail.	233956470	1478241544412	1478241544484	e	69
457549	4928481	Jan has a lot of detail.	Jan has a lot of detail.	233956505	1478241544690	1478241544766	t	84
457549	4928481	Jan has a lot of detail.	Jan has a lot of detail.	233956506	1478241544882	1478241544985	a	65
457549	4928481	Jan has a lot of detail.	Jan has a lot of detail.	233956510	1478241544942	1478241545005	i	73
457549	4928481	Jan has a lot of detail.	Jan has a lot of detail.	233956514	1478241545078	1478241545175	l	76
457549	4928481	Jan has a lot of detail.	Jan has a lot of detail.	233956519	1478241545311	1478241545390	.	190
