PARTICIPANT_ID	TEST_SECTION_ID	SENTENCE	USER_INPUT	KEYSTROKE_ID	PRESS_TIME	RELEASE_TIME	LETTER	KEYCODE
459536	4948592	Megan, try this for Phillips.	Mgean, try this for phillips.	234912244	1478270230662	1478270230831	SHIFT	16
459536	4948592	Megan, try this for Phillips.	Mgean, try this for phillips.	234912250	1478270230752	1478270230854	M	77
459536	4948592	Megan, try this for Phillips.	Mgean, try this for phillips.	234912259	1478270230983	1478270231066	g	71
459536	4948592	Megan, try this for Phillips.	Mgean, try this for phillips.	234912268	1478270231082	1478270231204	e	69
459536	4948592	Megan, try this for Phillips.	Mgean, try this for phillips.	234912275	1478270231291	1478270231415	a	65
459536	4948592	Megan, try this for Phillips.	Mgean, try this for phillips.	234912421	1478270231374	1478270231465	n	78
459536	4948592	Megan, try this for Phillips.	Mgean, try this for phillips.	234912427	1478270231619	1478270231761	,	188
459536	4948592	Megan, try this for Phillips.	Mgean, try this for phillips.	234912433	1478270231858	1478270231936	 	32
459536	4948592	Megan, try this for Phillips.	Mgean, try this for phillips.	234912440	1478270232030	1478270232180	t	84
459536	4948592	Megan, try this for Phillips.	Mgean, try this for phillips.	234912446	1478270232293	1478270232423	r	82
459536	4948592	Megan, try this for Phillips.	Mgean, try this for phillips.	234912452	1478270232882	1478270232978	y	89
459536	4948592	Megan, try this for Phillips.	Mgean, try this for phillips.	234912467	1478270233070	1478270233150	 	32
459536	4948592	Megan, try this for Phillips.	Mgean, try this for phillips.	234912470	1478270233104	1478270233213	t	84
459536	4948592	Megan, try this for Phillips.	Mgean, try this for phillips.	234912475	1478270233232	1478270233353	h	72
459536	4948592	Megan, try this for Phillips.	Mgean, try this for phillips.	234912480	1478270233294	1478270233402	i	73
459536	4948592	Megan, try this for Phillips.	Mgean, try this for phillips.	234912529	1478270233394	1478270233509	s	83
459536	4948592	Megan, try this for Phillips.	Mgean, try this for phillips.	234912535	1478270233472	1478270233572	 	32
459536	4948592	Megan, try this for Phillips.	Mgean, try this for phillips.	234912541	1478270233606	1478270233704	f	70
459536	4948592	Megan, try this for Phillips.	Mgean, try this for phillips.	234912546	1478270233677	1478270233802	o	79
459536	4948592	Megan, try this for Phillips.	Mgean, try this for phillips.	234912549	1478270233798	1478270233897	r	82
459536	4948592	Megan, try this for Phillips.	Mgean, try this for phillips.	234912609	1478270233848	1478270233944	 	32
459536	4948592	Megan, try this for Phillips.	Mgean, try this for phillips.	234912615	1478270234007	1478270234111	p	80
459536	4948592	Megan, try this for Phillips.	Mgean, try this for phillips.	234912622	1478270234201	1478270234287	h	72
459536	4948592	Megan, try this for Phillips.	Mgean, try this for phillips.	234912628	1478270234347	1478270234472	i	73
459536	4948592	Megan, try this for Phillips.	Mgean, try this for phillips.	234912635	1478270234676	1478270234776	l	76
459536	4948592	Megan, try this for Phillips.	Mgean, try this for phillips.	234912644	1478270234831	1478270234942	l	76
459536	4948592	Megan, try this for Phillips.	Mgean, try this for phillips.	234912728	1478270235030	1478270235181	i	73
459536	4948592	Megan, try this for Phillips.	Mgean, try this for phillips.	234912736	1478270235139	1478270235263	p	80
459536	4948592	Megan, try this for Phillips.	Mgean, try this for phillips.	234912744	1478270235251	1478270235344	s	83
459536	4948592	Megan, try this for Phillips.	Mgean, try this for phillips.	234912753	1478270235337	1478270235433	.	190
459536	4948615	You're down by 5 and need to score in 4 plays or less.	You're down by 5 and need to score in 4 plays or less.	234913281	1478270241684	1478270241853	SHIFT	16
459536	4948615	You're down by 5 and need to score in 4 plays or less.	You're down by 5 and need to score in 4 plays or less.	234913284	1478270241757	1478270241856	Y	89
459536	4948615	You're down by 5 and need to score in 4 plays or less.	You're down by 5 and need to score in 4 plays or less.	234913287	1478270242206	1478270242337	o	79
459536	4948615	You're down by 5 and need to score in 4 plays or less.	You're down by 5 and need to score in 4 plays or less.	234913292	1478270242275	1478270242377	u	85
459536	4948615	You're down by 5 and need to score in 4 plays or less.	You're down by 5 and need to score in 4 plays or less.	234913297	1478270242502	1478270242592	;	186
459536	4948615	You're down by 5 and need to score in 4 plays or less.	You're down by 5 and need to score in 4 plays or less.	234913301	1478270242621	1478270242723	r	82
459536	4948615	You're down by 5 and need to score in 4 plays or less.	You're down by 5 and need to score in 4 plays or less.	234913536	1478270242822	1478270242934	w	87
459536	4948615	You're down by 5 and need to score in 4 plays or less.	You're down by 5 and need to score in 4 plays or less.	234913540	1478270242916	1478270243017	 	32
459536	4948615	You're down by 5 and need to score in 4 plays or less.	You're down by 5 and need to score in 4 plays or less.	234913544	1478270243150	1478270243281	d	68
459536	4948615	You're down by 5 and need to score in 4 plays or less.	You're down by 5 and need to score in 4 plays or less.	234913548	1478270243485	1478270243572	BKSP	8
459536	4948615	You're down by 5 and need to score in 4 plays or less.	You're down by 5 and need to score in 4 plays or less.	234913550	1478270244448	1478270244534	BKSP	8
459536	4948615	You're down by 5 and need to score in 4 plays or less.	You're down by 5 and need to score in 4 plays or less.	234913554	1478270244622	1478270244721	BKSP	8
459536	4948615	You're down by 5 and need to score in 4 plays or less.	You're down by 5 and need to score in 4 plays or less.	234913557	1478270244803	1478270244918	BKSP	8
459536	4948615	You're down by 5 and need to score in 4 plays or less.	You're down by 5 and need to score in 4 plays or less.	234913563	1478270244977	1478270245073	BKSP	8
459536	4948615	You're down by 5 and need to score in 4 plays or less.	You're down by 5 and need to score in 4 plays or less.	234913569	1478270245580	1478270245679	'	222
459536	4948615	You're down by 5 and need to score in 4 plays or less.	You're down by 5 and need to score in 4 plays or less.	234913572	1478270245739	1478270245844	r	82
459536	4948615	You're down by 5 and need to score in 4 plays or less.	You're down by 5 and need to score in 4 plays or less.	234913582	1478270245965	1478270246095	e	69
459536	4948615	You're down by 5 and need to score in 4 plays or less.	You're down by 5 and need to score in 4 plays or less.	234913586	1478270246113	1478270246209	 	32
459536	4948615	You're down by 5 and need to score in 4 plays or less.	You're down by 5 and need to score in 4 plays or less.	234913591	1478270246190	1478270246308	d	68
459536	4948615	You're down by 5 and need to score in 4 plays or less.	You're down by 5 and need to score in 4 plays or less.	234913597	1478270246281	1478270246383	o	79
459536	4948615	You're down by 5 and need to score in 4 plays or less.	You're down by 5 and need to score in 4 plays or less.	234913654	1478270246381	1478270246504	w	87
459536	4948615	You're down by 5 and need to score in 4 plays or less.	You're down by 5 and need to score in 4 plays or less.	234913662	1478270246478	1478270246573	n	78
459536	4948615	You're down by 5 and need to score in 4 plays or less.	You're down by 5 and need to score in 4 plays or less.	234913669	1478270246633	1478270246722	 	32
459536	4948615	You're down by 5 and need to score in 4 plays or less.	You're down by 5 and need to score in 4 plays or less.	234913676	1478270246819	1478270246894	v	86
459536	4948615	You're down by 5 and need to score in 4 plays or less.	You're down by 5 and need to score in 4 plays or less.	234913680	1478270246851	1478270246958	y	89
459536	4948615	You're down by 5 and need to score in 4 plays or less.	You're down by 5 and need to score in 4 plays or less.	234913682	1478270247232	1478270247328	 	32
459536	4948615	You're down by 5 and need to score in 4 plays or less.	You're down by 5 and need to score in 4 plays or less.	234913805	1478270247638	1478270247742	BKSP	8
459536	4948615	You're down by 5 and need to score in 4 plays or less.	You're down by 5 and need to score in 4 plays or less.	234913807	1478270247799	1478270247892	BKSP	8
459536	4948615	You're down by 5 and need to score in 4 plays or less.	You're down by 5 and need to score in 4 plays or less.	234913809	1478270247963	1478270248048	BKSP	8
459536	4948615	You're down by 5 and need to score in 4 plays or less.	You're down by 5 and need to score in 4 plays or less.	234913811	1478270248399	1478270248520	b	66
459536	4948615	You're down by 5 and need to score in 4 plays or less.	You're down by 5 and need to score in 4 plays or less.	234913812	1478270248453	1478270248567	y	89
459536	4948615	You're down by 5 and need to score in 4 plays or less.	You're down by 5 and need to score in 4 plays or less.	234913813	1478270248642	1478270248746	 	32
459536	4948615	You're down by 5 and need to score in 4 plays or less.	You're down by 5 and need to score in 4 plays or less.	234913814	1478270248726	1478270248834	5	53
459536	4948615	You're down by 5 and need to score in 4 plays or less.	You're down by 5 and need to score in 4 plays or less.	234913816	1478270248850	1478270248959	 	32
459536	4948615	You're down by 5 and need to score in 4 plays or less.	You're down by 5 and need to score in 4 plays or less.	234913857	1478270249244	1478270249380	a	65
459536	4948615	You're down by 5 and need to score in 4 plays or less.	You're down by 5 and need to score in 4 plays or less.	234913862	1478270249356	1478270249459	n	78
459536	4948615	You're down by 5 and need to score in 4 plays or less.	You're down by 5 and need to score in 4 plays or less.	234913867	1478270249471	1478270249564	d	68
459536	4948615	You're down by 5 and need to score in 4 plays or less.	You're down by 5 and need to score in 4 plays or less.	234913872	1478270249530	1478270249611	 	32
459536	4948615	You're down by 5 and need to score in 4 plays or less.	You're down by 5 and need to score in 4 plays or less.	234913876	1478270249657	1478270249754	n	78
459536	4948615	You're down by 5 and need to score in 4 plays or less.	You're down by 5 and need to score in 4 plays or less.	234913906	1478270249701	1478270249828	e	69
459536	4948615	You're down by 5 and need to score in 4 plays or less.	You're down by 5 and need to score in 4 plays or less.	234913911	1478270249875	1478270249987	e	69
459536	4948615	You're down by 5 and need to score in 4 plays or less.	You're down by 5 and need to score in 4 plays or less.	234913917	1478270250071	1478270250162	d	68
459536	4948615	You're down by 5 and need to score in 4 plays or less.	You're down by 5 and need to score in 4 plays or less.	234913921	1478270250152	1478270250252	 	32
459536	4948615	You're down by 5 and need to score in 4 plays or less.	You're down by 5 and need to score in 4 plays or less.	234913923	1478270250245	1478270250372	t	84
459536	4948615	You're down by 5 and need to score in 4 plays or less.	You're down by 5 and need to score in 4 plays or less.	234913969	1478270250336	1478270250436	o	79
459536	4948615	You're down by 5 and need to score in 4 plays or less.	You're down by 5 and need to score in 4 plays or less.	234913974	1478270250490	1478270250579	 	32
459536	4948615	You're down by 5 and need to score in 4 plays or less.	You're down by 5 and need to score in 4 plays or less.	234913980	1478270250573	1478270250702	s	83
459536	4948615	You're down by 5 and need to score in 4 plays or less.	You're down by 5 and need to score in 4 plays or less.	234913986	1478270250804	1478270250975	c	67
459536	4948615	You're down by 5 and need to score in 4 plays or less.	You're down by 5 and need to score in 4 plays or less.	234913993	1478270251028	1478270251106	o	79
459536	4948615	You're down by 5 and need to score in 4 plays or less.	You're down by 5 and need to score in 4 plays or less.	234913998	1478270251122	1478270251230	r	82
459536	4948615	You're down by 5 and need to score in 4 plays or less.	You're down by 5 and need to score in 4 plays or less.	234914041	1478270251327	1478270251431	e	69
459536	4948615	You're down by 5 and need to score in 4 plays or less.	You're down by 5 and need to score in 4 plays or less.	234914043	1478270251432	1478270251545	 	32
459536	4948615	You're down by 5 and need to score in 4 plays or less.	You're down by 5 and need to score in 4 plays or less.	234914046	1478270251637	1478270251765	i	73
459536	4948615	You're down by 5 and need to score in 4 plays or less.	You're down by 5 and need to score in 4 plays or less.	234914049	1478270251706	1478270251815	n	78
459536	4948615	You're down by 5 and need to score in 4 plays or less.	You're down by 5 and need to score in 4 plays or less.	234914053	1478270251865	1478270251964	 	32
459536	4948615	You're down by 5 and need to score in 4 plays or less.	You're down by 5 and need to score in 4 plays or less.	234914150	1478270252024	1478270252135	5	53
459536	4948615	You're down by 5 and need to score in 4 plays or less.	You're down by 5 and need to score in 4 plays or less.	234914156	1478270252440	1478270252526	BKSP	8
459536	4948615	You're down by 5 and need to score in 4 plays or less.	You're down by 5 and need to score in 4 plays or less.	234914163	1478270252532	1478270252642	4	52
459536	4948615	You're down by 5 and need to score in 4 plays or less.	You're down by 5 and need to score in 4 plays or less.	234914166	1478270252655	1478270252748	 	32
459536	4948615	You're down by 5 and need to score in 4 plays or less.	You're down by 5 and need to score in 4 plays or less.	234914171	1478270253414	1478270253542	p	80
459536	4948615	You're down by 5 and need to score in 4 plays or less.	You're down by 5 and need to score in 4 plays or less.	234914208	1478270253474	1478270253577	l	76
459536	4948615	You're down by 5 and need to score in 4 plays or less.	You're down by 5 and need to score in 4 plays or less.	234914211	1478270253574	1478270253719	a	65
459536	4948615	You're down by 5 and need to score in 4 plays or less.	You're down by 5 and need to score in 4 plays or less.	234914215	1478270253732	1478270253831	y	89
459536	4948615	You're down by 5 and need to score in 4 plays or less.	You're down by 5 and need to score in 4 plays or less.	234914220	1478270253816	1478270253919	s	83
459536	4948615	You're down by 5 and need to score in 4 plays or less.	You're down by 5 and need to score in 4 plays or less.	234914224	1478270253928	1478270254030	 	32
459536	4948615	You're down by 5 and need to score in 4 plays or less.	You're down by 5 and need to score in 4 plays or less.	234914226	1478270254081	1478270254171	o	79
459536	4948615	You're down by 5 and need to score in 4 plays or less.	You're down by 5 and need to score in 4 plays or less.	234914267	1478270254155	1478270254257	r	82
459536	4948615	You're down by 5 and need to score in 4 plays or less.	You're down by 5 and need to score in 4 plays or less.	234914270	1478270254249	1478270254340	 	32
459536	4948615	You're down by 5 and need to score in 4 plays or less.	You're down by 5 and need to score in 4 plays or less.	234914275	1478270254416	1478270254511	l	76
459536	4948615	You're down by 5 and need to score in 4 plays or less.	You're down by 5 and need to score in 4 plays or less.	234914279	1478270254484	1478270254601	e	69
459536	4948615	You're down by 5 and need to score in 4 plays or less.	You're down by 5 and need to score in 4 plays or less.	234914283	1478270254694	1478270254771	s	83
459536	4948615	You're down by 5 and need to score in 4 plays or less.	You're down by 5 and need to score in 4 plays or less.	234914289	1478270254809	1478270254910	s	83
459536	4948615	You're down by 5 and need to score in 4 plays or less.	You're down by 5 and need to score in 4 plays or less.	234914310	1478270255200	1478270255315	.	190
459536	4948642	What is up with ENE?	What is up with ENE?	234914659	1478270258527	1478270259579	SHIFT	16
459536	4948642	What is up with ENE?	What is up with ENE?	234914666	1478270259517	1478270259635	W	87
459536	4948642	What is up with ENE?	What is up with ENE?	234914673	1478270259657	1478270259759	h	72
459536	4948642	What is up with ENE?	What is up with ENE?	234914682	1478270259811	1478270259921	a	65
459536	4948642	What is up with ENE?	What is up with ENE?	234914688	1478270260016	1478270260124	t	84
459536	4948642	What is up with ENE?	What is up with ENE?	234914695	1478270260239	1478270260337	 	32
459536	4948642	What is up with ENE?	What is up with ENE?	234914728	1478270260381	1478270260489	i	73
459536	4948642	What is up with ENE?	What is up with ENE?	234914730	1478270260468	1478270260583	s	83
459536	4948642	What is up with ENE?	What is up with ENE?	234914731	1478270260549	1478270260658	 	32
459536	4948642	What is up with ENE?	What is up with ENE?	234914732	1478270260833	1478270260942	u	85
459536	4948642	What is up with ENE?	What is up with ENE?	234914733	1478270260994	1478270261093	p	80
459536	4948642	What is up with ENE?	What is up with ENE?	234914752	1478270261180	1478270261283	 	32
459536	4948642	What is up with ENE?	What is up with ENE?	234914755	1478270261280	1478270261380	w	87
459536	4948642	What is up with ENE?	What is up with ENE?	234914760	1478270261370	1478270261469	i	73
459536	4948642	What is up with ENE?	What is up with ENE?	234914766	1478270261512	1478270261612	t	84
459536	4948642	What is up with ENE?	What is up with ENE?	234914832	1478270261584	1478270261672	h	72
459536	4948642	What is up with ENE?	What is up with ENE?	234914851	1478270261726	1478270262636	 	16
459536	4948642	What is up with ENE?	What is up with ENE?	234914837	1478270261936	1478270262048	E	69
459536	4948642	What is up with ENE?	What is up with ENE?	234914843	1478270261957	1478270262082	N	78
459536	4948642	What is up with ENE?	What is up with ENE?	234914847	1478270262136	1478270262206	E	69
459536	4948642	What is up with ENE?	What is up with ENE?	234914849	1478270262684	1478270263035	SHIFT	16
459536	4948642	What is up with ENE?	What is up with ENE?	234914854	1478270262946	1478270263026	?	191
459536	4948656	We want a little May madness of our own.	We want a little may madness of our own.	234915142	1478270265828	1478270266275	SHIFT	16
459536	4948656	We want a little May madness of our own.	We want a little may madness of our own.	234915135	1478270266118	1478270266235	W	87
459536	4948656	We want a little May madness of our own.	We want a little may madness of our own.	234915148	1478270266350	1478270266456	e	69
459536	4948656	We want a little May madness of our own.	We want a little may madness of our own.	234915158	1478270266447	1478270266545	 	32
459536	4948656	We want a little May madness of our own.	We want a little may madness of our own.	234915165	1478270266635	1478270266778	w	87
459536	4948656	We want a little May madness of our own.	We want a little may madness of our own.	234915169	1478270266840	1478270266968	a	65
459536	4948656	We want a little May madness of our own.	We want a little may madness of our own.	234915211	1478270266902	1478270267002	n	78
459536	4948656	We want a little May madness of our own.	We want a little may madness of our own.	234915214	1478270267071	1478270267160	t	84
459536	4948656	We want a little May madness of our own.	We want a little may madness of our own.	234915220	1478270267240	1478270267348	 	32
459536	4948656	We want a little May madness of our own.	We want a little may madness of our own.	234915227	1478270267294	1478270267433	a	65
459536	4948656	We want a little May madness of our own.	We want a little may madness of our own.	234915232	1478270267425	1478270267533	 	32
459536	4948656	We want a little May madness of our own.	We want a little may madness of our own.	234915234	1478270267630	1478270267744	l	76
459536	4948656	We want a little May madness of our own.	We want a little may madness of our own.	234915280	1478270267811	1478270267894	i	73
459536	4948656	We want a little May madness of our own.	We want a little may madness of our own.	234915282	1478270267879	1478270267988	t	84
459536	4948656	We want a little May madness of our own.	We want a little may madness of our own.	234915287	1478270268083	1478270268205	t	84
459536	4948656	We want a little May madness of our own.	We want a little may madness of our own.	234915291	1478270268230	1478270268338	l	76
459536	4948656	We want a little May madness of our own.	We want a little may madness of our own.	234915292	1478270268360	1478270268491	e	69
459536	4948656	We want a little May madness of our own.	We want a little may madness of our own.	234915324	1478270268453	1478270268555	 	32
459536	4948656	We want a little May madness of our own.	We want a little may madness of our own.	234915326	1478270268619	1478270268721	m	77
459536	4948656	We want a little May madness of our own.	We want a little may madness of our own.	234915330	1478270268755	1478270268860	a	65
459536	4948656	We want a little May madness of our own.	We want a little may madness of our own.	234915335	1478270268860	1478270268957	y	89
459536	4948656	We want a little May madness of our own.	We want a little may madness of our own.	234915342	1478270269125	1478270269225	 	32
459536	4948656	We want a little May madness of our own.	We want a little may madness of our own.	234915348	1478270269284	1478270269387	m	77
459536	4948656	We want a little May madness of our own.	We want a little may madness of our own.	234915395	1478270269345	1478270269465	a	65
459536	4948656	We want a little May madness of our own.	We want a little may madness of our own.	234915399	1478270269568	1478270269663	d	68
459536	4948656	We want a little May madness of our own.	We want a little may madness of our own.	234915404	1478270269988	1478270270076	n	78
459536	4948656	We want a little May madness of our own.	We want a little may madness of our own.	234915408	1478270270122	1478270270237	e	69
459536	4948656	We want a little May madness of our own.	We want a little may madness of our own.	234915410	1478270270347	1478270270443	s	83
459536	4948656	We want a little May madness of our own.	We want a little may madness of our own.	234915412	1478270270492	1478270270607	s	83
459536	4948656	We want a little May madness of our own.	We want a little may madness of our own.	234915486	1478270270743	1478270270803	o	79
459536	4948656	We want a little May madness of our own.	We want a little may madness of our own.	234915490	1478270271121	1478270271228	BKSP	8
459536	4948656	We want a little May madness of our own.	We want a little may madness of our own.	234915495	1478270271359	1478270271451	 	32
459536	4948656	We want a little May madness of our own.	We want a little may madness of our own.	234915498	1478270271516	1478270271615	o	79
459536	4948656	We want a little May madness of our own.	We want a little may madness of our own.	234915502	1478270271591	1478270271744	f	70
459536	4948656	We want a little May madness of our own.	We want a little may madness of our own.	234915539	1478270271693	1478270271795	 	32
459536	4948656	We want a little May madness of our own.	We want a little may madness of our own.	234915544	1478270271868	1478270271973	o	79
459536	4948656	We want a little May madness of our own.	We want a little may madness of our own.	234915551	1478270271917	1478270272033	u	85
459536	4948656	We want a little May madness of our own.	We want a little may madness of our own.	234915557	1478270272036	1478270272141	r	82
459536	4948656	We want a little May madness of our own.	We want a little may madness of our own.	234915560	1478270272122	1478270272216	 	32
459536	4948656	We want a little May madness of our own.	We want a little may madness of our own.	234915568	1478270272263	1478270272359	o	79
459536	4948656	We want a little May madness of our own.	We want a little may madness of our own.	234915580	1478270272345	1478270272440	w	87
459536	4948656	We want a little May madness of our own.	We want a little may madness of our own.	234915582	1478270272419	1478270272520	n	78
459536	4948656	We want a little May madness of our own.	We want a little may madness of our own.	234915585	1478270272626	1478270272728	.	190
459536	4948675	She said it would probably be after Jan.	She said it would probably be after Jan.	234916019	1478270279293	1478270279485	SHIFT	16
459536	4948675	She said it would probably be after Jan.	She said it would probably be after Jan.	234916022	1478270279383	1478270279518	S	83
459536	4948675	She said it would probably be after Jan.	She said it would probably be after Jan.	234916028	1478270279514	1478270279619	h	72
459536	4948675	She said it would probably be after Jan.	She said it would probably be after Jan.	234916033	1478270279623	1478270279737	e	69
459536	4948675	She said it would probably be after Jan.	She said it would probably be after Jan.	234916037	1478270279740	1478270279853	 	32
459536	4948675	She said it would probably be after Jan.	She said it would probably be after Jan.	234916039	1478270279859	1478270279979	s	83
459536	4948675	She said it would probably be after Jan.	She said it would probably be after Jan.	234916056	1478270280054	1478270280157	a	65
459536	4948675	She said it would probably be after Jan.	She said it would probably be after Jan.	234916059	1478270280153	1478270280261	i	73
459536	4948675	She said it would probably be after Jan.	She said it would probably be after Jan.	234916061	1478270280252	1478270280377	d	68
459536	4948675	She said it would probably be after Jan.	She said it would probably be after Jan.	234916063	1478270280333	1478270280436	 	32
459536	4948675	She said it would probably be after Jan.	She said it would probably be after Jan.	234916067	1478270280478	1478270280579	i	73
459536	4948675	She said it would probably be after Jan.	She said it would probably be after Jan.	234916104	1478270280591	1478270280699	t	84
459536	4948675	She said it would probably be after Jan.	She said it would probably be after Jan.	234916109	1478270280636	1478270280734	 	32
459536	4948675	She said it would probably be after Jan.	She said it would probably be after Jan.	234916116	1478270280849	1478270280963	w	87
459536	4948675	She said it would probably be after Jan.	She said it would probably be after Jan.	234916121	1478270280958	1478270281110	o	79
459536	4948675	She said it would probably be after Jan.	She said it would probably be after Jan.	234916166	1478270281013	1478270281129	u	85
459536	4948675	She said it would probably be after Jan.	She said it would probably be after Jan.	234916168	1478270281228	1478270281331	l	76
459536	4948675	She said it would probably be after Jan.	She said it would probably be after Jan.	234916173	1478270281353	1478270281461	d	68
459536	4948675	She said it would probably be after Jan.	She said it would probably be after Jan.	234916177	1478270281449	1478270281548	 	32
459536	4948675	She said it would probably be after Jan.	She said it would probably be after Jan.	234916183	1478270281686	1478270281789	p	80
459536	4948675	She said it would probably be after Jan.	She said it would probably be after Jan.	234916187	1478270281854	1478270281950	r	82
459536	4948675	She said it would probably be after Jan.	She said it would probably be after Jan.	234916223	1478270281954	1478270282055	o	79
459536	4948675	She said it would probably be after Jan.	She said it would probably be after Jan.	234916224	1478270282154	1478270282251	b	66
459536	4948675	She said it would probably be after Jan.	She said it would probably be after Jan.	234916227	1478270282248	1478270282358	a	65
459536	4948675	She said it would probably be after Jan.	She said it would probably be after Jan.	234916232	1478270282542	1478270282659	b	66
459536	4948675	She said it would probably be after Jan.	She said it would probably be after Jan.	234916238	1478270282682	1478270282775	l	76
459536	4948675	She said it would probably be after Jan.	She said it would probably be after Jan.	234916267	1478270282791	1478270282896	y	89
459536	4948675	She said it would probably be after Jan.	She said it would probably be after Jan.	234916269	1478270282908	1478270283016	 	32
459536	4948675	She said it would probably be after Jan.	She said it would probably be after Jan.	234916273	1478270283112	1478270283215	b	66
459536	4948675	She said it would probably be after Jan.	She said it would probably be after Jan.	234916280	1478270283235	1478270283351	e	69
459536	4948675	She said it would probably be after Jan.	She said it would probably be after Jan.	234916301	1478270283347	1478270283449	 	32
459536	4948675	She said it would probably be after Jan.	She said it would probably be after Jan.	234916303	1478270283511	1478270283628	a	65
459536	4948675	She said it would probably be after Jan.	She said it would probably be after Jan.	234916307	1478270283644	1478270283800	f	70
459536	4948675	She said it would probably be after Jan.	She said it would probably be after Jan.	234916312	1478270283735	1478270283849	t	84
459536	4948675	She said it would probably be after Jan.	She said it would probably be after Jan.	234916315	1478270283809	1478270283911	e	69
459536	4948675	She said it would probably be after Jan.	She said it would probably be after Jan.	234916318	1478270283986	1478270284062	r	82
459536	4948675	She said it would probably be after Jan.	She said it would probably be after Jan.	234916367	1478270284077	1478270284201	 	32
459536	4948675	She said it would probably be after Jan.	She said it would probably be after Jan.	234916370	1478270284188	1478270284341	SHIFT	16
459536	4948675	She said it would probably be after Jan.	She said it would probably be after Jan.	234916373	1478270284274	1478270284359	J	74
459536	4948675	She said it would probably be after Jan.	She said it would probably be after Jan.	234916377	1478270284413	1478270284503	a	65
459536	4948675	She said it would probably be after Jan.	She said it would probably be after Jan.	234916379	1478270284499	1478270284590	n	78
459536	4948675	She said it would probably be after Jan.	She said it would probably be after Jan.	234916383	1478270284868	1478270284970	.	190
459536	4948693	He cannot be in two places at once.	He cannot be in two places at once.	234916674	1478270288594	1478270288783	SHIFT	16
459536	4948693	He cannot be in two places at once.	He cannot be in two places at once.	234916680	1478270288740	1478270288836	H	72
459536	4948693	He cannot be in two places at once.	He cannot be in two places at once.	234916685	1478270288845	1478270288945	e	69
459536	4948693	He cannot be in two places at once.	He cannot be in two places at once.	234916689	1478270288961	1478270289057	 	32
459536	4948693	He cannot be in two places at once.	He cannot be in two places at once.	234916694	1478270289070	1478270289194	c	67
459536	4948693	He cannot be in two places at once.	He cannot be in two places at once.	234916699	1478270289296	1478270289385	a	65
459536	4948693	He cannot be in two places at once.	He cannot be in two places at once.	234916724	1478270289369	1478270289453	n	78
459536	4948693	He cannot be in two places at once.	He cannot be in two places at once.	234916729	1478270289487	1478270289662	n	78
459536	4948693	He cannot be in two places at once.	He cannot be in two places at once.	234916733	1478270289602	1478270289714	o	79
459536	4948693	He cannot be in two places at once.	He cannot be in two places at once.	234916737	1478270289693	1478270289801	t	84
459536	4948693	He cannot be in two places at once.	He cannot be in two places at once.	234916743	1478270289820	1478270289936	 	32
459536	4948693	He cannot be in two places at once.	He cannot be in two places at once.	234916745	1478270289995	1478270290104	b	66
459536	4948693	He cannot be in two places at once.	He cannot be in two places at once.	234916762	1478270290119	1478270290234	e	69
459536	4948693	He cannot be in two places at once.	He cannot be in two places at once.	234916767	1478270290235	1478270290321	 	32
459536	4948693	He cannot be in two places at once.	He cannot be in two places at once.	234916769	1478270290372	1478270290492	i	73
459536	4948693	He cannot be in two places at once.	He cannot be in two places at once.	234916773	1478270290423	1478270290524	n	78
459536	4948693	He cannot be in two places at once.	He cannot be in two places at once.	234916776	1478270290586	1478270290689	 	32
459536	4948693	He cannot be in two places at once.	He cannot be in two places at once.	234916792	1478270290607	1478270290734	t	84
459536	4948693	He cannot be in two places at once.	He cannot be in two places at once.	234916795	1478270290885	1478270290999	w	87
459536	4948693	He cannot be in two places at once.	He cannot be in two places at once.	234916799	1478270290974	1478270291058	o	79
459536	4948693	He cannot be in two places at once.	He cannot be in two places at once.	234916802	1478270291126	1478270291216	 	32
459536	4948693	He cannot be in two places at once.	He cannot be in two places at once.	234916805	1478270291276	1478270291375	p	80
459536	4948693	He cannot be in two places at once.	He cannot be in two places at once.	234916815	1478270291328	1478270291429	l	76
459536	4948693	He cannot be in two places at once.	He cannot be in two places at once.	234916816	1478270291419	1478270291531	a	65
459536	4948693	He cannot be in two places at once.	He cannot be in two places at once.	234916818	1478270291590	1478270291684	c	67
459536	4948693	He cannot be in two places at once.	He cannot be in two places at once.	234916820	1478270291711	1478270291792	e	69
459536	4948693	He cannot be in two places at once.	He cannot be in two places at once.	234916824	1478270291887	1478270291998	s	83
459536	4948693	He cannot be in two places at once.	He cannot be in two places at once.	234916850	1478270291980	1478270292079	 	32
459536	4948693	He cannot be in two places at once.	He cannot be in two places at once.	234916855	1478270292119	1478270292203	a	65
459536	4948693	He cannot be in two places at once.	He cannot be in two places at once.	234916861	1478270292195	1478270292294	t	84
459536	4948693	He cannot be in two places at once.	He cannot be in two places at once.	234916867	1478270292389	1478270292477	 	32
459536	4948693	He cannot be in two places at once.	He cannot be in two places at once.	234916871	1478270292541	1478270292657	o	79
459536	4948693	He cannot be in two places at once.	He cannot be in two places at once.	234916904	1478270292596	1478270292712	n	78
459536	4948693	He cannot be in two places at once.	He cannot be in two places at once.	234916906	1478270292684	1478270292753	c	67
459536	4948693	He cannot be in two places at once.	He cannot be in two places at once.	234916907	1478270292859	1478270292937	e	69
459536	4948693	He cannot be in two places at once.	He cannot be in two places at once.	234916909	1478270292938	1478270293092	.	190
459536	4948704	I'll find someone to do it.	I'ff find someone to do it	234917217	1478270297008	1478270297201	SHIFT	16
459536	4948704	I'll find someone to do it.	I'ff find someone to do it	234917213	1478270297059	1478270297148	I	73
459536	4948704	I'll find someone to do it.	I'ff find someone to do it	234917220	1478270297362	1478270297456	'	222
459536	4948704	I'll find someone to do it.	I'ff find someone to do it	234917228	1478270297509	1478270297599	f	70
459536	4948704	I'll find someone to do it.	I'ff find someone to do it	234917235	1478270297640	1478270297764	f	70
459536	4948704	I'll find someone to do it.	I'ff find someone to do it	234917255	1478270297755	1478270297855	 	32
459536	4948704	I'll find someone to do it.	I'ff find someone to do it	234917260	1478270297885	1478270298013	f	70
459536	4948704	I'll find someone to do it.	I'ff find someone to do it	234917264	1478270297957	1478270298091	i	73
459536	4948704	I'll find someone to do it.	I'ff find someone to do it	234917270	1478270298029	1478270298151	n	78
459536	4948704	I'll find someone to do it.	I'ff find someone to do it	234917276	1478270298148	1478270298301	d	68
459536	4948704	I'll find someone to do it.	I'ff find someone to do it	234917298	1478270298243	1478270298352	 	32
459536	4948704	I'll find someone to do it.	I'ff find someone to do it	234917303	1478270298540	1478270298676	s	83
459536	4948704	I'll find someone to do it.	I'ff find someone to do it	234917308	1478270298626	1478270298760	o	79
459536	4948704	I'll find someone to do it.	I'ff find someone to do it	234917315	1478270298701	1478270298809	m	77
459536	4948704	I'll find someone to do it.	I'ff find someone to do it	234917321	1478270298769	1478270298875	e	69
459536	4948704	I'll find someone to do it.	I'ff find someone to do it	234917329	1478270298840	1478270298959	o	79
459536	4948704	I'll find someone to do it.	I'ff find someone to do it	234917331	1478270298903	1478270299015	n	78
459536	4948704	I'll find someone to do it.	I'ff find someone to do it	234917334	1478270298975	1478270299074	e	69
459536	4948704	I'll find someone to do it.	I'ff find someone to do it	234917335	1478270299090	1478270299199	 	32
459536	4948704	I'll find someone to do it.	I'ff find someone to do it	234917337	1478270299239	1478270299339	t	84
459536	4948704	I'll find someone to do it.	I'ff find someone to do it	234917374	1478270299320	1478270299438	o	79
459536	4948704	I'll find someone to do it.	I'ff find someone to do it	234917380	1478270299482	1478270299611	 	32
459536	4948704	I'll find someone to do it.	I'ff find someone to do it	234917384	1478270299605	1478270299717	d	68
459536	4948704	I'll find someone to do it.	I'ff find someone to do it	234917388	1478270299698	1478270299792	o	79
459536	4948704	I'll find someone to do it.	I'ff find someone to do it	234917393	1478270299849	1478270299946	 	32
459536	4948704	I'll find someone to do it.	I'ff find someone to do it	234917397	1478270299955	1478270300056	i	73
459536	4948704	I'll find someone to do it.	I'ff find someone to do it	234917398	1478270300091	1478270300175	t	84
459536	4948713	A state supreme court judge is expected to rule on the issue shortly.	A state surpreme court judge is expected to rule on the issue shortly	234917645	1478270304009	1478270304276	SHIFT	16
459536	4948713	A state supreme court judge is expected to rule on the issue shortly.	A state surpreme court judge is expected to rule on the issue shortly	234917648	1478270304170	1478270304305	A	65
459536	4948713	A state supreme court judge is expected to rule on the issue shortly.	A state surpreme court judge is expected to rule on the issue shortly	234917653	1478270304312	1478270304428	 	32
459536	4948713	A state supreme court judge is expected to rule on the issue shortly.	A state surpreme court judge is expected to rule on the issue shortly	234917657	1478270304416	1478270304536	s	83
459536	4948713	A state supreme court judge is expected to rule on the issue shortly.	A state surpreme court judge is expected to rule on the issue shortly	234917661	1478270304549	1478270304681	t	84
459536	4948713	A state supreme court judge is expected to rule on the issue shortly.	A state surpreme court judge is expected to rule on the issue shortly	234917665	1478270304718	1478270304867	a	65
459536	4948713	A state supreme court judge is expected to rule on the issue shortly.	A state surpreme court judge is expected to rule on the issue shortly	234917721	1478270304862	1478270304964	t	84
459536	4948713	A state supreme court judge is expected to rule on the issue shortly.	A state surpreme court judge is expected to rule on the issue shortly	234917727	1478270305079	1478270305194	e	69
459536	4948713	A state supreme court judge is expected to rule on the issue shortly.	A state surpreme court judge is expected to rule on the issue shortly	234917733	1478270305300	1478270305405	 	32
459536	4948713	A state supreme court judge is expected to rule on the issue shortly.	A state surpreme court judge is expected to rule on the issue shortly	234917740	1478270305412	1478270305527	s	83
459536	4948713	A state supreme court judge is expected to rule on the issue shortly.	A state surpreme court judge is expected to rule on the issue shortly	234917745	1478270305642	1478270305744	u	85
459536	4948713	A state supreme court judge is expected to rule on the issue shortly.	A state surpreme court judge is expected to rule on the issue shortly	234917748	1478270305769	1478270305875	r	82
459536	4948713	A state supreme court judge is expected to rule on the issue shortly.	A state surpreme court judge is expected to rule on the issue shortly	234917807	1478270305949	1478270306058	p	80
459536	4948713	A state supreme court judge is expected to rule on the issue shortly.	A state surpreme court judge is expected to rule on the issue shortly	234917808	1478270306196	1478270306321	r	82
459536	4948713	A state supreme court judge is expected to rule on the issue shortly.	A state surpreme court judge is expected to rule on the issue shortly	234917809	1478270307023	1478270307125	e	69
459536	4948713	A state supreme court judge is expected to rule on the issue shortly.	A state surpreme court judge is expected to rule on the issue shortly	234917810	1478270307132	1478270307220	m	77
459536	4948713	A state supreme court judge is expected to rule on the issue shortly.	A state surpreme court judge is expected to rule on the issue shortly	234917858	1478270307182	1478270307277	e	69
459536	4948713	A state supreme court judge is expected to rule on the issue shortly.	A state surpreme court judge is expected to rule on the issue shortly	234917861	1478270307309	1478270307404	 	32
459536	4948713	A state supreme court judge is expected to rule on the issue shortly.	A state surpreme court judge is expected to rule on the issue shortly	234917864	1478270307621	1478270307738	c	67
459536	4948713	A state supreme court judge is expected to rule on the issue shortly.	A state surpreme court judge is expected to rule on the issue shortly	234917868	1478270307722	1478270307863	o	79
459536	4948713	A state supreme court judge is expected to rule on the issue shortly.	A state surpreme court judge is expected to rule on the issue shortly	234917871	1478270307807	1478270307944	u	85
459536	4948713	A state supreme court judge is expected to rule on the issue shortly.	A state surpreme court judge is expected to rule on the issue shortly	234917873	1478270307997	1478270308102	r	82
459536	4948713	A state supreme court judge is expected to rule on the issue shortly.	A state surpreme court judge is expected to rule on the issue shortly	234917891	1478270308178	1478270308270	t	84
459536	4948713	A state supreme court judge is expected to rule on the issue shortly.	A state surpreme court judge is expected to rule on the issue shortly	234917893	1478270308261	1478270308363	 	32
459536	4948713	A state supreme court judge is expected to rule on the issue shortly.	A state surpreme court judge is expected to rule on the issue shortly	234917895	1478270308478	1478270308596	j	74
459536	4948713	A state supreme court judge is expected to rule on the issue shortly.	A state surpreme court judge is expected to rule on the issue shortly	234917897	1478270308661	1478270308760	u	85
459536	4948713	A state supreme court judge is expected to rule on the issue shortly.	A state surpreme court judge is expected to rule on the issue shortly	234917940	1478270308739	1478270308876	d	68
459536	4948713	A state supreme court judge is expected to rule on the issue shortly.	A state surpreme court judge is expected to rule on the issue shortly	234917943	1478270309240	1478270309350	g	71
459536	4948713	A state supreme court judge is expected to rule on the issue shortly.	A state surpreme court judge is expected to rule on the issue shortly	234917947	1478270309365	1478270309480	e	69
459536	4948713	A state supreme court judge is expected to rule on the issue shortly.	A state surpreme court judge is expected to rule on the issue shortly	234917950	1478270309474	1478270309567	 	32
459536	4948713	A state supreme court judge is expected to rule on the issue shortly.	A state surpreme court judge is expected to rule on the issue shortly	234917953	1478270309645	1478270309740	i	73
459536	4948713	A state supreme court judge is expected to rule on the issue shortly.	A state surpreme court judge is expected to rule on the issue shortly	234918057	1478270309729	1478270309841	s	83
459536	4948713	A state supreme court judge is expected to rule on the issue shortly.	A state surpreme court judge is expected to rule on the issue shortly	234918061	1478270309844	1478270309937	 	32
459536	4948713	A state supreme court judge is expected to rule on the issue shortly.	A state surpreme court judge is expected to rule on the issue shortly	234918065	1478270309944	1478270310056	e	69
459536	4948713	A state supreme court judge is expected to rule on the issue shortly.	A state surpreme court judge is expected to rule on the issue shortly	234918069	1478270311097	1478270311234	x	88
459536	4948713	A state supreme court judge is expected to rule on the issue shortly.	A state surpreme court judge is expected to rule on the issue shortly	234918073	1478270311280	1478270311386	p	80
459536	4948713	A state supreme court judge is expected to rule on the issue shortly.	A state surpreme court judge is expected to rule on the issue shortly	234918111	1478270311383	1478270311507	e	69
459536	4948713	A state supreme court judge is expected to rule on the issue shortly.	A state surpreme court judge is expected to rule on the issue shortly	234918117	1478270311621	1478270311743	c	67
459536	4948713	A state supreme court judge is expected to rule on the issue shortly.	A state surpreme court judge is expected to rule on the issue shortly	234918126	1478270311721	1478270311810	t	84
459536	4948713	A state supreme court judge is expected to rule on the issue shortly.	A state surpreme court judge is expected to rule on the issue shortly	234918131	1478270311830	1478270311929	e	69
459536	4948713	A state supreme court judge is expected to rule on the issue shortly.	A state surpreme court judge is expected to rule on the issue shortly	234918135	1478270312011	1478270312103	d	68
459536	4948713	A state supreme court judge is expected to rule on the issue shortly.	A state surpreme court judge is expected to rule on the issue shortly	234918148	1478270312093	1478270312198	 	32
459536	4948713	A state supreme court judge is expected to rule on the issue shortly.	A state surpreme court judge is expected to rule on the issue shortly	234918152	1478270312208	1478270312302	t	84
459536	4948713	A state supreme court judge is expected to rule on the issue shortly.	A state surpreme court judge is expected to rule on the issue shortly	234918157	1478270312296	1478270312405	o	79
459536	4948713	A state supreme court judge is expected to rule on the issue shortly.	A state surpreme court judge is expected to rule on the issue shortly	234918165	1478270312458	1478270312550	 	32
459536	4948713	A state supreme court judge is expected to rule on the issue shortly.	A state surpreme court judge is expected to rule on the issue shortly	234918170	1478270312582	1478270312682	r	82
459536	4948713	A state supreme court judge is expected to rule on the issue shortly.	A state surpreme court judge is expected to rule on the issue shortly	234918185	1478270312672	1478270312753	u	85
459536	4948713	A state supreme court judge is expected to rule on the issue shortly.	A state surpreme court judge is expected to rule on the issue shortly	234918187	1478270312857	1478270312960	l	76
459536	4948713	A state supreme court judge is expected to rule on the issue shortly.	A state surpreme court judge is expected to rule on the issue shortly	234918193	1478270312957	1478270313052	e	69
459536	4948713	A state supreme court judge is expected to rule on the issue shortly.	A state surpreme court judge is expected to rule on the issue shortly	234918197	1478270313058	1478270313143	 	32
459536	4948713	A state supreme court judge is expected to rule on the issue shortly.	A state surpreme court judge is expected to rule on the issue shortly	234918201	1478270313162	1478270313305	o	79
459536	4948713	A state supreme court judge is expected to rule on the issue shortly.	A state surpreme court judge is expected to rule on the issue shortly	234918231	1478270313246	1478270313361	n	78
459536	4948713	A state supreme court judge is expected to rule on the issue shortly.	A state surpreme court judge is expected to rule on the issue shortly	234918233	1478270313408	1478270313502	 	32
459536	4948713	A state supreme court judge is expected to rule on the issue shortly.	A state surpreme court judge is expected to rule on the issue shortly	234918235	1478270313491	1478270313602	t	84
459536	4948713	A state supreme court judge is expected to rule on the issue shortly.	A state surpreme court judge is expected to rule on the issue shortly	234918236	1478270313594	1478270313695	h	72
459536	4948713	A state supreme court judge is expected to rule on the issue shortly.	A state surpreme court judge is expected to rule on the issue shortly	234918237	1478270313731	1478270313858	e	69
459536	4948713	A state supreme court judge is expected to rule on the issue shortly.	A state surpreme court judge is expected to rule on the issue shortly	234918264	1478270313809	1478270313911	 	32
459536	4948713	A state supreme court judge is expected to rule on the issue shortly.	A state surpreme court judge is expected to rule on the issue shortly	234918267	1478270313983	1478270314073	i	73
459536	4948713	A state supreme court judge is expected to rule on the issue shortly.	A state surpreme court judge is expected to rule on the issue shortly	234918269	1478270314092	1478270314194	s	83
459536	4948713	A state supreme court judge is expected to rule on the issue shortly.	A state surpreme court judge is expected to rule on the issue shortly	234918271	1478270314239	1478270314347	s	83
459536	4948713	A state supreme court judge is expected to rule on the issue shortly.	A state surpreme court judge is expected to rule on the issue shortly	234918273	1478270314424	1478270314480	s	83
459536	4948713	A state supreme court judge is expected to rule on the issue shortly.	A state surpreme court judge is expected to rule on the issue shortly	234918329	1478270314456	1478270314536	u	85
459536	4948713	A state supreme court judge is expected to rule on the issue shortly.	A state surpreme court judge is expected to rule on the issue shortly	234918334	1478270314839	1478270314936	BKSP	8
459536	4948713	A state supreme court judge is expected to rule on the issue shortly.	A state surpreme court judge is expected to rule on the issue shortly	234918339	1478270314983	1478270315080	BKSP	8
459536	4948713	A state supreme court judge is expected to rule on the issue shortly.	A state surpreme court judge is expected to rule on the issue shortly	234918344	1478270315259	1478270315394	u	85
459536	4948713	A state supreme court judge is expected to rule on the issue shortly.	A state surpreme court judge is expected to rule on the issue shortly	234918352	1478270315496	1478270315613	e	69
459536	4948713	A state supreme court judge is expected to rule on the issue shortly.	A state surpreme court judge is expected to rule on the issue shortly	234918363	1478270315632	1478270315736	 	32
459536	4948713	A state supreme court judge is expected to rule on the issue shortly.	A state surpreme court judge is expected to rule on the issue shortly	234918367	1478270315760	1478270315874	s	83
459536	4948713	A state supreme court judge is expected to rule on the issue shortly.	A state surpreme court judge is expected to rule on the issue shortly	234918414	1478270315865	1478270315968	h	72
459536	4948713	A state supreme court judge is expected to rule on the issue shortly.	A state surpreme court judge is expected to rule on the issue shortly	234918421	1478270316057	1478270316158	o	79
459536	4948713	A state supreme court judge is expected to rule on the issue shortly.	A state surpreme court judge is expected to rule on the issue shortly	234918428	1478270316141	1478270316255	r	82
459536	4948713	A state supreme court judge is expected to rule on the issue shortly.	A state surpreme court judge is expected to rule on the issue shortly	234918435	1478270316347	1478270316451	t	84
459536	4948713	A state supreme court judge is expected to rule on the issue shortly.	A state surpreme court judge is expected to rule on the issue shortly	234918442	1478270316597	1478270316695	l	76
459536	4948713	A state supreme court judge is expected to rule on the issue shortly.	A state surpreme court judge is expected to rule on the issue shortly	234918450	1478270316699	1478270316780	y	89
459536	4948713	A state supreme court judge is expected to rule on the issue shortly.	A state surpreme court judge is expected to rule on the issue shortly	234918536	1478270317105	1478270317260	CTRL	17
459536	4948713	A state supreme court judge is expected to rule on the issue shortly.	A state surpreme court judge is expected to rule on the issue shortly	234918540	1478270317307	1478270317377	SHIFT	16
459536	4948713	A state supreme court judge is expected to rule on the issue shortly.	A state surpreme court judge is expected to rule on the issue shortly	234918544	1478270317479	1478270317582	SHIFT	16
459536	4948732	I have some more data coming.	I have some more data coming.	234918749	1478270320813	1478270320991	SHIFT	16
459536	4948732	I have some more data coming.	I have some more data coming.	234918747	1478270320866	1478270320969	I	73
459536	4948732	I have some more data coming.	I have some more data coming.	234918752	1478270321048	1478270321155	 	32
459536	4948732	I have some more data coming.	I have some more data coming.	234918756	1478270321212	1478270321313	h	72
459536	4948732	I have some more data coming.	I have some more data coming.	234918759	1478270321296	1478270321433	a	65
459536	4948732	I have some more data coming.	I have some more data coming.	234918776	1478270321392	1478270321501	v	86
459536	4948732	I have some more data coming.	I have some more data coming.	234918778	1478270321540	1478270321654	e	69
459536	4948732	I have some more data coming.	I have some more data coming.	234918781	1478270321647	1478270321747	 	32
459536	4948732	I have some more data coming.	I have some more data coming.	234918787	1478270321771	1478270321902	s	83
459536	4948732	I have some more data coming.	I have some more data coming.	234918794	1478270321856	1478270321983	o	79
459536	4948732	I have some more data coming.	I have some more data coming.	234918839	1478270321911	1478270322029	m	77
459536	4948732	I have some more data coming.	I have some more data coming.	234918841	1478270322011	1478270322117	e	69
459536	4948732	I have some more data coming.	I have some more data coming.	234918842	1478270322095	1478270322208	 	32
459536	4948732	I have some more data coming.	I have some more data coming.	234918844	1478270322261	1478270322376	m	77
459536	4948732	I have some more data coming.	I have some more data coming.	234918845	1478270322317	1478270322425	o	79
459536	4948732	I have some more data coming.	I have some more data coming.	234918846	1478270322463	1478270322596	r	82
459536	4948732	I have some more data coming.	I have some more data coming.	234918869	1478270322686	1478270322792	e	69
459536	4948732	I have some more data coming.	I have some more data coming.	234918874	1478270322780	1478270322868	 	32
459536	4948732	I have some more data coming.	I have some more data coming.	234918877	1478270322923	1478270323051	d	68
459536	4948732	I have some more data coming.	I have some more data coming.	234918885	1478270323133	1478270323245	a	65
459536	4948732	I have some more data coming.	I have some more data coming.	234918911	1478270323223	1478270323318	t	84
459536	4948732	I have some more data coming.	I have some more data coming.	234918914	1478270323307	1478270323410	a	65
459536	4948732	I have some more data coming.	I have some more data coming.	234918919	1478270323454	1478270323562	 	32
459536	4948732	I have some more data coming.	I have some more data coming.	234918923	1478270323668	1478270323781	c	67
459536	4948732	I have some more data coming.	I have some more data coming.	234918929	1478270323724	1478270323864	o	79
459536	4948732	I have some more data coming.	I have some more data coming.	234918952	1478270323803	1478270323914	m	77
459536	4948732	I have some more data coming.	I have some more data coming.	234918954	1478270323945	1478270324061	i	73
459536	4948732	I have some more data coming.	I have some more data coming.	234918957	1478270324011	1478270324104	n	78
459536	4948732	I have some more data coming.	I have some more data coming.	234918959	1478270324069	1478270324170	g	71
459536	4948732	I have some more data coming.	I have some more data coming.	234918965	1478270324226	1478270324332	.	190
459536	4948743	I'll email her later tonight.	I';ll email her later tnoght.	234919261	1478270328734	1478270328870	SHIFT	16
459536	4948743	I'll email her later tonight.	I';ll email her later tnoght.	234919262	1478270328790	1478270328877	I	73
459536	4948743	I'll email her later tonight.	I';ll email her later tnoght.	234919263	1478270329019	1478270329116	;	222
459536	4948743	I'll email her later tonight.	I';ll email her later tnoght.	234919264	1478270329424	1478270329508	l	76
459536	4948743	I'll email her later tonight.	I';ll email her later tnoght.	234919266	1478270329546	1478270329642	l	76
459536	4948743	I'll email her later tonight.	I';ll email her later tnoght.	234919341	1478270330272	1478270330353	 	32
459536	4948743	I'll email her later tonight.	I';ll email her later tnoght.	234919343	1478270330530	1478270330658	e	69
459536	4948743	I'll email her later tonight.	I';ll email her later tnoght.	234919345	1478270330621	1478270330680	h	72
459536	4948743	I'll email her later tonight.	I';ll email her later tnoght.	234919347	1478270331027	1478270331106	BKSP	8
459536	4948743	I'll email her later tonight.	I';ll email her later tnoght.	234919348	1478270331241	1478270331349	m	77
459536	4948743	I'll email her later tonight.	I';ll email her later tnoght.	234919350	1478270331392	1478270331510	a	65
459536	4948743	I'll email her later tonight.	I';ll email her later tnoght.	234919383	1478270331480	1478270331576	i	73
459536	4948743	I'll email her later tonight.	I';ll email her later tnoght.	234919386	1478270331663	1478270331759	l	76
459536	4948743	I'll email her later tonight.	I';ll email her later tnoght.	234919389	1478270331853	1478270331942	 	32
459536	4948743	I'll email her later tonight.	I';ll email her later tnoght.	234919392	1478270332008	1478270332111	h	72
459536	4948743	I'll email her later tonight.	I';ll email her later tnoght.	234919395	1478270332076	1478270332198	e	69
459536	4948743	I'll email her later tonight.	I';ll email her later tnoght.	234919401	1478270332283	1478270332369	r	82
459536	4948743	I'll email her later tonight.	I';ll email her later tnoght.	234919437	1478270332331	1478270332428	 	32
459536	4948743	I'll email her later tonight.	I';ll email her later tnoght.	234919439	1478270332530	1478270332624	l	76
459536	4948743	I'll email her later tonight.	I';ll email her later tnoght.	234919442	1478270332620	1478270332747	a	65
459536	4948743	I'll email her later tonight.	I';ll email her later tnoght.	234919444	1478270332778	1478270332865	t	84
459536	4948743	I'll email her later tonight.	I';ll email her later tnoght.	234919448	1478270332990	1478270333111	e	69
459536	4948743	I'll email her later tonight.	I';ll email her later tnoght.	234919450	1478270333203	1478270333296	r	82
459536	4948743	I'll email her later tonight.	I';ll email her later tnoght.	234919475	1478270333289	1478270333382	 	32
459536	4948743	I'll email her later tonight.	I';ll email her later tnoght.	234919479	1478270333426	1478270333513	t	84
459536	4948743	I'll email her later tonight.	I';ll email her later tnoght.	234919488	1478270333522	1478270333681	n	78
459536	4948743	I'll email her later tonight.	I';ll email her later tnoght.	234919492	1478270333625	1478270333775	o	79
459536	4948743	I'll email her later tonight.	I';ll email her later tnoght.	234919498	1478270333780	1478270333943	g	71
459536	4948743	I'll email her later tonight.	I';ll email her later tnoght.	234919501	1478270333998	1478270334123	h	72
459536	4948743	I'll email her later tonight.	I';ll email her later tnoght.	234919517	1478270334245	1478270334348	t	84
459536	4948743	I'll email her later tonight.	I';ll email her later tnoght.	234919521	1478270334353	1478270334497	.	190
459536	4948755	I'm on a plane.	I'm on a plane.	234920519	1478270351118	1478270351253	SHIFT	16
459536	4948755	I'm on a plane.	I'm on a plane.	234920521	1478270351189	1478270351325	I	73
459536	4948755	I'm on a plane.	I'm on a plane.	234920526	1478270351279	1478270351421	'	222
459536	4948755	I'm on a plane.	I'm on a plane.	234920531	1478270351488	1478270351617	m	77
459536	4948755	I'm on a plane.	I'm on a plane.	234920537	1478270351719	1478270351841	 	32
459536	4948755	I'm on a plane.	I'm on a plane.	234920543	1478270351903	1478270352062	o	79
459536	4948755	I'm on a plane.	I'm on a plane.	234920562	1478270351997	1478270352120	n	78
459536	4948755	I'm on a plane.	I'm on a plane.	234920565	1478270352171	1478270352257	 	32
459536	4948755	I'm on a plane.	I'm on a plane.	234920569	1478270352252	1478270352392	a	65
459536	4948755	I'm on a plane.	I'm on a plane.	234920574	1478270352349	1478270352441	 	32
459536	4948755	I'm on a plane.	I'm on a plane.	234920581	1478270352504	1478270352643	p	80
459536	4948755	I'm on a plane.	I'm on a plane.	234920617	1478270352563	1478270352675	l	76
459536	4948755	I'm on a plane.	I'm on a plane.	234920623	1478270352684	1478270352827	a	65
459536	4948755	I'm on a plane.	I'm on a plane.	234920627	1478270352796	1478270352902	n	78
459536	4948755	I'm on a plane.	I'm on a plane.	234920632	1478270352958	1478270353057	e	69
459536	4948755	I'm on a plane.	I'm on a plane.	234920635	1478270353023	1478270353141	.	190
459536	4948775	He also suggested it would send a conflicting message to Geneva.	He also suggested it would send a conflicting message to Geneva.	234920816	1478270356633	1478270356795	SHIFT	16
459536	4948775	He also suggested it would send a conflicting message to Geneva.	He also suggested it would send a conflicting message to Geneva.	234920818	1478270356766	1478270356860	H	72
459536	4948775	He also suggested it would send a conflicting message to Geneva.	He also suggested it would send a conflicting message to Geneva.	234920821	1478270356873	1478270356973	e	69
459536	4948775	He also suggested it would send a conflicting message to Geneva.	He also suggested it would send a conflicting message to Geneva.	234920825	1478270356975	1478270357081	 	32
459536	4948775	He also suggested it would send a conflicting message to Geneva.	He also suggested it would send a conflicting message to Geneva.	234920828	1478270357090	1478270357217	a	65
459536	4948775	He also suggested it would send a conflicting message to Geneva.	He also suggested it would send a conflicting message to Geneva.	234920840	1478270357205	1478270357317	l	76
459536	4948775	He also suggested it would send a conflicting message to Geneva.	He also suggested it would send a conflicting message to Geneva.	234920841	1478270357333	1478270357426	s	83
459536	4948775	He also suggested it would send a conflicting message to Geneva.	He also suggested it would send a conflicting message to Geneva.	234920843	1478270357443	1478270357535	o	79
459536	4948775	He also suggested it would send a conflicting message to Geneva.	He also suggested it would send a conflicting message to Geneva.	234920847	1478270357651	1478270357753	 	32
459536	4948775	He also suggested it would send a conflicting message to Geneva.	He also suggested it would send a conflicting message to Geneva.	234920853	1478270357848	1478270357976	s	83
459536	4948775	He also suggested it would send a conflicting message to Geneva.	He also suggested it would send a conflicting message to Geneva.	234920858	1478270357982	1478270358084	u	85
459536	4948775	He also suggested it would send a conflicting message to Geneva.	He also suggested it would send a conflicting message to Geneva.	234920879	1478270358159	1478270358243	g	71
459536	4948775	He also suggested it would send a conflicting message to Geneva.	He also suggested it would send a conflicting message to Geneva.	234920881	1478270358287	1478270358384	g	71
459536	4948775	He also suggested it would send a conflicting message to Geneva.	He also suggested it would send a conflicting message to Geneva.	234920883	1478270358391	1478270358501	e	69
459536	4948775	He also suggested it would send a conflicting message to Geneva.	He also suggested it would send a conflicting message to Geneva.	234920886	1478270358606	1478270358719	s	83
459536	4948775	He also suggested it would send a conflicting message to Geneva.	He also suggested it would send a conflicting message to Geneva.	234920912	1478270358675	1478270358775	t	84
459536	4948775	He also suggested it would send a conflicting message to Geneva.	He also suggested it would send a conflicting message to Geneva.	234920914	1478270358819	1478270358909	e	69
459536	4948775	He also suggested it would send a conflicting message to Geneva.	He also suggested it would send a conflicting message to Geneva.	234920917	1478270358986	1478270359089	d	68
459536	4948775	He also suggested it would send a conflicting message to Geneva.	He also suggested it would send a conflicting message to Geneva.	234920919	1478270359055	1478270359148	 	32
459536	4948775	He also suggested it would send a conflicting message to Geneva.	He also suggested it would send a conflicting message to Geneva.	234920921	1478270359227	1478270359332	i	73
459536	4948775	He also suggested it would send a conflicting message to Geneva.	He also suggested it would send a conflicting message to Geneva.	234920923	1478270359394	1478270359510	t	84
459536	4948775	He also suggested it would send a conflicting message to Geneva.	He also suggested it would send a conflicting message to Geneva.	234920968	1478270359477	1478270359577	 	32
459536	4948775	He also suggested it would send a conflicting message to Geneva.	He also suggested it would send a conflicting message to Geneva.	234920971	1478270359646	1478270359755	w	87
459536	4948775	He also suggested it would send a conflicting message to Geneva.	He also suggested it would send a conflicting message to Geneva.	234920976	1478270359667	1478270359826	o	79
459536	4948775	He also suggested it would send a conflicting message to Geneva.	He also suggested it would send a conflicting message to Geneva.	234920981	1478270359755	1478270359876	u	85
459536	4948775	He also suggested it would send a conflicting message to Geneva.	He also suggested it would send a conflicting message to Geneva.	234920983	1478270360244	1478270360359	l	76
459536	4948775	He also suggested it would send a conflicting message to Geneva.	He also suggested it would send a conflicting message to Geneva.	234921009	1478270360350	1478270360477	d	68
459536	4948775	He also suggested it would send a conflicting message to Geneva.	He also suggested it would send a conflicting message to Geneva.	234921013	1478270360472	1478270360568	 	32
459536	4948775	He also suggested it would send a conflicting message to Geneva.	He also suggested it would send a conflicting message to Geneva.	234921016	1478270360615	1478270360732	s	83
459536	4948775	He also suggested it would send a conflicting message to Geneva.	He also suggested it would send a conflicting message to Geneva.	234921021	1478270360825	1478270360936	e	69
459536	4948775	He also suggested it would send a conflicting message to Geneva.	He also suggested it would send a conflicting message to Geneva.	234921024	1478270360921	1478270361021	n	78
459536	4948775	He also suggested it would send a conflicting message to Geneva.	He also suggested it would send a conflicting message to Geneva.	234921028	1478270361100	1478270361262	f	70
459536	4948775	He also suggested it would send a conflicting message to Geneva.	He also suggested it would send a conflicting message to Geneva.	234921062	1478270361575	1478270361664	BKSP	8
459536	4948775	He also suggested it would send a conflicting message to Geneva.	He also suggested it would send a conflicting message to Geneva.	234921063	1478270361667	1478270361786	d	68
459536	4948775	He also suggested it would send a conflicting message to Geneva.	He also suggested it would send a conflicting message to Geneva.	234921064	1478270361795	1478270361891	 	32
459536	4948775	He also suggested it would send a conflicting message to Geneva.	He also suggested it would send a conflicting message to Geneva.	234921066	1478270361907	1478270362031	a	65
459536	4948775	He also suggested it would send a conflicting message to Geneva.	He also suggested it would send a conflicting message to Geneva.	234921068	1478270362009	1478270362114	 	32
459536	4948775	He also suggested it would send a conflicting message to Geneva.	He also suggested it would send a conflicting message to Geneva.	234921070	1478270362180	1478270362277	c	67
459536	4948775	He also suggested it would send a conflicting message to Geneva.	He also suggested it would send a conflicting message to Geneva.	234921080	1478270362246	1478270362379	o	79
459536	4948775	He also suggested it would send a conflicting message to Geneva.	He also suggested it would send a conflicting message to Geneva.	234921085	1478270362305	1478270362429	n	78
459536	4948775	He also suggested it would send a conflicting message to Geneva.	He also suggested it would send a conflicting message to Geneva.	234921088	1478270362476	1478270362572	f	70
459536	4948775	He also suggested it would send a conflicting message to Geneva.	He also suggested it would send a conflicting message to Geneva.	234921094	1478270362783	1478270362880	l	76
459536	4948775	He also suggested it would send a conflicting message to Geneva.	He also suggested it would send a conflicting message to Geneva.	234921098	1478270362974	1478270363057	i	73
459536	4948775	He also suggested it would send a conflicting message to Geneva.	He also suggested it would send a conflicting message to Geneva.	234921123	1478270363054	1478270363182	c	67
459536	4948775	He also suggested it would send a conflicting message to Geneva.	He also suggested it would send a conflicting message to Geneva.	234921127	1478270363213	1478270363319	t	84
459536	4948775	He also suggested it would send a conflicting message to Geneva.	He also suggested it would send a conflicting message to Geneva.	234921129	1478270363435	1478270363612	i	73
459536	4948775	He also suggested it would send a conflicting message to Geneva.	He also suggested it would send a conflicting message to Geneva.	234921133	1478270363530	1478270363657	n	78
459536	4948775	He also suggested it would send a conflicting message to Geneva.	He also suggested it would send a conflicting message to Geneva.	234921137	1478270363620	1478270363732	g	71
459536	4948775	He also suggested it would send a conflicting message to Geneva.	He also suggested it would send a conflicting message to Geneva.	234921140	1478270363733	1478270363835	 	32
459536	4948775	He also suggested it would send a conflicting message to Geneva.	He also suggested it would send a conflicting message to Geneva.	234921163	1478270363939	1478270364032	m	77
459536	4948775	He also suggested it would send a conflicting message to Geneva.	He also suggested it would send a conflicting message to Geneva.	234921165	1478270364029	1478270364134	e	69
459536	4948775	He also suggested it would send a conflicting message to Geneva.	He also suggested it would send a conflicting message to Geneva.	234921168	1478270364239	1478270364324	s	83
459536	4948775	He also suggested it would send a conflicting message to Geneva.	He also suggested it would send a conflicting message to Geneva.	234921172	1478270364396	1478270364520	s	83
459536	4948775	He also suggested it would send a conflicting message to Geneva.	He also suggested it would send a conflicting message to Geneva.	234921176	1478270364604	1478270364709	a	65
459536	4948775	He also suggested it would send a conflicting message to Geneva.	He also suggested it would send a conflicting message to Geneva.	234921191	1478270364715	1478270364815	g	71
459536	4948775	He also suggested it would send a conflicting message to Geneva.	He also suggested it would send a conflicting message to Geneva.	234921196	1478270364837	1478270364955	e	69
459536	4948775	He also suggested it would send a conflicting message to Geneva.	He also suggested it would send a conflicting message to Geneva.	234921202	1478270364931	1478270365043	 	32
459536	4948775	He also suggested it would send a conflicting message to Geneva.	He also suggested it would send a conflicting message to Geneva.	234921208	1478270365112	1478270365191	t	84
459536	4948775	He also suggested it would send a conflicting message to Geneva.	He also suggested it would send a conflicting message to Geneva.	234921262	1478270365188	1478270365319	o	79
459536	4948775	He also suggested it would send a conflicting message to Geneva.	He also suggested it would send a conflicting message to Geneva.	234921265	1478270365375	1478270365468	 	32
459536	4948775	He also suggested it would send a conflicting message to Geneva.	He also suggested it would send a conflicting message to Geneva.	234921267	1478270365449	1478270365633	SHIFT	16
459536	4948775	He also suggested it would send a conflicting message to Geneva.	He also suggested it would send a conflicting message to Geneva.	234921268	1478270365574	1478270365669	G	71
459536	4948775	He also suggested it would send a conflicting message to Geneva.	He also suggested it would send a conflicting message to Geneva.	234921269	1478270365714	1478270365822	e	69
459536	4948775	He also suggested it would send a conflicting message to Geneva.	He also suggested it would send a conflicting message to Geneva.	234921270	1478270365817	1478270365907	n	78
459536	4948775	He also suggested it would send a conflicting message to Geneva.	He also suggested it would send a conflicting message to Geneva.	234921271	1478270366045	1478270366135	e	69
459536	4948775	He also suggested it would send a conflicting message to Geneva.	He also suggested it would send a conflicting message to Geneva.	234921338	1478270366339	1478270366444	v	86
459536	4948775	He also suggested it would send a conflicting message to Geneva.	He also suggested it would send a conflicting message to Geneva.	234921340	1478270366455	1478270366554	a	65
459536	4948785	They have not issued an order yet.	They have not issued an order yet.	234921518	1478270370709	1478270370879	SHIFT	16
459536	4948785	They have not issued an order yet.	They have not issued an order yet.	234921521	1478270370824	1478270370923	T	84
459536	4948785	They have not issued an order yet.	They have not issued an order yet.	234921525	1478270371011	1478270371129	h	72
459536	4948785	They have not issued an order yet.	They have not issued an order yet.	234921531	1478270371151	1478270371282	e	69
459536	4948785	They have not issued an order yet.	They have not issued an order yet.	234921533	1478270371216	1478270371313	y	89
459536	4948785	They have not issued an order yet.	They have not issued an order yet.	234921537	1478270371402	1478270371502	 	32
459536	4948785	They have not issued an order yet.	They have not issued an order yet.	234921545	1478270371553	1478270371654	h	72
459536	4948785	They have not issued an order yet.	They have not issued an order yet.	234921547	1478270371671	1478270371769	a	65
459536	4948785	They have not issued an order yet.	They have not issued an order yet.	234921549	1478270371744	1478270371847	v	86
459536	4948785	They have not issued an order yet.	They have not issued an order yet.	234921550	1478270371887	1478270371996	e	69
459536	4948785	They have not issued an order yet.	They have not issued an order yet.	234921587	1478270371975	1478270372081	 	32
459536	4948785	They have not issued an order yet.	They have not issued an order yet.	234921594	1478270372160	1478270372277	n	78
459536	4948785	They have not issued an order yet.	They have not issued an order yet.	234921600	1478270372222	1478270372359	o	79
459536	4948785	They have not issued an order yet.	They have not issued an order yet.	234921605	1478270372391	1478270372503	t	84
459536	4948785	They have not issued an order yet.	They have not issued an order yet.	234921608	1478270372518	1478270372631	 	32
459536	4948785	They have not issued an order yet.	They have not issued an order yet.	234921611	1478270372719	1478270372858	u	85
459536	4948785	They have not issued an order yet.	They have not issued an order yet.	234921660	1478270373140	1478270373241	BKSP	8
459536	4948785	They have not issued an order yet.	They have not issued an order yet.	234921661	1478270373386	1478270373447	i	73
459536	4948785	They have not issued an order yet.	They have not issued an order yet.	234921662	1478270374088	1478270374185	s	83
459536	4948785	They have not issued an order yet.	They have not issued an order yet.	234921663	1478270374245	1478270374350	s	83
459536	4948785	They have not issued an order yet.	They have not issued an order yet.	234921664	1478270374369	1478270374462	u	85
459536	4948785	They have not issued an order yet.	They have not issued an order yet.	234921680	1478270374452	1478270374543	e	69
459536	4948785	They have not issued an order yet.	They have not issued an order yet.	234921682	1478270374618	1478270374736	d	68
459536	4948785	They have not issued an order yet.	They have not issued an order yet.	234921684	1478270374690	1478270374798	 	32
459536	4948785	They have not issued an order yet.	They have not issued an order yet.	234921686	1478270374826	1478270374925	a	65
459536	4948785	They have not issued an order yet.	They have not issued an order yet.	234921688	1478270374892	1478270374985	n	78
459536	4948785	They have not issued an order yet.	They have not issued an order yet.	234921692	1478270375041	1478270375128	 	32
459536	4948785	They have not issued an order yet.	They have not issued an order yet.	234921717	1478270375199	1478270375284	o	79
459536	4948785	They have not issued an order yet.	They have not issued an order yet.	234921721	1478270375322	1478270375432	r	82
459536	4948785	They have not issued an order yet.	They have not issued an order yet.	234921730	1478270375572	1478270375637	d	68
459536	4948785	They have not issued an order yet.	They have not issued an order yet.	234921737	1478270375781	1478270375882	e	69
459536	4948785	They have not issued an order yet.	They have not issued an order yet.	234921740	1478270376041	1478270376119	r	82
459536	4948785	They have not issued an order yet.	They have not issued an order yet.	234921777	1478270376509	1478270376609	 	32
459536	4948785	They have not issued an order yet.	They have not issued an order yet.	234921779	1478270376721	1478270376860	y	89
459536	4948785	They have not issued an order yet.	They have not issued an order yet.	234921781	1478270376846	1478270376973	e	69
459536	4948785	They have not issued an order yet.	They have not issued an order yet.	234921783	1478270377073	1478270377153	t	84
459536	4948797	I am at the lake.	I am at the lake.	234921943	1478270380054	1478270380209	SHIFT	16
459536	4948797	I am at the lake.	I am at the lake.	234921946	1478270380150	1478270380237	I	73
459536	4948797	I am at the lake.	I am at the lake.	234921949	1478270380286	1478270380365	 	32
459536	4948797	I am at the lake.	I am at the lake.	234921952	1478270380380	1478270380482	a	65
459536	4948797	I am at the lake.	I am at the lake.	234921955	1478270380473	1478270380579	m	77
459536	4948797	I am at the lake.	I am at the lake.	234921959	1478270380648	1478270380743	 	32
459536	4948797	I am at the lake.	I am at the lake.	234921971	1478270380747	1478270380877	a	65
459536	4948797	I am at the lake.	I am at the lake.	234921972	1478270380880	1478270380983	t	84
459536	4948797	I am at the lake.	I am at the lake.	234921973	1478270381088	1478270381194	 	32
459536	4948797	I am at the lake.	I am at the lake.	234921974	1478270381310	1478270381406	t	84
459536	4948797	I am at the lake.	I am at the lake.	234921994	1478270381382	1478270381487	h	72
459536	4948797	I am at the lake.	I am at the lake.	234921997	1478270381535	1478270381643	e	69
459536	4948797	I am at the lake.	I am at the lake.	234922005	1478270381584	1478270381678	 	32
459536	4948797	I am at the lake.	I am at the lake.	234922009	1478270381774	1478270381878	l	76
459536	4948797	I am at the lake.	I am at the lake.	234922013	1478270381885	1478270381986	a	65
459536	4948797	I am at the lake.	I am at the lake.	234922020	1478270381975	1478270382068	k	75
459536	4948797	I am at the lake.	I am at the lake.	234922023	1478270382087	1478270382171	e	69
459536	4948801	I wonder if RBS is another institution which could move quickly.	Iwonder if RBS is another insituistuin whihch could move quickly	234922268	1478270388022	1478270388226	SHIFT	16
459536	4948801	I wonder if RBS is another institution which could move quickly.	Iwonder if RBS is another insituistuin whihch could move quickly	234922270	1478270388126	1478270388245	I	73
459536	4948801	I wonder if RBS is another institution which could move quickly.	Iwonder if RBS is another insituistuin whihch could move quickly	234922275	1478270388388	1478270388506	w	87
459536	4948801	I wonder if RBS is another institution which could move quickly.	Iwonder if RBS is another insituistuin whihch could move quickly	234922278	1478270388453	1478270388600	o	79
459536	4948801	I wonder if RBS is another institution which could move quickly.	Iwonder if RBS is another insituistuin whihch could move quickly	234922281	1478270388519	1478270388649	n	78
459536	4948801	I wonder if RBS is another institution which could move quickly.	Iwonder if RBS is another insituistuin whihch could move quickly	234922309	1478270388631	1478270388737	d	68
459536	4948801	I wonder if RBS is another institution which could move quickly.	Iwonder if RBS is another insituistuin whihch could move quickly	234922311	1478270388818	1478270388924	e	69
459536	4948801	I wonder if RBS is another institution which could move quickly.	Iwonder if RBS is another insituistuin whihch could move quickly	234922314	1478270388980	1478270389092	r	82
459536	4948801	I wonder if RBS is another institution which could move quickly.	Iwonder if RBS is another insituistuin whihch could move quickly	234922318	1478270389054	1478270389159	 	32
459536	4948801	I wonder if RBS is another institution which could move quickly.	Iwonder if RBS is another insituistuin whihch could move quickly	234922322	1478270389217	1478270389318	i	73
459536	4948801	I wonder if RBS is another institution which could move quickly.	Iwonder if RBS is another insituistuin whihch could move quickly	234922356	1478270389296	1478270389394	f	70
459536	4948801	I wonder if RBS is another institution which could move quickly.	Iwonder if RBS is another insituistuin whihch could move quickly	234922361	1478270389403	1478270389505	 	32
459536	4948801	I wonder if RBS is another institution which could move quickly.	Iwonder if RBS is another insituistuin whihch could move quickly	234922381	1478270389471	1478270390160	SHIFT	16
459536	4948801	I wonder if RBS is another institution which could move quickly.	Iwonder if RBS is another insituistuin whihch could move quickly	234922366	1478270389646	1478270389759	R	82
459536	4948801	I wonder if RBS is another institution which could move quickly.	Iwonder if RBS is another insituistuin whihch could move quickly	234922374	1478270389734	1478270389874	B	66
459536	4948801	I wonder if RBS is another institution which could move quickly.	Iwonder if RBS is another insituistuin whihch could move quickly	234922377	1478270389976	1478270390106	S	83
459536	4948801	I wonder if RBS is another institution which could move quickly.	Iwonder if RBS is another insituistuin whihch could move quickly	234922389	1478270390135	1478270390247	 	32
459536	4948801	I wonder if RBS is another institution which could move quickly.	Iwonder if RBS is another insituistuin whihch could move quickly	234922393	1478270390331	1478270390438	i	73
459536	4948801	I wonder if RBS is another institution which could move quickly.	Iwonder if RBS is another insituistuin whihch could move quickly	234922400	1478270390426	1478270390549	s	83
459536	4948801	I wonder if RBS is another institution which could move quickly.	Iwonder if RBS is another insituistuin whihch could move quickly	234922408	1478270390534	1478270390629	 	32
459536	4948801	I wonder if RBS is another institution which could move quickly.	Iwonder if RBS is another insituistuin whihch could move quickly	234922415	1478270390642	1478270390753	a	65
459536	4948801	I wonder if RBS is another institution which could move quickly.	Iwonder if RBS is another insituistuin whihch could move quickly	234922431	1478270390710	1478270390840	n	78
459536	4948801	I wonder if RBS is another institution which could move quickly.	Iwonder if RBS is another insituistuin whihch could move quickly	234922435	1478270390772	1478270390893	o	79
459536	4948801	I wonder if RBS is another institution which could move quickly.	Iwonder if RBS is another insituistuin whihch could move quickly	234922439	1478270390909	1478270391020	t	84
459536	4948801	I wonder if RBS is another institution which could move quickly.	Iwonder if RBS is another insituistuin whihch could move quickly	234922444	1478270391002	1478270391117	h	72
459536	4948801	I wonder if RBS is another institution which could move quickly.	Iwonder if RBS is another insituistuin whihch could move quickly	234922447	1478270391139	1478270391239	e	69
459536	4948801	I wonder if RBS is another institution which could move quickly.	Iwonder if RBS is another insituistuin whihch could move quickly	234922449	1478270391319	1478270391408	r	82
459536	4948801	I wonder if RBS is another institution which could move quickly.	Iwonder if RBS is another insituistuin whihch could move quickly	234922495	1478270391374	1478270391476	 	32
459536	4948801	I wonder if RBS is another institution which could move quickly.	Iwonder if RBS is another insituistuin whihch could move quickly	234922497	1478270391563	1478270391671	i	73
459536	4948801	I wonder if RBS is another institution which could move quickly.	Iwonder if RBS is another insituistuin whihch could move quickly	234922499	1478270391693	1478270391797	s	83
459536	4948801	I wonder if RBS is another institution which could move quickly.	Iwonder if RBS is another insituistuin whihch could move quickly	234922502	1478270392109	1478270392194	BKSP	8
459536	4948801	I wonder if RBS is another institution which could move quickly.	Iwonder if RBS is another insituistuin whihch could move quickly	234922504	1478270392345	1478270392434	n	78
459536	4948801	I wonder if RBS is another institution which could move quickly.	Iwonder if RBS is another insituistuin whihch could move quickly	234922505	1478270392445	1478270392572	s	83
459536	4948801	I wonder if RBS is another institution which could move quickly.	Iwonder if RBS is another insituistuin whihch could move quickly	234922506	1478270392625	1478270392747	i	73
459536	4948801	I wonder if RBS is another institution which could move quickly.	Iwonder if RBS is another insituistuin whihch could move quickly	234922566	1478270392808	1478270392921	t	84
459536	4948801	I wonder if RBS is another institution which could move quickly.	Iwonder if RBS is another insituistuin whihch could move quickly	234922569	1478270392958	1478270393124	u	85
459536	4948801	I wonder if RBS is another institution which could move quickly.	Iwonder if RBS is another insituistuin whihch could move quickly	234922572	1478270393058	1478270393204	i	73
459536	4948801	I wonder if RBS is another institution which could move quickly.	Iwonder if RBS is another insituistuin whihch could move quickly	234922576	1478270393792	1478270393883	s	83
459536	4948801	I wonder if RBS is another institution which could move quickly.	Iwonder if RBS is another insituistuin whihch could move quickly	234922580	1478270394099	1478270394191	t	84
459536	4948801	I wonder if RBS is another institution which could move quickly.	Iwonder if RBS is another insituistuin whihch could move quickly	234922605	1478270394180	1478270394291	u	85
459536	4948801	I wonder if RBS is another institution which could move quickly.	Iwonder if RBS is another insituistuin whihch could move quickly	234922607	1478270394245	1478270394407	i	73
459536	4948801	I wonder if RBS is another institution which could move quickly.	Iwonder if RBS is another insituistuin whihch could move quickly	234922608	1478270394357	1478270394462	n	78
459536	4948801	I wonder if RBS is another institution which could move quickly.	Iwonder if RBS is another insituistuin whihch could move quickly	234922610	1478270394609	1478270394727	 	32
459536	4948801	I wonder if RBS is another institution which could move quickly.	Iwonder if RBS is another insituistuin whihch could move quickly	234922611	1478270395167	1478270395292	w	87
459536	4948801	I wonder if RBS is another institution which could move quickly.	Iwonder if RBS is another insituistuin whihch could move quickly	234922613	1478270395301	1478270395470	h	72
459536	4948801	I wonder if RBS is another institution which could move quickly.	Iwonder if RBS is another insituistuin whihch could move quickly	234922673	1478270395435	1478270395607	i	73
459536	4948801	I wonder if RBS is another institution which could move quickly.	Iwonder if RBS is another insituistuin whihch could move quickly	234922675	1478270395574	1478270395664	c	72
459536	4948801	I wonder if RBS is another institution which could move quickly.	Iwonder if RBS is another insituistuin whihch could move quickly	234922677	1478270396391	1478270396493	h	72
459536	4948801	I wonder if RBS is another institution which could move quickly.	Iwonder if RBS is another insituistuin whihch could move quickly	234922680	1478270396745	1478270396845	 	32
459536	4948801	I wonder if RBS is another institution which could move quickly.	Iwonder if RBS is another insituistuin whihch could move quickly	234922683	1478270397173	1478270397286	o	67
459536	4948801	I wonder if RBS is another institution which could move quickly.	Iwonder if RBS is another insituistuin whihch could move quickly	234922709	1478270397228	1478270397334	u	85
459536	4948801	I wonder if RBS is another institution which could move quickly.	Iwonder if RBS is another insituistuin whihch could move quickly	234922712	1478270397416	1478270397513	l	76
459536	4948801	I wonder if RBS is another institution which could move quickly.	Iwonder if RBS is another insituistuin whihch could move quickly	234922715	1478270397538	1478270397640	d	68
459536	4948801	I wonder if RBS is another institution which could move quickly.	Iwonder if RBS is another insituistuin whihch could move quickly	234922716	1478270397593	1478270397689	 	32
459536	4948801	I wonder if RBS is another institution which could move quickly.	Iwonder if RBS is another insituistuin whihch could move quickly	234922717	1478270397750	1478270397862	m	77
459536	4948801	I wonder if RBS is another institution which could move quickly.	Iwonder if RBS is another insituistuin whihch could move quickly	234922736	1478270397791	1478270397905	o	79
459536	4948801	I wonder if RBS is another institution which could move quickly.	Iwonder if RBS is another insituistuin whihch could move quickly	234922737	1478270397874	1478270397983	v	86
459536	4948801	I wonder if RBS is another institution which could move quickly.	Iwonder if RBS is another insituistuin whihch could move quickly	234922738	1478270398116	1478270398257	e	69
459536	4948801	I wonder if RBS is another institution which could move quickly.	Iwonder if RBS is another insituistuin whihch could move quickly	234922739	1478270398305	1478270398396	 	32
459536	4948801	I wonder if RBS is another institution which could move quickly.	Iwonder if RBS is another insituistuin whihch could move quickly	234922740	1478270398403	1478270398542	q	81
459536	4948801	I wonder if RBS is another institution which could move quickly.	Iwonder if RBS is another insituistuin whihch could move quickly	234922741	1478270398562	1478270398675	u	85
459536	4948801	I wonder if RBS is another institution which could move quickly.	Iwonder if RBS is another insituistuin whihch could move quickly	234922769	1478270398622	1478270398737	i	73
459536	4948801	I wonder if RBS is another institution which could move quickly.	Iwonder if RBS is another insituistuin whihch could move quickly	234922771	1478270398756	1478270398889	c	67
459536	4948801	I wonder if RBS is another institution which could move quickly.	Iwonder if RBS is another insituistuin whihch could move quickly	234922774	1478270398861	1478270398979	k	75
459536	4948801	I wonder if RBS is another institution which could move quickly.	Iwonder if RBS is another insituistuin whihch could move quickly	234922778	1478270399049	1478270399147	l	76
