PARTICIPANT_ID	TEST_SECTION_ID	SENTENCE	USER_INPUT	KEYSTROKE_ID	PRESS_TIME	RELEASE_TIME	LETTER	KEYCODE
461748	4971546	I guess the next time I'll see you is for Superbowl.	I guess the next time I'll see you is for Superbowl.	235986738	1478285201806	1478285202079	SHIFT	16
461748	4971546	I guess the next time I'll see you is for Superbowl.	I guess the next time I'll see you is for Superbowl.	235986730	1478285201950	1478285202039	I	73
461748	4971546	I guess the next time I'll see you is for Superbowl.	I guess the next time I'll see you is for Superbowl.	235986745	1478285202475	1478285202576	 	32
461748	4971546	I guess the next time I'll see you is for Superbowl.	I guess the next time I'll see you is for Superbowl.	235986750	1478285202883	1478285202985	g	71
461748	4971546	I guess the next time I'll see you is for Superbowl.	I guess the next time I'll see you is for Superbowl.	235986755	1478285203082	1478285203166	u	85
461748	4971546	I guess the next time I'll see you is for Superbowl.	I guess the next time I'll see you is for Superbowl.	235986760	1478285203201	1478285203302	e	69
461748	4971546	I guess the next time I'll see you is for Superbowl.	I guess the next time I'll see you is for Superbowl.	235986828	1478285203398	1478285203523	s	83
461748	4971546	I guess the next time I'll see you is for Superbowl.	I guess the next time I'll see you is for Superbowl.	235986832	1478285203651	1478285203741	s	83
461748	4971546	I guess the next time I'll see you is for Superbowl.	I guess the next time I'll see you is for Superbowl.	235986837	1478285203747	1478285203834	 	32
461748	4971546	I guess the next time I'll see you is for Superbowl.	I guess the next time I'll see you is for Superbowl.	235986844	1478285204391	1478285204516	t	84
461748	4971546	I guess the next time I'll see you is for Superbowl.	I guess the next time I'll see you is for Superbowl.	235986898	1478285204501	1478285204574	h	72
461748	4971546	I guess the next time I'll see you is for Superbowl.	I guess the next time I'll see you is for Superbowl.	235986901	1478285204661	1478285204808	e	69
461748	4971546	I guess the next time I'll see you is for Superbowl.	I guess the next time I'll see you is for Superbowl.	235986902	1478285204804	1478285204881	 	32
461748	4971546	I guess the next time I'll see you is for Superbowl.	I guess the next time I'll see you is for Superbowl.	235986903	1478285204993	1478285205067	n	78
461748	4971546	I guess the next time I'll see you is for Superbowl.	I guess the next time I'll see you is for Superbowl.	235986905	1478285205113	1478285205209	e	69
461748	4971546	I guess the next time I'll see you is for Superbowl.	I guess the next time I'll see you is for Superbowl.	235986911	1478285205355	1478285205454	s	83
461748	4971546	I guess the next time I'll see you is for Superbowl.	I guess the next time I'll see you is for Superbowl.	235987072	1478285205434	1478285205501	t	84
461748	4971546	I guess the next time I'll see you is for Superbowl.	I guess the next time I'll see you is for Superbowl.	235987079	1478285205806	1478285205847	=	187
461748	4971546	I guess the next time I'll see you is for Superbowl.	I guess the next time I'll see you is for Superbowl.	235987085	1478285206163	1478285206250	BKSP	8
461748	4971546	I guess the next time I'll see you is for Superbowl.	I guess the next time I'll see you is for Superbowl.	235987092	1478285206326	1478285206392	BKSP	8
461748	4971546	I guess the next time I'll see you is for Superbowl.	I guess the next time I'll see you is for Superbowl.	235987098	1478285206931	1478285207031	x	88
461748	4971546	I guess the next time I'll see you is for Superbowl.	I guess the next time I'll see you is for Superbowl.	235987106	1478285207045	1478285207105	t	84
461748	4971546	I guess the next time I'll see you is for Superbowl.	I guess the next time I'll see you is for Superbowl.	235987114	1478285207181	1478285207269	 	32
461748	4971546	I guess the next time I'll see you is for Superbowl.	I guess the next time I'll see you is for Superbowl.	235987122	1478285207333	1478285207426	t	84
461748	4971546	I guess the next time I'll see you is for Superbowl.	I guess the next time I'll see you is for Superbowl.	235987321	1478285208218	1478285208281	i	73
461748	4971546	I guess the next time I'll see you is for Superbowl.	I guess the next time I'll see you is for Superbowl.	235987325	1478285208365	1478285208459	m	77
461748	4971546	I guess the next time I'll see you is for Superbowl.	I guess the next time I'll see you is for Superbowl.	235987330	1478285208520	1478285208629	e	69
461748	4971546	I guess the next time I'll see you is for Superbowl.	I guess the next time I'll see you is for Superbowl.	235987334	1478285208655	1478285208714	 	32
461748	4971546	I guess the next time I'll see you is for Superbowl.	I guess the next time I'll see you is for Superbowl.	235987476	1478285209467	1478285209796	SHIFT	16
461748	4971546	I guess the next time I'll see you is for Superbowl.	I guess the next time I'll see you is for Superbowl.	235987336	1478285209652	1478285209709	I	73
461748	4971546	I guess the next time I'll see you is for Superbowl.	I guess the next time I'll see you is for Superbowl.	235987478	1478285210533	1478285210600	'	222
461748	4971546	I guess the next time I'll see you is for Superbowl.	I guess the next time I'll see you is for Superbowl.	235987491	1478285210887	1478285210954	l	76
461748	4971546	I guess the next time I'll see you is for Superbowl.	I guess the next time I'll see you is for Superbowl.	235987497	1478285211030	1478285211101	l	76
461748	4971546	I guess the next time I'll see you is for Superbowl.	I guess the next time I'll see you is for Superbowl.	235987502	1478285211241	1478285211327	 	32
461748	4971546	I guess the next time I'll see you is for Superbowl.	I guess the next time I'll see you is for Superbowl.	235987507	1478285211591	1478285211718	s	83
461748	4971546	I guess the next time I'll see you is for Superbowl.	I guess the next time I'll see you is for Superbowl.	235987884	1478285211918	1478285212036	e	69
461748	4971546	I guess the next time I'll see you is for Superbowl.	I guess the next time I'll see you is for Superbowl.	235987890	1478285212152	1478285212226	e	69
461748	4971546	I guess the next time I'll see you is for Superbowl.	I guess the next time I'll see you is for Superbowl.	235987900	1478285212248	1478285212343	 	32
461748	4971546	I guess the next time I'll see you is for Superbowl.	I guess the next time I'll see you is for Superbowl.	235987919	1478285214894	1478285214955	\	220
461748	4971546	I guess the next time I'll see you is for Superbowl.	I guess the next time I'll see you is for Superbowl.	235987910	1478285214897	1478285214946	BKSP	8
461748	4971546	I guess the next time I'll see you is for Superbowl.	I guess the next time I'll see you is for Superbowl.	235987927	1478285215661	1478285215749	BKSP	8
461748	4971546	I guess the next time I'll see you is for Superbowl.	I guess the next time I'll see you is for Superbowl.	235987936	1478285217697	1478285217775	y	89
461748	4971546	I guess the next time I'll see you is for Superbowl.	I guess the next time I'll see you is for Superbowl.	235988035	1478285217761	1478285217971	o	79
461748	4971546	I guess the next time I'll see you is for Superbowl.	I guess the next time I'll see you is for Superbowl.	235988038	1478285217900	1478285218009	u	85
461748	4971546	I guess the next time I'll see you is for Superbowl.	I guess the next time I'll see you is for Superbowl.	235988042	1478285218162	1478285218274	 	32
461748	4971546	I guess the next time I'll see you is for Superbowl.	I guess the next time I'll see you is for Superbowl.	235988045	1478285218531	1478285218572	u	73
461748	4971546	I guess the next time I'll see you is for Superbowl.	I guess the next time I'll see you is for Superbowl.	235988189	1478285218926	1478285218995	=	8
461748	4971546	I guess the next time I'll see you is for Superbowl.	I guess the next time I'll see you is for Superbowl.	235988194	1478285219444	1478285219511	BKSP	8
461748	4971546	I guess the next time I'll see you is for Superbowl.	I guess the next time I'll see you is for Superbowl.	235988200	1478285220293	1478285220403	s	83
461748	4971546	I guess the next time I'll see you is for Superbowl.	I guess the next time I'll see you is for Superbowl.	235988206	1478285220530	1478285220626	 	32
461748	4971546	I guess the next time I'll see you is for Superbowl.	I guess the next time I'll see you is for Superbowl.	235988210	1478285221244	1478285221366	f	70
461748	4971546	I guess the next time I'll see you is for Superbowl.	I guess the next time I'll see you is for Superbowl.	235988214	1478285221363	1478285221412	o	79
461748	4971546	I guess the next time I'll see you is for Superbowl.	I guess the next time I'll see you is for Superbowl.	235988217	1478285221473	1478285221596	r	82
461748	4971546	I guess the next time I'll see you is for Superbowl.	I guess the next time I'll see you is for Superbowl.	235988412	1478285221617	1478285221700	 	32
461748	4971546	I guess the next time I'll see you is for Superbowl.	I guess the next time I'll see you is for Superbowl.	235988416	1478285222602	1478285223017	SHIFT	16
461748	4971546	I guess the next time I'll see you is for Superbowl.	I guess the next time I'll see you is for Superbowl.	235988414	1478285222851	1478285223006	S	83
461748	4971546	I guess the next time I'll see you is for Superbowl.	I guess the next time I'll see you is for Superbowl.	235988418	1478285223300	1478285223369	u	85
461748	4971546	I guess the next time I'll see you is for Superbowl.	I guess the next time I'll see you is for Superbowl.	235988419	1478285224131	1478285224206	p	80
461748	4971546	I guess the next time I'll see you is for Superbowl.	I guess the next time I'll see you is for Superbowl.	235988421	1478285224262	1478285224487	e	69
461748	4971546	I guess the next time I'll see you is for Superbowl.	I guess the next time I'll see you is for Superbowl.	235988627	1478285224422	1478285224576	r	82
461748	4971546	I guess the next time I'll see you is for Superbowl.	I guess the next time I'll see you is for Superbowl.	235988634	1478285225472	1478285225524	b	66
461748	4971546	I guess the next time I'll see you is for Superbowl.	I guess the next time I'll see you is for Superbowl.	235988640	1478285225842	1478285225915	o	79
461748	4971546	I guess the next time I'll see you is for Superbowl.	I guess the next time I'll see you is for Superbowl.	235988644	1478285225994	1478285226124	w	87
461748	4971546	I guess the next time I'll see you is for Superbowl.	I guess the next time I'll see you is for Superbowl.	235988648	1478285226352	1478285226416	;	186
461748	4971546	I guess the next time I'll see you is for Superbowl.	I guess the next time I'll see you is for Superbowl.	235988653	1478285227099	1478285227186	BKSP	8
461748	4971546	I guess the next time I'll see you is for Superbowl.	I guess the next time I'll see you is for Superbowl.	235988660	1478285227391	1478285227445	l	76
461748	4971546	I guess the next time I'll see you is for Superbowl.	I guess the next time I'll see you is for Superbowl.	235988696	1478285227943	1478285228002	.	190
461748	4971598	The accord was due to have come into effect overnight.	The accord was due to have come into effect overnight.	235988986	1478285231052	1478285231622	SHIFT	16
461748	4971598	The accord was due to have come into effect overnight.	The accord was due to have come into effect overnight.	235988983	1478285231369	1478285231447	T	84
461748	4971598	The accord was due to have come into effect overnight.	The accord was due to have come into effect overnight.	235988990	1478285231860	1478285231945	h	72
461748	4971598	The accord was due to have come into effect overnight.	The accord was due to have come into effect overnight.	235988994	1478285231978	1478285232100	e	69
461748	4971598	The accord was due to have come into effect overnight.	The accord was due to have come into effect overnight.	235988999	1478285232120	1478285232191	 	32
461748	4971598	The accord was due to have come into effect overnight.	The accord was due to have come into effect overnight.	235989003	1478285232533	1478285232632	a	65
461748	4971598	The accord was due to have come into effect overnight.	The accord was due to have come into effect overnight.	235989140	1478285232971	1478285233030	c	67
461748	4971598	The accord was due to have come into effect overnight.	The accord was due to have come into effect overnight.	235989145	1478285233178	1478285233236	c	67
461748	4971598	The accord was due to have come into effect overnight.	The accord was due to have come into effect overnight.	235989149	1478285233917	1478285233993	o	79
461748	4971598	The accord was due to have come into effect overnight.	The accord was due to have come into effect overnight.	235989153	1478285234062	1478285234182	r	82
461748	4971598	The accord was due to have come into effect overnight.	The accord was due to have come into effect overnight.	235989157	1478285234386	1478285234521	d	68
461748	4971598	The accord was due to have come into effect overnight.	The accord was due to have come into effect overnight.	235989255	1478285234639	1478285234734	 	32
461748	4971598	The accord was due to have come into effect overnight.	The accord was due to have come into effect overnight.	235989258	1478285235654	1478285235750	w	87
461748	4971598	The accord was due to have come into effect overnight.	The accord was due to have come into effect overnight.	235989260	1478285235881	1478285236007	a	65
461748	4971598	The accord was due to have come into effect overnight.	The accord was due to have come into effect overnight.	235989262	1478285236116	1478285236237	s	83
461748	4971598	The accord was due to have come into effect overnight.	The accord was due to have come into effect overnight.	235989264	1478285236276	1478285236372	 	32
461748	4971598	The accord was due to have come into effect overnight.	The accord was due to have come into effect overnight.	235989339	1478285236831	1478285236931	d	68
461748	4971598	The accord was due to have come into effect overnight.	The accord was due to have come into effect overnight.	235989345	1478285236964	1478285237049	u	85
461748	4971598	The accord was due to have come into effect overnight.	The accord was due to have come into effect overnight.	235989349	1478285237108	1478285237218	e	69
461748	4971598	The accord was due to have come into effect overnight.	The accord was due to have come into effect overnight.	235989355	1478285237231	1478285237329	 	32
461748	4971598	The accord was due to have come into effect overnight.	The accord was due to have come into effect overnight.	235989359	1478285237435	1478285237562	t	84
461748	4971598	The accord was due to have come into effect overnight.	The accord was due to have come into effect overnight.	235989423	1478285237526	1478285237638	o	79
461748	4971598	The accord was due to have come into effect overnight.	The accord was due to have come into effect overnight.	235989426	1478285237677	1478285237782	 	32
461748	4971598	The accord was due to have come into effect overnight.	The accord was due to have come into effect overnight.	235989429	1478285237935	1478285238016	h	72
461748	4971598	The accord was due to have come into effect overnight.	The accord was due to have come into effect overnight.	235989433	1478285238063	1478285238210	a	65
461748	4971598	The accord was due to have come into effect overnight.	The accord was due to have come into effect overnight.	235989437	1478285238275	1478285238323	v	86
461748	4971598	The accord was due to have come into effect overnight.	The accord was due to have come into effect overnight.	235989443	1478285238443	1478285238544	e	69
461748	4971598	The accord was due to have come into effect overnight.	The accord was due to have come into effect overnight.	235989521	1478285238567	1478285238653	 	32
461748	4971598	The accord was due to have come into effect overnight.	The accord was due to have come into effect overnight.	235989524	1478285239329	1478285239445	c	67
461748	4971598	The accord was due to have come into effect overnight.	The accord was due to have come into effect overnight.	235989527	1478285239453	1478285239540	o	79
461748	4971598	The accord was due to have come into effect overnight.	The accord was due to have come into effect overnight.	235989535	1478285239625	1478285239697	m	77
461748	4971598	The accord was due to have come into effect overnight.	The accord was due to have come into effect overnight.	235989538	1478285239751	1478285239865	e	69
461748	4971598	The accord was due to have come into effect overnight.	The accord was due to have come into effect overnight.	235989759	1478285239849	1478285239947	 	32
461748	4971598	The accord was due to have come into effect overnight.	The accord was due to have come into effect overnight.	235989760	1478285240967	1478285241017	BKSP	8
461748	4971598	The accord was due to have come into effect overnight.	The accord was due to have come into effect overnight.	235989762	1478285241602	1478285241685	 	32
461748	4971598	The accord was due to have come into effect overnight.	The accord was due to have come into effect overnight.	235989764	1478285242162	1478285242212	i	73
461748	4971598	The accord was due to have come into effect overnight.	The accord was due to have come into effect overnight.	235989767	1478285242294	1478285242397	n	78
461748	4971598	The accord was due to have come into effect overnight.	The accord was due to have come into effect overnight.	235989770	1478285242673	1478285242782	t	84
461748	4971598	The accord was due to have come into effect overnight.	The accord was due to have come into effect overnight.	235989774	1478285242796	1478285242894	o	79
461748	4971598	The accord was due to have come into effect overnight.	The accord was due to have come into effect overnight.	235989876	1478285242955	1478285243054	 	32
461748	4971598	The accord was due to have come into effect overnight.	The accord was due to have come into effect overnight.	235989877	1478285243635	1478285243742	e	69
461748	4971598	The accord was due to have come into effect overnight.	The accord was due to have come into effect overnight.	235989879	1478285243991	1478285244059	f	70
461748	4971598	The accord was due to have come into effect overnight.	The accord was due to have come into effect overnight.	235989882	1478285244156	1478285244224	f	70
461748	4971598	The accord was due to have come into effect overnight.	The accord was due to have come into effect overnight.	235989885	1478285244424	1478285244491	t	84
461748	4971598	The accord was due to have come into effect overnight.	The accord was due to have come into effect overnight.	235990031	1478285244821	1478285244888	BKSP	8
461748	4971598	The accord was due to have come into effect overnight.	The accord was due to have come into effect overnight.	235990033	1478285245015	1478285245128	e	69
461748	4971598	The accord was due to have come into effect overnight.	The accord was due to have come into effect overnight.	235990035	1478285245509	1478285245614	c	67
461748	4971598	The accord was due to have come into effect overnight.	The accord was due to have come into effect overnight.	235990038	1478285245780	1478285245846	t	84
461748	4971598	The accord was due to have come into effect overnight.	The accord was due to have come into effect overnight.	235990042	1478285245905	1478285246003	 	32
461748	4971598	The accord was due to have come into effect overnight.	The accord was due to have come into effect overnight.	235990047	1478285246747	1478285246803	o	79
461748	4971598	The accord was due to have come into effect overnight.	The accord was due to have come into effect overnight.	235990195	1478285247006	1478285247084	v	86
461748	4971598	The accord was due to have come into effect overnight.	The accord was due to have come into effect overnight.	235990202	1478285247130	1478285247313	e	69
461748	4971598	The accord was due to have come into effect overnight.	The accord was due to have come into effect overnight.	235990212	1478285247253	1478285247371	r	82
461748	4971598	The accord was due to have come into effect overnight.	The accord was due to have come into effect overnight.	235990218	1478285247657	1478285247733	t	84
461748	4971598	The accord was due to have come into effect overnight.	The accord was due to have come into effect overnight.	235990221	1478285247981	1478285248059	BKSP	8
461748	4971598	The accord was due to have come into effect overnight.	The accord was due to have come into effect overnight.	235990224	1478285248413	1478285248518	n	78
461748	4971598	The accord was due to have come into effect overnight.	The accord was due to have come into effect overnight.	235990308	1478285248521	1478285248633	i	73
461748	4971598	The accord was due to have come into effect overnight.	The accord was due to have come into effect overnight.	235990311	1478285248725	1478285248810	g	71
461748	4971598	The accord was due to have come into effect overnight.	The accord was due to have come into effect overnight.	235990316	1478285248832	1478285248902	h	72
461748	4971598	The accord was due to have come into effect overnight.	The accord was due to have come into effect overnight.	235990321	1478285248969	1478285249083	t	84
461748	4971598	The accord was due to have come into effect overnight.	The accord was due to have come into effect overnight.	235990327	1478285249850	1478285249915	.	190
461748	4971630	Thanks for your help in quickly setting this up.	Thanks for your help in quickly setting this up.	235990604	1478285252611	1478285252918	SHIFT	16
461748	4971630	Thanks for your help in quickly setting this up.	Thanks for your help in quickly setting this up.	235990598	1478285252816	1478285252883	T	84
461748	4971630	Thanks for your help in quickly setting this up.	Thanks for your help in quickly setting this up.	235990614	1478285253048	1478285253117	h	72
461748	4971630	Thanks for your help in quickly setting this up.	Thanks for your help in quickly setting this up.	235990622	1478285253183	1478285253310	a	65
461748	4971630	Thanks for your help in quickly setting this up.	Thanks for your help in quickly setting this up.	235990628	1478285253748	1478285253803	n	78
461748	4971630	Thanks for your help in quickly setting this up.	Thanks for your help in quickly setting this up.	235990635	1478285253954	1478285254006	l	76
461748	4971630	Thanks for your help in quickly setting this up.	Thanks for your help in quickly setting this up.	235990848	1478285254339	1478285254392	BKSP	8
461748	4971630	Thanks for your help in quickly setting this up.	Thanks for your help in quickly setting this up.	235990852	1478285254802	1478285254846	m	77
461748	4971630	Thanks for your help in quickly setting this up.	Thanks for your help in quickly setting this up.	235990855	1478285255368	1478285255439	BKSP	8
461748	4971630	Thanks for your help in quickly setting this up.	Thanks for your help in quickly setting this up.	235990860	1478285256143	1478285256250	k	75
461748	4971630	Thanks for your help in quickly setting this up.	Thanks for your help in quickly setting this up.	235990861	1478285256275	1478285256412	s	83
461748	4971630	Thanks for your help in quickly setting this up.	Thanks for your help in quickly setting this up.	235990864	1478285256586	1478285256702	 	32
461748	4971630	Thanks for your help in quickly setting this up.	Thanks for your help in quickly setting this up.	235990868	1478285257242	1478285257338	f	70
461748	4971630	Thanks for your help in quickly setting this up.	Thanks for your help in quickly setting this up.	235990950	1478285257379	1478285257459	o	79
461748	4971630	Thanks for your help in quickly setting this up.	Thanks for your help in quickly setting this up.	235990954	1478285257514	1478285257668	r	82
461748	4971630	Thanks for your help in quickly setting this up.	Thanks for your help in quickly setting this up.	235990959	1478285257691	1478285257785	 	32
461748	4971630	Thanks for your help in quickly setting this up.	Thanks for your help in quickly setting this up.	235990967	1478285258457	1478285258614	y	89
461748	4971630	Thanks for your help in quickly setting this up.	Thanks for your help in quickly setting this up.	235991103	1478285258561	1478285258781	o	79
461748	4971630	Thanks for your help in quickly setting this up.	Thanks for your help in quickly setting this up.	235991109	1478285258702	1478285258839	u	85
461748	4971630	Thanks for your help in quickly setting this up.	Thanks for your help in quickly setting this up.	235991115	1478285258867	1478285259007	r	82
461748	4971630	Thanks for your help in quickly setting this up.	Thanks for your help in quickly setting this up.	235991121	1478285258993	1478285259119	 	32
461748	4971630	Thanks for your help in quickly setting this up.	Thanks for your help in quickly setting this up.	235991126	1478285259646	1478285259675	g	71
461748	4971630	Thanks for your help in quickly setting this up.	Thanks for your help in quickly setting this up.	235991127	1478285259960	1478285260046	BKSP	8
461748	4971630	Thanks for your help in quickly setting this up.	Thanks for your help in quickly setting this up.	235991131	1478285260251	1478285260312	h	72
461748	4971630	Thanks for your help in quickly setting this up.	Thanks for your help in quickly setting this up.	235991221	1478285260358	1478285260437	e	69
461748	4971630	Thanks for your help in quickly setting this up.	Thanks for your help in quickly setting this up.	235991227	1478285260714	1478285260862	l	76
461748	4971630	Thanks for your help in quickly setting this up.	Thanks for your help in quickly setting this up.	235991233	1478285260813	1478285260924	p	80
461748	4971630	Thanks for your help in quickly setting this up.	Thanks for your help in quickly setting this up.	235991240	1478285261185	1478285261279	 	32
461748	4971630	Thanks for your help in quickly setting this up.	Thanks for your help in quickly setting this up.	235991246	1478285261565	1478285261649	i	73
461748	4971630	Thanks for your help in quickly setting this up.	Thanks for your help in quickly setting this up.	235991407	1478285261911	1478285261975	n	78
461748	4971630	Thanks for your help in quickly setting this up.	Thanks for your help in quickly setting this up.	235991413	1478285262083	1478285262174	 	32
461748	4971630	Thanks for your help in quickly setting this up.	Thanks for your help in quickly setting this up.	235991418	1478285262951	1478285263076	q	81
461748	4971630	Thanks for your help in quickly setting this up.	Thanks for your help in quickly setting this up.	235991424	1478285263174	1478285263229	u	85
461748	4971630	Thanks for your help in quickly setting this up.	Thanks for your help in quickly setting this up.	235991431	1478285263423	1478285263503	i	73
461748	4971630	Thanks for your help in quickly setting this up.	Thanks for your help in quickly setting this up.	235991647	1478285263582	1478285263669	c	67
461748	4971630	Thanks for your help in quickly setting this up.	Thanks for your help in quickly setting this up.	235991653	1478285264681	1478285264851	k	75
461748	4971630	Thanks for your help in quickly setting this up.	Thanks for your help in quickly setting this up.	235991658	1478285265040	1478285265143	l	76
461748	4971630	Thanks for your help in quickly setting this up.	Thanks for your help in quickly setting this up.	235991665	1478285265396	1478285265481	u	85
461748	4971630	Thanks for your help in quickly setting this up.	Thanks for your help in quickly setting this up.	235991675	1478285265730	1478285265857	 	32
461748	4971630	Thanks for your help in quickly setting this up.	Thanks for your help in quickly setting this up.	235991803	1478285266053	1478285266121	BKSP	8
461748	4971630	Thanks for your help in quickly setting this up.	Thanks for your help in quickly setting this up.	235991807	1478285266197	1478285266256	BKSP	8
461748	4971630	Thanks for your help in quickly setting this up.	Thanks for your help in quickly setting this up.	235991812	1478285266873	1478285266939	y	89
461748	4971630	Thanks for your help in quickly setting this up.	Thanks for your help in quickly setting this up.	235991815	1478285266983	1478285267102	 	32
461748	4971630	Thanks for your help in quickly setting this up.	Thanks for your help in quickly setting this up.	235991820	1478285267664	1478285267769	s	83
461748	4971630	Thanks for your help in quickly setting this up.	Thanks for your help in quickly setting this up.	235991828	1478285267914	1478285268040	e	69
461748	4971630	Thanks for your help in quickly setting this up.	Thanks for your help in quickly setting this up.	235991834	1478285268269	1478285268340	t	84
461748	4971630	Thanks for your help in quickly setting this up.	Thanks for your help in quickly setting this up.	235991882	1478285268455	1478285268559	t	84
461748	4971630	Thanks for your help in quickly setting this up.	Thanks for your help in quickly setting this up.	235991885	1478285268544	1478285268700	i	73
461748	4971630	Thanks for your help in quickly setting this up.	Thanks for your help in quickly setting this up.	235991889	1478285268685	1478285268785	n	78
461748	4971630	Thanks for your help in quickly setting this up.	Thanks for your help in quickly setting this up.	235991894	1478285268832	1478285268947	g	71
461748	4971630	Thanks for your help in quickly setting this up.	Thanks for your help in quickly setting this up.	235991902	1478285269233	1478285269335	 	32
461748	4971630	Thanks for your help in quickly setting this up.	Thanks for your help in quickly setting this up.	235992005	1478285269758	1478285269894	t	84
461748	4971630	Thanks for your help in quickly setting this up.	Thanks for your help in quickly setting this up.	235992011	1478285269901	1478285269975	h	72
461748	4971630	Thanks for your help in quickly setting this up.	Thanks for your help in quickly setting this up.	235992017	1478285270201	1478285270318	i	73
461748	4971630	Thanks for your help in quickly setting this up.	Thanks for your help in quickly setting this up.	235992022	1478285270351	1478285270485	s	83
461748	4971630	Thanks for your help in quickly setting this up.	Thanks for your help in quickly setting this up.	235992029	1478285270495	1478285270597	 	32
461748	4971630	Thanks for your help in quickly setting this up.	Thanks for your help in quickly setting this up.	235992171	1478285271036	1478285271121	i	73
461748	4971630	Thanks for your help in quickly setting this up.	Thanks for your help in quickly setting this up.	235992173	1478285271382	1478285271477	BKSP	8
461748	4971630	Thanks for your help in quickly setting this up.	Thanks for your help in quickly setting this up.	235992180	1478285271690	1478285271827	u	85
461748	4971630	Thanks for your help in quickly setting this up.	Thanks for your help in quickly setting this up.	235992186	1478285271787	1478285271865	p	80
461748	4971630	Thanks for your help in quickly setting this up.	Thanks for your help in quickly setting this up.	235992192	1478285272167	1478285272233	.	190
461748	4971671	The meteor shower was incredible last night.	The meteor shower was incredible last night.	235992545	1478285275239	1478285275538	SHIFT	16
461748	4971671	The meteor shower was incredible last night.	The meteor shower was incredible last night.	235992539	1478285275431	1478285275498	T	84
461748	4971671	The meteor shower was incredible last night.	The meteor shower was incredible last night.	235992550	1478285275812	1478285275888	h	72
461748	4971671	The meteor shower was incredible last night.	The meteor shower was incredible last night.	235992556	1478285276076	1478285276224	e	69
461748	4971671	The meteor shower was incredible last night.	The meteor shower was incredible last night.	235992562	1478285276231	1478285276304	 	32
461748	4971671	The meteor shower was incredible last night.	The meteor shower was incredible last night.	235992569	1478285276863	1478285276937	m	77
461748	4971671	The meteor shower was incredible last night.	The meteor shower was incredible last night.	235992729	1478285277014	1478285277139	e	69
461748	4971671	The meteor shower was incredible last night.	The meteor shower was incredible last night.	235992734	1478285277370	1478285277486	t	84
461748	4971671	The meteor shower was incredible last night.	The meteor shower was incredible last night.	235992741	1478285277557	1478285277627	o	79
461748	4971671	The meteor shower was incredible last night.	The meteor shower was incredible last night.	235992747	1478285278451	1478285278528	BKSP	8
461748	4971671	The meteor shower was incredible last night.	The meteor shower was incredible last night.	235992754	1478285278556	1478285278750	e	69
461748	4971671	The meteor shower was incredible last night.	The meteor shower was incredible last night.	235992759	1478285278778	1478285278887	o	79
461748	4971671	The meteor shower was incredible last night.	The meteor shower was incredible last night.	235992863	1478285278978	1478285279060	r	82
461748	4971671	The meteor shower was incredible last night.	The meteor shower was incredible last night.	235992868	1478285279238	1478285279348	 	32
461748	4971671	The meteor shower was incredible last night.	The meteor shower was incredible last night.	235992875	1478285280071	1478285280183	s	83
461748	4971671	The meteor shower was incredible last night.	The meteor shower was incredible last night.	235992882	1478285280216	1478285280300	h	72
461748	4971671	The meteor shower was incredible last night.	The meteor shower was incredible last night.	235992890	1478285280402	1478285280499	o	79
461748	4971671	The meteor shower was incredible last night.	The meteor shower was incredible last night.	235993049	1478285280582	1478285280759	w	87
461748	4971671	The meteor shower was incredible last night.	The meteor shower was incredible last night.	235993053	1478285281164	1478285281271	r	82
461748	4971671	The meteor shower was incredible last night.	The meteor shower was incredible last night.	235993057	1478285281724	1478285281807	BKSP	8
461748	4971671	The meteor shower was incredible last night.	The meteor shower was incredible last night.	235993064	1478285281792	1478285282000	e	69
461748	4971671	The meteor shower was incredible last night.	The meteor shower was incredible last night.	235993069	1478285281937	1478285282066	r	82
461748	4971671	The meteor shower was incredible last night.	The meteor shower was incredible last night.	235993076	1478285282195	1478285282355	s	83
461748	4971671	The meteor shower was incredible last night.	The meteor shower was incredible last night.	235993177	1478285282436	1478285282540	 	32
461748	4971671	The meteor shower was incredible last night.	The meteor shower was incredible last night.	235993181	1478285282782	1478285282945	w	87
461748	4971671	The meteor shower was incredible last night.	The meteor shower was incredible last night.	235993187	1478285282927	1478285283210	a	65
461748	4971671	The meteor shower was incredible last night.	The meteor shower was incredible last night.	235993195	1478285283129	1478285283298	s	83
461748	4971671	The meteor shower was incredible last night.	The meteor shower was incredible last night.	235993204	1478285283310	1478285283425	 	32
461748	4971671	The meteor shower was incredible last night.	The meteor shower was incredible last night.	235993352	1478285284142	1478285284233	i	73
461748	4971671	The meteor shower was incredible last night.	The meteor shower was incredible last night.	235993356	1478285284306	1478285284401	n	78
461748	4971671	The meteor shower was incredible last night.	The meteor shower was incredible last night.	235993363	1478285284495	1478285284596	c	67
461748	4971671	The meteor shower was incredible last night.	The meteor shower was incredible last night.	235993367	1478285284754	1478285284878	r	82
461748	4971671	The meteor shower was incredible last night.	The meteor shower was incredible last night.	235993371	1478285284913	1478285285088	e	69
461748	4971671	The meteor shower was incredible last night.	The meteor shower was incredible last night.	235993544	1478285286050	1478285286169	d	68
461748	4971671	The meteor shower was incredible last night.	The meteor shower was incredible last night.	235993548	1478285286340	1478285286434	i	73
461748	4971671	The meteor shower was incredible last night.	The meteor shower was incredible last night.	235993552	1478285286714	1478285286776	b	66
461748	4971671	The meteor shower was incredible last night.	The meteor shower was incredible last night.	235993558	1478285286988	1478285287093	l	76
461748	4971671	The meteor shower was incredible last night.	The meteor shower was incredible last night.	235993567	1478285287200	1478285287315	e	69
461748	4971671	The meteor shower was incredible last night.	The meteor shower was incredible last night.	235994517	1478285291167	1478285291336	BKSP	8
461748	4971671	The meteor shower was incredible last night.	The meteor shower was incredible last night.	235994521	1478285291462	1478285291584	BKSP	8
461748	4971671	The meteor shower was incredible last night.	The meteor shower was incredible last night.	235994525	1478285291681	1478285291921	BKSP	8
461748	4971671	The meteor shower was incredible last night.	The meteor shower was incredible last night.	235994529	1478285292489	1478285292610	BKSP	8
461748	4971671	The meteor shower was incredible last night.	The meteor shower was incredible last night.	235994535	1478285294311	1478285294580	BKSP	8
461748	4971671	The meteor shower was incredible last night.	The meteor shower was incredible last night.	235994542	1478285294867	1478285294975	BKSP	8
461748	4971671	The meteor shower was incredible last night.	The meteor shower was incredible last night.	235994551	1478285295100	1478285295173	BKSP	8
461748	4971671	The meteor shower was incredible last night.	The meteor shower was incredible last night.	235994558	1478285295278	1478285295327	BKSP	8
461748	4971671	The meteor shower was incredible last night.	The meteor shower was incredible last night.	235994566	1478285295664	1478285296302	BKSP	8
461748	4971671	The meteor shower was incredible last night.	The meteor shower was incredible last night.	235994574	1478285296616	1478285296753	BKSP	8
461748	4971671	The meteor shower was incredible last night.	The meteor shower was incredible last night.	235994581	1478285297288	1478285297354	 	32
461748	4971671	The meteor shower was incredible last night.	The meteor shower was incredible last night.	235994587	1478285297445	1478285297587	w	87
461748	4971671	The meteor shower was incredible last night.	The meteor shower was incredible last night.	235994591	1478285297645	1478285297849	a	65
461748	4971671	The meteor shower was incredible last night.	The meteor shower was incredible last night.	235994596	1478285297778	1478285297941	s	83
461748	4971671	The meteor shower was incredible last night.	The meteor shower was incredible last night.	235994602	1478285297956	1478285298040	 	32
461748	4971671	The meteor shower was incredible last night.	The meteor shower was incredible last night.	235994671	1478285298655	1478285298756	i	73
461748	4971671	The meteor shower was incredible last night.	The meteor shower was incredible last night.	235994677	1478285298809	1478285298902	n	78
461748	4971671	The meteor shower was incredible last night.	The meteor shower was incredible last night.	235994683	1478285298983	1478285299096	c	67
461748	4971671	The meteor shower was incredible last night.	The meteor shower was incredible last night.	235994692	1478285299282	1478285299416	r	82
461748	4971671	The meteor shower was incredible last night.	The meteor shower was incredible last night.	235994698	1478285299605	1478285299738	e	69
461748	4971671	The meteor shower was incredible last night.	The meteor shower was incredible last night.	235994812	1478285299936	1478285300068	d	68
461748	4971671	The meteor shower was incredible last night.	The meteor shower was incredible last night.	235994818	1478285300518	1478285300631	i	73
461748	4971671	The meteor shower was incredible last night.	The meteor shower was incredible last night.	235994827	1478285300985	1478285301040	b	66
461748	4971671	The meteor shower was incredible last night.	The meteor shower was incredible last night.	235994833	1478285301254	1478285301347	l	76
461748	4971671	The meteor shower was incredible last night.	The meteor shower was incredible last night.	235994838	1478285301399	1478285301553	e	69
461748	4971671	The meteor shower was incredible last night.	The meteor shower was incredible last night.	235994944	1478285301739	1478285301825	 	32
461748	4971671	The meteor shower was incredible last night.	The meteor shower was incredible last night.	235994948	1478285302235	1478285302311	l	76
461748	4971671	The meteor shower was incredible last night.	The meteor shower was incredible last night.	235994953	1478285302365	1478285302534	a	65
461748	4971671	The meteor shower was incredible last night.	The meteor shower was incredible last night.	235994955	1478285302632	1478285302740	s	83
461748	4971671	The meteor shower was incredible last night.	The meteor shower was incredible last night.	235994960	1478285302917	1478285303028	t	84
461748	4971671	The meteor shower was incredible last night.	The meteor shower was incredible last night.	235995067	1478285303068	1478285303180	 	32
461748	4971671	The meteor shower was incredible last night.	The meteor shower was incredible last night.	235995073	1478285303652	1478285303784	n	78
461748	4971671	The meteor shower was incredible last night.	The meteor shower was incredible last night.	235995075	1478285303762	1478285303878	i	73
461748	4971671	The meteor shower was incredible last night.	The meteor shower was incredible last night.	235995079	1478285303864	1478285303968	g	71
461748	4971671	The meteor shower was incredible last night.	The meteor shower was incredible last night.	235995080	1478285304037	1478285304095	h	72
461748	4971671	The meteor shower was incredible last night.	The meteor shower was incredible last night.	235995142	1478285304158	1478285304246	t	84
461748	4971671	The meteor shower was incredible last night.	The meteor shower was incredible last night.	235995148	1478285305020	1478285305079	.	190
461748	4971732	Throw it away and not let it touch your heart.	Throw it away and not let it touch your heart.	235995583	1478285308652	1478285309111	SHIFT	16
461748	4971732	Throw it away and not let it touch your heart.	Throw it away and not let it touch your heart.	235995577	1478285308908	1478285309087	T	84
461748	4971732	Throw it away and not let it touch your heart.	Throw it away and not let it touch your heart.	235995591	1478285309368	1478285309480	h	72
461748	4971732	Throw it away and not let it touch your heart.	Throw it away and not let it touch your heart.	235995596	1478285309714	1478285309819	r	82
461748	4971732	Throw it away and not let it touch your heart.	Throw it away and not let it touch your heart.	235995600	1478285309943	1478285310028	o	79
461748	4971732	Throw it away and not let it touch your heart.	Throw it away and not let it touch your heart.	235995606	1478285310070	1478285310214	w	87
461748	4971732	Throw it away and not let it touch your heart.	Throw it away and not let it touch your heart.	235995757	1478285310309	1478285310401	 	32
461748	4971732	Throw it away and not let it touch your heart.	Throw it away and not let it touch your heart.	235995760	1478285310996	1478285311075	i	73
461748	4971732	Throw it away and not let it touch your heart.	Throw it away and not let it touch your heart.	235995766	1478285311104	1478285311245	t	84
461748	4971732	Throw it away and not let it touch your heart.	Throw it away and not let it touch your heart.	235995770	1478285311275	1478285311367	 	32
461748	4971732	Throw it away and not let it touch your heart.	Throw it away and not let it touch your heart.	235995775	1478285312118	1478285312235	a	65
461748	4971732	Throw it away and not let it touch your heart.	Throw it away and not let it touch your heart.	235995892	1478285312690	1478285312860	w	87
461748	4971732	Throw it away and not let it touch your heart.	Throw it away and not let it touch your heart.	235995898	1478285312830	1478285313023	a	65
461748	4971732	Throw it away and not let it touch your heart.	Throw it away and not let it touch your heart.	235995904	1478285312960	1478285313038	y	89
461748	4971732	Throw it away and not let it touch your heart.	Throw it away and not let it touch your heart.	235995906	1478285313143	1478285313260	 	32
461748	4971732	Throw it away and not let it touch your heart.	Throw it away and not let it touch your heart.	235995908	1478285313631	1478285313745	a	65
461748	4971732	Throw it away and not let it touch your heart.	Throw it away and not let it touch your heart.	235996006	1478285313755	1478285313815	n	78
461748	4971732	Throw it away and not let it touch your heart.	Throw it away and not let it touch your heart.	235996009	1478285313879	1478285313991	d	68
461748	4971732	Throw it away and not let it touch your heart.	Throw it away and not let it touch your heart.	235996014	1478285313995	1478285314092	 	32
461748	4971732	Throw it away and not let it touch your heart.	Throw it away and not let it touch your heart.	235996020	1478285314635	1478285314722	n	78
461748	4971732	Throw it away and not let it touch your heart.	Throw it away and not let it touch your heart.	235996025	1478285314821	1478285314910	o	79
461748	4971732	Throw it away and not let it touch your heart.	Throw it away and not let it touch your heart.	235996098	1478285314937	1478285315048	t	84
461748	4971732	Throw it away and not let it touch your heart.	Throw it away and not let it touch your heart.	235996104	1478285315081	1478285315184	 	32
461748	4971732	Throw it away and not let it touch your heart.	Throw it away and not let it touch your heart.	235996110	1478285315347	1478285315443	l	76
461748	4971732	Throw it away and not let it touch your heart.	Throw it away and not let it touch your heart.	235996117	1478285315487	1478285315667	e	69
461748	4971732	Throw it away and not let it touch your heart.	Throw it away and not let it touch your heart.	235996122	1478285315779	1478285315916	t	84
461748	4971732	Throw it away and not let it touch your heart.	Throw it away and not let it touch your heart.	235996170	1478285315954	1478285316036	 	32
461748	4971732	Throw it away and not let it touch your heart.	Throw it away and not let it touch your heart.	235996173	1478285316146	1478285316254	i	73
461748	4971732	Throw it away and not let it touch your heart.	Throw it away and not let it touch your heart.	235996178	1478285316271	1478285316375	t	84
461748	4971732	Throw it away and not let it touch your heart.	Throw it away and not let it touch your heart.	235996182	1478285316437	1478285316539	 	32
461748	4971732	Throw it away and not let it touch your heart.	Throw it away and not let it touch your heart.	235996187	1478285316768	1478285316863	t	84
461748	4971732	Throw it away and not let it touch your heart.	Throw it away and not let it touch your heart.	235996309	1478285317214	1478285317377	o	79
461748	4971732	Throw it away and not let it touch your heart.	Throw it away and not let it touch your heart.	235996313	1478285317326	1478285317445	u	85
461748	4971732	Throw it away and not let it touch your heart.	Throw it away and not let it touch your heart.	235996317	1478285317880	1478285318038	c	67
461748	4971732	Throw it away and not let it touch your heart.	Throw it away and not let it touch your heart.	235996322	1478285317998	1478285318101	h	72
461748	4971732	Throw it away and not let it touch your heart.	Throw it away and not let it touch your heart.	235996325	1478285318205	1478285318301	 	32
461748	4971732	Throw it away and not let it touch your heart.	Throw it away and not let it touch your heart.	235996399	1478285318758	1478285318885	y	89
461748	4971732	Throw it away and not let it touch your heart.	Throw it away and not let it touch your heart.	235996407	1478285318870	1478285319044	o	79
461748	4971732	Throw it away and not let it touch your heart.	Throw it away and not let it touch your heart.	235996413	1478285318989	1478285319134	u	85
461748	4971732	Throw it away and not let it touch your heart.	Throw it away and not let it touch your heart.	235996417	1478285319141	1478285319264	r	82
461748	4971732	Throw it away and not let it touch your heart.	Throw it away and not let it touch your heart.	235996423	1478285319341	1478285319433	 	32
461748	4971732	Throw it away and not let it touch your heart.	Throw it away and not let it touch your heart.	235996520	1478285319924	1478285319999	h	72
461748	4971732	Throw it away and not let it touch your heart.	Throw it away and not let it touch your heart.	235996523	1478285320060	1478285320231	e	69
461748	4971732	Throw it away and not let it touch your heart.	Throw it away and not let it touch your heart.	235996525	1478285320238	1478285320458	a	65
461748	4971732	Throw it away and not let it touch your heart.	Throw it away and not let it touch your heart.	235996528	1478285320409	1478285320563	r	82
461748	4971732	Throw it away and not let it touch your heart.	Throw it away and not let it touch your heart.	235996740	1478285320513	1478285320650	t	84
461748	4971732	Throw it away and not let it touch your heart.	Throw it away and not let it touch your heart.	235996743	1478285321285	1478285321351	,	188
461748	4971732	Throw it away and not let it touch your heart.	Throw it away and not let it touch your heart.	235996746	1478285321677	1478285321769	BKSP	8
461748	4971732	Throw it away and not let it touch your heart.	Throw it away and not let it touch your heart.	235996751	1478285321980	1478285322055	,	188
461748	4971732	Throw it away and not let it touch your heart.	Throw it away and not let it touch your heart.	235996756	1478285322554	1478285322662	BKSP	8
461748	4971732	Throw it away and not let it touch your heart.	Throw it away and not let it touch your heart.	235996760	1478285322930	1478285323006	.	190
461748	4971764	Fares shown are roundtrip.	Fares shown are roundtrip.	235997066	1478285326195	1478285326500	SHIFT	16
461748	4971764	Fares shown are roundtrip.	Fares shown are roundtrip.	235997064	1478285326402	1478285326467	F	70
461748	4971764	Fares shown are roundtrip.	Fares shown are roundtrip.	235997070	1478285326530	1478285326656	a	65
461748	4971764	Fares shown are roundtrip.	Fares shown are roundtrip.	235997074	1478285326675	1478285326760	r	82
461748	4971764	Fares shown are roundtrip.	Fares shown are roundtrip.	235997080	1478285326855	1478285326979	e	69
461748	4971764	Fares shown are roundtrip.	Fares shown are roundtrip.	235997086	1478285327096	1478285327210	s	83
461748	4971764	Fares shown are roundtrip.	Fares shown are roundtrip.	235997201	1478285327217	1478285327323	 	32
461748	4971764	Fares shown are roundtrip.	Fares shown are roundtrip.	235997204	1478285327908	1478285328028	s	83
461748	4971764	Fares shown are roundtrip.	Fares shown are roundtrip.	235997210	1478285328102	1478285328190	h	72
461748	4971764	Fares shown are roundtrip.	Fares shown are roundtrip.	235997213	1478285328530	1478285328608	o	79
461748	4971764	Fares shown are roundtrip.	Fares shown are roundtrip.	235997216	1478285328625	1478285328742	w	87
461748	4971764	Fares shown are roundtrip.	Fares shown are roundtrip.	235997281	1478285328861	1478285328959	n	78
461748	4971764	Fares shown are roundtrip.	Fares shown are roundtrip.	235997284	1478285329193	1478285329276	 	32
461748	4971764	Fares shown are roundtrip.	Fares shown are roundtrip.	235997288	1478285329530	1478285329651	a	65
461748	4971764	Fares shown are roundtrip.	Fares shown are roundtrip.	235997292	1478285329885	1478285329983	r	82
461748	4971764	Fares shown are roundtrip.	Fares shown are roundtrip.	235997296	1478285330321	1478285330440	e	69
461748	4971764	Fares shown are roundtrip.	Fares shown are roundtrip.	235997371	1478285330565	1478285330646	 	32
461748	4971764	Fares shown are roundtrip.	Fares shown are roundtrip.	235997373	1478285331072	1478285331146	r	82
461748	4971764	Fares shown are roundtrip.	Fares shown are roundtrip.	235997377	1478285331265	1478285331431	o	79
461748	4971764	Fares shown are roundtrip.	Fares shown are roundtrip.	235997386	1478285331392	1478285331490	u	85
461748	4971764	Fares shown are roundtrip.	Fares shown are roundtrip.	235997397	1478285331796	1478285331868	n	78
461748	4971764	Fares shown are roundtrip.	Fares shown are roundtrip.	235997552	1478285332153	1478285332256	d	68
461748	4971764	Fares shown are roundtrip.	Fares shown are roundtrip.	235997557	1478285332866	1478285333033	t	84
461748	4971764	Fares shown are roundtrip.	Fares shown are roundtrip.	235997561	1478285332980	1478285333177	r	82
461748	4971764	Fares shown are roundtrip.	Fares shown are roundtrip.	235997566	1478285333255	1478285333415	i	73
461748	4971764	Fares shown are roundtrip.	Fares shown are roundtrip.	235997569	1478285333452	1478285333564	p	80
461748	4971764	Fares shown are roundtrip.	Fares shown are roundtrip.	235997640	1478285334243	1478285334308	.	190
461748	4971782	What number should he call you on?	What number should he call you on?	235997912	1478285336996	1478285337507	SHIFT	16
461748	4971782	What number should he call you on?	What number should he call you on?	235997909	1478285337278	1478285337457	W	87
461748	4971782	What number should he call you on?	What number should he call you on?	235997916	1478285337586	1478285337661	h	72
461748	4971782	What number should he call you on?	What number should he call you on?	235997920	1478285337746	1478285337871	a	65
461748	4971782	What number should he call you on?	What number should he call you on?	235997926	1478285337901	1478285337973	t	84
461748	4971782	What number should he call you on?	What number should he call you on?	235997930	1478285338134	1478285338214	 	32
461748	4971782	What number should he call you on?	What number should he call you on?	235998053	1478285338967	1478285339025	n	78
461748	4971782	What number should he call you on?	What number should he call you on?	235998057	1478285339166	1478285339231	u	85
461748	4971782	What number should he call you on?	What number should he call you on?	235998061	1478285339400	1478285339462	m	77
461748	4971782	What number should he call you on?	What number should he call you on?	235998067	1478285339636	1478285339692	b	66
461748	4971782	What number should he call you on?	What number should he call you on?	235998074	1478285339802	1478285339978	e	69
461748	4971782	What number should he call you on?	What number should he call you on?	235998182	1478285339928	1478285340077	r	82
461748	4971782	What number should he call you on?	What number should he call you on?	235998185	1478285340101	1478285340202	 	32
461748	4971782	What number should he call you on?	What number should he call you on?	235998189	1478285340796	1478285340963	s	83
461748	4971782	What number should he call you on?	What number should he call you on?	235998191	1478285340963	1478285341003	h	72
461748	4971782	What number should he call you on?	What number should he call you on?	235998193	1478285341148	1478285341312	o	79
461748	4971782	What number should he call you on?	What number should he call you on?	235998262	1478285341273	1478285341379	u	85
461748	4971782	What number should he call you on?	What number should he call you on?	235998266	1478285341441	1478285341575	l	76
461748	4971782	What number should he call you on?	What number should he call you on?	235998271	1478285341622	1478285341703	d	68
461748	4971782	What number should he call you on?	What number should he call you on?	235998277	1478285341725	1478285341821	 	32
461748	4971782	What number should he call you on?	What number should he call you on?	235998282	1478285342010	1478285342111	b	66
461748	4971782	What number should he call you on?	What number should he call you on?	235998286	1478285342161	1478285342286	e	69
461748	4971782	What number should he call you on?	What number should he call you on?	235998433	1478285342283	1478285342376	 	32
461748	4971782	What number should he call you on?	What number should he call you on?	235998441	1478285342677	1478285342750	BKSP	8
461748	4971782	What number should he call you on?	What number should he call you on?	235998449	1478285342845	1478285342918	BKSP	8
461748	4971782	What number should he call you on?	What number should he call you on?	235998462	1478285342991	1478285343054	BKSP	8
461748	4971782	What number should he call you on?	What number should he call you on?	235998474	1478285343284	1478285343361	h	72
461748	4971782	What number should he call you on?	What number should he call you on?	235998480	1478285343376	1478285343487	e	69
461748	4971782	What number should he call you on?	What number should he call you on?	235998489	1478285343530	1478285343591	 	32
461748	4971782	What number should he call you on?	What number should he call you on?	235998497	1478285344023	1478285344165	c	67
461748	4971782	What number should he call you on?	What number should he call you on?	235998502	1478285344250	1478285344437	a	65
461748	4971782	What number should he call you on?	What number should he call you on?	235998579	1478285344533	1478285344585	l	76
461748	4971782	What number should he call you on?	What number should he call you on?	235998582	1478285344666	1478285344734	l	76
461748	4971782	What number should he call you on?	What number should he call you on?	235998585	1478285344790	1478285344896	 	32
461748	4971782	What number should he call you on?	What number should he call you on?	235998588	1478285345589	1478285345685	y	89
461748	4971782	What number should he call you on?	What number should he call you on?	235998701	1478285345629	1478285345839	o	79
461748	4971782	What number should he call you on?	What number should he call you on?	235998704	1478285345775	1478285345926	u	85
461748	4971782	What number should he call you on?	What number should he call you on?	235998707	1478285346341	1478285346464	 	32
461748	4971782	What number should he call you on?	What number should he call you on?	235998710	1478285346678	1478285346753	o	79
461748	4971782	What number should he call you on?	What number should he call you on?	235998713	1478285346819	1478285346915	n	78
461748	4971782	What number should he call you on?	What number should he call you on?	235998716	1478285347514	1478285347570	"	222
461748	4971782	What number should he call you on?	What number should he call you on?	235998820	1478285348221	1478285348292	BKSP	8
461748	4971782	What number should he call you on?	What number should he call you on?	235998821	1478285348459	1478285348546	?	191
461748	4971815	If your reasonable, I'll bereasonable.	If your reasonable, I'll bereasonable.	235999323	1478285353491	1478285353588	I	73
461748	4971815	If your reasonable, I'll bereasonable.	If your reasonable, I'll bereasonable.	235999335	1478285353972	1478285354091	f	70
461748	4971815	If your reasonable, I'll bereasonable.	If your reasonable, I'll bereasonable.	235999341	1478285354121	1478285354217	 	32
461748	4971815	If your reasonable, I'll bereasonable.	If your reasonable, I'll bereasonable.	235999348	1478285354598	1478285354682	y	89
461748	4971815	If your reasonable, I'll bereasonable.	If your reasonable, I'll bereasonable.	235999412	1478285354662	1478285354843	o	79
461748	4971815	If your reasonable, I'll bereasonable.	If your reasonable, I'll bereasonable.	235999418	1478285354790	1478285354918	u	85
461748	4971815	If your reasonable, I'll bereasonable.	If your reasonable, I'll bereasonable.	235999425	1478285354935	1478285355081	r	82
461748	4971815	If your reasonable, I'll bereasonable.	If your reasonable, I'll bereasonable.	235999431	1478285355065	1478285355176	 	32
461748	4971815	If your reasonable, I'll bereasonable.	If your reasonable, I'll bereasonable.	235999440	1478285355628	1478285355764	r	82
461748	4971815	If your reasonable, I'll bereasonable.	If your reasonable, I'll bereasonable.	235999594	1478285355721	1478285355874	e	69
461748	4971815	If your reasonable, I'll bereasonable.	If your reasonable, I'll bereasonable.	235999603	1478285356156	1478285356285	a	65
461748	4971815	If your reasonable, I'll bereasonable.	If your reasonable, I'll bereasonable.	235999610	1478285356619	1478285356776	s	83
461748	4971815	If your reasonable, I'll bereasonable.	If your reasonable, I'll bereasonable.	235999619	1478285357241	1478285357344	o	79
461748	4971815	If your reasonable, I'll bereasonable.	If your reasonable, I'll bereasonable.	235999629	1478285357393	1478285357500	n	78
461748	4971815	If your reasonable, I'll bereasonable.	If your reasonable, I'll bereasonable.	235999635	1478285357544	1478285357674	a	65
461748	4971815	If your reasonable, I'll bereasonable.	If your reasonable, I'll bereasonable.	235999785	1478285357692	1478285357763	b	66
461748	4971815	If your reasonable, I'll bereasonable.	If your reasonable, I'll bereasonable.	235999792	1478285357953	1478285358064	l	76
461748	4971815	If your reasonable, I'll bereasonable.	If your reasonable, I'll bereasonable.	235999799	1478285358159	1478285358312	e	69
461748	4971815	If your reasonable, I'll bereasonable.	If your reasonable, I'll bereasonable.	235999805	1478285359112	1478285359162	,	188
461748	4971815	If your reasonable, I'll bereasonable.	If your reasonable, I'll bereasonable.	235999812	1478285359299	1478285359367	 	32
461748	4971815	If your reasonable, I'll bereasonable.	If your reasonable, I'll bereasonable.	236000058	1478285360139	1478285360428	SHIFT	16
461748	4971815	If your reasonable, I'll bereasonable.	If your reasonable, I'll bereasonable.	236000054	1478285360274	1478285360346	I	73
461748	4971815	If your reasonable, I'll bereasonable.	If your reasonable, I'll bereasonable.	236000062	1478285361397	1478285361474	'	222
461748	4971815	If your reasonable, I'll bereasonable.	If your reasonable, I'll bereasonable.	236000066	1478285362209	1478285362266	l	76
461748	4971815	If your reasonable, I'll bereasonable.	If your reasonable, I'll bereasonable.	236000074	1478285362346	1478285362435	l	76
461748	4971815	If your reasonable, I'll bereasonable.	If your reasonable, I'll bereasonable.	236000082	1478285362508	1478285362599	 	32
461748	4971815	If your reasonable, I'll bereasonable.	If your reasonable, I'll bereasonable.	236000256	1478285363991	1478285364090	b	66
461748	4971815	If your reasonable, I'll bereasonable.	If your reasonable, I'll bereasonable.	236000259	1478285364076	1478285364222	e	69
461748	4971815	If your reasonable, I'll bereasonable.	If your reasonable, I'll bereasonable.	236000261	1478285364401	1478285364510	 	32
461748	4971815	If your reasonable, I'll bereasonable.	If your reasonable, I'll bereasonable.	236000266	1478285364639	1478285364815	r	82
461748	4971815	If your reasonable, I'll bereasonable.	If your reasonable, I'll bereasonable.	236000759	1478285364748	1478285364928	e	69
461748	4971815	If your reasonable, I'll bereasonable.	If your reasonable, I'll bereasonable.	236000765	1478285365090	1478285365278	a	65
461748	4971815	If your reasonable, I'll bereasonable.	If your reasonable, I'll bereasonable.	236000773	1478285365304	1478285365467	s	83
461748	4971815	If your reasonable, I'll bereasonable.	If your reasonable, I'll bereasonable.	236000778	1478285367315	1478285367386	BKSP	8
461748	4971815	If your reasonable, I'll bereasonable.	If your reasonable, I'll bereasonable.	236000782	1478285367521	1478285367553	BKSP	8
461748	4971815	If your reasonable, I'll bereasonable.	If your reasonable, I'll bereasonable.	236000787	1478285367662	1478285367718	BKSP	8
461748	4971815	If your reasonable, I'll bereasonable.	If your reasonable, I'll bereasonable.	236000793	1478285367931	1478285368021	BKSP	8
461748	4971815	If your reasonable, I'll bereasonable.	If your reasonable, I'll bereasonable.	236000797	1478285368261	1478285368386	BKSP	8
461748	4971815	If your reasonable, I'll bereasonable.	If your reasonable, I'll bereasonable.	236000803	1478285369145	1478285369250	r	82
461748	4971815	If your reasonable, I'll bereasonable.	If your reasonable, I'll bereasonable.	236000809	1478285369189	1478285369379	e	69
461748	4971815	If your reasonable, I'll bereasonable.	If your reasonable, I'll bereasonable.	236000816	1478285369563	1478285369753	a	65
461748	4971815	If your reasonable, I'll bereasonable.	If your reasonable, I'll bereasonable.	236000920	1478285369936	1478285370074	s	83
461748	4971815	If your reasonable, I'll bereasonable.	If your reasonable, I'll bereasonable.	236000925	1478285370691	1478285370866	o	79
461748	4971815	If your reasonable, I'll bereasonable.	If your reasonable, I'll bereasonable.	236000929	1478285370863	1478285370967	n	78
461748	4971815	If your reasonable, I'll bereasonable.	If your reasonable, I'll bereasonable.	236000935	1478285371032	1478285371152	a	65
461748	4971815	If your reasonable, I'll bereasonable.	If your reasonable, I'll bereasonable.	236000945	1478285371620	1478285371687	b	66
461748	4971815	If your reasonable, I'll bereasonable.	If your reasonable, I'll bereasonable.	236001074	1478285372116	1478285372202	l	76
461748	4971815	If your reasonable, I'll bereasonable.	If your reasonable, I'll bereasonable.	236001083	1478285372272	1478285372415	e	69
461748	4971815	If your reasonable, I'll bereasonable.	If your reasonable, I'll bereasonable.	236001090	1478285373136	1478285373225	.	190
461748	4971862	We are also in touch with the U.	We are also in touch with the U.	236001454	1478285376273	1478285376851	SHIFT	16
461748	4971862	We are also in touch with the U.	We are also in touch with the U.	236001444	1478285376676	1478285376842	W	87
461748	4971862	We are also in touch with the U.	We are also in touch with the U.	236001458	1478285377111	1478285377164	r	69
461748	4971862	We are also in touch with the U.	We are also in touch with the U.	236001465	1478285377595	1478285377680	BKSP	8
461748	4971862	We are also in touch with the U.	We are also in touch with the U.	236001470	1478285377858	1478285377943	 	32
461748	4971862	We are also in touch with the U.	We are also in touch with the U.	236001605	1478285378155	1478285378269	s	65
461748	4971862	We are also in touch with the U.	We are also in touch with the U.	236001609	1478285378661	1478285378769	BKSP	8
461748	4971862	We are also in touch with the U.	We are also in touch with the U.	236001614	1478285379164	1478285379352	r	82
461748	4971862	We are also in touch with the U.	We are also in touch with the U.	236001619	1478285379262	1478285379439	e	69
461748	4971862	We are also in touch with the U.	We are also in touch with the U.	236001623	1478285379404	1478285379486	 	32
461748	4971862	We are also in touch with the U.	We are also in touch with the U.	236001628	1478285379622	1478285379807	a	65
461748	4971862	We are also in touch with the U.	We are also in touch with the U.	236001632	1478285379976	1478285380092	l	76
461748	4971862	We are also in touch with the U.	We are also in touch with the U.	236001677	1478285380137	1478285380278	s	83
461748	4971862	We are also in touch with the U.	We are also in touch with the U.	236001681	1478285380295	1478285380451	o	79
461748	4971862	We are also in touch with the U.	We are also in touch with the U.	236001689	1478285380478	1478285380614	 	32
461748	4971862	We are also in touch with the U.	We are also in touch with the U.	236001694	1478285380781	1478285380875	i	73
461748	4971862	We are also in touch with the U.	We are also in touch with the U.	236001700	1478285380997	1478285381075	n	78
461748	4971862	We are also in touch with the U.	We are also in touch with the U.	236001851	1478285381191	1478285381281	 	32
461748	4971862	We are also in touch with the U.	We are also in touch with the U.	236001861	1478285381940	1478285382041	t	84
461748	4971862	We are also in touch with the U.	We are also in touch with the U.	236001868	1478285382085	1478285382251	o	79
461748	4971862	We are also in touch with the U.	We are also in touch with the U.	236001880	1478285382202	1478285382300	u	85
461748	4971862	We are also in touch with the U.	We are also in touch with the U.	236001886	1478285382613	1478285382784	c	67
461748	4971862	We are also in touch with the U.	We are also in touch with the U.	236001959	1478285382736	1478285382822	h	72
461748	4971862	We are also in touch with the U.	We are also in touch with the U.	236001960	1478285382880	1478285382973	 	32
461748	4971862	We are also in touch with the U.	We are also in touch with the U.	236001964	1478285383249	1478285383398	w	87
461748	4971862	We are also in touch with the U.	We are also in touch with the U.	236001970	1478285383378	1478285383468	i	73
461748	4971862	We are also in touch with the U.	We are also in touch with the U.	236001976	1478285383591	1478285383707	t	84
461748	4971862	We are also in touch with the U.	We are also in touch with the U.	236001981	1478285383718	1478285383785	h	72
461748	4971862	We are also in touch with the U.	We are also in touch with the U.	236002052	1478285383867	1478285383970	 	32
461748	4971862	We are also in touch with the U.	We are also in touch with the U.	236002060	1478285384521	1478285384612	t	84
461748	4971862	We are also in touch with the U.	We are also in touch with the U.	236002067	1478285384596	1478285384658	h	72
461748	4971862	We are also in touch with the U.	We are also in touch with the U.	236002283	1478285384831	1478285384945	w	87
461748	4971862	We are also in touch with the U.	We are also in touch with the U.	236002073	1478285384873	1478285384904	e	69
461748	4971862	We are also in touch with the U.	We are also in touch with the U.	236002286	1478285384966	1478285385062	 	32
461748	4971862	We are also in touch with the U.	We are also in touch with the U.	236002292	1478285385330	1478285385362	BKSP	8
461748	4971862	We are also in touch with the U.	We are also in touch with the U.	236002297	1478285385455	1478285385514	BKSP	8
461748	4971862	We are also in touch with the U.	We are also in touch with the U.	236002305	1478285385590	1478285385670	BKSP	8
461748	4971862	We are also in touch with the U.	We are also in touch with the U.	236002311	1478285385625	1478285385745	e	69
461748	4971862	We are also in touch with the U.	We are also in touch with the U.	236002321	1478285385779	1478285385869	 	32
461748	4971862	We are also in touch with the U.	We are also in touch with the U.	236002340	1478285386257	1478285386608	SHIFT	16
461748	4971862	We are also in touch with the U.	We are also in touch with the U.	236002330	1478285386456	1478285386534	U	85
461748	4971862	We are also in touch with the U.	We are also in touch with the U.	236002349	1478285387242	1478285387294	.	190
461748	4971889	Call me if you have any questions.	Call me if you have any questions.	236002668	1478285389965	1478285390163	SHIFT	16
461748	4971889	Call me if you have any questions.	Call me if you have any questions.	236002672	1478285390118	1478285390178	C	67
461748	4971889	Call me if you have any questions.	Call me if you have any questions.	236002675	1478285390294	1478285390395	a	65
461748	4971889	Call me if you have any questions.	Call me if you have any questions.	236002677	1478285390618	1478285390675	l	76
461748	4971889	Call me if you have any questions.	Call me if you have any questions.	236002683	1478285390766	1478285390826	l	76
461748	4971889	Call me if you have any questions.	Call me if you have any questions.	236002688	1478285390891	1478285391000	 	32
461748	4971889	Call me if you have any questions.	Call me if you have any questions.	236002785	1478285391082	1478285391169	m	77
461748	4971889	Call me if you have any questions.	Call me if you have any questions.	236002788	1478285391209	1478285391357	e	69
461748	4971889	Call me if you have any questions.	Call me if you have any questions.	236002791	1478285391341	1478285391455	 	32
461748	4971889	Call me if you have any questions.	Call me if you have any questions.	236002794	1478285392036	1478285392110	i	73
461748	4971889	Call me if you have any questions.	Call me if you have any questions.	236002798	1478285392122	1478285392241	f	70
461748	4971889	Call me if you have any questions.	Call me if you have any questions.	236002820	1478285392277	1478285392352	 	32
461748	4971889	Call me if you have any questions.	Call me if you have any questions.	236002824	1478285392474	1478285392567	y	89
461748	4971889	Call me if you have any questions.	Call me if you have any questions.	236002828	1478285392552	1478285392704	o	79
461748	4971889	Call me if you have any questions.	Call me if you have any questions.	236002833	1478285392651	1478285392769	u	85
461748	4971889	Call me if you have any questions.	Call me if you have any questions.	236002836	1478285392793	1478285392889	 	32
461748	4971889	Call me if you have any questions.	Call me if you have any questions.	236002922	1478285393479	1478285393555	h	72
461748	4971889	Call me if you have any questions.	Call me if you have any questions.	236002930	1478285393595	1478285393721	a	65
461748	4971889	Call me if you have any questions.	Call me if you have any questions.	236002939	1478285393706	1478285393774	v	86
461748	4971889	Call me if you have any questions.	Call me if you have any questions.	236002947	1478285393923	1478285394058	e	69
461748	4971889	Call me if you have any questions.	Call me if you have any questions.	236003088	1478285394043	1478285394144	 	32
461748	4971889	Call me if you have any questions.	Call me if you have any questions.	236003094	1478285394441	1478285394604	a	65
461748	4971889	Call me if you have any questions.	Call me if you have any questions.	236003106	1478285394601	1478285394650	n	78
461748	4971889	Call me if you have any questions.	Call me if you have any questions.	236003113	1478285394959	1478285395032	y	89
461748	4971889	Call me if you have any questions.	Call me if you have any questions.	236003123	1478285395125	1478285395213	 	32
461748	4971889	Call me if you have any questions.	Call me if you have any questions.	236003130	1478285395829	1478285395932	q	81
461748	4971889	Call me if you have any questions.	Call me if you have any questions.	236003344	1478285396017	1478285396078	u	85
461748	4971889	Call me if you have any questions.	Call me if you have any questions.	236003347	1478285396578	1478285396652	e	69
461748	4971889	Call me if you have any questions.	Call me if you have any questions.	236003351	1478285396776	1478285396895	s	83
461748	4971889	Call me if you have any questions.	Call me if you have any questions.	236003356	1478285397706	1478285397830	t	84
461748	4971889	Call me if you have any questions.	Call me if you have any questions.	236003361	1478285398309	1478285398513	i	73
461748	4971889	Call me if you have any questions.	Call me if you have any questions.	236003427	1478285398435	1478285398590	o	79
461748	4971889	Call me if you have any questions.	Call me if you have any questions.	236003431	1478285398609	1478285398742	n	78
461748	4971889	Call me if you have any questions.	Call me if you have any questions.	236003440	1478285398783	1478285398892	s	83
461748	4971889	Call me if you have any questions.	Call me if you have any questions.	236003447	1478285399267	1478285399330	.	190
461748	4971910	I think that will help.	I think that will help.	236003801	1478285402106	1478285402552	SHIFT	16
461748	4971910	I think that will help.	I think that will help.	236003798	1478285402399	1478285402471	I	73
461748	4971910	I think that will help.	I think that will help.	236003805	1478285402870	1478285402962	 	32
461748	4971910	I think that will help.	I think that will help.	236003809	1478285403108	1478285403222	t	84
461748	4971910	I think that will help.	I think that will help.	236003815	1478285403203	1478285403334	h	72
461748	4971910	I think that will help.	I think that will help.	236003907	1478285403306	1478285403443	i	73
461748	4971910	I think that will help.	I think that will help.	236003912	1478285403480	1478285403624	n	78
461748	4971910	I think that will help.	I think that will help.	236003924	1478285403654	1478285403901	k	75
461748	4971910	I think that will help.	I think that will help.	236003931	1478285404150	1478285404251	 	32
461748	4971910	I think that will help.	I think that will help.	236003937	1478285404591	1478285404707	t	84
461748	4971910	I think that will help.	I think that will help.	236003944	1478285404748	1478285404831	h	72
461748	4971910	I think that will help.	I think that will help.	236003978	1478285404906	1478285405095	a	65
461748	4971910	I think that will help.	I think that will help.	236003980	1478285405059	1478285405146	t	84
461748	4971910	I think that will help.	I think that will help.	236003984	1478285405189	1478285405275	 	32
461748	4971910	I think that will help.	I think that will help.	236003988	1478285405587	1478285405712	w	87
461748	4971910	I think that will help.	I think that will help.	236003995	1478285405755	1478285405832	i	73
461748	4971910	I think that will help.	I think that will help.	236004067	1478285405958	1478285406039	l	76
461748	4971910	I think that will help.	I think that will help.	236004076	1478285406129	1478285406189	l	76
461748	4971910	I think that will help.	I think that will help.	236004083	1478285406239	1478285406333	 	32
461748	4971910	I think that will help.	I think that will help.	236004091	1478285406658	1478285406715	h	72
461748	4971910	I think that will help.	I think that will help.	236004099	1478285406766	1478285406872	e	69
461748	4971910	I think that will help.	I think that will help.	236004203	1478285407102	1478285407271	l	76
461748	4971910	I think that will help.	I think that will help.	236004207	1478285407222	1478285407323	p	80
461748	4971910	I think that will help.	I think that will help.	236004212	1478285408041	1478285408134	.	190
461748	4971933	Its revenues last year reached 3.2 billion dollars.	Its revenues last year reached 3.2 billion dollars.	236004584	1478285410764	1478285411055	SHIFT	16
461748	4971933	Its revenues last year reached 3.2 billion dollars.	Its revenues last year reached 3.2 billion dollars.	236004581	1478285410888	1478285410976	I	73
461748	4971933	Its revenues last year reached 3.2 billion dollars.	Its revenues last year reached 3.2 billion dollars.	236004591	1478285411283	1478285411298	r	82
461748	4971933	Its revenues last year reached 3.2 billion dollars.	Its revenues last year reached 3.2 billion dollars.	236004599	1478285412035	1478285412105	BKSP	8
461748	4971933	Its revenues last year reached 3.2 billion dollars.	Its revenues last year reached 3.2 billion dollars.	236004605	1478285412401	1478285412474	t	84
461748	4971933	Its revenues last year reached 3.2 billion dollars.	Its revenues last year reached 3.2 billion dollars.	236004610	1478285412514	1478285412621	s	83
461748	4971933	Its revenues last year reached 3.2 billion dollars.	Its revenues last year reached 3.2 billion dollars.	236004615	1478285412644	1478285412761	 	32
461748	4971933	Its revenues last year reached 3.2 billion dollars.	Its revenues last year reached 3.2 billion dollars.	236004749	1478285413593	1478285413744	r	82
461748	4971933	Its revenues last year reached 3.2 billion dollars.	Its revenues last year reached 3.2 billion dollars.	236004754	1478285413696	1478285413879	e	69
461748	4971933	Its revenues last year reached 3.2 billion dollars.	Its revenues last year reached 3.2 billion dollars.	236004764	1478285413887	1478285413970	v	86
461748	4971933	Its revenues last year reached 3.2 billion dollars.	Its revenues last year reached 3.2 billion dollars.	236004769	1478285414034	1478285414209	e	69
461748	4971933	Its revenues last year reached 3.2 billion dollars.	Its revenues last year reached 3.2 billion dollars.	236004775	1478285414426	1478285414509	n	78
461748	4971933	Its revenues last year reached 3.2 billion dollars.	Its revenues last year reached 3.2 billion dollars.	236004930	1478285415220	1478285415296	u	85
461748	4971933	Its revenues last year reached 3.2 billion dollars.	Its revenues last year reached 3.2 billion dollars.	236004934	1478285415857	1478285415893	s	83
461748	4971933	Its revenues last year reached 3.2 billion dollars.	Its revenues last year reached 3.2 billion dollars.	236004938	1478285416300	1478285416359	BKSP	8
461748	4971933	Its revenues last year reached 3.2 billion dollars.	Its revenues last year reached 3.2 billion dollars.	236004944	1478285416395	1478285416529	e	69
461748	4971933	Its revenues last year reached 3.2 billion dollars.	Its revenues last year reached 3.2 billion dollars.	236004949	1478285416609	1478285416753	s	83
461748	4971933	Its revenues last year reached 3.2 billion dollars.	Its revenues last year reached 3.2 billion dollars.	236005052	1478285416739	1478285416818	 	32
461748	4971933	Its revenues last year reached 3.2 billion dollars.	Its revenues last year reached 3.2 billion dollars.	236005056	1478285417201	1478285417282	l	76
461748	4971933	Its revenues last year reached 3.2 billion dollars.	Its revenues last year reached 3.2 billion dollars.	236005059	1478285417291	1478285417418	a	65
461748	4971933	Its revenues last year reached 3.2 billion dollars.	Its revenues last year reached 3.2 billion dollars.	236005062	1478285417554	1478285417693	s	83
461748	4971933	Its revenues last year reached 3.2 billion dollars.	Its revenues last year reached 3.2 billion dollars.	236005073	1478285417663	1478285417750	t	84
461748	4971933	Its revenues last year reached 3.2 billion dollars.	Its revenues last year reached 3.2 billion dollars.	236005081	1478285417808	1478285417923	 	32
461748	4971933	Its revenues last year reached 3.2 billion dollars.	Its revenues last year reached 3.2 billion dollars.	236005149	1478285418591	1478285418667	y	89
461748	4971933	Its revenues last year reached 3.2 billion dollars.	Its revenues last year reached 3.2 billion dollars.	236005151	1478285418675	1478285418870	e	69
461748	4971933	Its revenues last year reached 3.2 billion dollars.	Its revenues last year reached 3.2 billion dollars.	236005155	1478285418826	1478285419062	a	65
461748	4971933	Its revenues last year reached 3.2 billion dollars.	Its revenues last year reached 3.2 billion dollars.	236005158	1478285419037	1478285419166	r	82
461748	4971933	Its revenues last year reached 3.2 billion dollars.	Its revenues last year reached 3.2 billion dollars.	236005162	1478285419237	1478285419342	 	32
461748	4971933	Its revenues last year reached 3.2 billion dollars.	Its revenues last year reached 3.2 billion dollars.	236005241	1478285419953	1478285420116	r	82
461748	4971933	Its revenues last year reached 3.2 billion dollars.	Its revenues last year reached 3.2 billion dollars.	236005244	1478285420065	1478285420217	e	69
461748	4971933	Its revenues last year reached 3.2 billion dollars.	Its revenues last year reached 3.2 billion dollars.	236005246	1478285420381	1478285420518	a	65
461748	4971933	Its revenues last year reached 3.2 billion dollars.	Its revenues last year reached 3.2 billion dollars.	236005252	1478285420675	1478285420802	c	67
461748	4971933	Its revenues last year reached 3.2 billion dollars.	Its revenues last year reached 3.2 billion dollars.	236005254	1478285420852	1478285420915	h	72
461748	4971933	Its revenues last year reached 3.2 billion dollars.	Its revenues last year reached 3.2 billion dollars.	236005424	1478285421008	1478285421120	e	69
461748	4971933	Its revenues last year reached 3.2 billion dollars.	Its revenues last year reached 3.2 billion dollars.	236005429	1478285421248	1478285421347	d	68
461748	4971933	Its revenues last year reached 3.2 billion dollars.	Its revenues last year reached 3.2 billion dollars.	236005437	1478285421411	1478285421492	 	32
461748	4971933	Its revenues last year reached 3.2 billion dollars.	Its revenues last year reached 3.2 billion dollars.	236005442	1478285423003	1478285423115	3	51
461748	4971933	Its revenues last year reached 3.2 billion dollars.	Its revenues last year reached 3.2 billion dollars.	236005452	1478285423122	1478285423188	.	190
461748	4971933	Its revenues last year reached 3.2 billion dollars.	Its revenues last year reached 3.2 billion dollars.	236005575	1478285423357	1478285423489	2	50
461748	4971933	Its revenues last year reached 3.2 billion dollars.	Its revenues last year reached 3.2 billion dollars.	236005577	1478285423615	1478285423702	 	32
461748	4971933	Its revenues last year reached 3.2 billion dollars.	Its revenues last year reached 3.2 billion dollars.	236005581	1478285424786	1478285424858	b	66
461748	4971933	Its revenues last year reached 3.2 billion dollars.	Its revenues last year reached 3.2 billion dollars.	236005588	1478285425028	1478285425078	i	85
461748	4971933	Its revenues last year reached 3.2 billion dollars.	Its revenues last year reached 3.2 billion dollars.	236005835	1478285425572	1478285425666	BKSP	8
461748	4971933	Its revenues last year reached 3.2 billion dollars.	Its revenues last year reached 3.2 billion dollars.	236005837	1478285425847	1478285425926	i	73
461748	4971933	Its revenues last year reached 3.2 billion dollars.	Its revenues last year reached 3.2 billion dollars.	236005841	1478285426127	1478285426190	BKSP	8
461748	4971933	Its revenues last year reached 3.2 billion dollars.	Its revenues last year reached 3.2 billion dollars.	236005846	1478285426280	1478285426344	BKSP	8
461748	4971933	Its revenues last year reached 3.2 billion dollars.	Its revenues last year reached 3.2 billion dollars.	236005847	1478285426485	1478285426570	i	73
461748	4971933	Its revenues last year reached 3.2 billion dollars.	Its revenues last year reached 3.2 billion dollars.	236005851	1478285426737	1478285426805	;	186
461748	4971933	Its revenues last year reached 3.2 billion dollars.	Its revenues last year reached 3.2 billion dollars.	236005857	1478285426968	1478285427000	;	186
461748	4971933	Its revenues last year reached 3.2 billion dollars.	Its revenues last year reached 3.2 billion dollars.	236005863	1478285427766	1478285427830	BKSP	8
461748	4971933	Its revenues last year reached 3.2 billion dollars.	Its revenues last year reached 3.2 billion dollars.	236005870	1478285427915	1478285427994	BKSP	8
461748	4971933	Its revenues last year reached 3.2 billion dollars.	Its revenues last year reached 3.2 billion dollars.	236005876	1478285428564	1478285428620	l	76
461748	4971933	Its revenues last year reached 3.2 billion dollars.	Its revenues last year reached 3.2 billion dollars.	236005922	1478285428696	1478285428759	l	76
461748	4971933	Its revenues last year reached 3.2 billion dollars.	Its revenues last year reached 3.2 billion dollars.	236005928	1478285429037	1478285429175	i	73
461748	4971933	Its revenues last year reached 3.2 billion dollars.	Its revenues last year reached 3.2 billion dollars.	236005938	1478285429143	1478285429278	o	79
461748	4971933	Its revenues last year reached 3.2 billion dollars.	Its revenues last year reached 3.2 billion dollars.	236005950	1478285429438	1478285429538	n	78
461748	4971933	Its revenues last year reached 3.2 billion dollars.	Its revenues last year reached 3.2 billion dollars.	236005959	1478285429750	1478285429849	 	32
461748	4971933	Its revenues last year reached 3.2 billion dollars.	Its revenues last year reached 3.2 billion dollars.	236006063	1478285430492	1478285430586	d	68
461748	4971933	Its revenues last year reached 3.2 billion dollars.	Its revenues last year reached 3.2 billion dollars.	236006068	1478285430593	1478285430636	o	79
461748	4971933	Its revenues last year reached 3.2 billion dollars.	Its revenues last year reached 3.2 billion dollars.	236006074	1478285430778	1478285430837	l	76
461748	4971933	Its revenues last year reached 3.2 billion dollars.	Its revenues last year reached 3.2 billion dollars.	236006081	1478285430936	1478285431001	l	76
461748	4971933	Its revenues last year reached 3.2 billion dollars.	Its revenues last year reached 3.2 billion dollars.	236006084	1478285431087	1478285431220	a	65
461748	4971933	Its revenues last year reached 3.2 billion dollars.	Its revenues last year reached 3.2 billion dollars.	236006176	1478285431466	1478285431569	r	82
461748	4971933	Its revenues last year reached 3.2 billion dollars.	Its revenues last year reached 3.2 billion dollars.	236006182	1478285431730	1478285431850	s	83
461748	4971933	Its revenues last year reached 3.2 billion dollars.	Its revenues last year reached 3.2 billion dollars.	236006189	1478285432400	1478285432465	.	190
461748	4971966	San Francisco was Interconnect meeting.	San Francisco was Interconnect meeting.	236006444	1478285435110	1478285435411	SHIFT	16
461748	4971966	San Francisco was Interconnect meeting.	San Francisco was Interconnect meeting.	236006451	1478285435326	1478285435578	S	83
461748	4971966	San Francisco was Interconnect meeting.	San Francisco was Interconnect meeting.	236006457	1478285435731	1478285435886	a	65
461748	4971966	San Francisco was Interconnect meeting.	San Francisco was Interconnect meeting.	236006463	1478285435871	1478285435952	n	78
461748	4971966	San Francisco was Interconnect meeting.	San Francisco was Interconnect meeting.	236006467	1478285436021	1478285436147	 	32
461748	4971966	San Francisco was Interconnect meeting.	San Francisco was Interconnect meeting.	236006654	1478285436762	1478285437048	SHIFT	16
461748	4971966	San Francisco was Interconnect meeting.	San Francisco was Interconnect meeting.	236006471	1478285436921	1478285436990	F	70
461748	4971966	San Francisco was Interconnect meeting.	San Francisco was Interconnect meeting.	236006659	1478285437122	1478285437170	r	82
461748	4971966	San Francisco was Interconnect meeting.	San Francisco was Interconnect meeting.	236006666	1478285437264	1478285437384	a	65
461748	4971966	San Francisco was Interconnect meeting.	San Francisco was Interconnect meeting.	236006672	1478285437451	1478285437562	n	78
461748	4971966	San Francisco was Interconnect meeting.	San Francisco was Interconnect meeting.	236006677	1478285438394	1478285438498	c	67
461748	4971966	San Francisco was Interconnect meeting.	San Francisco was Interconnect meeting.	236006681	1478285438592	1478285438682	i	73
461748	4971966	San Francisco was Interconnect meeting.	San Francisco was Interconnect meeting.	236006805	1478285438842	1478285438866	s	83
461748	4971966	San Francisco was Interconnect meeting.	San Francisco was Interconnect meeting.	236006814	1478285439425	1478285439543	c	67
461748	4971966	San Francisco was Interconnect meeting.	San Francisco was Interconnect meeting.	236006822	1478285439679	1478285439770	o	79
461748	4971966	San Francisco was Interconnect meeting.	San Francisco was Interconnect meeting.	236006829	1478285439894	1478285439985	 	32
461748	4971966	San Francisco was Interconnect meeting.	San Francisco was Interconnect meeting.	236006837	1478285440407	1478285440558	w	87
461748	4971966	San Francisco was Interconnect meeting.	San Francisco was Interconnect meeting.	236007003	1478285440542	1478285440762	a	65
461748	4971966	San Francisco was Interconnect meeting.	San Francisco was Interconnect meeting.	236007009	1478285440700	1478285440842	s	83
461748	4971966	San Francisco was Interconnect meeting.	San Francisco was Interconnect meeting.	236007014	1478285440855	1478285440960	 	32
461748	4971966	San Francisco was Interconnect meeting.	San Francisco was Interconnect meeting.	236007025	1478285441464	1478285441683	SHIFT	16
461748	4971966	San Francisco was Interconnect meeting.	San Francisco was Interconnect meeting.	236007021	1478285441527	1478285441607	I	73
461748	4971966	San Francisco was Interconnect meeting.	San Francisco was Interconnect meeting.	236007031	1478285441821	1478285441881	t	84
461748	4971966	San Francisco was Interconnect meeting.	San Francisco was Interconnect meeting.	236007040	1478285442566	1478285442661	BKSP	8
461748	4971966	San Francisco was Interconnect meeting.	San Francisco was Interconnect meeting.	236007048	1478285442912	1478285442981	n	78
461748	4971966	San Francisco was Interconnect meeting.	San Francisco was Interconnect meeting.	236007153	1478285443246	1478285443303	t	84
461748	4971966	San Francisco was Interconnect meeting.	San Francisco was Interconnect meeting.	236007157	1478285443358	1478285443570	e	69
461748	4971966	San Francisco was Interconnect meeting.	San Francisco was Interconnect meeting.	236007161	1478285443470	1478285443669	r	82
461748	4971966	San Francisco was Interconnect meeting.	San Francisco was Interconnect meeting.	236007165	1478285444685	1478285444758	c	67
461748	4971966	San Francisco was Interconnect meeting.	San Francisco was Interconnect meeting.	236007169	1478285444841	1478285444924	o	79
461748	4971966	San Francisco was Interconnect meeting.	San Francisco was Interconnect meeting.	236007198	1478285445094	1478285445123	n	78
461748	4971966	San Francisco was Interconnect meeting.	San Francisco was Interconnect meeting.	236007200	1478285445213	1478285445286	n	78
461748	4971966	San Francisco was Interconnect meeting.	San Francisco was Interconnect meeting.	236007204	1478285445301	1478285445384	e	69
461748	4971966	San Francisco was Interconnect meeting.	San Francisco was Interconnect meeting.	236007210	1478285445531	1478285445687	c	67
461748	4971966	San Francisco was Interconnect meeting.	San Francisco was Interconnect meeting.	236007301	1478285445648	1478285445712	t	84
461748	4971966	San Francisco was Interconnect meeting.	San Francisco was Interconnect meeting.	236007304	1478285445923	1478285446042	 	32
461748	4971966	San Francisco was Interconnect meeting.	San Francisco was Interconnect meeting.	236007308	1478285446592	1478285446661	m	77
461748	4971966	San Francisco was Interconnect meeting.	San Francisco was Interconnect meeting.	236007312	1478285446704	1478285446836	e	69
461748	4971966	San Francisco was Interconnect meeting.	San Francisco was Interconnect meeting.	236007318	1478285446968	1478285447010	t	84
461748	4971966	San Francisco was Interconnect meeting.	San Francisco was Interconnect meeting.	236007323	1478285447101	1478285447161	t	84
461748	4971966	San Francisco was Interconnect meeting.	San Francisco was Interconnect meeting.	236007436	1478285447333	1478285447388	i	73
461748	4971966	San Francisco was Interconnect meeting.	San Francisco was Interconnect meeting.	236007441	1478285447642	1478285447696	BKSP	8
461748	4971966	San Francisco was Interconnect meeting.	San Francisco was Interconnect meeting.	236007446	1478285447803	1478285447861	BKSP	8
461748	4971966	San Francisco was Interconnect meeting.	San Francisco was Interconnect meeting.	236007447	1478285447956	1478285448031	BKSP	8
461748	4971966	San Francisco was Interconnect meeting.	San Francisco was Interconnect meeting.	236007450	1478285448061	1478285448157	e	69
461748	4971966	San Francisco was Interconnect meeting.	San Francisco was Interconnect meeting.	236007453	1478285448418	1478285448517	t	89
461748	4971966	San Francisco was Interconnect meeting.	San Francisco was Interconnect meeting.	236007457	1478285448867	1478285448955	BKSP	8
461748	4971966	San Francisco was Interconnect meeting.	San Francisco was Interconnect meeting.	236007461	1478285449057	1478285449112	BKSP	8
461748	4971966	San Francisco was Interconnect meeting.	San Francisco was Interconnect meeting.	236007469	1478285449230	1478285449343	t	84
461748	4971966	San Francisco was Interconnect meeting.	San Francisco was Interconnect meeting.	236007528	1478285449380	1478285449468	i	73
461748	4971966	San Francisco was Interconnect meeting.	San Francisco was Interconnect meeting.	236007532	1478285449575	1478285449638	n	78
461748	4971966	San Francisco was Interconnect meeting.	San Francisco was Interconnect meeting.	236007538	1478285449645	1478285449757	g	71
461748	4971966	San Francisco was Interconnect meeting.	San Francisco was Interconnect meeting.	236007548	1478285450440	1478285450503	.	190
461748	4971995	Megan, I'm not sure why this is showing up.	Megan, I'm not sure way this is showing up.	236008194	1478285453997	1478285454209	SHIFT	16
461748	4971995	Megan, I'm not sure why this is showing up.	Megan, I'm not sure way this is showing up.	236008188	1478285454087	1478285454163	H	72
461748	4971995	Megan, I'm not sure why this is showing up.	Megan, I'm not sure way this is showing up.	236008201	1478285454464	1478285454515	e	69
461748	4971995	Megan, I'm not sure why this is showing up.	Megan, I'm not sure way this is showing up.	236008209	1478285455275	1478285455325	f	70
461748	4971995	Megan, I'm not sure why this is showing up.	Megan, I'm not sure way this is showing up.	236008216	1478285455612	1478285455680	BKSP	8
461748	4971995	Megan, I'm not sure why this is showing up.	Megan, I'm not sure way this is showing up.	236008223	1478285456939	1478285456972	BKSP	8
461748	4971995	Megan, I'm not sure why this is showing up.	Megan, I'm not sure way this is showing up.	236008230	1478285457101	1478285457157	BKSP	8
461748	4971995	Megan, I'm not sure why this is showing up.	Megan, I'm not sure way this is showing up.	236008244	1478285457951	1478285458418	SHIFT	16
461748	4971995	Megan, I'm not sure why this is showing up.	Megan, I'm not sure way this is showing up.	236008236	1478285458305	1478285458378	M	77
461748	4971995	Megan, I'm not sure why this is showing up.	Megan, I'm not sure way this is showing up.	236008251	1478285458862	1478285458946	e	69
461748	4971995	Megan, I'm not sure why this is showing up.	Megan, I'm not sure way this is showing up.	236008309	1478285459127	1478285459181	g	71
461748	4971995	Megan, I'm not sure why this is showing up.	Megan, I'm not sure way this is showing up.	236008315	1478285459204	1478285459342	a	65
461748	4971995	Megan, I'm not sure why this is showing up.	Megan, I'm not sure way this is showing up.	236008323	1478285459382	1478285459452	n	78
461748	4971995	Megan, I'm not sure why this is showing up.	Megan, I'm not sure way this is showing up.	236008328	1478285459589	1478285459691	 	32
461748	4971995	Megan, I'm not sure why this is showing up.	Megan, I'm not sure way this is showing up.	236008331	1478285460090	1478285460175	BKSP	8
461748	4971995	Megan, I'm not sure why this is showing up.	Megan, I'm not sure way this is showing up.	236008334	1478285460468	1478285460536	,	188
461748	4971995	Megan, I'm not sure why this is showing up.	Megan, I'm not sure way this is showing up.	236008543	1478285460641	1478285460722	 	32
461748	4971995	Megan, I'm not sure why this is showing up.	Megan, I'm not sure way this is showing up.	236008553	1478285461669	1478285462175	SHIFT	16
461748	4971995	Megan, I'm not sure why this is showing up.	Megan, I'm not sure way this is showing up.	236008548	1478285461873	1478285461953	I	73
461748	4971995	Megan, I'm not sure why this is showing up.	Megan, I'm not sure way this is showing up.	236008561	1478285462669	1478285462734	'	222
461748	4971995	Megan, I'm not sure why this is showing up.	Megan, I'm not sure way this is showing up.	236008564	1478285463008	1478285463063	m	77
461748	4971995	Megan, I'm not sure why this is showing up.	Megan, I'm not sure way this is showing up.	236008567	1478285463177	1478285463257	 	32
461748	4971995	Megan, I'm not sure why this is showing up.	Megan, I'm not sure way this is showing up.	236008635	1478285463857	1478285463973	n	78
461748	4971995	Megan, I'm not sure why this is showing up.	Megan, I'm not sure way this is showing up.	236008642	1478285464036	1478285464104	o	79
461748	4971995	Megan, I'm not sure why this is showing up.	Megan, I'm not sure way this is showing up.	236008647	1478285464089	1478285464220	t	84
461748	4971995	Megan, I'm not sure why this is showing up.	Megan, I'm not sure way this is showing up.	236008652	1478285464266	1478285464356	 	32
461748	4971995	Megan, I'm not sure why this is showing up.	Megan, I'm not sure way this is showing up.	236008659	1478285464475	1478285464635	s	83
461748	4971995	Megan, I'm not sure why this is showing up.	Megan, I'm not sure way this is showing up.	236008806	1478285464638	1478285464698	u	85
461748	4971995	Megan, I'm not sure why this is showing up.	Megan, I'm not sure way this is showing up.	236008822	1478285464912	1478285465128	t	82
461748	4971995	Megan, I'm not sure why this is showing up.	Megan, I'm not sure way this is showing up.	236008813	1478285465039	1478285465120	e	69
461748	4971995	Megan, I'm not sure why this is showing up.	Megan, I'm not sure way this is showing up.	236008831	1478285465594	1478285465635	BKSP	8
461748	4971995	Megan, I'm not sure why this is showing up.	Megan, I'm not sure way this is showing up.	236008840	1478285465731	1478285465799	BKSP	8
461748	4971995	Megan, I'm not sure why this is showing up.	Megan, I'm not sure way this is showing up.	236008846	1478285466363	1478285466490	e	69
461748	4971995	Megan, I'm not sure why this is showing up.	Megan, I'm not sure way this is showing up.	236008911	1478285466514	1478285466588	 	32
461748	4971995	Megan, I'm not sure why this is showing up.	Megan, I'm not sure way this is showing up.	236008915	1478285467115	1478285467238	w	87
461748	4971995	Megan, I'm not sure why this is showing up.	Megan, I'm not sure way this is showing up.	236008920	1478285467224	1478285467415	a	65
461748	4971995	Megan, I'm not sure why this is showing up.	Megan, I'm not sure way this is showing up.	236008924	1478285467443	1478285467532	y	89
461748	4971995	Megan, I'm not sure why this is showing up.	Megan, I'm not sure way this is showing up.	236008927	1478285467569	1478285467685	 	32
461748	4971995	Megan, I'm not sure why this is showing up.	Megan, I'm not sure way this is showing up.	236009002	1478285468237	1478285468347	t	84
461748	4971995	Megan, I'm not sure why this is showing up.	Megan, I'm not sure way this is showing up.	236009005	1478285468325	1478285468427	h	72
461748	4971995	Megan, I'm not sure why this is showing up.	Megan, I'm not sure way this is showing up.	236009013	1478285468404	1478285468482	i	85
461748	4971995	Megan, I'm not sure why this is showing up.	Megan, I'm not sure way this is showing up.	236009018	1478285468606	1478285468751	s	83
461748	4971995	Megan, I'm not sure why this is showing up.	Megan, I'm not sure way this is showing up.	236009131	1478285468985	1478285469054	BKSP	8
461748	4971995	Megan, I'm not sure why this is showing up.	Megan, I'm not sure way this is showing up.	236009139	1478285469162	1478285469199	BKSP	8
461748	4971995	Megan, I'm not sure why this is showing up.	Megan, I'm not sure way this is showing up.	236009146	1478285469295	1478285469353	BKSP	8
461748	4971995	Megan, I'm not sure why this is showing up.	Megan, I'm not sure way this is showing up.	236009153	1478285469958	1478285470033	s	83
461748	4971995	Megan, I'm not sure why this is showing up.	Megan, I'm not sure way this is showing up.	236009159	1478285470350	1478285470408	BKSP	8
461748	4971995	Megan, I'm not sure why this is showing up.	Megan, I'm not sure way this is showing up.	236009164	1478285470607	1478285470666	i	73
461748	4971995	Megan, I'm not sure why this is showing up.	Megan, I'm not sure way this is showing up.	236009168	1478285470776	1478285470892	s	83
461748	4971995	Megan, I'm not sure why this is showing up.	Megan, I'm not sure way this is showing up.	236009173	1478285470990	1478285471048	 	32
461748	4971995	Megan, I'm not sure why this is showing up.	Megan, I'm not sure way this is showing up.	236009177	1478285471278	1478285471379	i	73
461748	4971995	Megan, I'm not sure why this is showing up.	Megan, I'm not sure way this is showing up.	236009212	1478285471381	1478285471480	s	83
461748	4971995	Megan, I'm not sure why this is showing up.	Megan, I'm not sure way this is showing up.	236009219	1478285471529	1478285471603	 	32
461748	4971995	Megan, I'm not sure why this is showing up.	Megan, I'm not sure way this is showing up.	236009225	1478285471994	1478285472117	s	83
461748	4971995	Megan, I'm not sure why this is showing up.	Megan, I'm not sure way this is showing up.	236009231	1478285472103	1478285472162	h	72
461748	4971995	Megan, I'm not sure why this is showing up.	Megan, I'm not sure way this is showing up.	236009236	1478285472262	1478285472366	o	79
461748	4971995	Megan, I'm not sure why this is showing up.	Megan, I'm not sure way this is showing up.	236009304	1478285472401	1478285472517	w	87
461748	4971995	Megan, I'm not sure why this is showing up.	Megan, I'm not sure way this is showing up.	236009310	1478285472677	1478285472782	i	73
461748	4971995	Megan, I'm not sure why this is showing up.	Megan, I'm not sure way this is showing up.	236009314	1478285472882	1478285472972	n	78
461748	4971995	Megan, I'm not sure why this is showing up.	Megan, I'm not sure way this is showing up.	236009320	1478285473040	1478285473152	g	71
461748	4971995	Megan, I'm not sure why this is showing up.	Megan, I'm not sure way this is showing up.	236009326	1478285473534	1478285473629	 	32
461748	4971995	Megan, I'm not sure why this is showing up.	Megan, I'm not sure way this is showing up.	236009481	1478285474090	1478285474187	u	85
461748	4971995	Megan, I'm not sure why this is showing up.	Megan, I'm not sure way this is showing up.	236009493	1478285474228	1478285474317	p	80
461748	4971995	Megan, I'm not sure why this is showing up.	Megan, I'm not sure way this is showing up.	236009504	1478285475096	1478285475158	.	190
461748	4972037	Mike is putting pressure on me.	Mike is putting pressure on me.	236009829	1478285478070	1478285478396	SHIFT	16
461748	4972037	Mike is putting pressure on me.	Mike is putting pressure on me.	236009822	1478285478250	1478285478369	M	77
461748	4972037	Mike is putting pressure on me.	Mike is putting pressure on me.	236009836	1478285478516	1478285478569	i	73
461748	4972037	Mike is putting pressure on me.	Mike is putting pressure on me.	236009845	1478285478687	1478285478773	k	75
461748	4972037	Mike is putting pressure on me.	Mike is putting pressure on me.	236009856	1478285478984	1478285479095	e	69
461748	4972037	Mike is putting pressure on me.	Mike is putting pressure on me.	236009864	1478285479113	1478285479207	 	32
461748	4972037	Mike is putting pressure on me.	Mike is putting pressure on me.	236009931	1478285479315	1478285479409	i	73
461748	4972037	Mike is putting pressure on me.	Mike is putting pressure on me.	236009934	1478285479423	1478285479548	s	83
461748	4972037	Mike is putting pressure on me.	Mike is putting pressure on me.	236009938	1478285479559	1478285479656	 	32
461748	4972037	Mike is putting pressure on me.	Mike is putting pressure on me.	236009943	1478285480154	1478285480263	p	80
461748	4972037	Mike is putting pressure on me.	Mike is putting pressure on me.	236009949	1478285480457	1478285480529	u	85
461748	4972037	Mike is putting pressure on me.	Mike is putting pressure on me.	236010031	1478285480707	1478285480771	t	84
461748	4972037	Mike is putting pressure on me.	Mike is putting pressure on me.	236010036	1478285480818	1478285480898	t	84
461748	4972037	Mike is putting pressure on me.	Mike is putting pressure on me.	236010042	1478285481095	1478285481113	t	84
461748	4972037	Mike is putting pressure on me.	Mike is putting pressure on me.	236010044	1478285481557	1478285481675	BKSP	8
461748	4972037	Mike is putting pressure on me.	Mike is putting pressure on me.	236010047	1478285481875	1478285481999	i	73
461748	4972037	Mike is putting pressure on me.	Mike is putting pressure on me.	236010052	1478285482046	1478285482145	n	78
461748	4972037	Mike is putting pressure on me.	Mike is putting pressure on me.	236010157	1478285482217	1478285482311	g	71
461748	4972037	Mike is putting pressure on me.	Mike is putting pressure on me.	236010161	1478285482339	1478285482437	 	32
461748	4972037	Mike is putting pressure on me.	Mike is putting pressure on me.	236010166	1478285483085	1478285483163	p	80
461748	4972037	Mike is putting pressure on me.	Mike is putting pressure on me.	236010172	1478285483300	1478285483391	e	69
461748	4972037	Mike is putting pressure on me.	Mike is putting pressure on me.	236010181	1478285483719	1478285483805	BKSP	8
461748	4972037	Mike is putting pressure on me.	Mike is putting pressure on me.	236010189	1478285483812	1478285484001	r	82
461748	4972037	Mike is putting pressure on me.	Mike is putting pressure on me.	236010321	1478285483935	1478285484122	e	69
461748	4972037	Mike is putting pressure on me.	Mike is putting pressure on me.	236010326	1478285484550	1478285484646	s	83
461748	4972037	Mike is putting pressure on me.	Mike is putting pressure on me.	236010332	1478285484982	1478285485125	s	83
461748	4972037	Mike is putting pressure on me.	Mike is putting pressure on me.	236010335	1478285485233	1478285485287	u	85
461748	4972037	Mike is putting pressure on me.	Mike is putting pressure on me.	236010342	1478285485437	1478285485637	r	82
461748	4972037	Mike is putting pressure on me.	Mike is putting pressure on me.	236010439	1478285485581	1478285485747	e	69
461748	4972037	Mike is putting pressure on me.	Mike is putting pressure on me.	236010445	1478285485966	1478285486042	 	32
461748	4972037	Mike is putting pressure on me.	Mike is putting pressure on me.	236010450	1478285486354	1478285486432	o	79
461748	4972037	Mike is putting pressure on me.	Mike is putting pressure on me.	236010456	1478285486565	1478285486645	n	78
461748	4972037	Mike is putting pressure on me.	Mike is putting pressure on me.	236010463	1478285486723	1478285486807	 	32
461748	4972037	Mike is putting pressure on me.	Mike is putting pressure on me.	236010467	1478285486879	1478285486974	m	77
461748	4972037	Mike is putting pressure on me.	Mike is putting pressure on me.	236010562	1478285486997	1478285487065	e	69
461748	4972037	Mike is putting pressure on me.	Mike is putting pressure on me.	236010567	1478285488486	1478285488552	.	190
