PARTICIPANT_ID	TEST_SECTION_ID	SENTENCE	USER_INPUT	KEYSTROKE_ID	PRESS_TIME	RELEASE_TIME	LETTER	KEYCODE
46424	506851	I think this move will not overcome the problem.	i think this move will not overcome the problem.	24123532	1472557838322	1472557838425	i	73
46424	506851	I think this move will not overcome the problem.	i think this move will not overcome the problem.	24123534	1472557838550	1472557838603	 	32
46424	506851	I think this move will not overcome the problem.	i think this move will not overcome the problem.	24123536	1472557838650	1472557838795	t	84
46424	506851	I think this move will not overcome the problem.	i think this move will not overcome the problem.	24123538	1472557838759	1472557838891	h	72
46424	506851	I think this move will not overcome the problem.	i think this move will not overcome the problem.	24123605	1472557838822	1472557838938	i	73
46424	506851	I think this move will not overcome the problem.	i think this move will not overcome the problem.	24123607	1472557839033	1472557839152	n	78
46424	506851	I think this move will not overcome the problem.	i think this move will not overcome the problem.	24123609	1472557839098	1472557839171	k	76
46424	506851	I think this move will not overcome the problem.	i think this move will not overcome the problem.	24123610	1472557839733	1472557839806	BKSP	8
46424	506851	I think this move will not overcome the problem.	i think this move will not overcome the problem.	24123611	1472557839883	1472557839982	BKSP	8
46424	506851	I think this move will not overcome the problem.	i think this move will not overcome the problem.	24123612	1472557840662	1472557840762	k	75
46424	506851	I think this move will not overcome the problem.	i think this move will not overcome the problem.	24123613	1472557840840	1472557840903	 	32
46424	506851	I think this move will not overcome the problem.	i think this move will not overcome the problem.	24123624	1472557841008	1472557841081	t	84
46424	506851	I think this move will not overcome the problem.	i think this move will not overcome the problem.	24123625	1472557841097	1472557841227	h	72
46424	506851	I think this move will not overcome the problem.	i think this move will not overcome the problem.	24123626	1472557841160	1472557841274	i	73
46424	506851	I think this move will not overcome the problem.	i think this move will not overcome the problem.	24123627	1472557841337	1472557841478	s	83
46424	506851	I think this move will not overcome the problem.	i think this move will not overcome the problem.	24123629	1472557841525	1472557841598	 	32
46424	506851	I think this move will not overcome the problem.	i think this move will not overcome the problem.	24123657	1472557841842	1472557841948	m	77
46424	506851	I think this move will not overcome the problem.	i think this move will not overcome the problem.	24123659	1472557841876	1472557841979	o	79
46424	506851	I think this move will not overcome the problem.	i think this move will not overcome the problem.	24123664	1472557842222	1472557842335	v	86
46424	506851	I think this move will not overcome the problem.	i think this move will not overcome the problem.	24123670	1472557842397	1472557842504	e	69
46424	506851	I think this move will not overcome the problem.	i think this move will not overcome the problem.	24123673	1472557842582	1472557842670	 	32
46424	506851	I think this move will not overcome the problem.	i think this move will not overcome the problem.	24123702	1472557842850	1472557842953	w	87
46424	506851	I think this move will not overcome the problem.	i think this move will not overcome the problem.	24123704	1472557842953	1472557843047	i	73
46424	506851	I think this move will not overcome the problem.	i think this move will not overcome the problem.	24123705	1472557843163	1472557843236	l	76
46424	506851	I think this move will not overcome the problem.	i think this move will not overcome the problem.	24123706	1472557843299	1472557843465	l	76
46424	506851	I think this move will not overcome the problem.	i think this move will not overcome the problem.	24123712	1472557843409	1472557843529	 	32
46424	506851	I think this move will not overcome the problem.	i think this move will not overcome the problem.	24123714	1472557843640	1472557843741	n	78
46424	506851	I think this move will not overcome the problem.	i think this move will not overcome the problem.	24123716	1472557843675	1472557843757	o	79
46424	506851	I think this move will not overcome the problem.	i think this move will not overcome the problem.	24123718	1472557843819	1472557843931	t	84
46424	506851	I think this move will not overcome the problem.	i think this move will not overcome the problem.	24123722	1472557843947	1472557844051	 	32
46424	506851	I think this move will not overcome the problem.	i think this move will not overcome the problem.	24123724	1472557844160	1472557844263	v	86
46424	506851	I think this move will not overcome the problem.	i think this move will not overcome the problem.	24123804	1472557844263	1472557844352	e	69
46424	506851	I think this move will not overcome the problem.	i think this move will not overcome the problem.	24123807	1472557844654	1472557844735	BKSP	8
46424	506851	I think this move will not overcome the problem.	i think this move will not overcome the problem.	24123810	1472557844782	1472557844904	BKSP	8
46424	506851	I think this move will not overcome the problem.	i think this move will not overcome the problem.	24123812	1472557845086	1472557845194	o	79
46424	506851	I think this move will not overcome the problem.	i think this move will not overcome the problem.	24123815	1472557845232	1472557845333	v	86
46424	506851	I think this move will not overcome the problem.	i think this move will not overcome the problem.	24123819	1472557845364	1472557845692	e	69
46424	506851	I think this move will not overcome the problem.	i think this move will not overcome the problem.	24123822	1472557845633	1472557845723	r	82
46424	506851	I think this move will not overcome the problem.	i think this move will not overcome the problem.	24123827	1472557846238	1472557846364	c	67
46424	506851	I think this move will not overcome the problem.	i think this move will not overcome the problem.	24123859	1472557846364	1472557846486	i	73
46424	506851	I think this move will not overcome the problem.	i think this move will not overcome the problem.	24123863	1472557846428	1472557846533	m	77
46424	506851	I think this move will not overcome the problem.	i think this move will not overcome the problem.	24123867	1472557846587	1472557846720	e	69
46424	506851	I think this move will not overcome the problem.	i think this move will not overcome the problem.	24123871	1472557846891	1472557846995	BKSP	8
46424	506851	I think this move will not overcome the problem.	i think this move will not overcome the problem.	24123874	1472557847057	1472557847140	BKSP	8
46424	506851	I think this move will not overcome the problem.	i think this move will not overcome the problem.	24123877	1472557847213	1472557847320	BKSP	8
46424	506851	I think this move will not overcome the problem.	i think this move will not overcome the problem.	24123878	1472557847539	1472557847735	o	79
46424	506851	I think this move will not overcome the problem.	i think this move will not overcome the problem.	24123879	1472557847649	1472557847798	m	77
46424	506851	I think this move will not overcome the problem.	i think this move will not overcome the problem.	24123880	1472557847813	1472557847949	e	69
46424	506851	I think this move will not overcome the problem.	i think this move will not overcome the problem.	24123904	1472557847975	1472557848080	 	32
46424	506851	I think this move will not overcome the problem.	i think this move will not overcome the problem.	24123909	1472557848437	1472557848538	t	84
46424	506851	I think this move will not overcome the problem.	i think this move will not overcome the problem.	24123915	1472557848585	1472557848714	h	72
46424	506851	I think this move will not overcome the problem.	i think this move will not overcome the problem.	24123922	1472557848693	1472557848825	e	69
46424	506851	I think this move will not overcome the problem.	i think this move will not overcome the problem.	24123926	1472557848841	1472557848949	 	32
46424	506851	I think this move will not overcome the problem.	i think this move will not overcome the problem.	24123966	1472557849044	1472557849148	p	80
46424	506851	I think this move will not overcome the problem.	i think this move will not overcome the problem.	24123971	1472557849211	1472557849356	t	84
46424	506851	I think this move will not overcome the problem.	i think this move will not overcome the problem.	24123974	1472557849356	1472557849465	o	79
46424	506851	I think this move will not overcome the problem.	i think this move will not overcome the problem.	24123979	1472557849863	1472557849930	BKSP	8
46424	506851	I think this move will not overcome the problem.	i think this move will not overcome the problem.	24123982	1472557849992	1472557850105	BKSP	8
46424	506851	I think this move will not overcome the problem.	i think this move will not overcome the problem.	24123984	1472557850333	1472557850460	r	82
46424	506851	I think this move will not overcome the problem.	i think this move will not overcome the problem.	24124012	1472557850425	1472557850533	o	79
46424	506851	I think this move will not overcome the problem.	i think this move will not overcome the problem.	24124014	1472557850642	1472557850747	b	66
46424	506851	I think this move will not overcome the problem.	i think this move will not overcome the problem.	24124015	1472557851463	1472557851571	l	76
46424	506851	I think this move will not overcome the problem.	i think this move will not overcome the problem.	24124019	1472557851625	1472557851760	e	69
46424	506851	I think this move will not overcome the problem.	i think this move will not overcome the problem.	24124021	1472557851727	1472557851817	m	77
46424	506851	I think this move will not overcome the problem.	i think this move will not overcome the problem.	24124023	1472557851965	1472557852086	.	190
46424	506865	Thanks, having a good time.	thank, having a good times.	24124153	1472557855393	1472557855502	t	84
46424	506865	Thanks, having a good time.	thank, having a good times.	24124156	1472557855541	1472557855614	h	72
46424	506865	Thanks, having a good time.	thank, having a good times.	24124158	1472557855645	1472557855752	a	65
46424	506865	Thanks, having a good time.	thank, having a good times.	24124160	1472557855821	1472557855982	n	78
46424	506865	Thanks, having a good time.	thank, having a good times.	24124237	1472557855907	1472557855998	k	75
46424	506865	Thanks, having a good time.	thank, having a good times.	24124243	1472557856177	1472557856265	,	188
46424	506865	Thanks, having a good time.	thank, having a good times.	24124247	1472557856967	1472557857056	 	32
46424	506865	Thanks, having a good time.	thank, having a good times.	24124255	1472557857428	1472557857559	a	65
46424	506865	Thanks, having a good time.	thank, having a good times.	24124260	1472557857794	1472557857885	BKSP	8
46424	506865	Thanks, having a good time.	thank, having a good times.	24124263	1472557858117	1472557858223	h	72
46424	506865	Thanks, having a good time.	thank, having a good times.	24124279	1472557858182	1472557858266	a	65
46424	506865	Thanks, having a good time.	thank, having a good times.	24124280	1472557858376	1472557858514	v	86
46424	506865	Thanks, having a good time.	thank, having a good times.	24124282	1472557858472	1472557858595	i	73
46424	506865	Thanks, having a good time.	thank, having a good times.	24124284	1472557858537	1472557858610	n	78
46424	506865	Thanks, having a good time.	thank, having a good times.	24124285	1472557858657	1472557858795	g	71
46424	506865	Thanks, having a good time.	thank, having a good times.	24124286	1472557858842	1472557858932	 	32
46424	506865	Thanks, having a good time.	thank, having a good times.	24124320	1472557859175	1472557859300	a	65
46424	506865	Thanks, having a good time.	thank, having a good times.	24124322	1472557859315	1472557859417	 	32
46424	506865	Thanks, having a good time.	thank, having a good times.	24124324	1472557859767	1472557859866	g	71
46424	506865	Thanks, having a good time.	thank, having a good times.	24124329	1472557859944	1472557860020	o	79
46424	506865	Thanks, having a good time.	thank, having a good times.	24124334	1472557860083	1472557860183	o	79
46424	506865	Thanks, having a good time.	thank, having a good times.	24124356	1472557860221	1472557860381	d	68
46424	506865	Thanks, having a good time.	thank, having a good times.	24124359	1472557860344	1472557860414	 	32
46424	506865	Thanks, having a good time.	thank, having a good times.	24124360	1472557860523	1472557860618	t	84
46424	506865	Thanks, having a good time.	thank, having a good times.	24124362	1472557860681	1472557860856	i	73
46424	506865	Thanks, having a good time.	thank, having a good times.	24124421	1472557860755	1472557860880	m	77
46424	506865	Thanks, having a good time.	thank, having a good times.	24124426	1472557860872	1472557860979	e	69
46424	506865	Thanks, having a good time.	thank, having a good times.	24124431	1472557860979	1472557861124	s	83
46424	506865	Thanks, having a good time.	thank, having a good times.	24124435	1472557862670	1472557862787	.	190
46424	506873	She would hate to see us not get our expense reports paid.	She would hate to see us not get our expense reports paid.	24124549	1472557865521	1472557865887	SHIFT	16
46424	506873	She would hate to see us not get our expense reports paid.	She would hate to see us not get our expense reports paid.	24124550	1472557865762	1472557865946	S	83
46424	506873	She would hate to see us not get our expense reports paid.	She would hate to see us not get our expense reports paid.	24124553	1472557866040	1472557866134	h	72
46424	506873	She would hate to see us not get our expense reports paid.	She would hate to see us not get our expense reports paid.	24124556	1472557866166	1472557866281	e	69
46424	506873	She would hate to see us not get our expense reports paid.	She would hate to see us not get our expense reports paid.	24124563	1472557866328	1472557866423	 	32
46424	506873	She would hate to see us not get our expense reports paid.	She would hate to see us not get our expense reports paid.	24124568	1472557866680	1472557866813	w	87
46424	506873	She would hate to see us not get our expense reports paid.	She would hate to see us not get our expense reports paid.	24124604	1472557867479	1472557867659	o	79
46424	506873	She would hate to see us not get our expense reports paid.	She would hate to see us not get our expense reports paid.	24124607	1472557867596	1472557867721	u	85
46424	506873	She would hate to see us not get our expense reports paid.	She would hate to see us not get our expense reports paid.	24124614	1472557867783	1472557867982	l	76
46424	506873	She would hate to see us not get our expense reports paid.	She would hate to see us not get our expense reports paid.	24124620	1472557867950	1472557868064	d	68
46424	506873	She would hate to see us not get our expense reports paid.	She would hate to see us not get our expense reports paid.	24124625	1472557868142	1472557868221	 	32
46424	506873	She would hate to see us not get our expense reports paid.	She would hate to see us not get our expense reports paid.	24124657	1472557868706	1472557868819	h	72
46424	506873	She would hate to see us not get our expense reports paid.	She would hate to see us not get our expense reports paid.	24124659	1472557868834	1472557868954	a	65
46424	506873	She would hate to see us not get our expense reports paid.	She would hate to see us not get our expense reports paid.	24124662	1472557869061	1472557869238	t	84
46424	506873	She would hate to see us not get our expense reports paid.	She would hate to see us not get our expense reports paid.	24124664	1472557869148	1472557869307	e	69
46424	506873	She would hate to see us not get our expense reports paid.	She would hate to see us not get our expense reports paid.	24124682	1472557869298	1472557869383	 	32
46424	506873	She would hate to see us not get our expense reports paid.	She would hate to see us not get our expense reports paid.	24124683	1472557869461	1472557869609	t	84
46424	506873	She would hate to see us not get our expense reports paid.	She would hate to see us not get our expense reports paid.	24124685	1472557869571	1472557869775	o	79
46424	506873	She would hate to see us not get our expense reports paid.	She would hate to see us not get our expense reports paid.	24124687	1472557869719	1472557869840	 	32
46424	506873	She would hate to see us not get our expense reports paid.	She would hate to see us not get our expense reports paid.	24124689	1472557869856	1472557870015	s	83
46424	506873	She would hate to see us not get our expense reports paid.	She would hate to see us not get our expense reports paid.	24124703	1472557869942	1472557870095	e	69
46424	506873	She would hate to see us not get our expense reports paid.	She would hate to see us not get our expense reports paid.	24124704	1472557870186	1472557870290	e	69
46424	506873	She would hate to see us not get our expense reports paid.	She would hate to see us not get our expense reports paid.	24124705	1472557870368	1472557870468	 	32
46424	506873	She would hate to see us not get our expense reports paid.	She would hate to see us not get our expense reports paid.	24124706	1472557870628	1472557870723	u	85
46424	506873	She would hate to see us not get our expense reports paid.	She would hate to see us not get our expense reports paid.	24124707	1472557870723	1472557870893	s	83
46424	506873	She would hate to see us not get our expense reports paid.	She would hate to see us not get our expense reports paid.	24124708	1472557870916	1472557871017	 	32
46424	506873	She would hate to see us not get our expense reports paid.	She would hate to see us not get our expense reports paid.	24124773	1472557871127	1472557871258	i	73
46424	506873	She would hate to see us not get our expense reports paid.	She would hate to see us not get our expense reports paid.	24124774	1472557871190	1472557871274	n	78
46424	506873	She would hate to see us not get our expense reports paid.	She would hate to see us not get our expense reports paid.	24124777	1472557871367	1472557871481	 	32
46424	506873	She would hate to see us not get our expense reports paid.	She would hate to see us not get our expense reports paid.	24124783	1472557872042	1472557872187	BKSP	8
46424	506873	She would hate to see us not get our expense reports paid.	She would hate to see us not get our expense reports paid.	24124789	1472557872239	1472557872341	BKSP	8
46424	506873	She would hate to see us not get our expense reports paid.	She would hate to see us not get our expense reports paid.	24124793	1472557872403	1472557872504	BKSP	8
46424	506873	She would hate to see us not get our expense reports paid.	She would hate to see us not get our expense reports paid.	24124798	1472557872997	1472557873133	n	78
46424	506873	She would hate to see us not get our expense reports paid.	She would hate to see us not get our expense reports paid.	24124816	1472557873045	1472557873165	o	79
46424	506873	She would hate to see us not get our expense reports paid.	She would hate to see us not get our expense reports paid.	24124819	1472557873165	1472557873275	t	84
46424	506873	She would hate to see us not get our expense reports paid.	She would hate to see us not get our expense reports paid.	24124822	1472557873306	1472557873394	 	32
46424	506873	She would hate to see us not get our expense reports paid.	She would hate to see us not get our expense reports paid.	24124825	1472557873509	1472557873600	g	71
46424	506873	She would hate to see us not get our expense reports paid.	She would hate to see us not get our expense reports paid.	24124826	1472557873600	1472557873775	e	69
46424	506873	She would hate to see us not get our expense reports paid.	She would hate to see us not get our expense reports paid.	24124827	1472557873790	1472557873921	t	84
46424	506873	She would hate to see us not get our expense reports paid.	She would hate to see us not get our expense reports paid.	24124856	1472557874089	1472557874191	 	32
46424	506873	She would hate to see us not get our expense reports paid.	She would hate to see us not get our expense reports paid.	24124857	1472557874533	1472557874800	o	79
46424	506873	She would hate to see us not get our expense reports paid.	She would hate to see us not get our expense reports paid.	24124858	1472557874723	1472557874831	u	85
46424	506873	She would hate to see us not get our expense reports paid.	She would hate to see us not get our expense reports paid.	24124859	1472557875502	1472557875578	r	82
46424	506873	She would hate to see us not get our expense reports paid.	She would hate to see us not get our expense reports paid.	24124861	1472557875625	1472557875743	 	32
46424	506873	She would hate to see us not get our expense reports paid.	She would hate to see us not get our expense reports paid.	24124937	1472557876444	1472557876597	e	69
46424	506873	She would hate to see us not get our expense reports paid.	She would hate to see us not get our expense reports paid.	24124939	1472557877085	1472557877147	x	88
46424	506873	She would hate to see us not get our expense reports paid.	She would hate to see us not get our expense reports paid.	24124942	1472557877277	1472557877362	p	80
46424	506873	She would hate to see us not get our expense reports paid.	She would hate to see us not get our expense reports paid.	24124945	1472557877409	1472557877543	e	69
46424	506873	She would hate to see us not get our expense reports paid.	She would hate to see us not get our expense reports paid.	24124948	1472557877591	1472557877681	n	78
46424	506873	She would hate to see us not get our expense reports paid.	She would hate to see us not get our expense reports paid.	24124982	1472557877722	1472557877960	s	83
46424	506873	She would hate to see us not get our expense reports paid.	She would hate to see us not get our expense reports paid.	24124984	1472557877806	1472557877968	e	69
46424	506873	She would hate to see us not get our expense reports paid.	She would hate to see us not get our expense reports paid.	24124988	1472557878075	1472557878161	 	32
46424	506873	She would hate to see us not get our expense reports paid.	She would hate to see us not get our expense reports paid.	24124990	1472557878557	1472557878822	r	82
46424	506873	She would hate to see us not get our expense reports paid.	She would hate to see us not get our expense reports paid.	24125002	1472557878688	1472557878867	e	69
46424	506873	She would hate to see us not get our expense reports paid.	She would hate to see us not get our expense reports paid.	24125011	1472557878867	1472557879075	p	80
46424	506873	She would hate to see us not get our expense reports paid.	She would hate to see us not get our expense reports paid.	24125006	1472557878954	1472557879075	o	79
46424	506873	She would hate to see us not get our expense reports paid.	She would hate to see us not get our expense reports paid.	24125017	1472557879075	1472557879251	r	82
46424	506873	She would hate to see us not get our expense reports paid.	She would hate to see us not get our expense reports paid.	24125023	1472557879134	1472557879274	t	84
46424	506873	She would hate to see us not get our expense reports paid.	She would hate to see us not get our expense reports paid.	24125030	1472557879539	1472557879691	s	83
46424	506873	She would hate to see us not get our expense reports paid.	She would hate to see us not get our expense reports paid.	24125046	1472557879759	1472557879864	 	32
46424	506873	She would hate to see us not get our expense reports paid.	She would hate to see us not get our expense reports paid.	24125047	1472557880121	1472557880218	p	80
46424	506873	She would hate to see us not get our expense reports paid.	She would hate to see us not get our expense reports paid.	24125048	1472557880218	1472557880362	a	65
46424	506873	She would hate to see us not get our expense reports paid.	She would hate to see us not get our expense reports paid.	24125049	1472557880409	1472557880491	i	73
46424	506873	She would hate to see us not get our expense reports paid.	She would hate to see us not get our expense reports paid.	24125050	1472557880507	1472557880625	d	68
46424	506873	She would hate to see us not get our expense reports paid.	She would hate to see us not get our expense reports paid.	24125095	1472557880705	1472557880788	,	188
46424	506873	She would hate to see us not get our expense reports paid.	She would hate to see us not get our expense reports paid.	24125100	1472557881160	1472557881239	BKSP	8
46424	506873	She would hate to see us not get our expense reports paid.	She would hate to see us not get our expense reports paid.	24125103	1472557881598	1472557881688	.	190
46424	506887	We had some measurement of gas from Quantum throughout the month.	We had some measurement of gas from Quantum throughout the month.	24125275	1472557884238	1472557884549	SHIFT	16
46424	506887	We had some measurement of gas from Quantum throughout the month.	We had some measurement of gas from Quantum throughout the month.	24125276	1472557884674	1472557884856	e	69
46424	506887	We had some measurement of gas from Quantum throughout the month.	We had some measurement of gas from Quantum throughout the month.	24125277	1472557885332	1472557885429	BKSP	8
46424	506887	We had some measurement of gas from Quantum throughout the month.	We had some measurement of gas from Quantum throughout the month.	24125280	1472557885507	1472557886063	SHIFT	16
46424	506887	We had some measurement of gas from Quantum throughout the month.	We had some measurement of gas from Quantum throughout the month.	24125278	1472557885941	1472557886059	W	87
46424	506887	We had some measurement of gas from Quantum throughout the month.	We had some measurement of gas from Quantum throughout the month.	24125283	1472557886156	1472557886271	e	69
46424	506887	We had some measurement of gas from Quantum throughout the month.	We had some measurement of gas from Quantum throughout the month.	24125288	1472557886302	1472557886394	 	32
46424	506887	We had some measurement of gas from Quantum throughout the month.	We had some measurement of gas from Quantum throughout the month.	24125294	1472557886504	1472557886626	h	72
46424	506887	We had some measurement of gas from Quantum throughout the month.	We had some measurement of gas from Quantum throughout the month.	24125316	1472557886595	1472557886736	a	65
46424	506887	We had some measurement of gas from Quantum throughout the month.	We had some measurement of gas from Quantum throughout the month.	24125320	1472557887033	1472557887152	d	68
46424	506887	We had some measurement of gas from Quantum throughout the month.	We had some measurement of gas from Quantum throughout the month.	24125324	1472557887261	1472557887363	 	32
46424	506887	We had some measurement of gas from Quantum throughout the month.	We had some measurement of gas from Quantum throughout the month.	24125328	1472557887510	1472557887651	s	83
46424	506887	We had some measurement of gas from Quantum throughout the month.	We had some measurement of gas from Quantum throughout the month.	24125333	1472557887666	1472557887825	o	79
46424	506887	We had some measurement of gas from Quantum throughout the month.	We had some measurement of gas from Quantum throughout the month.	24125361	1472557887743	1472557887858	m	77
46424	506887	We had some measurement of gas from Quantum throughout the month.	We had some measurement of gas from Quantum throughout the month.	24125365	1472557887889	1472557887978	e	69
46424	506887	We had some measurement of gas from Quantum throughout the month.	We had some measurement of gas from Quantum throughout the month.	24125368	1472557888071	1472557888125	 	32
46424	506887	We had some measurement of gas from Quantum throughout the month.	We had some measurement of gas from Quantum throughout the month.	24125370	1472557888274	1472557888369	m	77
46424	506887	We had some measurement of gas from Quantum throughout the month.	We had some measurement of gas from Quantum throughout the month.	24125373	1472557888338	1472557888477	e	69
46424	506887	We had some measurement of gas from Quantum throughout the month.	We had some measurement of gas from Quantum throughout the month.	24125376	1472557888509	1472557888619	a	65
46424	506887	We had some measurement of gas from Quantum throughout the month.	We had some measurement of gas from Quantum throughout the month.	24125385	1472557888730	1472557888855	s	83
46424	506887	We had some measurement of gas from Quantum throughout the month.	We had some measurement of gas from Quantum throughout the month.	24125387	1472557888917	1472557888991	u	85
46424	506887	We had some measurement of gas from Quantum throughout the month.	We had some measurement of gas from Quantum throughout the month.	24125390	1472557889085	1472557889273	r	82
46424	506887	We had some measurement of gas from Quantum throughout the month.	We had some measurement of gas from Quantum throughout the month.	24125393	1472557889152	1472557889308	e	69
46424	506887	We had some measurement of gas from Quantum throughout the month.	We had some measurement of gas from Quantum throughout the month.	24125396	1472557889361	1472557889476	m	77
46424	506887	We had some measurement of gas from Quantum throughout the month.	We had some measurement of gas from Quantum throughout the month.	24125410	1472557889444	1472557889547	e	69
46424	506887	We had some measurement of gas from Quantum throughout the month.	We had some measurement of gas from Quantum throughout the month.	24125411	1472557889578	1472557889688	n	78
46424	506887	We had some measurement of gas from Quantum throughout the month.	We had some measurement of gas from Quantum throughout the month.	24125412	1472557889688	1472557889826	t	84
46424	506887	We had some measurement of gas from Quantum throughout the month.	We had some measurement of gas from Quantum throughout the month.	24125413	1472557890025	1472557890114	 	32
46424	506887	We had some measurement of gas from Quantum throughout the month.	We had some measurement of gas from Quantum throughout the month.	24125414	1472557890239	1472557890311	o	79
46424	506887	We had some measurement of gas from Quantum throughout the month.	We had some measurement of gas from Quantum throughout the month.	24125415	1472557890342	1472557890482	f	70
46424	506887	We had some measurement of gas from Quantum throughout the month.	We had some measurement of gas from Quantum throughout the month.	24125480	1472557890693	1472557890790	 	32
46424	506887	We had some measurement of gas from Quantum throughout the month.	We had some measurement of gas from Quantum throughout the month.	24125484	1472557890938	1472557891066	g	71
46424	506887	We had some measurement of gas from Quantum throughout the month.	We had some measurement of gas from Quantum throughout the month.	24125491	1472557891166	1472557891411	a	65
46424	506887	We had some measurement of gas from Quantum throughout the month.	We had some measurement of gas from Quantum throughout the month.	24125496	1472557891277	1472557891451	s	83
46424	506887	We had some measurement of gas from Quantum throughout the month.	We had some measurement of gas from Quantum throughout the month.	24125500	1472557891561	1472557891670	 	32
46424	506887	We had some measurement of gas from Quantum throughout the month.	We had some measurement of gas from Quantum throughout the month.	24125521	1472557891860	1472557892074	d	68
46424	506887	We had some measurement of gas from Quantum throughout the month.	We had some measurement of gas from Quantum throughout the month.	24125524	1472557892026	1472557892155	r	82
46424	506887	We had some measurement of gas from Quantum throughout the month.	We had some measurement of gas from Quantum throughout the month.	24125527	1472557892446	1472557892486	BKSP	8
46424	506887	We had some measurement of gas from Quantum throughout the month.	We had some measurement of gas from Quantum throughout the month.	24125533	1472557892550	1472557892651	BKSP	8
46424	506887	We had some measurement of gas from Quantum throughout the month.	We had some measurement of gas from Quantum throughout the month.	24125537	1472557892651	1472557892819	f	70
46424	506887	We had some measurement of gas from Quantum throughout the month.	We had some measurement of gas from Quantum throughout the month.	24125540	1472557892714	1472557892869	r	82
46424	506887	We had some measurement of gas from Quantum throughout the month.	We had some measurement of gas from Quantum throughout the month.	24125584	1472557892834	1472557892987	o	79
46424	506887	We had some measurement of gas from Quantum throughout the month.	We had some measurement of gas from Quantum throughout the month.	24125586	1472557892909	1472557893003	m	77
46424	506887	We had some measurement of gas from Quantum throughout the month.	We had some measurement of gas from Quantum throughout the month.	24125592	1472557893416	1472557893510	 	32
46424	506887	We had some measurement of gas from Quantum throughout the month.	We had some measurement of gas from Quantum throughout the month.	24125602	1472557893829	1472557894313	SHIFT	16
46424	506887	We had some measurement of gas from Quantum throughout the month.	We had some measurement of gas from Quantum throughout the month.	24125596	1472557894143	1472557894297	Q	81
46424	506887	We had some measurement of gas from Quantum throughout the month.	We had some measurement of gas from Quantum throughout the month.	24125607	1472557894423	1472557894492	u	85
46424	506887	We had some measurement of gas from Quantum throughout the month.	We had some measurement of gas from Quantum throughout the month.	24125612	1472557894555	1472557894665	a	65
46424	506887	We had some measurement of gas from Quantum throughout the month.	We had some measurement of gas from Quantum throughout the month.	24125672	1472557895263	1472557895368	n	78
46424	506887	We had some measurement of gas from Quantum throughout the month.	We had some measurement of gas from Quantum throughout the month.	24125674	1472557895448	1472557895565	t	84
46424	506887	We had some measurement of gas from Quantum throughout the month.	We had some measurement of gas from Quantum throughout the month.	24125678	1472557895783	1472557895889	u	85
46424	506887	We had some measurement of gas from Quantum throughout the month.	We had some measurement of gas from Quantum throughout the month.	24125681	1472557895998	1472557896100	m	77
46424	506887	We had some measurement of gas from Quantum throughout the month.	We had some measurement of gas from Quantum throughout the month.	24125685	1472557896224	1472557896308	 	32
46424	506887	We had some measurement of gas from Quantum throughout the month.	We had some measurement of gas from Quantum throughout the month.	24125765	1472557896722	1472557896852	t	84
46424	506887	We had some measurement of gas from Quantum throughout the month.	We had some measurement of gas from Quantum throughout the month.	24125767	1472557896987	1472557897086	r	82
46424	506887	We had some measurement of gas from Quantum throughout the month.	We had some measurement of gas from Quantum throughout the month.	24125769	1472557898276	1472557898372	BKSP	8
46424	506887	We had some measurement of gas from Quantum throughout the month.	We had some measurement of gas from Quantum throughout the month.	24125771	1472557898614	1472557898701	h	72
46424	506887	We had some measurement of gas from Quantum throughout the month.	We had some measurement of gas from Quantum throughout the month.	24125773	1472557898748	1472557898828	r	82
46424	506887	We had some measurement of gas from Quantum throughout the month.	We had some measurement of gas from Quantum throughout the month.	24125776	1472557898959	1472557899147	o	79
46424	506887	We had some measurement of gas from Quantum throughout the month.	We had some measurement of gas from Quantum throughout the month.	24125850	1472557899049	1472557899180	u	85
46424	506887	We had some measurement of gas from Quantum throughout the month.	We had some measurement of gas from Quantum throughout the month.	24125852	1472557900036	1472557900160	g	71
46424	506887	We had some measurement of gas from Quantum throughout the month.	We had some measurement of gas from Quantum throughout the month.	24125854	1472557900448	1472557900568	h	72
46424	506887	We had some measurement of gas from Quantum throughout the month.	We had some measurement of gas from Quantum throughout the month.	24125861	1472557901773	1472557902038	o	79
46424	506887	We had some measurement of gas from Quantum throughout the month.	We had some measurement of gas from Quantum throughout the month.	24125857	1472557901909	1472557902023	u	85
46424	506887	We had some measurement of gas from Quantum throughout the month.	We had some measurement of gas from Quantum throughout the month.	24125865	1472557902038	1472557902174	t	84
46424	506887	We had some measurement of gas from Quantum throughout the month.	We had some measurement of gas from Quantum throughout the month.	24125887	1472557902338	1472557902429	 	32
46424	506887	We had some measurement of gas from Quantum throughout the month.	We had some measurement of gas from Quantum throughout the month.	24125889	1472557902742	1472557902880	h	72
46424	506887	We had some measurement of gas from Quantum throughout the month.	We had some measurement of gas from Quantum throughout the month.	24125892	1472557903177	1472557903256	BKSP	8
46424	506887	We had some measurement of gas from Quantum throughout the month.	We had some measurement of gas from Quantum throughout the month.	24125895	1472557903303	1472557903409	t	84
46424	506887	We had some measurement of gas from Quantum throughout the month.	We had some measurement of gas from Quantum throughout the month.	24125899	1472557903456	1472557903571	h	72
46424	506887	We had some measurement of gas from Quantum throughout the month.	We had some measurement of gas from Quantum throughout the month.	24125937	1472557903537	1472557903677	e	69
46424	506887	We had some measurement of gas from Quantum throughout the month.	We had some measurement of gas from Quantum throughout the month.	24125940	1472557903739	1472557903819	 	32
46424	506887	We had some measurement of gas from Quantum throughout the month.	We had some measurement of gas from Quantum throughout the month.	24125943	1472557903951	1472557904061	m	77
46424	506887	We had some measurement of gas from Quantum throughout the month.	We had some measurement of gas from Quantum throughout the month.	24125946	1472557904108	1472557904194	o	79
46424	506887	We had some measurement of gas from Quantum throughout the month.	We had some measurement of gas from Quantum throughout the month.	24125949	1472557904319	1472557904402	n	78
46424	506887	We had some measurement of gas from Quantum throughout the month.	We had some measurement of gas from Quantum throughout the month.	24125952	1472557904418	1472557904555	t	84
46424	506887	We had some measurement of gas from Quantum throughout the month.	We had some measurement of gas from Quantum throughout the month.	24125974	1472557904586	1472557904655	h	72
46424	506887	We had some measurement of gas from Quantum throughout the month.	We had some measurement of gas from Quantum throughout the month.	24125979	1472557905206	1472557905272	.	190
46424	506901	One assistant and one HR associate.	One assistant and one HR assiciates.	24126076	1472557907590	1472557907864	SHIFT	16
46424	506901	One assistant and one HR associate.	One assistant and one HR assiciates.	24126074	1472557907747	1472557907849	O	79
46424	506901	One assistant and one HR associate.	One assistant and one HR assiciates.	24126078	1472557907880	1472557907975	n	78
46424	506901	One assistant and one HR associate.	One assistant and one HR assiciates.	24126080	1472557908022	1472557908151	e	69
46424	506901	One assistant and one HR associate.	One assistant and one HR assiciates.	24126082	1472557908166	1472557908285	 	32
46424	506901	One assistant and one HR associate.	One assistant and one HR assiciates.	24126126	1472557908247	1472557908369	a	65
46424	506901	One assistant and one HR associate.	One assistant and one HR assiciates.	24126129	1472557908432	1472557908527	s	83
46424	506901	One assistant and one HR associate.	One assistant and one HR assiciates.	24126131	1472557908627	1472557908704	s	83
46424	506901	One assistant and one HR associate.	One assistant and one HR assiciates.	24126132	1472557908814	1472557908915	i	73
46424	506901	One assistant and one HR associate.	One assistant and one HR assiciates.	24126133	1472557909181	1472557909276	s	83
46424	506901	One assistant and one HR associate.	One assistant and one HR assiciates.	24126134	1472557909470	1472557909629	t	84
46424	506901	One assistant and one HR associate.	One assistant and one HR assiciates.	24126164	1472557909629	1472557909766	a	65
46424	506901	One assistant and one HR associate.	One assistant and one HR assiciates.	24126168	1472557909766	1472557909879	n	78
46424	506901	One assistant and one HR associate.	One assistant and one HR assiciates.	24126172	1472557909895	1472557910046	s	83
46424	506901	One assistant and one HR associate.	One assistant and one HR assiciates.	24126177	1472557910140	1472557910248	 	32
46424	506901	One assistant and one HR associate.	One assistant and one HR assiciates.	24126182	1472557910327	1472557910443	a	65
46424	506901	One assistant and one HR associate.	One assistant and one HR assiciates.	24126185	1472557910458	1472557910566	n	78
46424	506901	One assistant and one HR associate.	One assistant and one HR assiciates.	24126251	1472557910597	1472557910680	d	68
46424	506901	One assistant and one HR associate.	One assistant and one HR assiciates.	24126254	1472557910728	1472557910789	 	32
46424	506901	One assistant and one HR associate.	One assistant and one HR assiciates.	24126257	1472557911385	1472557911798	BKSP	8
46424	506901	One assistant and one HR associate.	One assistant and one HR assiciates.	24126260	1472557911892	1472557911959	BKSP	8
46424	506901	One assistant and one HR associate.	One assistant and one HR assiciates.	24126262	1472557912044	1472557912152	BKSP	8
46424	506901	One assistant and one HR associate.	One assistant and one HR assiciates.	24126264	1472557912214	1472557912302	BKSP	8
46424	506901	One assistant and one HR associate.	One assistant and one HR assiciates.	24126266	1472557912380	1472557912444	BKSP	8
46424	506901	One assistant and one HR associate.	One assistant and one HR assiciates.	24126268	1472557912522	1472557912610	BKSP	8
46424	506901	One assistant and one HR associate.	One assistant and one HR assiciates.	24126271	1472557912735	1472557912821	BKSP	8
46424	506901	One assistant and one HR associate.	One assistant and one HR assiciates.	24126275	1472557913489	1472557913621	n	78
46424	506901	One assistant and one HR associate.	One assistant and one HR assiciates.	24126280	1472557913658	1472557913781	t	84
46424	506901	One assistant and one HR associate.	One assistant and one HR assiciates.	24126285	1472557913797	1472557913883	 	32
46424	506901	One assistant and one HR associate.	One assistant and one HR assiciates.	24126301	1472557914059	1472557914182	a	65
46424	506901	One assistant and one HR associate.	One assistant and one HR assiciates.	24126303	1472557914197	1472557914307	n	78
46424	506901	One assistant and one HR associate.	One assistant and one HR assiciates.	24126305	1472557914307	1472557914422	d	68
46424	506901	One assistant and one HR associate.	One assistant and one HR assiciates.	24126308	1472557914486	1472557914563	 	32
46424	506901	One assistant and one HR associate.	One assistant and one HR assiciates.	24126311	1472557914710	1472557914865	o	79
46424	506901	One assistant and one HR associate.	One assistant and one HR assiciates.	24126336	1472557914800	1472557914881	n	78
46424	506901	One assistant and one HR associate.	One assistant and one HR assiciates.	24126339	1472557914975	1472557915065	e	69
46424	506901	One assistant and one HR associate.	One assistant and one HR assiciates.	24126345	1472557915080	1472557915160	 	32
46424	506901	One assistant and one HR associate.	One assistant and one HR assiciates.	24126361	1472557915238	1472557915798	SHIFT	16
46424	506901	One assistant and one HR associate.	One assistant and one HR assiciates.	24126350	1472557915355	1472557915436	H	72
46424	506901	One assistant and one HR associate.	One assistant and one HR assiciates.	24126357	1472557915592	1472557915688	R	82
46424	506901	One assistant and one HR associate.	One assistant and one HR assiciates.	24126365	1472557916067	1472557916160	 	32
46424	506901	One assistant and one HR associate.	One assistant and one HR assiciates.	24126420	1472557916458	1472557916575	a	65
46424	506901	One assistant and one HR associate.	One assistant and one HR assiciates.	24126424	1472557916653	1472557916751	s	83
46424	506901	One assistant and one HR associate.	One assistant and one HR assiciates.	24126428	1472557917303	1472557917456	s	83
46424	506901	One assistant and one HR associate.	One assistant and one HR assiciates.	24126434	1472557917635	1472557917744	i	73
46424	506901	One assistant and one HR associate.	One assistant and one HR assiciates.	24126437	1472557917876	1472557918015	c	67
46424	506901	One assistant and one HR associate.	One assistant and one HR assiciates.	24126459	1472557918087	1472557918176	i	73
46424	506901	One assistant and one HR associate.	One assistant and one HR assiciates.	24126462	1472557918207	1472557918363	a	65
46424	506901	One assistant and one HR associate.	One assistant and one HR assiciates.	24126467	1472557918480	1472557918622	t	84
46424	506901	One assistant and one HR associate.	One assistant and one HR assiciates.	24126471	1472557918744	1472557918885	e	69
46424	506901	One assistant and one HR associate.	One assistant and one HR assiciates.	24126476	1472557918963	1472557919134	s	83
46424	506901	One assistant and one HR associate.	One assistant and one HR assiciates.	24126508	1472557919706	1472557919796	.	190
46424	506910	He said police in Dallas were also in favor of fences.	He said police in Dallas were also in favor of fences.	24126555	1472557921840	1472557922164	SHIFT	16
46424	506910	He said police in Dallas were also in favor of fences.	He said police in Dallas were also in favor of fences.	24126553	1472557921965	1472557922102	H	72
46424	506910	He said police in Dallas were also in favor of fences.	He said police in Dallas were also in favor of fences.	24126557	1472557922274	1472557922424	e	69
46424	506910	He said police in Dallas were also in favor of fences.	He said police in Dallas were also in favor of fences.	24126561	1472557922455	1472557922538	 	32
46424	506910	He said police in Dallas were also in favor of fences.	He said police in Dallas were also in favor of fences.	24126616	1472557922551	1472557922670	a	65
46424	506910	He said police in Dallas were also in favor of fences.	He said police in Dallas were also in favor of fences.	24126564	1472557922608	1472557922632	s	83
46424	506910	He said police in Dallas were also in favor of fences.	He said police in Dallas were also in favor of fences.	24126618	1472557922797	1472557922941	d	68
46424	506910	He said police in Dallas were also in favor of fences.	He said police in Dallas were also in favor of fences.	24126620	1472557923419	1472557923476	BKSP	8
46424	506910	He said police in Dallas were also in favor of fences.	He said police in Dallas were also in favor of fences.	24126621	1472557923679	1472557923766	i	73
46424	506910	He said police in Dallas were also in favor of fences.	He said police in Dallas were also in favor of fences.	24126622	1472557923797	1472557923938	d	68
46424	506910	He said police in Dallas were also in favor of fences.	He said police in Dallas were also in favor of fences.	24126623	1472557923985	1472557924075	 	32
46424	506910	He said police in Dallas were also in favor of fences.	He said police in Dallas were also in favor of fences.	24126624	1472557924200	1472557924317	p	80
46424	506910	He said police in Dallas were also in favor of fences.	He said police in Dallas were also in favor of fences.	24126652	1472557924622	1472557924717	l	76
46424	506910	He said police in Dallas were also in favor of fences.	He said police in Dallas were also in favor of fences.	24126655	1472557925005	1472557925094	BKSP	8
46424	506910	He said police in Dallas were also in favor of fences.	He said police in Dallas were also in favor of fences.	24126658	1472557925336	1472557925427	o	79
46424	506910	He said police in Dallas were also in favor of fences.	He said police in Dallas were also in favor of fences.	24126661	1472557925537	1472557925752	l	76
46424	506910	He said police in Dallas were also in favor of fences.	He said police in Dallas were also in favor of fences.	24126664	1472557925627	1472557925783	i	73
46424	506910	He said police in Dallas were also in favor of fences.	He said police in Dallas were also in favor of fences.	24126667	1472557925814	1472557925970	c	67
46424	506910	He said police in Dallas were also in favor of fences.	He said police in Dallas were also in favor of fences.	24126707	1472557925884	1472557926019	e	69
46424	506910	He said police in Dallas were also in favor of fences.	He said police in Dallas were also in favor of fences.	24126712	1472557926391	1472557926467	 	32
46424	506910	He said police in Dallas were also in favor of fences.	He said police in Dallas were also in favor of fences.	24126715	1472557926577	1472557926694	i	73
46424	506910	He said police in Dallas were also in favor of fences.	He said police in Dallas were also in favor of fences.	24126719	1472557926725	1472557926850	n	78
46424	506910	He said police in Dallas were also in favor of fences.	He said police in Dallas were also in favor of fences.	24126722	1472557926970	1472557927063	 	32
46424	506910	He said police in Dallas were also in favor of fences.	He said police in Dallas were also in favor of fences.	24126757	1472557927079	1472557927584	SHIFT	16
46424	506910	He said police in Dallas were also in favor of fences.	He said police in Dallas were also in favor of fences.	24126726	1472557927345	1472557927520	D	68
46424	506910	He said police in Dallas were also in favor of fences.	He said police in Dallas were also in favor of fences.	24126760	1472557927445	1472557927615	A	65
46424	506910	He said police in Dallas were also in favor of fences.	He said police in Dallas were also in favor of fences.	24126763	1472557927662	1472557927750	l	76
46424	506910	He said police in Dallas were also in favor of fences.	He said police in Dallas were also in favor of fences.	24126766	1472557927843	1472557927924	l	76
46424	506910	He said police in Dallas were also in favor of fences.	He said police in Dallas were also in favor of fences.	24126769	1472557928098	1472557928195	BKSP	8
46424	506910	He said police in Dallas were also in favor of fences.	He said police in Dallas were also in favor of fences.	24126774	1472557928249	1472557928354	BKSP	8
46424	506910	He said police in Dallas were also in favor of fences.	He said police in Dallas were also in favor of fences.	24126779	1472557928417	1472557928502	BKSP	8
46424	506910	He said police in Dallas were also in favor of fences.	He said police in Dallas were also in favor of fences.	24126785	1472557928517	1472557928656	a	65
46424	506910	He said police in Dallas were also in favor of fences.	He said police in Dallas were also in favor of fences.	24126791	1472557928710	1472557928784	l	76
46424	506910	He said police in Dallas were also in favor of fences.	He said police in Dallas were also in favor of fences.	24126798	1472557928846	1472557928956	l	76
46424	506910	He said police in Dallas were also in favor of fences.	He said police in Dallas were also in favor of fences.	24126809	1472557928956	1472557929190	a	65
46424	506910	He said police in Dallas were also in favor of fences.	He said police in Dallas were also in favor of fences.	24126810	1472557929073	1472557929221	s	83
46424	506910	He said police in Dallas were also in favor of fences.	He said police in Dallas were also in favor of fences.	24126811	1472557929221	1472557929305	 	32
46424	506910	He said police in Dallas were also in favor of fences.	He said police in Dallas were also in favor of fences.	24126812	1472557929399	1472557929525	w	87
46424	506910	He said police in Dallas were also in favor of fences.	He said police in Dallas were also in favor of fences.	24126813	1472557929626	1472557929702	e	69
46424	506910	He said police in Dallas were also in favor of fences.	He said police in Dallas were also in favor of fences.	24126824	1472557929919	1472557930116	r	82
46424	506910	He said police in Dallas were also in favor of fences.	He said police in Dallas were also in favor of fences.	24126825	1472557930016	1472557930163	e	69
46424	506910	He said police in Dallas were also in favor of fences.	He said police in Dallas were also in favor of fences.	24126827	1472557930225	1472557930321	 	32
46424	506910	He said police in Dallas were also in favor of fences.	He said police in Dallas were also in favor of fences.	24126829	1472557930383	1472557930519	a	65
46424	506910	He said police in Dallas were also in favor of fences.	He said police in Dallas were also in favor of fences.	24126831	1472557930597	1472557930701	l	76
46424	506910	He said police in Dallas were also in favor of fences.	He said police in Dallas were also in favor of fences.	24126852	1472557930753	1472557930864	s	83
46424	506910	He said police in Dallas were also in favor of fences.	He said police in Dallas were also in favor of fences.	24126857	1472557930939	1472557931194	o	79
46424	506910	He said police in Dallas were also in favor of fences.	He said police in Dallas were also in favor of fences.	24126860	1472557931570	1472557931654	 	32
46424	506910	He said police in Dallas were also in favor of fences.	He said police in Dallas were also in favor of fences.	24126863	1472557931770	1472557931933	i	73
46424	506910	He said police in Dallas were also in favor of fences.	He said police in Dallas were also in favor of fences.	24126895	1472557931849	1472557931968	n	78
46424	506910	He said police in Dallas were also in favor of fences.	He said police in Dallas were also in favor of fences.	24126896	1472557932081	1472557932163	 	32
46424	506910	He said police in Dallas were also in favor of fences.	He said police in Dallas were also in favor of fences.	24126898	1472557932263	1472557932419	f	70
46424	506910	He said police in Dallas were also in favor of fences.	He said police in Dallas were also in favor of fences.	24126900	1472557932465	1472557932616	a	65
46424	506910	He said police in Dallas were also in favor of fences.	He said police in Dallas were also in favor of fences.	24126903	1472557932710	1472557932812	v	86
46424	506910	He said police in Dallas were also in favor of fences.	He said police in Dallas were also in favor of fences.	24126906	1472557932938	1472557933039	o	79
46424	506910	He said police in Dallas were also in favor of fences.	He said police in Dallas were also in favor of fences.	24126972	1472557933071	1472557933197	t	84
46424	506910	He said police in Dallas were also in favor of fences.	He said police in Dallas were also in favor of fences.	24126975	1472557933739	1472557933825	BKSP	8
46424	506910	He said police in Dallas were also in favor of fences.	He said police in Dallas were also in favor of fences.	24126981	1472557933825	1472557933978	r	82
46424	506910	He said police in Dallas were also in favor of fences.	He said police in Dallas were also in favor of fences.	24126989	1472557934173	1472557934253	 	32
46424	506910	He said police in Dallas were also in favor of fences.	He said police in Dallas were also in favor of fences.	24126996	1472557934705	1472557934819	o	79
46424	506910	He said police in Dallas were also in favor of fences.	He said police in Dallas were also in favor of fences.	24127001	1472557934888	1472557935043	f	70
46424	506910	He said police in Dallas were also in favor of fences.	He said police in Dallas were also in favor of fences.	24127056	1472557935106	1472557935195	 	32
46424	506910	He said police in Dallas were also in favor of fences.	He said police in Dallas were also in favor of fences.	24127062	1472557935617	1472557935753	f	70
46424	506910	He said police in Dallas were also in favor of fences.	He said police in Dallas were also in favor of fences.	24127069	1472557936025	1472557936172	e	69
46424	506910	He said police in Dallas were also in favor of fences.	He said police in Dallas were also in favor of fences.	24127072	1472557936189	1472557936281	n	78
46424	506910	He said police in Dallas were also in favor of fences.	He said police in Dallas were also in favor of fences.	24127078	1472557936328	1472557936526	c	67
46424	506910	He said police in Dallas were also in favor of fences.	He said police in Dallas were also in favor of fences.	24127091	1472557936450	1472557936595	e	69
46424	506910	He said police in Dallas were also in favor of fences.	He said police in Dallas were also in favor of fences.	24127092	1472557936673	1472557936824	s	83
46424	506910	He said police in Dallas were also in favor of fences.	He said police in Dallas were also in favor of fences.	24127093	1472557936979	1472557937039	.	190
46424	506924	I thought you were on 6.	I thought you were on 6.	24127195	1472557939413	1472557939703	SHIFT	16
46424	506924	I thought you were on 6.	I thought you were on 6.	24127193	1472557939506	1472557939625	I	73
46424	506924	I thought you were on 6.	I thought you were on 6.	24127198	1472557939796	1472557939901	 	32
46424	506924	I thought you were on 6.	I thought you were on 6.	24127202	1472557939948	1472557940130	t	84
46424	506924	I thought you were on 6.	I thought you were on 6.	24127207	1472557940177	1472557940420	h	72
46424	506924	I thought you were on 6.	I thought you were on 6.	24127243	1472557940333	1472557940561	o	79
46424	506924	I thought you were on 6.	I thought you were on 6.	24127245	1472557940420	1472557940577	u	85
46424	506924	I thought you were on 6.	I thought you were on 6.	24127249	1472557940592	1472557940747	g	71
46424	506924	I thought you were on 6.	I thought you were on 6.	24127253	1472557940695	1472557940819	h	72
46424	506924	I thought you were on 6.	I thought you were on 6.	24127257	1472557940866	1472557940989	t	84
46424	506924	I thought you were on 6.	I thought you were on 6.	24127261	1472557941600	1472557941715	 	32
46424	506924	I thought you were on 6.	I thought you were on 6.	24127282	1472557941900	1472557942033	y	89
46424	506924	I thought you were on 6.	I thought you were on 6.	24127283	1472557942127	1472557942328	o	79
46424	506924	I thought you were on 6.	I thought you were on 6.	24127285	1472557942210	1472557942343	u	85
46424	506924	I thought you were on 6.	I thought you were on 6.	24127288	1472557942468	1472557942573	 	32
46424	506924	I thought you were on 6.	I thought you were on 6.	24127291	1472557942604	1472557942753	w	87
46424	506924	I thought you were on 6.	I thought you were on 6.	24127319	1472557942684	1472557942911	e	69
46424	506924	I thought you were on 6.	I thought you were on 6.	24127323	1472557943095	1472557943236	w	87
46424	506924	I thought you were on 6.	I thought you were on 6.	24127329	1472557943571	1472557943663	BKSP	8
46424	506924	I thought you were on 6.	I thought you were on 6.	24127335	1472557943710	1472557943911	r	82
46424	506924	I thought you were on 6.	I thought you were on 6.	24127342	1472557943792	1472557943926	e	69
46424	506924	I thought you were on 6.	I thought you were on 6.	24127348	1472557943958	1472557944055	 	32
46424	506924	I thought you were on 6.	I thought you were on 6.	24127355	1472557944196	1472557944283	i	79
46424	506924	I thought you were on 6.	I thought you were on 6.	24127444	1472557944239	1472557944341	n	78
46424	506924	I thought you were on 6.	I thought you were on 6.	24127446	1472557944823	1472557944875	BKSP	8
46424	506924	I thought you were on 6.	I thought you were on 6.	24127448	1472557944937	1472557945062	BKSP	8
46424	506924	I thought you were on 6.	I thought you were on 6.	24127450	1472557945675	1472557945765	n	78
46424	506924	I thought you were on 6.	I thought you were on 6.	24127454	1472557945944	1472557946034	 	32
46424	506924	I thought you were on 6.	I thought you were on 6.	24127457	1472557946628	1472557946748	6	54
46424	506924	I thought you were on 6.	I thought you were on 6.	24127459	1472557946920	1472557947004	.	190
46424	506930	Let's have this meeting today or tonight.	Let's have this meeting today or tonight.	24127563	1472557949738	1472557949970	SHIFT	16
46424	506930	Let's have this meeting today or tonight.	Let's have this meeting today or tonight.	24127566	1472557949878	1472557949986	L	76
46424	506930	Let's have this meeting today or tonight.	Let's have this meeting today or tonight.	24127570	1472557950064	1472557950151	e	69
46424	506930	Let's have this meeting today or tonight.	Let's have this meeting today or tonight.	24127574	1472557950276	1472557950376	t	84
46424	506930	Let's have this meeting today or tonight.	Let's have this meeting today or tonight.	24127578	1472557950516	1472557950584	;	186
46424	506930	Let's have this meeting today or tonight.	Let's have this meeting today or tonight.	24127580	1472557950685	1472557950826	s	83
46424	506930	Let's have this meeting today or tonight.	Let's have this meeting today or tonight.	24127645	1472557951037	1472557951119	BKSP	8
46424	506930	Let's have this meeting today or tonight.	Let's have this meeting today or tonight.	24127646	1472557951188	1472557951279	BKSP	8
46424	506930	Let's have this meeting today or tonight.	Let's have this meeting today or tonight.	24127647	1472557951404	1472557951507	'	222
46424	506930	Let's have this meeting today or tonight.	Let's have this meeting today or tonight.	24127648	1472557951539	1472557951666	s	83
46424	506930	Let's have this meeting today or tonight.	Let's have this meeting today or tonight.	24127649	1472557951985	1472557952091	 	32
46424	506930	Let's have this meeting today or tonight.	Let's have this meeting today or tonight.	24127650	1472557952317	1472557952397	h	72
46424	506930	Let's have this meeting today or tonight.	Let's have this meeting today or tonight.	24127652	1472557952428	1472557952546	a	65
46424	506930	Let's have this meeting today or tonight.	Let's have this meeting today or tonight.	24127662	1472557952657	1472557952864	v	86
46424	506930	Let's have this meeting today or tonight.	Let's have this meeting today or tonight.	24127663	1472557952773	1472557952911	e	69
46424	506930	Let's have this meeting today or tonight.	Let's have this meeting today or tonight.	24127665	1472557952926	1472557953015	 	32
46424	506930	Let's have this meeting today or tonight.	Let's have this meeting today or tonight.	24127666	1472557953093	1472557953188	t	84
46424	506930	Let's have this meeting today or tonight.	Let's have this meeting today or tonight.	24127668	1472557953272	1472557953424	h	72
46424	506930	Let's have this meeting today or tonight.	Let's have this meeting today or tonight.	24127678	1472557953346	1472557953466	i	73
46424	506930	Let's have this meeting today or tonight.	Let's have this meeting today or tonight.	24127679	1472557953466	1472557953612	s	83
46424	506930	Let's have this meeting today or tonight.	Let's have this meeting today or tonight.	24127680	1472557953628	1472557953719	 	32
46424	506930	Let's have this meeting today or tonight.	Let's have this meeting today or tonight.	24127681	1472557953782	1472557953869	m	77
46424	506930	Let's have this meeting today or tonight.	Let's have this meeting today or tonight.	24127684	1472557953869	1472557953974	e	69
46424	506930	Let's have this meeting today or tonight.	Let's have this meeting today or tonight.	24127686	1472557954038	1472557954138	e	69
46424	506930	Let's have this meeting today or tonight.	Let's have this meeting today or tonight.	24127701	1472557954227	1472557954387	t	84
46424	506930	Let's have this meeting today or tonight.	Let's have this meeting today or tonight.	24127703	1472557954388	1472557954572	i	73
46424	506930	Let's have this meeting today or tonight.	Let's have this meeting today or tonight.	24127704	1472557954462	1472557954572	n	78
46424	506930	Let's have this meeting today or tonight.	Let's have this meeting today or tonight.	24127706	1472557954587	1472557954735	g	71
46424	506930	Let's have this meeting today or tonight.	Let's have this meeting today or tonight.	24127708	1472557954751	1472557954830	 	32
46424	506930	Let's have this meeting today or tonight.	Let's have this meeting today or tonight.	24127726	1472557955003	1472557955132	t	84
46424	506930	Let's have this meeting today or tonight.	Let's have this meeting today or tonight.	24127728	1472557955456	1472557955562	o	79
46424	506930	Let's have this meeting today or tonight.	Let's have this meeting today or tonight.	24127821	1472557955609	1472557955751	f	68
46424	506930	Let's have this meeting today or tonight.	Let's have this meeting today or tonight.	24127824	1472557955677	1472557955834	a	65
46424	506930	Let's have this meeting today or tonight.	Let's have this meeting today or tonight.	24127827	1472557956100	1472557956201	BKSP	8
46424	506930	Let's have this meeting today or tonight.	Let's have this meeting today or tonight.	24127831	1472557956271	1472557956378	BKSP	8
46424	506930	Let's have this meeting today or tonight.	Let's have this meeting today or tonight.	24127834	1472557956526	1472557956663	a	65
46424	506930	Let's have this meeting today or tonight.	Let's have this meeting today or tonight.	24127837	1472557956756	1472557956892	t	84
46424	506930	Let's have this meeting today or tonight.	Let's have this meeting today or tonight.	24127839	1472557957041	1472557957131	 	32
46424	506930	Let's have this meeting today or tonight.	Let's have this meeting today or tonight.	24127841	1472557957342	1472557957418	BKSP	8
46424	506930	Let's have this meeting today or tonight.	Let's have this meeting today or tonight.	24127843	1472557957480	1472557957600	BKSP	8
46424	506930	Let's have this meeting today or tonight.	Let's have this meeting today or tonight.	24127845	1472557957920	1472557958076	y	89
46424	506930	Let's have this meeting today or tonight.	Let's have this meeting today or tonight.	24127847	1472557958423	1472557958533	 	32
46424	506930	Let's have this meeting today or tonight.	Let's have this meeting today or tonight.	24127858	1472557958686	1472557958794	o	79
46424	506930	Let's have this meeting today or tonight.	Let's have this meeting today or tonight.	24127860	1472557958825	1472557958940	r	82
46424	506930	Let's have this meeting today or tonight.	Let's have this meeting today or tonight.	24127864	1472557958956	1472557959049	 	32
46424	506930	Let's have this meeting today or tonight.	Let's have this meeting today or tonight.	24127868	1472557959081	1472557959201	t	84
46424	506930	Let's have this meeting today or tonight.	Let's have this meeting today or tonight.	24127901	1472557959232	1472557959311	o	79
46424	506930	Let's have this meeting today or tonight.	Let's have this meeting today or tonight.	24127870	1472557959263	1472557959303	i	73
46424	506930	Let's have this meeting today or tonight.	Let's have this meeting today or tonight.	24127904	1472557959436	1472557959525	n	78
46424	506930	Let's have this meeting today or tonight.	Let's have this meeting today or tonight.	24127908	1472557959831	1472557959895	BKSP	8
46424	506930	Let's have this meeting today or tonight.	Let's have this meeting today or tonight.	24127911	1472557959979	1472557960069	BKSP	8
46424	506930	Let's have this meeting today or tonight.	Let's have this meeting today or tonight.	24127913	1472557960404	1472557960503	n	78
46424	506930	Let's have this meeting today or tonight.	Let's have this meeting today or tonight.	24127916	1472557960535	1472557960657	i	73
46424	506930	Let's have this meeting today or tonight.	Let's have this meeting today or tonight.	24127920	1472557960688	1472557960777	g	71
46424	506930	Let's have this meeting today or tonight.	Let's have this meeting today or tonight.	24127922	1472557960793	1472557960883	h	72
46424	506930	Let's have this meeting today or tonight.	Let's have this meeting today or tonight.	24127940	1472557960883	1472557961010	t	84
46424	506930	Let's have this meeting today or tonight.	Let's have this meeting today or tonight.	24127946	1472557961304	1472557961392	.	190
46424	506942	A bit behind on my emails.	A bit behind on my emails.	24128055	1472557963873	1472557964171	SHIFT	16
46424	506942	A bit behind on my emails.	A bit behind on my emails.	24128061	1472557964067	1472557964187	A	65
46424	506942	A bit behind on my emails.	A bit behind on my emails.	24128063	1472557964281	1472557964332	 	32
46424	506942	A bit behind on my emails.	A bit behind on my emails.	24128067	1472557964522	1472557964617	b	66
46424	506942	A bit behind on my emails.	A bit behind on my emails.	24128070	1472557964553	1472557964632	i	73
46424	506942	A bit behind on my emails.	A bit behind on my emails.	24128071	1472557964695	1472557964815	t	84
46424	506942	A bit behind on my emails.	A bit behind on my emails.	24128125	1472557964966	1472557965071	 	32
46424	506942	A bit behind on my emails.	A bit behind on my emails.	24128129	1472557965252	1472557965357	g	71
46424	506942	A bit behind on my emails.	A bit behind on my emails.	24128133	1472557965373	1472557965470	e	69
46424	506942	A bit behind on my emails.	A bit behind on my emails.	24128137	1472557966004	1472557966092	BKSP	8
46424	506942	A bit behind on my emails.	A bit behind on my emails.	24128140	1472557966139	1472557966251	BKSP	8
46424	506942	A bit behind on my emails.	A bit behind on my emails.	24128143	1472557966601	1472557966727	b	66
46424	506942	A bit behind on my emails.	A bit behind on my emails.	24128185	1472557966663	1472557966758	e	69
46424	506942	A bit behind on my emails.	A bit behind on my emails.	24128188	1472557966938	1472557967048	h	72
46424	506942	A bit behind on my emails.	A bit behind on my emails.	24128190	1472557967165	1472557967309	i	73
46424	506942	A bit behind on my emails.	A bit behind on my emails.	24128193	1472557967227	1472557967340	n	78
46424	506942	A bit behind on my emails.	A bit behind on my emails.	24128195	1472557967356	1472557967533	d	68
46424	506942	A bit behind on my emails.	A bit behind on my emails.	24128197	1472557967681	1472557967774	 	32
46424	506942	A bit behind on my emails.	A bit behind on my emails.	24128231	1472557967913	1472557968072	o	79
46424	506942	A bit behind on my emails.	A bit behind on my emails.	24128235	1472557968002	1472557968081	n	78
46424	506942	A bit behind on my emails.	A bit behind on my emails.	24128238	1472557968181	1472557968270	 	32
46424	506942	A bit behind on my emails.	A bit behind on my emails.	24128240	1472557968395	1472557968498	m	77
46424	506942	A bit behind on my emails.	A bit behind on my emails.	24128242	1472557968638	1472557968739	y	89
46424	506942	A bit behind on my emails.	A bit behind on my emails.	24128253	1472557968864	1472557968947	 	32
46424	506942	A bit behind on my emails.	A bit behind on my emails.	24128255	1472557969009	1472557969149	e	69
46424	506942	A bit behind on my emails.	A bit behind on my emails.	24128257	1472557969118	1472557969236	m	77
46424	506942	A bit behind on my emails.	A bit behind on my emails.	24128259	1472557969253	1472557969340	a	65
46424	506942	A bit behind on my emails.	A bit behind on my emails.	24128261	1472557969340	1472557969436	i	73
46424	506942	A bit behind on my emails.	A bit behind on my emails.	24128282	1472557969525	1472557969630	l	76
46424	506942	A bit behind on my emails.	A bit behind on my emails.	24128284	1472557969662	1472557969792	s	83
46424	506942	A bit behind on my emails.	A bit behind on my emails.	24128285	1472557969932	1472557970018	.	190
46424	506948	Don't bother to start him.	Don't bother to start him.	24128395	1472557972300	1472557972604	SHIFT	16
46424	506948	Don't bother to start him.	Don't bother to start him.	24128396	1472557972479	1472557972651	D	68
46424	506948	Don't bother to start him.	Don't bother to start him.	24128398	1472557972716	1472557972924	o	79
46424	506948	Don't bother to start him.	Don't bother to start him.	24128400	1472557972824	1472557972956	n	78
46424	506948	Don't bother to start him.	Don't bother to start him.	24128403	1472557973384	1472557973503	'	222
46424	506948	Don't bother to start him.	Don't bother to start him.	24128407	1472557973550	1472557973684	y	89
46424	506948	Don't bother to start him.	Don't bother to start him.	24128466	1472557974344	1472557974426	BKSP	8
46424	506948	Don't bother to start him.	Don't bother to start him.	24128467	1472557974480	1472557974631	t	84
46424	506948	Don't bother to start him.	Don't bother to start him.	24128468	1472557974694	1472557974796	 	32
46424	506948	Don't bother to start him.	Don't bother to start him.	24128469	1472557974937	1472557975039	n	78
46424	506948	Don't bother to start him.	Don't bother to start him.	24128470	1472557975149	1472557975263	o	79
46424	506948	Don't bother to start him.	Don't bother to start him.	24128471	1472557975326	1472557975451	y	89
46424	506948	Don't bother to start him.	Don't bother to start him.	24128553	1472557975630	1472557975727	BKSP	8
46424	506948	Don't bother to start him.	Don't bother to start him.	24128556	1472557975790	1472557975879	BKSP	8
46424	506948	Don't bother to start him.	Don't bother to start him.	24128559	1472557975942	1472557976045	BKSP	8
46424	506948	Don't bother to start him.	Don't bother to start him.	24128562	1472557976368	1472557976475	b	66
46424	506948	Don't bother to start him.	Don't bother to start him.	24128567	1472557976553	1472557976691	o	79
46424	506948	Don't bother to start him.	Don't bother to start him.	24128569	1472557976701	1472557976812	t	84
46424	506948	Don't bother to start him.	Don't bother to start him.	24128572	1472557976865	1472557976922	h	72
46424	506948	Don't bother to start him.	Don't bother to start him.	24128575	1472557976938	1472557977144	e	69
46424	506948	Don't bother to start him.	Don't bother to start him.	24128598	1472557977046	1472557977192	r	82
46424	506948	Don't bother to start him.	Don't bother to start him.	24128601	1472557977254	1472557977334	 	32
46424	506948	Don't bother to start him.	Don't bother to start him.	24128602	1472557977560	1472557977684	t	84
46424	506948	Don't bother to start him.	Don't bother to start him.	24128603	1472557977642	1472557977809	o	79
46424	506948	Don't bother to start him.	Don't bother to start him.	24128604	1472557977747	1472557977872	 	32
46424	506948	Don't bother to start him.	Don't bother to start him.	24128605	1472557977973	1472557978065	s	83
46424	506948	Don't bother to start him.	Don't bother to start him.	24128666	1472557978734	1472557978823	t	84
46424	506948	Don't bother to start him.	Don't bother to start him.	24128668	1472557978823	1472557978947	a	65
46424	506948	Don't bother to start him.	Don't bother to start him.	24128670	1472557978931	1472557979031	r	82
46424	506948	Don't bother to start him.	Don't bother to start him.	24128672	1472557979109	1472557979188	t	84
46424	506948	Don't bother to start him.	Don't bother to start him.	24128674	1472557979314	1472557979406	 	32
46424	506948	Don't bother to start him.	Don't bother to start him.	24128706	1472557979826	1472557979947	h	72
46424	506948	Don't bother to start him.	Don't bother to start him.	24128709	1472557979978	1472557980138	i	73
46424	506948	Don't bother to start him.	Don't bother to start him.	24128714	1472557980067	1472557980156	m	77
46424	506948	Don't bother to start him.	Don't bother to start him.	24128718	1472557980343	1472557980433	.	190
46424	506953	Add a Star Trek convention and sports memorabilia show to the mix.	Add a Star Trek convention and sports memorabilia show to the mix.	24128832	1472557982775	1472557983083	SHIFT	16
46424	506953	Add a Star Trek convention and sports memorabilia show to the mix.	Add a Star Trek convention and sports memorabilia show to the mix.	24128833	1472557982999	1472557983130	A	65
46424	506953	Add a Star Trek convention and sports memorabilia show to the mix.	Add a Star Trek convention and sports memorabilia show to the mix.	24128834	1472557983276	1472557983363	d	68
46424	506953	Add a Star Trek convention and sports memorabilia show to the mix.	Add a Star Trek convention and sports memorabilia show to the mix.	24128835	1472557983441	1472557983508	d	68
46424	506953	Add a Star Trek convention and sports memorabilia show to the mix.	Add a Star Trek convention and sports memorabilia show to the mix.	24128836	1472557983609	1472557983718	 	32
46424	506953	Add a Star Trek convention and sports memorabilia show to the mix.	Add a Star Trek convention and sports memorabilia show to the mix.	24128838	1472557983780	1472557983913	a	65
46424	506953	Add a Star Trek convention and sports memorabilia show to the mix.	Add a Star Trek convention and sports memorabilia show to the mix.	24128888	1472557983954	1472557984070	 	32
46424	506953	Add a Star Trek convention and sports memorabilia show to the mix.	Add a Star Trek convention and sports memorabilia show to the mix.	24128889	1472557984086	1472557984190	s	83
46424	506953	Add a Star Trek convention and sports memorabilia show to the mix.	Add a Star Trek convention and sports memorabilia show to the mix.	24128890	1472557984620	1472557984725	BKSP	8
46424	506953	Add a Star Trek convention and sports memorabilia show to the mix.	Add a Star Trek convention and sports memorabilia show to the mix.	24128892	1472557984710	1472557985096	SHIFT	16
46424	506953	Add a Star Trek convention and sports memorabilia show to the mix.	Add a Star Trek convention and sports memorabilia show to the mix.	24128891	1472557984942	1472557985080	S	83
46424	506953	Add a Star Trek convention and sports memorabilia show to the mix.	Add a Star Trek convention and sports memorabilia show to the mix.	24128893	1472557985265	1472557985390	a	65
46424	506953	Add a Star Trek convention and sports memorabilia show to the mix.	Add a Star Trek convention and sports memorabilia show to the mix.	24128894	1472557985740	1472557985848	BKSP	8
46424	506953	Add a Star Trek convention and sports memorabilia show to the mix.	Add a Star Trek convention and sports memorabilia show to the mix.	24128896	1472557985910	1472557986031	t	84
46424	506953	Add a Star Trek convention and sports memorabilia show to the mix.	Add a Star Trek convention and sports memorabilia show to the mix.	24128925	1472557985997	1472557986205	a	65
46424	506953	Add a Star Trek convention and sports memorabilia show to the mix.	Add a Star Trek convention and sports memorabilia show to the mix.	24128928	1472557986151	1472557986298	r	82
46424	506953	Add a Star Trek convention and sports memorabilia show to the mix.	Add a Star Trek convention and sports memorabilia show to the mix.	24128932	1472557986360	1472557986442	 	32
46424	506953	Add a Star Trek convention and sports memorabilia show to the mix.	Add a Star Trek convention and sports memorabilia show to the mix.	24128945	1472557986479	1472557986802	SHIFT	16
46424	506953	Add a Star Trek convention and sports memorabilia show to the mix.	Add a Star Trek convention and sports memorabilia show to the mix.	24128938	1472557986665	1472557986786	T	84
46424	506953	Add a Star Trek convention and sports memorabilia show to the mix.	Add a Star Trek convention and sports memorabilia show to the mix.	24128949	1472557986927	1472557987142	r	82
46424	506953	Add a Star Trek convention and sports memorabilia show to the mix.	Add a Star Trek convention and sports memorabilia show to the mix.	24128965	1472557987052	1472557987189	e	69
46424	506953	Add a Star Trek convention and sports memorabilia show to the mix.	Add a Star Trek convention and sports memorabilia show to the mix.	24128968	1472557987290	1472557987377	k	75
46424	506953	Add a Star Trek convention and sports memorabilia show to the mix.	Add a Star Trek convention and sports memorabilia show to the mix.	24128971	1472557987533	1472557987619	 	32
46424	506953	Add a Star Trek convention and sports memorabilia show to the mix.	Add a Star Trek convention and sports memorabilia show to the mix.	24128974	1472557987666	1472557987809	c	67
46424	506953	Add a Star Trek convention and sports memorabilia show to the mix.	Add a Star Trek convention and sports memorabilia show to the mix.	24128978	1472557987775	1472557987860	o	79
46424	506953	Add a Star Trek convention and sports memorabilia show to the mix.	Add a Star Trek convention and sports memorabilia show to the mix.	24128982	1472557987938	1472557988033	n	78
46424	506953	Add a Star Trek convention and sports memorabilia show to the mix.	Add a Star Trek convention and sports memorabilia show to the mix.	24129014	1472557988033	1472557988102	e	69
46424	506953	Add a Star Trek convention and sports memorabilia show to the mix.	Add a Star Trek convention and sports memorabilia show to the mix.	24129018	1472557988212	1472557988360	v	86
46424	506953	Add a Star Trek convention and sports memorabilia show to the mix.	Add a Star Trek convention and sports memorabilia show to the mix.	24129023	1472557988517	1472557988600	BKSP	8
46424	506953	Add a Star Trek convention and sports memorabilia show to the mix.	Add a Star Trek convention and sports memorabilia show to the mix.	24129027	1472557988678	1472557988802	BKSP	8
46424	506953	Add a Star Trek convention and sports memorabilia show to the mix.	Add a Star Trek convention and sports memorabilia show to the mix.	24129032	1472557988753	1472557988905	v	86
46424	506953	Add a Star Trek convention and sports memorabilia show to the mix.	Add a Star Trek convention and sports memorabilia show to the mix.	24129037	1472557988835	1472557988968	e	69
46424	506953	Add a Star Trek convention and sports memorabilia show to the mix.	Add a Star Trek convention and sports memorabilia show to the mix.	24129040	1472557989046	1472557989129	n	78
46424	506953	Add a Star Trek convention and sports memorabilia show to the mix.	Add a Star Trek convention and sports memorabilia show to the mix.	24129047	1472557989198	1472557989336	t	84
46424	506953	Add a Star Trek convention and sports memorabilia show to the mix.	Add a Star Trek convention and sports memorabilia show to the mix.	24129050	1472557989404	1472557989631	i	73
46424	506953	Add a Star Trek convention and sports memorabilia show to the mix.	Add a Star Trek convention and sports memorabilia show to the mix.	24129052	1472557989475	1472557989646	o	79
46424	506953	Add a Star Trek convention and sports memorabilia show to the mix.	Add a Star Trek convention and sports memorabilia show to the mix.	24129056	1472557989552	1472557989662	n	78
46424	506953	Add a Star Trek convention and sports memorabilia show to the mix.	Add a Star Trek convention and sports memorabilia show to the mix.	24129060	1472557989772	1472557989860	 	32
46424	506953	Add a Star Trek convention and sports memorabilia show to the mix.	Add a Star Trek convention and sports memorabilia show to the mix.	24129090	1472557989828	1472557989954	a	65
46424	506953	Add a Star Trek convention and sports memorabilia show to the mix.	Add a Star Trek convention and sports memorabilia show to the mix.	24129095	1472557989954	1472557990088	n	78
46424	506953	Add a Star Trek convention and sports memorabilia show to the mix.	Add a Star Trek convention and sports memorabilia show to the mix.	24129100	1472557990042	1472557990177	d	68
46424	506953	Add a Star Trek convention and sports memorabilia show to the mix.	Add a Star Trek convention and sports memorabilia show to the mix.	24129103	1472557990209	1472557990278	 	32
46424	506953	Add a Star Trek convention and sports memorabilia show to the mix.	Add a Star Trek convention and sports memorabilia show to the mix.	24129106	1472557990294	1472557990403	s	83
46424	506953	Add a Star Trek convention and sports memorabilia show to the mix.	Add a Star Trek convention and sports memorabilia show to the mix.	24129109	1472557990450	1472557990551	p	80
46424	506953	Add a Star Trek convention and sports memorabilia show to the mix.	Add a Star Trek convention and sports memorabilia show to the mix.	24129134	1472557990651	1472557990765	o	79
46424	506953	Add a Star Trek convention and sports memorabilia show to the mix.	Add a Star Trek convention and sports memorabilia show to the mix.	24129138	1472557990765	1472557990916	r	82
46424	506953	Add a Star Trek convention and sports memorabilia show to the mix.	Add a Star Trek convention and sports memorabilia show to the mix.	24129144	1472557991032	1472557991168	t	84
46424	506953	Add a Star Trek convention and sports memorabilia show to the mix.	Add a Star Trek convention and sports memorabilia show to the mix.	24129149	1472557991299	1472557991434	s	83
46424	506953	Add a Star Trek convention and sports memorabilia show to the mix.	Add a Star Trek convention and sports memorabilia show to the mix.	24129154	1472557991582	1472557991671	 	32
46424	506953	Add a Star Trek convention and sports memorabilia show to the mix.	Add a Star Trek convention and sports memorabilia show to the mix.	24129171	1472557991866	1472557991974	m	77
46424	506953	Add a Star Trek convention and sports memorabilia show to the mix.	Add a Star Trek convention and sports memorabilia show to the mix.	24129172	1472557992052	1472557992194	e	69
46424	506953	Add a Star Trek convention and sports memorabilia show to the mix.	Add a Star Trek convention and sports memorabilia show to the mix.	24129173	1472557992288	1472557992371	m	77
46424	506953	Add a Star Trek convention and sports memorabilia show to the mix.	Add a Star Trek convention and sports memorabilia show to the mix.	24129175	1472557992528	1472557992648	o	79
46424	506953	Add a Star Trek convention and sports memorabilia show to the mix.	Add a Star Trek convention and sports memorabilia show to the mix.	24129177	1472557992742	1472557992912	r	82
46424	506953	Add a Star Trek convention and sports memorabilia show to the mix.	Add a Star Trek convention and sports memorabilia show to the mix.	24129250	1472557992875	1472557993040	a	65
46424	506953	Add a Star Trek convention and sports memorabilia show to the mix.	Add a Star Trek convention and sports memorabilia show to the mix.	24129251	1472557993235	1472557993346	b	66
46424	506953	Add a Star Trek convention and sports memorabilia show to the mix.	Add a Star Trek convention and sports memorabilia show to the mix.	24129253	1472557993886	1472557994002	i	73
46424	506953	Add a Star Trek convention and sports memorabilia show to the mix.	Add a Star Trek convention and sports memorabilia show to the mix.	24129257	1472557994111	1472557994282	l	76
46424	506953	Add a Star Trek convention and sports memorabilia show to the mix.	Add a Star Trek convention and sports memorabilia show to the mix.	24129260	1472557994179	1472557994298	i	73
46424	506953	Add a Star Trek convention and sports memorabilia show to the mix.	Add a Star Trek convention and sports memorabilia show to the mix.	24129263	1472557994313	1472557994456	a	65
46424	506953	Add a Star Trek convention and sports memorabilia show to the mix.	Add a Star Trek convention and sports memorabilia show to the mix.	24129302	1472557994797	1472557994891	 	32
46424	506953	Add a Star Trek convention and sports memorabilia show to the mix.	Add a Star Trek convention and sports memorabilia show to the mix.	24129304	1472557995116	1472557995227	s	83
46424	506953	Add a Star Trek convention and sports memorabilia show to the mix.	Add a Star Trek convention and sports memorabilia show to the mix.	24129307	1472557995290	1472557995396	h	72
46424	506953	Add a Star Trek convention and sports memorabilia show to the mix.	Add a Star Trek convention and sports memorabilia show to the mix.	24129310	1472557995506	1472557995610	o	79
46424	506953	Add a Star Trek convention and sports memorabilia show to the mix.	Add a Star Trek convention and sports memorabilia show to the mix.	24129315	1472557995610	1472557995772	w	87
46424	506953	Add a Star Trek convention and sports memorabilia show to the mix.	Add a Star Trek convention and sports memorabilia show to the mix.	24129331	1472557995825	1472557995900	 	32
46424	506953	Add a Star Trek convention and sports memorabilia show to the mix.	Add a Star Trek convention and sports memorabilia show to the mix.	24129333	1472557995963	1472557996135	t	84
46424	506953	Add a Star Trek convention and sports memorabilia show to the mix.	Add a Star Trek convention and sports memorabilia show to the mix.	24129336	1472557996047	1472557996228	o	79
46424	506953	Add a Star Trek convention and sports memorabilia show to the mix.	Add a Star Trek convention and sports memorabilia show to the mix.	24129339	1472557996150	1472557996260	 	32
46424	506953	Add a Star Trek convention and sports memorabilia show to the mix.	Add a Star Trek convention and sports memorabilia show to the mix.	24129343	1472557996423	1472557996548	t	84
46424	506953	Add a Star Trek convention and sports memorabilia show to the mix.	Add a Star Trek convention and sports memorabilia show to the mix.	24129375	1472557996596	1472557996665	h	72
46424	506953	Add a Star Trek convention and sports memorabilia show to the mix.	Add a Star Trek convention and sports memorabilia show to the mix.	24129381	1472557996665	1472557996804	e	69
46424	506953	Add a Star Trek convention and sports memorabilia show to the mix.	Add a Star Trek convention and sports memorabilia show to the mix.	24129387	1472557996835	1472557996920	 	32
46424	506953	Add a Star Trek convention and sports memorabilia show to the mix.	Add a Star Trek convention and sports memorabilia show to the mix.	24129394	1472557996998	1472557997094	m	77
46424	506953	Add a Star Trek convention and sports memorabilia show to the mix.	Add a Star Trek convention and sports memorabilia show to the mix.	24129399	1472557997217	1472557997325	i	73
46424	506953	Add a Star Trek convention and sports memorabilia show to the mix.	Add a Star Trek convention and sports memorabilia show to the mix.	24129438	1472557997356	1472557997457	x	88
46424	506953	Add a Star Trek convention and sports memorabilia show to the mix.	Add a Star Trek convention and sports memorabilia show to the mix.	24129440	1472557998067	1472557998147	.	190
46424	506968	I'll send you a check.	I'll send you a check.	24129597	1472558000836	1472558001135	SHIFT	16
46424	506968	I'll send you a check.	I'll send you a check.	24129595	1472558001046	1472558001135	I	73
46424	506968	I'll send you a check.	I'll send you a check.	24129599	1472558001640	1472558001718	;	186
46424	506968	I'll send you a check.	I'll send you a check.	24129602	1472558002092	1472558002212	BKSP	8
46424	506968	I'll send you a check.	I'll send you a check.	24129605	1472558002579	1472558002665	'	222
46424	506968	I'll send you a check.	I'll send you a check.	24129610	1472558002858	1472558002915	l	76
46424	506968	I'll send you a check.	I'll send you a check.	24129613	1472558002977	1472558003057	l	76
46424	506968	I'll send you a check.	I'll send you a check.	24129673	1472558003267	1472558003348	 	32
46424	506968	I'll send you a check.	I'll send you a check.	24129675	1472558003542	1472558003652	s	83
46424	506968	I'll send you a check.	I'll send you a check.	24129678	1472558003730	1472558003840	e	69
46424	506968	I'll send you a check.	I'll send you a check.	24129680	1472558003909	1472558003996	n	78
46424	506968	I'll send you a check.	I'll send you a check.	24129682	1472558004012	1472558004121	d	68
46424	506968	I'll send you a check.	I'll send you a check.	24129731	1472558004169	1472558004238	 	32
46424	506968	I'll send you a check.	I'll send you a check.	24129733	1472558004644	1472558004791	a	65
46424	506968	I'll send you a check.	I'll send you a check.	24129735	1472558005017	1472558005107	BKSP	8
46424	506968	I'll send you a check.	I'll send you a check.	24129738	1472558005404	1472558005504	y	89
46424	506968	I'll send you a check.	I'll send you a check.	24129740	1472558005598	1472558005762	o	79
46424	506968	I'll send you a check.	I'll send you a check.	24129771	1472558005692	1472558005793	u	85
46424	506968	I'll send you a check.	I'll send you a check.	24129772	1472558005934	1472558006001	 	32
46424	506968	I'll send you a check.	I'll send you a check.	24129773	1472558006001	1472558006136	a	65
46424	506968	I'll send you a check.	I'll send you a check.	24129774	1472558006183	1472558006281	 	32
46424	506968	I'll send you a check.	I'll send you a check.	24129775	1472558006344	1472558006451	c	67
46424	506968	I'll send you a check.	I'll send you a check.	24129776	1472558006567	1472558006672	h	72
46424	506968	I'll send you a check.	I'll send you a check.	24129828	1472558006757	1472558006842	e	69
46424	506968	I'll send you a check.	I'll send you a check.	24129831	1472558006980	1472558007108	c	67
46424	506968	I'll send you a check.	I'll send you a check.	24129834	1472558007124	1472558007203	k	75
46424	506968	I'll send you a check.	I'll send you a check.	24129836	1472558007460	1472558007540	.	190
46424	506979	The team mate says were not interested at this point.	The team mate says were not interested at this point.	24129987	1472558010318	1472558010873	SHIFT	16
46424	506979	The team mate says were not interested at this point.	The team mate says were not interested at this point.	24129983	1472558010752	1472558010873	T	84
46424	506979	The team mate says were not interested at this point.	The team mate says were not interested at this point.	24129990	1472558010943	1472558011029	h	72
46424	506979	The team mate says were not interested at this point.	The team mate says were not interested at this point.	24129993	1472558011045	1472558011170	e	69
46424	506979	The team mate says were not interested at this point.	The team mate says were not interested at this point.	24129996	1472558011217	1472558011288	 	32
46424	506979	The team mate says were not interested at this point.	The team mate says were not interested at this point.	24129998	1472558011382	1472558011532	t	84
46424	506979	The team mate says were not interested at this point.	The team mate says were not interested at this point.	24130008	1472558011477	1472558011596	e	69
46424	506979	The team mate says were not interested at this point.	The team mate says were not interested at this point.	24130012	1472558011658	1472558011777	a	65
46424	506979	The team mate says were not interested at this point.	The team mate says were not interested at this point.	24130016	1472558011739	1472558011843	m	77
46424	506979	The team mate says were not interested at this point.	The team mate says were not interested at this point.	24130018	1472558011952	1472558012020	 	32
46424	506979	The team mate says were not interested at this point.	The team mate says were not interested at this point.	24130019	1472558012083	1472558012206	m	77
46424	506979	The team mate says were not interested at this point.	The team mate says were not interested at this point.	24130030	1472558012158	1472558012302	a	65
46424	506979	The team mate says were not interested at this point.	The team mate says were not interested at this point.	24130033	1472558012386	1472558012543	t	84
46424	506979	The team mate says were not interested at this point.	The team mate says were not interested at this point.	24130035	1472558012462	1472558012612	e	69
46424	506979	The team mate says were not interested at this point.	The team mate says were not interested at this point.	24130036	1472558012628	1472558012744	 	32
46424	506979	The team mate says were not interested at this point.	The team mate says were not interested at this point.	24130039	1472558012765	1472558012934	s	83
46424	506979	The team mate says were not interested at this point.	The team mate says were not interested at this point.	24130169	1472558012847	1472558013001	a	65
46424	506979	The team mate says were not interested at this point.	The team mate says were not interested at this point.	24130173	1472558013032	1472558013129	y	89
46424	506979	The team mate says were not interested at this point.	The team mate says were not interested at this point.	24130176	1472558013176	1472558013298	d	68
46424	506979	The team mate says were not interested at this point.	The team mate says were not interested at this point.	24130179	1472558013617	1472558013686	 	32
46424	506979	The team mate says were not interested at this point.	The team mate says were not interested at this point.	24130181	1472558014552	1472558014661	BKSP	8
46424	506979	The team mate says were not interested at this point.	The team mate says were not interested at this point.	24130183	1472558014730	1472558014833	BKSP	8
46424	506979	The team mate says were not interested at this point.	The team mate says were not interested at this point.	24130185	1472558014864	1472558014999	s	83
46424	506979	The team mate says were not interested at this point.	The team mate says were not interested at this point.	24130188	1472558015405	1472558015504	 	32
46424	506979	The team mate says were not interested at this point.	The team mate says were not interested at this point.	24130209	1472558015730	1472558015864	w	87
46424	506979	The team mate says were not interested at this point.	The team mate says were not interested at this point.	24130213	1472558015880	1472558015997	e	69
46424	506979	The team mate says were not interested at this point.	The team mate says were not interested at this point.	24130217	1472558016106	1472558016302	r	82
46424	506979	The team mate says were not interested at this point.	The team mate says were not interested at this point.	24130221	1472558016200	1472558016369	e	69
46424	506979	The team mate says were not interested at this point.	The team mate says were not interested at this point.	24130293	1472558016317	1472558016411	 	32
46424	506979	The team mate says were not interested at this point.	The team mate says were not interested at this point.	24130297	1472558016543	1472558016660	n	78
46424	506979	The team mate says were not interested at this point.	The team mate says were not interested at this point.	24130301	1472558016691	1472558016840	t	84
46424	506979	The team mate says were not interested at this point.	The team mate says were not interested at this point.	24130304	1472558016855	1472558016945	 	32
46424	506979	The team mate says were not interested at this point.	The team mate says were not interested at this point.	24130308	1472558017258	1472558017340	BKSP	8
46424	506979	The team mate says were not interested at this point.	The team mate says were not interested at this point.	24130310	1472558017387	1472558017508	BKSP	8
46424	506979	The team mate says were not interested at this point.	The team mate says were not interested at this point.	24130312	1472558017671	1472558017778	o	79
46424	506979	The team mate says were not interested at this point.	The team mate says were not interested at this point.	24130314	1472558017809	1472558017911	t	84
46424	506979	The team mate says were not interested at this point.	The team mate says were not interested at this point.	24130329	1472558017948	1472558018071	 	32
46424	506979	The team mate says were not interested at this point.	The team mate says were not interested at this point.	24130332	1472558018173	1472558018310	i	73
46424	506979	The team mate says were not interested at this point.	The team mate says were not interested at this point.	24130336	1472558018234	1472558018359	n	78
46424	506979	The team mate says were not interested at this point.	The team mate says were not interested at this point.	24130340	1472558018383	1472558018440	t	84
46424	506979	The team mate says were not interested at this point.	The team mate says were not interested at this point.	24130343	1472558018581	1472558018791	r	82
46424	506979	The team mate says were not interested at this point.	The team mate says were not interested at this point.	24130376	1472558019069	1472558019163	BKSP	8
46424	506979	The team mate says were not interested at this point.	The team mate says were not interested at this point.	24130381	1472558019215	1472558019301	e	69
46424	506979	The team mate says were not interested at this point.	The team mate says were not interested at this point.	24130386	1472558019363	1472558019512	r	82
46424	506979	The team mate says were not interested at this point.	The team mate says were not interested at this point.	24130390	1472558019459	1472558019574	e	69
46424	506979	The team mate says were not interested at this point.	The team mate says were not interested at this point.	24130393	1472558019684	1472558019830	s	83
46424	506979	The team mate says were not interested at this point.	The team mate says were not interested at this point.	24130454	1472558019724	1472558019861	e	69
46424	506979	The team mate says were not interested at this point.	The team mate says were not interested at this point.	24130457	1472558019925	1472558020039	t	84
46424	506979	The team mate says were not interested at this point.	The team mate says were not interested at this point.	24130460	1472558020070	1472558020276	e	69
46424	506979	The team mate says were not interested at this point.	The team mate says were not interested at this point.	24130463	1472558020209	1472558020356	d	68
46424	506979	The team mate says were not interested at this point.	The team mate says were not interested at this point.	24130465	1472558020810	1472558020873	BKSP	8
46424	506979	The team mate says were not interested at this point.	The team mate says were not interested at this point.	24130468	1472558020935	1472558021040	BKSP	8
46424	506979	The team mate says were not interested at this point.	The team mate says were not interested at this point.	24130470	1472558021102	1472558021193	BKSP	8
46424	506979	The team mate says were not interested at this point.	The team mate says were not interested at this point.	24130472	1472558021256	1472558021354	BKSP	8
46424	506979	The team mate says were not interested at this point.	The team mate says were not interested at this point.	24130476	1472558021387	1472558021510	t	84
46424	506979	The team mate says were not interested at this point.	The team mate says were not interested at this point.	24130505	1472558021462	1472558021642	e	69
46424	506979	The team mate says were not interested at this point.	The team mate says were not interested at this point.	24130509	1472558021642	1472558021795	d	68
46424	506979	The team mate says were not interested at this point.	The team mate says were not interested at this point.	24130518	1472558021842	1472558021942	 	32
46424	506979	The team mate says were not interested at this point.	The team mate says were not interested at this point.	24130525	1472558022162	1472558022283	a	65
46424	506979	The team mate says were not interested at this point.	The team mate says were not interested at this point.	24130534	1472558022368	1472558022486	t	84
46424	506979	The team mate says were not interested at this point.	The team mate says were not interested at this point.	24130540	1472558022533	1472558022622	 	32
46424	506979	The team mate says were not interested at this point.	The team mate says were not interested at this point.	24130568	1472558022633	1472558022734	t	84
46424	506979	The team mate says were not interested at this point.	The team mate says were not interested at this point.	24130571	1472558022812	1472558022928	h	72
46424	506979	The team mate says were not interested at this point.	The team mate says were not interested at this point.	24130576	1472558022860	1472558022959	i	73
46424	506979	The team mate says were not interested at this point.	The team mate says were not interested at this point.	24130582	1472558022959	1472558023064	s	83
46424	506979	The team mate says were not interested at this point.	The team mate says were not interested at this point.	24130587	1472558023158	1472558023244	 	32
46424	506979	The team mate says were not interested at this point.	The team mate says were not interested at this point.	24130618	1472558023354	1472558023458	p	80
46424	506979	The team mate says were not interested at this point.	The team mate says were not interested at this point.	24130621	1472558023552	1472558023631	o	79
46424	506979	The team mate says were not interested at this point.	The team mate says were not interested at this point.	24130624	1472558023794	1472558024044	i	73
46424	506979	The team mate says were not interested at this point.	The team mate says were not interested at this point.	24130628	1472558023989	1472558024107	n	78
46424	506979	The team mate says were not interested at this point.	The team mate says were not interested at this point.	24130634	1472558024154	1472558024252	r	82
46424	506979	The team mate says were not interested at this point.	The team mate says were not interested at this point.	24130738	1472558024383	1472558024474	,	188
46424	506979	The team mate says were not interested at this point.	The team mate says were not interested at this point.	24130743	1472558024878	1472558024958	BKSP	8
46424	506979	The team mate says were not interested at this point.	The team mate says were not interested at this point.	24130748	1472558025052	1472558025142	BKSP	8
46424	506979	The team mate says were not interested at this point.	The team mate says were not interested at this point.	24130753	1472558025617	1472558025724	t	84
46424	506979	The team mate says were not interested at this point.	The team mate says were not interested at this point.	24130757	1472558026324	1472558026394	.	190
46424	507014	Estrada recently returned from Johannesburg.	Estrada recently returned from Johannesburg.	24131871	1472558047640	1472558048103	SHIFT	16
46424	507014	Estrada recently returned from Johannesburg.	Estrada recently returned from Johannesburg.	24131874	1472558048024	1472558048134	E	69
46424	507014	Estrada recently returned from Johannesburg.	Estrada recently returned from Johannesburg.	24131878	1472558048244	1472558048390	s	83
46424	507014	Estrada recently returned from Johannesburg.	Estrada recently returned from Johannesburg.	24131885	1472558048515	1472558048610	t	84
46424	507014	Estrada recently returned from Johannesburg.	Estrada recently returned from Johannesburg.	24131889	1472558048720	1472558048829	r	82
46424	507014	Estrada recently returned from Johannesburg.	Estrada recently returned from Johannesburg.	24131920	1472558048829	1472558048924	a	65
46424	507014	Estrada recently returned from Johannesburg.	Estrada recently returned from Johannesburg.	24131921	1472558049079	1472558049243	d	68
46424	507014	Estrada recently returned from Johannesburg.	Estrada recently returned from Johannesburg.	24131924	1472558049173	1472558049336	a	65
46424	507014	Estrada recently returned from Johannesburg.	Estrada recently returned from Johannesburg.	24131929	1472558049353	1472558049464	 	32
46424	507014	Estrada recently returned from Johannesburg.	Estrada recently returned from Johannesburg.	24131934	1472558049511	1472558049664	r	82
46424	507014	Estrada recently returned from Johannesburg.	Estrada recently returned from Johannesburg.	24131994	1472558049585	1472558049751	e	69
46424	507014	Estrada recently returned from Johannesburg.	Estrada recently returned from Johannesburg.	24131997	1472558049845	1472558050020	c	67
46424	507014	Estrada recently returned from Johannesburg.	Estrada recently returned from Johannesburg.	24131999	1472558049922	1472558050037	e	69
46424	507014	Estrada recently returned from Johannesburg.	Estrada recently returned from Johannesburg.	24132001	1472558050163	1472558050259	n	78
46424	507014	Estrada recently returned from Johannesburg.	Estrada recently returned from Johannesburg.	24132003	1472558050322	1472558050412	v	86
46424	507014	Estrada recently returned from Johannesburg.	Estrada recently returned from Johannesburg.	24132004	1472558050829	1472558050933	BKSP	8
46424	507014	Estrada recently returned from Johannesburg.	Estrada recently returned from Johannesburg.	24132006	1472558051200	1472558051280	y	89
46424	507014	Estrada recently returned from Johannesburg.	Estrada recently returned from Johannesburg.	24132082	1472558051791	1472558051855	BKSP	8
46424	507014	Estrada recently returned from Johannesburg.	Estrada recently returned from Johannesburg.	24132083	1472558052016	1472558052125	t	84
46424	507014	Estrada recently returned from Johannesburg.	Estrada recently returned from Johannesburg.	24132085	1472558052236	1472558052317	l	76
46424	507014	Estrada recently returned from Johannesburg.	Estrada recently returned from Johannesburg.	24132087	1472558052446	1472558052539	y	89
46424	507014	Estrada recently returned from Johannesburg.	Estrada recently returned from Johannesburg.	24132088	1472558052852	1472558052978	 	32
46424	507014	Estrada recently returned from Johannesburg.	Estrada recently returned from Johannesburg.	24132089	1472558053154	1472558053335	r	82
46424	507014	Estrada recently returned from Johannesburg.	Estrada recently returned from Johannesburg.	24132142	1472558053227	1472558053399	e	69
46424	507014	Estrada recently returned from Johannesburg.	Estrada recently returned from Johannesburg.	24132146	1472558053461	1472558053599	t	84
46424	507014	Estrada recently returned from Johannesburg.	Estrada recently returned from Johannesburg.	24132148	1472558053677	1472558053805	u	85
46424	507014	Estrada recently returned from Johannesburg.	Estrada recently returned from Johannesburg.	24132150	1472558054001	1472558054108	r	82
46424	507014	Estrada recently returned from Johannesburg.	Estrada recently returned from Johannesburg.	24132152	1472558054170	1472558054256	n	78
46424	507014	Estrada recently returned from Johannesburg.	Estrada recently returned from Johannesburg.	24132154	1472558054256	1472558054455	e	69
46424	507014	Estrada recently returned from Johannesburg.	Estrada recently returned from Johannesburg.	24132182	1472558054330	1472558054503	d	68
46424	507014	Estrada recently returned from Johannesburg.	Estrada recently returned from Johannesburg.	24132189	1472558054692	1472558054777	 	32
46424	507014	Estrada recently returned from Johannesburg.	Estrada recently returned from Johannesburg.	24132195	1472558055065	1472558055283	f	70
46424	507014	Estrada recently returned from Johannesburg.	Estrada recently returned from Johannesburg.	24132199	1472558055156	1472558055314	r	82
46424	507014	Estrada recently returned from Johannesburg.	Estrada recently returned from Johannesburg.	24132201	1472558055367	1472558055515	o	79
46424	507014	Estrada recently returned from Johannesburg.	Estrada recently returned from Johannesburg.	24132312	1472558055429	1472558055537	m	77
46424	507014	Estrada recently returned from Johannesburg.	Estrada recently returned from Johannesburg.	24132315	1472558055664	1472558055744	 	32
46424	507014	Estrada recently returned from Johannesburg.	Estrada recently returned from Johannesburg.	24132321	1472558055806	1472558056820	SHIFT	16
46424	507014	Estrada recently returned from Johannesburg.	Estrada recently returned from Johannesburg.	24132327	1472558056739	1472558056835	J	74
46424	507014	Estrada recently returned from Johannesburg.	Estrada recently returned from Johannesburg.	24132333	1472558056914	1472558057021	o	79
46424	507014	Estrada recently returned from Johannesburg.	Estrada recently returned from Johannesburg.	24132339	1472558057465	1472558057563	h	72
46424	507014	Estrada recently returned from Johannesburg.	Estrada recently returned from Johannesburg.	24132344	1472558057641	1472558057791	a	65
46424	507014	Estrada recently returned from Johannesburg.	Estrada recently returned from Johannesburg.	24132359	1472558057844	1472558057898	n	78
46424	507014	Estrada recently returned from Johannesburg.	Estrada recently returned from Johannesburg.	24132364	1472558057985	1472558058061	n	78
46424	507014	Estrada recently returned from Johannesburg.	Estrada recently returned from Johannesburg.	24132370	1472558058092	1472558058190	e	69
46424	507014	Estrada recently returned from Johannesburg.	Estrada recently returned from Johannesburg.	24132378	1472558058313	1472558058423	s	83
46424	507014	Estrada recently returned from Johannesburg.	Estrada recently returned from Johannesburg.	24132386	1472558058539	1472558058625	b	66
46424	507014	Estrada recently returned from Johannesburg.	Estrada recently returned from Johannesburg.	24132462	1472558058720	1472558058825	u	85
46424	507014	Estrada recently returned from Johannesburg.	Estrada recently returned from Johannesburg.	24132464	1472558058872	1472558058969	t	84
46424	507014	Estrada recently returned from Johannesburg.	Estrada recently returned from Johannesburg.	24132467	1472558059490	1472558059566	BKSP	8
46424	507014	Estrada recently returned from Johannesburg.	Estrada recently returned from Johannesburg.	24132470	1472558059870	1472558060001	r	82
46424	507014	Estrada recently returned from Johannesburg.	Estrada recently returned from Johannesburg.	24132475	1472558060001	1472558060088	g	71
46424	507014	Estrada recently returned from Johannesburg.	Estrada recently returned from Johannesburg.	24132479	1472558060345	1472558060421	.	190
