PARTICIPANT_ID	TEST_SECTION_ID	SENTENCE	USER_INPUT	KEYSTROKE_ID	PRESS_TIME	RELEASE_TIME	LETTER	KEYCODE
466102	5019793	I'm not planning on doing anything this week.	I'm not planning on doing anything this week	238279685	1478359858941	1478359859145	SHIFT	16
466102	5019793	I'm not planning on doing anything this week.	I'm not planning on doing anything this week	238279683	1478359859047	1478359859098	U	85
466102	5019793	I'm not planning on doing anything this week.	I'm not planning on doing anything this week	238279687	1478359859436	1478359859540	BKSP	8
466102	5019793	I'm not planning on doing anything this week.	I'm not planning on doing anything this week	238279693	1478359859556	1478359859765	SHIFT	16
466102	5019793	I'm not planning on doing anything this week.	I'm not planning on doing anything this week	238279689	1478359859658	1478359859747	I	73
466102	5019793	I'm not planning on doing anything this week.	I'm not planning on doing anything this week	238279697	1478359859844	1478359859925	'	222
466102	5019793	I'm not planning on doing anything this week.	I'm not planning on doing anything this week	238279701	1478359860000	1478359860070	m	77
466102	5019793	I'm not planning on doing anything this week.	I'm not planning on doing anything this week	238279704	1478359860167	1478359860227	 	32
466102	5019793	I'm not planning on doing anything this week.	I'm not planning on doing anything this week	238279707	1478359860315	1478359860401	n	78
466102	5019793	I'm not planning on doing anything this week.	I'm not planning on doing anything this week	238279708	1478359860409	1478359860510	o	79
466102	5019793	I'm not planning on doing anything this week.	I'm not planning on doing anything this week	238279709	1478359860493	1478359860585	t	84
466102	5019793	I'm not planning on doing anything this week.	I'm not planning on doing anything this week	238279711	1478359860560	1478359860635	 	32
466102	5019793	I'm not planning on doing anything this week.	I'm not planning on doing anything this week	238279715	1478359860693	1478359860834	p	80
466102	5019793	I'm not planning on doing anything this week.	I'm not planning on doing anything this week	238279723	1478359860752	1478359860879	l	76
466102	5019793	I'm not planning on doing anything this week.	I'm not planning on doing anything this week	238279725	1478359860831	1478359860952	a	65
466102	5019793	I'm not planning on doing anything this week.	I'm not planning on doing anything this week	238279727	1478359860980	1478359861038	n	78
466102	5019793	I'm not planning on doing anything this week.	I'm not planning on doing anything this week	238279729	1478359861108	1478359861170	n	78
466102	5019793	I'm not planning on doing anything this week.	I'm not planning on doing anything this week	238279731	1478359861219	1478359861332	i	73
466102	5019793	I'm not planning on doing anything this week.	I'm not planning on doing anything this week	238279732	1478359861280	1478359861357	n	78
466102	5019793	I'm not planning on doing anything this week.	I'm not planning on doing anything this week	238279739	1478359861346	1478359861430	g	71
466102	5019793	I'm not planning on doing anything this week.	I'm not planning on doing anything this week	238279740	1478359861450	1478359861502	 	32
466102	5019793	I'm not planning on doing anything this week.	I'm not planning on doing anything this week	238279741	1478359861544	1478359861653	o	79
466102	5019793	I'm not planning on doing anything this week.	I'm not planning on doing anything this week	238279742	1478359861614	1478359861671	n	78
466102	5019793	I'm not planning on doing anything this week.	I'm not planning on doing anything this week	238279743	1478359861758	1478359861858	 	32
466102	5019793	I'm not planning on doing anything this week.	I'm not planning on doing anything this week	238279748	1478359861831	1478359861941	d	68
466102	5019793	I'm not planning on doing anything this week.	I'm not planning on doing anything this week	238279750	1478359861964	1478359862079	o	79
466102	5019793	I'm not planning on doing anything this week.	I'm not planning on doing anything this week	238279752	1478359862028	1478359862101	i	73
466102	5019793	I'm not planning on doing anything this week.	I'm not planning on doing anything this week	238279754	1478359862185	1478359862260	g	78
466102	5019793	I'm not planning on doing anything this week.	I'm not planning on doing anything this week	238279756	1478359862344	1478359862416	 	32
466102	5019793	I'm not planning on doing anything this week.	I'm not planning on doing anything this week	238279768	1478359862388	1478359862521	a	65
466102	5019793	I'm not planning on doing anything this week.	I'm not planning on doing anything this week	238279769	1478359862506	1478359862572	n	78
466102	5019793	I'm not planning on doing anything this week.	I'm not planning on doing anything this week	238279770	1478359862635	1478359862726	y	89
466102	5019793	I'm not planning on doing anything this week.	I'm not planning on doing anything this week	238279771	1478359862736	1478359862832	t	84
466102	5019793	I'm not planning on doing anything this week.	I'm not planning on doing anything this week	238279773	1478359862795	1478359862896	h	72
466102	5019793	I'm not planning on doing anything this week.	I'm not planning on doing anything this week	238279779	1478359862880	1478359863007	i	73
466102	5019793	I'm not planning on doing anything this week.	I'm not planning on doing anything this week	238279781	1478359862976	1478359863036	n	78
466102	5019793	I'm not planning on doing anything this week.	I'm not planning on doing anything this week	238279783	1478359863004	1478359863086	g	71
466102	5019793	I'm not planning on doing anything this week.	I'm not planning on doing anything this week	238279785	1478359863114	1478359863192	 	32
466102	5019793	I'm not planning on doing anything this week.	I'm not planning on doing anything this week	238279787	1478359863231	1478359863347	t	84
466102	5019793	I'm not planning on doing anything this week.	I'm not planning on doing anything this week	238279792	1478359863314	1478359863423	h	72
466102	5019793	I'm not planning on doing anything this week.	I'm not planning on doing anything this week	238279793	1478359863379	1478359863488	i	73
466102	5019793	I'm not planning on doing anything this week.	I'm not planning on doing anything this week	238279794	1478359863462	1478359863553	s	83
466102	5019793	I'm not planning on doing anything this week.	I'm not planning on doing anything this week	238279796	1478359863558	1478359863649	 	32
466102	5019793	I'm not planning on doing anything this week.	I'm not planning on doing anything this week	238279798	1478359863671	1478359863754	w	87
466102	5019793	I'm not planning on doing anything this week.	I'm not planning on doing anything this week	238279808	1478359863715	1478359863800	e	69
466102	5019793	I'm not planning on doing anything this week.	I'm not planning on doing anything this week	238279810	1478359863859	1478359863953	e	69
466102	5019793	I'm not planning on doing anything this week.	I'm not planning on doing anything this week	238279812	1478359863965	1478359864067	k	75
466102	5019799	Please let me know.	Please let me know.	238279917	1478359866642	1478359866843	SHIFT	16
466102	5019799	Please let me know.	Please let me know.	238279920	1478359866747	1478359866891	P	80
466102	5019799	Please let me know.	Please let me know.	238279921	1478359866813	1478359866906	L	76
466102	5019799	Please let me know.	Please let me know.	238279923	1478359867013	1478359867106	a	65
466102	5019799	Please let me know.	Please let me know.	238279925	1478359867504	1478359867602	BKSP	8
466102	5019799	Please let me know.	Please let me know.	238279927	1478359867635	1478359867732	e	69
466102	5019799	Please let me know.	Please let me know.	238279952	1478359867721	1478359867861	a	65
466102	5019799	Please let me know.	Please let me know.	238279954	1478359867806	1478359867915	s	83
466102	5019799	Please let me know.	Please let me know.	238279956	1478359868015	1478359868085	BKSP	8
466102	5019799	Please let me know.	Please let me know.	238279957	1478359868146	1478359868220	BKSP	8
466102	5019799	Please let me know.	Please let me know.	238279958	1478359868298	1478359868371	BKSP	8
466102	5019799	Please let me know.	Please let me know.	238279959	1478359868530	1478359868594	BKSP	8
466102	5019799	Please let me know.	Please let me know.	238279960	1478359868705	1478359868787	l	76
466102	5019799	Please let me know.	Please let me know.	238279962	1478359868764	1478359868849	e	69
466102	5019799	Please let me know.	Please let me know.	238279964	1478359868841	1478359868954	a	65
466102	5019799	Please let me know.	Please let me know.	238279975	1478359868912	1478359869011	s	83
466102	5019799	Please let me know.	Please let me know.	238279977	1478359869101	1478359869207	e	69
466102	5019799	Please let me know.	Please let me know.	238279980	1478359869246	1478359869330	 	32
466102	5019799	Please let me know.	Please let me know.	238279981	1478359869389	1478359869476	l	76
466102	5019799	Please let me know.	Please let me know.	238279984	1478359869468	1478359869589	e	69
466102	5019799	Please let me know.	Please let me know.	238279995	1478359869563	1478359869673	t	84
466102	5019799	Please let me know.	Please let me know.	238279997	1478359869656	1478359869717	 	32
466102	5019799	Please let me know.	Please let me know.	238279999	1478359869821	1478359869877	m	77
466102	5019799	Please let me know.	Please let me know.	238280000	1478359869877	1478359869968	e	69
466102	5019799	Please let me know.	Please let me know.	238280002	1478359869995	1478359870036	 	32
466102	5019799	Please let me know.	Please let me know.	238280004	1478359870086	1478359870193	k	75
466102	5019799	Please let me know.	Please let me know.	238280040	1478359870169	1478359870210	n	78
466102	5019799	Please let me know.	Please let me know.	238280042	1478359870272	1478359870371	o	79
466102	5019799	Please let me know.	Please let me know.	238280043	1478359870387	1478359870463	w	87
466102	5019799	Please let me know.	Please let me know.	238280044	1478359870496	1478359870550	.	188
466102	5019799	Please let me know.	Please let me know.	238280045	1478359870933	1478359870986	BKSP	8
466102	5019799	Please let me know.	Please let me know.	238280046	1478359871233	1478359871335	BKSP	8
466102	5019799	Please let me know.	Please let me know.	238280047	1478359871521	1478359871600	.	190
466102	5019804	Need you or John to step out.	Need you or John to step out.	238280128	1478359873832	1478359873993	SHIFT	16
466102	5019804	Need you or John to step out.	Need you or John to step out.	238280129	1478359873939	1478359874025	N	78
466102	5019804	Need you or John to step out.	Need you or John to step out.	238280130	1478359874074	1478359874149	e	69
466102	5019804	Need you or John to step out.	Need you or John to step out.	238280131	1478359874213	1478359874336	d	68
466102	5019804	Need you or John to step out.	Need you or John to step out.	238280133	1478359874764	1478359874860	BKSP	8
466102	5019804	Need you or John to step out.	Need you or John to step out.	238280136	1478359874796	1478359874933	e	69
466102	5019804	Need you or John to step out.	Need you or John to step out.	238280153	1478359874893	1478359875018	d	68
466102	5019804	Need you or John to step out.	Need you or John to step out.	238280155	1478359874988	1478359875072	 	32
466102	5019804	Need you or John to step out.	Need you or John to step out.	238280156	1478359875112	1478359875208	y	89
466102	5019804	Need you or John to step out.	Need you or John to step out.	238280157	1478359875191	1478359875322	o	79
466102	5019804	Need you or John to step out.	Need you or John to step out.	238280158	1478359875254	1478359875342	u	85
466102	5019804	Need you or John to step out.	Need you or John to step out.	238280160	1478359875430	1478359875512	 	32
466102	5019804	Need you or John to step out.	Need you or John to step out.	238280177	1478359875547	1478359875633	o	79
466102	5019804	Need you or John to step out.	Need you or John to step out.	238280182	1478359875605	1478359875702	r	82
466102	5019804	Need you or John to step out.	Need you or John to step out.	238280187	1478359875688	1478359875759	 	32
466102	5019804	Need you or John to step out.	Need you or John to step out.	238280196	1478359875813	1478359875968	SHIFT	16
466102	5019804	Need you or John to step out.	Need you or John to step out.	238280192	1478359875855	1478359875935	J	74
466102	5019804	Need you or John to step out.	Need you or John to step out.	238280200	1478359876001	1478359876109	o	79
466102	5019804	Need you or John to step out.	Need you or John to step out.	238280207	1478359876156	1478359876266	h	72
466102	5019804	Need you or John to step out.	Need you or John to step out.	238280209	1478359876252	1478359876326	n	78
466102	5019804	Need you or John to step out.	Need you or John to step out.	238280211	1478359876416	1478359876501	 	32
466102	5019804	Need you or John to step out.	Need you or John to step out.	238280213	1478359876494	1478359876627	t	84
466102	5019804	Need you or John to step out.	Need you or John to step out.	238280215	1478359876547	1478359876641	o	79
466102	5019804	Need you or John to step out.	Need you or John to step out.	238280217	1478359876677	1478359876791	 	32
466102	5019804	Need you or John to step out.	Need you or John to step out.	238280219	1478359876962	1478359877040	s	83
466102	5019804	Need you or John to step out.	Need you or John to step out.	238280222	1478359877080	1478359877202	t	84
466102	5019804	Need you or John to step out.	Need you or John to step out.	238280225	1478359877170	1478359877268	e	69
466102	5019804	Need you or John to step out.	Need you or John to step out.	238280238	1478359877232	1478359877322	p	80
466102	5019804	Need you or John to step out.	Need you or John to step out.	238280241	1478359877382	1478359877460	 	32
466102	5019804	Need you or John to step out.	Need you or John to step out.	238280243	1478359877528	1478359877652	o	79
466102	5019804	Need you or John to step out.	Need you or John to step out.	238280244	1478359877598	1478359877687	u	85
466102	5019804	Need you or John to step out.	Need you or John to step out.	238280245	1478359877685	1478359877764	t	84
466102	5019804	Need you or John to step out.	Need you or John to step out.	238280248	1478359877789	1478359877880	.	190
466102	5019810	Give it some time.	Give it some time.	238280369	1478359880980	1478359881212	SHIFT	16
466102	5019810	Give it some time.	Give it some time.	238280372	1478359881570	1478359881772	SHIFT	16
466102	5019810	Give it some time.	Give it some time.	238280376	1478359881684	1478359881790	G	71
466102	5019810	Give it some time.	Give it some time.	238280381	1478359881858	1478359881949	i	73
466102	5019810	Give it some time.	Give it some time.	238280385	1478359881949	1478359882046	v	86
466102	5019810	Give it some time.	Give it some time.	238280390	1478359882022	1478359882121	e	69
466102	5019810	Give it some time.	Give it some time.	238280394	1478359882093	1478359882177	 	32
466102	5019810	Give it some time.	Give it some time.	238280398	1478359882196	1478359882283	i	73
466102	5019810	Give it some time.	Give it some time.	238280404	1478359882311	1478359882403	t	84
466102	5019810	Give it some time.	Give it some time.	238280410	1478359882371	1478359882484	 	32
466102	5019810	Give it some time.	Give it some time.	238280420	1478359882486	1478359882573	s	83
466102	5019810	Give it some time.	Give it some time.	238280434	1478359882536	1478359882665	o	79
466102	5019810	Give it some time.	Give it some time.	238280436	1478359882618	1478359882666	m	77
466102	5019810	Give it some time.	Give it some time.	238280437	1478359882652	1478359882765	e	69
466102	5019810	Give it some time.	Give it some time.	238280439	1478359882794	1478359882892	 	32
466102	5019810	Give it some time.	Give it some time.	238280440	1478359882972	1478359883063	t	84
466102	5019810	Give it some time.	Give it some time.	238280442	1478359883090	1478359883207	i	73
466102	5019810	Give it some time.	Give it some time.	238280457	1478359883133	1478359883243	m	77
466102	5019810	Give it some time.	Give it some time.	238280460	1478359883208	1478359883288	e	69
466102	5019810	Give it some time.	Give it some time.	238280464	1478359883753	1478359883822	.	190
466102	5019814	Rookie Kevin Swayne will move into the starting lineup.	Rookie Kevin Swayne will move into the starting lineup.	238280538	1478359886532	1478359886731	SHIFT	16
466102	5019814	Rookie Kevin Swayne will move into the starting lineup.	Rookie Kevin Swayne will move into the starting lineup.	238280541	1478359886639	1478359886760	R	82
466102	5019814	Rookie Kevin Swayne will move into the starting lineup.	Rookie Kevin Swayne will move into the starting lineup.	238280542	1478359886740	1478359886803	o	79
466102	5019814	Rookie Kevin Swayne will move into the starting lineup.	Rookie Kevin Swayne will move into the starting lineup.	238280543	1478359886884	1478359886968	o	79
466102	5019814	Rookie Kevin Swayne will move into the starting lineup.	Rookie Kevin Swayne will move into the starting lineup.	238280544	1478359886983	1478359887065	k	75
466102	5019814	Rookie Kevin Swayne will move into the starting lineup.	Rookie Kevin Swayne will move into the starting lineup.	238280545	1478359887125	1478359887216	i	73
466102	5019814	Rookie Kevin Swayne will move into the starting lineup.	Rookie Kevin Swayne will move into the starting lineup.	238280556	1478359887244	1478359887337	e	69
466102	5019814	Rookie Kevin Swayne will move into the starting lineup.	Rookie Kevin Swayne will move into the starting lineup.	238280557	1478359887325	1478359887434	 	32
466102	5019814	Rookie Kevin Swayne will move into the starting lineup.	Rookie Kevin Swayne will move into the starting lineup.	238280559	1478359887490	1478359887652	SHIFT	16
466102	5019814	Rookie Kevin Swayne will move into the starting lineup.	Rookie Kevin Swayne will move into the starting lineup.	238280561	1478359887561	1478359887658	K	75
466102	5019814	Rookie Kevin Swayne will move into the starting lineup.	Rookie Kevin Swayne will move into the starting lineup.	238280563	1478359887723	1478359887801	e	69
466102	5019814	Rookie Kevin Swayne will move into the starting lineup.	Rookie Kevin Swayne will move into the starting lineup.	238280565	1478359887857	1478359887955	v	86
466102	5019814	Rookie Kevin Swayne will move into the starting lineup.	Rookie Kevin Swayne will move into the starting lineup.	238280569	1478359887923	1478359888011	i	73
466102	5019814	Rookie Kevin Swayne will move into the starting lineup.	Rookie Kevin Swayne will move into the starting lineup.	238280570	1478359887958	1478359888020	n	78
466102	5019814	Rookie Kevin Swayne will move into the starting lineup.	Rookie Kevin Swayne will move into the starting lineup.	238280571	1478359888126	1478359888222	 	32
466102	5019814	Rookie Kevin Swayne will move into the starting lineup.	Rookie Kevin Swayne will move into the starting lineup.	238280572	1478359888162	1478359888315	SHIFT	16
466102	5019814	Rookie Kevin Swayne will move into the starting lineup.	Rookie Kevin Swayne will move into the starting lineup.	238280573	1478359888226	1478359888336	S	83
466102	5019814	Rookie Kevin Swayne will move into the starting lineup.	Rookie Kevin Swayne will move into the starting lineup.	238280574	1478359888435	1478359888507	w	87
466102	5019814	Rookie Kevin Swayne will move into the starting lineup.	Rookie Kevin Swayne will move into the starting lineup.	238280575	1478359888634	1478359888756	a	65
466102	5019814	Rookie Kevin Swayne will move into the starting lineup.	Rookie Kevin Swayne will move into the starting lineup.	238280585	1478359888749	1478359888841	y	89
466102	5019814	Rookie Kevin Swayne will move into the starting lineup.	Rookie Kevin Swayne will move into the starting lineup.	238280591	1478359888925	1478359889010	n	78
466102	5019814	Rookie Kevin Swayne will move into the starting lineup.	Rookie Kevin Swayne will move into the starting lineup.	238280595	1478359889016	1478359889089	e	69
466102	5019814	Rookie Kevin Swayne will move into the starting lineup.	Rookie Kevin Swayne will move into the starting lineup.	238280600	1478359889120	1478359889211	 	32
466102	5019814	Rookie Kevin Swayne will move into the starting lineup.	Rookie Kevin Swayne will move into the starting lineup.	238280602	1478359889220	1478359889287	w	87
466102	5019814	Rookie Kevin Swayne will move into the starting lineup.	Rookie Kevin Swayne will move into the starting lineup.	238280608	1478359889279	1478359889358	i	73
466102	5019814	Rookie Kevin Swayne will move into the starting lineup.	Rookie Kevin Swayne will move into the starting lineup.	238280610	1478359889461	1478359889510	l	76
466102	5019814	Rookie Kevin Swayne will move into the starting lineup.	Rookie Kevin Swayne will move into the starting lineup.	238280612	1478359889586	1478359889659	l	76
466102	5019814	Rookie Kevin Swayne will move into the starting lineup.	Rookie Kevin Swayne will move into the starting lineup.	238280614	1478359889710	1478359889757	 	32
466102	5019814	Rookie Kevin Swayne will move into the starting lineup.	Rookie Kevin Swayne will move into the starting lineup.	238280616	1478359889825	1478359889916	m	77
466102	5019814	Rookie Kevin Swayne will move into the starting lineup.	Rookie Kevin Swayne will move into the starting lineup.	238280628	1478359889893	1478359890025	o	79
466102	5019814	Rookie Kevin Swayne will move into the starting lineup.	Rookie Kevin Swayne will move into the starting lineup.	238280630	1478359889985	1478359890096	v	86
466102	5019814	Rookie Kevin Swayne will move into the starting lineup.	Rookie Kevin Swayne will move into the starting lineup.	238280633	1478359890025	1478359890171	e	69
466102	5019814	Rookie Kevin Swayne will move into the starting lineup.	Rookie Kevin Swayne will move into the starting lineup.	238280635	1478359890133	1478359890227	 	32
466102	5019814	Rookie Kevin Swayne will move into the starting lineup.	Rookie Kevin Swayne will move into the starting lineup.	238280637	1478359890304	1478359890404	i	73
466102	5019814	Rookie Kevin Swayne will move into the starting lineup.	Rookie Kevin Swayne will move into the starting lineup.	238280651	1478359890345	1478359890440	n	78
466102	5019814	Rookie Kevin Swayne will move into the starting lineup.	Rookie Kevin Swayne will move into the starting lineup.	238280653	1478359890506	1478359890607	t	84
466102	5019814	Rookie Kevin Swayne will move into the starting lineup.	Rookie Kevin Swayne will move into the starting lineup.	238280655	1478359890602	1478359890694	o	79
466102	5019814	Rookie Kevin Swayne will move into the starting lineup.	Rookie Kevin Swayne will move into the starting lineup.	238280657	1478359890742	1478359890833	 	32
466102	5019814	Rookie Kevin Swayne will move into the starting lineup.	Rookie Kevin Swayne will move into the starting lineup.	238280660	1478359890824	1478359890922	t	84
466102	5019814	Rookie Kevin Swayne will move into the starting lineup.	Rookie Kevin Swayne will move into the starting lineup.	238280664	1478359890940	1478359891031	h	72
466102	5019814	Rookie Kevin Swayne will move into the starting lineup.	Rookie Kevin Swayne will move into the starting lineup.	238280710	1478359891053	1478359891177	e	69
466102	5019814	Rookie Kevin Swayne will move into the starting lineup.	Rookie Kevin Swayne will move into the starting lineup.	238280712	1478359891775	1478359891863	 	32
466102	5019814	Rookie Kevin Swayne will move into the starting lineup.	Rookie Kevin Swayne will move into the starting lineup.	238280715	1478359891993	1478359892090	s	83
466102	5019814	Rookie Kevin Swayne will move into the starting lineup.	Rookie Kevin Swayne will move into the starting lineup.	238280717	1478359892159	1478359892296	t	84
466102	5019814	Rookie Kevin Swayne will move into the starting lineup.	Rookie Kevin Swayne will move into the starting lineup.	238280751	1478359892281	1478359892349	r	82
466102	5019814	Rookie Kevin Swayne will move into the starting lineup.	Rookie Kevin Swayne will move into the starting lineup.	238280753	1478359892587	1478359892708	a	65
466102	5019814	Rookie Kevin Swayne will move into the starting lineup.	Rookie Kevin Swayne will move into the starting lineup.	238280755	1478359892832	1478359892903	BKSP	8
466102	5019814	Rookie Kevin Swayne will move into the starting lineup.	Rookie Kevin Swayne will move into the starting lineup.	238280757	1478359892957	1478359893066	BKSP	8
466102	5019814	Rookie Kevin Swayne will move into the starting lineup.	Rookie Kevin Swayne will move into the starting lineup.	238280758	1478359893013	1478359893135	a	65
466102	5019814	Rookie Kevin Swayne will move into the starting lineup.	Rookie Kevin Swayne will move into the starting lineup.	238280759	1478359893305	1478359893377	r	82
466102	5019814	Rookie Kevin Swayne will move into the starting lineup.	Rookie Kevin Swayne will move into the starting lineup.	238280760	1478359893470	1478359893560	t	84
466102	5019814	Rookie Kevin Swayne will move into the starting lineup.	Rookie Kevin Swayne will move into the starting lineup.	238280762	1478359893598	1478359893700	i	73
466102	5019814	Rookie Kevin Swayne will move into the starting lineup.	Rookie Kevin Swayne will move into the starting lineup.	238280781	1478359893653	1478359893753	n	78
466102	5019814	Rookie Kevin Swayne will move into the starting lineup.	Rookie Kevin Swayne will move into the starting lineup.	238280782	1478359893751	1478359893849	g	71
466102	5019814	Rookie Kevin Swayne will move into the starting lineup.	Rookie Kevin Swayne will move into the starting lineup.	238280784	1478359893866	1478359894007	 	32
466102	5019814	Rookie Kevin Swayne will move into the starting lineup.	Rookie Kevin Swayne will move into the starting lineup.	238280785	1478359894242	1478359894322	l	76
466102	5019814	Rookie Kevin Swayne will move into the starting lineup.	Rookie Kevin Swayne will move into the starting lineup.	238280786	1478359894403	1478359894492	i	73
466102	5019814	Rookie Kevin Swayne will move into the starting lineup.	Rookie Kevin Swayne will move into the starting lineup.	238280803	1478359894430	1478359894565	n	78
466102	5019814	Rookie Kevin Swayne will move into the starting lineup.	Rookie Kevin Swayne will move into the starting lineup.	238280804	1478359894561	1478359894645	e	69
466102	5019814	Rookie Kevin Swayne will move into the starting lineup.	Rookie Kevin Swayne will move into the starting lineup.	238280805	1478359894688	1478359894794	u	85
466102	5019814	Rookie Kevin Swayne will move into the starting lineup.	Rookie Kevin Swayne will move into the starting lineup.	238280807	1478359894832	1478359894925	p	80
466102	5019814	Rookie Kevin Swayne will move into the starting lineup.	Rookie Kevin Swayne will move into the starting lineup.	238280809	1478359894985	1478359895064	.	190
466102	5019821	If it needs to be paid, we will need to add the day to the deal.	If it needs to be paid, we will need to add the day to the deal	238280898	1478359897785	1478359898104	SHIFT	16
466102	5019821	If it needs to be paid, we will need to add the day to the deal.	If it needs to be paid, we will need to add the day to the deal	238280896	1478359897936	1478359897984	I	73
466102	5019821	If it needs to be paid, we will need to add the day to the deal.	If it needs to be paid, we will need to add the day to the deal	238280902	1478359898170	1478359898232	f	70
466102	5019821	If it needs to be paid, we will need to add the day to the deal.	If it needs to be paid, we will need to add the day to the deal	238280905	1478359898331	1478359898456	 	32
466102	5019821	If it needs to be paid, we will need to add the day to the deal.	If it needs to be paid, we will need to add the day to the deal	238280908	1478359898474	1478359898571	i	73
466102	5019821	If it needs to be paid, we will need to add the day to the deal.	If it needs to be paid, we will need to add the day to the deal	238280910	1478359898615	1478359898726	t	84
466102	5019821	If it needs to be paid, we will need to add the day to the deal.	If it needs to be paid, we will need to add the day to the deal	238280915	1478359898691	1478359898775	 	32
466102	5019821	If it needs to be paid, we will need to add the day to the deal.	If it needs to be paid, we will need to add the day to the deal	238280916	1478359898845	1478359898934	n	78
466102	5019821	If it needs to be paid, we will need to add the day to the deal.	If it needs to be paid, we will need to add the day to the deal	238280917	1478359898897	1478359898974	e	69
466102	5019821	If it needs to be paid, we will need to add the day to the deal.	If it needs to be paid, we will need to add the day to the deal	238280918	1478359899064	1478359899146	e	69
466102	5019821	If it needs to be paid, we will need to add the day to the deal.	If it needs to be paid, we will need to add the day to the deal	238280919	1478359899184	1478359899377	d	68
466102	5019821	If it needs to be paid, we will need to add the day to the deal.	If it needs to be paid, we will need to add the day to the deal	238280928	1478359899305	1478359899382	s	83
466102	5019821	If it needs to be paid, we will need to add the day to the deal.	If it needs to be paid, we will need to add the day to the deal	238280930	1478359899341	1478359899446	 	32
466102	5019821	If it needs to be paid, we will need to add the day to the deal.	If it needs to be paid, we will need to add the day to the deal	238280932	1478359899481	1478359899568	t	84
466102	5019821	If it needs to be paid, we will need to add the day to the deal.	If it needs to be paid, we will need to add the day to the deal	238280934	1478359899523	1478359899600	o	79
466102	5019821	If it needs to be paid, we will need to add the day to the deal.	If it needs to be paid, we will need to add the day to the deal	238280937	1478359899658	1478359899725	 	32
466102	5019821	If it needs to be paid, we will need to add the day to the deal.	If it needs to be paid, we will need to add the day to the deal	238280941	1478359899784	1478359899876	b	66
466102	5019821	If it needs to be paid, we will need to add the day to the deal.	If it needs to be paid, we will need to add the day to the deal	238280953	1478359899868	1478359899946	e	69
466102	5019821	If it needs to be paid, we will need to add the day to the deal.	If it needs to be paid, we will need to add the day to the deal	238280955	1478359899954	1478359900036	 	32
466102	5019821	If it needs to be paid, we will need to add the day to the deal.	If it needs to be paid, we will need to add the day to the deal	238280956	1478359900102	1478359900187	p	80
466102	5019821	If it needs to be paid, we will need to add the day to the deal.	If it needs to be paid, we will need to add the day to the deal	238280958	1478359900189	1478359900295	a	65
466102	5019821	If it needs to be paid, we will need to add the day to the deal.	If it needs to be paid, we will need to add the day to the deal	238280959	1478359900301	1478359900386	i	73
466102	5019821	If it needs to be paid, we will need to add the day to the deal.	If it needs to be paid, we will need to add the day to the deal	238280962	1478359900394	1478359900496	d	68
466102	5019821	If it needs to be paid, we will need to add the day to the deal.	If it needs to be paid, we will need to add the day to the deal	238280986	1478359900837	1478359900913	,	188
466102	5019821	If it needs to be paid, we will need to add the day to the deal.	If it needs to be paid, we will need to add the day to the deal	238280989	1478359901017	1478359901097	 	32
466102	5019821	If it needs to be paid, we will need to add the day to the deal.	If it needs to be paid, we will need to add the day to the deal	238280994	1478359901089	1478359901211	w	87
466102	5019821	If it needs to be paid, we will need to add the day to the deal.	If it needs to be paid, we will need to add the day to the deal	238280998	1478359901152	1478359901251	e	69
466102	5019821	If it needs to be paid, we will need to add the day to the deal.	If it needs to be paid, we will need to add the day to the deal	238281002	1478359901282	1478359901368	 	32
466102	5019821	If it needs to be paid, we will need to add the day to the deal.	If it needs to be paid, we will need to add the day to the deal	238281020	1478359901488	1478359901587	w	87
466102	5019821	If it needs to be paid, we will need to add the day to the deal.	If it needs to be paid, we will need to add the day to the deal	238281022	1478359901592	1478359901667	i	73
466102	5019821	If it needs to be paid, we will need to add the day to the deal.	If it needs to be paid, we will need to add the day to the deal	238281023	1478359901785	1478359901850	l	76
466102	5019821	If it needs to be paid, we will need to add the day to the deal.	If it needs to be paid, we will need to add the day to the deal	238281024	1478359901927	1478359902016	l	76
466102	5019821	If it needs to be paid, we will need to add the day to the deal.	If it needs to be paid, we will need to add the day to the deal	238281025	1478359902083	1478359902133	 	32
466102	5019821	If it needs to be paid, we will need to add the day to the deal.	If it needs to be paid, we will need to add the day to the deal	238281032	1478359902225	1478359902295	n	78
466102	5019821	If it needs to be paid, we will need to add the day to the deal.	If it needs to be paid, we will need to add the day to the deal	238281034	1478359902251	1478359902388	e	69
466102	5019821	If it needs to be paid, we will need to add the day to the deal.	If it needs to be paid, we will need to add the day to the deal	238281036	1478359902327	1478359902453	d	68
466102	5019821	If it needs to be paid, we will need to add the day to the deal.	If it needs to be paid, we will need to add the day to the deal	238281038	1478359902427	1478359902531	 	32
466102	5019821	If it needs to be paid, we will need to add the day to the deal.	If it needs to be paid, we will need to add the day to the deal	238281040	1478359902556	1478359902651	t	84
466102	5019821	If it needs to be paid, we will need to add the day to the deal.	If it needs to be paid, we will need to add the day to the deal	238281065	1478359902655	1478359902739	o	79
466102	5019821	If it needs to be paid, we will need to add the day to the deal.	If it needs to be paid, we will need to add the day to the deal	238281066	1478359902816	1478359902906	 	32
466102	5019821	If it needs to be paid, we will need to add the day to the deal.	If it needs to be paid, we will need to add the day to the deal	238281067	1478359902915	1478359903038	a	65
466102	5019821	If it needs to be paid, we will need to add the day to the deal.	If it needs to be paid, we will need to add the day to the deal	238281068	1478359902999	1478359903066	d	68
466102	5019821	If it needs to be paid, we will need to add the day to the deal.	If it needs to be paid, we will need to add the day to the deal	238281070	1478359903159	1478359903239	d	68
466102	5019821	If it needs to be paid, we will need to add the day to the deal.	If it needs to be paid, we will need to add the day to the deal	238281119	1478359903316	1478359903400	 	32
466102	5019821	If it needs to be paid, we will need to add the day to the deal.	If it needs to be paid, we will need to add the day to the deal	238281122	1478359903554	1478359903617	BKSP	8
466102	5019821	If it needs to be paid, we will need to add the day to the deal.	If it needs to be paid, we will need to add the day to the deal	238281125	1478359903676	1478359903744	BKSP	8
466102	5019821	If it needs to be paid, we will need to add the day to the deal.	If it needs to be paid, we will need to add the day to the deal	238281129	1478359903832	1478359903894	BKSP	8
466102	5019821	If it needs to be paid, we will need to add the day to the deal.	If it needs to be paid, we will need to add the day to the deal	238281133	1478359903957	1478359904035	BKSP	8
466102	5019821	If it needs to be paid, we will need to add the day to the deal.	If it needs to be paid, we will need to add the day to the deal	238281134	1478359904100	1478359904178	BKSP	8
466102	5019821	If it needs to be paid, we will need to add the day to the deal.	If it needs to be paid, we will need to add the day to the deal	238281136	1478359904242	1478359904317	BKSP	8
466102	5019821	If it needs to be paid, we will need to add the day to the deal.	If it needs to be paid, we will need to add the day to the deal	238281138	1478359904382	1478359904460	BKSP	8
466102	5019821	If it needs to be paid, we will need to add the day to the deal.	If it needs to be paid, we will need to add the day to the deal	238281141	1478359904530	1478359904601	BKSP	8
466102	5019821	If it needs to be paid, we will need to add the day to the deal.	If it needs to be paid, we will need to add the day to the deal	238281145	1478359904673	1478359904754	BKSP	8
466102	5019821	If it needs to be paid, we will need to add the day to the deal.	If it needs to be paid, we will need to add the day to the deal	238281148	1478359904865	1478359904921	e	69
466102	5019821	If it needs to be paid, we will need to add the day to the deal.	If it needs to be paid, we will need to add the day to the deal	238281151	1478359905185	1478359905354	d	68
466102	5019821	If it needs to be paid, we will need to add the day to the deal.	If it needs to be paid, we will need to add the day to the deal	238281154	1478359905327	1478359905447	 	32
466102	5019821	If it needs to be paid, we will need to add the day to the deal.	If it needs to be paid, we will need to add the day to the deal	238281159	1478359905440	1478359905564	a	65
466102	5019821	If it needs to be paid, we will need to add the day to the deal.	If it needs to be paid, we will need to add the day to the deal	238281161	1478359905521	1478359905593	t	84
466102	5019821	If it needs to be paid, we will need to add the day to the deal.	If it needs to be paid, we will need to add the day to the deal	238281162	1478359905617	1478359905717	 	32
466102	5019821	If it needs to be paid, we will need to add the day to the deal.	If it needs to be paid, we will need to add the day to the deal	238281163	1478359905820	1478359905927	a	65
466102	5019821	If it needs to be paid, we will need to add the day to the deal.	If it needs to be paid, we will need to add the day to the deal	238281166	1478359905956	1478359906036	d	68
466102	5019821	If it needs to be paid, we will need to add the day to the deal.	If it needs to be paid, we will need to add the day to the deal	238281167	1478359906111	1478359906206	d	68
466102	5019821	If it needs to be paid, we will need to add the day to the deal.	If it needs to be paid, we will need to add the day to the deal	238281193	1478359906341	1478359906403	BKSP	8
466102	5019821	If it needs to be paid, we will need to add the day to the deal.	If it needs to be paid, we will need to add the day to the deal	238281196	1478359906467	1478359906543	BKSP	8
466102	5019821	If it needs to be paid, we will need to add the day to the deal.	If it needs to be paid, we will need to add the day to the deal	238281200	1478359906620	1478359906693	BKSP	8
466102	5019821	If it needs to be paid, we will need to add the day to the deal.	If it needs to be paid, we will need to add the day to the deal	238281204	1478359906757	1478359906846	BKSP	8
466102	5019821	If it needs to be paid, we will need to add the day to the deal.	If it needs to be paid, we will need to add the day to the deal	238281208	1478359906911	1478359906986	BKSP	8
466102	5019821	If it needs to be paid, we will need to add the day to the deal.	If it needs to be paid, we will need to add the day to the deal	238281212	1478359907043	1478359907134	BKSP	8
466102	5019821	If it needs to be paid, we will need to add the day to the deal.	If it needs to be paid, we will need to add the day to the deal	238281214	1478359907157	1478359907255	t	84
466102	5019821	If it needs to be paid, we will need to add the day to the deal.	If it needs to be paid, we will need to add the day to the deal	238281216	1478359907241	1478359907329	o	79
466102	5019821	If it needs to be paid, we will need to add the day to the deal.	If it needs to be paid, we will need to add the day to the deal	238281218	1478359907363	1478359907473	 	32
466102	5019821	If it needs to be paid, we will need to add the day to the deal.	If it needs to be paid, we will need to add the day to the deal	238281220	1478359907445	1478359907580	a	65
466102	5019821	If it needs to be paid, we will need to add the day to the deal.	If it needs to be paid, we will need to add the day to the deal	238281217	1478359907503	1478359907582	d	68
466102	5019821	If it needs to be paid, we will need to add the day to the deal.	If it needs to be paid, we will need to add the day to the deal	238281219	1478359907648	1478359907748	d	68
466102	5019821	If it needs to be paid, we will need to add the day to the deal.	If it needs to be paid, we will need to add the day to the deal	238281221	1478359907771	1478359907834	 	32
466102	5019821	If it needs to be paid, we will need to add the day to the deal.	If it needs to be paid, we will need to add the day to the deal	238281223	1478359907843	1478359907907	t	84
466102	5019821	If it needs to be paid, we will need to add the day to the deal.	If it needs to be paid, we will need to add the day to the deal	238281226	1478359907945	1478359908025	h	72
466102	5019821	If it needs to be paid, we will need to add the day to the deal.	If it needs to be paid, we will need to add the day to the deal	238281242	1478359908016	1478359908108	e	69
466102	5019821	If it needs to be paid, we will need to add the day to the deal.	If it needs to be paid, we will need to add the day to the deal	238281243	1478359908108	1478359908203	 	32
466102	5019821	If it needs to be paid, we will need to add the day to the deal.	If it needs to be paid, we will need to add the day to the deal	238281244	1478359908205	1478359908320	d	68
466102	5019821	If it needs to be paid, we will need to add the day to the deal.	If it needs to be paid, we will need to add the day to the deal	238281246	1478359908267	1478359908395	a	65
466102	5019821	If it needs to be paid, we will need to add the day to the deal.	If it needs to be paid, we will need to add the day to the deal	238281249	1478359908315	1478359908409	y	89
466102	5019821	If it needs to be paid, we will need to add the day to the deal.	If it needs to be paid, we will need to add the day to the deal	238281252	1478359908494	1478359908583	 	32
466102	5019821	If it needs to be paid, we will need to add the day to the deal.	If it needs to be paid, we will need to add the day to the deal	238281322	1478359908668	1478359908764	o	79
466102	5019821	If it needs to be paid, we will need to add the day to the deal.	If it needs to be paid, we will need to add the day to the deal	238281325	1478359909009	1478359909088	BKSP	8
466102	5019821	If it needs to be paid, we will need to add the day to the deal.	If it needs to be paid, we will need to add the day to the deal	238281330	1478359909724	1478359909824	t	84
466102	5019821	If it needs to be paid, we will need to add the day to the deal.	If it needs to be paid, we will need to add the day to the deal	238281334	1478359909805	1478359909895	o	79
466102	5019821	If it needs to be paid, we will need to add the day to the deal.	If it needs to be paid, we will need to add the day to the deal	238281338	1478359909941	1478359910043	 	32
466102	5019821	If it needs to be paid, we will need to add the day to the deal.	If it needs to be paid, we will need to add the day to the deal	238281341	1478359910109	1478359910205	t	84
466102	5019821	If it needs to be paid, we will need to add the day to the deal.	If it needs to be paid, we will need to add the day to the deal	238281345	1478359910187	1478359910276	h	72
466102	5019821	If it needs to be paid, we will need to add the day to the deal.	If it needs to be paid, we will need to add the day to the deal	238281347	1478359910262	1478359910364	e	69
466102	5019821	If it needs to be paid, we will need to add the day to the deal.	If it needs to be paid, we will need to add the day to the deal	238281351	1478359910365	1478359910455	 	32
466102	5019821	If it needs to be paid, we will need to add the day to the deal.	If it needs to be paid, we will need to add the day to the deal	238281354	1478359910461	1478359910591	d	68
466102	5019821	If it needs to be paid, we will need to add the day to the deal.	If it needs to be paid, we will need to add the day to the deal	238281358	1478359910532	1478359910671	e	69
466102	5019821	If it needs to be paid, we will need to add the day to the deal.	If it needs to be paid, we will need to add the day to the deal	238281374	1478359910638	1478359910727	a	65
466102	5019821	If it needs to be paid, we will need to add the day to the deal.	If it needs to be paid, we will need to add the day to the deal	238281378	1478359910683	1478359910780	l	76
466102	5019832	We need to talk about this month.	We need to talk about this month.	238281504	1478359913878	1478359914170	SHIFT	16
466102	5019832	We need to talk about this month.	We need to talk about this month.	238281507	1478359914058	1478359914206	W	87
466102	5019832	We need to talk about this month.	We need to talk about this month.	238281510	1478359914186	1478359914340	e	69
466102	5019832	We need to talk about this month.	We need to talk about this month.	238281513	1478359914418	1478359914475	 	32
466102	5019832	We need to talk about this month.	We need to talk about this month.	238281514	1478359914582	1478359914661	n	78
466102	5019832	We need to talk about this month.	We need to talk about this month.	238281526	1478359914640	1478359914705	e	69
466102	5019832	We need to talk about this month.	We need to talk about this month.	238281528	1478359914793	1478359914903	e	69
466102	5019832	We need to talk about this month.	We need to talk about this month.	238281530	1478359914835	1478359914962	d	68
466102	5019832	We need to talk about this month.	We need to talk about this month.	238281533	1478359914955	1478359915048	 	32
466102	5019832	We need to talk about this month.	We need to talk about this month.	238281536	1478359915048	1478359915122	t	84
466102	5019832	We need to talk about this month.	We need to talk about this month.	238281538	1478359915122	1478359915212	o	79
466102	5019832	We need to talk about this month.	We need to talk about this month.	238281541	1478359915249	1478359915393	t	84
466102	5019832	We need to talk about this month.	We need to talk about this month.	238281540	1478359915269	1478359915357	 	32
466102	5019832	We need to talk about this month.	We need to talk about this month.	238281543	1478359915363	1478359915506	a	65
466102	5019832	We need to talk about this month.	We need to talk about this month.	238281602	1478359915457	1478359915556	l	76
466102	5019832	We need to talk about this month.	We need to talk about this month.	238281604	1478359915490	1478359915584	k	75
466102	5019832	We need to talk about this month.	We need to talk about this month.	238281605	1478359915687	1478359915743	 	32
466102	5019832	We need to talk about this month.	We need to talk about this month.	238281606	1478359915736	1478359915847	a	65
466102	5019832	We need to talk about this month.	We need to talk about this month.	238281607	1478359915841	1478359915917	b	66
466102	5019832	We need to talk about this month.	We need to talk about this month.	238281608	1478359916092	1478359916287	BKSP	8
466102	5019832	We need to talk about this month.	We need to talk about this month.	238281609	1478359916366	1478359916437	BKSP	8
466102	5019832	We need to talk about this month.	We need to talk about this month.	238281610	1478359916502	1478359916581	BKSP	8
466102	5019832	We need to talk about this month.	We need to talk about this month.	238281611	1478359916634	1478359916721	BKSP	8
466102	5019832	We need to talk about this month.	We need to talk about this month.	238281613	1478359916797	1478359916853	BKSP	8
466102	5019832	We need to talk about this month.	We need to talk about this month.	238281615	1478359916926	1478359916995	BKSP	8
466102	5019832	We need to talk about this month.	We need to talk about this month.	238281617	1478359917071	1478359917142	BKSP	8
466102	5019832	We need to talk about this month.	We need to talk about this month.	238281619	1478359917215	1478359917322	BKSP	8
466102	5019832	We need to talk about this month.	We need to talk about this month.	238281621	1478359917409	1478359917496	 	32
466102	5019832	We need to talk about this month.	We need to talk about this month.	238281626	1478359917493	1478359917594	t	84
466102	5019832	We need to talk about this month.	We need to talk about this month.	238281628	1478359917541	1478359917663	a	65
466102	5019832	We need to talk about this month.	We need to talk about this month.	238281633	1478359917611	1478359917746	l	76
466102	5019832	We need to talk about this month.	We need to talk about this month.	238281635	1478359917657	1478359917764	k	75
466102	5019832	We need to talk about this month.	We need to talk about this month.	238281637	1478359917843	1478359917925	 	32
466102	5019832	We need to talk about this month.	We need to talk about this month.	238281638	1478359917967	1478359918072	a	65
466102	5019832	We need to talk about this month.	We need to talk about this month.	238281641	1478359918022	1478359918094	b	66
466102	5019832	We need to talk about this month.	We need to talk about this month.	238281643	1478359918146	1478359918276	o	79
466102	5019832	We need to talk about this month.	We need to talk about this month.	238281647	1478359918212	1478359918288	u	85
466102	5019832	We need to talk about this month.	We need to talk about this month.	238281650	1478359918282	1478359918358	t	84
466102	5019832	We need to talk about this month.	We need to talk about this month.	238281654	1478359918417	1478359918459	t	32
466102	5019832	We need to talk about this month.	We need to talk about this month.	238281661	1478359918565	1478359918644	h	72
466102	5019832	We need to talk about this month.	We need to talk about this month.	238281664	1478359918637	1478359918732	i	73
466102	5019832	We need to talk about this month.	We need to talk about this month.	238281667	1478359918691	1478359918789	s	83
466102	5019832	We need to talk about this month.	We need to talk about this month.	238281670	1478359918774	1478359918845	 	32
466102	5019832	We need to talk about this month.	We need to talk about this month.	238281672	1478359918915	1478359919002	m	77
466102	5019832	We need to talk about this month.	We need to talk about this month.	238281685	1478359919048	1478359919193	o	79
466102	5019832	We need to talk about this month.	We need to talk about this month.	238281687	1478359919145	1478359919234	n	78
466102	5019832	We need to talk about this month.	We need to talk about this month.	238281690	1478359919239	1478359919334	t	84
466102	5019832	We need to talk about this month.	We need to talk about this month.	238281693	1478359919346	1478359919395	h	72
466102	5019832	We need to talk about this month.	We need to talk about this month.	238281695	1478359919513	1478359919592	.	190
466102	5019842	Davis was listed as questionable on the weekly injury report.	Davis was listed as questionable on the weekly injury report.	238281809	1478359921882	1478359922137	SHIFT	16
466102	5019842	Davis was listed as questionable on the weekly injury report.	Davis was listed as questionable on the weekly injury report.	238281812	1478359922068	1478359922191	D	68
466102	5019842	Davis was listed as questionable on the weekly injury report.	Davis was listed as questionable on the weekly injury report.	238281815	1478359922264	1478359922395	a	65
466102	5019842	Davis was listed as questionable on the weekly injury report.	Davis was listed as questionable on the weekly injury report.	238281819	1478359922387	1478359922475	v	86
466102	5019842	Davis was listed as questionable on the weekly injury report.	Davis was listed as questionable on the weekly injury report.	238281821	1478359922512	1478359922634	i	73
466102	5019842	Davis was listed as questionable on the weekly injury report.	Davis was listed as questionable on the weekly injury report.	238281839	1478359922629	1478359922719	s	83
466102	5019842	Davis was listed as questionable on the weekly injury report.	Davis was listed as questionable on the weekly injury report.	238281843	1478359922727	1478359922821	 	32
466102	5019842	Davis was listed as questionable on the weekly injury report.	Davis was listed as questionable on the weekly injury report.	238281846	1478359922853	1478359922972	w	87
466102	5019842	Davis was listed as questionable on the weekly injury report.	Davis was listed as questionable on the weekly injury report.	238281848	1478359922944	1478359923112	a	65
466102	5019842	Davis was listed as questionable on the weekly injury report.	Davis was listed as questionable on the weekly injury report.	238281855	1478359923040	1478359923151	s	83
466102	5019842	Davis was listed as questionable on the weekly injury report.	Davis was listed as questionable on the weekly injury report.	238281860	1478359923100	1478359923176	 	32
466102	5019842	Davis was listed as questionable on the weekly injury report.	Davis was listed as questionable on the weekly injury report.	238281863	1478359923233	1478359923299	l	76
466102	5019842	Davis was listed as questionable on the weekly injury report.	Davis was listed as questionable on the weekly injury report.	238281866	1478359923364	1478359923454	i	73
466102	5019842	Davis was listed as questionable on the weekly injury report.	Davis was listed as questionable on the weekly injury report.	238281867	1478359923411	1478359923526	s	83
466102	5019842	Davis was listed as questionable on the weekly injury report.	Davis was listed as questionable on the weekly injury report.	238281870	1478359923518	1478359923683	t	84
466102	5019842	Davis was listed as questionable on the weekly injury report.	Davis was listed as questionable on the weekly injury report.	238281923	1478359923617	1478359923733	e	69
466102	5019842	Davis was listed as questionable on the weekly injury report.	Davis was listed as questionable on the weekly injury report.	238281926	1478359923712	1478359923839	n	78
466102	5019842	Davis was listed as questionable on the weekly injury report.	Davis was listed as questionable on the weekly injury report.	238281928	1478359924265	1478359924326	BKSP	8
466102	5019842	Davis was listed as questionable on the weekly injury report.	Davis was listed as questionable on the weekly injury report.	238281931	1478359924406	1478359924468	BKSP	8
466102	5019842	Davis was listed as questionable on the weekly injury report.	Davis was listed as questionable on the weekly injury report.	238281934	1478359924869	1478359924954	e	69
466102	5019842	Davis was listed as questionable on the weekly injury report.	Davis was listed as questionable on the weekly injury report.	238281937	1478359924990	1478359925127	d	68
466102	5019842	Davis was listed as questionable on the weekly injury report.	Davis was listed as questionable on the weekly injury report.	238281941	1478359925117	1478359925217	 	32
466102	5019842	Davis was listed as questionable on the weekly injury report.	Davis was listed as questionable on the weekly injury report.	238281945	1478359925234	1478359925382	a	65
466102	5019842	Davis was listed as questionable on the weekly injury report.	Davis was listed as questionable on the weekly injury report.	238281962	1478359925352	1478359925473	s	83
466102	5019842	Davis was listed as questionable on the weekly injury report.	Davis was listed as questionable on the weekly injury report.	238281965	1478359925458	1478359925551	 	32
466102	5019842	Davis was listed as questionable on the weekly injury report.	Davis was listed as questionable on the weekly injury report.	238281967	1478359925661	1478359925754	q	81
466102	5019842	Davis was listed as questionable on the weekly injury report.	Davis was listed as questionable on the weekly injury report.	238281970	1478359925758	1478359925858	u	85
466102	5019842	Davis was listed as questionable on the weekly injury report.	Davis was listed as questionable on the weekly injury report.	238281973	1478359925826	1478359925908	e	69
466102	5019842	Davis was listed as questionable on the weekly injury report.	Davis was listed as questionable on the weekly injury report.	238281974	1478359925982	1478359926067	s	83
466102	5019842	Davis was listed as questionable on the weekly injury report.	Davis was listed as questionable on the weekly injury report.	238281982	1478359926107	1478359926194	i	84
466102	5019842	Davis was listed as questionable on the weekly injury report.	Davis was listed as questionable on the weekly injury report.	238281986	1478359926183	1478359926293	o	79
466102	5019842	Davis was listed as questionable on the weekly injury report.	Davis was listed as questionable on the weekly injury report.	238281988	1478359926331	1478359926421	n	78
466102	5019842	Davis was listed as questionable on the weekly injury report.	Davis was listed as questionable on the weekly injury report.	238281991	1478359926441	1478359926566	a	65
466102	5019842	Davis was listed as questionable on the weekly injury report.	Davis was listed as questionable on the weekly injury report.	238282023	1478359926997	1478359927084	b	66
466102	5019842	Davis was listed as questionable on the weekly injury report.	Davis was listed as questionable on the weekly injury report.	238282024	1478359927165	1478359927261	l	76
466102	5019842	Davis was listed as questionable on the weekly injury report.	Davis was listed as questionable on the weekly injury report.	238282025	1478359927254	1478359927353	e	69
466102	5019842	Davis was listed as questionable on the weekly injury report.	Davis was listed as questionable on the weekly injury report.	238282027	1478359927341	1478359927410	 	32
466102	5019842	Davis was listed as questionable on the weekly injury report.	Davis was listed as questionable on the weekly injury report.	238282054	1478359927472	1478359927586	o	79
466102	5019842	Davis was listed as questionable on the weekly injury report.	Davis was listed as questionable on the weekly injury report.	238282029	1478359927538	1478359927581	n	78
466102	5019842	Davis was listed as questionable on the weekly injury report.	Davis was listed as questionable on the weekly injury report.	238282058	1478359927682	1478359927766	 	32
466102	5019842	Davis was listed as questionable on the weekly injury report.	Davis was listed as questionable on the weekly injury report.	238282060	1478359927815	1478359927908	t	84
466102	5019842	Davis was listed as questionable on the weekly injury report.	Davis was listed as questionable on the weekly injury report.	238282062	1478359927887	1478359927986	h	72
466102	5019842	Davis was listed as questionable on the weekly injury report.	Davis was listed as questionable on the weekly injury report.	238282065	1478359927990	1478359928088	e	69
466102	5019842	Davis was listed as questionable on the weekly injury report.	Davis was listed as questionable on the weekly injury report.	238282067	1478359928088	1478359928186	 	32
466102	5019842	Davis was listed as questionable on the weekly injury report.	Davis was listed as questionable on the weekly injury report.	238282083	1478359928233	1478359928339	w	87
466102	5019842	Davis was listed as questionable on the weekly injury report.	Davis was listed as questionable on the weekly injury report.	238282084	1478359928290	1478359928363	e	69
466102	5019842	Davis was listed as questionable on the weekly injury report.	Davis was listed as questionable on the weekly injury report.	238282085	1478359928378	1478359928475	e	69
466102	5019842	Davis was listed as questionable on the weekly injury report.	Davis was listed as questionable on the weekly injury report.	238282086	1478359928567	1478359928686	k	75
466102	5019842	Davis was listed as questionable on the weekly injury report.	Davis was listed as questionable on the weekly injury report.	238282087	1478359928708	1478359928825	l	76
466102	5019842	Davis was listed as questionable on the weekly injury report.	Davis was listed as questionable on the weekly injury report.	238282120	1478359928813	1478359928937	y	89
466102	5019842	Davis was listed as questionable on the weekly injury report.	Davis was listed as questionable on the weekly injury report.	238282122	1478359929163	1478359929273	 	32
466102	5019842	Davis was listed as questionable on the weekly injury report.	Davis was listed as questionable on the weekly injury report.	238282127	1478359929346	1478359929482	i	73
466102	5019842	Davis was listed as questionable on the weekly injury report.	Davis was listed as questionable on the weekly injury report.	238282130	1478359929415	1478359929517	n	78
466102	5019842	Davis was listed as questionable on the weekly injury report.	Davis was listed as questionable on the weekly injury report.	238282132	1478359929626	1478359929786	j	74
466102	5019842	Davis was listed as questionable on the weekly injury report.	Davis was listed as questionable on the weekly injury report.	238282147	1478359929751	1478359929855	u	85
466102	5019842	Davis was listed as questionable on the weekly injury report.	Davis was listed as questionable on the weekly injury report.	238282148	1478359929864	1478359929994	r	82
466102	5019842	Davis was listed as questionable on the weekly injury report.	Davis was listed as questionable on the weekly injury report.	238282149	1478359930034	1478359930134	y	89
466102	5019842	Davis was listed as questionable on the weekly injury report.	Davis was listed as questionable on the weekly injury report.	238282151	1478359930213	1478359930322	 	32
466102	5019842	Davis was listed as questionable on the weekly injury report.	Davis was listed as questionable on the weekly injury report.	238282154	1478359930427	1478359930590	r	82
466102	5019842	Davis was listed as questionable on the weekly injury report.	Davis was listed as questionable on the weekly injury report.	238282162	1478359930516	1478359930642	e	69
466102	5019842	Davis was listed as questionable on the weekly injury report.	Davis was listed as questionable on the weekly injury report.	238282163	1478359930595	1478359930702	p	80
466102	5019842	Davis was listed as questionable on the weekly injury report.	Davis was listed as questionable on the weekly injury report.	238282164	1478359930635	1478359930758	o	79
466102	5019842	Davis was listed as questionable on the weekly injury report.	Davis was listed as questionable on the weekly injury report.	238282165	1478359930727	1478359930813	r	82
466102	5019842	Davis was listed as questionable on the weekly injury report.	Davis was listed as questionable on the weekly injury report.	238282166	1478359930878	1478359930969	t	84
466102	5019842	Davis was listed as questionable on the weekly injury report.	Davis was listed as questionable on the weekly injury report.	238282168	1478359931010	1478359931100	.	190
466102	5019852	Let me know if you can't open it.	Let me know if you can't open it.	238282275	1478359933347	1478359933532	SHIFT	16
466102	5019852	Let me know if you can't open it.	Let me know if you can't open it.	238282278	1478359933461	1478359933587	L	76
466102	5019852	Let me know if you can't open it.	Let me know if you can't open it.	238282283	1478359933673	1478359933796	e	69
466102	5019852	Let me know if you can't open it.	Let me know if you can't open it.	238282287	1478359933761	1478359933892	t	84
466102	5019852	Let me know if you can't open it.	Let me know if you can't open it.	238282291	1478359933807	1478359933892	 	32
466102	5019852	Let me know if you can't open it.	Let me know if you can't open it.	238282293	1478359933987	1478359934056	m	77
466102	5019852	Let me know if you can't open it.	Let me know if you can't open it.	238282294	1478359934064	1478359934162	e	69
466102	5019852	Let me know if you can't open it.	Let me know if you can't open it.	238282295	1478359934149	1478359934212	 	32
466102	5019852	Let me know if you can't open it.	Let me know if you can't open it.	238282296	1478359934268	1478359934366	k	75
466102	5019852	Let me know if you can't open it.	Let me know if you can't open it.	238282297	1478359934325	1478359934398	n	78
466102	5019852	Let me know if you can't open it.	Let me know if you can't open it.	238282298	1478359934462	1478359934538	o	79
466102	5019852	Let me know if you can't open it.	Let me know if you can't open it.	238282311	1478359934529	1478359934664	w	87
466102	5019852	Let me know if you can't open it.	Let me know if you can't open it.	238282312	1478359934631	1478359934698	 	32
466102	5019852	Let me know if you can't open it.	Let me know if you can't open it.	238282313	1478359934714	1478359934801	i	73
466102	5019852	Let me know if you can't open it.	Let me know if you can't open it.	238282314	1478359934821	1478359934931	f	70
466102	5019852	Let me know if you can't open it.	Let me know if you can't open it.	238282315	1478359934881	1478359934969	 	32
466102	5019852	Let me know if you can't open it.	Let me know if you can't open it.	238282316	1478359935023	1478359935122	y	89
466102	5019852	Let me know if you can't open it.	Let me know if you can't open it.	238282331	1478359935101	1478359935206	o	79
466102	5019852	Let me know if you can't open it.	Let me know if you can't open it.	238282333	1478359935141	1478359935234	u	85
466102	5019852	Let me know if you can't open it.	Let me know if you can't open it.	238282335	1478359935481	1478359935567	 	32
466102	5019852	Let me know if you can't open it.	Let me know if you can't open it.	238282336	1478359935612	1478359935679	c	67
466102	5019852	Let me know if you can't open it.	Let me know if you can't open it.	238282356	1478359935669	1478359935782	n	65
466102	5019852	Let me know if you can't open it.	Let me know if you can't open it.	238282357	1478359935874	1478359935963	'	222
466102	5019852	Let me know if you can't open it.	Let me know if you can't open it.	238282358	1478359936011	1478359936104	t	84
466102	5019852	Let me know if you can't open it.	Let me know if you can't open it.	238282359	1478359936082	1478359936173	 	32
466102	5019852	Let me know if you can't open it.	Let me know if you can't open it.	238282360	1478359936617	1478359936741	o	79
466102	5019852	Let me know if you can't open it.	Let me know if you can't open it.	238282372	1478359936711	1478359936808	p	80
466102	5019852	Let me know if you can't open it.	Let me know if you can't open it.	238282374	1478359936791	1478359936884	e	69
466102	5019852	Let me know if you can't open it.	Let me know if you can't open it.	238282376	1478359936899	1478359936971	n	78
466102	5019852	Let me know if you can't open it.	Let me know if you can't open it.	238282378	1478359937050	1478359937133	 	32
466102	5019852	Let me know if you can't open it.	Let me know if you can't open it.	238282380	1478359937165	1478359937277	i	73
466102	5019852	Let me know if you can't open it.	Let me know if you can't open it.	238282382	1478359937262	1478359937355	t	84
466102	5019852	Let me know if you can't open it.	Let me know if you can't open it.	238282385	1478359937406	1478359937498	.	190
466102	5019857	This is a golden moment.	This is a golden moment.	238282453	1478359940018	1478359940244	SHIFT	16
466102	5019857	This is a golden moment.	This is a golden moment.	238282455	1478359940158	1478359940304	T	84
466102	5019857	This is a golden moment.	This is a golden moment.	238282457	1478359940254	1478359940356	h	72
466102	5019857	This is a golden moment.	This is a golden moment.	238282459	1478359940339	1478359940438	i	73
466102	5019857	This is a golden moment.	This is a golden moment.	238282460	1478359940451	1478359940542	s	83
466102	5019857	This is a golden moment.	This is a golden moment.	238282475	1478359940486	1478359940554	 	32
466102	5019857	This is a golden moment.	This is a golden moment.	238282476	1478359940894	1478359940989	i	73
466102	5019857	This is a golden moment.	This is a golden moment.	238282478	1478359941013	1478359941107	s	83
466102	5019857	This is a golden moment.	This is a golden moment.	238282480	1478359941121	1478359941220	 	32
466102	5019857	This is a golden moment.	This is a golden moment.	238282483	1478359941256	1478359941374	a	65
466102	5019857	This is a golden moment.	This is a golden moment.	238282494	1478359941362	1478359941466	 	32
466102	5019857	This is a golden moment.	This is a golden moment.	238282496	1478359941472	1478359941552	g	71
466102	5019857	This is a golden moment.	This is a golden moment.	238282498	1478359941525	1478359941602	o	79
466102	5019857	This is a golden moment.	This is a golden moment.	238282500	1478359941684	1478359941777	l	76
466102	5019857	This is a golden moment.	This is a golden moment.	238282501	1478359941739	1478359941865	d	68
466102	5019857	This is a golden moment.	This is a golden moment.	238282522	1478359941810	1478359941928	e	69
466102	5019857	This is a golden moment.	This is a golden moment.	238282525	1478359941873	1478359941943	n	78
466102	5019857	This is a golden moment.	This is a golden moment.	238282528	1478359942034	1478359942088	 	32
466102	5019857	This is a golden moment.	This is a golden moment.	238282535	1478359942177	1478359942260	m	77
466102	5019857	This is a golden moment.	This is a golden moment.	238282539	1478359942244	1478359942397	o	79
466102	5019857	This is a golden moment.	This is a golden moment.	238282571	1478359942355	1478359942434	m	77
466102	5019857	This is a golden moment.	This is a golden moment.	238282573	1478359942482	1478359942542	e	69
466102	5019857	This is a golden moment.	This is a golden moment.	238282576	1478359942774	1478359942831	n	78
466102	5019857	This is a golden moment.	This is a golden moment.	238282578	1478359942995	1478359943083	t	84
466102	5019857	This is a golden moment.	This is a golden moment.	238282580	1478359943100	1478359943189	.	190
466102	5019859	I'm glad you are involved!	I'm glad you are involved!	238282672	1478359945699	1478359945913	SHIFT	16
466102	5019859	I'm glad you are involved!	I'm glad you are involved!	238282670	1478359945786	1478359945873	I	73
466102	5019859	I'm glad you are involved!	I'm glad you are involved!	238282673	1478359946001	1478359946092	'	222
466102	5019859	I'm glad you are involved!	I'm glad you are involved!	238282674	1478359946154	1478359946224	,	188
466102	5019859	I'm glad you are involved!	I'm glad you are involved!	238282675	1478359946335	1478359946407	 	32
466102	5019859	I'm glad you are involved!	I'm glad you are involved!	238282676	1478359946651	1478359946709	BKSP	8
466102	5019859	I'm glad you are involved!	I'm glad you are involved!	238282677	1478359946774	1478359946841	BKSP	8
466102	5019859	I'm glad you are involved!	I'm glad you are involved!	238282678	1478359946918	1478359946973	m	77
466102	5019859	I'm glad you are involved!	I'm glad you are involved!	238282679	1478359947047	1478359947133	 	32
466102	5019859	I'm glad you are involved!	I'm glad you are involved!	238282680	1478359947119	1478359947212	g	71
466102	5019859	I'm glad you are involved!	I'm glad you are involved!	238282681	1478359947193	1478359947289	l	76
466102	5019859	I'm glad you are involved!	I'm glad you are involved!	238282682	1478359947267	1478359947405	a	65
466102	5019859	I'm glad you are involved!	I'm glad you are involved!	238282685	1478359947368	1478359947503	d	68
466102	5019859	I'm glad you are involved!	I'm glad you are involved!	238282687	1478359947478	1478359947574	 	32
466102	5019859	I'm glad you are involved!	I'm glad you are involved!	238282690	1478359947625	1478359947689	y	89
466102	5019859	I'm glad you are involved!	I'm glad you are involved!	238282696	1478359947701	1478359947808	o	79
466102	5019859	I'm glad you are involved!	I'm glad you are involved!	238282701	1478359947746	1478359947814	u	85
466102	5019859	I'm glad you are involved!	I'm glad you are involved!	238282704	1478359947908	1478359947996	n	78
466102	5019859	I'm glad you are involved!	I'm glad you are involved!	238282722	1478359947972	1478359948106	a	65
466102	5019859	I'm glad you are involved!	I'm glad you are involved!	238282724	1478359948221	1478359948281	BKSP	8
466102	5019859	I'm glad you are involved!	I'm glad you are involved!	238282727	1478359948334	1478359948409	BKSP	8
466102	5019859	I'm glad you are involved!	I'm glad you are involved!	238282730	1478359948485	1478359948552	 	32
466102	5019859	I'm glad you are involved!	I'm glad you are involved!	238282734	1478359948542	1478359948668	a	65
466102	5019859	I'm glad you are involved!	I'm glad you are involved!	238282738	1478359948593	1478359948726	r	82
466102	5019859	I'm glad you are involved!	I'm glad you are involved!	238282746	1478359948647	1478359948783	e	69
466102	5019859	I'm glad you are involved!	I'm glad you are involved!	238282744	1478359948693	1478359948781	 	32
466102	5019859	I'm glad you are involved!	I'm glad you are involved!	238282748	1478359948829	1478359948939	i	73
466102	5019859	I'm glad you are involved!	I'm glad you are involved!	238282750	1478359948896	1478359948984	n	78
466102	5019859	I'm glad you are involved!	I'm glad you are involved!	238282751	1478359948959	1478359949056	v	86
466102	5019859	I'm glad you are involved!	I'm glad you are involved!	238282752	1478359949064	1478359949151	l	76
466102	5019859	I'm glad you are involved!	I'm glad you are involved!	238282753	1478359949275	1478359949391	o	79
466102	5019859	I'm glad you are involved!	I'm glad you are involved!	238282785	1478359949532	1478359949584	BKSP	8
466102	5019859	I'm glad you are involved!	I'm glad you are involved!	238282788	1478359949648	1478359949722	BKSP	8
466102	5019859	I'm glad you are involved!	I'm glad you are involved!	238282791	1478359949797	1478359949839	o	79
466102	5019859	I'm glad you are involved!	I'm glad you are involved!	238282794	1478359950076	1478359950170	l	76
466102	5019859	I'm glad you are involved!	I'm glad you are involved!	238282796	1478359950210	1478359950324	v	86
466102	5019859	I'm glad you are involved!	I'm glad you are involved!	238282797	1478359950317	1478359950487	e	69
466102	5019859	I'm glad you are involved!	I'm glad you are involved!	238282810	1478359950442	1478359950581	d	68
466102	5019859	I'm glad you are involved!	I'm glad you are involved!	238282813	1478359950727	1478359950881	SHIFT	16
466102	5019866	OK I thought it was in Washington state.	OK I thought it was in Washington state.	238282935	1478359953292	1478359953953	SHIFT	16
466102	5019866	OK I thought it was in Washington state.	OK I thought it was in Washington state.	238282929	1478359953493	1478359953603	O	79
466102	5019866	OK I thought it was in Washington state.	OK I thought it was in Washington state.	238282931	1478359953664	1478359953760	K	75
466102	5019866	OK I thought it was in Washington state.	OK I thought it was in Washington state.	238282933	1478359953852	1478359953941	 	32
466102	5019866	OK I thought it was in Washington state.	OK I thought it was in Washington state.	238282937	1478359954417	1478359954494	i	73
466102	5019866	OK I thought it was in Washington state.	OK I thought it was in Washington state.	238282938	1478359954673	1478359954744	BKSP	8
466102	5019866	OK I thought it was in Washington state.	OK I thought it was in Washington state.	238282939	1478359954742	1478359954906	SHIFT	16
466102	5019866	OK I thought it was in Washington state.	OK I thought it was in Washington state.	238282943	1478359954842	1478359954908	I	73
466102	5019866	OK I thought it was in Washington state.	OK I thought it was in Washington state.	238282945	1478359954976	1478359955053	 	32
466102	5019866	OK I thought it was in Washington state.	OK I thought it was in Washington state.	238282947	1478359955083	1478359955157	t	84
466102	5019866	OK I thought it was in Washington state.	OK I thought it was in Washington state.	238282949	1478359955143	1478359955218	h	72
466102	5019866	OK I thought it was in Washington state.	OK I thought it was in Washington state.	238282950	1478359955259	1478359955396	o	79
466102	5019866	OK I thought it was in Washington state.	OK I thought it was in Washington state.	238282964	1478359955350	1478359955405	u	85
466102	5019866	OK I thought it was in Washington state.	OK I thought it was in Washington state.	238282967	1478359955460	1478359955570	g	71
466102	5019866	OK I thought it was in Washington state.	OK I thought it was in Washington state.	238282969	1478359955516	1478359955578	h	72
466102	5019866	OK I thought it was in Washington state.	OK I thought it was in Washington state.	238282971	1478359955649	1478359955748	t	84
466102	5019866	OK I thought it was in Washington state.	OK I thought it was in Washington state.	238282973	1478359955682	1478359955761	 	32
466102	5019866	OK I thought it was in Washington state.	OK I thought it was in Washington state.	238282975	1478359955813	1478359955904	i	73
466102	5019866	OK I thought it was in Washington state.	OK I thought it was in Washington state.	238283009	1478359956148	1478359956245	t	84
466102	5019866	OK I thought it was in Washington state.	OK I thought it was in Washington state.	238283011	1478359956359	1478359956452	 	32
466102	5019866	OK I thought it was in Washington state.	OK I thought it was in Washington state.	238283014	1478359956424	1478359956545	w	87
466102	5019866	OK I thought it was in Washington state.	OK I thought it was in Washington state.	238283017	1478359956501	1478359956683	a	65
466102	5019866	OK I thought it was in Washington state.	OK I thought it was in Washington state.	238283033	1478359956617	1478359956725	s	83
466102	5019866	OK I thought it was in Washington state.	OK I thought it was in Washington state.	238283035	1478359956671	1478359956753	 	32
466102	5019866	OK I thought it was in Washington state.	OK I thought it was in Washington state.	238283037	1478359956796	1478359956907	i	73
466102	5019866	OK I thought it was in Washington state.	OK I thought it was in Washington state.	238283039	1478359957057	1478359957113	 	32
466102	5019866	OK I thought it was in Washington state.	OK I thought it was in Washington state.	238283041	1478359957363	1478359957452	BKSP	8
466102	5019866	OK I thought it was in Washington state.	OK I thought it was in Washington state.	238283043	1478359957522	1478359957581	n	78
466102	5019866	OK I thought it was in Washington state.	OK I thought it was in Washington state.	238283045	1478359957613	1478359957753	SHIFT	16
466102	5019866	OK I thought it was in Washington state.	OK I thought it was in Washington state.	238283047	1478359957664	1478359957758	 	32
466102	5019866	OK I thought it was in Washington state.	OK I thought it was in Washington state.	238283049	1478359957817	1478359957941	w	87
466102	5019866	OK I thought it was in Washington state.	OK I thought it was in Washington state.	238283074	1478359957916	1478359958091	a	65
466102	5019866	OK I thought it was in Washington state.	OK I thought it was in Washington state.	238283075	1478359958022	1478359958146	s	83
466102	5019866	OK I thought it was in Washington state.	OK I thought it was in Washington state.	238283076	1478359958123	1478359958213	h	72
466102	5019866	OK I thought it was in Washington state.	OK I thought it was in Washington state.	238283077	1478359958222	1478359958341	i	73
466102	5019866	OK I thought it was in Washington state.	OK I thought it was in Washington state.	238283078	1478359958510	1478359958570	BKSP	8
466102	5019866	OK I thought it was in Washington state.	OK I thought it was in Washington state.	238283079	1478359958639	1478359958715	BKSP	8
466102	5019866	OK I thought it was in Washington state.	OK I thought it was in Washington state.	238283080	1478359958792	1478359958848	BKSP	8
466102	5019866	OK I thought it was in Washington state.	OK I thought it was in Washington state.	238283081	1478359958916	1478359959004	BKSP	8
466102	5019866	OK I thought it was in Washington state.	OK I thought it was in Washington state.	238283085	1478359959045	1478359959606	SHIFT	16
466102	5019866	OK I thought it was in Washington state.	OK I thought it was in Washington state.	238283082	1478359959180	1478359959329	W	87
466102	5019866	OK I thought it was in Washington state.	OK I thought it was in Washington state.	238283083	1478359959347	1478359959408	BKSP	8
466102	5019866	OK I thought it was in Washington state.	OK I thought it was in Washington state.	238283084	1478359959476	1478359959542	BKSP	8
466102	5019866	OK I thought it was in Washington state.	OK I thought it was in Washington state.	238283099	1478359959542	1478359959631	W	87
466102	5019866	OK I thought it was in Washington state.	OK I thought it was in Washington state.	238283102	1478359959752	1478359959875	a	65
466102	5019866	OK I thought it was in Washington state.	OK I thought it was in Washington state.	238283104	1478359959840	1478359959959	s	83
466102	5019866	OK I thought it was in Washington state.	OK I thought it was in Washington state.	238283106	1478359959969	1478359960011	h	72
466102	5019866	OK I thought it was in Washington state.	OK I thought it was in Washington state.	238283108	1478359960046	1478359960088	o	79
466102	5019866	OK I thought it was in Washington state.	OK I thought it was in Washington state.	238283111	1478359960393	1478359960476	BKSP	8
466102	5019866	OK I thought it was in Washington state.	OK I thought it was in Washington state.	238283114	1478359960902	1478359961063	i	73
466102	5019866	OK I thought it was in Washington state.	OK I thought it was in Washington state.	238283174	1478359961025	1478359961085	n	78
466102	5019866	OK I thought it was in Washington state.	OK I thought it was in Washington state.	238283176	1478359961199	1478359961302	t	84
466102	5019866	OK I thought it was in Washington state.	OK I thought it was in Washington state.	238283178	1478359961449	1478359961554	o	79
466102	5019866	OK I thought it was in Washington state.	OK I thought it was in Washington state.	238283180	1478359961542	1478359961623	n	78
466102	5019866	OK I thought it was in Washington state.	OK I thought it was in Washington state.	238283182	1478359961715	1478359961826	 	32
466102	5019866	OK I thought it was in Washington state.	OK I thought it was in Washington state.	238283183	1478359962006	1478359962059	BKSP	8
466102	5019866	OK I thought it was in Washington state.	OK I thought it was in Washington state.	238283184	1478359962129	1478359962200	BKSP	8
466102	5019866	OK I thought it was in Washington state.	OK I thought it was in Washington state.	238283185	1478359962281	1478359962347	BKSP	8
466102	5019866	OK I thought it was in Washington state.	OK I thought it was in Washington state.	238283186	1478359962411	1478359962533	BKSP	8
466102	5019866	OK I thought it was in Washington state.	OK I thought it was in Washington state.	238283187	1478359963205	1478359963280	g	71
466102	5019866	OK I thought it was in Washington state.	OK I thought it was in Washington state.	238283196	1478359963370	1478359963540	t	84
466102	5019866	OK I thought it was in Washington state.	OK I thought it was in Washington state.	238283198	1478359963429	1478359963576	o	79
466102	5019866	OK I thought it was in Washington state.	OK I thought it was in Washington state.	238283200	1478359963509	1478359963590	n	78
466102	5019866	OK I thought it was in Washington state.	OK I thought it was in Washington state.	238283202	1478359963691	1478359963797	 	32
466102	5019866	OK I thought it was in Washington state.	OK I thought it was in Washington state.	238283204	1478359963873	1478359964078	SHIFT	16
466102	5019866	OK I thought it was in Washington state.	OK I thought it was in Washington state.	238283242	1478359963982	1478359964096	S	83
466102	5019866	OK I thought it was in Washington state.	OK I thought it was in Washington state.	238283246	1478359964159	1478359964258	t	84
466102	5019866	OK I thought it was in Washington state.	OK I thought it was in Washington state.	238283250	1478359964419	1478359964477	BKSP	8
466102	5019866	OK I thought it was in Washington state.	OK I thought it was in Washington state.	238283253	1478359964546	1478359964629	BKSP	8
466102	5019866	OK I thought it was in Washington state.	OK I thought it was in Washington state.	238283255	1478359964649	1478359964726	s	83
466102	5019866	OK I thought it was in Washington state.	OK I thought it was in Washington state.	238283257	1478359964746	1478359964860	t	84
466102	5019866	OK I thought it was in Washington state.	OK I thought it was in Washington state.	238283260	1478359964848	1478359964953	a	65
466102	5019866	OK I thought it was in Washington state.	OK I thought it was in Washington state.	238283268	1478359964942	1478359965071	e	69
466102	5019866	OK I thought it was in Washington state.	OK I thought it was in Washington state.	238283271	1478359965367	1478359965453	BKSP	8
466102	5019866	OK I thought it was in Washington state.	OK I thought it was in Washington state.	238283275	1478359965429	1478359965528	t	84
466102	5019866	OK I thought it was in Washington state.	OK I thought it was in Washington state.	238283277	1478359965470	1478359965597	e	69
466102	5019866	OK I thought it was in Washington state.	OK I thought it was in Washington state.	238283279	1478359965538	1478359965632	.	190
466102	5019876	If lunch doesn't work then how about coffee?	If lunch doesn't work then how about coffee?	238283364	1478359968088	1478359968364	SHIFT	16
466102	5019876	If lunch doesn't work then how about coffee?	If lunch doesn't work then how about coffee?	238283362	1478359968214	1478359968310	I	73
466102	5019876	If lunch doesn't work then how about coffee?	If lunch doesn't work then how about coffee?	238283366	1478359968416	1478359968495	f	70
466102	5019876	If lunch doesn't work then how about coffee?	If lunch doesn't work then how about coffee?	238283368	1478359968506	1478359968610	 	32
466102	5019876	If lunch doesn't work then how about coffee?	If lunch doesn't work then how about coffee?	238283372	1478359968677	1478359968749	l	76
466102	5019876	If lunch doesn't work then how about coffee?	If lunch doesn't work then how about coffee?	238283374	1478359968831	1478359968887	u	85
466102	5019876	If lunch doesn't work then how about coffee?	If lunch doesn't work then how about coffee?	238283385	1478359968987	1478359969033	n	78
466102	5019876	If lunch doesn't work then how about coffee?	If lunch doesn't work then how about coffee?	238283386	1478359969025	1478359969143	c	67
466102	5019876	If lunch doesn't work then how about coffee?	If lunch doesn't work then how about coffee?	238283387	1478359969126	1478359969198	h	72
466102	5019876	If lunch doesn't work then how about coffee?	If lunch doesn't work then how about coffee?	238283389	1478359969277	1478359969378	 	32
466102	5019876	If lunch doesn't work then how about coffee?	If lunch doesn't work then how about coffee?	238283391	1478359969380	1478359969482	d	68
466102	5019876	If lunch doesn't work then how about coffee?	If lunch doesn't work then how about coffee?	238283444	1478359969449	1478359969528	p	80
466102	5019876	If lunch doesn't work then how about coffee?	If lunch doesn't work then how about coffee?	238283442	1478359969478	1478359969521	o	79
466102	5019876	If lunch doesn't work then how about coffee?	If lunch doesn't work then how about coffee?	238283445	1478359969547	1478359969624	e	69
466102	5019876	If lunch doesn't work then how about coffee?	If lunch doesn't work then how about coffee?	238283447	1478359969846	1478359969903	BKSP	8
466102	5019876	If lunch doesn't work then how about coffee?	If lunch doesn't work then how about coffee?	238283449	1478359969978	1478359970043	BKSP	8
466102	5019876	If lunch doesn't work then how about coffee?	If lunch doesn't work then how about coffee?	238283451	1478359970074	1478359970174	BKSP	8
466102	5019876	If lunch doesn't work then how about coffee?	If lunch doesn't work then how about coffee?	238283453	1478359970283	1478359970358	o	79
466102	5019876	If lunch doesn't work then how about coffee?	If lunch doesn't work then how about coffee?	238283455	1478359970359	1478359970421	e	69
466102	5019876	If lunch doesn't work then how about coffee?	If lunch doesn't work then how about coffee?	238283457	1478359970558	1478359970609	n	83
466102	5019876	If lunch doesn't work then how about coffee?	If lunch doesn't work then how about coffee?	238283494	1478359971420	1478359971522	'	222
466102	5019876	If lunch doesn't work then how about coffee?	If lunch doesn't work then how about coffee?	238283496	1478359971560	1478359971653	t	84
466102	5019876	If lunch doesn't work then how about coffee?	If lunch doesn't work then how about coffee?	238283498	1478359971646	1478359971721	 	32
466102	5019876	If lunch doesn't work then how about coffee?	If lunch doesn't work then how about coffee?	238283499	1478359971752	1478359971864	w	87
466102	5019876	If lunch doesn't work then how about coffee?	If lunch doesn't work then how about coffee?	238283503	1478359972364	1478359972439	p	80
466102	5019876	If lunch doesn't work then how about coffee?	If lunch doesn't work then how about coffee?	238283562	1478359972644	1478359972728	BKSP	8
466102	5019876	If lunch doesn't work then how about coffee?	If lunch doesn't work then how about coffee?	238283564	1478359972807	1478359972853	o	79
466102	5019876	If lunch doesn't work then how about coffee?	If lunch doesn't work then how about coffee?	238283566	1478359972972	1478359973075	k	75
466102	5019876	If lunch doesn't work then how about coffee?	If lunch doesn't work then how about coffee?	238283567	1478359973127	1478359973215	r	82
466102	5019876	If lunch doesn't work then how about coffee?	If lunch doesn't work then how about coffee?	238283568	1478359973222	1478359973319	 	32
466102	5019876	If lunch doesn't work then how about coffee?	If lunch doesn't work then how about coffee?	238283569	1478359973467	1478359973524	BKSP	8
466102	5019876	If lunch doesn't work then how about coffee?	If lunch doesn't work then how about coffee?	238283570	1478359973596	1478359973676	BKSP	8
466102	5019876	If lunch doesn't work then how about coffee?	If lunch doesn't work then how about coffee?	238283571	1478359973793	1478359973899	BKSP	8
466102	5019876	If lunch doesn't work then how about coffee?	If lunch doesn't work then how about coffee?	238283588	1478359973978	1478359974086	r	82
466102	5019876	If lunch doesn't work then how about coffee?	If lunch doesn't work then how about coffee?	238283572	1478359973999	1478359974041	k	75
466102	5019876	If lunch doesn't work then how about coffee?	If lunch doesn't work then how about coffee?	238283589	1478359974719	1478359974819	 	32
466102	5019876	If lunch doesn't work then how about coffee?	If lunch doesn't work then how about coffee?	238283590	1478359974822	1478359974915	t	84
466102	5019876	If lunch doesn't work then how about coffee?	If lunch doesn't work then how about coffee?	238283592	1478359974923	1478359974997	h	72
466102	5019876	If lunch doesn't work then how about coffee?	If lunch doesn't work then how about coffee?	238283596	1478359975027	1478359975132	e	69
466102	5019876	If lunch doesn't work then how about coffee?	If lunch doesn't work then how about coffee?	238283612	1478359975100	1478359975167	n	78
466102	5019876	If lunch doesn't work then how about coffee?	If lunch doesn't work then how about coffee?	238283615	1478359975245	1478359975307	 	32
466102	5019876	If lunch doesn't work then how about coffee?	If lunch doesn't work then how about coffee?	238283619	1478359975417	1478359975501	h	72
466102	5019876	If lunch doesn't work then how about coffee?	If lunch doesn't work then how about coffee?	238283623	1478359975484	1478359975574	o	79
466102	5019876	If lunch doesn't work then how about coffee?	If lunch doesn't work then how about coffee?	238283626	1478359975614	1478359975693	w	87
466102	5019876	If lunch doesn't work then how about coffee?	If lunch doesn't work then how about coffee?	238283637	1478359975660	1478359975732	 	32
466102	5019876	If lunch doesn't work then how about coffee?	If lunch doesn't work then how about coffee?	238283641	1478359975788	1478359975911	a	65
466102	5019876	If lunch doesn't work then how about coffee?	If lunch doesn't work then how about coffee?	238283639	1478359975838	1478359975897	b	66
466102	5019876	If lunch doesn't work then how about coffee?	If lunch doesn't work then how about coffee?	238283644	1478359975972	1478359976089	o	79
466102	5019876	If lunch doesn't work then how about coffee?	If lunch doesn't work then how about coffee?	238283646	1478359976026	1478359976118	u	85
466102	5019876	If lunch doesn't work then how about coffee?	If lunch doesn't work then how about coffee?	238283710	1478359976093	1478359976189	t	84
466102	5019876	If lunch doesn't work then how about coffee?	If lunch doesn't work then how about coffee?	238283711	1478359976208	1478359976297	 	32
466102	5019876	If lunch doesn't work then how about coffee?	If lunch doesn't work then how about coffee?	238283712	1478359976323	1478359976381	c	67
466102	5019876	If lunch doesn't work then how about coffee?	If lunch doesn't work then how about coffee?	238283713	1478359976358	1478359976439	o	79
466102	5019876	If lunch doesn't work then how about coffee?	If lunch doesn't work then how about coffee?	238283716	1478359976726	1478359976785	BKSP	8
466102	5019876	If lunch doesn't work then how about coffee?	If lunch doesn't work then how about coffee?	238283719	1478359977309	1478359977381	c	67
466102	5019876	If lunch doesn't work then how about coffee?	If lunch doesn't work then how about coffee?	238283723	1478359977532	1478359977629	BKSP	8
466102	5019876	If lunch doesn't work then how about coffee?	If lunch doesn't work then how about coffee?	238283728	1478359977692	1478359977783	o	79
466102	5019876	If lunch doesn't work then how about coffee?	If lunch doesn't work then how about coffee?	238283738	1478359977787	1478359977861	f	70
466102	5019876	If lunch doesn't work then how about coffee?	If lunch doesn't work then how about coffee?	238283739	1478359977922	1478359978014	f	70
466102	5019876	If lunch doesn't work then how about coffee?	If lunch doesn't work then how about coffee?	238283740	1478359978082	1478359978139	e	69
466102	5019876	If lunch doesn't work then how about coffee?	If lunch doesn't work then how about coffee?	238283741	1478359978216	1478359978299	e	69
466102	5019876	If lunch doesn't work then how about coffee?	If lunch doesn't work then how about coffee?	238283742	1478359978376	1478359978536	SHIFT	16
466102	5019876	If lunch doesn't work then how about coffee?	If lunch doesn't work then how about coffee?	238283743	1478359978436	1478359978515	?	191
466102	5019885	This is all so unreal.	This is all so unreal.	238283811	1478359980819	1478359981050	SHIFT	16
466102	5019885	This is all so unreal.	This is all so unreal.	238283813	1478359980956	1478359981098	T	84
466102	5019885	This is all so unreal.	This is all so unreal.	238283814	1478359981084	1478359981217	h	72
466102	5019885	This is all so unreal.	This is all so unreal.	238283816	1478359981182	1478359981301	i	73
466102	5019885	This is all so unreal.	This is all so unreal.	238283819	1478359981276	1478359981390	s	83
466102	5019885	This is all so unreal.	This is all so unreal.	238283823	1478359981399	1478359981469	 	32
466102	5019885	This is all so unreal.	This is all so unreal.	238283829	1478359981511	1478359981594	i	73
466102	5019885	This is all so unreal.	This is all so unreal.	238283830	1478359981653	1478359981742	s	83
466102	5019885	This is all so unreal.	This is all so unreal.	238283831	1478359981727	1478359981824	 	32
466102	5019885	This is all so unreal.	This is all so unreal.	238283832	1478359981830	1478359981946	a	65
466102	5019885	This is all so unreal.	This is all so unreal.	238283844	1478359981908	1478359981989	l	76
466102	5019885	This is all so unreal.	This is all so unreal.	238283846	1478359982031	1478359982136	l	76
466102	5019885	This is all so unreal.	This is all so unreal.	238283848	1478359982194	1478359982278	 	32
466102	5019885	This is all so unreal.	This is all so unreal.	238283851	1478359982260	1478359982353	s	83
466102	5019885	This is all so unreal.	This is all so unreal.	238283854	1478359982331	1478359982424	o	79
466102	5019885	This is all so unreal.	This is all so unreal.	238283857	1478359982463	1478359982542	 	32
466102	5019885	This is all so unreal.	This is all so unreal.	238283860	1478359982613	1478359982716	u	85
466102	5019885	This is all so unreal.	This is all so unreal.	238283863	1478359982656	1478359982795	n	78
466102	5019885	This is all so unreal.	This is all so unreal.	238283865	1478359982752	1478359982871	r	82
466102	5019885	This is all so unreal.	This is all so unreal.	238283872	1478359982792	1478359982923	e	69
466102	5019885	This is all so unreal.	This is all so unreal.	238283874	1478359982860	1478359982984	a	65
466102	5019885	This is all so unreal.	This is all so unreal.	238283875	1478359982918	1478359983003	l	76
466102	5019885	This is all so unreal.	This is all so unreal.	238283876	1478359983097	1478359983183	.	190
466102	5019890	At 17, he enlisted in the US Navy.	At 17, he enlisted in the US Navy.	238283988	1478359985658	1478359985931	SHIFT	16
466102	5019890	At 17, he enlisted in the US Navy.	At 17, he enlisted in the US Navy.	238283984	1478359985774	1478359985858	A	83
466102	5019890	At 17, he enlisted in the US Navy.	At 17, he enlisted in the US Navy.	238283992	1478359986314	1478359986367	BKSP	8
466102	5019890	At 17, he enlisted in the US Navy.	At 17, he enlisted in the US Navy.	238283996	1478359986446	1478359986546	BKSP	8
466102	5019890	At 17, he enlisted in the US Navy.	At 17, he enlisted in the US Navy.	238284001	1478359986488	1478359986659	SHIFT	16
466102	5019890	At 17, he enlisted in the US Navy.	At 17, he enlisted in the US Navy.	238284007	1478359986593	1478359986733	A	65
466102	5019890	At 17, he enlisted in the US Navy.	At 17, he enlisted in the US Navy.	238284011	1478359986792	1478359986874	t	84
466102	5019890	At 17, he enlisted in the US Navy.	At 17, he enlisted in the US Navy.	238284015	1478359986896	1478359986999	 	32
466102	5019890	At 17, he enlisted in the US Navy.	At 17, he enlisted in the US Navy.	238284023	1478359987113	1478359987185	7	55
466102	5019890	At 17, he enlisted in the US Navy.	At 17, he enlisted in the US Navy.	238284026	1478359987304	1478359987383	,	188
466102	5019890	At 17, he enlisted in the US Navy.	At 17, he enlisted in the US Navy.	238284028	1478359987486	1478359987563	 	32
466102	5019890	At 17, he enlisted in the US Navy.	At 17, he enlisted in the US Navy.	238284030	1478359987662	1478359987742	h	72
466102	5019890	At 17, he enlisted in the US Navy.	At 17, he enlisted in the US Navy.	238284043	1478359987728	1478359987817	e	69
466102	5019890	At 17, he enlisted in the US Navy.	At 17, he enlisted in the US Navy.	238284046	1478359987842	1478359987923	 	32
466102	5019890	At 17, he enlisted in the US Navy.	At 17, he enlisted in the US Navy.	238284051	1478359987966	1478359988041	e	69
466102	5019890	At 17, he enlisted in the US Navy.	At 17, he enlisted in the US Navy.	238284057	1478359988025	1478359988117	n	78
466102	5019890	At 17, he enlisted in the US Navy.	At 17, he enlisted in the US Navy.	238284062	1478359988169	1478359988244	l	76
466102	5019890	At 17, he enlisted in the US Navy.	At 17, he enlisted in the US Navy.	238284066	1478359988297	1478359988390	i	73
466102	5019890	At 17, he enlisted in the US Navy.	At 17, he enlisted in the US Navy.	238284073	1478359988355	1478359988437	s	83
466102	5019890	At 17, he enlisted in the US Navy.	At 17, he enlisted in the US Navy.	238284074	1478359988477	1478359988559	t	84
466102	5019890	At 17, he enlisted in the US Navy.	At 17, he enlisted in the US Navy.	238284075	1478359988538	1478359988694	e	69
466102	5019890	At 17, he enlisted in the US Navy.	At 17, he enlisted in the US Navy.	238284076	1478359988653	1478359988768	d	68
466102	5019890	At 17, he enlisted in the US Navy.	At 17, he enlisted in the US Navy.	238284077	1478359988724	1478359988779	 	32
466102	5019890	At 17, he enlisted in the US Navy.	At 17, he enlisted in the US Navy.	238284079	1478359988822	1478359988934	i	73
466102	5019890	At 17, he enlisted in the US Navy.	At 17, he enlisted in the US Navy.	238284147	1478359989014	1478359989119	n	78
466102	5019890	At 17, he enlisted in the US Navy.	At 17, he enlisted in the US Navy.	238284148	1478359989493	1478359989551	BKSP	8
466102	5019890	At 17, he enlisted in the US Navy.	At 17, he enlisted in the US Navy.	238284150	1478359989668	1478359989751	 	32
466102	5019890	At 17, he enlisted in the US Navy.	At 17, he enlisted in the US Navy.	238284152	1478359990185	1478359990273	BKSP	8
466102	5019890	At 17, he enlisted in the US Navy.	At 17, he enlisted in the US Navy.	238284155	1478359990359	1478359990416	m	77
466102	5019890	At 17, he enlisted in the US Navy.	At 17, he enlisted in the US Navy.	238284158	1478359990503	1478359990584	 	32
466102	5019890	At 17, he enlisted in the US Navy.	At 17, he enlisted in the US Navy.	238284161	1478359990829	1478359990894	BKSP	8
466102	5019890	At 17, he enlisted in the US Navy.	At 17, he enlisted in the US Navy.	238284164	1478359990953	1478359991042	BKSP	8
466102	5019890	At 17, he enlisted in the US Navy.	At 17, he enlisted in the US Navy.	238284166	1478359991125	1478359991187	n	78
466102	5019890	At 17, he enlisted in the US Navy.	At 17, he enlisted in the US Navy.	238284168	1478359991263	1478359991332	 	32
466102	5019890	At 17, he enlisted in the US Navy.	At 17, he enlisted in the US Navy.	238284170	1478359991298	1478359991380	t	84
466102	5019890	At 17, he enlisted in the US Navy.	At 17, he enlisted in the US Navy.	238284176	1478359991402	1478359991479	h	72
466102	5019890	At 17, he enlisted in the US Navy.	At 17, he enlisted in the US Navy.	238284180	1478359991444	1478359991541	e	69
466102	5019890	At 17, he enlisted in the US Navy.	At 17, he enlisted in the US Navy.	238284184	1478359991572	1478359991657	 	32
466102	5019890	At 17, he enlisted in the US Navy.	At 17, he enlisted in the US Navy.	238284215	1478359991693	1478359992594	U	16
466102	5019890	At 17, he enlisted in the US Navy.	At 17, he enlisted in the US Navy.	238284210	1478359991835	1478359991962	S	83
466102	5019890	At 17, he enlisted in the US Navy.	At 17, he enlisted in the US Navy.	238284212	1478359992185	1478359992287	 	32
466102	5019890	At 17, he enlisted in the US Navy.	At 17, he enlisted in the US Navy.	238284214	1478359992459	1478359992565	N	78
466102	5019890	At 17, he enlisted in the US Navy.	At 17, he enlisted in the US Navy.	238284216	1478359992678	1478359992756	a	65
466102	5019890	At 17, he enlisted in the US Navy.	At 17, he enlisted in the US Navy.	238284221	1478359992817	1478359992898	v	86
466102	5019890	At 17, he enlisted in the US Navy.	At 17, he enlisted in the US Navy.	238284223	1478359992903	1478359992991	y	89
466102	5019890	At 17, he enlisted in the US Navy.	At 17, he enlisted in the US Navy.	238284225	1478359993313	1478359993389	.	190
