PARTICIPANT_ID	TEST_SECTION_ID	SENTENCE	USER_INPUT	KEYSTROKE_ID	PRESS_TIME	RELEASE_TIME	LETTER	KEYCODE
467374	5032924	Theresa, I changed the CIG fuel rate to.	Theresa, I cahnged the CIG fuel rate to.	238904408	1478383502811	1478383502945	SHIFT	16
467374	5032924	Theresa, I changed the CIG fuel rate to.	Theresa, I cahnged the CIG fuel rate to.	238904410	1478383502869	1478383502974	NA	84
467374	5032924	Theresa, I changed the CIG fuel rate to.	Theresa, I cahnged the CIG fuel rate to.	238904414	1478383502993	1478383503106	NA	72
467374	5032924	Theresa, I changed the CIG fuel rate to.	Theresa, I cahnged the CIG fuel rate to.	238904420	1478383503110	1478383503250	NA	69
467374	5032924	Theresa, I changed the CIG fuel rate to.	Theresa, I cahnged the CIG fuel rate to.	238904426	1478383503214	1478383503397	NA	82
467374	5032924	Theresa, I changed the CIG fuel rate to.	Theresa, I cahnged the CIG fuel rate to.	238904430	1478383503398	1478383503466	NA	69
467374	5032924	Theresa, I changed the CIG fuel rate to.	Theresa, I cahnged the CIG fuel rate to.	238904488	1478383503978	1478383504232	NA	83
467374	5032924	Theresa, I changed the CIG fuel rate to.	Theresa, I cahnged the CIG fuel rate to.	238904490	1478383504118	1478383504238	NA	69
467374	5032924	Theresa, I changed the CIG fuel rate to.	Theresa, I cahnged the CIG fuel rate to.	238904492	1478383504508	1478383504580		8
467374	5032924	Theresa, I changed the CIG fuel rate to.	Theresa, I cahnged the CIG fuel rate to.	238904494	1478383504646	1478383504826	NA	65
467374	5032924	Theresa, I changed the CIG fuel rate to.	Theresa, I cahnged the CIG fuel rate to.	238904496	1478383505243	1478383505388	NA	188
467374	5032924	Theresa, I changed the CIG fuel rate to.	Theresa, I cahnged the CIG fuel rate to.	238904521	1478383505355	1478383505531	NA	32
467374	5032924	Theresa, I changed the CIG fuel rate to.	Theresa, I cahnged the CIG fuel rate to.	238904522	1478383505537	1478383505724	SHIFT	16
467374	5032924	Theresa, I changed the CIG fuel rate to.	Theresa, I cahnged the CIG fuel rate to.	238904523	1478383505649	1478383505795	NA	73
467374	5032924	Theresa, I changed the CIG fuel rate to.	Theresa, I cahnged the CIG fuel rate to.	238904524	1478383505725	1478383505902	NA	32
467374	5032924	Theresa, I changed the CIG fuel rate to.	Theresa, I cahnged the CIG fuel rate to.	238904525	1478383506210	1478383506398	NA	67
467374	5032924	Theresa, I changed the CIG fuel rate to.	Theresa, I cahnged the CIG fuel rate to.	238904553	1478383506361	1478383506506	NA	65
467374	5032924	Theresa, I changed the CIG fuel rate to.	Theresa, I cahnged the CIG fuel rate to.	238904558	1478383506536	1478383506645	NA	78
467374	5032924	Theresa, I changed the CIG fuel rate to.	Theresa, I cahnged the CIG fuel rate to.	238904562	1478383506610	1478383506715	NA	71
467374	5032924	Theresa, I changed the CIG fuel rate to.	Theresa, I cahnged the CIG fuel rate to.	238904566	1478383506797	1478383506940	NA	69
467374	5032924	Theresa, I changed the CIG fuel rate to.	Theresa, I cahnged the CIG fuel rate to.	238904570	1478383507054	1478383507200	NA	68
467374	5032924	Theresa, I changed the CIG fuel rate to.	Theresa, I cahnged the CIG fuel rate to.	238904572	1478383507262	1478383507409	NA	32
467374	5032924	Theresa, I changed the CIG fuel rate to.	Theresa, I cahnged the CIG fuel rate to.	238904581	1478383507420	1478383507516	NA	84
467374	5032924	Theresa, I changed the CIG fuel rate to.	Theresa, I cahnged the CIG fuel rate to.	238904583	1478383507518	1478383507587	NA	72
467374	5032924	Theresa, I changed the CIG fuel rate to.	Theresa, I cahnged the CIG fuel rate to.	238904585	1478383507590	1478383507657	NA	69
467374	5032924	Theresa, I changed the CIG fuel rate to.	Theresa, I cahnged the CIG fuel rate to.	238904587	1478383507687	1478383507866	NA	32
467374	5032924	Theresa, I changed the CIG fuel rate to.	Theresa, I cahnged the CIG fuel rate to.	238904622	1478383507931	1478383508734	SHIFT	16
467374	5032924	Theresa, I changed the CIG fuel rate to.	Theresa, I cahnged the CIG fuel rate to.	238904589	1478383508078	1478383508269	NA	67
467374	5032924	Theresa, I changed the CIG fuel rate to.	Theresa, I cahnged the CIG fuel rate to.	238904620	1478383508196	1478383508376	NA	73
467374	5032924	Theresa, I changed the CIG fuel rate to.	Theresa, I cahnged the CIG fuel rate to.	238904626	1478383508629	1478383508742	NA	71
467374	5032924	Theresa, I changed the CIG fuel rate to.	Theresa, I cahnged the CIG fuel rate to.	238904631	1478383508879	1478383509022	NA	32
467374	5032924	Theresa, I changed the CIG fuel rate to.	Theresa, I cahnged the CIG fuel rate to.	238904638	1478383509199	1478383509340	NA	70
467374	5032924	Theresa, I changed the CIG fuel rate to.	Theresa, I cahnged the CIG fuel rate to.	238904641	1478383509410	1478383509556	NA	85
467374	5032924	Theresa, I changed the CIG fuel rate to.	Theresa, I cahnged the CIG fuel rate to.	238904645	1478383509655	1478383509748	NA	69
467374	5032924	Theresa, I changed the CIG fuel rate to.	Theresa, I cahnged the CIG fuel rate to.	238904678	1478383509828	1478383510011	NA	76
467374	5032924	Theresa, I changed the CIG fuel rate to.	Theresa, I cahnged the CIG fuel rate to.	238904681	1478383510015	1478383510151	NA	32
467374	5032924	Theresa, I changed the CIG fuel rate to.	Theresa, I cahnged the CIG fuel rate to.	238904683	1478383510305	1478383510485	NA	82
467374	5032924	Theresa, I changed the CIG fuel rate to.	Theresa, I cahnged the CIG fuel rate to.	238904685	1478383510449	1478383510669	NA	65
467374	5032924	Theresa, I changed the CIG fuel rate to.	Theresa, I cahnged the CIG fuel rate to.	238904712	1478383510632	1478383510740	NA	84
467374	5032924	Theresa, I changed the CIG fuel rate to.	Theresa, I cahnged the CIG fuel rate to.	238904714	1478383510743	1478383510885	NA	69
467374	5032924	Theresa, I changed the CIG fuel rate to.	Theresa, I cahnged the CIG fuel rate to.	238904718	1478383510892	1478383511030	NA	32
467374	5032924	Theresa, I changed the CIG fuel rate to.	Theresa, I cahnged the CIG fuel rate to.	238904723	1478383511034	1478383511136	NA	84
467374	5032924	Theresa, I changed the CIG fuel rate to.	Theresa, I cahnged the CIG fuel rate to.	238904728	1478383511141	1478383511207	NA	79
467374	5032924	Theresa, I changed the CIG fuel rate to.	Theresa, I cahnged the CIG fuel rate to.	238904733	1478383511691	1478383511800	NA	190
467374	5032939	But I believe answer will be yes.	But I beleve answer will be yes.	238905059	1478383518442	1478383518588	SHIFT	16
467374	5032939	But I believe answer will be yes.	But I beleve answer will be yes.	238905060	1478383518514	1478383518625	NA	66
467374	5032939	But I believe answer will be yes.	But I beleve answer will be yes.	238905064	1478383518629	1478383518730	NA	85
467374	5032939	But I believe answer will be yes.	But I beleve answer will be yes.	238905067	1478383518767	1478383518874	NA	84
467374	5032939	But I believe answer will be yes.	But I beleve answer will be yes.	238905070	1478383518906	1478383519087	NA	32
467374	5032939	But I believe answer will be yes.	But I beleve answer will be yes.	238905072	1478383519111	1478383519336	SHIFT	16
467374	5032939	But I believe answer will be yes.	But I beleve answer will be yes.	238905112	1478383519262	1478383519406	NA	73
467374	5032939	But I believe answer will be yes.	But I beleve answer will be yes.	238905115	1478383519370	1478383519549	NA	32
467374	5032939	But I believe answer will be yes.	But I beleve answer will be yes.	238905120	1478383519703	1478383519844	NA	66
467374	5032939	But I believe answer will be yes.	But I beleve answer will be yes.	238905125	1478383519928	1478383520074	NA	69
467374	5032939	But I believe answer will be yes.	But I beleve answer will be yes.	238905127	1478383520104	1478383520285	NA	76
467374	5032939	But I believe answer will be yes.	But I beleve answer will be yes.	238905128	1478383520287	1478383520391	NA	69
467374	5032939	But I believe answer will be yes.	But I beleve answer will be yes.	238905174	1478383520568	1478383520747	NA	86
467374	5032939	But I believe answer will be yes.	But I beleve answer will be yes.	238905179	1478383520753	1478383520820	NA	69
467374	5032939	But I believe answer will be yes.	But I beleve answer will be yes.	238905183	1478383521508	1478383521655	NA	32
467374	5032939	But I believe answer will be yes.	But I beleve answer will be yes.	238905186	1478383521783	1478383521972	NA	65
467374	5032939	But I believe answer will be yes.	But I beleve answer will be yes.	238905244	1478383521892	1478383522007	NA	78
467374	5032939	But I believe answer will be yes.	But I beleve answer will be yes.	238905247	1478383522213	1478383522398	NA	83
467374	5032939	But I believe answer will be yes.	But I beleve answer will be yes.	238905250	1478383522543	1478383522797	NA	87
467374	5032939	But I believe answer will be yes.	But I beleve answer will be yes.	238905253	1478383522721	1478383522939	NA	69
467374	5032939	But I believe answer will be yes.	But I beleve answer will be yes.	238905257	1478383522905	1478383523085	NA	82
467374	5032939	But I believe answer will be yes.	But I beleve answer will be yes.	238905262	1478383523145	1478383523329	NA	32
467374	5032939	But I believe answer will be yes.	But I beleve answer will be yes.	238905287	1478383523461	1478383523570	NA	73
467374	5032939	But I believe answer will be yes.	But I beleve answer will be yes.	238905290	1478383523893	1478383523967		8
467374	5032939	But I believe answer will be yes.	But I beleve answer will be yes.	238905293	1478383524014	1478383524161	NA	87
467374	5032939	But I believe answer will be yes.	But I beleve answer will be yes.	238905297	1478383524166	1478383524195	NA	73
467374	5032939	But I believe answer will be yes.	But I beleve answer will be yes.	238905301	1478383524316	1478383524390	NA	76
467374	5032939	But I believe answer will be yes.	But I beleve answer will be yes.	238905329	1478383524466	1478383524575	NA	76
467374	5032939	But I believe answer will be yes.	But I beleve answer will be yes.	238905331	1478383524539	1478383524716	NA	32
467374	5032939	But I believe answer will be yes.	But I beleve answer will be yes.	238905334	1478383524781	1478383524890	NA	66
467374	5032939	But I believe answer will be yes.	But I beleve answer will be yes.	238905340	1478383524953	1478383525066	NA	69
467374	5032939	But I believe answer will be yes.	But I beleve answer will be yes.	238905344	1478383525084	1478383525226	NA	32
467374	5032939	But I believe answer will be yes.	But I beleve answer will be yes.	238905374	1478383525325	1478383525432	NA	85
467374	5032939	But I believe answer will be yes.	But I beleve answer will be yes.	238905377	1478383525687	1478383525759		8
467374	5032939	But I believe answer will be yes.	But I beleve answer will be yes.	238905383	1478383525875	1478383525951	NA	89
467374	5032939	But I believe answer will be yes.	But I beleve answer will be yes.	238905387	1478383525955	1478383526061	NA	69
467374	5032939	But I believe answer will be yes.	But I beleve answer will be yes.	238905434	1478383525982	1478383526202	NA	65
467374	5032939	But I believe answer will be yes.	But I beleve answer will be yes.	238905437	1478383526303	1478383526447	NA	83
467374	5032939	But I believe answer will be yes.	But I beleve answer will be yes.	238905440	1478383526709	1478383526781		8
467374	5032939	But I believe answer will be yes.	But I beleve answer will be yes.	238905448	1478383526839	1478383526947		8
467374	5032939	But I believe answer will be yes.	But I beleve answer will be yes.	238905450	1478383526965	1478383527111	NA	83
467374	5032939	But I believe answer will be yes.	But I beleve answer will be yes.	238905454	1478383527133	1478383527170	NA	190
467374	5032952	Have I mentioned how much I love Houston traffic?	Have I mentioned how much I love Houston traffic?	238905687	1478383532599	1478383532817	SHIFT	16
467374	5032952	Have I mentioned how much I love Houston traffic?	Have I mentioned how much I love Houston traffic?	238905689	1478383532743	1478383532824	NA	72
467374	5032952	Have I mentioned how much I love Houston traffic?	Have I mentioned how much I love Houston traffic?	238905692	1478383532963	1478383533146	NA	65
467374	5032952	Have I mentioned how much I love Houston traffic?	Have I mentioned how much I love Houston traffic?	238905695	1478383533177	1478383533324	NA	86
467374	5032952	Have I mentioned how much I love Houston traffic?	Have I mentioned how much I love Houston traffic?	238905698	1478383533286	1478383533396	NA	69
467374	5032952	Have I mentioned how much I love Houston traffic?	Have I mentioned how much I love Houston traffic?	238905708	1478383533404	1478383533582	NA	32
467374	5032952	Have I mentioned how much I love Houston traffic?	Have I mentioned how much I love Houston traffic?	238905721	1478383533624	1478383533811	SHIFT	16
467374	5032952	Have I mentioned how much I love Houston traffic?	Have I mentioned how much I love Houston traffic?	238905724	1478383533702	1478383533884	NA	73
467374	5032952	Have I mentioned how much I love Houston traffic?	Have I mentioned how much I love Houston traffic?	238905727	1478383533811	1478383533991	NA	32
467374	5032952	Have I mentioned how much I love Houston traffic?	Have I mentioned how much I love Houston traffic?	238905733	1478383534062	1478383534208	NA	77
467374	5032952	Have I mentioned how much I love Houston traffic?	Have I mentioned how much I love Houston traffic?	238905740	1478383534209	1478383534316	NA	69
467374	5032952	Have I mentioned how much I love Houston traffic?	Have I mentioned how much I love Houston traffic?	238905746	1478383534386	1478383534423	NA	78
467374	5032952	Have I mentioned how much I love Houston traffic?	Have I mentioned how much I love Houston traffic?	238905803	1478383534796	1478383534906	NA	84
467374	5032952	Have I mentioned how much I love Houston traffic?	Have I mentioned how much I love Houston traffic?	238905805	1478383534963	1478383535219	NA	73
467374	5032952	Have I mentioned how much I love Houston traffic?	Have I mentioned how much I love Houston traffic?	238905808	1478383535108	1478383535326	NA	79
467374	5032952	Have I mentioned how much I love Houston traffic?	Have I mentioned how much I love Houston traffic?	238905811	1478383535477	1478383535580	NA	78
467374	5032952	Have I mentioned how much I love Houston traffic?	Have I mentioned how much I love Houston traffic?	238905815	1478383535618	1478383535762	NA	69
467374	5032952	Have I mentioned how much I love Houston traffic?	Have I mentioned how much I love Houston traffic?	238905860	1478383535844	1478383535952	NA	68
467374	5032952	Have I mentioned how much I love Houston traffic?	Have I mentioned how much I love Houston traffic?	238905865	1478383535954	1478383536095	NA	32
467374	5032952	Have I mentioned how much I love Houston traffic?	Have I mentioned how much I love Houston traffic?	238905870	1478383536099	1478383536279	NA	72
467374	5032952	Have I mentioned how much I love Houston traffic?	Have I mentioned how much I love Houston traffic?	238905873	1478383536166	1478383536315	NA	79
467374	5032952	Have I mentioned how much I love Houston traffic?	Have I mentioned how much I love Houston traffic?	238905876	1478383536318	1478383536457	NA	87
467374	5032952	Have I mentioned how much I love Houston traffic?	Have I mentioned how much I love Houston traffic?	238905897	1478383536422	1478383536602	NA	32
467374	5032952	Have I mentioned how much I love Houston traffic?	Have I mentioned how much I love Houston traffic?	238905898	1478383536567	1478383536674	NA	77
467374	5032952	Have I mentioned how much I love Houston traffic?	Have I mentioned how much I love Houston traffic?	238905899	1478383536752	1478383536824	NA	85
467374	5032952	Have I mentioned how much I love Houston traffic?	Have I mentioned how much I love Houston traffic?	238905901	1478383536852	1478383537002	NA	67
467374	5032952	Have I mentioned how much I love Houston traffic?	Have I mentioned how much I love Houston traffic?	238905902	1478383536961	1478383537071	NA	72
467374	5032952	Have I mentioned how much I love Houston traffic?	Have I mentioned how much I love Houston traffic?	238905904	1478383537077	1478383537215	NA	32
467374	5032952	Have I mentioned how much I love Houston traffic?	Have I mentioned how much I love Houston traffic?	238905937	1478383537256	1478383537483	SHIFT	16
467374	5032952	Have I mentioned how much I love Houston traffic?	Have I mentioned how much I love Houston traffic?	238905938	1478383537332	1478383537489	NA	73
467374	5032952	Have I mentioned how much I love Houston traffic?	Have I mentioned how much I love Houston traffic?	238905941	1478383537449	1478383537633	NA	32
467374	5032952	Have I mentioned how much I love Houston traffic?	Have I mentioned how much I love Houston traffic?	238905946	1478383537592	1478383537701	NA	76
467374	5032952	Have I mentioned how much I love Houston traffic?	Have I mentioned how much I love Houston traffic?	238905949	1478383537778	1478383537852	NA	79
467374	5032952	Have I mentioned how much I love Houston traffic?	Have I mentioned how much I love Houston traffic?	238905953	1478383537864	1478383538014	NA	86
467374	5032952	Have I mentioned how much I love Houston traffic?	Have I mentioned how much I love Houston traffic?	238906005	1478383537940	1478383538089	NA	69
467374	5032952	Have I mentioned how much I love Houston traffic?	Have I mentioned how much I love Houston traffic?	238906013	1478383538091	1478383538229	NA	32
467374	5032952	Have I mentioned how much I love Houston traffic?	Have I mentioned how much I love Houston traffic?	238906022	1478383538317	1478383538538	SHIFT	16
467374	5032952	Have I mentioned how much I love Houston traffic?	Have I mentioned how much I love Houston traffic?	238906019	1478383538356	1478383538466	NA	72
467374	5032952	Have I mentioned how much I love Houston traffic?	Have I mentioned how much I love Houston traffic?	238906025	1478383538546	1478383538775	NA	79
467374	5032952	Have I mentioned how much I love Houston traffic?	Have I mentioned how much I love Houston traffic?	238906026	1478383538696	1478383538809	NA	85
467374	5032952	Have I mentioned how much I love Houston traffic?	Have I mentioned how much I love Houston traffic?	238906028	1478383538926	1478383539104	NA	83
467374	5032952	Have I mentioned how much I love Houston traffic?	Have I mentioned how much I love Houston traffic?	238906095	1478383539244	1478383539351	NA	84
467374	5032952	Have I mentioned how much I love Houston traffic?	Have I mentioned how much I love Houston traffic?	238906097	1478383539381	1478383539605	NA	79
467374	5032952	Have I mentioned how much I love Houston traffic?	Have I mentioned how much I love Houston traffic?	238906100	1478383539527	1478383539711	NA	78
467374	5032952	Have I mentioned how much I love Houston traffic?	Have I mentioned how much I love Houston traffic?	238906103	1478383539676	1478383539820	NA	32
467374	5032952	Have I mentioned how much I love Houston traffic?	Have I mentioned how much I love Houston traffic?	238906105	1478383540397	1478383540501	NA	82
467374	5032952	Have I mentioned how much I love Houston traffic?	Have I mentioned how much I love Houston traffic?	238906141	1478383540430	1478383540534	NA	84
467374	5032952	Have I mentioned how much I love Houston traffic?	Have I mentioned how much I love Houston traffic?	238906144	1478383540731	1478383540880	NA	82
467374	5032952	Have I mentioned how much I love Houston traffic?	Have I mentioned how much I love Houston traffic?	238906146	1478383541044	1478383541117		8
467374	5032952	Have I mentioned how much I love Houston traffic?	Have I mentioned how much I love Houston traffic?	238906150	1478383541164	1478383541238		8
467374	5032952	Have I mentioned how much I love Houston traffic?	Have I mentioned how much I love Houston traffic?	238906151	1478383541298	1478383541369		8
467374	5032952	Have I mentioned how much I love Houston traffic?	Have I mentioned how much I love Houston traffic?	238906152	1478383541379	1478383541485	NA	84
467374	5032952	Have I mentioned how much I love Houston traffic?	Have I mentioned how much I love Houston traffic?	238906187	1478383541578	1478383541763	NA	82
467374	5032952	Have I mentioned how much I love Houston traffic?	Have I mentioned how much I love Houston traffic?	238906190	1478383541721	1478383541905	NA	65
467374	5032952	Have I mentioned how much I love Houston traffic?	Have I mentioned how much I love Houston traffic?	238906193	1478383542000	1478383542072	NA	86
467374	5032952	Have I mentioned how much I love Houston traffic?	Have I mentioned how much I love Houston traffic?	238906198	1478383542502	1478383542608		8
467374	5032952	Have I mentioned how much I love Houston traffic?	Have I mentioned how much I love Houston traffic?	238906203	1478383542620	1478383542696	NA	70
467374	5032952	Have I mentioned how much I love Houston traffic?	Have I mentioned how much I love Houston traffic?	238906233	1478383542786	1478383542895	NA	70
467374	5032952	Have I mentioned how much I love Houston traffic?	Have I mentioned how much I love Houston traffic?	238906235	1478383542905	1478383543012	NA	73
467374	5032952	Have I mentioned how much I love Houston traffic?	Have I mentioned how much I love Houston traffic?	238906241	1478383543112	1478383543256	NA	67
467374	5032952	Have I mentioned how much I love Houston traffic?	Have I mentioned how much I love Houston traffic?	238906244	1478383543564	1478383543715	SHIFT	16
467374	5032969	We probably have to discuss trade behavior and margin.	We probably have to discuss trade behavior and margin.	238906348	1478383545730	1478383545880	SHIFT	16
467374	5032969	We probably have to discuss trade behavior and margin.	We probably have to discuss trade behavior and margin.	238906351	1478383545806	1478383545991	NA	87
467374	5032969	We probably have to discuss trade behavior and margin.	We probably have to discuss trade behavior and margin.	238906355	1478383545953	1478383546064	NA	69
467374	5032969	We probably have to discuss trade behavior and margin.	We probably have to discuss trade behavior and margin.	238906365	1478383546091	1478383546269	NA	32
467374	5032969	We probably have to discuss trade behavior and margin.	We probably have to discuss trade behavior and margin.	238906372	1478383546279	1478383546423	NA	80
467374	5032969	We probably have to discuss trade behavior and margin.	We probably have to discuss trade behavior and margin.	238906378	1478383546504	1478383546653	NA	82
467374	5032969	We probably have to discuss trade behavior and margin.	We probably have to discuss trade behavior and margin.	238906399	1478383546657	1478383546722	NA	79
467374	5032969	We probably have to discuss trade behavior and margin.	We probably have to discuss trade behavior and margin.	238906401	1478383546871	1478383547017	NA	66
467374	5032969	We probably have to discuss trade behavior and margin.	We probably have to discuss trade behavior and margin.	238906405	1478383547107	1478383547289	NA	65
467374	5032969	We probably have to discuss trade behavior and margin.	We probably have to discuss trade behavior and margin.	238906407	1478383547301	1478383547447	NA	66
467374	5032969	We probably have to discuss trade behavior and margin.	We probably have to discuss trade behavior and margin.	238906436	1478383547409	1478383547554	NA	76
467374	5032969	We probably have to discuss trade behavior and margin.	We probably have to discuss trade behavior and margin.	238906442	1478383547518	1478383547662	NA	89
467374	5032969	We probably have to discuss trade behavior and margin.	We probably have to discuss trade behavior and margin.	238906447	1478383547667	1478383547804	NA	32
467374	5032969	We probably have to discuss trade behavior and margin.	We probably have to discuss trade behavior and margin.	238906454	1478383547862	1478383547972	NA	72
467374	5032969	We probably have to discuss trade behavior and margin.	We probably have to discuss trade behavior and margin.	238906459	1478383547985	1478383548169	NA	65
467374	5032969	We probably have to discuss trade behavior and margin.	We probably have to discuss trade behavior and margin.	238906469	1478383548128	1478383548311	NA	86
467374	5032969	We probably have to discuss trade behavior and margin.	We probably have to discuss trade behavior and margin.	238906472	1478383548275	1478383548385	NA	69
467374	5032969	We probably have to discuss trade behavior and margin.	We probably have to discuss trade behavior and margin.	238906476	1478383548350	1478383548492	NA	32
467374	5032969	We probably have to discuss trade behavior and margin.	We probably have to discuss trade behavior and margin.	238906479	1478383548499	1478383548564	NA	84
467374	5032969	We probably have to discuss trade behavior and margin.	We probably have to discuss trade behavior and margin.	238906484	1478383548568	1478383548707	NA	79
467374	5032969	We probably have to discuss trade behavior and margin.	We probably have to discuss trade behavior and margin.	238906523	1478383548671	1478383548852	NA	32
467374	5032969	We probably have to discuss trade behavior and margin.	We probably have to discuss trade behavior and margin.	238906525	1478383548911	1478383549059	NA	68
467374	5032969	We probably have to discuss trade behavior and margin.	We probably have to discuss trade behavior and margin.	238906529	1478383549061	1478383549167	NA	73
467374	5032969	We probably have to discuss trade behavior and margin.	We probably have to discuss trade behavior and margin.	238906532	1478383549186	1478383549326	NA	83
467374	5032969	We probably have to discuss trade behavior and margin.	We probably have to discuss trade behavior and margin.	238906534	1478383549475	1478383549617	NA	67
467374	5032969	We probably have to discuss trade behavior and margin.	We probably have to discuss trade behavior and margin.	238906536	1478383549643	1478383549754	NA	85
467374	5032969	We probably have to discuss trade behavior and margin.	We probably have to discuss trade behavior and margin.	238906566	1478383549833	1478383549942	NA	83
467374	5032969	We probably have to discuss trade behavior and margin.	We probably have to discuss trade behavior and margin.	238906568	1478383550028	1478383550137	NA	83
467374	5032969	We probably have to discuss trade behavior and margin.	We probably have to discuss trade behavior and margin.	238906572	1478383550100	1478383550285	NA	32
467374	5032969	We probably have to discuss trade behavior and margin.	We probably have to discuss trade behavior and margin.	238906576	1478383550289	1478383550388	NA	84
467374	5032969	We probably have to discuss trade behavior and margin.	We probably have to discuss trade behavior and margin.	238906579	1478383550510	1478383550687	NA	82
467374	5032969	We probably have to discuss trade behavior and margin.	We probably have to discuss trade behavior and margin.	238906622	1478383550783	1478383550820	NA	65
467374	5032969	We probably have to discuss trade behavior and margin.	We probably have to discuss trade behavior and margin.	238906625	1478383551259	1478383551365	NA	68
467374	5032969	We probably have to discuss trade behavior and margin.	We probably have to discuss trade behavior and margin.	238906629	1478383551467	1478383551574	NA	69
467374	5032969	We probably have to discuss trade behavior and margin.	We probably have to discuss trade behavior and margin.	238906634	1478383551588	1478383551771	NA	32
467374	5032969	We probably have to discuss trade behavior and margin.	We probably have to discuss trade behavior and margin.	238906638	1478383551773	1478383551880	NA	72
467374	5032969	We probably have to discuss trade behavior and margin.	We probably have to discuss trade behavior and margin.	238906694	1478383552057	1478383552126		8
467374	5032969	We probably have to discuss trade behavior and margin.	We probably have to discuss trade behavior and margin.	238906696	1478383552136	1478383552241	NA	66
467374	5032969	We probably have to discuss trade behavior and margin.	We probably have to discuss trade behavior and margin.	238906698	1478383552293	1478383552403	NA	69
467374	5032969	We probably have to discuss trade behavior and margin.	We probably have to discuss trade behavior and margin.	238906700	1478383552520	1478383552627	NA	72
467374	5032969	We probably have to discuss trade behavior and margin.	We probably have to discuss trade behavior and margin.	238906703	1478383552659	1478383552841	NA	65
467374	5032969	We probably have to discuss trade behavior and margin.	We probably have to discuss trade behavior and margin.	238906805	1478383553729	1478383553839	NA	86
467374	5032969	We probably have to discuss trade behavior and margin.	We probably have to discuss trade behavior and margin.	238906807	1478383554031	1478383554218	NA	73
467374	5032969	We probably have to discuss trade behavior and margin.	We probably have to discuss trade behavior and margin.	238906809	1478383554141	1478383554287	NA	79
467374	5032969	We probably have to discuss trade behavior and margin.	We probably have to discuss trade behavior and margin.	238906812	1478383554329	1478383554475	NA	82
467374	5032969	We probably have to discuss trade behavior and margin.	We probably have to discuss trade behavior and margin.	238906815	1478383554600	1478383554745	NA	32
467374	5032969	We probably have to discuss trade behavior and margin.	We probably have to discuss trade behavior and margin.	238906855	1478383554812	1478383554959	NA	65
467374	5032969	We probably have to discuss trade behavior and margin.	We probably have to discuss trade behavior and margin.	238906857	1478383554965	1478383555065	NA	78
467374	5032969	We probably have to discuss trade behavior and margin.	We probably have to discuss trade behavior and margin.	238906859	1478383555074	1478383555182	NA	68
467374	5032969	We probably have to discuss trade behavior and margin.	We probably have to discuss trade behavior and margin.	238906861	1478383555148	1478383555289	NA	32
467374	5032969	We probably have to discuss trade behavior and margin.	We probably have to discuss trade behavior and margin.	238906863	1478383555325	1478383555470	NA	77
467374	5032969	We probably have to discuss trade behavior and margin.	We probably have to discuss trade behavior and margin.	238906889	1478383555474	1478383555650	NA	65
467374	5032969	We probably have to discuss trade behavior and margin.	We probably have to discuss trade behavior and margin.	238906890	1478383555615	1478383555757	NA	82
467374	5032969	We probably have to discuss trade behavior and margin.	We probably have to discuss trade behavior and margin.	238906892	1478383555900	1478383556009	NA	71
467374	5032969	We probably have to discuss trade behavior and margin.	We probably have to discuss trade behavior and margin.	238906894	1478383556023	1478383556247	NA	73
467374	5032969	We probably have to discuss trade behavior and margin.	We probably have to discuss trade behavior and margin.	238906914	1478383556135	1478383556284	NA	78
467374	5032969	We probably have to discuss trade behavior and margin.	We probably have to discuss trade behavior and margin.	238906920	1478383556392	1478383556502	NA	190
467374	5032979	It would be wise to keep him inactive until he is effective in a game.	It would be wise to keep him inactive until he is effective in a game.	238907448	1478383567410	1478383567624	SHIFT	16
467374	5032979	It would be wise to keep him inactive until he is effective in a game.	It would be wise to keep him inactive until he is effective in a game.	238907451	1478383567552	1478383567696	NA	73
467374	5032979	It would be wise to keep him inactive until he is effective in a game.	It would be wise to keep him inactive until he is effective in a game.	238907454	1478383567843	1478383567988	NA	84
467374	5032979	It would be wise to keep him inactive until he is effective in a game.	It would be wise to keep him inactive until he is effective in a game.	238907457	1478383568123	1478383568265	NA	32
467374	5032979	It would be wise to keep him inactive until he is effective in a game.	It would be wise to keep him inactive until he is effective in a game.	238907461	1478383568340	1478383568450	NA	87
467374	5032979	It would be wise to keep him inactive until he is effective in a game.	It would be wise to keep him inactive until he is effective in a game.	238907465	1478383568451	1478383568558	NA	79
467374	5032979	It would be wise to keep him inactive until he is effective in a game.	It would be wise to keep him inactive until he is effective in a game.	238907487	1478383568562	1478383568703	NA	85
467374	5032979	It would be wise to keep him inactive until he is effective in a game.	It would be wise to keep him inactive until he is effective in a game.	238907492	1478383568664	1478383568775	NA	76
467374	5032979	It would be wise to keep him inactive until he is effective in a game.	It would be wise to keep him inactive until he is effective in a game.	238907497	1478383568779	1478383568846	NA	68
467374	5032979	It would be wise to keep him inactive until he is effective in a game.	It would be wise to keep him inactive until he is effective in a game.	238907501	1478383568852	1478383569000	NA	32
467374	5032979	It would be wise to keep him inactive until he is effective in a game.	It would be wise to keep him inactive until he is effective in a game.	238907505	1478383569001	1478383569110	NA	66
467374	5032979	It would be wise to keep him inactive until he is effective in a game.	It would be wise to keep him inactive until he is effective in a game.	238907566	1478383569159	1478383569306	NA	69
467374	5032979	It would be wise to keep him inactive until he is effective in a game.	It would be wise to keep him inactive until he is effective in a game.	238907571	1478383569308	1478383569448	NA	32
467374	5032979	It would be wise to keep him inactive until he is effective in a game.	It would be wise to keep him inactive until he is effective in a game.	238907575	1478383569521	1478383569667	NA	87
467374	5032979	It would be wise to keep him inactive until he is effective in a game.	It would be wise to keep him inactive until he is effective in a game.	238907578	1478383569631	1478383569770	NA	73
467374	5032979	It would be wise to keep him inactive until he is effective in a game.	It would be wise to keep him inactive until he is effective in a game.	238907580	1478383569920	1478383570170	NA	83
467374	5032979	It would be wise to keep him inactive until he is effective in a game.	It would be wise to keep him inactive until he is effective in a game.	238907589	1478383570062	1478383570210	NA	69
467374	5032979	It would be wise to keep him inactive until he is effective in a game.	It would be wise to keep him inactive until he is effective in a game.	238907592	1478383570213	1478383570356	NA	32
467374	5032979	It would be wise to keep him inactive until he is effective in a game.	It would be wise to keep him inactive until he is effective in a game.	238907598	1478383570361	1478383570467	NA	84
467374	5032979	It would be wise to keep him inactive until he is effective in a game.	It would be wise to keep him inactive until he is effective in a game.	238907603	1478383570469	1478383570645	NA	79
467374	5032979	It would be wise to keep him inactive until he is effective in a game.	It would be wise to keep him inactive until he is effective in a game.	238907609	1478383570609	1478383570750	NA	32
467374	5032979	It would be wise to keep him inactive until he is effective in a game.	It would be wise to keep him inactive until he is effective in a game.	238907614	1478383570830	1478383570937	NA	75
467374	5032979	It would be wise to keep him inactive until he is effective in a game.	It would be wise to keep him inactive until he is effective in a game.	238907638	1478383570953	1478383571048	NA	69
467374	5032979	It would be wise to keep him inactive until he is effective in a game.	It would be wise to keep him inactive until he is effective in a game.	238907640	1478383571104	1478383571213	NA	69
467374	5032979	It would be wise to keep him inactive until he is effective in a game.	It would be wise to keep him inactive until he is effective in a game.	238907642	1478383571216	1478383571356	NA	80
467374	5032979	It would be wise to keep him inactive until he is effective in a game.	It would be wise to keep him inactive until he is effective in a game.	238907645	1478383571320	1478383571463	NA	32
467374	5032979	It would be wise to keep him inactive until he is effective in a game.	It would be wise to keep him inactive until he is effective in a game.	238907648	1478383571519	1478383571704	NA	72
467374	5032979	It would be wise to keep him inactive until he is effective in a game.	It would be wise to keep him inactive until he is effective in a game.	238907667	1478383571669	1478383571771	NA	73
467374	5032979	It would be wise to keep him inactive until he is effective in a game.	It would be wise to keep him inactive until he is effective in a game.	238907672	1478383571816	1478383571968	NA	77
467374	5032979	It would be wise to keep him inactive until he is effective in a game.	It would be wise to keep him inactive until he is effective in a game.	238907677	1478383571969	1478383572146	NA	32
467374	5032979	It would be wise to keep him inactive until he is effective in a game.	It would be wise to keep him inactive until he is effective in a game.	238907682	1478383572112	1478383572256	NA	73
467374	5032979	It would be wise to keep him inactive until he is effective in a game.	It would be wise to keep him inactive until he is effective in a game.	238907687	1478383572216	1478383572363	NA	78
467374	5032979	It would be wise to keep him inactive until he is effective in a game.	It would be wise to keep him inactive until he is effective in a game.	238907690	1478383572517	1478383572696	NA	65
467374	5032979	It would be wise to keep him inactive until he is effective in a game.	It would be wise to keep him inactive until he is effective in a game.	238907695	1478383572761	1478383572905	NA	67
467374	5032979	It would be wise to keep him inactive until he is effective in a game.	It would be wise to keep him inactive until he is effective in a game.	238907699	1478383573027	1478383573138	NA	84
467374	5032979	It would be wise to keep him inactive until he is effective in a game.	It would be wise to keep him inactive until he is effective in a game.	238907705	1478383573097	1478383573244	NA	73
467374	5032979	It would be wise to keep him inactive until he is effective in a game.	It would be wise to keep him inactive until he is effective in a game.	238907709	1478383573302	1478383573484	NA	86
467374	5032979	It would be wise to keep him inactive until he is effective in a game.	It would be wise to keep him inactive until he is effective in a game.	238907742	1478383573407	1478383573557	NA	69
467374	5032979	It would be wise to keep him inactive until he is effective in a game.	It would be wise to keep him inactive until he is effective in a game.	238907745	1478383573518	1478383573664	NA	32
467374	5032979	It would be wise to keep him inactive until he is effective in a game.	It would be wise to keep him inactive until he is effective in a game.	238907748	1478383573743	1478383573817	NA	85
467374	5032979	It would be wise to keep him inactive until he is effective in a game.	It would be wise to keep him inactive until he is effective in a game.	238907751	1478383573929	1478383574037	NA	78
467374	5032979	It would be wise to keep him inactive until he is effective in a game.	It would be wise to keep him inactive until he is effective in a game.	238907757	1478383574074	1478383574185	NA	84
467374	5032979	It would be wise to keep him inactive until he is effective in a game.	It would be wise to keep him inactive until he is effective in a game.	238907761	1478383574186	1478383574290	NA	73
467374	5032979	It would be wise to keep him inactive until he is effective in a game.	It would be wise to keep him inactive until he is effective in a game.	238907788	1478383574373	1478383574522	NA	76
467374	5032979	It would be wise to keep him inactive until he is effective in a game.	It would be wise to keep him inactive until he is effective in a game.	238907791	1478383574483	1478383574668	NA	32
467374	5032979	It would be wise to keep him inactive until he is effective in a game.	It would be wise to keep him inactive until he is effective in a game.	238907794	1478383574687	1478383574799	NA	72
467374	5032979	It would be wise to keep him inactive until he is effective in a game.	It would be wise to keep him inactive until he is effective in a game.	238907796	1478383574802	1478383574941	NA	69
467374	5032979	It would be wise to keep him inactive until he is effective in a game.	It would be wise to keep him inactive until he is effective in a game.	238907799	1478383574943	1478383575123	NA	32
467374	5032979	It would be wise to keep him inactive until he is effective in a game.	It would be wise to keep him inactive until he is effective in a game.	238907835	1478383575086	1478383575190	NA	73
467374	5032979	It would be wise to keep him inactive until he is effective in a game.	It would be wise to keep him inactive until he is effective in a game.	238907840	1478383575224	1478383575370	NA	83
467374	5032979	It would be wise to keep him inactive until he is effective in a game.	It would be wise to keep him inactive until he is effective in a game.	238907845	1478383575334	1478383575512	NA	32
467374	5032979	It would be wise to keep him inactive until he is effective in a game.	It would be wise to keep him inactive until he is effective in a game.	238907850	1478383575584	1478383575731	NA	69
467374	5032979	It would be wise to keep him inactive until he is effective in a game.	It would be wise to keep him inactive until he is effective in a game.	238907859	1478383575815	1478383575924	NA	70
467374	5032979	It would be wise to keep him inactive until he is effective in a game.	It would be wise to keep him inactive until he is effective in a game.	238907865	1478383576011	1478383576158	NA	70
467374	5032979	It would be wise to keep him inactive until he is effective in a game.	It would be wise to keep him inactive until he is effective in a game.	238907899	1478383576173	1478383576317	NA	69
467374	5032979	It would be wise to keep him inactive until he is effective in a game.	It would be wise to keep him inactive until he is effective in a game.	238907905	1478383576413	1478383576560	NA	67
467374	5032979	It would be wise to keep him inactive until he is effective in a game.	It would be wise to keep him inactive until he is effective in a game.	238907911	1478383576671	1478383576780	NA	84
467374	5032979	It would be wise to keep him inactive until he is effective in a game.	It would be wise to keep him inactive until he is effective in a game.	238907916	1478383576786	1478383576887	NA	73
467374	5032979	It would be wise to keep him inactive until he is effective in a game.	It would be wise to keep him inactive until he is effective in a game.	238907919	1478383576953	1478383577110	NA	86
467374	5032979	It would be wise to keep him inactive until he is effective in a game.	It would be wise to keep him inactive until he is effective in a game.	238907940	1478383577032	1478383577182	NA	69
467374	5032979	It would be wise to keep him inactive until he is effective in a game.	It would be wise to keep him inactive until he is effective in a game.	238907942	1478383577184	1478383577364	NA	32
467374	5032979	It would be wise to keep him inactive until he is effective in a game.	It would be wise to keep him inactive until he is effective in a game.	238907944	1478383577292	1478383577545	NA	73
467374	5032979	It would be wise to keep him inactive until he is effective in a game.	It would be wise to keep him inactive until he is effective in a game.	238907947	1478383577471	1478383577654	NA	78
467374	5032979	It would be wise to keep him inactive until he is effective in a game.	It would be wise to keep him inactive until he is effective in a game.	238907951	1478383577582	1478383577762	NA	32
467374	5032979	It would be wise to keep him inactive until he is effective in a game.	It would be wise to keep him inactive until he is effective in a game.	238907955	1478383577807	1478383577989	NA	65
467374	5032979	It would be wise to keep him inactive until he is effective in a game.	It would be wise to keep him inactive until he is effective in a game.	238907973	1478383577998	1478383578134	NA	32
467374	5032979	It would be wise to keep him inactive until he is effective in a game.	It would be wise to keep him inactive until he is effective in a game.	238907976	1478383578160	1478383578345	NA	71
467374	5032979	It would be wise to keep him inactive until he is effective in a game.	It would be wise to keep him inactive until he is effective in a game.	238907979	1478383578269	1478383578452	NA	65
467374	5032979	It would be wise to keep him inactive until he is effective in a game.	It would be wise to keep him inactive until he is effective in a game.	238907983	1478383578380	1478383578522	NA	77
467374	5032979	It would be wise to keep him inactive until he is effective in a game.	It would be wise to keep him inactive until he is effective in a game.	238907985	1478383578529	1478383578634	NA	69
467374	5032979	It would be wise to keep him inactive until he is effective in a game.	It would be wise to keep him inactive until he is effective in a game.	238907993	1478383578725	1478383578866	NA	190
467374	5033004	What are the units?	What are the unites?	238908276	1478383585263	1478383585409	SHIFT	16
467374	5033004	What are the units?	What are the unites?	238908278	1478383585373	1478383585488	NA	87
467374	5033004	What are the units?	What are the unites?	238908282	1478383585447	1478383585523	NA	72
467374	5033004	What are the units?	What are the unites?	238908287	1478383585553	1478383585738	NA	65
467374	5033004	What are the units?	What are the unites?	238908290	1478383585696	1478383585811	NA	84
467374	5033004	What are the units?	What are the unites?	238908293	1478383585817	1478383585954	NA	32
467374	5033004	What are the units?	What are the unites?	238908301	1478383585962	1478383586136	NA	65
467374	5033004	What are the units?	What are the unites?	238908305	1478383586095	1478383586278	NA	82
467374	5033004	What are the units?	What are the unites?	238908309	1478383586242	1478383586385	NA	69
467374	5033004	What are the units?	What are the unites?	238908314	1478383586355	1478383586496	NA	32
467374	5033004	What are the units?	What are the unites?	238908317	1478383586500	1478383586601	NA	84
467374	5033004	What are the units?	What are the unites?	238908348	1478383586608	1478383586675	NA	72
467374	5033004	What are the units?	What are the unites?	238908350	1478383586677	1478383586820	NA	69
467374	5033004	What are the units?	What are the unites?	238908353	1478383586747	1478383586964	NA	32
467374	5033004	What are the units?	What are the unites?	238908354	1478383586928	1478383586999	NA	85
467374	5033004	What are the units?	What are the unites?	238908355	1478383587108	1478383587253	NA	78
467374	5033004	What are the units?	What are the unites?	238908414	1478383587259	1478383587394	NA	73
467374	5033004	What are the units?	What are the unites?	238908416	1478383587408	1478383587550	NA	84
467374	5033004	What are the units?	What are the unites?	238908418	1478383587564	1478383587704	NA	69
467374	5033004	What are the units?	What are the unites?	238908419	1478383587782	1478383587921	NA	83
467374	5033004	What are the units?	What are the unites?	238908421	1478383588163	1478383588232	SHIFT	16
467374	5033004	What are the units?	What are the unites?	238908422	1478383588614	1478383588688		8
467374	5033004	What are the units?	What are the unites?	238908435	1478383588763	1478383588838		8
467374	5033004	What are the units?	What are the unites?	238908438	1478383588947	1478383589093	NA	83
467374	5033004	What are the units?	What are the unites?	238908440	1478383589128	1478383589350	SHIFT	16
467374	5033004	What are the units?	What are the unites?	238908445	1478383589273	1478383589421	NA	191
467374	5033010	Let's leave it until we get going.	Let's leave it until we get going.	238908726	1478383596558	1478383596744	SHIFT	16
467374	5033010	Let's leave it until we get going.	Let's leave it until we get going.	238908728	1478383596630	1478383596815	NA	76
467374	5033010	Let's leave it until we get going.	Let's leave it until we get going.	238908731	1478383596819	1478383597074	NA	69
467374	5033010	Let's leave it until we get going.	Let's leave it until we get going.	238908735	1478383596995	1478383597145	NA	84
467374	5033010	Let's leave it until we get going.	Let's leave it until we get going.	238908737	1478383597290	1478383597438	NA	83
467374	5033010	Let's leave it until we get going.	Let's leave it until we get going.	238908788	1478383597399	1478383597543	NA	222
467374	5033010	Let's leave it until we get going.	Let's leave it until we get going.	238908791	1478383597905	1478383597977		8
467374	5033010	Let's leave it until we get going.	Let's leave it until we get going.	238908793	1478383598056	1478383598130		8
467374	5033010	Let's leave it until we get going.	Let's leave it until we get going.	238908795	1478383598391	1478383598537	NA	222
467374	5033010	Let's leave it until we get going.	Let's leave it until we get going.	238908797	1478383598550	1478383598731	NA	83
467374	5033010	Let's leave it until we get going.	Let's leave it until we get going.	238908826	1478383598691	1478383598880	NA	32
467374	5033010	Let's leave it until we get going.	Let's leave it until we get going.	238908829	1478383598881	1478383599058	NA	76
467374	5033010	Let's leave it until we get going.	Let's leave it until we get going.	238908833	1478383599059	1478383599166	NA	69
467374	5033010	Let's leave it until we get going.	Let's leave it until we get going.	238908837	1478383599207	1478383599432	NA	65
467374	5033010	Let's leave it until we get going.	Let's leave it until we get going.	238908841	1478383599391	1478383599537	NA	86
467374	5033010	Let's leave it until we get going.	Let's leave it until we get going.	238908872	1478383599464	1478383599645	NA	69
467374	5033010	Let's leave it until we get going.	Let's leave it until we get going.	238908873	1478383599609	1478383599798	NA	32
467374	5033010	Let's leave it until we get going.	Let's leave it until we get going.	238908874	1478383599718	1478383599832	NA	73
467374	5033010	Let's leave it until we get going.	Let's leave it until we get going.	238908875	1478383599843	1478383599953	NA	84
467374	5033010	Let's leave it until we get going.	Let's leave it until we get going.	238908876	1478383599956	1478383600094	NA	32
467374	5033010	Let's leave it until we get going.	Let's leave it until we get going.	238908877	1478383600213	1478383600323	NA	85
467374	5033010	Let's leave it until we get going.	Let's leave it until we get going.	238908897	1478383600404	1478383600552	NA	78
467374	5033010	Let's leave it until we get going.	Let's leave it until we get going.	238908900	1478383600554	1478383600656	NA	84
467374	5033010	Let's leave it until we get going.	Let's leave it until we get going.	238908901	1478383600662	1478383600724	NA	73
467374	5033010	Let's leave it until we get going.	Let's leave it until we get going.	238908902	1478383600794	1478383600941	NA	76
467374	5033010	Let's leave it until we get going.	Let's leave it until we get going.	238908903	1478383600943	1478383601121	NA	32
467374	5033010	Let's leave it until we get going.	Let's leave it until we get going.	238908929	1478383601126	1478383601334	NA	87
467374	5033010	Let's leave it until we get going.	Let's leave it until we get going.	238908933	1478383601260	1478383601407	NA	69
467374	5033010	Let's leave it until we get going.	Let's leave it until we get going.	238908937	1478383601411	1478383601586	NA	32
467374	5033010	Let's leave it until we get going.	Let's leave it until we get going.	238908939	1478383601593	1478383601728	NA	71
467374	5033010	Let's leave it until we get going.	Let's leave it until we get going.	238908942	1478383601809	1478383601956	NA	69
467374	5033010	Let's leave it until we get going.	Let's leave it until we get going.	238908953	1478383601915	1478383602025	NA	84
467374	5033010	Let's leave it until we get going.	Let's leave it until we get going.	238908954	1478383602027	1478383602168	NA	32
467374	5033010	Let's leave it until we get going.	Let's leave it until we get going.	238908955	1478383602212	1478383602356	NA	71
467374	5033010	Let's leave it until we get going.	Let's leave it until we get going.	238908957	1478383602320	1478383602589	NA	79
467374	5033010	Let's leave it until we get going.	Let's leave it until we get going.	238908972	1478383602394	1478383602625	NA	73
467374	5033010	Let's leave it until we get going.	Let's leave it until we get going.	238908973	1478383602547	1478383602662	NA	78
467374	5033010	Let's leave it until we get going.	Let's leave it until we get going.	238908974	1478383602663	1478383602767	NA	71
467374	5033010	Let's leave it until we get going.	Let's leave it until we get going.	238908975	1478383603107	1478383603143	NA	190
467374	5033021	The contract is a bit complicated.	The contract is a bit complicated.	238909112	1478383608773	1478383608920	SHIFT	16
467374	5033021	The contract is a bit complicated.	The contract is a bit complicated.	238909113	1478383608881	1478383608991	NA	84
467374	5033021	The contract is a bit complicated.	The contract is a bit complicated.	238909114	1478383608994	1478383609064	NA	72
467374	5033021	The contract is a bit complicated.	The contract is a bit complicated.	238909115	1478383609065	1478383609171	NA	69
467374	5033021	The contract is a bit complicated.	The contract is a bit complicated.	238909116	1478383609175	1478383609311	NA	32
467374	5033021	The contract is a bit complicated.	The contract is a bit complicated.	238909117	1478383609362	1478383609547	NA	67
467374	5033021	The contract is a bit complicated.	The contract is a bit complicated.	238909143	1478383609474	1478383609617	NA	79
467374	5033021	The contract is a bit complicated.	The contract is a bit complicated.	238909146	1478383609582	1478383609725	NA	78
467374	5033021	The contract is a bit complicated.	The contract is a bit complicated.	238909148	1478383609731	1478383609830	NA	84
467374	5033021	The contract is a bit complicated.	The contract is a bit complicated.	238909150	1478383610067	1478383610319	NA	65
467374	5033021	The contract is a bit complicated.	The contract is a bit complicated.	238909152	1478383610466	1478383610539		8
467374	5033021	The contract is a bit complicated.	The contract is a bit complicated.	238909156	1478383610571	1478383610682	NA	82
467374	5033021	The contract is a bit complicated.	The contract is a bit complicated.	238909191	1478383610608	1478383610827	NA	65
467374	5033021	The contract is a bit complicated.	The contract is a bit complicated.	238909193	1478383610924	1478383611030	NA	67
467374	5033021	The contract is a bit complicated.	The contract is a bit complicated.	238909195	1478383611139	1478383611244	NA	84
467374	5033021	The contract is a bit complicated.	The contract is a bit complicated.	238909197	1478383611253	1478383611440	NA	32
467374	5033021	The contract is a bit complicated.	The contract is a bit complicated.	238909200	1478383611399	1478383611508	NA	73
467374	5033021	The contract is a bit complicated.	The contract is a bit complicated.	238909205	1478383611533	1478383611678	NA	83
467374	5033021	The contract is a bit complicated.	The contract is a bit complicated.	238909222	1478383611643	1478383611785	NA	32
467374	5033021	The contract is a bit complicated.	The contract is a bit complicated.	238909224	1478383611790	1478383611928	NA	65
467374	5033021	The contract is a bit complicated.	The contract is a bit complicated.	238909226	1478383611856	1478383612000	NA	32
467374	5033021	The contract is a bit complicated.	The contract is a bit complicated.	238909234	1478383612227	1478383612408	NA	66
467374	5033021	The contract is a bit complicated.	The contract is a bit complicated.	238909240	1478383612414	1478383612479	NA	73
467374	5033021	The contract is a bit complicated.	The contract is a bit complicated.	238909246	1478383612514	1478383612620	NA	84
467374	5033021	The contract is a bit complicated.	The contract is a bit complicated.	238909262	1478383612625	1478383612801	NA	32
467374	5033021	The contract is a bit complicated.	The contract is a bit complicated.	238909264	1478383612928	1478383613082	NA	67
467374	5033021	The contract is a bit complicated.	The contract is a bit complicated.	238909267	1478383612997	1478383613235	NA	79
467374	5033021	The contract is a bit complicated.	The contract is a bit complicated.	238909270	1478383613086	1478383613273	NA	77
467374	5033021	The contract is a bit complicated.	The contract is a bit complicated.	238909272	1478383613274	1478383613342	NA	80
467374	5033021	The contract is a bit complicated.	The contract is a bit complicated.	238909288	1478383613411	1478383613445	NA	76
467374	5033021	The contract is a bit complicated.	The contract is a bit complicated.	238909289	1478383613492	1478383613568	NA	76
467374	5033021	The contract is a bit complicated.	The contract is a bit complicated.	238909290	1478383613530	1478383613637	NA	73
467374	5033021	The contract is a bit complicated.	The contract is a bit complicated.	238909291	1478383613854	1478383613999	NA	67
467374	5033021	The contract is a bit complicated.	The contract is a bit complicated.	238909292	1478383614098	1478383614174		8
467374	5033021	The contract is a bit complicated.	The contract is a bit complicated.	238909314	1478383614214	1478383614283		8
467374	5033021	The contract is a bit complicated.	The contract is a bit complicated.	238909318	1478383614360	1478383614468		8
467374	5033021	The contract is a bit complicated.	The contract is a bit complicated.	238909321	1478383614572	1478383614678	NA	73
467374	5033021	The contract is a bit complicated.	The contract is a bit complicated.	238909325	1478383614694	1478383614885	NA	67
467374	5033021	The contract is a bit complicated.	The contract is a bit complicated.	238909375	1478383614811	1478383615027	NA	65
467374	5033021	The contract is a bit complicated.	The contract is a bit complicated.	238909376	1478383615071	1478383615215	NA	84
467374	5033021	The contract is a bit complicated.	The contract is a bit complicated.	238909377	1478383615226	1478383615472	NA	73
467374	5033021	The contract is a bit complicated.	The contract is a bit complicated.	238909379	1478383615741	1478383615850		8
467374	5033021	The contract is a bit complicated.	The contract is a bit complicated.	238909381	1478383615861	1478383616007	NA	69
467374	5033021	The contract is a bit complicated.	The contract is a bit complicated.	238909384	1478383616072	1478383616216	NA	68
467374	5033021	The contract is a bit complicated.	The contract is a bit complicated.	238909396	1478383616264	1478383616334	NA	190
467374	5033029	As usual, I will be as candid as I can.	As usual, I will be as candid as I can.	238909542	1478383622935	1478383623086	SHIFT	16
467374	5033029	As usual, I will be as candid as I can.	As usual, I will be as candid as I can.	238909543	1478383623008	1478383623194	NA	65
467374	5033029	As usual, I will be as candid as I can.	As usual, I will be as candid as I can.	238909544	1478383623201	1478383623374	NA	83
467374	5033029	As usual, I will be as candid as I can.	As usual, I will be as candid as I can.	238909545	1478383623337	1478383623517	NA	32
467374	5033029	As usual, I will be as candid as I can.	As usual, I will be as candid as I can.	238909546	1478383623520	1478383623626	NA	85
467374	5033029	As usual, I will be as candid as I can.	As usual, I will be as candid as I can.	238909547	1478383623768	1478383623951	NA	83
467374	5033029	As usual, I will be as candid as I can.	As usual, I will be as candid as I can.	238909554	1478383623959	1478383624057	NA	85
467374	5033029	As usual, I will be as candid as I can.	As usual, I will be as candid as I can.	238909556	1478383624139	1478383624321	NA	65
467374	5033029	As usual, I will be as candid as I can.	As usual, I will be as candid as I can.	238909558	1478383624285	1478383624433	NA	76
467374	5033029	As usual, I will be as candid as I can.	As usual, I will be as candid as I can.	238909560	1478383624393	1478383624503	NA	32
467374	5033029	As usual, I will be as candid as I can.	As usual, I will be as candid as I can.	238909562	1478383624810	1478383624882		8
467374	5033029	As usual, I will be as candid as I can.	As usual, I will be as candid as I can.	238909572	1478383625087	1478383625231	NA	188
467374	5033029	As usual, I will be as candid as I can.	As usual, I will be as candid as I can.	238909573	1478383625195	1478383625341	NA	32
467374	5033029	As usual, I will be as candid as I can.	As usual, I will be as candid as I can.	238909574	1478383625607	1478383625759	SHIFT	16
467374	5033029	As usual, I will be as candid as I can.	As usual, I will be as candid as I can.	238909575	1478383625684	1478383625835	NA	73
467374	5033029	As usual, I will be as candid as I can.	As usual, I will be as candid as I can.	238909576	1478383625797	1478383625942	NA	32
467374	5033029	As usual, I will be as candid as I can.	As usual, I will be as candid as I can.	238909578	1478383625958	1478383626101	NA	87
467374	5033029	As usual, I will be as candid as I can.	As usual, I will be as candid as I can.	238909605	1478383626066	1478383626138	NA	73
467374	5033029	As usual, I will be as candid as I can.	As usual, I will be as candid as I can.	238909608	1478383626195	1478383626298	NA	76
467374	5033029	As usual, I will be as candid as I can.	As usual, I will be as candid as I can.	238909611	1478383626354	1478383626424	NA	76
467374	5033029	As usual, I will be as candid as I can.	As usual, I will be as candid as I can.	238909612	1478383626426	1478383626604	NA	32
467374	5033029	As usual, I will be as candid as I can.	As usual, I will be as candid as I can.	238909614	1478383626611	1478383626677	NA	66
467374	5033029	As usual, I will be as candid as I can.	As usual, I will be as candid as I can.	238909615	1478383626748	1478383626857	NA	69
467374	5033029	As usual, I will be as candid as I can.	As usual, I will be as candid as I can.	238909636	1478383626896	1478383627038	NA	32
467374	5033029	As usual, I will be as candid as I can.	As usual, I will be as candid as I can.	238909638	1478383627244	1478383627428	NA	65
467374	5033029	As usual, I will be as candid as I can.	As usual, I will be as candid as I can.	238909641	1478383627544	1478383627708	NA	83
467374	5033029	As usual, I will be as candid as I can.	As usual, I will be as candid as I can.	238909644	1478383627708	1478383627870	NA	32
467374	5033029	As usual, I will be as candid as I can.	As usual, I will be as candid as I can.	238909646	1478383627941	1478383628124	NA	67
467374	5033029	As usual, I will be as candid as I can.	As usual, I will be as candid as I can.	238909672	1478383628052	1478383628239	NA	65
467374	5033029	As usual, I will be as candid as I can.	As usual, I will be as candid as I can.	238909673	1478383628163	1478383628272	NA	78
467374	5033029	As usual, I will be as candid as I can.	As usual, I will be as candid as I can.	238909674	1478383628423	1478383628533	NA	68
467374	5033029	As usual, I will be as candid as I can.	As usual, I will be as candid as I can.	238909675	1478383628568	1478383628676	NA	73
467374	5033029	As usual, I will be as candid as I can.	As usual, I will be as candid as I can.	238909676	1478383628724	1478383628871	NA	68
467374	5033029	As usual, I will be as candid as I can.	As usual, I will be as candid as I can.	238909677	1478383628897	1478383629113	NA	32
467374	5033029	As usual, I will be as candid as I can.	As usual, I will be as candid as I can.	238909697	1478383629117	1478383629254	NA	65
467374	5033029	As usual, I will be as candid as I can.	As usual, I will be as candid as I can.	238909701	1478383629349	1478383629531	NA	83
467374	5033029	As usual, I will be as candid as I can.	As usual, I will be as candid as I can.	238909703	1478383629496	1478383629637	NA	32
467374	5033029	As usual, I will be as candid as I can.	As usual, I will be as candid as I can.	238909707	1478383629687	1478383629872	SHIFT	16
467374	5033029	As usual, I will be as candid as I can.	As usual, I will be as candid as I can.	238909711	1478383629760	1478383629904	NA	73
467374	5033029	As usual, I will be as candid as I can.	As usual, I will be as candid as I can.	238909741	1478383629876	1478383630047	NA	32
467374	5033029	As usual, I will be as candid as I can.	As usual, I will be as candid as I can.	238909743	1478383630120	1478383630230	NA	67
467374	5033029	As usual, I will be as candid as I can.	As usual, I will be as candid as I can.	238909745	1478383630194	1478383630345	NA	65
467374	5033029	As usual, I will be as candid as I can.	As usual, I will be as candid as I can.	238909747	1478383630304	1478383630412	NA	78
467374	5033029	As usual, I will be as candid as I can.	As usual, I will be as candid as I can.	238909750	1478383630580	1478383630689	NA	190
467374	5033036	The troops just walked in.	The troops just walked in.	238909831	1478383634129	1478383634241	SHIFT	16
467374	5033036	The troops just walked in.	The troops just walked in.	238909833	1478383634204	1478383634313	NA	84
467374	5033036	The troops just walked in.	The troops just walked in.	238909835	1478383634276	1478383634351	NA	72
467374	5033036	The troops just walked in.	The troops just walked in.	238909841	1478383634355	1478383634492	NA	69
467374	5033036	The troops just walked in.	The troops just walked in.	238909844	1478383634494	1478383634634	NA	32
467374	5033036	The troops just walked in.	The troops just walked in.	238909847	1478383634711	1478383634855	NA	84
467374	5033036	The troops just walked in.	The troops just walked in.	238909852	1478383634911	1478383635019	NA	82
467374	5033036	The troops just walked in.	The troops just walked in.	238909854	1478383635024	1478383635090	NA	79
467374	5033036	The troops just walked in.	The troops just walked in.	238909856	1478383635160	1478383635307	NA	79
467374	5033036	The troops just walked in.	The troops just walked in.	238909858	1478383635308	1478383635447	NA	80
467374	5033036	The troops just walked in.	The troops just walked in.	238909859	1478383635497	1478383635789	NA	83
467374	5033036	The troops just walked in.	The troops just walked in.	238909872	1478383635680	1478383635824	NA	69
467374	5033036	The troops just walked in.	The troops just walked in.	238909874	1478383636040	1478383636113		8
467374	5033036	The troops just walked in.	The troops just walked in.	238909876	1478383636199	1478383636345	NA	32
467374	5033036	The troops just walked in.	The troops just walked in.	238909880	1478383636446	1478383636554	NA	74
467374	5033036	The troops just walked in.	The troops just walked in.	238909885	1478383636626	1478383636699	NA	85
467374	5033036	The troops just walked in.	The troops just walked in.	238909890	1478383636718	1478383636899	NA	83
467374	5033036	The troops just walked in.	The troops just walked in.	238909911	1478383636865	1478383636970	NA	84
467374	5033036	The troops just walked in.	The troops just walked in.	238909912	1478383636933	1478383637044	NA	32
467374	5033036	The troops just walked in.	The troops just walked in.	238909913	1478383637140	1478383637325	NA	87
467374	5033036	The troops just walked in.	The troops just walked in.	238909914	1478383637283	1478383637471	NA	65
467374	5033036	The troops just walked in.	The troops just walked in.	238909915	1478383637397	1478383637580	NA	76
467374	5033036	The troops just walked in.	The troops just walked in.	238909916	1478383637583	1478383637723	NA	75
467374	5033036	The troops just walked in.	The troops just walked in.	238909936	1478383637738	1478383637918	NA	69
467374	5033036	The troops just walked in.	The troops just walked in.	238909937	1478383637957	1478383638102	NA	68
467374	5033036	The troops just walked in.	The troops just walked in.	238909938	1478383638262	1478383638407	NA	190
467374	5033036	The troops just walked in.	The troops just walked in.	238909939	1478383638607	1478383638826	NA	32
467374	5033036	The troops just walked in.	The troops just walked in.	238909940	1478383638828	1478383638859	NA	73
467374	5033036	The troops just walked in.	The troops just walked in.	238909970	1478383639036	1478383639105		8
467374	5033036	The troops just walked in.	The troops just walked in.	238909971	1478383639155	1478383639226		8
467374	5033036	The troops just walked in.	The troops just walked in.	238909972	1478383639300	1478383639407		8
467374	5033036	The troops just walked in.	The troops just walked in.	238909973	1478383639433	1478383639506		8
467374	5033036	The troops just walked in.	The troops just walked in.	238909976	1478383639541	1478383639757	NA	32
467374	5033036	The troops just walked in.	The troops just walked in.	238910000	1478383640075	1478383640147		8
467374	5033036	The troops just walked in.	The troops just walked in.	238910003	1478383640208	1478383640318	NA	68
467374	5033036	The troops just walked in.	The troops just walked in.	238910008	1478383640282	1478383640498	NA	32
467374	5033036	The troops just walked in.	The troops just walked in.	238910011	1478383640462	1478383640686	NA	73
467374	5033036	The troops just walked in.	The troops just walked in.	238910045	1478383640606	1478383640757	NA	78
467374	5033036	The troops just walked in.	The troops just walked in.	238910047	1478383640721	1478383640863	NA	32
467374	5033036	The troops just walked in.	The troops just walked in.	238910051	1478383641191	1478383641262		8
467374	5033036	The troops just walked in.	The troops just walked in.	238910052	1478383641439	1478383641547	NA	190
467374	5033043	on Friday, October 26th.	on Friday, October 26th	238910229	1478383648491	1478383648787	NA	79
467374	5033043	on Friday, October 26th.	on Friday, October 26th	238910230	1478383648671	1478383648859	NA	78
467374	5033043	on Friday, October 26th.	on Friday, October 26th	238910231	1478383648789	1478383648964	NA	32
467374	5033043	on Friday, October 26th.	on Friday, October 26th	238910232	1478383648986	1478383649132	SHIFT	16
467374	5033043	on Friday, October 26th.	on Friday, October 26th	238910233	1478383649061	1478383649169	NA	70
467374	5033043	on Friday, October 26th.	on Friday, October 26th	238910234	1478383649283	1478383649424	NA	82
467374	5033043	on Friday, October 26th.	on Friday, October 26th	238910263	1478383649428	1478383649494	NA	73
467374	5033043	on Friday, October 26th.	on Friday, October 26th	238910265	1478383650145	1478383650326	NA	68
467374	5033043	on Friday, October 26th.	on Friday, October 26th	238910267	1478383650255	1478383650434	NA	65
467374	5033043	on Friday, October 26th.	on Friday, October 26th	238910269	1478383650657	1478383650764	NA	89
467374	5033043	on Friday, October 26th.	on Friday, October 26th	238910271	1478383651185	1478383651336	NA	188
467374	5033043	on Friday, October 26th.	on Friday, October 26th	238910294	1478383651296	1478383651479	NA	32
467374	5033043	on Friday, October 26th.	on Friday, October 26th	238910295	1478383651483	1478383651629	SHIFT	16
467374	5033043	on Friday, October 26th.	on Friday, October 26th	238910296	1478383651586	1478383651693	NA	79
467374	5033043	on Friday, October 26th.	on Friday, October 26th	238910298	1478383651789	1478383651968	NA	67
467374	5033043	on Friday, October 26th.	on Friday, October 26th	238910300	1478383651983	1478383652090	NA	79
467374	5033043	on Friday, October 26th.	on Friday, October 26th	238910302	1478383652113	1478383652216	NA	84
467374	5033043	on Friday, October 26th.	on Friday, October 26th	238910305	1478383652487	1478383652594		8
467374	5033043	on Friday, October 26th.	on Friday, October 26th	238910324	1478383652715	1478383652789		8
467374	5033043	on Friday, October 26th.	on Friday, October 26th	238910326	1478383652913	1478383653021	NA	84
467374	5033043	on Friday, October 26th.	on Friday, October 26th	238910328	1478383653056	1478383653165	NA	79
467374	5033043	on Friday, October 26th.	on Friday, October 26th	238910329	1478383653241	1478383653384	NA	66
467374	5033043	on Friday, October 26th.	on Friday, October 26th	238910330	1478383653451	1478383653633	NA	69
467374	5033043	on Friday, October 26th.	on Friday, October 26th	238910348	1478383653596	1478383653703	NA	82
467374	5033043	on Friday, October 26th.	on Friday, October 26th	238910350	1478383653747	1478383653857	NA	32
467374	5033043	on Friday, October 26th.	on Friday, October 26th	238910352	1478383654243	1478383654348	NA	50
467374	5033043	on Friday, October 26th.	on Friday, October 26th	238910353	1478383654821	1478383654893	NA	54
467374	5033043	on Friday, October 26th.	on Friday, October 26th	238910354	1478383655176	1478383655249	NA	84
467374	5033043	on Friday, October 26th.	on Friday, October 26th	238910355	1478383655255	1478383655317	NA	72
467374	5033050	Thanks, having a good time.	Thanks, having a good time.	238910420	1478383658630	1478383658779	SHIFT	16
467374	5033050	Thanks, having a good time.	Thanks, having a good time.	238910422	1478383658706	1478383658856	NA	84
467374	5033050	Thanks, having a good time.	Thanks, having a good time.	238910424	1478383658817	1478383658889	NA	72
467374	5033050	Thanks, having a good time.	Thanks, having a good time.	238910426	1478383658905	1478383659091	NA	65
467374	5033050	Thanks, having a good time.	Thanks, having a good time.	238910427	1478383659014	1478383659165	NA	78
467374	5033050	Thanks, having a good time.	Thanks, having a good time.	238910453	1478383659093	1478383659233	NA	75
467374	5033050	Thanks, having a good time.	Thanks, having a good time.	238910455	1478383659366	1478383659546	NA	83
467374	5033050	Thanks, having a good time.	Thanks, having a good time.	238910457	1478383659625	1478383659773	NA	188
467374	5033050	Thanks, having a good time.	Thanks, having a good time.	238910459	1478383659734	1478383659917	NA	32
467374	5033050	Thanks, having a good time.	Thanks, having a good time.	238910461	1478383659985	1478383660094	NA	72
467374	5033050	Thanks, having a good time.	Thanks, having a good time.	238910463	1478383660095	1478383660280	NA	65
467374	5033050	Thanks, having a good time.	Thanks, having a good time.	238910467	1478383660238	1478383660348	NA	86
467374	5033050	Thanks, having a good time.	Thanks, having a good time.	238910468	1478383660310	1478383660532	NA	73
467374	5033050	Thanks, having a good time.	Thanks, having a good time.	238910469	1478383660457	1478383660641	NA	78
467374	5033050	Thanks, having a good time.	Thanks, having a good time.	238910470	1478383660569	1478383660678	NA	71
467374	5033050	Thanks, having a good time.	Thanks, having a good time.	238910471	1478383660680	1478383660820	NA	32
467374	5033050	Thanks, having a good time.	Thanks, having a good time.	238910491	1478383660786	1478383660931	NA	65
467374	5033050	Thanks, having a good time.	Thanks, having a good time.	238910492	1478383660896	1478383661037	NA	32
467374	5033050	Thanks, having a good time.	Thanks, having a good time.	238910493	1478383661039	1478383661149	NA	71
467374	5033050	Thanks, having a good time.	Thanks, having a good time.	238910494	1478383661150	1478383661219	NA	79
467374	5033050	Thanks, having a good time.	Thanks, having a good time.	238910495	1478383661278	1478383661384	NA	79
467374	5033050	Thanks, having a good time.	Thanks, having a good time.	238910496	1478383661386	1478383661565	NA	68
467374	5033050	Thanks, having a good time.	Thanks, having a good time.	238910499	1478383661571	1478383661709	NA	32
467374	5033050	Thanks, having a good time.	Thanks, having a good time.	238910501	1478383661671	1478383661780	NA	84
467374	5033050	Thanks, having a good time.	Thanks, having a good time.	238910502	1478383661787	1478383661929	NA	73
467374	5033050	Thanks, having a good time.	Thanks, having a good time.	238910504	1478383661890	1478383662001	NA	77
467374	5033050	Thanks, having a good time.	Thanks, having a good time.	238910507	1478383661962	1478383662071	NA	69
467374	5033050	Thanks, having a good time.	Thanks, having a good time.	238910510	1478383662161	1478383662270	NA	190
467374	5033053	US ships will also lead a second task force.	US ships will also lead a second task force.	238910629	1478383666847	1478383667029	SHIFT	16
467374	5033053	US ships will also lead a second task force.	US ships will also lead a second task force.	238910630	1478383666920	1478383667063	NA	85
467374	5033053	US ships will also lead a second task force.	US ships will also lead a second task force.	238910632	1478383667374	1478383667630	SHIFT	16
467374	5033053	US ships will also lead a second task force.	US ships will also lead a second task force.	238910631	1478383667445	1478383667593	NA	83
467374	5033053	US ships will also lead a second task force.	US ships will also lead a second task force.	238910633	1478383667810	1478383667993	NA	32
467374	5033053	US ships will also lead a second task force.	US ships will also lead a second task force.	238910634	1478383668019	1478383668170	NA	83
467374	5033053	US ships will also lead a second task force.	US ships will also lead a second task force.	238910656	1478383668131	1478383668324	NA	72
467374	5033053	US ships will also lead a second task force.	US ships will also lead a second task force.	238910657	1478383668206	1478383668428	NA	73
467374	5033053	US ships will also lead a second task force.	US ships will also lead a second task force.	238910658	1478383668434	1478383668572	NA	80
467374	5033053	US ships will also lead a second task force.	US ships will also lead a second task force.	238910659	1478383669059	1478383669207	NA	83
467374	5033053	US ships will also lead a second task force.	US ships will also lead a second task force.	238910660	1478383669342	1478383669485	NA	32
467374	5033053	US ships will also lead a second task force.	US ships will also lead a second task force.	238910661	1478383669520	1478383669660	NA	87
467374	5033053	US ships will also lead a second task force.	US ships will also lead a second task force.	238910675	1478383669591	1478383669664	NA	73
467374	5033053	US ships will also lead a second task force.	US ships will also lead a second task force.	238910678	1478383669752	1478383669825	NA	76
467374	5033053	US ships will also lead a second task force.	US ships will also lead a second task force.	238910681	1478383669917	1478383669986	NA	76
467374	5033053	US ships will also lead a second task force.	US ships will also lead a second task force.	238910684	1478383669954	1478383670210	NA	32
467374	5033053	US ships will also lead a second task force.	US ships will also lead a second task force.	238910687	1478383670138	1478383670278	NA	65
467374	5033053	US ships will also lead a second task force.	US ships will also lead a second task force.	238910689	1478383670650	1478383670794	NA	76
467374	5033053	US ships will also lead a second task force.	US ships will also lead a second task force.	238910696	1478383670913	1478383671060	NA	83
467374	5033053	US ships will also lead a second task force.	US ships will also lead a second task force.	238910697	1478383671061	1478383671168	NA	79
467374	5033053	US ships will also lead a second task force.	US ships will also lead a second task force.	238910699	1478383671172	1478383671384	NA	32
467374	5033053	US ships will also lead a second task force.	US ships will also lead a second task force.	238910701	1478383671400	1478383671582	NA	76
467374	5033053	US ships will also lead a second task force.	US ships will also lead a second task force.	238910703	1478383671588	1478383671761	NA	69
467374	5033053	US ships will also lead a second task force.	US ships will also lead a second task force.	238910713	1478383671725	1478383671868	NA	65
467374	5033053	US ships will also lead a second task force.	US ships will also lead a second task force.	238910715	1478383671949	1478383672092	NA	68
467374	5033053	US ships will also lead a second task force.	US ships will also lead a second task force.	238910716	1478383672057	1478383672200	NA	32
467374	5033053	US ships will also lead a second task force.	US ships will also lead a second task force.	238910717	1478383672206	1478383672348	NA	65
467374	5033053	US ships will also lead a second task force.	US ships will also lead a second task force.	238910718	1478383672308	1478383672420	NA	32
467374	5033053	US ships will also lead a second task force.	US ships will also lead a second task force.	238910719	1478383672445	1478383672621	NA	83
467374	5033053	US ships will also lead a second task force.	US ships will also lead a second task force.	238910727	1478383672626	1478383672766	NA	79
467374	5033053	US ships will also lead a second task force.	US ships will also lead a second task force.	238910731	1478383672966	1478383673042		8
467374	5033053	US ships will also lead a second task force.	US ships will also lead a second task force.	238910734	1478383673125	1478383673239	NA	69
467374	5033053	US ships will also lead a second task force.	US ships will also lead a second task force.	238910736	1478383673386	1478383673526	NA	67
467374	5033053	US ships will also lead a second task force.	US ships will also lead a second task force.	238910745	1478383673453	1478383673668	NA	79
467374	5033053	US ships will also lead a second task force.	US ships will also lead a second task force.	238910746	1478383673561	1478383673703	NA	78
467374	5033053	US ships will also lead a second task force.	US ships will also lead a second task force.	238910747	1478383673776	1478383673887	NA	68
467374	5033053	US ships will also lead a second task force.	US ships will also lead a second task force.	238910748	1478383673905	1478383674082	NA	32
467374	5033053	US ships will also lead a second task force.	US ships will also lead a second task force.	238910749	1478383674337	1478383674482	NA	84
467374	5033053	US ships will also lead a second task force.	US ships will also lead a second task force.	238910764	1478383674444	1478383674623	NA	65
467374	5033053	US ships will also lead a second task force.	US ships will also lead a second task force.	238910765	1478383674725	1478383674905	NA	83
467374	5033053	US ships will also lead a second task force.	US ships will also lead a second task force.	238910766	1478383674912	1478383675129	NA	75
467374	5033053	US ships will also lead a second task force.	US ships will also lead a second task force.	238910767	1478383675057	1478383675237	NA	32
467374	5033053	US ships will also lead a second task force.	US ships will also lead a second task force.	238910769	1478383675280	1478383675425	NA	70
467374	5033053	US ships will also lead a second task force.	US ships will also lead a second task force.	238910810	1478383675388	1478383675533	NA	79
467374	5033053	US ships will also lead a second task force.	US ships will also lead a second task force.	238910811	1478383675535	1478383675603	NA	82
467374	5033053	US ships will also lead a second task force.	US ships will also lead a second task force.	238910812	1478383676090	1478383676199	NA	67
467374	5033053	US ships will also lead a second task force.	US ships will also lead a second task force.	238910813	1478383676285	1478383676393	NA	69
467374	5033053	US ships will also lead a second task force.	US ships will also lead a second task force.	238910814	1478383676427	1478383676536	NA	190
467374	5033059	France would not join a US military invasion of Haiti.	France would not join a US military invasion of Haiti.	238910917	1478383681718	1478383681906	SHIFT	16
467374	5033059	France would not join a US military invasion of Haiti.	France would not join a US military invasion of Haiti.	238910918	1478383681793	1478383681938	NA	70
467374	5033059	France would not join a US military invasion of Haiti.	France would not join a US military invasion of Haiti.	238910919	1478383682050	1478383682234	NA	82
467374	5033059	France would not join a US military invasion of Haiti.	France would not join a US military invasion of Haiti.	238910920	1478383682197	1478383682341	NA	65
467374	5033059	France would not join a US military invasion of Haiti.	France would not join a US military invasion of Haiti.	238910921	1478383682306	1478383682449	NA	78
467374	5033059	France would not join a US military invasion of Haiti.	France would not join a US military invasion of Haiti.	238910922	1478383682503	1478383682613	NA	67
467374	5033059	France would not join a US military invasion of Haiti.	France would not join a US military invasion of Haiti.	238910931	1478383682723	1478383682834	NA	69
467374	5033059	France would not join a US military invasion of Haiti.	France would not join a US military invasion of Haiti.	238910933	1478383682837	1478383682978	NA	32
467374	5033059	France would not join a US military invasion of Haiti.	France would not join a US military invasion of Haiti.	238910938	1478383682981	1478383683085	NA	87
467374	5033059	France would not join a US military invasion of Haiti.	France would not join a US military invasion of Haiti.	238910940	1478383683090	1478383683266	NA	79
467374	5033059	France would not join a US military invasion of Haiti.	France would not join a US military invasion of Haiti.	238910953	1478383683228	1478383683379	NA	85
467374	5033059	France would not join a US military invasion of Haiti.	France would not join a US military invasion of Haiti.	238910955	1478383683338	1478383683445	NA	76
467374	5033059	France would not join a US military invasion of Haiti.	France would not join a US military invasion of Haiti.	238910956	1478383683447	1478383683561	NA	68
467374	5033059	France would not join a US military invasion of Haiti.	France would not join a US military invasion of Haiti.	238910957	1478383683522	1478383683703	NA	32
467374	5033059	France would not join a US military invasion of Haiti.	France would not join a US military invasion of Haiti.	238910958	1478383683670	1478383683888	NA	78
467374	5033059	France would not join a US military invasion of Haiti.	France would not join a US military invasion of Haiti.	238910975	1478383683811	1478383683960	NA	79
467374	5033059	France would not join a US military invasion of Haiti.	France would not join a US military invasion of Haiti.	238910976	1478383683964	1478383684066	NA	84
467374	5033059	France would not join a US military invasion of Haiti.	France would not join a US military invasion of Haiti.	238910977	1478383684090	1478383684273	NA	32
467374	5033059	France would not join a US military invasion of Haiti.	France would not join a US military invasion of Haiti.	238910978	1478383684307	1478383684529	NA	74
467374	5033059	France would not join a US military invasion of Haiti.	France would not join a US military invasion of Haiti.	238910979	1478383684454	1478383684717	NA	79
467374	5033059	France would not join a US military invasion of Haiti.	France would not join a US military invasion of Haiti.	238910992	1478383684601	1478383684824	NA	73
467374	5033059	France would not join a US military invasion of Haiti.	France would not join a US military invasion of Haiti.	238910995	1478383684789	1478383684967	NA	78
467374	5033059	France would not join a US military invasion of Haiti.	France would not join a US military invasion of Haiti.	238910996	1478383684986	1478383685164	NA	32
467374	5033059	France would not join a US military invasion of Haiti.	France would not join a US military invasion of Haiti.	238910997	1478383685125	1478383685273	NA	65
467374	5033059	France would not join a US military invasion of Haiti.	France would not join a US military invasion of Haiti.	238910998	1478383685238	1478383685387	NA	32
467374	5033059	France would not join a US military invasion of Haiti.	France would not join a US military invasion of Haiti.	238910999	1478383685522	1478383685771	SHIFT	16
467374	5033059	France would not join a US military invasion of Haiti.	France would not join a US military invasion of Haiti.	238911017	1478383685594	1478383685780	NA	85
467374	5033059	France would not join a US military invasion of Haiti.	France would not join a US military invasion of Haiti.	238911019	1478383685858	1478383686151	SHIFT	16
467374	5033059	France would not join a US military invasion of Haiti.	France would not join a US military invasion of Haiti.	238911018	1478383685970	1478383686113	NA	83
467374	5033059	France would not join a US military invasion of Haiti.	France would not join a US military invasion of Haiti.	238911020	1478383686198	1478383686342	NA	32
467374	5033059	France would not join a US military invasion of Haiti.	France would not join a US military invasion of Haiti.	238911021	1478383686806	1478383686990	NA	77
467374	5033059	France would not join a US military invasion of Haiti.	France would not join a US military invasion of Haiti.	238911022	1478383686917	1478383687057	NA	73
467374	5033059	France would not join a US military invasion of Haiti.	France would not join a US military invasion of Haiti.	238911023	1478383687113	1478383687331	NA	76
467374	5033059	France would not join a US military invasion of Haiti.	France would not join a US military invasion of Haiti.	238911041	1478383687296	1478383687399	NA	73
467374	5033059	France would not join a US military invasion of Haiti.	France would not join a US military invasion of Haiti.	238911044	1478383687471	1478383687649	NA	84
467374	5033059	France would not join a US military invasion of Haiti.	France would not join a US military invasion of Haiti.	238911046	1478383687696	1478383687896	NA	65
467374	5033059	France would not join a US military invasion of Haiti.	France would not join a US military invasion of Haiti.	238911048	1478383687843	1478383687952	NA	82
467374	5033059	France would not join a US military invasion of Haiti.	France would not join a US military invasion of Haiti.	238911051	1478383688053	1478383688201	NA	89
467374	5033059	France would not join a US military invasion of Haiti.	France would not join a US military invasion of Haiti.	238911066	1478383688162	1478383688342	NA	32
467374	5033059	France would not join a US military invasion of Haiti.	France would not join a US military invasion of Haiti.	238911069	1478383688389	1478383688608	NA	73
467374	5033059	France would not join a US military invasion of Haiti.	France would not join a US military invasion of Haiti.	238911072	1478383688573	1478383688676	NA	78
467374	5033059	France would not join a US military invasion of Haiti.	France would not join a US military invasion of Haiti.	238911075	1478383688719	1478383688862	NA	86
467374	5033059	France would not join a US military invasion of Haiti.	France would not join a US military invasion of Haiti.	238911078	1478383688868	1478383689041	NA	65
467374	5033059	France would not join a US military invasion of Haiti.	France would not join a US military invasion of Haiti.	238911081	1478383689249	1478383689428	NA	83
467374	5033059	France would not join a US military invasion of Haiti.	France would not join a US military invasion of Haiti.	238911086	1478383689434	1478383689737	NA	73
467374	5033059	France would not join a US military invasion of Haiti.	France would not join a US military invasion of Haiti.	238911088	1478383689538	1478383689743	NA	79
467374	5033059	France would not join a US military invasion of Haiti.	France would not join a US military invasion of Haiti.	238911090	1478383689659	1478383689809	NA	78
467374	5033059	France would not join a US military invasion of Haiti.	France would not join a US military invasion of Haiti.	238911092	1478383689810	1478383689950	NA	32
467374	5033059	France would not join a US military invasion of Haiti.	France would not join a US military invasion of Haiti.	238911124	1478383689918	1478383690057	NA	79
467374	5033059	France would not join a US military invasion of Haiti.	France would not join a US military invasion of Haiti.	238911126	1478383690065	1478383690214	NA	70
467374	5033059	France would not join a US military invasion of Haiti.	France would not join a US military invasion of Haiti.	238911128	1478383690175	1478383690321	NA	32
467374	5033059	France would not join a US military invasion of Haiti.	France would not join a US military invasion of Haiti.	238911130	1478383690353	1478383690568	SHIFT	16
467374	5033059	France would not join a US military invasion of Haiti.	France would not join a US military invasion of Haiti.	238911131	1478383690464	1478383690575	NA	72
467374	5033059	France would not join a US military invasion of Haiti.	France would not join a US military invasion of Haiti.	238911132	1478383690711	1478383690888	NA	65
467374	5033059	France would not join a US military invasion of Haiti.	France would not join a US military invasion of Haiti.	238911133	1478383691082	1478383691189	NA	73
467374	5033059	France would not join a US military invasion of Haiti.	France would not join a US military invasion of Haiti.	238911150	1478383691326	1478383691429	NA	84
467374	5033059	France would not join a US military invasion of Haiti.	France would not join a US military invasion of Haiti.	238911152	1478383691563	1478383691673	NA	73
467374	5033059	France would not join a US military invasion of Haiti.	France would not join a US military invasion of Haiti.	238911154	1478383691906	1478383691976	NA	190
467374	5033066	Please call me if you have any questions.	Please call me if you have any questions.	238911266	1478383695856	1478383696107	SHIFT	16
467374	5033066	Please call me if you have any questions.	Please call me if you have any questions.	238911265	1478383695963	1478383696070	NA	80
467374	5033066	Please call me if you have any questions.	Please call me if you have any questions.	238911267	1478383696231	1478383696414	NA	76
467374	5033066	Please call me if you have any questions.	Please call me if you have any questions.	238911268	1478383696336	1478383696490	NA	69
467374	5033066	Please call me if you have any questions.	Please call me if you have any questions.	238911269	1478383696415	1478383696634	NA	65
467374	5033066	Please call me if you have any questions.	Please call me if you have any questions.	238911270	1478383696640	1478383696891	NA	83
467374	5033066	Please call me if you have any questions.	Please call me if you have any questions.	238911296	1478383696776	1478383696924	NA	69
467374	5033066	Please call me if you have any questions.	Please call me if you have any questions.	238911299	1478383696940	1478383697119	NA	32
467374	5033066	Please call me if you have any questions.	Please call me if you have any questions.	238911303	1478383697223	1478383697408	NA	67
467374	5033066	Please call me if you have any questions.	Please call me if you have any questions.	238911307	1478383697333	1478383697517	NA	65
467374	5033066	Please call me if you have any questions.	Please call me if you have any questions.	238911311	1478383697479	1478383697550	NA	76
467374	5033066	Please call me if you have any questions.	Please call me if you have any questions.	238911316	1478383697613	1478383697688	NA	76
467374	5033066	Please call me if you have any questions.	Please call me if you have any questions.	238911327	1478383697694	1478383697865	NA	32
467374	5033066	Please call me if you have any questions.	Please call me if you have any questions.	238911328	1478383697867	1478383697974	NA	77
467374	5033066	Please call me if you have any questions.	Please call me if you have any questions.	238911329	1478383697975	1478383698118	NA	69
467374	5033066	Please call me if you have any questions.	Please call me if you have any questions.	238911331	1478383698082	1478383698304	NA	32
467374	5033066	Please call me if you have any questions.	Please call me if you have any questions.	238911351	1478383698227	1478383698378	NA	73
467374	5033066	Please call me if you have any questions.	Please call me if you have any questions.	238911353	1478383698381	1478383698446	NA	70
467374	5033066	Please call me if you have any questions.	Please call me if you have any questions.	238911355	1478383698448	1478383698630	NA	32
467374	5033066	Please call me if you have any questions.	Please call me if you have any questions.	238911357	1478383698590	1478383698738	NA	89
467374	5033066	Please call me if you have any questions.	Please call me if you have any questions.	238911359	1478383698744	1478383698929	NA	79
467374	5033066	Please call me if you have any questions.	Please call me if you have any questions.	238911370	1478383698844	1478383699005	NA	85
467374	5033066	Please call me if you have any questions.	Please call me if you have any questions.	238911372	1478383698933	1478383699149	NA	32
467374	5033066	Please call me if you have any questions.	Please call me if you have any questions.	238911376	1478383699151	1478383699255	NA	72
467374	5033066	Please call me if you have any questions.	Please call me if you have any questions.	238911378	1478383699219	1478383699399	NA	65
467374	5033066	Please call me if you have any questions.	Please call me if you have any questions.	238911380	1478383699327	1478383699471	NA	86
467374	5033066	Please call me if you have any questions.	Please call me if you have any questions.	238911386	1478383699434	1478383699580	NA	69
467374	5033066	Please call me if you have any questions.	Please call me if you have any questions.	238911388	1478383699585	1478383699724	NA	32
467374	5033066	Please call me if you have any questions.	Please call me if you have any questions.	238911391	1478383699729	1478383699866	NA	65
467374	5033066	Please call me if you have any questions.	Please call me if you have any questions.	238911394	1478383699830	1478383699935	NA	78
467374	5033066	Please call me if you have any questions.	Please call me if you have any questions.	238911397	1478383700057	1478383700164	NA	89
467374	5033066	Please call me if you have any questions.	Please call me if you have any questions.	238911399	1478383700217	1478383700400	NA	32
467374	5033066	Please call me if you have any questions.	Please call me if you have any questions.	238911415	1478383700549	1478383700696	NA	81
467374	5033066	Please call me if you have any questions.	Please call me if you have any questions.	238911416	1478383700657	1478383700767	NA	85
467374	5033066	Please call me if you have any questions.	Please call me if you have any questions.	238911417	1478383700774	1478383700946	NA	69
467374	5033066	Please call me if you have any questions.	Please call me if you have any questions.	238911419	1478383700953	1478383701171	NA	83
467374	5033066	Please call me if you have any questions.	Please call me if you have any questions.	238911441	1478383701132	1478383701244	NA	84
467374	5033066	Please call me if you have any questions.	Please call me if you have any questions.	238911443	1478383701206	1478383701472	NA	73
467374	5033066	Please call me if you have any questions.	Please call me if you have any questions.	238911444	1478383701279	1478383701478	NA	79
467374	5033066	Please call me if you have any questions.	Please call me if you have any questions.	238911445	1478383701394	1478383701576	NA	78
467374	5033066	Please call me if you have any questions.	Please call me if you have any questions.	238911447	1478383701583	1478383701727	NA	83
467374	5033066	Please call me if you have any questions.	Please call me if you have any questions.	238911450	1478383701797	1478383701903	NA	190
