PARTICIPANT_ID	TEST_SECTION_ID	SENTENCE	USER_INPUT	KEYSTROKE_ID	PRESS_TIME	RELEASE_TIME	LETTER	KEYCODE
472835	5092636	I will need to have my memory refreshed.	i will need to have my memory refreshed	241751713	1478494686675	1478494686784	i	73
472835	5092636	I will need to have my memory refreshed.	i will need to have my memory refreshed	241751715	1478494686992	1478494687076	 	32
472835	5092636	I will need to have my memory refreshed.	i will need to have my memory refreshed	241751717	1478494687068	1478494687167	w	87
472835	5092636	I will need to have my memory refreshed.	i will need to have my memory refreshed	241751719	1478494687167	1478494687218	i	73
472835	5092636	I will need to have my memory refreshed.	i will need to have my memory refreshed	241751722	1478494687327	1478494687386	l	76
472835	5092636	I will need to have my memory refreshed.	i will need to have my memory refreshed	241751731	1478494687441	1478494687517	l	76
472835	5092636	I will need to have my memory refreshed.	i will need to have my memory refreshed	241751735	1478494687596	1478494687652	 	32
472835	5092636	I will need to have my memory refreshed.	i will need to have my memory refreshed	241751738	1478494687702	1478494687770	n	78
472835	5092636	I will need to have my memory refreshed.	i will need to have my memory refreshed	241751743	1478494687786	1478494687867	e	69
472835	5092636	I will need to have my memory refreshed.	i will need to have my memory refreshed	241751747	1478494687930	1478494688033	e	69
472835	5092636	I will need to have my memory refreshed.	i will need to have my memory refreshed	241751764	1478494688094	1478494688184	d	68
472835	5092636	I will need to have my memory refreshed.	i will need to have my memory refreshed	241751765	1478494688184	1478494688252	 	32
472835	5092636	I will need to have my memory refreshed.	i will need to have my memory refreshed	241751766	1478494688283	1478494688352	t	84
472835	5092636	I will need to have my memory refreshed.	i will need to have my memory refreshed	241751767	1478494688352	1478494688403	o	79
472835	5092636	I will need to have my memory refreshed.	i will need to have my memory refreshed	241751768	1478494688481	1478494688567	 	32
472835	5092636	I will need to have my memory refreshed.	i will need to have my memory refreshed	241751783	1478494688606	1478494688700	h	72
472835	5092636	I will need to have my memory refreshed.	i will need to have my memory refreshed	241751785	1478494688684	1478494688762	a	65
472835	5092636	I will need to have my memory refreshed.	i will need to have my memory refreshed	241751787	1478494688809	1478494688868	v	86
472835	5092636	I will need to have my memory refreshed.	i will need to have my memory refreshed	241751788	1478494688884	1478494688951	e	69
472835	5092636	I will need to have my memory refreshed.	i will need to have my memory refreshed	241751789	1478494688967	1478494689060	 	32
472835	5092636	I will need to have my memory refreshed.	i will need to have my memory refreshed	241751801	1478494689137	1478494689204	m	77
472835	5092636	I will need to have my memory refreshed.	i will need to have my memory refreshed	241751802	1478494689185	1478494689252	y	89
472835	5092636	I will need to have my memory refreshed.	i will need to have my memory refreshed	241751803	1478494689315	1478494689400	 	32
472835	5092636	I will need to have my memory refreshed.	i will need to have my memory refreshed	241751804	1478494689463	1478494689539	m	77
472835	5092636	I will need to have my memory refreshed.	i will need to have my memory refreshed	241751805	1478494689554	1478494689635	e	69
472835	5092636	I will need to have my memory refreshed.	i will need to have my memory refreshed	241751819	1478494689694	1478494689798	m	77
472835	5092636	I will need to have my memory refreshed.	i will need to have my memory refreshed	241751820	1478494689866	1478494689996	o	79
472835	5092636	I will need to have my memory refreshed.	i will need to have my memory refreshed	241751821	1478494690050	1478494690149	r	82
472835	5092636	I will need to have my memory refreshed.	i will need to have my memory refreshed	241751822	1478494690274	1478494690351	y	89
472835	5092636	I will need to have my memory refreshed.	i will need to have my memory refreshed	241751825	1478494690429	1478494690540	 	32
472835	5092636	I will need to have my memory refreshed.	i will need to have my memory refreshed	241751846	1478494690516	1478494690599	r	82
472835	5092636	I will need to have my memory refreshed.	i will need to have my memory refreshed	241751849	1478494690677	1478494690767	e	69
472835	5092636	I will need to have my memory refreshed.	i will need to have my memory refreshed	241751851	1478494690862	1478494690949	f	70
472835	5092636	I will need to have my memory refreshed.	i will need to have my memory refreshed	241751853	1478494691027	1478494691148	e	69
472835	5092636	I will need to have my memory refreshed.	i will need to have my memory refreshed	241751855	1478494691415	1478494691517	BKSP	8
472835	5092636	I will need to have my memory refreshed.	i will need to have my memory refreshed	241751857	1478494691532	1478494691617	r	82
472835	5092636	I will need to have my memory refreshed.	i will need to have my memory refreshed	241751859	1478494691684	1478494691783	e	69
472835	5092636	I will need to have my memory refreshed.	i will need to have my memory refreshed	241751875	1478494691875	1478494691981	s	83
472835	5092636	I will need to have my memory refreshed.	i will need to have my memory refreshed	241751877	1478494692101	1478494692168	h	72
472835	5092636	I will need to have my memory refreshed.	i will need to have my memory refreshed	241751878	1478494692200	1478494692283	e	69
472835	5092636	I will need to have my memory refreshed.	i will need to have my memory refreshed	241751880	1478494692345	1478494692449	d	68
472835	5092644	His current status is day to day.	his current status is day to day	241751928	1478494696686	1478494696750	h	72
472835	5092644	His current status is day to day.	his current status is day to day	241751929	1478494696843	1478494696915	i	73
472835	5092644	His current status is day to day.	his current status is day to day	241751931	1478494696930	1478494696998	s	83
472835	5092644	His current status is day to day.	his current status is day to day	241751933	1478494697014	1478494697118	 	32
472835	5092644	His current status is day to day.	his current status is day to day	241751939	1478494697099	1478494697183	c	67
472835	5092644	His current status is day to day.	his current status is day to day	241751941	1478494697183	1478494697250	u	85
472835	5092644	His current status is day to day.	his current status is day to day	241751943	1478494697297	1478494697365	r	82
472835	5092644	His current status is day to day.	his current status is day to day	241751945	1478494697443	1478494697515	r	82
472835	5092644	His current status is day to day.	his current status is day to day	241751948	1478494697594	1478494697696	e	69
472835	5092644	His current status is day to day.	his current status is day to day	241751951	1478494697701	1478494697765	n	78
472835	5092644	His current status is day to day.	his current status is day to day	241751964	1478494697793	1478494697866	t	84
472835	5092644	His current status is day to day.	his current status is day to day	241751967	1478494697866	1478494697963	 	32
472835	5092644	His current status is day to day.	his current status is day to day	241751970	1478494697978	1478494698065	s	83
472835	5092644	His current status is day to day.	his current status is day to day	241751973	1478494698096	1478494698166	t	84
472835	5092644	His current status is day to day.	his current status is day to day	241751977	1478494698181	1478494698272	a	65
472835	5092644	His current status is day to day.	his current status is day to day	241751994	1478494698248	1478494698315	t	84
472835	5092644	His current status is day to day.	his current status is day to day	241751996	1478494698409	1478494698498	u	85
472835	5092644	His current status is day to day.	his current status is day to day	241751999	1478494698514	1478494698597	s	83
472835	5092644	His current status is day to day.	his current status is day to day	241752002	1478494698597	1478494698681	 	32
472835	5092644	His current status is day to day.	his current status is day to day	241752003	1478494698721	1478494698800	i	73
472835	5092644	His current status is day to day.	his current status is day to day	241752004	1478494698832	1478494698899	d	68
472835	5092644	His current status is day to day.	his current status is day to day	241752026	1478494698947	1478494699031	 	32
472835	5092644	His current status is day to day.	his current status is day to day	241752029	1478494699172	1478494699232	BKSP	8
472835	5092644	His current status is day to day.	his current status is day to day	241752031	1478494699310	1478494699382	BKSP	8
472835	5092644	His current status is day to day.	his current status is day to day	241752032	1478494699444	1478494699538	s	83
472835	5092644	His current status is day to day.	his current status is day to day	241752033	1478494699585	1478494699681	 	32
472835	5092644	His current status is day to day.	his current status is day to day	241752034	1478494699824	1478494699882	d	68
472835	5092644	His current status is day to day.	his current status is day to day	241752035	1478494699976	1478494700083	a	65
472835	5092644	His current status is day to day.	his current status is day to day	241752047	1478494700049	1478494700127	y	89
472835	5092644	His current status is day to day.	his current status is day to day	241752049	1478494700173	1478494700292	 	32
472835	5092644	His current status is day to day.	his current status is day to day	241752051	1478494700263	1478494700332	t	84
472835	5092644	His current status is day to day.	his current status is day to day	241752053	1478494700379	1478494700433	o	79
472835	5092644	His current status is day to day.	his current status is day to day	241752055	1478494700480	1478494700607	 	32
472835	5092644	His current status is day to day.	his current status is day to day	241752057	1478494700596	1478494700665	d	68
472835	5092644	His current status is day to day.	his current status is day to day	241752061	1478494700745	1478494700863	a	65
472835	5092644	His current status is day to day.	his current status is day to day	241752064	1478494700828	1478494700867	y	89
472835	5092647	This is all so unreal.	this is all so unreal/	241752143	1478494704099	1478494704166	t	84
472835	5092647	This is all so unreal.	this is all so unreal/	241752144	1478494704181	1478494704265	h	72
472835	5092647	This is all so unreal.	this is all so unreal/	241752145	1478494704343	1478494704436	i	73
472835	5092647	This is all so unreal.	this is all so unreal/	241752146	1478494704400	1478494704497	s	83
472835	5092647	This is all so unreal.	this is all so unreal/	241752147	1478494704528	1478494704628	 	32
472835	5092647	This is all so unreal.	this is all so unreal/	241752148	1478494704687	1478494704748	i	73
472835	5092647	This is all so unreal.	this is all so unreal/	241752150	1478494704779	1478494704831	s	83
472835	5092647	This is all so unreal.	this is all so unreal/	241752152	1478494704831	1478494704947	 	32
472835	5092647	This is all so unreal.	this is all so unreal/	241752154	1478494704929	1478494705013	a	65
472835	5092647	This is all so unreal.	this is all so unreal/	241752156	1478494705044	1478494705098	l	76
472835	5092647	This is all so unreal.	this is all so unreal/	241752164	1478494705157	1478494705216	l	76
472835	5092647	This is all so unreal.	this is all so unreal/	241752165	1478494705279	1478494705381	 	32
472835	5092647	This is all so unreal.	this is all so unreal/	241752166	1478494705362	1478494705462	s	83
472835	5092647	This is all so unreal.	this is all so unreal/	241752167	1478494705462	1478494705528	o	79
472835	5092647	This is all so unreal.	this is all so unreal/	241752168	1478494705626	1478494705730	 	32
472835	5092647	This is all so unreal.	this is all so unreal/	241752174	1478494705775	1478494705881	u	85
472835	5092647	This is all so unreal.	this is all so unreal/	241752175	1478494705850	1478494705944	n	78
472835	5092647	This is all so unreal.	this is all so unreal/	241752176	1478494705960	1478494706045	r	82
472835	5092647	This is all so unreal.	this is all so unreal/	241752177	1478494706107	1478494706196	e	69
472835	5092647	This is all so unreal.	this is all so unreal/	241752178	1478494706274	1478494706385	a	65
472835	5092647	This is all so unreal.	this is all so unreal/	241752179	1478494706346	1478494706413	l	76
472835	5092647	This is all so unreal.	this is all so unreal/	241752180	1478494706538	1478494706628	/	191
472835	5092651	More jobs are to be eliminated this financial year.	more jobs are to be elimited this financial year	241752227	1478494709414	1478494709548	m	77
472835	5092651	More jobs are to be eliminated this financial year.	more jobs are to be elimited this financial year	241752228	1478494709512	1478494709648	o	79
472835	5092651	More jobs are to be eliminated this financial year.	more jobs are to be elimited this financial year	241752229	1478494709581	1478494709663	r	82
472835	5092651	More jobs are to be eliminated this financial year.	more jobs are to be elimited this financial year	241752230	1478494709710	1478494709842	e	69
472835	5092651	More jobs are to be eliminated this financial year.	more jobs are to be elimited this financial year	241752243	1478494709797	1478494709880	 	32
472835	5092651	More jobs are to be eliminated this financial year.	more jobs are to be elimited this financial year	241752244	1478494709911	1478494709980	j	74
472835	5092651	More jobs are to be eliminated this financial year.	more jobs are to be elimited this financial year	241752245	1478494710074	1478494710148	o	79
472835	5092651	More jobs are to be eliminated this financial year.	more jobs are to be elimited this financial year	241752246	1478494710283	1478494710333	b	66
472835	5092651	More jobs are to be eliminated this financial year.	more jobs are to be elimited this financial year	241752248	1478494710380	1478494710448	s	83
472835	5092651	More jobs are to be eliminated this financial year.	more jobs are to be elimited this financial year	241752250	1478494710464	1478494710565	 	32
472835	5092651	More jobs are to be eliminated this financial year.	more jobs are to be elimited this financial year	241752254	1478494710546	1478494710617	a	65
472835	5092651	More jobs are to be eliminated this financial year.	more jobs are to be elimited this financial year	241752255	1478494710726	1478494710812	r	82
472835	5092651	More jobs are to be eliminated this financial year.	more jobs are to be elimited this financial year	241752256	1478494710863	1478494710963	e	69
472835	5092651	More jobs are to be eliminated this financial year.	more jobs are to be elimited this financial year	241752257	1478494710963	1478494711047	 	32
472835	5092651	More jobs are to be eliminated this financial year.	more jobs are to be elimited this financial year	241752258	1478494711063	1478494711130	t	84
472835	5092651	More jobs are to be eliminated this financial year.	more jobs are to be elimited this financial year	241752259	1478494711130	1478494711196	o	79
472835	5092651	More jobs are to be eliminated this financial year.	more jobs are to be elimited this financial year	241752267	1478494711285	1478494711347	 	32
472835	5092651	More jobs are to be eliminated this financial year.	more jobs are to be elimited this financial year	241752269	1478494711441	1478494711497	b	66
472835	5092651	More jobs are to be eliminated this financial year.	more jobs are to be elimited this financial year	241752271	1478494711523	1478494711613	e	69
472835	5092651	More jobs are to be eliminated this financial year.	more jobs are to be elimited this financial year	241752273	1478494711628	1478494711712	 	32
472835	5092651	More jobs are to be eliminated this financial year.	more jobs are to be elimited this financial year	241752275	1478494712022	1478494712069	e	69
472835	5092651	More jobs are to be eliminated this financial year.	more jobs are to be elimited this financial year	241752281	1478494712189	1478494712294	l	76
472835	5092651	More jobs are to be eliminated this financial year.	more jobs are to be elimited this financial year	241752282	1478494712378	1478494712484	i	73
472835	5092651	More jobs are to be eliminated this financial year.	more jobs are to be elimited this financial year	241752283	1478494712448	1478494712628	m	77
472835	5092651	More jobs are to be eliminated this financial year.	more jobs are to be elimited this financial year	241752284	1478494712577	1478494712681	i	73
472835	5092651	More jobs are to be eliminated this financial year.	more jobs are to be elimited this financial year	241752291	1478494712632	1478494712708	t	84
472835	5092651	More jobs are to be eliminated this financial year.	more jobs are to be elimited this financial year	241752293	1478494712817	1478494712913	e	69
472835	5092651	More jobs are to be eliminated this financial year.	more jobs are to be elimited this financial year	241752295	1478494712960	1478494713062	d	68
472835	5092651	More jobs are to be eliminated this financial year.	more jobs are to be elimited this financial year	241752297	1478494713062	1478494713144	 	32
472835	5092651	More jobs are to be eliminated this financial year.	more jobs are to be elimited this financial year	241752299	1478494713146	1478494713229	t	84
472835	5092651	More jobs are to be eliminated this financial year.	more jobs are to be elimited this financial year	241752302	1478494713229	1478494713281	h	72
472835	5092651	More jobs are to be eliminated this financial year.	more jobs are to be elimited this financial year	241752306	1478494713351	1478494713449	i	73
472835	5092651	More jobs are to be eliminated this financial year.	more jobs are to be elimited this financial year	241752307	1478494713430	1478494713529	s	83
472835	5092651	More jobs are to be eliminated this financial year.	more jobs are to be elimited this financial year	241752309	1478494713497	1478494713613	 	32
472835	5092651	More jobs are to be eliminated this financial year.	more jobs are to be elimited this financial year	241752312	1478494713644	1478494713713	f	70
472835	5092651	More jobs are to be eliminated this financial year.	more jobs are to be elimited this financial year	241752315	1478494713713	1478494713829	i	73
472835	5092651	More jobs are to be eliminated this financial year.	more jobs are to be elimited this financial year	241752329	1478494713764	1478494713861	n	78
472835	5092651	More jobs are to be eliminated this financial year.	more jobs are to be elimited this financial year	241752332	1478494713892	1478494713963	a	65
472835	5092651	More jobs are to be eliminated this financial year.	more jobs are to be elimited this financial year	241752335	1478494713995	1478494714074	n	78
472835	5092651	More jobs are to be eliminated this financial year.	more jobs are to be elimited this financial year	241752337	1478494714121	1478494714181	c	67
472835	5092651	More jobs are to be eliminated this financial year.	more jobs are to be elimited this financial year	241752338	1478494714212	1478494714280	i	73
472835	5092651	More jobs are to be eliminated this financial year.	more jobs are to be elimited this financial year	241752339	1478494714312	1478494714395	a	65
472835	5092651	More jobs are to be eliminated this financial year.	more jobs are to be elimited this financial year	241752351	1478494714395	1478494714462	l	76
472835	5092651	More jobs are to be eliminated this financial year.	more jobs are to be elimited this financial year	241752352	1478494714540	1478494714629	 	32
472835	5092651	More jobs are to be eliminated this financial year.	more jobs are to be elimited this financial year	241752354	1478494714707	1478494714791	y	89
472835	5092651	More jobs are to be eliminated this financial year.	more jobs are to be elimited this financial year	241752355	1478494714779	1478494714830	e	69
472835	5092651	More jobs are to be eliminated this financial year.	more jobs are to be elimited this financial year	241752356	1478494714908	1478494714994	a	65
472835	5092651	More jobs are to be eliminated this financial year.	more jobs are to be elimited this financial year	241752358	1478494715109	1478494715164	r	82
472835	5092656	Estrada recently returned from Johannesburg.	estrada recently returned from Johannesburg	241752444	1478494719853	1478494719928	e	69
472835	5092656	Estrada recently returned from Johannesburg.	estrada recently returned from Johannesburg	241752446	1478494720768	1478494720876	s	83
472835	5092656	Estrada recently returned from Johannesburg.	estrada recently returned from Johannesburg	241752450	1478494720907	1478494720978	t	84
472835	5092656	Estrada recently returned from Johannesburg.	estrada recently returned from Johannesburg	241752457	1478494721040	1478494721125	r	82
472835	5092656	Estrada recently returned from Johannesburg.	estrada recently returned from Johannesburg	241752462	1478494721297	1478494721408	a	65
472835	5092656	Estrada recently returned from Johannesburg.	estrada recently returned from Johannesburg	241752485	1478494721544	1478494721626	d	68
472835	5092656	Estrada recently returned from Johannesburg.	estrada recently returned from Johannesburg	241752486	1478494721735	1478494721851	a	65
472835	5092656	Estrada recently returned from Johannesburg.	estrada recently returned from Johannesburg	241752487	1478494721898	1478494721993	 	32
472835	5092656	Estrada recently returned from Johannesburg.	estrada recently returned from Johannesburg	241752488	1478494722024	1478494722125	r	82
472835	5092656	Estrada recently returned from Johannesburg.	estrada recently returned from Johannesburg	241752489	1478494722187	1478494722260	e	69
472835	5092656	Estrada recently returned from Johannesburg.	estrada recently returned from Johannesburg	241752504	1478494722354	1478494722443	c	67
472835	5092656	Estrada recently returned from Johannesburg.	estrada recently returned from Johannesburg	241752505	1478494722505	1478494722592	e	69
472835	5092656	Estrada recently returned from Johannesburg.	estrada recently returned from Johannesburg	241752506	1478494722639	1478494722710	n	78
472835	5092656	Estrada recently returned from Johannesburg.	estrada recently returned from Johannesburg	241752507	1478494722727	1478494722809	t	84
472835	5092656	Estrada recently returned from Johannesburg.	estrada recently returned from Johannesburg	241752508	1478494722856	1478494722958	l	76
472835	5092656	Estrada recently returned from Johannesburg.	estrada recently returned from Johannesburg	241752521	1478494722970	1478494723043	y	89
472835	5092656	Estrada recently returned from Johannesburg.	estrada recently returned from Johannesburg	241752522	1478494723090	1478494723176	 	32
472835	5092656	Estrada recently returned from Johannesburg.	estrada recently returned from Johannesburg	241752523	1478494723222	1478494723340	r	82
472835	5092656	Estrada recently returned from Johannesburg.	estrada recently returned from Johannesburg	241752524	1478494723402	1478494723508	e	69
472835	5092656	Estrada recently returned from Johannesburg.	estrada recently returned from Johannesburg	241752525	1478494723617	1478494723677	t	84
472835	5092656	Estrada recently returned from Johannesburg.	estrada recently returned from Johannesburg	241752537	1478494723737	1478494723825	u	85
472835	5092656	Estrada recently returned from Johannesburg.	estrada recently returned from Johannesburg	241752539	1478494723840	1478494723924	r	82
472835	5092656	Estrada recently returned from Johannesburg.	estrada recently returned from Johannesburg	241752542	1478494723940	1478494724055	n	78
472835	5092656	Estrada recently returned from Johannesburg.	estrada recently returned from Johannesburg	241752546	1478494724041	1478494724125	e	69
472835	5092656	Estrada recently returned from Johannesburg.	estrada recently returned from Johannesburg	241752550	1478494724203	1478494724294	d	68
472835	5092656	Estrada recently returned from Johannesburg.	estrada recently returned from Johannesburg	241752562	1478494724331	1478494724422	 	32
472835	5092656	Estrada recently returned from Johannesburg.	estrada recently returned from Johannesburg	241752566	1478494724409	1478494724491	f	70
472835	5092656	Estrada recently returned from Johannesburg.	estrada recently returned from Johannesburg	241752569	1478494724554	1478494724641	r	82
472835	5092656	Estrada recently returned from Johannesburg.	estrada recently returned from Johannesburg	241752572	1478494724641	1478494724793	o	79
472835	5092656	Estrada recently returned from Johannesburg.	estrada recently returned from Johannesburg	241752588	1478494724726	1478494724806	m	77
472835	5092656	Estrada recently returned from Johannesburg.	estrada recently returned from Johannesburg	241752590	1478494724885	1478494725008	 	32
472835	5092656	Estrada recently returned from Johannesburg.	estrada recently returned from Johannesburg	241752592	1478494724992	1478494725145	SHIFT	16
472835	5092656	Estrada recently returned from Johannesburg.	estrada recently returned from Johannesburg	241752594	1478494725087	1478494725160	J	74
472835	5092656	Estrada recently returned from Johannesburg.	estrada recently returned from Johannesburg	241752596	1478494725267	1478494725340	o	79
472835	5092656	Estrada recently returned from Johannesburg.	estrada recently returned from Johannesburg	241752598	1478494725465	1478494725559	h	72
472835	5092656	Estrada recently returned from Johannesburg.	estrada recently returned from Johannesburg	241752599	1478494725638	1478494725693	a	65
472835	5092656	Estrada recently returned from Johannesburg.	estrada recently returned from Johannesburg	241752611	1478494725758	1478494725810	n	78
472835	5092656	Estrada recently returned from Johannesburg.	estrada recently returned from Johannesburg	241752613	1478494725919	1478494725991	n	78
472835	5092656	Estrada recently returned from Johannesburg.	estrada recently returned from Johannesburg	241752616	1478494726085	1478494726176	e	69
472835	5092656	Estrada recently returned from Johannesburg.	estrada recently returned from Johannesburg	241752619	1478494726294	1478494726390	s	83
472835	5092656	Estrada recently returned from Johannesburg.	estrada recently returned from Johannesburg	241752623	1478494726453	1478494726542	b	66
472835	5092656	Estrada recently returned from Johannesburg.	estrada recently returned from Johannesburg	241752643	1478494726593	1478494726731	u	85
472835	5092656	Estrada recently returned from Johannesburg.	estrada recently returned from Johannesburg	241752645	1478494726706	1478494726760	r	82
472835	5092656	Estrada recently returned from Johannesburg.	estrada recently returned from Johannesburg	241752647	1478494727218	1478494727259	g	71
472835	5092662	Task has to be completed.	task has to be completed	241752672	1478494730208	1478494730306	t	84
472835	5092662	Task has to be completed.	task has to be completed	241752678	1478494730447	1478494730525	a	65
472835	5092662	Task has to be completed.	task has to be completed	241752683	1478494730588	1478494730688	s	83
472835	5092662	Task has to be completed.	task has to be completed	241752691	1478494730659	1478494730726	k	75
472835	5092662	Task has to be completed.	task has to be completed	241752700	1478494730773	1478494730925	 	32
472835	5092662	Task has to be completed.	task has to be completed	241752707	1478494730890	1478494731009	h	72
472835	5092662	Task has to be completed.	task has to be completed	241752710	1478494730968	1478494731040	a	65
472835	5092662	Task has to be completed.	task has to be completed	241752714	1478494731103	1478494731176	s	83
472835	5092662	Task has to be completed.	task has to be completed	241752717	1478494731207	1478494731290	 	32
472835	5092662	Task has to be completed.	task has to be completed	241752719	1478494731321	1478494731376	t	84
472835	5092662	Task has to be completed.	task has to be completed	241752720	1478494731392	1478494731449	o	79
472835	5092662	Task has to be completed.	task has to be completed	241752724	1478494731524	1478494731592	 	32
472835	5092662	Task has to be completed.	task has to be completed	241752726	1478494731654	1478494731735	b	66
472835	5092662	Task has to be completed.	task has to be completed	241752728	1478494731725	1478494731791	e	69
472835	5092662	Task has to be completed.	task has to be completed	241752730	1478494731822	1478494731925	 	32
472835	5092662	Task has to be completed.	task has to be completed	241752739	1478494731891	1478494731994	c	67
472835	5092662	Task has to be completed.	task has to be completed	241752743	1478494731959	1478494732093	o	79
472835	5092662	Task has to be completed.	task has to be completed	241752747	1478494732055	1478494732124	m	77
472835	5092662	Task has to be completed.	task has to be completed	241752751	1478494732203	1478494732325	p	80
472835	5092662	Task has to be completed.	task has to be completed	241752754	1478494732259	1478494732356	l	76
472835	5092662	Task has to be completed.	task has to be completed	241752757	1478494732382	1478494732456	e	69
472835	5092662	Task has to be completed.	task has to be completed	241752765	1478494732518	1478494732599	t	84
472835	5092662	Task has to be completed.	task has to be completed	241752767	1478494732593	1478494732658	e	69
472835	5092665	Toomer has been inconsistent this season.	toomer has been inconsistent this season	241752912	1478494737588	1478494737656	t	84
472835	5092665	Toomer has been inconsistent this season.	toomer has been inconsistent this season	241752913	1478494737672	1478494737707	o	79
472835	5092665	Toomer has been inconsistent this season.	toomer has been inconsistent this season	241752914	1478494737785	1478494737888	o	79
472835	5092665	Toomer has been inconsistent this season.	toomer has been inconsistent this season	241752915	1478494737920	1478494737990	r	82
472835	5092665	Toomer has been inconsistent this season.	toomer has been inconsistent this season	241752917	1478494738052	1478494738153	m	77
472835	5092665	Toomer has been inconsistent this season.	toomer has been inconsistent this season	241752954	1478494738188	1478494738287	e	69
472835	5092665	Toomer has been inconsistent this season.	toomer has been inconsistent this season	241752957	1478494738350	1478494738408	r	82
472835	5092665	Toomer has been inconsistent this season.	toomer has been inconsistent this season	241752960	1478494738612	1478494738671	BKSP	8
472835	5092665	Toomer has been inconsistent this season.	toomer has been inconsistent this season	241752963	1478494738736	1478494738796	BKSP	8
472835	5092665	Toomer has been inconsistent this season.	toomer has been inconsistent this season	241752964	1478494738869	1478494738923	BKSP	8
472835	5092665	Toomer has been inconsistent this season.	toomer has been inconsistent this season	241752965	1478494738986	1478494739071	BKSP	8
472835	5092665	Toomer has been inconsistent this season.	toomer has been inconsistent this season	241752966	1478494739227	1478494739321	m	77
472835	5092665	Toomer has been inconsistent this season.	toomer has been inconsistent this season	241752967	1478494739337	1478494739421	e	69
472835	5092665	Toomer has been inconsistent this season.	toomer has been inconsistent this season	241752968	1478494739468	1478494739540	r	82
472835	5092665	Toomer has been inconsistent this season.	toomer has been inconsistent this season	241752969	1478494739540	1478494739671	 	32
472835	5092665	Toomer has been inconsistent this season.	toomer has been inconsistent this season	241752970	1478494739639	1478494739748	h	72
472835	5092665	Toomer has been inconsistent this season.	toomer has been inconsistent this season	241752971	1478494739721	1478494739788	a	65
472835	5092665	Toomer has been inconsistent this season.	toomer has been inconsistent this season	241752972	1478494739862	1478494739942	s	83
472835	5092665	Toomer has been inconsistent this season.	toomer has been inconsistent this season	241752986	1478494739890	1478494739956	 	32
472835	5092665	Toomer has been inconsistent this season.	toomer has been inconsistent this season	241752988	1478494740043	1478494740146	b	66
472835	5092665	Toomer has been inconsistent this season.	toomer has been inconsistent this season	241752990	1478494740137	1478494740190	e	69
472835	5092665	Toomer has been inconsistent this season.	toomer has been inconsistent this season	241752992	1478494740284	1478494740370	e	69
472835	5092665	Toomer has been inconsistent this season.	toomer has been inconsistent this season	241752994	1478494740370	1478494740440	n	78
472835	5092665	Toomer has been inconsistent this season.	toomer has been inconsistent this season	241752995	1478494740518	1478494740606	 	32
472835	5092665	Toomer has been inconsistent this season.	toomer has been inconsistent this season	241752996	1478494740666	1478494740790	i	73
472835	5092665	Toomer has been inconsistent this season.	toomer has been inconsistent this season	241752997	1478494740739	1478494740868	n	78
472835	5092665	Toomer has been inconsistent this season.	toomer has been inconsistent this season	241752998	1478494741024	1478494741089	c	67
472835	5092665	Toomer has been inconsistent this season.	toomer has been inconsistent this season	241752999	1478494741151	1478494741273	o	79
472835	5092665	Toomer has been inconsistent this season.	toomer has been inconsistent this season	241753012	1478494741205	1478494741311	n	78
472835	5092665	Toomer has been inconsistent this season.	toomer has been inconsistent this season	241753014	1478494741303	1478494741356	s	83
472835	5092665	Toomer has been inconsistent this season.	toomer has been inconsistent this season	241753016	1478494741403	1478494741471	i	73
472835	5092665	Toomer has been inconsistent this season.	toomer has been inconsistent this season	241753018	1478494741503	1478494741577	s	83
472835	5092665	Toomer has been inconsistent this season.	toomer has been inconsistent this season	241753020	1478494741692	1478494741757	t	84
472835	5092665	Toomer has been inconsistent this season.	toomer has been inconsistent this season	241753021	1478494741850	1478494741953	e	69
472835	5092665	Toomer has been inconsistent this season.	toomer has been inconsistent this season	241753022	1478494741962	1478494742021	n	78
472835	5092665	Toomer has been inconsistent this season.	toomer has been inconsistent this season	241753023	1478494742036	1478494742106	t	84
472835	5092665	Toomer has been inconsistent this season.	toomer has been inconsistent this season	241753024	1478494742122	1478494742218	 	32
472835	5092665	Toomer has been inconsistent this season.	toomer has been inconsistent this season	241753025	1478494742205	1478494742287	t	84
472835	5092665	Toomer has been inconsistent this season.	toomer has been inconsistent this season	241753026	1478494742287	1478494742340	h	72
472835	5092665	Toomer has been inconsistent this season.	toomer has been inconsistent this season	241753038	1478494742426	1478494742515	i	73
472835	5092665	Toomer has been inconsistent this season.	toomer has been inconsistent this season	241753040	1478494742504	1478494742588	s	83
472835	5092665	Toomer has been inconsistent this season.	toomer has been inconsistent this season	241753042	1478494742588	1478494742700	 	32
472835	5092665	Toomer has been inconsistent this season.	toomer has been inconsistent this season	241753043	1478494742693	1478494742776	s	83
472835	5092665	Toomer has been inconsistent this season.	toomer has been inconsistent this season	241753045	1478494742855	1478494742921	e	69
472835	5092665	Toomer has been inconsistent this season.	toomer has been inconsistent this season	241753051	1478494743011	1478494743104	a	65
472835	5092665	Toomer has been inconsistent this season.	toomer has been inconsistent this season	241753053	1478494743167	1478494743223	s	83
472835	5092665	Toomer has been inconsistent this season.	toomer has been inconsistent this season	241753056	1478494743270	1478494743372	o	79
472835	5092665	Toomer has been inconsistent this season.	toomer has been inconsistent this season	241753059	1478494743322	1478494743420	n	78
472835	5092671	Opposition leaders have urged him to call off the visit.	Opposition leaders have urged him to call of the visit/	241753176	1478494748197	1478494748396	SHIFT	16
472835	5092671	Opposition leaders have urged him to call off the visit.	Opposition leaders have urged him to call of the visit/	241753178	1478494748353	1478494748421	O	79
472835	5092671	Opposition leaders have urged him to call off the visit.	Opposition leaders have urged him to call of the visit/	241753180	1478494748515	1478494748588	p	80
472835	5092671	Opposition leaders have urged him to call off the visit.	Opposition leaders have urged him to call of the visit/	241753181	1478494748650	1478494748721	p	80
472835	5092671	Opposition leaders have urged him to call off the visit.	Opposition leaders have urged him to call of the visit/	241753182	1478494748827	1478494748949	o	79
472835	5092671	Opposition leaders have urged him to call off the visit.	Opposition leaders have urged him to call of the visit/	241753183	1478494749376	1478494749485	s	83
472835	5092671	Opposition leaders have urged him to call off the visit.	Opposition leaders have urged him to call of the visit/	241753189	1478494749504	1478494749587	i	73
472835	5092671	Opposition leaders have urged him to call off the visit.	Opposition leaders have urged him to call of the visit/	241753191	1478494749634	1478494749720	t	84
472835	5092671	Opposition leaders have urged him to call off the visit.	Opposition leaders have urged him to call of the visit/	241753196	1478494749688	1478494749752	i	73
472835	5092671	Opposition leaders have urged him to call off the visit.	Opposition leaders have urged him to call of the visit/	241753199	1478494749830	1478494749972	o	79
472835	5092671	Opposition leaders have urged him to call off the visit.	Opposition leaders have urged him to call of the visit/	241753220	1478494749926	1478494750004	n	78
472835	5092671	Opposition leaders have urged him to call off the visit.	Opposition leaders have urged him to call of the visit/	241753221	1478494750082	1478494750168	 	32
472835	5092671	Opposition leaders have urged him to call off the visit.	Opposition leaders have urged him to call of the visit/	241753222	1478494750224	1478494750316	l	76
472835	5092671	Opposition leaders have urged him to call off the visit.	Opposition leaders have urged him to call of the visit/	241753223	1478494750301	1478494750354	e	69
472835	5092671	Opposition leaders have urged him to call off the visit.	Opposition leaders have urged him to call of the visit/	241753224	1478494750433	1478494750534	a	65
472835	5092671	Opposition leaders have urged him to call off the visit.	Opposition leaders have urged him to call of the visit/	241753226	1478494750765	1478494750837	e	69
472835	5092671	Opposition leaders have urged him to call off the visit.	Opposition leaders have urged him to call of the visit/	241753234	1478494750899	1478494750970	r	82
472835	5092671	Opposition leaders have urged him to call off the visit.	Opposition leaders have urged him to call of the visit/	241753235	1478494751048	1478494751136	s	83
472835	5092671	Opposition leaders have urged him to call off the visit.	Opposition leaders have urged him to call of the visit/	241753237	1478494751151	1478494751269	 	32
472835	5092671	Opposition leaders have urged him to call off the visit.	Opposition leaders have urged him to call of the visit/	241753238	1478494751237	1478494751326	h	72
472835	5092671	Opposition leaders have urged him to call off the visit.	Opposition leaders have urged him to call of the visit/	241753276	1478494751320	1478494751401	a	65
472835	5092671	Opposition leaders have urged him to call off the visit.	Opposition leaders have urged him to call of the visit/	241753278	1478494751435	1478494751504	v	86
472835	5092671	Opposition leaders have urged him to call off the visit.	Opposition leaders have urged him to call of the visit/	241753279	1478494751630	1478494751704	 	32
472835	5092671	Opposition leaders have urged him to call off the visit.	Opposition leaders have urged him to call of the visit/	241753281	1478494751910	1478494751948	BKSP	8
472835	5092671	Opposition leaders have urged him to call off the visit.	Opposition leaders have urged him to call of the visit/	241753282	1478494752033	1478494752082	BKSP	8
472835	5092671	Opposition leaders have urged him to call off the visit.	Opposition leaders have urged him to call of the visit/	241753284	1478494752153	1478494752203	BKSP	8
472835	5092671	Opposition leaders have urged him to call off the visit.	Opposition leaders have urged him to call of the visit/	241753285	1478494752281	1478494752336	BKSP	8
472835	5092671	Opposition leaders have urged him to call off the visit.	Opposition leaders have urged him to call of the visit/	241753286	1478494752400	1478494752455	BKSP	8
472835	5092671	Opposition leaders have urged him to call off the visit.	Opposition leaders have urged him to call of the visit/	241753287	1478494752533	1478494752588	BKSP	8
472835	5092671	Opposition leaders have urged him to call off the visit.	Opposition leaders have urged him to call of the visit/	241753289	1478494752650	1478494752703	BKSP	8
472835	5092671	Opposition leaders have urged him to call off the visit.	Opposition leaders have urged him to call of the visit/	241753290	1478494752765	1478494752820	BKSP	8
472835	5092671	Opposition leaders have urged him to call off the visit.	Opposition leaders have urged him to call of the visit/	241753292	1478494753102	1478494753203	BKSP	8
472835	5092671	Opposition leaders have urged him to call off the visit.	Opposition leaders have urged him to call of the visit/	241753294	1478494753234	1478494753320	a	65
472835	5092671	Opposition leaders have urged him to call off the visit.	Opposition leaders have urged him to call of the visit/	241753296	1478494753413	1478494753517	d	68
472835	5092671	Opposition leaders have urged him to call off the visit.	Opposition leaders have urged him to call of the visit/	241753298	1478494753564	1478494753657	e	69
472835	5092671	Opposition leaders have urged him to call off the visit.	Opposition leaders have urged him to call of the visit/	241753305	1478494753724	1478494753786	r	82
472835	5092671	Opposition leaders have urged him to call off the visit.	Opposition leaders have urged him to call of the visit/	241753306	1478494753961	1478494754067	s	83
472835	5092671	Opposition leaders have urged him to call off the visit.	Opposition leaders have urged him to call of the visit/	241753307	1478494754131	1478494754249	 	32
472835	5092671	Opposition leaders have urged him to call off the visit.	Opposition leaders have urged him to call of the visit/	241753308	1478494754249	1478494754361	h	72
472835	5092671	Opposition leaders have urged him to call off the visit.	Opposition leaders have urged him to call of the visit/	241753317	1478494754349	1478494754418	a	65
472835	5092671	Opposition leaders have urged him to call off the visit.	Opposition leaders have urged him to call of the visit/	241753319	1478494754465	1478494754534	v	86
472835	5092671	Opposition leaders have urged him to call off the visit.	Opposition leaders have urged him to call of the visit/	241753322	1478494754552	1478494754651	e	69
472835	5092671	Opposition leaders have urged him to call off the visit.	Opposition leaders have urged him to call of the visit/	241753325	1478494754651	1478494754734	 	32
472835	5092671	Opposition leaders have urged him to call off the visit.	Opposition leaders have urged him to call of the visit/	241753330	1478494754843	1478494754875	u	85
472835	5092671	Opposition leaders have urged him to call off the visit.	Opposition leaders have urged him to call of the visit/	241753333	1478494754887	1478494754967	r	82
472835	5092671	Opposition leaders have urged him to call off the visit.	Opposition leaders have urged him to call of the visit/	241753341	1478494755367	1478494755437	g	71
472835	5092671	Opposition leaders have urged him to call off the visit.	Opposition leaders have urged him to call of the visit/	241753342	1478494755500	1478494755569	e	69
472835	5092671	Opposition leaders have urged him to call off the visit.	Opposition leaders have urged him to call of the visit/	241753344	1478494755663	1478494755781	d	68
472835	5092671	Opposition leaders have urged him to call off the visit.	Opposition leaders have urged him to call of the visit/	241753348	1478494755751	1478494755819	 	32
472835	5092671	Opposition leaders have urged him to call off the visit.	Opposition leaders have urged him to call of the visit/	241753352	1478494755897	1478494755953	h	72
472835	5092671	Opposition leaders have urged him to call off the visit.	Opposition leaders have urged him to call of the visit/	241753369	1478494756091	1478494756200	i	73
472835	5092671	Opposition leaders have urged him to call off the visit.	Opposition leaders have urged him to call of the visit/	241753370	1478494756231	1478494756333	m	77
472835	5092671	Opposition leaders have urged him to call off the visit.	Opposition leaders have urged him to call of the visit/	241753371	1478494756412	1478494756498	 	32
472835	5092671	Opposition leaders have urged him to call off the visit.	Opposition leaders have urged him to call of the visit/	241753372	1478494756470	1478494756550	t	84
472835	5092671	Opposition leaders have urged him to call off the visit.	Opposition leaders have urged him to call of the visit/	241753374	1478494756566	1478494756636	o	79
472835	5092671	Opposition leaders have urged him to call off the visit.	Opposition leaders have urged him to call of the visit/	241753389	1478494756716	1478494756830	 	32
472835	5092671	Opposition leaders have urged him to call off the visit.	Opposition leaders have urged him to call of the visit/	241753391	1478494756801	1478494756885	c	67
472835	5092671	Opposition leaders have urged him to call off the visit.	Opposition leaders have urged him to call of the visit/	241753394	1478494756964	1478494757071	a	65
472835	5092671	Opposition leaders have urged him to call off the visit.	Opposition leaders have urged him to call of the visit/	241753396	1478494757019	1478494757086	l	76
472835	5092671	Opposition leaders have urged him to call off the visit.	Opposition leaders have urged him to call of the visit/	241753398	1478494757133	1478494757203	l	76
472835	5092671	Opposition leaders have urged him to call off the visit.	Opposition leaders have urged him to call of the visit/	241753403	1478494757259	1478494757365	 	32
472835	5092671	Opposition leaders have urged him to call off the visit.	Opposition leaders have urged him to call of the visit/	241753404	1478494757365	1478494757462	o	79
472835	5092671	Opposition leaders have urged him to call off the visit.	Opposition leaders have urged him to call of the visit/	241753405	1478494757418	1478494757501	f	70
472835	5092671	Opposition leaders have urged him to call off the visit.	Opposition leaders have urged him to call of the visit/	241753406	1478494757538	1478494757612	 	32
472835	5092671	Opposition leaders have urged him to call off the visit.	Opposition leaders have urged him to call of the visit/	241753414	1478494757585	1478494757652	t	84
472835	5092671	Opposition leaders have urged him to call off the visit.	Opposition leaders have urged him to call of the visit/	241753416	1478494757699	1478494757779	h	72
472835	5092671	Opposition leaders have urged him to call off the visit.	Opposition leaders have urged him to call of the visit/	241753417	1478494757769	1478494757834	e	69
472835	5092671	Opposition leaders have urged him to call off the visit.	Opposition leaders have urged him to call of the visit/	241753418	1478494757870	1478494757944	 	32
472835	5092671	Opposition leaders have urged him to call off the visit.	Opposition leaders have urged him to call of the visit/	241753419	1478494758087	1478494758151	v	86
472835	5092671	Opposition leaders have urged him to call off the visit.	Opposition leaders have urged him to call of the visit/	241753420	1478494758182	1478494758252	i	73
472835	5092671	Opposition leaders have urged him to call off the visit.	Opposition leaders have urged him to call of the visit/	241753432	1478494758273	1478494758372	s	83
472835	5092671	Opposition leaders have urged him to call off the visit.	Opposition leaders have urged him to call of the visit/	241753433	1478494758351	1478494758450	i	73
472835	5092671	Opposition leaders have urged him to call off the visit.	Opposition leaders have urged him to call of the visit/	241753434	1478494758528	1478494758585	t	84
472835	5092671	Opposition leaders have urged him to call off the visit.	Opposition leaders have urged him to call of the visit/	241753435	1478494758773	1478494758851	/	191
472835	5092678	The loans were allegedly made to players.	the loans were allegedly made to players	241753497	1478494761365	1478494761464	t	84
472835	5092678	The loans were allegedly made to players.	the loans were allegedly made to players	241753498	1478494761496	1478494761567	h	72
472835	5092678	The loans were allegedly made to players.	the loans were allegedly made to players	241753499	1478494761660	1478494761749	i	73
472835	5092678	The loans were allegedly made to players.	the loans were allegedly made to players	241753502	1478494761952	1478494762018	BKSP	8
472835	5092678	The loans were allegedly made to players.	the loans were allegedly made to players	241753505	1478494762096	1478494762183	e	69
472835	5092678	The loans were allegedly made to players.	the loans were allegedly made to players	241753509	1478494762198	1478494762267	 	32
472835	5092678	The loans were allegedly made to players.	the loans were allegedly made to players	241753526	1478494762330	1478494762400	l	76
472835	5092678	The loans were allegedly made to players.	the loans were allegedly made to players	241753528	1478494762478	1478494762565	o	79
472835	5092678	The loans were allegedly made to players.	the loans were allegedly made to players	241753530	1478494762551	1478494762649	a	65
472835	5092678	The loans were allegedly made to players.	the loans were allegedly made to players	241753532	1478494762665	1478494762749	n	78
472835	5092678	The loans were allegedly made to players.	the loans were allegedly made to players	241753533	1478494762780	1478494762866	s	83
472835	5092678	The loans were allegedly made to players.	the loans were allegedly made to players	241753538	1478494762876	1478494762988	 	32
472835	5092678	The loans were allegedly made to players.	the loans were allegedly made to players	241753539	1478494762967	1478494763066	w	87
472835	5092678	The loans were allegedly made to players.	the loans were allegedly made to players	241753541	1478494763129	1478494763217	e	69
472835	5092678	The loans were allegedly made to players.	the loans were allegedly made to players	241753543	1478494763295	1478494763385	r	82
472835	5092678	The loans were allegedly made to players.	the loans were allegedly made to players	241753545	1478494763432	1478494763537	e	69
472835	5092678	The loans were allegedly made to players.	the loans were allegedly made to players	241753550	1478494763549	1478494763634	 	32
472835	5092678	The loans were allegedly made to players.	the loans were allegedly made to players	241753551	1478494763649	1478494763734	a	65
472835	5092678	The loans were allegedly made to players.	the loans were allegedly made to players	241753553	1478494763750	1478494763798	l	76
472835	5092678	The loans were allegedly made to players.	the loans were allegedly made to players	241753555	1478494763850	1478494763958	l	76
472835	5092678	The loans were allegedly made to players.	the loans were allegedly made to players	241753662	1478494763952	1478494764002	e	69
472835	5092678	The loans were allegedly made to players.	the loans were allegedly made to players	241753663	1478494764111	1478494764131	j	74
472835	5092678	The loans were allegedly made to players.	the loans were allegedly made to players	241753664	1478494764511	1478494764584	BKSP	8
472835	5092678	The loans were allegedly made to players.	the loans were allegedly made to players	241753665	1478494764693	1478494764751	BKSP	8
472835	5092678	The loans were allegedly made to players.	the loans were allegedly made to players	241753667	1478494766240	1478494766294	e	69
472835	5092678	The loans were allegedly made to players.	the loans were allegedly made to players	241753669	1478494767319	1478494767383	g	71
472835	5092678	The loans were allegedly made to players.	the loans were allegedly made to players	241753673	1478494767541	1478494767647	e	69
472835	5092678	The loans were allegedly made to players.	the loans were allegedly made to players	241753676	1478494767757	1478494767867	d	68
472835	5092678	The loans were allegedly made to players.	the loans were allegedly made to players	241753681	1478494767888	1478494767982	l	76
472835	5092678	The loans were allegedly made to players.	the loans were allegedly made to players	241753682	1478494768013	1478494768083	y	89
472835	5092678	The loans were allegedly made to players.	the loans were allegedly made to players	241753683	1478494768098	1478494768168	 	32
472835	5092678	The loans were allegedly made to players.	the loans were allegedly made to players	241753684	1478494768246	1478494768333	m	77
472835	5092678	The loans were allegedly made to players.	the loans were allegedly made to players	241753689	1478494768317	1478494768398	a	65
472835	5092678	The loans were allegedly made to players.	the loans were allegedly made to players	241753691	1478494768460	1478494768548	d	68
472835	5092678	The loans were allegedly made to players.	the loans were allegedly made to players	241753694	1478494768626	1478494768698	e	69
472835	5092678	The loans were allegedly made to players.	the loans were allegedly made to players	241753696	1478494768713	1478494768798	 	32
472835	5092678	The loans were allegedly made to players.	the loans were allegedly made to players	241753698	1478494768798	1478494768884	t	84
472835	5092678	The loans were allegedly made to players.	the loans were allegedly made to players	241753700	1478494768884	1478494768933	o	79
472835	5092678	The loans were allegedly made to players.	the loans were allegedly made to players	241753707	1478494768996	1478494769066	 	32
472835	5092678	The loans were allegedly made to players.	the loans were allegedly made to players	241753708	1478494769144	1478494769299	p	80
472835	5092678	The loans were allegedly made to players.	the loans were allegedly made to players	241753709	1478494769232	1478494769361	l	76
472835	5092678	The loans were allegedly made to players.	the loans were allegedly made to players	241753710	1478494769361	1478494769433	a	65
472835	5092678	The loans were allegedly made to players.	the loans were allegedly made to players	241753711	1478494769496	1478494769566	y	89
472835	5092678	The loans were allegedly made to players.	the loans were allegedly made to players	241753717	1478494769589	1478494769665	e	69
472835	5092678	The loans were allegedly made to players.	the loans were allegedly made to players	241753719	1478494769727	1478494769799	r	82
472835	5092687	Count me out for this round.	court me out for ths round	241753930	1478494769877	1478494776512	s	83
472835	5092687	Count me out for this round.	court me out for ths round	241753854	1478494774512	1478494774607	c	67
472835	5092687	Count me out for this round.	court me out for ths round	241753856	1478494774564	1478494774647	o	79
472835	5092687	Count me out for this round.	court me out for ths round	241753858	1478494774725	1478494774811	u	85
472835	5092687	Count me out for this round.	court me out for ths round	241753860	1478494774784	1478494774896	r	82
472835	5092687	Count me out for this round.	court me out for ths round	241753862	1478494774959	1478494775050	t	84
472835	5092687	Count me out for this round.	court me out for ths round	241753875	1478494775050	1478494775115	 	32
472835	5092687	Count me out for this round.	court me out for ths round	241753878	1478494775177	1478494775246	m	77
472835	5092687	Count me out for this round.	court me out for ths round	241753881	1478494775233	1478494775314	e	69
472835	5092687	Count me out for this round.	court me out for ths round	241753884	1478494775330	1478494775397	 	32
472835	5092687	Count me out for this round.	court me out for ths round	241753886	1478494775459	1478494775523	o	79
472835	5092687	Count me out for this round.	court me out for ths round	241753889	1478494775589	1478494775678	u	85
472835	5092687	Count me out for this round.	court me out for ths round	241753893	1478494775648	1478494775729	t	84
472835	5092687	Count me out for this round.	court me out for ths round	241753899	1478494775760	1478494775869	 	32
472835	5092687	Count me out for this round.	court me out for ths round	241753902	1478494775815	1478494775913	f	70
472835	5092687	Count me out for this round.	court me out for ths round	241753905	1478494775913	1478494775993	o	79
472835	5092687	Count me out for this round.	court me out for ths round	241753913	1478494775981	1478494776063	r	82
472835	5092687	Count me out for this round.	court me out for ths round	241753916	1478494776079	1478494776150	 	32
472835	5092687	Count me out for this round.	court me out for ths round	241753918	1478494776132	1478494776202	t	84
472835	5092687	Count me out for this round.	court me out for ths round	241753921	1478494776218	1478494776265	h	72
472835	5092687	Count me out for this round.	court me out for ths round	241753926	1478494776329	1478494776423	i	73
472835	5092687	Count me out for this round.	court me out for ths round	241753933	1478494776512	1478494776598	 	32
472835	5092687	Count me out for this round.	court me out for ths round	241753944	1478494776698	1478494776764	r	82
472835	5092687	Count me out for this round.	court me out for ths round	241753946	1478494776764	1478494776823	o	79
472835	5092687	Count me out for this round.	court me out for ths round	241753949	1478494776894	1478494777032	u	85
472835	5092687	Count me out for this round.	court me out for ths round	241753952	1478494776965	1478494777074	n	78
472835	5092687	Count me out for this round.	court me out for ths round	241753951	1478494777064	1478494777146	d	68
472835	5092689	It would be wise to keep him inactive until he is effective in a game.	it would be wise to keep him inactive until he is effective in a game	241754090	1478494782756	1478494782839	i	73
472835	5092689	It would be wise to keep him inactive until he is effective in a game.	it would be wise to keep him inactive until he is effective in a game	241754091	1478494782813	1478494782879	t	84
472835	5092689	It would be wise to keep him inactive until he is effective in a game.	it would be wise to keep him inactive until he is effective in a game	241754092	1478494782911	1478494782980	 	32
472835	5092689	It would be wise to keep him inactive until he is effective in a game.	it would be wise to keep him inactive until he is effective in a game	241754093	1478494782996	1478494783114	w	87
472835	5092689	It would be wise to keep him inactive until he is effective in a game.	it would be wise to keep him inactive until he is effective in a game	241754107	1478494783079	1478494783130	o	79
472835	5092689	It would be wise to keep him inactive until he is effective in a game.	it would be wise to keep him inactive until he is effective in a game	241754109	1478494783224	1478494783279	u	85
472835	5092689	It would be wise to keep him inactive until he is effective in a game.	it would be wise to keep him inactive until he is effective in a game	241754113	1478494783374	1478494783445	l	76
472835	5092689	It would be wise to keep him inactive until he is effective in a game.	it would be wise to keep him inactive until he is effective in a game	241754116	1478494783538	1478494783601	d	68
472835	5092689	It would be wise to keep him inactive until he is effective in a game.	it would be wise to keep him inactive until he is effective in a game	241754121	1478494783580	1478494783629	 	32
472835	5092689	It would be wise to keep him inactive until he is effective in a game.	it would be wise to keep him inactive until he is effective in a game	241754128	1478494783994	1478494784047	b	66
472835	5092689	It would be wise to keep him inactive until he is effective in a game.	it would be wise to keep him inactive until he is effective in a game	241754147	1478494784316	1478494784412	e	69
472835	5092689	It would be wise to keep him inactive until he is effective in a game.	it would be wise to keep him inactive until he is effective in a game	241754149	1478494784474	1478494784546	 	32
472835	5092689	It would be wise to keep him inactive until he is effective in a game.	it would be wise to keep him inactive until he is effective in a game	241754152	1478494784811	1478494784878	w	87
472835	5092689	It would be wise to keep him inactive until he is effective in a game.	it would be wise to keep him inactive until he is effective in a game	241754154	1478494784893	1478494784963	i	73
472835	5092689	It would be wise to keep him inactive until he is effective in a game.	it would be wise to keep him inactive until he is effective in a game	241754156	1478494784978	1478494785051	s	83
472835	5092689	It would be wise to keep him inactive until he is effective in a game.	it would be wise to keep him inactive until he is effective in a game	241754165	1478494785104	1478494785179	e	69
472835	5092689	It would be wise to keep him inactive until he is effective in a game.	it would be wise to keep him inactive until he is effective in a game	241754168	1478494785210	1478494785301	 	32
472835	5092689	It would be wise to keep him inactive until he is effective in a game.	it would be wise to keep him inactive until he is effective in a game	241754172	1478494785294	1478494785361	t	84
472835	5092689	It would be wise to keep him inactive until he is effective in a game.	it would be wise to keep him inactive until he is effective in a game	241754177	1478494785361	1478494785412	o	79
472835	5092689	It would be wise to keep him inactive until he is effective in a game.	it would be wise to keep him inactive until he is effective in a game	241754181	1478494785475	1478494785580	 	32
472835	5092689	It would be wise to keep him inactive until he is effective in a game.	it would be wise to keep him inactive until he is effective in a game	241754191	1478494785561	1478494785680	k	75
472835	5092689	It would be wise to keep him inactive until he is effective in a game.	it would be wise to keep him inactive until he is effective in a game	241754193	1478494785696	1478494785763	e	69
472835	5092689	It would be wise to keep him inactive until he is effective in a game.	it would be wise to keep him inactive until he is effective in a game	241754195	1478494785866	1478494785927	e	69
472835	5092689	It would be wise to keep him inactive until he is effective in a game.	it would be wise to keep him inactive until he is effective in a game	241754198	1478494785927	1478494785997	p	80
472835	5092689	It would be wise to keep him inactive until he is effective in a game.	it would be wise to keep him inactive until he is effective in a game	241754201	1478494786091	1478494786145	 	32
472835	5092689	It would be wise to keep him inactive until he is effective in a game.	it would be wise to keep him inactive until he is effective in a game	241754204	1478494786146	1478494786213	h	72
472835	5092689	It would be wise to keep him inactive until he is effective in a game.	it would be wise to keep him inactive until he is effective in a game	241754211	1478494786272	1478494786443	i	73
472835	5092689	It would be wise to keep him inactive until he is effective in a game.	it would be wise to keep him inactive until he is effective in a game	241754213	1478494786391	1478494786509	m	77
472835	5092689	It would be wise to keep him inactive until he is effective in a game.	it would be wise to keep him inactive until he is effective in a game	241754215	1478494786572	1478494786676	 	32
472835	5092689	It would be wise to keep him inactive until he is effective in a game.	it would be wise to keep him inactive until he is effective in a game	241754217	1478494786676	1478494786761	a	65
472835	5092689	It would be wise to keep him inactive until he is effective in a game.	it would be wise to keep him inactive until he is effective in a game	241754219	1478494786839	1478494786928	c	67
472835	5092689	It would be wise to keep him inactive until he is effective in a game.	it would be wise to keep him inactive until he is effective in a game	241754236	1478494787076	1478494787128	BKSP	8
472835	5092689	It would be wise to keep him inactive until he is effective in a game.	it would be wise to keep him inactive until he is effective in a game	241754237	1478494787192	1478494787262	BKSP	8
472835	5092689	It would be wise to keep him inactive until he is effective in a game.	it would be wise to keep him inactive until he is effective in a game	241754238	1478494787371	1478494787506	i	73
472835	5092689	It would be wise to keep him inactive until he is effective in a game.	it would be wise to keep him inactive until he is effective in a game	241754239	1478494787444	1478494787560	n	78
472835	5092689	It would be wise to keep him inactive until he is effective in a game.	it would be wise to keep him inactive until he is effective in a game	241754240	1478494787591	1478494787677	a	65
472835	5092689	It would be wise to keep him inactive until he is effective in a game.	it would be wise to keep him inactive until he is effective in a game	241754241	1478494787755	1478494787859	c	67
472835	5092689	It would be wise to keep him inactive until he is effective in a game.	it would be wise to keep him inactive until he is effective in a game	241754242	1478494787937	1478494787996	t	84
472835	5092689	It would be wise to keep him inactive until he is effective in a game.	it would be wise to keep him inactive until he is effective in a game	241754254	1478494788029	1478494788145	i	73
472835	5092689	It would be wise to keep him inactive until he is effective in a game.	it would be wise to keep him inactive until he is effective in a game	241754256	1478494788111	1478494788208	v	86
472835	5092689	It would be wise to keep him inactive until he is effective in a game.	it would be wise to keep him inactive until he is effective in a game	241754258	1478494788270	1478494788363	e	69
472835	5092689	It would be wise to keep him inactive until he is effective in a game.	it would be wise to keep him inactive until he is effective in a game	241754260	1478494788318	1478494788425	 	32
472835	5092689	It would be wise to keep him inactive until he is effective in a game.	it would be wise to keep him inactive until he is effective in a game	241754263	1478494788457	1478494788588	u	85
472835	5092689	It would be wise to keep him inactive until he is effective in a game.	it would be wise to keep him inactive until he is effective in a game	241754283	1478494788529	1478494788640	n	78
472835	5092689	It would be wise to keep him inactive until he is effective in a game.	it would be wise to keep him inactive until he is effective in a game	241754285	1478494788598	1478494788663	t	84
472835	5092689	It would be wise to keep him inactive until he is effective in a game.	it would be wise to keep him inactive until he is effective in a game	241754287	1478494788679	1478494788759	i	73
472835	5092689	It would be wise to keep him inactive until he is effective in a game.	it would be wise to keep him inactive until he is effective in a game	241754290	1478494788855	1478494788912	l	76
472835	5092689	It would be wise to keep him inactive until he is effective in a game.	it would be wise to keep him inactive until he is effective in a game	241754293	1478494789006	1478494789093	 	32
472835	5092689	It would be wise to keep him inactive until he is effective in a game.	it would be wise to keep him inactive until he is effective in a game	241754295	1478494789125	1478494789194	h	72
472835	5092689	It would be wise to keep him inactive until he is effective in a game.	it would be wise to keep him inactive until he is effective in a game	241754299	1478494789225	1478494789312	e	69
472835	5092689	It would be wise to keep him inactive until he is effective in a game.	it would be wise to keep him inactive until he is effective in a game	241754300	1478494789312	1478494789362	 	32
472835	5092689	It would be wise to keep him inactive until he is effective in a game.	it would be wise to keep him inactive until he is effective in a game	241754301	1478494789395	1478494789461	i	73
472835	5092689	It would be wise to keep him inactive until he is effective in a game.	it would be wise to keep him inactive until he is effective in a game	241754302	1478494789477	1478494789584	s	83
472835	5092689	It would be wise to keep him inactive until he is effective in a game.	it would be wise to keep him inactive until he is effective in a game	241754317	1478494789553	1478494789659	 	32
472835	5092689	It would be wise to keep him inactive until he is effective in a game.	it would be wise to keep him inactive until he is effective in a game	241754318	1478494789682	1478494789759	e	69
472835	5092689	It would be wise to keep him inactive until he is effective in a game.	it would be wise to keep him inactive until he is effective in a game	241754319	1478494789853	1478494789928	f	70
472835	5092689	It would be wise to keep him inactive until he is effective in a game.	it would be wise to keep him inactive until he is effective in a game	241754320	1478494790006	1478494790078	f	70
472835	5092689	It would be wise to keep him inactive until he is effective in a game.	it would be wise to keep him inactive until he is effective in a game	241754321	1478494790156	1478494790229	e	69
472835	5092689	It would be wise to keep him inactive until he is effective in a game.	it would be wise to keep him inactive until he is effective in a game	241754322	1478494790323	1478494790425	c	67
472835	5092689	It would be wise to keep him inactive until he is effective in a game.	it would be wise to keep him inactive until he is effective in a game	241754340	1478494790484	1478494790548	i	73
472835	5092689	It would be wise to keep him inactive until he is effective in a game.	it would be wise to keep him inactive until he is effective in a game	241754341	1478494790525	1478494790568	t	84
472835	5092689	It would be wise to keep him inactive until he is effective in a game.	it would be wise to keep him inactive until he is effective in a game	241754342	1478494790959	1478494791010	BKSP	8
472835	5092689	It would be wise to keep him inactive until he is effective in a game.	it would be wise to keep him inactive until he is effective in a game	241754343	1478494791089	1478494791161	BKSP	8
472835	5092689	It would be wise to keep him inactive until he is effective in a game.	it would be wise to keep him inactive until he is effective in a game	241754344	1478494791317	1478494791392	t	84
472835	5092689	It would be wise to keep him inactive until he is effective in a game.	it would be wise to keep him inactive until he is effective in a game	241754345	1478494791439	1478494791537	i	73
472835	5092689	It would be wise to keep him inactive until he is effective in a game.	it would be wise to keep him inactive until he is effective in a game	241754359	1478494791522	1478494791608	v	86
472835	5092689	It would be wise to keep him inactive until he is effective in a game.	it would be wise to keep him inactive until he is effective in a game	241754363	1478494791704	1478494791791	e	69
472835	5092689	It would be wise to keep him inactive until he is effective in a game.	it would be wise to keep him inactive until he is effective in a game	241754367	1478494791775	1478494791843	 	32
472835	5092689	It would be wise to keep him inactive until he is effective in a game.	it would be wise to keep him inactive until he is effective in a game	241754371	1478494791887	1478494792005	i	73
472835	5092689	It would be wise to keep him inactive until he is effective in a game.	it would be wise to keep him inactive until he is effective in a game	241754376	1478494791960	1478494792028	n	78
472835	5092689	It would be wise to keep him inactive until he is effective in a game.	it would be wise to keep him inactive until he is effective in a game	241754381	1478494792111	1478494792192	 	32
472835	5092689	It would be wise to keep him inactive until he is effective in a game.	it would be wise to keep him inactive until he is effective in a game	241754410	1478494792243	1478494792294	h	72
472835	5092689	It would be wise to keep him inactive until he is effective in a game.	it would be wise to keep him inactive until he is effective in a game	241754415	1478494792387	1478494792465	i	73
472835	5092689	It would be wise to keep him inactive until he is effective in a game.	it would be wise to keep him inactive until he is effective in a game	241754421	1478494792621	1478494792662	BKSP	8
472835	5092689	It would be wise to keep him inactive until he is effective in a game.	it would be wise to keep him inactive until he is effective in a game	241754426	1478494792740	1478494792810	BKSP	8
472835	5092689	It would be wise to keep him inactive until he is effective in a game.	it would be wise to keep him inactive until he is effective in a game	241754430	1478494792857	1478494792966	a	65
472835	5092689	It would be wise to keep him inactive until he is effective in a game.	it would be wise to keep him inactive until he is effective in a game	241754433	1478494792966	1478494793059	 	32
472835	5092689	It would be wise to keep him inactive until he is effective in a game.	it would be wise to keep him inactive until he is effective in a game	241754435	1478494793153	1478494793227	g	71
472835	5092689	It would be wise to keep him inactive until he is effective in a game.	it would be wise to keep him inactive until he is effective in a game	241754436	1478494793267	1478494793344	a	65
472835	5092689	It would be wise to keep him inactive until he is effective in a game.	it would be wise to keep him inactive until he is effective in a game	241754437	1478494793360	1478494793427	m	77
472835	5092689	It would be wise to keep him inactive until he is effective in a game.	it would be wise to keep him inactive until he is effective in a game	241754439	1478494793458	1478494793538	e	69
472835	5092699	There is still a chance there might be modification in Dallas.	this is still a chance there might be modification in dallas	241754538	1478494796206	1478494796292	t	84
472835	5092699	There is still a chance there might be modification in Dallas.	this is still a chance there might be modification in dallas	241754540	1478494796292	1478494796360	h	72
472835	5092699	There is still a chance there might be modification in Dallas.	this is still a chance there might be modification in dallas	241754541	1478494796438	1478494796508	i	73
472835	5092699	There is still a chance there might be modification in Dallas.	this is still a chance there might be modification in dallas	241754543	1478494796524	1478494796608	s	83
472835	5092699	There is still a chance there might be modification in Dallas.	this is still a chance there might be modification in dallas	241754545	1478494796624	1478494796724	 	32
472835	5092699	There is still a chance there might be modification in Dallas.	this is still a chance there might be modification in dallas	241754551	1478494796708	1478494796824	i	73
472835	5092699	There is still a chance there might be modification in Dallas.	this is still a chance there might be modification in dallas	241754554	1478494796806	1478494796876	s	83
472835	5092699	There is still a chance there might be modification in Dallas.	this is still a chance there might be modification in dallas	241754557	1478494796892	1478494797021	 	32
472835	5092699	There is still a chance there might be modification in Dallas.	this is still a chance there might be modification in dallas	241754558	1478494796975	1478494797073	s	83
472835	5092699	There is still a chance there might be modification in Dallas.	this is still a chance there might be modification in dallas	241754559	1478494797172	1478494797226	t	84
472835	5092699	There is still a chance there might be modification in Dallas.	this is still a chance there might be modification in dallas	241754560	1478494797226	1478494797277	i	73
472835	5092699	There is still a chance there might be modification in Dallas.	this is still a chance there might be modification in dallas	241754561	1478494797363	1478494797425	l	76
472835	5092699	There is still a chance there might be modification in Dallas.	this is still a chance there might be modification in dallas	241754563	1478494797472	1478494797509	l	76
472835	5092699	There is still a chance there might be modification in Dallas.	this is still a chance there might be modification in dallas	241754566	1478494797525	1478494797609	l	76
472835	5092699	There is still a chance there might be modification in Dallas.	this is still a chance there might be modification in dallas	241754569	1478494797734	1478494797808	a	65
472835	5092699	There is still a chance there might be modification in Dallas.	this is still a chance there might be modification in dallas	241754571	1478494797808	1478494797924	 	32
472835	5092699	There is still a chance there might be modification in Dallas.	this is still a chance there might be modification in dallas	241754611	1478494798000	1478494798105	c	67
472835	5092699	There is still a chance there might be modification in Dallas.	this is still a chance there might be modification in dallas	241754612	1478494798500	1478494798551	BKSP	8
472835	5092699	There is still a chance there might be modification in Dallas.	this is still a chance there might be modification in dallas	241754613	1478494798623	1478494798666	BKSP	8
472835	5092699	There is still a chance there might be modification in Dallas.	this is still a chance there might be modification in dallas	241754614	1478494798738	1478494798792	BKSP	8
472835	5092699	There is still a chance there might be modification in Dallas.	this is still a chance there might be modification in dallas	241754615	1478494798949	1478494799009	a	65
472835	5092699	There is still a chance there might be modification in Dallas.	this is still a chance there might be modification in dallas	241754616	1478494799054	1478494799141	 	32
472835	5092699	There is still a chance there might be modification in Dallas.	this is still a chance there might be modification in dallas	241754617	1478494799173	1478494799242	c	67
472835	5092699	There is still a chance there might be modification in Dallas.	this is still a chance there might be modification in dallas	241754618	1478494799257	1478494799310	h	72
472835	5092699	There is still a chance there might be modification in Dallas.	this is still a chance there might be modification in dallas	241754676	1478494799390	1478494799459	a	65
472835	5092699	There is still a chance there might be modification in Dallas.	this is still a chance there might be modification in dallas	241754679	1478494799414	1478494799514	n	78
472835	5092699	There is still a chance there might be modification in Dallas.	this is still a chance there might be modification in dallas	241754680	1478494799788	1478494799847	BKSP	8
472835	5092699	There is still a chance there might be modification in Dallas.	this is still a chance there might be modification in dallas	241754681	1478494799932	1478494799976	BKSP	8
472835	5092699	There is still a chance there might be modification in Dallas.	this is still a chance there might be modification in dallas	241754682	1478494800039	1478494800107	BKSP	8
472835	5092699	There is still a chance there might be modification in Dallas.	this is still a chance there might be modification in dallas	241754683	1478494800170	1478494800211	BKSP	8
472835	5092699	There is still a chance there might be modification in Dallas.	this is still a chance there might be modification in dallas	241754684	1478494800273	1478494800328	BKSP	8
472835	5092699	There is still a chance there might be modification in Dallas.	this is still a chance there might be modification in dallas	241754685	1478494800406	1478494800477	BKSP	8
472835	5092699	There is still a chance there might be modification in Dallas.	this is still a chance there might be modification in dallas	241754686	1478494800571	1478494800644	a	65
472835	5092699	There is still a chance there might be modification in Dallas.	this is still a chance there might be modification in dallas	241754687	1478494800722	1478494800821	 	32
472835	5092699	There is still a chance there might be modification in Dallas.	this is still a chance there might be modification in dallas	241754688	1478494800852	1478494800910	c	67
472835	5092699	There is still a chance there might be modification in Dallas.	this is still a chance there might be modification in dallas	241754720	1478494800930	1478494800993	h	72
472835	5092699	There is still a chance there might be modification in Dallas.	this is still a chance there might be modification in dallas	241754721	1478494801181	1478494801228	BKSP	8
472835	5092699	There is still a chance there might be modification in Dallas.	this is still a chance there might be modification in dallas	241754722	1478494801306	1478494801362	BKSP	8
472835	5092699	There is still a chance there might be modification in Dallas.	this is still a chance there might be modification in dallas	241754723	1478494801424	1478494801476	BKSP	8
472835	5092699	There is still a chance there might be modification in Dallas.	this is still a chance there might be modification in dallas	241754725	1478494801538	1478494801608	BKSP	8
472835	5092699	There is still a chance there might be modification in Dallas.	this is still a chance there might be modification in dallas	241754726	1478494801790	1478494801890	 	32
472835	5092699	There is still a chance there might be modification in Dallas.	this is still a chance there might be modification in dallas	241754728	1478494802046	1478494802125	a	65
472835	5092699	There is still a chance there might be modification in Dallas.	this is still a chance there might be modification in dallas	241754730	1478494802243	1478494802325	c	67
472835	5092699	There is still a chance there might be modification in Dallas.	this is still a chance there might be modification in dallas	241754732	1478494802341	1478494802424	h	72
472835	5092699	There is still a chance there might be modification in Dallas.	this is still a chance there might be modification in dallas	241754775	1478494802774	1478494803045	BKSP	8
472835	5092699	There is still a chance there might be modification in Dallas.	this is still a chance there might be modification in dallas	241754776	1478494803185	1478494803259	BKSP	8
472835	5092699	There is still a chance there might be modification in Dallas.	this is still a chance there might be modification in dallas	241754777	1478494803337	1478494803392	BKSP	8
472835	5092699	There is still a chance there might be modification in Dallas.	this is still a chance there might be modification in dallas	241754778	1478494803470	1478494803541	BKSP	8
472835	5092699	There is still a chance there might be modification in Dallas.	this is still a chance there might be modification in dallas	241754780	1478494803603	1478494803674	BKSP	8
472835	5092699	There is still a chance there might be modification in Dallas.	this is still a chance there might be modification in dallas	241754782	1478494803753	1478494803876	BKSP	8
472835	5092699	There is still a chance there might be modification in Dallas.	this is still a chance there might be modification in dallas	241754784	1478494804405	1478494804506	l	76
472835	5092699	There is still a chance there might be modification in Dallas.	this is still a chance there might be modification in dallas	241754786	1478494804600	1478494804690	 	32
472835	5092699	There is still a chance there might be modification in Dallas.	this is still a chance there might be modification in dallas	241754789	1478494804705	1478494804790	a	65
472835	5092699	There is still a chance there might be modification in Dallas.	this is still a chance there might be modification in dallas	241754791	1478494804805	1478494804905	 	32
472835	5092699	There is still a chance there might be modification in Dallas.	this is still a chance there might be modification in dallas	241754793	1478494804955	1478494805054	c	67
472835	5092699	There is still a chance there might be modification in Dallas.	this is still a chance there might be modification in dallas	241754818	1478494805344	1478494805442	h	72
472835	5092699	There is still a chance there might be modification in Dallas.	this is still a chance there might be modification in dallas	241754821	1478494805569	1478494805709	n	78
472835	5092699	There is still a chance there might be modification in Dallas.	this is still a chance there might be modification in dallas	241754826	1478494805702	1478494805774	a	65
472835	5092699	There is still a chance there might be modification in Dallas.	this is still a chance there might be modification in dallas	241754829	1478494806290	1478494806341	BKSP	8
472835	5092699	There is still a chance there might be modification in Dallas.	this is still a chance there might be modification in dallas	241754831	1478494806403	1478494806489	BKSP	8
472835	5092699	There is still a chance there might be modification in Dallas.	this is still a chance there might be modification in dallas	241754833	1478494806536	1478494806606	a	65
472835	5092699	There is still a chance there might be modification in Dallas.	this is still a chance there might be modification in dallas	241754836	1478494806637	1478494806737	n	78
472835	5092699	There is still a chance there might be modification in Dallas.	this is still a chance there might be modification in dallas	241754845	1478494806796	1478494806872	c	67
472835	5092699	There is still a chance there might be modification in Dallas.	this is still a chance there might be modification in dallas	241754848	1478494806966	1478494807039	e	69
472835	5092699	There is still a chance there might be modification in Dallas.	this is still a chance there might be modification in dallas	241754850	1478494807070	1478494807165	 	32
472835	5092699	There is still a chance there might be modification in Dallas.	this is still a chance there might be modification in dallas	241754853	1478494807154	1478494807222	t	84
472835	5092699	There is still a chance there might be modification in Dallas.	this is still a chance there might be modification in dallas	241754857	1478494807222	1478494807289	h	72
472835	5092699	There is still a chance there might be modification in Dallas.	this is still a chance there might be modification in dallas	241754875	1478494807323	1478494807405	e	69
472835	5092699	There is still a chance there might be modification in Dallas.	this is still a chance there might be modification in dallas	241754876	1478494807452	1478494807531	r	82
472835	5092699	There is still a chance there might be modification in Dallas.	this is still a chance there might be modification in dallas	241754878	1478494807586	1478494807701	e	69
472835	5092699	There is still a chance there might be modification in Dallas.	this is still a chance there might be modification in dallas	241754880	1478494807660	1478494807739	 	32
472835	5092699	There is still a chance there might be modification in Dallas.	this is still a chance there might be modification in dallas	241754882	1478494807818	1478494807974	m	77
472835	5092699	There is still a chance there might be modification in Dallas.	this is still a chance there might be modification in dallas	241754913	1478494807881	1478494808029	i	73
472835	5092699	There is still a chance there might be modification in Dallas.	this is still a chance there might be modification in dallas	241754914	1478494807994	1478494808057	g	71
472835	5092699	There is still a chance there might be modification in Dallas.	this is still a chance there might be modification in dallas	241754915	1478494808135	1478494808206	h	72
472835	5092699	There is still a chance there might be modification in Dallas.	this is still a chance there might be modification in dallas	241754916	1478494808303	1478494808373	 	32
472835	5092699	There is still a chance there might be modification in Dallas.	this is still a chance there might be modification in dallas	241754917	1478494808707	1478494808808	BKSP	8
472835	5092699	There is still a chance there might be modification in Dallas.	this is still a chance there might be modification in dallas	241754918	1478494809073	1478494809155	t	84
472835	5092699	There is still a chance there might be modification in Dallas.	this is still a chance there might be modification in dallas	241754919	1478494809155	1478494809254	 	32
472835	5092699	There is still a chance there might be modification in Dallas.	this is still a chance there might be modification in dallas	241754932	1478494809319	1478494809374	b	66
472835	5092699	There is still a chance there might be modification in Dallas.	this is still a chance there might be modification in dallas	241754935	1478494809390	1478494809473	e	69
472835	5092699	There is still a chance there might be modification in Dallas.	this is still a chance there might be modification in dallas	241754939	1478494809488	1478494809588	 	32
472835	5092699	There is still a chance there might be modification in Dallas.	this is still a chance there might be modification in dallas	241754943	1478494809651	1478494809807	m	77
472835	5092699	There is still a chance there might be modification in Dallas.	this is still a chance there might be modification in dallas	241754988	1478494809743	1478494809890	o	79
472835	5092699	There is still a chance there might be modification in Dallas.	this is still a chance there might be modification in dallas	241754992	1478494809906	1478494809987	d	68
472835	5092699	There is still a chance there might be modification in Dallas.	this is still a chance there might be modification in dallas	241754996	1478494810034	1478494810105	i	73
472835	5092699	There is still a chance there might be modification in Dallas.	this is still a chance there might be modification in dallas	241755000	1478494810167	1478494810240	c	67
472835	5092699	There is still a chance there might be modification in Dallas.	this is still a chance there might be modification in dallas	241755004	1478494810255	1478494810337	i	73
472835	5092699	There is still a chance there might be modification in Dallas.	this is still a chance there might be modification in dallas	241755008	1478494810510	1478494810589	BKSP	8
472835	5092699	There is still a chance there might be modification in Dallas.	this is still a chance there might be modification in dallas	241755011	1478494810683	1478494810757	BKSP	8
472835	5092699	There is still a chance there might be modification in Dallas.	this is still a chance there might be modification in dallas	241755014	1478494810913	1478494810990	f	70
472835	5092699	There is still a chance there might be modification in Dallas.	this is still a chance there might be modification in dallas	241755025	1478494811024	1478494811106	i	73
472835	5092699	There is still a chance there might be modification in Dallas.	this is still a chance there might be modification in dallas	241755027	1478494811137	1478494811221	c	67
472835	5092699	There is still a chance there might be modification in Dallas.	this is still a chance there might be modification in dallas	241755031	1478494811346	1478494811408	a	65
472835	5092699	There is still a chance there might be modification in Dallas.	this is still a chance there might be modification in dallas	241755033	1478494811562	1478494811625	t	84
472835	5092699	There is still a chance there might be modification in Dallas.	this is still a chance there might be modification in dallas	241755037	1478494811625	1478494811690	i	73
472835	5092699	There is still a chance there might be modification in Dallas.	this is still a chance there might be modification in dallas	241755048	1478494811748	1478494811904	o	79
472835	5092699	There is still a chance there might be modification in Dallas.	this is still a chance there might be modification in dallas	241755051	1478494811859	1478494811935	n	78
472835	5092699	There is still a chance there might be modification in Dallas.	this is still a chance there might be modification in dallas	241755053	1478494812014	1478494812074	 	32
472835	5092699	There is still a chance there might be modification in Dallas.	this is still a chance there might be modification in dallas	241755056	1478494812184	1478494812362	i	73
472835	5092699	There is still a chance there might be modification in Dallas.	this is still a chance there might be modification in dallas	241755067	1478494812318	1478494812436	n	78
472835	5092699	There is still a chance there might be modification in Dallas.	this is still a chance there might be modification in dallas	241755069	1478494812515	1478494812612	 	32
472835	5092699	There is still a chance there might be modification in Dallas.	this is still a chance there might be modification in dallas	241755072	1478494812590	1478494812655	d	68
472835	5092699	There is still a chance there might be modification in Dallas.	this is still a chance there might be modification in dallas	241755074	1478494812749	1478494812853	a	65
472835	5092699	There is still a chance there might be modification in Dallas.	this is still a chance there might be modification in dallas	241755076	1478494812853	1478494812880	l	76
472835	5092699	There is still a chance there might be modification in Dallas.	this is still a chance there might be modification in dallas	241755078	1478494812938	1478494813044	l	76
472835	5092699	There is still a chance there might be modification in Dallas.	this is still a chance there might be modification in dallas	241755080	1478494813055	1478494813138	a	65
472835	5092699	There is still a chance there might be modification in Dallas.	this is still a chance there might be modification in dallas	241755081	1478494813200	1478494813257	s	83
472835	5092713	The evacuees included babies and young children.	the evacuees include babies and young children	241755139	1478494815908	1478494816001	t	84
472835	5092713	The evacuees included babies and young children.	the evacuees include babies and young children	241755141	1478494816099	1478494816201	h	72
472835	5092713	The evacuees included babies and young children.	the evacuees include babies and young children	241755142	1478494816248	1478494816367	e	69
472835	5092713	The evacuees included babies and young children.	the evacuees include babies and young children	241755143	1478494816383	1478494816438	 	32
472835	5092713	The evacuees included babies and young children.	the evacuees include babies and young children	241755144	1478494816657	1478494816801	e	69
472835	5092713	The evacuees included babies and young children.	the evacuees include babies and young children	241755184	1478494817057	1478494817121	v	86
472835	5092713	The evacuees included babies and young children.	the evacuees include babies and young children	241755186	1478494817355	1478494817437	a	65
472835	5092713	The evacuees included babies and young children.	the evacuees include babies and young children	241755189	1478494817796	1478494817888	c	67
472835	5092713	The evacuees included babies and young children.	the evacuees include babies and young children	241755194	1478494818031	1478494818120	u	85
472835	5092713	The evacuees included babies and young children.	the evacuees include babies and young children	241755197	1478494818433	1478494818487	e	69
472835	5092713	The evacuees included babies and young children.	the evacuees include babies and young children	241755225	1478494818598	1478494818670	e	69
472835	5092713	The evacuees included babies and young children.	the evacuees include babies and young children	241755226	1478494818796	1478494818887	s	83
472835	5092713	The evacuees included babies and young children.	the evacuees include babies and young children	241755227	1478494818950	1478494819070	 	32
472835	5092713	The evacuees included babies and young children.	the evacuees include babies and young children	241755228	1478494819052	1478494819121	e	69
472835	5092713	The evacuees included babies and young children.	the evacuees include babies and young children	241755229	1478494819195	1478494819333	i	73
472835	5092713	The evacuees included babies and young children.	the evacuees include babies and young children	241755250	1478494819285	1478494819354	n	78
472835	5092713	The evacuees included babies and young children.	the evacuees include babies and young children	241755251	1478494819482	1478494819536	BKSP	8
472835	5092713	The evacuees included babies and young children.	the evacuees include babies and young children	241755252	1478494819600	1478494819655	BKSP	8
472835	5092713	The evacuees included babies and young children.	the evacuees include babies and young children	241755253	1478494819733	1478494819788	BKSP	8
472835	5092713	The evacuees included babies and young children.	the evacuees include babies and young children	241755254	1478494819929	1478494820054	i	73
472835	5092713	The evacuees included babies and young children.	the evacuees include babies and young children	241755255	1478494820004	1478494820101	n	78
472835	5092713	The evacuees included babies and young children.	the evacuees include babies and young children	241755256	1478494820133	1478494820235	c	67
472835	5092713	The evacuees included babies and young children.	the evacuees include babies and young children	241755257	1478494820235	1478494820289	l	76
472835	5092713	The evacuees included babies and young children.	the evacuees include babies and young children	241755258	1478494820398	1478494820473	u	85
472835	5092713	The evacuees included babies and young children.	the evacuees include babies and young children	241755270	1478494820454	1478494820567	d	68
472835	5092713	The evacuees included babies and young children.	the evacuees include babies and young children	241755272	1478494820647	1478494820720	e	69
472835	5092713	The evacuees included babies and young children.	the evacuees include babies and young children	241755275	1478494820720	1478494820788	 	32
472835	5092713	The evacuees included babies and young children.	the evacuees include babies and young children	241755278	1478494820866	1478494820962	b	66
472835	5092713	The evacuees included babies and young children.	the evacuees include babies and young children	241755281	1478494820952	1478494821035	a	65
472835	5092713	The evacuees included babies and young children.	the evacuees include babies and young children	241755284	1478494821082	1478494821169	b	66
472835	5092713	The evacuees included babies and young children.	the evacuees include babies and young children	241755298	1478494821298	1478494821427	i	73
472835	5092713	The evacuees included babies and young children.	the evacuees include babies and young children	241755302	1478494821416	1478494821486	e	69
472835	5092713	The evacuees included babies and young children.	the evacuees include babies and young children	241755306	1478494821551	1478494821621	s	83
472835	5092713	The evacuees included babies and young children.	the evacuees include babies and young children	241755311	1478494821638	1478494821703	 	32
472835	5092713	The evacuees included babies and young children.	the evacuees include babies and young children	241755317	1478494821718	1478494821785	a	65
472835	5092713	The evacuees included babies and young children.	the evacuees include babies and young children	241755335	1478494821825	1478494821888	n	78
472835	5092713	The evacuees included babies and young children.	the evacuees include babies and young children	241755336	1478494821935	1478494821988	d	68
472835	5092713	The evacuees included babies and young children.	the evacuees include babies and young children	241755337	1478494821988	1478494822101	 	32
472835	5092713	The evacuees included babies and young children.	the evacuees include babies and young children	241755338	1478494822132	1478494822202	y	89
472835	5092713	The evacuees included babies and young children.	the evacuees include babies and young children	241755339	1478494822218	1478494822301	o	79
472835	5092713	The evacuees included babies and young children.	the evacuees include babies and young children	241755352	1478494822401	1478494822513	u	85
472835	5092713	The evacuees included babies and young children.	the evacuees include babies and young children	241755354	1478494822453	1478494822552	n	78
472835	5092713	The evacuees included babies and young children.	the evacuees include babies and young children	241755356	1478494822599	1478494822653	g	71
472835	5092713	The evacuees included babies and young children.	the evacuees include babies and young children	241755359	1478494822669	1478494822781	 	32
472835	5092713	The evacuees included babies and young children.	the evacuees include babies and young children	241755362	1478494822828	1478494822929	c	67
472835	5092713	The evacuees included babies and young children.	the evacuees include babies and young children	241755399	1478494822902	1478494822957	h	72
472835	5092713	The evacuees included babies and young children.	the evacuees include babies and young children	241755403	1478494823055	1478494823118	i	73
472835	5092713	The evacuees included babies and young children.	the evacuees include babies and young children	241755407	1478494823212	1478494823285	l	76
472835	5092713	The evacuees included babies and young children.	the evacuees include babies and young children	241755410	1478494823363	1478494823450	d	68
472835	5092713	The evacuees included babies and young children.	the evacuees include babies and young children	241755414	1478494823551	1478494823620	r	82
472835	5092713	The evacuees included babies and young children.	the evacuees include babies and young children	241755418	1478494823682	1478494823787	e	69
472835	5092713	The evacuees included babies and young children.	the evacuees include babies and young children	241755411	1478494823751	1478494823815	n	78
472835	5092718	He cannot be in two places at once.	he cannot be in two places at once	241755520	1478494826282	1478494826351	h	72
472835	5092718	He cannot be in two places at once.	he cannot be in two places at once	241755523	1478494826461	1478494826534	e	69
472835	5092718	He cannot be in two places at once.	he cannot be in two places at once	241755526	1478494826565	1478494826668	 	32
472835	5092718	He cannot be in two places at once.	he cannot be in two places at once	241755527	1478494826651	1478494826720	c	67
472835	5092718	He cannot be in two places at once.	he cannot be in two places at once	241755529	1478494826829	1478494826933	a	65
472835	5092718	He cannot be in two places at once.	he cannot be in two places at once	241755536	1478494826933	1478494826977	n	78
472835	5092718	He cannot be in two places at once.	he cannot be in two places at once	241755538	1478494827033	1478494827119	n	78
472835	5092718	He cannot be in two places at once.	he cannot be in two places at once	241755540	1478494827197	1478494827300	o	79
472835	5092718	He cannot be in two places at once.	he cannot be in two places at once	241755543	1478494827315	1478494827357	t	84
472835	5092718	He cannot be in two places at once.	he cannot be in two places at once	241755547	1478494827385	1478494827467	 	32
472835	5092718	He cannot be in two places at once.	he cannot be in two places at once	241755560	1478494827551	1478494827615	b	66
472835	5092718	He cannot be in two places at once.	he cannot be in two places at once	241755564	1478494827603	1478494827699	e	69
472835	5092718	He cannot be in two places at once.	he cannot be in two places at once	241755567	1478494827699	1478494827768	 	32
472835	5092718	He cannot be in two places at once.	he cannot be in two places at once	241755570	1478494827815	1478494827936	i	73
472835	5092718	He cannot be in two places at once.	he cannot be in two places at once	241755598	1478494827885	1478494827965	n	78
472835	5092718	He cannot be in two places at once.	he cannot be in two places at once	241755600	1478494828043	1478494828175	 	32
472835	5092718	He cannot be in two places at once.	he cannot be in two places at once	241755602	1478494828197	1478494828269	t	84
472835	5092718	He cannot be in two places at once.	he cannot be in two places at once	241755605	1478494828460	1478494828566	w	87
472835	5092718	He cannot be in two places at once.	he cannot be in two places at once	241755608	1478494828583	1478494828636	o	79
472835	5092718	He cannot be in two places at once.	he cannot be in two places at once	241755610	1478494828699	1478494828798	 	32
472835	5092718	He cannot be in two places at once.	he cannot be in two places at once	241755639	1478494828850	1478494829001	p	80
472835	5092718	He cannot be in two places at once.	he cannot be in two places at once	241755646	1478494828934	1478494829069	l	76
472835	5092718	He cannot be in two places at once.	he cannot be in two places at once	241755641	1478494829024	1478494829053	a	65
472835	5092718	He cannot be in two places at once.	he cannot be in two places at once	241755650	1478494829178	1478494829251	c	67
472835	5092718	He cannot be in two places at once.	he cannot be in two places at once	241755653	1478494829550	1478494829601	s	83
472835	5092718	He cannot be in two places at once.	he cannot be in two places at once	241755682	1478494830006	1478494830084	BKSP	8
472835	5092718	He cannot be in two places at once.	he cannot be in two places at once	241755685	1478494830130	1478494830216	e	69
472835	5092718	He cannot be in two places at once.	he cannot be in two places at once	241755688	1478494830294	1478494830366	s	83
472835	5092718	He cannot be in two places at once.	he cannot be in two places at once	241755691	1478494830366	1478494830481	 	32
472835	5092718	He cannot be in two places at once.	he cannot be in two places at once	241755695	1478494830464	1478494830552	a	65
472835	5092718	He cannot be in two places at once.	he cannot be in two places at once	241755711	1478494830518	1478494830598	t	84
472835	5092718	He cannot be in two places at once.	he cannot be in two places at once	241755715	1478494830660	1478494830748	 	32
472835	5092718	He cannot be in two places at once.	he cannot be in two places at once	241755718	1478494830827	1478494831006	o	79
472835	5092718	He cannot be in two places at once.	he cannot be in two places at once	241755721	1478494830917	1478494831025	n	78
472835	5092718	He cannot be in two places at once.	he cannot be in two places at once	241755724	1478494830985	1478494831051	c	67
472835	5092718	He cannot be in two places at once.	he cannot be in two places at once	241755728	1478494831129	1478494831216	e	69
472835	5092723	Last year I made some mistakes here.	last year i made some mistakes here	241755801	1478494833600	1478494833682	l	76
472835	5092723	Last year I made some mistakes here.	last year i made some mistakes here	241755802	1478494833682	1478494833750	a	65
472835	5092723	Last year I made some mistakes here.	last year i made some mistakes here	241755803	1478494833860	1478494833995	s	83
472835	5092723	Last year I made some mistakes here.	last year i made some mistakes here	241755804	1478494834057	1478494834149	t	84
472835	5092723	Last year I made some mistakes here.	last year i made some mistakes here	241755805	1478494834211	1478494834332	 	32
472835	5092723	Last year I made some mistakes here.	last year i made some mistakes here	241755808	1478494834359	1478494834448	y	89
472835	5092723	Last year I made some mistakes here.	last year i made some mistakes here	241755810	1478494834530	1478494834631	e	69
472835	5092723	Last year I made some mistakes here.	last year i made some mistakes here	241755812	1478494834744	1478494834817	a	65
472835	5092723	Last year I made some mistakes here.	last year i made some mistakes here	241755814	1478494834932	1478494835017	r	82
472835	5092723	Last year I made some mistakes here.	last year i made some mistakes here	241755816	1478494835032	1478494835099	 	32
472835	5092723	Last year I made some mistakes here.	last year i made some mistakes here	241755821	1478494835144	1478494835202	i	73
472835	5092723	Last year I made some mistakes here.	last year i made some mistakes here	241755823	1478494835280	1478494835350	 	32
472835	5092723	Last year I made some mistakes here.	last year i made some mistakes here	241755825	1478494835428	1478494835520	m	77
472835	5092723	Last year I made some mistakes here.	last year i made some mistakes here	241755826	1478494835499	1478494835583	a	65
472835	5092723	Last year I made some mistakes here.	last year i made some mistakes here	241755827	1478494835661	1478494835732	d	68
472835	5092723	Last year I made some mistakes here.	last year i made some mistakes here	241755833	1478494835810	1478494835884	e	69
472835	5092723	Last year I made some mistakes here.	last year i made some mistakes here	241755837	1478494835915	1478494836016	 	32
472835	5092723	Last year I made some mistakes here.	last year i made some mistakes here	241755841	1478494835998	1478494836105	s	83
472835	5092723	Last year I made some mistakes here.	last year i made some mistakes here	241755845	1478494836083	1478494836200	o	79
472835	5092723	Last year I made some mistakes here.	last year i made some mistakes here	241755855	1478494836149	1478494836252	m	77
472835	5092723	Last year I made some mistakes here.	last year i made some mistakes here	241755857	1478494836237	1478494836317	e	69
472835	5092723	Last year I made some mistakes here.	last year i made some mistakes here	241755861	1478494836332	1478494836399	 	32
472835	5092723	Last year I made some mistakes here.	last year i made some mistakes here	241755865	1478494836464	1478494836631	m	77
472835	5092723	Last year I made some mistakes here.	last year i made some mistakes here	241755885	1478494836563	1478494836685	i	73
472835	5092723	Last year I made some mistakes here.	last year i made some mistakes here	241755887	1478494836617	1478494836721	s	83
472835	5092723	Last year I made some mistakes here.	last year i made some mistakes here	241755890	1478494836815	1478494836887	t	84
472835	5092723	Last year I made some mistakes here.	last year i made some mistakes here	241755894	1478494836918	1478494837000	a	65
472835	5092723	Last year I made some mistakes here.	last year i made some mistakes here	241755898	1478494837031	1478494837116	k	75
472835	5092723	Last year I made some mistakes here.	last year i made some mistakes here	241755901	1478494837131	1478494837216	e	69
472835	5092723	Last year I made some mistakes here.	last year i made some mistakes here	241755904	1478494837278	1478494837365	s	83
472835	5092723	Last year I made some mistakes here.	last year i made some mistakes here	241755910	1478494837310	1478494837399	 	32
472835	5092723	Last year I made some mistakes here.	last year i made some mistakes here	241755912	1478494837414	1478494837537	h	72
472835	5092723	Last year I made some mistakes here.	last year i made some mistakes here	241755914	1478494837515	1478494837583	e	69
472835	5092723	Last year I made some mistakes here.	last year i made some mistakes here	241755916	1478494837645	1478494837715	r	82
