PARTICIPANT_ID	TEST_SECTION_ID	SENTENCE	USER_INPUT	KEYSTROKE_ID	PRESS_TIME	RELEASE_TIME	LETTER	KEYCODE
475324	5119570	He is expected to participate in practice.	He is expected to participate in practice.	243037471	1478533092091	1478533092701	SHIFT	16
475324	5119570	He is expected to participate in practice.	He is expected to participate in practice.	243037469	1478533092582	1478533092699	H	72
475324	5119570	He is expected to participate in practice.	He is expected to participate in practice.	243037477	1478533092786	1478533092948	e	69
475324	5119570	He is expected to participate in practice.	He is expected to participate in practice.	243037481	1478533092888	1478533093014	 	32
475324	5119570	He is expected to participate in practice.	He is expected to participate in practice.	243037487	1478533093048	1478533093152	i	73
475324	5119570	He is expected to participate in practice.	He is expected to participate in practice.	243037533	1478533093110	1478533093258	s	83
475324	5119570	He is expected to participate in practice.	He is expected to participate in practice.	243037538	1478533093230	1478533093334	 	32
475324	5119570	He is expected to participate in practice.	He is expected to participate in practice.	243037542	1478533093468	1478533093571	e	69
475324	5119570	He is expected to participate in practice.	He is expected to participate in practice.	243037546	1478533093749	1478533093833	x	88
475324	5119570	He is expected to participate in practice.	He is expected to participate in practice.	243037550	1478533093898	1478533094000	p	80
475324	5119570	He is expected to participate in practice.	He is expected to participate in practice.	243037553	1478533094054	1478533094165	e	69
475324	5119570	He is expected to participate in practice.	He is expected to participate in practice.	243037580	1478533094266	1478533094355	c	67
475324	5119570	He is expected to participate in practice.	He is expected to participate in practice.	243037582	1478533094486	1478533094559	t	84
475324	5119570	He is expected to participate in practice.	He is expected to participate in practice.	243037585	1478533094636	1478533094737	e	69
475324	5119570	He is expected to participate in practice.	He is expected to participate in practice.	243037592	1478533094792	1478533094921	d	68
475324	5119570	He is expected to participate in practice.	He is expected to participate in practice.	243037619	1478533094855	1478533095005	 	32
475324	5119570	He is expected to participate in practice.	He is expected to participate in practice.	243037622	1478533095036	1478533095131	t	84
475324	5119570	He is expected to participate in practice.	He is expected to participate in practice.	243037624	1478533095114	1478533095225	o	79
475324	5119570	He is expected to participate in practice.	He is expected to participate in practice.	243037626	1478533095204	1478533095322	 	32
475324	5119570	He is expected to participate in practice.	He is expected to participate in practice.	243037630	1478533095403	1478533095501	p	80
475324	5119570	He is expected to participate in practice.	He is expected to participate in practice.	243037674	1478533095497	1478533095679	a	65
475324	5119570	He is expected to participate in practice.	He is expected to participate in practice.	243037677	1478533095627	1478533095746	r	82
475324	5119570	He is expected to participate in practice.	He is expected to participate in practice.	243037681	1478533095858	1478533095954	t	84
475324	5119570	He is expected to participate in practice.	He is expected to participate in practice.	243037683	1478533095964	1478533096061	i	73
475324	5119570	He is expected to participate in practice.	He is expected to participate in practice.	243037688	1478533096153	1478533096264	c	67
475324	5119570	He is expected to participate in practice.	He is expected to participate in practice.	243037694	1478533096264	1478533096377	i	73
475324	5119570	He is expected to participate in practice.	He is expected to participate in practice.	243037747	1478533096650	1478533096797	p	80
475324	5119570	He is expected to participate in practice.	He is expected to participate in practice.	243037752	1478533096804	1478533096964	a	65
475324	5119570	He is expected to participate in practice.	He is expected to participate in practice.	243037757	1478533096933	1478533097079	t	84
475324	5119570	He is expected to participate in practice.	He is expected to participate in practice.	243037763	1478533097074	1478533097237	e	69
475324	5119570	He is expected to participate in practice.	He is expected to participate in practice.	243037799	1478533097152	1478533097284	 	32
475324	5119570	He is expected to participate in practice.	He is expected to participate in practice.	243037801	1478533097290	1478533097433	i	73
475324	5119570	He is expected to participate in practice.	He is expected to participate in practice.	243037808	1478533097361	1478533097477	n	78
475324	5119570	He is expected to participate in practice.	He is expected to participate in practice.	243037811	1478533097455	1478533097579	 	32
475324	5119570	He is expected to participate in practice.	He is expected to participate in practice.	243037818	1478533097780	1478533097893	p	80
475324	5119570	He is expected to participate in practice.	He is expected to participate in practice.	243037824	1478533097939	1478533098096	r	82
475324	5119570	He is expected to participate in practice.	He is expected to participate in practice.	243037866	1478533098050	1478533098190	a	65
475324	5119570	He is expected to participate in practice.	He is expected to participate in practice.	243037871	1478533098264	1478533098379	c	67
475324	5119570	He is expected to participate in practice.	He is expected to participate in practice.	243037874	1478533098484	1478533098553	t	84
475324	5119570	He is expected to participate in practice.	He is expected to participate in practice.	243037879	1478533098534	1478533098647	i	73
475324	5119570	He is expected to participate in practice.	He is expected to participate in practice.	243037884	1478533098757	1478533098856	c	67
475324	5119570	He is expected to participate in practice.	He is expected to participate in practice.	243037887	1478533098916	1478533099015	e	69
475324	5119570	He is expected to participate in practice.	He is expected to participate in practice.	243037952	1478533099371	1478533099455	.	190
475324	5119585	Most recent surveys put them in a dead heat.	Most recent surveys put the in a dead heat.	243038151	1478533101829	1478533102071	SHIFT	16
475324	5119585	Most recent surveys put them in a dead heat.	Most recent surveys put the in a dead heat.	243038157	1478533101991	1478533102108	M	77
475324	5119585	Most recent surveys put them in a dead heat.	Most recent surveys put the in a dead heat.	243038164	1478533102259	1478533102433	s	83
475324	5119585	Most recent surveys put them in a dead heat.	Most recent surveys put the in a dead heat.	243038171	1478533102448	1478533102630	t	84
475324	5119585	Most recent surveys put them in a dead heat.	Most recent surveys put the in a dead heat.	243038177	1478533102542	1478533102698	 	32
475324	5119585	Most recent surveys put them in a dead heat.	Most recent surveys put the in a dead heat.	243038180	1478533102798	1478533102936	r	82
475324	5119585	Most recent surveys put them in a dead heat.	Most recent surveys put the in a dead heat.	243038290	1478533102878	1478533103015	e	69
475324	5119585	Most recent surveys put them in a dead heat.	Most recent surveys put the in a dead heat.	243038296	1478533103052	1478533103156	BKSP	8
475324	5119585	Most recent surveys put them in a dead heat.	Most recent surveys put the in a dead heat.	243038299	1478533103194	1478533103290	BKSP	8
475324	5119585	Most recent surveys put them in a dead heat.	Most recent surveys put the in a dead heat.	243038302	1478533103321	1478533103420	BKSP	8
475324	5119585	Most recent surveys put them in a dead heat.	Most recent surveys put the in a dead heat.	243038306	1478533103468	1478533103535	BKSP	8
475324	5119585	Most recent surveys put them in a dead heat.	Most recent surveys put the in a dead heat.	243038309	1478533103598	1478533103698	BKSP	8
475324	5119585	Most recent surveys put them in a dead heat.	Most recent surveys put the in a dead heat.	243038313	1478533103998	1478533104108	o	79
475324	5119585	Most recent surveys put them in a dead heat.	Most recent surveys put the in a dead heat.	243038316	1478533104093	1478533104274	s	83
475324	5119585	Most recent surveys put them in a dead heat.	Most recent surveys put the in a dead heat.	243038319	1478533104243	1478533104418	t	84
475324	5119585	Most recent surveys put them in a dead heat.	Most recent surveys put the in a dead heat.	243038322	1478533104336	1478533104486	 	32
475324	5119585	Most recent surveys put them in a dead heat.	Most recent surveys put the in a dead heat.	243038326	1478533104616	1478533104764	r	82
475324	5119585	Most recent surveys put them in a dead heat.	Most recent surveys put the in a dead heat.	243038350	1478533104692	1478533104852	e	69
475324	5119585	Most recent surveys put them in a dead heat.	Most recent surveys put the in a dead heat.	243038353	1478533104918	1478533105021	c	67
475324	5119585	Most recent surveys put them in a dead heat.	Most recent surveys put the in a dead heat.	243038357	1478533105083	1478533105192	e	69
475324	5119585	Most recent surveys put them in a dead heat.	Most recent surveys put the in a dead heat.	243038361	1478533105211	1478533105302	n	78
475324	5119585	Most recent surveys put them in a dead heat.	Most recent surveys put the in a dead heat.	243038364	1478533105349	1478533105481	t	84
475324	5119585	Most recent surveys put them in a dead heat.	Most recent surveys put the in a dead heat.	243038433	1478533105412	1478533105549	 	32
475324	5119585	Most recent surveys put them in a dead heat.	Most recent surveys put the in a dead heat.	243038438	1478533105655	1478533105764	s	83
475324	5119585	Most recent surveys put them in a dead heat.	Most recent surveys put the in a dead heat.	243038443	1478533105783	1478533105902	u	85
475324	5119585	Most recent surveys put them in a dead heat.	Most recent surveys put the in a dead heat.	243038449	1478533105924	1478533106047	r	82
475324	5119585	Most recent surveys put them in a dead heat.	Most recent surveys put the in a dead heat.	243038452	1478533106168	1478533106288	v	86
475324	5119585	Most recent surveys put them in a dead heat.	Most recent surveys put the in a dead heat.	243038458	1478533106393	1478533106505	e	69
475324	5119585	Most recent surveys put them in a dead heat.	Most recent surveys put the in a dead heat.	243038542	1478533106801	1478533106915	y	89
475324	5119585	Most recent surveys put them in a dead heat.	Most recent surveys put the in a dead heat.	243038548	1478533107023	1478533107180	s	83
475324	5119585	Most recent surveys put them in a dead heat.	Most recent surveys put the in a dead heat.	243038553	1478533107128	1478533107255	 	32
475324	5119585	Most recent surveys put them in a dead heat.	Most recent surveys put the in a dead heat.	243038556	1478533107544	1478533107645	p	80
475324	5119585	Most recent surveys put them in a dead heat.	Most recent surveys put the in a dead heat.	243038558	1478533107820	1478533107935	u	85
475324	5119585	Most recent surveys put them in a dead heat.	Most recent surveys put the in a dead heat.	243038614	1478533107972	1478533108013	t	84
475324	5119585	Most recent surveys put them in a dead heat.	Most recent surveys put the in a dead heat.	243038620	1478533108317	1478533108445	 	32
475324	5119585	Most recent surveys put them in a dead heat.	Most recent surveys put the in a dead heat.	243038627	1478533108473	1478533108550	t	84
475324	5119585	Most recent surveys put them in a dead heat.	Most recent surveys put the in a dead heat.	243038633	1478533108616	1478533108707	h	72
475324	5119585	Most recent surveys put them in a dead heat.	Most recent surveys put the in a dead heat.	243038640	1478533109004	1478533109106	e	69
475324	5119585	Most recent surveys put them in a dead heat.	Most recent surveys put the in a dead heat.	243038713	1478533109326	1478533109434	 	32
475324	5119585	Most recent surveys put them in a dead heat.	Most recent surveys put the in a dead heat.	243038719	1478533109494	1478533109661	i	73
475324	5119585	Most recent surveys put them in a dead heat.	Most recent surveys put the in a dead heat.	243038726	1478533109618	1478533109730	n	78
475324	5119585	Most recent surveys put them in a dead heat.	Most recent surveys put the in a dead heat.	243038731	1478533109744	1478533109871	 	32
475324	5119585	Most recent surveys put them in a dead heat.	Most recent surveys put the in a dead heat.	243038737	1478533109877	1478533110015	a	65
475324	5119585	Most recent surveys put them in a dead heat.	Most recent surveys put the in a dead heat.	243038783	1478533109958	1478533110105	 	32
475324	5119585	Most recent surveys put them in a dead heat.	Most recent surveys put the in a dead heat.	243038788	1478533110278	1478533110370	d	68
475324	5119585	Most recent surveys put them in a dead heat.	Most recent surveys put the in a dead heat.	243038792	1478533110451	1478533110581	e	69
475324	5119585	Most recent surveys put them in a dead heat.	Most recent surveys put the in a dead heat.	243038799	1478533110536	1478533110741	a	65
475324	5119585	Most recent surveys put them in a dead heat.	Most recent surveys put the in a dead heat.	243038805	1478533110698	1478533110834	d	68
475324	5119585	Most recent surveys put them in a dead heat.	Most recent surveys put the in a dead heat.	243038926	1478533110769	1478533110907	 	32
475324	5119585	Most recent surveys put them in a dead heat.	Most recent surveys put the in a dead heat.	243038929	1478533110997	1478533111101	h	72
475324	5119585	Most recent surveys put them in a dead heat.	Most recent surveys put the in a dead heat.	243038930	1478533111082	1478533111229	e	69
475324	5119585	Most recent surveys put them in a dead heat.	Most recent surveys put the in a dead heat.	243038932	1478533111147	1478533111342	a	65
475324	5119585	Most recent surveys put them in a dead heat.	Most recent surveys put the in a dead heat.	243038934	1478533111273	1478533111406	r	82
475324	5119585	Most recent surveys put them in a dead heat.	Most recent surveys put the in a dead heat.	243038937	1478533112062	1478533112167	BKSP	8
475324	5119585	Most recent surveys put them in a dead heat.	Most recent surveys put the in a dead heat.	243038943	1478533112192	1478533112286	t	84
475324	5119585	Most recent surveys put them in a dead heat.	Most recent surveys put the in a dead heat.	243038970	1478533112409	1478533112488	.	190
475324	5119607	Man I don't want to get sick again.	Man I don't want to get sick again.	243039376	1478533117387	1478533117745	SHIFT	16
475324	5119607	Man I don't want to get sick again.	Man I don't want to get sick again.	243039383	1478533117629	1478533117782	M	77
475324	5119607	Man I don't want to get sick again.	Man I don't want to get sick again.	243039389	1478533117805	1478533117932	a	65
475324	5119607	Man I don't want to get sick again.	Man I don't want to get sick again.	243039396	1478533117958	1478533118047	n	78
475324	5119607	Man I don't want to get sick again.	Man I don't want to get sick again.	243039400	1478533118032	1478533118168	 	32
475324	5119607	Man I don't want to get sick again.	Man I don't want to get sick again.	243039402	1478533118196	1478533118368	SHIFT	16
475324	5119607	Man I don't want to get sick again.	Man I don't want to get sick again.	243039513	1478533118294	1478533118409	O	79
475324	5119607	Man I don't want to get sick again.	Man I don't want to get sick again.	243039519	1478533118437	1478533118537	 	32
475324	5119607	Man I don't want to get sick again.	Man I don't want to get sick again.	243039524	1478533118692	1478533118771	d	68
475324	5119607	Man I don't want to get sick again.	Man I don't want to get sick again.	243039529	1478533118778	1478533118879	p	80
475324	5119607	Man I don't want to get sick again.	Man I don't want to get sick again.	243039536	1478533118926	1478533118966	m	77
475324	5119607	Man I don't want to get sick again.	Man I don't want to get sick again.	243039541	1478533119614	1478533119707	BKSP	8
475324	5119607	Man I don't want to get sick again.	Man I don't want to get sick again.	243039546	1478533119747	1478533119837	BKSP	8
475324	5119607	Man I don't want to get sick again.	Man I don't want to get sick again.	243039553	1478533120058	1478533120206	o	79
475324	5119607	Man I don't want to get sick again.	Man I don't want to get sick again.	243039789	1478533120129	1478533120225	n	78
475324	5119607	Man I don't want to get sick again.	Man I don't want to get sick again.	243039798	1478533120449	1478533120536	'	222
475324	5119607	Man I don't want to get sick again.	Man I don't want to get sick again.	243039804	1478533120579	1478533120672	y	89
475324	5119607	Man I don't want to get sick again.	Man I don't want to get sick again.	243039811	1478533120647	1478533120765	 	32
475324	5119607	Man I don't want to get sick again.	Man I don't want to get sick again.	243039818	1478533121077	1478533121161	BKSP	8
475324	5119607	Man I don't want to get sick again.	Man I don't want to get sick again.	243039826	1478533121256	1478533121340	BKSP	8
475324	5119607	Man I don't want to get sick again.	Man I don't want to get sick again.	243039830	1478533122081	1478533122169	BKSP	8
475324	5119607	Man I don't want to get sick again.	Man I don't want to get sick again.	243039836	1478533122231	1478533122322	BKSP	8
475324	5119607	Man I don't want to get sick again.	Man I don't want to get sick again.	243039841	1478533122365	1478533122452	BKSP	8
475324	5119607	Man I don't want to get sick again.	Man I don't want to get sick again.	243039848	1478533122499	1478533122580	BKSP	8
475324	5119607	Man I don't want to get sick again.	Man I don't want to get sick again.	243039853	1478533122633	1478533122717	BKSP	8
475324	5119607	Man I don't want to get sick again.	Man I don't want to get sick again.	243039861	1478533122767	1478533122875	BKSP	8
475324	5119607	Man I don't want to get sick again.	Man I don't want to get sick again.	243039869	1478533123133	1478533123347	SHIFT	16
475324	5119607	Man I don't want to get sick again.	Man I don't want to get sick again.	243039878	1478533123276	1478533123384	I	73
475324	5119607	Man I don't want to get sick again.	Man I don't want to get sick again.	243039890	1478533123449	1478533123550	 	32
475324	5119607	Man I don't want to get sick again.	Man I don't want to get sick again.	243039852	1478533123623	1478533123720	d	68
475324	5119607	Man I don't want to get sick again.	Man I don't want to get sick again.	243039858	1478533123678	1478533123819	o	79
475324	5119607	Man I don't want to get sick again.	Man I don't want to get sick again.	243039864	1478533123768	1478533123851	n	78
475324	5119607	Man I don't want to get sick again.	Man I don't want to get sick again.	243039876	1478533124003	1478533124112	'	222
475324	5119607	Man I don't want to get sick again.	Man I don't want to get sick again.	243039946	1478533124105	1478533124262	t	84
475324	5119607	Man I don't want to get sick again.	Man I don't want to get sick again.	243039950	1478533124181	1478533124312	 	32
475324	5119607	Man I don't want to get sick again.	Man I don't want to get sick again.	243039955	1478533124429	1478533124560	w	87
475324	5119607	Man I don't want to get sick again.	Man I don't want to get sick again.	243039961	1478533124504	1478533124642	a	65
475324	5119607	Man I don't want to get sick again.	Man I don't want to get sick again.	243039969	1478533124642	1478533124732	n	78
475324	5119607	Man I don't want to get sick again.	Man I don't want to get sick again.	243039972	1478533124785	1478533124922	t	84
475324	5119607	Man I don't want to get sick again.	Man I don't want to get sick again.	243040023	1478533124869	1478533124994	 	32
475324	5119607	Man I don't want to get sick again.	Man I don't want to get sick again.	243040030	1478533125028	1478533125149	t	84
475324	5119607	Man I don't want to get sick again.	Man I don't want to get sick again.	243040036	1478533125125	1478533125211	o	79
475324	5119607	Man I don't want to get sick again.	Man I don't want to get sick again.	243040041	1478533125221	1478533125353	 	32
475324	5119607	Man I don't want to get sick again.	Man I don't want to get sick again.	243040044	1478533125463	1478533125565	g	71
475324	5119607	Man I don't want to get sick again.	Man I don't want to get sick again.	243040049	1478533125628	1478533125755	e	69
475324	5119607	Man I don't want to get sick again.	Man I don't want to get sick again.	243040106	1478533125727	1478533125874	t	84
475324	5119607	Man I don't want to get sick again.	Man I don't want to get sick again.	243040111	1478533125762	1478533125921	 	32
475324	5119607	Man I don't want to get sick again.	Man I don't want to get sick again.	243040117	1478533126127	1478533126222	s	83
475324	5119607	Man I don't want to get sick again.	Man I don't want to get sick again.	243040123	1478533126215	1478533126315	i	73
475324	5119607	Man I don't want to get sick again.	Man I don't want to get sick again.	243040126	1478533126364	1478533126468	c	67
475324	5119607	Man I don't want to get sick again.	Man I don't want to get sick again.	243040130	1478533126506	1478533126606	k	75
475324	5119607	Man I don't want to get sick again.	Man I don't want to get sick again.	243040173	1478533126637	1478533126759	 	32
475324	5119607	Man I don't want to get sick again.	Man I don't want to get sick again.	243040175	1478533126819	1478533126970	a	65
475324	5119607	Man I don't want to get sick again.	Man I don't want to get sick again.	243040177	1478533127221	1478533127326	g	71
475324	5119607	Man I don't want to get sick again.	Man I don't want to get sick again.	243040180	1478533127336	1478533127440	a	65
475324	5119607	Man I don't want to get sick again.	Man I don't want to get sick again.	243040282	1478533127428	1478533127559	i	73
475324	5119607	Man I don't want to get sick again.	Man I don't want to get sick again.	243040287	1478533127492	1478533127603	n	78
475324	5119607	Man I don't want to get sick again.	Man I don't want to get sick again.	243040294	1478533128031	1478533128127	.	190
475324	5119635	Where do you want to meet to walk over there?	Where do you want to meet to walk over there?	243040466	1478533129914	1478533130123	SHIFT	16
475324	5119635	Where do you want to meet to walk over there?	Where do you want to meet to walk over there?	243040470	1478533130070	1478533130228	W	87
475324	5119635	Where do you want to meet to walk over there?	Where do you want to meet to walk over there?	243040476	1478533130278	1478533130542	h	72
475324	5119635	Where do you want to meet to walk over there?	Where do you want to meet to walk over there?	243040481	1478533130543	1478533130550	r	69
475324	5119635	Where do you want to meet to walk over there?	Where do you want to meet to walk over there?	243040555	1478533130601	1478533130765	e	69
475324	5119635	Where do you want to meet to walk over there?	Where do you want to meet to walk over there?	243040561	1478533130836	1478533130959	 	32
475324	5119635	Where do you want to meet to walk over there?	Where do you want to meet to walk over there?	243040565	1478533131141	1478533131279	d	68
475324	5119635	Where do you want to meet to walk over there?	Where do you want to meet to walk over there?	243040569	1478533131279	1478533131341	o	79
475324	5119635	Where do you want to meet to walk over there?	Where do you want to meet to walk over there?	243040573	1478533131368	1478533131459	 	32
475324	5119635	Where do you want to meet to walk over there?	Where do you want to meet to walk over there?	243040577	1478533131560	1478533131649	y	89
475324	5119635	Where do you want to meet to walk over there?	Where do you want to meet to walk over there?	243040600	1478533131634	1478533131780	o	79
475324	5119635	Where do you want to meet to walk over there?	Where do you want to meet to walk over there?	243040607	1478533131715	1478533131833	u	85
475324	5119635	Where do you want to meet to walk over there?	Where do you want to meet to walk over there?	243040617	1478533131809	1478533131920	 	32
475324	5119635	Where do you want to meet to walk over there?	Where do you want to meet to walk over there?	243040623	1478533131965	1478533132138	w	87
475324	5119635	Where do you want to meet to walk over there?	Where do you want to meet to walk over there?	243040627	1478533132061	1478533132241	a	65
475324	5119635	Where do you want to meet to walk over there?	Where do you want to meet to walk over there?	243040657	1478533132238	1478533132289	n	78
475324	5119635	Where do you want to meet to walk over there?	Where do you want to meet to walk over there?	243040659	1478533132349	1478533132440	t	84
475324	5119635	Where do you want to meet to walk over there?	Where do you want to meet to walk over there?	243040665	1478533132426	1478533132564	 	32
475324	5119635	Where do you want to meet to walk over there?	Where do you want to meet to walk over there?	243040669	1478533132588	1478533132684	t	84
475324	5119635	Where do you want to meet to walk over there?	Where do you want to meet to walk over there?	243040673	1478533132691	1478533132779	o	79
475324	5119635	Where do you want to meet to walk over there?	Where do you want to meet to walk over there?	243040676	1478533132808	1478533132925	 	32
475324	5119635	Where do you want to meet to walk over there?	Where do you want to meet to walk over there?	243040687	1478533132939	1478533133029	m	77
475324	5119635	Where do you want to meet to walk over there?	Where do you want to meet to walk over there?	243040690	1478533133011	1478533133136	e	69
475324	5119635	Where do you want to meet to walk over there?	Where do you want to meet to walk over there?	243040696	1478533133176	1478533133312	e	69
475324	5119635	Where do you want to meet to walk over there?	Where do you want to meet to walk over there?	243040705	1478533133386	1478533133505	t	84
475324	5119635	Where do you want to meet to walk over there?	Where do you want to meet to walk over there?	243040755	1478533133474	1478533133608	 	32
475324	5119635	Where do you want to meet to walk over there?	Where do you want to meet to walk over there?	243040759	1478533133630	1478533133736	t	84
475324	5119635	Where do you want to meet to walk over there?	Where do you want to meet to walk over there?	243040764	1478533133742	1478533133835	o	79
475324	5119635	Where do you want to meet to walk over there?	Where do you want to meet to walk over there?	243040769	1478533133851	1478533134000	 	32
475324	5119635	Where do you want to meet to walk over there?	Where do you want to meet to walk over there?	243040775	1478533134032	1478533134180	w	87
475324	5119635	Where do you want to meet to walk over there?	Where do you want to meet to walk over there?	243040825	1478533134150	1478533134299	a	65
475324	5119635	Where do you want to meet to walk over there?	Where do you want to meet to walk over there?	243040828	1478533134302	1478533134395	l	76
475324	5119635	Where do you want to meet to walk over there?	Where do you want to meet to walk over there?	243040834	1478533134501	1478533134600	k	75
475324	5119635	Where do you want to meet to walk over there?	Where do you want to meet to walk over there?	243040840	1478533134720	1478533134849	 	32
475324	5119635	Where do you want to meet to walk over there?	Where do you want to meet to walk over there?	243040848	1478533134881	1478533134985	o	79
475324	5119635	Where do you want to meet to walk over there?	Where do you want to meet to walk over there?	243040854	1478533135078	1478533135237	v	86
475324	5119635	Where do you want to meet to walk over there?	Where do you want to meet to walk over there?	243040883	1478533135325	1478533135506	e	69
475324	5119635	Where do you want to meet to walk over there?	Where do you want to meet to walk over there?	243040887	1478533135418	1478533135573	r	82
475324	5119635	Where do you want to meet to walk over there?	Where do you want to meet to walk over there?	243040890	1478533135478	1478533135605	 	32
475324	5119635	Where do you want to meet to walk over there?	Where do you want to meet to walk over there?	243040894	1478533135658	1478533135754	t	84
475324	5119635	Where do you want to meet to walk over there?	Where do you want to meet to walk over there?	243040896	1478533135769	1478533135866	h	72
475324	5119635	Where do you want to meet to walk over there?	Where do you want to meet to walk over there?	243040949	1478533135847	1478533135972	e	69
475324	5119635	Where do you want to meet to walk over there?	Where do you want to meet to walk over there?	243040953	1478533135916	1478533136060	r	82
475324	5119635	Where do you want to meet to walk over there?	Where do you want to meet to walk over there?	243040958	1478533136041	1478533136172	e	69
475324	5119635	Where do you want to meet to walk over there?	Where do you want to meet to walk over there?	243040962	1478533136535	1478533136649	?	191
475324	5119647	I am unavailable for the 1PM meeting.	I am unavailable for the 1PM meeting.	243041281	1478533139712	1478533139829	I	73
475324	5119647	I am unavailable for the 1PM meeting.	I am unavailable for the 1PM meeting.	243041284	1478533139914	1478533140030	 	32
475324	5119647	I am unavailable for the 1PM meeting.	I am unavailable for the 1PM meeting.	243041290	1478533140073	1478533140178	a	65
475324	5119647	I am unavailable for the 1PM meeting.	I am unavailable for the 1PM meeting.	243041295	1478533140719	1478533140807	m	77
475324	5119647	I am unavailable for the 1PM meeting.	I am unavailable for the 1PM meeting.	243041299	1478533140835	1478533140947	 	32
475324	5119647	I am unavailable for the 1PM meeting.	I am unavailable for the 1PM meeting.	243041358	1478533141006	1478533141184	u	85
475324	5119647	I am unavailable for the 1PM meeting.	I am unavailable for the 1PM meeting.	243041361	1478533141140	1478533141273	n	78
475324	5119647	I am unavailable for the 1PM meeting.	I am unavailable for the 1PM meeting.	243041367	1478533141359	1478533141455	a	65
475324	5119647	I am unavailable for the 1PM meeting.	I am unavailable for the 1PM meeting.	243041372	1478533141777	1478533141835	v	86
475324	5119647	I am unavailable for the 1PM meeting.	I am unavailable for the 1PM meeting.	243041377	1478533141955	1478533142061	a	65
475324	5119647	I am unavailable for the 1PM meeting.	I am unavailable for the 1PM meeting.	243041477	1478533142117	1478533142213	i	73
475324	5119647	I am unavailable for the 1PM meeting.	I am unavailable for the 1PM meeting.	243041479	1478533142338	1478533142449	l	76
475324	5119647	I am unavailable for the 1PM meeting.	I am unavailable for the 1PM meeting.	243041481	1478533142824	1478533142935	i	73
475324	5119647	I am unavailable for the 1PM meeting.	I am unavailable for the 1PM meeting.	243041483	1478533143086	1478533143184	BKSP	8
475324	5119647	I am unavailable for the 1PM meeting.	I am unavailable for the 1PM meeting.	243041485	1478533143223	1478533143357	a	65
475324	5119647	I am unavailable for the 1PM meeting.	I am unavailable for the 1PM meeting.	243041487	1478533143615	1478533143645	v	86
475324	5119647	I am unavailable for the 1PM meeting.	I am unavailable for the 1PM meeting.	243041546	1478533143897	1478533143973	l	76
475324	5119647	I am unavailable for the 1PM meeting.	I am unavailable for the 1PM meeting.	243041551	1478533144061	1478533144164	BKSP	8
475324	5119647	I am unavailable for the 1PM meeting.	I am unavailable for the 1PM meeting.	243041558	1478533144192	1478533144272	BKSP	8
475324	5119647	I am unavailable for the 1PM meeting.	I am unavailable for the 1PM meeting.	243041566	1478533144328	1478533144430	b	66
475324	5119647	I am unavailable for the 1PM meeting.	I am unavailable for the 1PM meeting.	243041572	1478533144435	1478533144528	l	76
475324	5119647	I am unavailable for the 1PM meeting.	I am unavailable for the 1PM meeting.	243041575	1478533144581	1478533144742	e	69
475324	5119647	I am unavailable for the 1PM meeting.	I am unavailable for the 1PM meeting.	243041580	1478533144757	1478533144886	 	32
475324	5119647	I am unavailable for the 1PM meeting.	I am unavailable for the 1PM meeting.	243041592	1478533145035	1478533145146	f	70
475324	5119647	I am unavailable for the 1PM meeting.	I am unavailable for the 1PM meeting.	243041594	1478533145124	1478533145204	o	79
475324	5119647	I am unavailable for the 1PM meeting.	I am unavailable for the 1PM meeting.	243041599	1478533145213	1478533145351	r	82
475324	5119647	I am unavailable for the 1PM meeting.	I am unavailable for the 1PM meeting.	243041604	1478533145273	1478533145413	 	32
475324	5119647	I am unavailable for the 1PM meeting.	I am unavailable for the 1PM meeting.	243041609	1478533145451	1478533145531	t	84
475324	5119647	I am unavailable for the 1PM meeting.	I am unavailable for the 1PM meeting.	243041687	1478533145537	1478533145622	h	72
475324	5119647	I am unavailable for the 1PM meeting.	I am unavailable for the 1PM meeting.	243041689	1478533145597	1478533145731	e	69
475324	5119647	I am unavailable for the 1PM meeting.	I am unavailable for the 1PM meeting.	243041693	1478533145657	1478533145787	 	32
475324	5119647	I am unavailable for the 1PM meeting.	I am unavailable for the 1PM meeting.	243041696	1478533146334	1478533146434	1	49
475324	5119647	I am unavailable for the 1PM meeting.	I am unavailable for the 1PM meeting.	243041725	1478533146600	1478533147037	SHIFT	16
475324	5119647	I am unavailable for the 1PM meeting.	I am unavailable for the 1PM meeting.	243041698	1478533146809	1478533146908	P	80
475324	5119647	I am unavailable for the 1PM meeting.	I am unavailable for the 1PM meeting.	243041729	1478533146918	1478533147068	M	77
475324	5119647	I am unavailable for the 1PM meeting.	I am unavailable for the 1PM meeting.	243041731	1478533147146	1478533147269	 	32
475324	5119647	I am unavailable for the 1PM meeting.	I am unavailable for the 1PM meeting.	243041734	1478533147364	1478533147467	m	77
475324	5119647	I am unavailable for the 1PM meeting.	I am unavailable for the 1PM meeting.	243041736	1478533147463	1478533147544	e	69
475324	5119647	I am unavailable for the 1PM meeting.	I am unavailable for the 1PM meeting.	243041738	1478533147591	1478533147690	e	69
475324	5119647	I am unavailable for the 1PM meeting.	I am unavailable for the 1PM meeting.	243041793	1478533147718	1478533147833	t	84
475324	5119647	I am unavailable for the 1PM meeting.	I am unavailable for the 1PM meeting.	243041795	1478533147814	1478533147936	i	73
475324	5119647	I am unavailable for the 1PM meeting.	I am unavailable for the 1PM meeting.	243041800	1478533147871	1478533147986	n	78
475324	5119647	I am unavailable for the 1PM meeting.	I am unavailable for the 1PM meeting.	243041806	1478533148271	1478533148388	BKSP	8
475324	5119647	I am unavailable for the 1PM meeting.	I am unavailable for the 1PM meeting.	243041812	1478533148766	1478533148877	n	78
475324	5119647	I am unavailable for the 1PM meeting.	I am unavailable for the 1PM meeting.	243041899	1478533148868	1478533148993	g	71
475324	5119647	I am unavailable for the 1PM meeting.	I am unavailable for the 1PM meeting.	243041905	1478533149773	1478533149875	.	190
475324	5119669	I changed that in one prior draft.	I changed that in one prior draft.	243042294	1478533155020	1478533155390	SHIFT	16
475324	5119669	I changed that in one prior draft.	I changed that in one prior draft.	243042295	1478533155275	1478533155431	I	73
475324	5119669	I changed that in one prior draft.	I changed that in one prior draft.	243042297	1478533155659	1478533155780	 	32
475324	5119669	I changed that in one prior draft.	I changed that in one prior draft.	243042299	1478533155856	1478533155970	c	67
475324	5119669	I changed that in one prior draft.	I changed that in one prior draft.	243042301	1478533155986	1478533156073	h	72
475324	5119669	I changed that in one prior draft.	I changed that in one prior draft.	243042303	1478533156098	1478533156200	a	65
475324	5119669	I changed that in one prior draft.	I changed that in one prior draft.	243042327	1478533156203	1478533156299	n	78
475324	5119669	I changed that in one prior draft.	I changed that in one prior draft.	243042331	1478533156396	1478533156516	g	71
475324	5119669	I changed that in one prior draft.	I changed that in one prior draft.	243042333	1478533156560	1478533156678	e	69
475324	5119669	I changed that in one prior draft.	I changed that in one prior draft.	243042337	1478533156760	1478533156905	d	68
475324	5119669	I changed that in one prior draft.	I changed that in one prior draft.	243042377	1478533156852	1478533156996	 	32
475324	5119669	I changed that in one prior draft.	I changed that in one prior draft.	243042381	1478533157037	1478533157135	t	84
475324	5119669	I changed that in one prior draft.	I changed that in one prior draft.	243042386	1478533157167	1478533157247	h	72
475324	5119669	I changed that in one prior draft.	I changed that in one prior draft.	243042393	1478533157211	1478533157309	a	65
475324	5119669	I changed that in one prior draft.	I changed that in one prior draft.	243042399	1478533157244	1478533157413	t	84
475324	5119669	I changed that in one prior draft.	I changed that in one prior draft.	243042430	1478533157325	1478533157478	 	32
475324	5119669	I changed that in one prior draft.	I changed that in one prior draft.	243042436	1478533157455	1478533157635	i	73
475324	5119669	I changed that in one prior draft.	I changed that in one prior draft.	243042440	1478533157607	1478533157714	n	78
475324	5119669	I changed that in one prior draft.	I changed that in one prior draft.	243042445	1478533157917	1478533158041	 	32
475324	5119669	I changed that in one prior draft.	I changed that in one prior draft.	243042449	1478533158163	1478533158347	o	79
475324	5119669	I changed that in one prior draft.	I changed that in one prior draft.	243042466	1478533158332	1478533158460	n	78
475324	5119669	I changed that in one prior draft.	I changed that in one prior draft.	243042469	1478533158447	1478533158597	e	69
475324	5119669	I changed that in one prior draft.	I changed that in one prior draft.	243042474	1478533158522	1478533158644	 	32
475324	5119669	I changed that in one prior draft.	I changed that in one prior draft.	243042480	1478533158799	1478533158898	p	80
475324	5119669	I changed that in one prior draft.	I changed that in one prior draft.	243042483	1478533158948	1478533159045	r	82
475324	5119669	I changed that in one prior draft.	I changed that in one prior draft.	243042487	1478533159046	1478533159169	i	73
475324	5119669	I changed that in one prior draft.	I changed that in one prior draft.	243042553	1478533159279	1478533159375	o	79
475324	5119669	I changed that in one prior draft.	I changed that in one prior draft.	243042556	1478533159503	1478533159658	r	82
475324	5119669	I changed that in one prior draft.	I changed that in one prior draft.	243042561	1478533159608	1478533159736	 	32
475324	5119669	I changed that in one prior draft.	I changed that in one prior draft.	243042564	1478533160043	1478533160144	d	68
475324	5119669	I changed that in one prior draft.	I changed that in one prior draft.	243042569	1478533160225	1478533160371	e	69
475324	5119669	I changed that in one prior draft.	I changed that in one prior draft.	243042662	1478533160444	1478533160557	r	82
475324	5119669	I changed that in one prior draft.	I changed that in one prior draft.	243042664	1478533160618	1478533160697	BKSP	8
475324	5119669	I changed that in one prior draft.	I changed that in one prior draft.	243042668	1478533160728	1478533160832	r	8
475324	5119669	I changed that in one prior draft.	I changed that in one prior draft.	243042674	1478533160817	1478533160991	e	69
475324	5119669	I changed that in one prior draft.	I changed that in one prior draft.	243042679	1478533160899	1478533161060	a	65
475324	5119669	I changed that in one prior draft.	I changed that in one prior draft.	243042684	1478533161336	1478533161401	BKSP	8
475324	5119669	I changed that in one prior draft.	I changed that in one prior draft.	243042688	1478533161464	1478533161557	BKSP	8
475324	5119669	I changed that in one prior draft.	I changed that in one prior draft.	243042692	1478533161637	1478533161824	a	65
475324	5119669	I changed that in one prior draft.	I changed that in one prior draft.	243042733	1478533161780	1478533161910	g	71
475324	5119669	I changed that in one prior draft.	I changed that in one prior draft.	243042736	1478533162255	1478533162341	BKSP	8
475324	5119669	I changed that in one prior draft.	I changed that in one prior draft.	243042739	1478533162350	1478533162453	f	70
475324	5119669	I changed that in one prior draft.	I changed that in one prior draft.	243042743	1478533162516	1478533162603	t	84
475324	5119669	I changed that in one prior draft.	I changed that in one prior draft.	243042747	1478533162699	1478533162808	.	190
475324	5119690	He has made progress in his recovery and might play this week.	He has made progress in his recovery and might play this week.	243043348	1478533170618	1478533173460	SHIFT	16
475324	5119690	He has made progress in his recovery and might play this week.	He has made progress in his recovery and might play this week.	243043354	1478533173395	1478533173495	H	72
475324	5119690	He has made progress in his recovery and might play this week.	He has made progress in his recovery and might play this week.	243043359	1478533173518	1478533173692	e	69
475324	5119690	He has made progress in his recovery and might play this week.	He has made progress in his recovery and might play this week.	243043363	1478533173590	1478533173746	 	32
475324	5119690	He has made progress in his recovery and might play this week.	He has made progress in his recovery and might play this week.	243043367	1478533173829	1478533173933	h	72
475324	5119690	He has made progress in his recovery and might play this week.	He has made progress in his recovery and might play this week.	243043400	1478533173918	1478533174049	a	65
475324	5119690	He has made progress in his recovery and might play this week.	He has made progress in his recovery and might play this week.	243043403	1478533174121	1478533174255	s	83
475324	5119690	He has made progress in his recovery and might play this week.	He has made progress in his recovery and might play this week.	243043407	1478533174196	1478533174321	 	32
475324	5119690	He has made progress in his recovery and might play this week.	He has made progress in his recovery and might play this week.	243043409	1478533174358	1478533174435	m	77
475324	5119690	He has made progress in his recovery and might play this week.	He has made progress in his recovery and might play this week.	243043412	1478533174477	1478533174594	a	65
475324	5119690	He has made progress in his recovery and might play this week.	He has made progress in his recovery and might play this week.	243043417	1478533174638	1478533174740	d	68
475324	5119690	He has made progress in his recovery and might play this week.	He has made progress in his recovery and might play this week.	243043451	1478533174808	1478533174950	e	69
475324	5119690	He has made progress in his recovery and might play this week.	He has made progress in his recovery and might play this week.	243043456	1478533174880	1478533175003	 	32
475324	5119690	He has made progress in his recovery and might play this week.	He has made progress in his recovery and might play this week.	243043462	1478533175100	1478533175198	p	80
475324	5119690	He has made progress in his recovery and might play this week.	He has made progress in his recovery and might play this week.	243043466	1478533175213	1478533175323	r	82
475324	5119690	He has made progress in his recovery and might play this week.	He has made progress in his recovery and might play this week.	243043529	1478533175307	1478533175416	o	79
475324	5119690	He has made progress in his recovery and might play this week.	He has made progress in his recovery and might play this week.	243043531	1478533175604	1478533175727	g	71
475324	5119690	He has made progress in his recovery and might play this week.	He has made progress in his recovery and might play this week.	243043534	1478533175844	1478533175998	r	82
475324	5119690	He has made progress in his recovery and might play this week.	He has made progress in his recovery and might play this week.	243043538	1478533175967	1478533176095	e	69
475324	5119690	He has made progress in his recovery and might play this week.	He has made progress in his recovery and might play this week.	243043544	1478533176209	1478533176312	s	83
475324	5119690	He has made progress in his recovery and might play this week.	He has made progress in his recovery and might play this week.	243043550	1478533176356	1478533176495	s	83
475324	5119690	He has made progress in his recovery and might play this week.	He has made progress in his recovery and might play this week.	243043588	1478533176458	1478533176583	 	32
475324	5119690	He has made progress in his recovery and might play this week.	He has made progress in his recovery and might play this week.	243043595	1478533176637	1478533176756	i	73
475324	5119690	He has made progress in his recovery and might play this week.	He has made progress in his recovery and might play this week.	243043601	1478533176687	1478533176820	n	78
475324	5119690	He has made progress in his recovery and might play this week.	He has made progress in his recovery and might play this week.	243043605	1478533176791	1478533176939	 	32
475324	5119690	He has made progress in his recovery and might play this week.	He has made progress in his recovery and might play this week.	243043608	1478533176987	1478533177119	h	72
475324	5119690	He has made progress in his recovery and might play this week.	He has made progress in his recovery and might play this week.	243043672	1478533177072	1478533177198	i	73
475324	5119690	He has made progress in his recovery and might play this week.	He has made progress in his recovery and might play this week.	243043675	1478533177347	1478533177491	s	83
475324	5119690	He has made progress in his recovery and might play this week.	He has made progress in his recovery and might play this week.	243043679	1478533177424	1478533177567	 	32
475324	5119690	He has made progress in his recovery and might play this week.	He has made progress in his recovery and might play this week.	243043682	1478533177769	1478533177887	r	82
475324	5119690	He has made progress in his recovery and might play this week.	He has made progress in his recovery and might play this week.	243043685	1478533177824	1478533177971	e	69
475324	5119690	He has made progress in his recovery and might play this week.	He has made progress in his recovery and might play this week.	243043688	1478533178317	1478533178445	c	67
475324	5119690	He has made progress in his recovery and might play this week.	He has made progress in his recovery and might play this week.	243043746	1478533178480	1478533178577	o	79
475324	5119690	He has made progress in his recovery and might play this week.	He has made progress in his recovery and might play this week.	243043751	1478533178596	1478533178708	v	86
475324	5119690	He has made progress in his recovery and might play this week.	He has made progress in his recovery and might play this week.	243043758	1478533178873	1478533179035	e	69
475324	5119690	He has made progress in his recovery and might play this week.	He has made progress in his recovery and might play this week.	243043765	1478533178959	1478533179103	r	82
475324	5119690	He has made progress in his recovery and might play this week.	He has made progress in his recovery and might play this week.	243043773	1478533179236	1478533179369	y	89
475324	5119690	He has made progress in his recovery and might play this week.	He has made progress in his recovery and might play this week.	243043799	1478533179321	1478533179466	 	32
475324	5119690	He has made progress in his recovery and might play this week.	He has made progress in his recovery and might play this week.	243043802	1478533179558	1478533179673	a	65
475324	5119690	He has made progress in his recovery and might play this week.	He has made progress in his recovery and might play this week.	243043806	1478533179718	1478533179816	n	78
475324	5119690	He has made progress in his recovery and might play this week.	He has made progress in his recovery and might play this week.	243043809	1478533179798	1478533179959	d	68
475324	5119690	He has made progress in his recovery and might play this week.	He has made progress in his recovery and might play this week.	243043813	1478533179884	1478533180006	 	32
475324	5119690	He has made progress in his recovery and might play this week.	He has made progress in his recovery and might play this week.	243043816	1478533180109	1478533180198	m	77
475324	5119690	He has made progress in his recovery and might play this week.	He has made progress in his recovery and might play this week.	243043832	1478533180252	1478533180340	i	73
475324	5119690	He has made progress in his recovery and might play this week.	He has made progress in his recovery and might play this week.	243043836	1478533180406	1478533180532	g	71
475324	5119690	He has made progress in his recovery and might play this week.	He has made progress in his recovery and might play this week.	243043842	1478533180514	1478533180626	h	72
475324	5119690	He has made progress in his recovery and might play this week.	He has made progress in his recovery and might play this week.	243043846	1478533180655	1478533180779	t	84
475324	5119690	He has made progress in his recovery and might play this week.	He has made progress in his recovery and might play this week.	243043872	1478533180723	1478533180860	 	32
475324	5119690	He has made progress in his recovery and might play this week.	He has made progress in his recovery and might play this week.	243043878	1478533180968	1478533181125	p	80
475324	5119690	He has made progress in his recovery and might play this week.	He has made progress in his recovery and might play this week.	243043883	1478533181058	1478533181188	l	76
475324	5119690	He has made progress in his recovery and might play this week.	He has made progress in his recovery and might play this week.	243043887	1478533181166	1478533181332	a	65
475324	5119690	He has made progress in his recovery and might play this week.	He has made progress in his recovery and might play this week.	243043890	1478533181303	1478533181437	y	89
475324	5119690	He has made progress in his recovery and might play this week.	He has made progress in his recovery and might play this week.	243043907	1478533181390	1478533181534	 	32
475324	5119690	He has made progress in his recovery and might play this week.	He has made progress in his recovery and might play this week.	243043910	1478533181567	1478533181708	t	84
475324	5119690	He has made progress in his recovery and might play this week.	He has made progress in his recovery and might play this week.	243043914	1478533181681	1478533181814	h	72
475324	5119690	He has made progress in his recovery and might play this week.	He has made progress in his recovery and might play this week.	243043919	1478533181749	1478533181864	i	73
475324	5119690	He has made progress in his recovery and might play this week.	He has made progress in his recovery and might play this week.	243043924	1478533181902	1478533182042	s	83
475324	5119690	He has made progress in his recovery and might play this week.	He has made progress in his recovery and might play this week.	243043983	1478533181990	1478533182124	 	32
475324	5119690	He has made progress in his recovery and might play this week.	He has made progress in his recovery and might play this week.	243043986	1478533182331	1478533182467	w	87
475324	5119690	He has made progress in his recovery and might play this week.	He has made progress in his recovery and might play this week.	243043989	1478533182436	1478533182691	e	69
475324	5119690	He has made progress in his recovery and might play this week.	He has made progress in his recovery and might play this week.	243043993	1478533182751	1478533182868	e	69
475324	5119690	He has made progress in his recovery and might play this week.	He has made progress in his recovery and might play this week.	243043998	1478533182967	1478533183075	k	75
475324	5119690	He has made progress in his recovery and might play this week.	He has made progress in his recovery and might play this week.	243044005	1478533183352	1478533183398	,	188
475324	5119690	He has made progress in his recovery and might play this week.	He has made progress in his recovery and might play this week.	243044041	1478533183727	1478533183866	BKSP	8
475324	5119690	He has made progress in his recovery and might play this week.	He has made progress in his recovery and might play this week.	243044044	1478533184061	1478533184151	.	190
475324	5119715	My comments are in fuschia.	My comments are in fuschia.	243044221	1478533186608	1478533186891	SHIFT	16
475324	5119715	My comments are in fuschia.	My comments are in fuschia.	243044219	1478533186734	1478533186882	M	77
475324	5119715	My comments are in fuschia.	My comments are in fuschia.	243044225	1478533187044	1478533187191	y	89
475324	5119715	My comments are in fuschia.	My comments are in fuschia.	243044230	1478533187132	1478533187262	 	32
475324	5119715	My comments are in fuschia.	My comments are in fuschia.	243044235	1478533187404	1478533187525	c	67
475324	5119715	My comments are in fuschia.	My comments are in fuschia.	243044245	1478533187700	1478533187820	o	79
475324	5119715	My comments are in fuschia.	My comments are in fuschia.	243044276	1478533187776	1478533187874	m	77
475324	5119715	My comments are in fuschia.	My comments are in fuschia.	243044279	1478533187932	1478533188021	m	77
475324	5119715	My comments are in fuschia.	My comments are in fuschia.	243044281	1478533188094	1478533188194	e	69
475324	5119715	My comments are in fuschia.	My comments are in fuschia.	243044288	1478533188194	1478533188282	n	78
475324	5119715	My comments are in fuschia.	My comments are in fuschia.	243044294	1478533188321	1478533188435	t	84
475324	5119715	My comments are in fuschia.	My comments are in fuschia.	243044298	1478533188476	1478533188622	s	83
475324	5119715	My comments are in fuschia.	My comments are in fuschia.	243044323	1478533188548	1478533188679	 	32
475324	5119715	My comments are in fuschia.	My comments are in fuschia.	243044326	1478533188727	1478533188885	a	65
475324	5119715	My comments are in fuschia.	My comments are in fuschia.	243044332	1478533188838	1478533188979	r	82
475324	5119715	My comments are in fuschia.	My comments are in fuschia.	243044337	1478533188929	1478533189067	e	69
475324	5119715	My comments are in fuschia.	My comments are in fuschia.	243044342	1478533189007	1478533189133	 	32
475324	5119715	My comments are in fuschia.	My comments are in fuschia.	243044346	1478533189162	1478533189275	i	73
475324	5119715	My comments are in fuschia.	My comments are in fuschia.	243044466	1478533189197	1478533189352	n	78
475324	5119715	My comments are in fuschia.	My comments are in fuschia.	243044472	1478533189336	1478533189460	 	32
475324	5119715	My comments are in fuschia.	My comments are in fuschia.	243044477	1478533189781	1478533189874	f	70
475324	5119715	My comments are in fuschia.	My comments are in fuschia.	243044483	1478533190284	1478533190420	u	85
475324	5119715	My comments are in fuschia.	My comments are in fuschia.	243044488	1478533190800	1478533190909	s	83
475324	5119715	My comments are in fuschia.	My comments are in fuschia.	243044492	1478533191099	1478533191201	c	67
475324	5119715	My comments are in fuschia.	My comments are in fuschia.	243044583	1478533191285	1478533191382	h	72
475324	5119715	My comments are in fuschia.	My comments are in fuschia.	243044587	1478533191436	1478533191528	i	73
475324	5119715	My comments are in fuschia.	My comments are in fuschia.	243044590	1478533191572	1478533191674	a	65
475324	5119728	I sent it to her.	I sent it to her.	243044944	1478533192646	1478533198347	.	190
475324	5119728	I sent it to her.	I sent it to her.	243044718	1478533194677	1478533195013	SHIFT	16
475324	5119728	I sent it to her.	I sent it to her.	243044722	1478533194928	1478533195053	I	73
475324	5119728	I sent it to her.	I sent it to her.	243044729	1478533195068	1478533195205	 	32
475324	5119728	I sent it to her.	I sent it to her.	243044737	1478533195209	1478533195330	s	83
475324	5119728	I sent it to her.	I sent it to her.	243044742	1478533195364	1478533195483	e	69
475324	5119728	I sent it to her.	I sent it to her.	243044750	1478533195483	1478533195557	n	78
475324	5119728	I sent it to her.	I sent it to her.	243044779	1478533195661	1478533195803	t	84
475324	5119728	I sent it to her.	I sent it to her.	243044783	1478533195741	1478533195863	 	32
475324	5119728	I sent it to her.	I sent it to her.	243044789	1478533195903	1478533195996	i	73
475324	5119728	I sent it to her.	I sent it to her.	243044793	1478533196030	1478533196173	t	84
475324	5119728	I sent it to her.	I sent it to her.	243044847	1478533196101	1478533196245	 	32
475324	5119728	I sent it to her.	I sent it to her.	243044851	1478533196360	1478533196486	t	84
475324	5119728	I sent it to her.	I sent it to her.	243044854	1478533196517	1478533196610	o	79
475324	5119728	I sent it to her.	I sent it to her.	243044856	1478533196616	1478533196754	 	32
475324	5119728	I sent it to her.	I sent it to her.	243044859	1478533196992	1478533197110	h	72
475324	5119728	I sent it to her.	I sent it to her.	243044934	1478533197086	1478533197236	e	69
475324	5119728	I sent it to her.	I sent it to her.	243044935	1478533197161	1478533197292	r	82
475324	5119728	I sent it to her.	I sent it to her.	243044938	1478533197430	1478533197548	,	188
475324	5119728	I sent it to her.	I sent it to her.	243044941	1478533197964	1478533198093	BKSP	8
475324	5119740	I'm not close enough right now to the discussion.	I'm not close enough right now to the discussion.	243045137	1478533200621	1478533200878	SHIFT	16
475324	5119740	I'm not close enough right now to the discussion.	I'm not close enough right now to the discussion.	243045141	1478533200811	1478533200953	I	73
475324	5119740	I'm not close enough right now to the discussion.	I'm not close enough right now to the discussion.	243045145	1478533201164	1478533201285	'	222
475324	5119740	I'm not close enough right now to the discussion.	I'm not close enough right now to the discussion.	243045151	1478533201245	1478533201371	m	77
475324	5119740	I'm not close enough right now to the discussion.	I'm not close enough right now to the discussion.	243045156	1478533201412	1478533201523	 	32
475324	5119740	I'm not close enough right now to the discussion.	I'm not close enough right now to the discussion.	243045161	1478533201680	1478533201774	n	78
475324	5119740	I'm not close enough right now to the discussion.	I'm not close enough right now to the discussion.	243045184	1478533201790	1478533201889	o	79
475324	5119740	I'm not close enough right now to the discussion.	I'm not close enough right now to the discussion.	243045189	1478533201893	1478533202036	t	84
475324	5119740	I'm not close enough right now to the discussion.	I'm not close enough right now to the discussion.	243045196	1478533201958	1478533202083	 	32
475324	5119740	I'm not close enough right now to the discussion.	I'm not close enough right now to the discussion.	243045199	1478533202184	1478533202286	c	67
475324	5119740	I'm not close enough right now to the discussion.	I'm not close enough right now to the discussion.	243045228	1478533202281	1478533202363	l	76
475324	5119740	I'm not close enough right now to the discussion.	I'm not close enough right now to the discussion.	243045233	1478533202445	1478533202541	o	79
475324	5119740	I'm not close enough right now to the discussion.	I'm not close enough right now to the discussion.	243045238	1478533202535	1478533202703	s	83
475324	5119740	I'm not close enough right now to the discussion.	I'm not close enough right now to the discussion.	243045243	1478533202646	1478533202796	e	69
475324	5119740	I'm not close enough right now to the discussion.	I'm not close enough right now to the discussion.	243045253	1478533202706	1478533202843	 	32
475324	5119740	I'm not close enough right now to the discussion.	I'm not close enough right now to the discussion.	243045261	1478533202882	1478533202988	e	69
475324	5119740	I'm not close enough right now to the discussion.	I'm not close enough right now to the discussion.	243045282	1478533202998	1478533203083	n	78
475324	5119740	I'm not close enough right now to the discussion.	I'm not close enough right now to the discussion.	243045287	1478533203176	1478533203341	o	79
475324	5119740	I'm not close enough right now to the discussion.	I'm not close enough right now to the discussion.	243045290	1478533203281	1478533203409	u	85
475324	5119740	I'm not close enough right now to the discussion.	I'm not close enough right now to the discussion.	243045292	1478533203462	1478533203586	g	71
475324	5119740	I'm not close enough right now to the discussion.	I'm not close enough right now to the discussion.	243045377	1478533203558	1478533203664	h	72
475324	5119740	I'm not close enough right now to the discussion.	I'm not close enough right now to the discussion.	243045381	1478533203829	1478533204040	 	32
475324	5119740	I'm not close enough right now to the discussion.	I'm not close enough right now to the discussion.	243045385	1478533204066	1478533204144	t	84
475324	5119740	I'm not close enough right now to the discussion.	I'm not close enough right now to the discussion.	243045393	1478533204375	1478533204467	BKSP	8
475324	5119740	I'm not close enough right now to the discussion.	I'm not close enough right now to the discussion.	243045400	1478533204474	1478533204601	r	82
475324	5119740	I'm not close enough right now to the discussion.	I'm not close enough right now to the discussion.	243045406	1478533204651	1478533204752	i	73
475324	5119740	I'm not close enough right now to the discussion.	I'm not close enough right now to the discussion.	243045412	1478533204848	1478533204957	f	70
475324	5119740	I'm not close enough right now to the discussion.	I'm not close enough right now to the discussion.	243045446	1478533205129	1478533205213	BKSP	8
475324	5119740	I'm not close enough right now to the discussion.	I'm not close enough right now to the discussion.	243045449	1478533205219	1478533205334	g	71
475324	5119740	I'm not close enough right now to the discussion.	I'm not close enough right now to the discussion.	243045452	1478533205318	1478533205414	h	72
475324	5119740	I'm not close enough right now to the discussion.	I'm not close enough right now to the discussion.	243045458	1478533205443	1478533205597	t	84
475324	5119740	I'm not close enough right now to the discussion.	I'm not close enough right now to the discussion.	243045465	1478533205573	1478533205716	 	32
475324	5119740	I'm not close enough right now to the discussion.	I'm not close enough right now to the discussion.	243045471	1478533205789	1478533205866	n	78
475324	5119740	I'm not close enough right now to the discussion.	I'm not close enough right now to the discussion.	243045494	1478533205872	1478533205971	o	79
475324	5119740	I'm not close enough right now to the discussion.	I'm not close enough right now to the discussion.	243045499	1478533206018	1478533206162	w	87
475324	5119740	I'm not close enough right now to the discussion.	I'm not close enough right now to the discussion.	243045504	1478533206081	1478533206221	 	32
475324	5119740	I'm not close enough right now to the discussion.	I'm not close enough right now to the discussion.	243045507	1478533206292	1478533206379	t	84
475324	5119740	I'm not close enough right now to the discussion.	I'm not close enough right now to the discussion.	243045509	1478533206391	1478533206487	o	79
475324	5119740	I'm not close enough right now to the discussion.	I'm not close enough right now to the discussion.	243045534	1478533206464	1478533206584	 	32
475324	5119740	I'm not close enough right now to the discussion.	I'm not close enough right now to the discussion.	243045535	1478533206628	1478533206741	t	84
475324	5119740	I'm not close enough right now to the discussion.	I'm not close enough right now to the discussion.	243045538	1478533206735	1478533206834	h	72
475324	5119740	I'm not close enough right now to the discussion.	I'm not close enough right now to the discussion.	243045540	1478533206810	1478533206950	e	69
475324	5119740	I'm not close enough right now to the discussion.	I'm not close enough right now to the discussion.	243045541	1478533206872	1478533207003	 	32
475324	5119740	I'm not close enough right now to the discussion.	I'm not close enough right now to the discussion.	243045543	1478533207143	1478533207236	d	68
475324	5119740	I'm not close enough right now to the discussion.	I'm not close enough right now to the discussion.	243045583	1478533207267	1478533207366	i	73
475324	5119740	I'm not close enough right now to the discussion.	I'm not close enough right now to the discussion.	243045587	1478533207703	1478533207829	s	83
475324	5119740	I'm not close enough right now to the discussion.	I'm not close enough right now to the discussion.	243045594	1478533208057	1478533208171	c	67
475324	5119740	I'm not close enough right now to the discussion.	I'm not close enough right now to the discussion.	243045598	1478533208150	1478533208250	u	85
475324	5119740	I'm not close enough right now to the discussion.	I'm not close enough right now to the discussion.	243045603	1478533208276	1478533208368	s	83
475324	5119740	I'm not close enough right now to the discussion.	I'm not close enough right now to the discussion.	243045662	1478533208402	1478533208511	s	83
475324	5119740	I'm not close enough right now to the discussion.	I'm not close enough right now to the discussion.	243045668	1478533208480	1478533208632	i	73
475324	5119740	I'm not close enough right now to the discussion.	I'm not close enough right now to the discussion.	243045673	1478533208552	1478533208692	o	79
475324	5119740	I'm not close enough right now to the discussion.	I'm not close enough right now to the discussion.	243045676	1478533208614	1478533208777	n	78
475324	5119740	I'm not close enough right now to the discussion.	I'm not close enough right now to the discussion.	243045681	1478533209140	1478533209246	.	190
475324	5119755	Binoche welcomed the movie industry to the French riviera.	Binoche welcomed the movie industry to the French riviera.	243045945	1478533210789	1478533212715	SHIFT	16
475324	5119755	Binoche welcomed the movie industry to the French riviera.	Binoche welcomed the movie industry to the French riviera.	243045947	1478533212609	1478533212745	B	66
475324	5119755	Binoche welcomed the movie industry to the French riviera.	Binoche welcomed the movie industry to the French riviera.	243045950	1478533212846	1478533212985	i	73
475324	5119755	Binoche welcomed the movie industry to the French riviera.	Binoche welcomed the movie industry to the French riviera.	243045953	1478533212933	1478533213035	n	78
475324	5119755	Binoche welcomed the movie industry to the French riviera.	Binoche welcomed the movie industry to the French riviera.	243045959	1478533213248	1478533213349	o	79
475324	5119755	Binoche welcomed the movie industry to the French riviera.	Binoche welcomed the movie industry to the French riviera.	243045967	1478533213459	1478533213573	c	67
475324	5119755	Binoche welcomed the movie industry to the French riviera.	Binoche welcomed the movie industry to the French riviera.	243046026	1478533213598	1478533213728	h	72
475324	5119755	Binoche welcomed the movie industry to the French riviera.	Binoche welcomed the movie industry to the French riviera.	243046031	1478533213759	1478533213902	e	69
475324	5119755	Binoche welcomed the movie industry to the French riviera.	Binoche welcomed the movie industry to the French riviera.	243046035	1478533213852	1478533213974	 	32
475324	5119755	Binoche welcomed the movie industry to the French riviera.	Binoche welcomed the movie industry to the French riviera.	243046037	1478533214193	1478533214379	w	87
475324	5119755	Binoche welcomed the movie industry to the French riviera.	Binoche welcomed the movie industry to the French riviera.	243046120	1478533214324	1478533214458	e	69
475324	5119755	Binoche welcomed the movie industry to the French riviera.	Binoche welcomed the movie industry to the French riviera.	243046124	1478533215378	1478533215462	l	76
475324	5119755	Binoche welcomed the movie industry to the French riviera.	Binoche welcomed the movie industry to the French riviera.	243046127	1478533215538	1478533215621	c	67
475324	5119755	Binoche welcomed the movie industry to the French riviera.	Binoche welcomed the movie industry to the French riviera.	243046130	1478533215603	1478533215759	o	79
475324	5119755	Binoche welcomed the movie industry to the French riviera.	Binoche welcomed the movie industry to the French riviera.	243046135	1478533215698	1478533215806	m	77
475324	5119755	Binoche welcomed the movie industry to the French riviera.	Binoche welcomed the movie industry to the French riviera.	243046175	1478533215800	1478533215901	e	69
475324	5119755	Binoche welcomed the movie industry to the French riviera.	Binoche welcomed the movie industry to the French riviera.	243046177	1478533215986	1478533216133	d	68
475324	5119755	Binoche welcomed the movie industry to the French riviera.	Binoche welcomed the movie industry to the French riviera.	243046179	1478533216078	1478533216214	 	32
475324	5119755	Binoche welcomed the movie industry to the French riviera.	Binoche welcomed the movie industry to the French riviera.	243046182	1478533216291	1478533216405	t	84
475324	5119755	Binoche welcomed the movie industry to the French riviera.	Binoche welcomed the movie industry to the French riviera.	243046185	1478533216424	1478533216520	h	72
475324	5119755	Binoche welcomed the movie industry to the French riviera.	Binoche welcomed the movie industry to the French riviera.	243046218	1478533216486	1478533216639	e	69
475324	5119755	Binoche welcomed the movie industry to the French riviera.	Binoche welcomed the movie industry to the French riviera.	243046220	1478533216555	1478533216680	 	32
475324	5119755	Binoche welcomed the movie industry to the French riviera.	Binoche welcomed the movie industry to the French riviera.	243046221	1478533216747	1478533216846	m	77
475324	5119755	Binoche welcomed the movie industry to the French riviera.	Binoche welcomed the movie industry to the French riviera.	243046224	1478533216848	1478533216928	o	79
475324	5119755	Binoche welcomed the movie industry to the French riviera.	Binoche welcomed the movie industry to the French riviera.	243046227	1478533217070	1478533217184	b	66
475324	5119755	Binoche welcomed the movie industry to the French riviera.	Binoche welcomed the movie industry to the French riviera.	243046232	1478533217253	1478533217362	i	73
475324	5119755	Binoche welcomed the movie industry to the French riviera.	Binoche welcomed the movie industry to the French riviera.	243046289	1478533217509	1478533217580	BKSP	8
475324	5119755	Binoche welcomed the movie industry to the French riviera.	Binoche welcomed the movie industry to the French riviera.	243046295	1478533217618	1478533217717	BKSP	8
475324	5119755	Binoche welcomed the movie industry to the French riviera.	Binoche welcomed the movie industry to the French riviera.	243046301	1478533217689	1478533217796	v	86
475324	5119755	Binoche welcomed the movie industry to the French riviera.	Binoche welcomed the movie industry to the French riviera.	243046308	1478533217802	1478533217921	i	73
475324	5119755	Binoche welcomed the movie industry to the French riviera.	Binoche welcomed the movie industry to the French riviera.	243046314	1478533217913	1478533218047	e	69
475324	5119755	Binoche welcomed the movie industry to the French riviera.	Binoche welcomed the movie industry to the French riviera.	243046318	1478533218133	1478533218270	 	32
475324	5119755	Binoche welcomed the movie industry to the French riviera.	Binoche welcomed the movie industry to the French riviera.	243046325	1478533218370	1478533218488	i	73
475324	5119755	Binoche welcomed the movie industry to the French riviera.	Binoche welcomed the movie industry to the French riviera.	243046363	1478533218414	1478533218530	n	78
475324	5119755	Binoche welcomed the movie industry to the French riviera.	Binoche welcomed the movie industry to the French riviera.	243046367	1478533218578	1478533218682	d	68
475324	5119755	Binoche welcomed the movie industry to the French riviera.	Binoche welcomed the movie industry to the French riviera.	243046372	1478533218710	1478533218828	u	85
475324	5119755	Binoche welcomed the movie industry to the French riviera.	Binoche welcomed the movie industry to the French riviera.	243046376	1478533218889	1478533219012	s	83
475324	5119755	Binoche welcomed the movie industry to the French riviera.	Binoche welcomed the movie industry to the French riviera.	243046379	1478533219205	1478533219295	t	84
475324	5119755	Binoche welcomed the movie industry to the French riviera.	Binoche welcomed the movie industry to the French riviera.	243046384	1478533219410	1478533219511	r	82
475324	5119755	Binoche welcomed the movie industry to the French riviera.	Binoche welcomed the movie industry to the French riviera.	243046512	1478533220197	1478533220317	y	89
475324	5119755	Binoche welcomed the movie industry to the French riviera.	Binoche welcomed the movie industry to the French riviera.	243046514	1478533220339	1478533220482	 	32
475324	5119755	Binoche welcomed the movie industry to the French riviera.	Binoche welcomed the movie industry to the French riviera.	243046517	1478533220786	1478533220879	o	79
475324	5119755	Binoche welcomed the movie industry to the French riviera.	Binoche welcomed the movie industry to the French riviera.	243046522	1478533221021	1478533221145	 	32
475324	5119755	Binoche welcomed the movie industry to the French riviera.	Binoche welcomed the movie industry to the French riviera.	243046530	1478533221164	1478533221229	BKSP	8
475324	5119755	Binoche welcomed the movie industry to the French riviera.	Binoche welcomed the movie industry to the French riviera.	243046534	1478533221285	1478533221396	BKSP	8
475324	5119755	Binoche welcomed the movie industry to the French riviera.	Binoche welcomed the movie industry to the French riviera.	243046539	1478533221463	1478533221612	r	82
475324	5119755	Binoche welcomed the movie industry to the French riviera.	Binoche welcomed the movie industry to the French riviera.	243046615	1478533221565	1478533221684	 	32
475324	5119755	Binoche welcomed the movie industry to the French riviera.	Binoche welcomed the movie industry to the French riviera.	243046618	1478533221614	1478533221714	o	79
475324	5119755	Binoche welcomed the movie industry to the French riviera.	Binoche welcomed the movie industry to the French riviera.	243046619	1478533221893	1478533221998	 	32
475324	5119755	Binoche welcomed the movie industry to the French riviera.	Binoche welcomed the movie industry to the French riviera.	243046622	1478533222182	1478533222258	BKSP	8
475324	5119755	Binoche welcomed the movie industry to the French riviera.	Binoche welcomed the movie industry to the French riviera.	243046623	1478533222326	1478533222397	BKSP	8
475324	5119755	Binoche welcomed the movie industry to the French riviera.	Binoche welcomed the movie industry to the French riviera.	243046626	1478533222458	1478533222542	BKSP	8
475324	5119755	Binoche welcomed the movie industry to the French riviera.	Binoche welcomed the movie industry to the French riviera.	243046627	1478533222601	1478533222710	BKSP	8
475324	5119755	Binoche welcomed the movie industry to the French riviera.	Binoche welcomed the movie industry to the French riviera.	243046630	1478533223023	1478533223117	t	84
475324	5119755	Binoche welcomed the movie industry to the French riviera.	Binoche welcomed the movie industry to the French riviera.	243046633	1478533223130	1478533223231	o	79
475324	5119755	Binoche welcomed the movie industry to the French riviera.	Binoche welcomed the movie industry to the French riviera.	243046699	1478533223210	1478533223340	 	32
475324	5119755	Binoche welcomed the movie industry to the French riviera.	Binoche welcomed the movie industry to the French riviera.	243046705	1478533223376	1478533223494	t	84
475324	5119755	Binoche welcomed the movie industry to the French riviera.	Binoche welcomed the movie industry to the French riviera.	243046712	1478533223497	1478533223594	h	72
475324	5119755	Binoche welcomed the movie industry to the French riviera.	Binoche welcomed the movie industry to the French riviera.	243046721	1478533223597	1478533223740	e	69
475324	5119755	Binoche welcomed the movie industry to the French riviera.	Binoche welcomed the movie industry to the French riviera.	243046730	1478533223672	1478533223793	 	32
475324	5119755	Binoche welcomed the movie industry to the French riviera.	Binoche welcomed the movie industry to the French riviera.	243046737	1478533223799	1478533224272	SHIFT	16
475324	5119755	Binoche welcomed the movie industry to the French riviera.	Binoche welcomed the movie industry to the French riviera.	243046754	1478533224175	1478533224341	F	70
475324	5119755	Binoche welcomed the movie industry to the French riviera.	Binoche welcomed the movie industry to the French riviera.	243046757	1478533224407	1478533224540	r	82
475324	5119755	Binoche welcomed the movie industry to the French riviera.	Binoche welcomed the movie industry to the French riviera.	243046763	1478533224481	1478533224625	e	69
475324	5119755	Binoche welcomed the movie industry to the French riviera.	Binoche welcomed the movie industry to the French riviera.	243046769	1478533224626	1478533224712	n	78
475324	5119755	Binoche welcomed the movie industry to the French riviera.	Binoche welcomed the movie industry to the French riviera.	243046775	1478533224762	1478533224849	c	67
475324	5119755	Binoche welcomed the movie industry to the French riviera.	Binoche welcomed the movie industry to the French riviera.	243046782	1478533224893	1478533225019	h	72
475324	5119755	Binoche welcomed the movie industry to the French riviera.	Binoche welcomed the movie industry to the French riviera.	243046822	1478533224999	1478533225118	 	32
475324	5119755	Binoche welcomed the movie industry to the French riviera.	Binoche welcomed the movie industry to the French riviera.	243046824	1478533225297	1478533225419	r	82
475324	5119755	Binoche welcomed the movie industry to the French riviera.	Binoche welcomed the movie industry to the French riviera.	243046826	1478533225397	1478533225496	i	73
475324	5119755	Binoche welcomed the movie industry to the French riviera.	Binoche welcomed the movie industry to the French riviera.	243046827	1478533225607	1478533225730	v	86
475324	5119755	Binoche welcomed the movie industry to the French riviera.	Binoche welcomed the movie industry to the French riviera.	243046828	1478533225793	1478533225886	i	73
475324	5119755	Binoche welcomed the movie industry to the French riviera.	Binoche welcomed the movie industry to the French riviera.	243046829	1478533225936	1478533226054	e	69
475324	5119755	Binoche welcomed the movie industry to the French riviera.	Binoche welcomed the movie industry to the French riviera.	243046912	1478533226196	1478533226320	r	82
475324	5119755	Binoche welcomed the movie industry to the French riviera.	Binoche welcomed the movie industry to the French riviera.	243046917	1478533226793	1478533226892	a	65
475324	5119755	Binoche welcomed the movie industry to the French riviera.	Binoche welcomed the movie industry to the French riviera.	243046920	1478533227387	1478533227464	.	190
475324	5119787	We are heartened by the many notes of care and concern.	We are heartened by the many notes of care and concer.	243047198	1478533230814	1478533231050	SHIFT	16
475324	5119787	We are heartened by the many notes of care and concern.	We are heartened by the many notes of care and concer.	243047201	1478533230994	1478533231170	W	87
475324	5119787	We are heartened by the many notes of care and concern.	We are heartened by the many notes of care and concer.	243047205	1478533231082	1478533231275	e	69
475324	5119787	We are heartened by the many notes of care and concern.	We are heartened by the many notes of care and concer.	243047208	1478533231205	1478533231365	 	32
475324	5119787	We are heartened by the many notes of care and concern.	We are heartened by the many notes of care and concer.	243047210	1478533231421	1478533231602	a	65
475324	5119787	We are heartened by the many notes of care and concern.	We are heartened by the many notes of care and concer.	243047321	1478533231560	1478533231716	r	82
475324	5119787	We are heartened by the many notes of care and concern.	We are heartened by the many notes of care and concer.	243047325	1478533231646	1478533231813	e	69
475324	5119787	We are heartened by the many notes of care and concern.	We are heartened by the many notes of care and concer.	243047332	1478533231716	1478533231851	 	32
475324	5119787	We are heartened by the many notes of care and concern.	We are heartened by the many notes of care and concer.	243047337	1478533232605	1478533232763	e	69
475324	5119787	We are heartened by the many notes of care and concern.	We are heartened by the many notes of care and concer.	243047341	1478533232669	1478533232861	a	65
475324	5119787	We are heartened by the many notes of care and concern.	We are heartened by the many notes of care and concer.	243047345	1478533232907	1478533233056	r	82
475324	5119787	We are heartened by the many notes of care and concern.	We are heartened by the many notes of care and concer.	243047386	1478533233314	1478533233444	t	84
475324	5119787	We are heartened by the many notes of care and concern.	We are heartened by the many notes of care and concer.	243047391	1478533233529	1478533233637	e	69
475324	5119787	We are heartened by the many notes of care and concern.	We are heartened by the many notes of care and concer.	243047402	1478533233685	1478533233771	n	78
475324	5119787	We are heartened by the many notes of care and concern.	We are heartened by the many notes of care and concer.	243047407	1478533233817	1478533233930	e	69
475324	5119787	We are heartened by the many notes of care and concern.	We are heartened by the many notes of care and concer.	243047413	1478533233990	1478533234135	d	68
475324	5119787	We are heartened by the many notes of care and concern.	We are heartened by the many notes of care and concer.	243047558	1478533234080	1478533234226	 	32
475324	5119787	We are heartened by the many notes of care and concern.	We are heartened by the many notes of care and concer.	243047562	1478533234321	1478533234433	b	66
475324	5119787	We are heartened by the many notes of care and concern.	We are heartened by the many notes of care and concer.	243047566	1478533234490	1478533234626	y	89
475324	5119787	We are heartened by the many notes of care and concern.	We are heartened by the many notes of care and concer.	243047570	1478533234583	1478533234714	 	32
475324	5119787	We are heartened by the many notes of care and concern.	We are heartened by the many notes of care and concer.	243047578	1478533234936	1478533235874	BKSP	8
475324	5119787	We are heartened by the many notes of care and concern.	We are heartened by the many notes of care and concer.	243047583	1478533236097	1478533236177	BKSP	8
475324	5119787	We are heartened by the many notes of care and concern.	We are heartened by the many notes of care and concer.	243047587	1478533236266	1478533236344	BKSP	8
475324	5119787	We are heartened by the many notes of care and concern.	We are heartened by the many notes of care and concer.	243047592	1478533236682	1478533236782	h	72
475324	5119787	We are heartened by the many notes of care and concern.	We are heartened by the many notes of care and concer.	243047597	1478533236791	1478533237003	e	69
475324	5119787	We are heartened by the many notes of care and concern.	We are heartened by the many notes of care and concer.	243047607	1478533236926	1478533237145	a	65
475324	5119787	We are heartened by the many notes of care and concern.	We are heartened by the many notes of care and concer.	243047614	1478533237047	1478533237197	r	82
475324	5119787	We are heartened by the many notes of care and concern.	We are heartened by the many notes of care and concer.	243047619	1478533237290	1478533237377	t	84
475324	5119787	We are heartened by the many notes of care and concern.	We are heartened by the many notes of care and concer.	243047625	1478533237433	1478533237541	e	69
475324	5119787	We are heartened by the many notes of care and concern.	We are heartened by the many notes of care and concer.	243047629	1478533237560	1478533237640	n	78
475324	5119787	We are heartened by the many notes of care and concern.	We are heartened by the many notes of care and concer.	243047680	1478533237636	1478533237747	e	69
475324	5119787	We are heartened by the many notes of care and concern.	We are heartened by the many notes of care and concer.	243047685	1478533237826	1478533237957	d	68
475324	5119787	We are heartened by the many notes of care and concern.	We are heartened by the many notes of care and concer.	243047689	1478533238151	1478533238271	 	32
475324	5119787	We are heartened by the many notes of care and concern.	We are heartened by the many notes of care and concer.	243047693	1478533238718	1478533238825	b	66
475324	5119787	We are heartened by the many notes of care and concern.	We are heartened by the many notes of care and concer.	243047696	1478533238811	1478533238939	e	69
475324	5119787	We are heartened by the many notes of care and concern.	We are heartened by the many notes of care and concer.	243047700	1478533239074	1478533239171	BKSP	8
475324	5119787	We are heartened by the many notes of care and concern.	We are heartened by the many notes of care and concer.	243047701	1478533239234	1478533239373	 	32
475324	5119787	We are heartened by the many notes of care and concern.	We are heartened by the many notes of care and concer.	243047764	1478533239704	1478533239807	BKSP	8
475324	5119787	We are heartened by the many notes of care and concern.	We are heartened by the many notes of care and concer.	243047770	1478533239873	1478533239965	y	89
475324	5119787	We are heartened by the many notes of care and concern.	We are heartened by the many notes of care and concer.	243047779	1478533240247	1478533240378	 	32
475324	5119787	We are heartened by the many notes of care and concern.	We are heartened by the many notes of care and concer.	243047784	1478533240441	1478533240530	t	84
475324	5119787	We are heartened by the many notes of care and concern.	We are heartened by the many notes of care and concer.	243047789	1478533240565	1478533240652	h	72
475324	5119787	We are heartened by the many notes of care and concern.	We are heartened by the many notes of care and concer.	243047822	1478533240630	1478533240777	e	69
475324	5119787	We are heartened by the many notes of care and concern.	We are heartened by the many notes of care and concer.	243047826	1478533240715	1478533240843	 	32
475324	5119787	We are heartened by the many notes of care and concern.	We are heartened by the many notes of care and concer.	243047832	1478533240929	1478533241027	m	77
475324	5119787	We are heartened by the many notes of care and concern.	We are heartened by the many notes of care and concer.	243047836	1478533241006	1478533241130	a	65
475324	5119787	We are heartened by the many notes of care and concern.	We are heartened by the many notes of care and concer.	243047840	1478533241112	1478533241197	n	78
475324	5119787	We are heartened by the many notes of care and concern.	We are heartened by the many notes of care and concer.	243047842	1478533241197	1478533241317	y	89
475324	5119787	We are heartened by the many notes of care and concern.	We are heartened by the many notes of care and concer.	243047865	1478533241303	1478533241443	 	32
475324	5119787	We are heartened by the many notes of care and concern.	We are heartened by the many notes of care and concer.	243047868	1478533241551	1478533241659	n	78
475324	5119787	We are heartened by the many notes of care and concern.	We are heartened by the many notes of care and concer.	243047870	1478533241643	1478533241767	o	79
475324	5119787	We are heartened by the many notes of care and concern.	We are heartened by the many notes of care and concer.	243047875	1478533241817	1478533241926	t	84
475324	5119787	We are heartened by the many notes of care and concern.	We are heartened by the many notes of care and concer.	243047878	1478533241929	1478533242123	e	69
475324	5119787	We are heartened by the many notes of care and concern.	We are heartened by the many notes of care and concer.	243047921	1478533242083	1478533242235	s	83
475324	5119787	We are heartened by the many notes of care and concern.	We are heartened by the many notes of care and concer.	243047925	1478533242176	1478533242307	 	32
475324	5119787	We are heartened by the many notes of care and concern.	We are heartened by the many notes of care and concer.	243047928	1478533242395	1478533242466	o	79
475324	5119787	We are heartened by the many notes of care and concern.	We are heartened by the many notes of care and concer.	243047932	1478533242513	1478533242694	f	70
475324	5119787	We are heartened by the many notes of care and concern.	We are heartened by the many notes of care and concer.	243047938	1478533242619	1478533242759	 	32
475324	5119787	We are heartened by the many notes of care and concern.	We are heartened by the many notes of care and concer.	243047944	1478533243026	1478533243189	a	65
475324	5119787	We are heartened by the many notes of care and concern.	We are heartened by the many notes of care and concer.	243047987	1478533243375	1478533243496	BKSP	8
475324	5119787	We are heartened by the many notes of care and concern.	We are heartened by the many notes of care and concer.	243047993	1478533243443	1478533243565	c	67
475324	5119787	We are heartened by the many notes of care and concern.	We are heartened by the many notes of care and concer.	243047997	1478533243543	1478533243727	a	65
475324	5119787	We are heartened by the many notes of care and concern.	We are heartened by the many notes of care and concer.	243048000	1478533243677	1478533243880	r	82
475324	5119787	We are heartened by the many notes of care and concern.	We are heartened by the many notes of care and concer.	243048004	1478533243818	1478533243974	e	69
475324	5119787	We are heartened by the many notes of care and concern.	We are heartened by the many notes of care and concer.	243048043	1478533243886	1478533244021	 	32
475324	5119787	We are heartened by the many notes of care and concern.	We are heartened by the many notes of care and concer.	243048047	1478533244060	1478533244162	a	65
475324	5119787	We are heartened by the many notes of care and concern.	We are heartened by the many notes of care and concer.	243048050	1478533244150	1478533244239	n	78
475324	5119787	We are heartened by the many notes of care and concern.	We are heartened by the many notes of care and concer.	243048054	1478533244249	1478533244397	d	68
475324	5119787	We are heartened by the many notes of care and concern.	We are heartened by the many notes of care and concer.	243048057	1478533244335	1478533244450	 	32
475324	5119787	We are heartened by the many notes of care and concern.	We are heartened by the many notes of care and concer.	243048059	1478533244511	1478533244607	c	67
475324	5119787	We are heartened by the many notes of care and concern.	We are heartened by the many notes of care and concer.	243048077	1478533244621	1478533244742	o	79
475324	5119787	We are heartened by the many notes of care and concern.	We are heartened by the many notes of care and concer.	243048080	1478533244699	1478533244779	n	78
475324	5119787	We are heartened by the many notes of care and concern.	We are heartened by the many notes of care and concer.	243048082	1478533244896	1478533244981	c	67
475324	5119787	We are heartened by the many notes of care and concern.	We are heartened by the many notes of care and concer.	243048085	1478533245104	1478533245238	e	69
475324	5119787	We are heartened by the many notes of care and concern.	We are heartened by the many notes of care and concer.	243048124	1478533245163	1478533245300	r	82
475324	5119787	We are heartened by the many notes of care and concern.	We are heartened by the many notes of care and concer.	243048129	1478533245651	1478533245752	.	190
475324	5119812	We have lots of paper stuff.	We have lots of paper stuff.	243048550	1478533250970	1478533251198	SHIFT	16
475324	5119812	We have lots of paper stuff.	We have lots of paper stuff.	243048552	1478533251117	1478533251262	W	87
475324	5119812	We have lots of paper stuff.	We have lots of paper stuff.	243048554	1478533251309	1478533251476	e	69
475324	5119812	We have lots of paper stuff.	We have lots of paper stuff.	243048556	1478533251414	1478533251544	 	32
475324	5119812	We have lots of paper stuff.	We have lots of paper stuff.	243048562	1478533251576	1478533251718	h	72
475324	5119812	We have lots of paper stuff.	We have lots of paper stuff.	243048590	1478533251687	1478533251817	a	65
475324	5119812	We have lots of paper stuff.	We have lots of paper stuff.	243048593	1478533251842	1478533251946	c	67
475324	5119812	We have lots of paper stuff.	We have lots of paper stuff.	243048599	1478533251974	1478533252115	e	69
475324	5119812	We have lots of paper stuff.	We have lots of paper stuff.	243048605	1478533252050	1478533252161	 	32
475324	5119812	We have lots of paper stuff.	We have lots of paper stuff.	243048607	1478533252192	1478533252259	l	76
475324	5119812	We have lots of paper stuff.	We have lots of paper stuff.	243048608	1478533252351	1478533252441	o	79
475324	5119812	We have lots of paper stuff.	We have lots of paper stuff.	243048686	1478533252453	1478533252580	t	84
475324	5119812	We have lots of paper stuff.	We have lots of paper stuff.	243048689	1478533252754	1478533252854	BKSP	8
475324	5119812	We have lots of paper stuff.	We have lots of paper stuff.	243048694	1478533252910	1478533252984	BKSP	8
475324	5119812	We have lots of paper stuff.	We have lots of paper stuff.	243048699	1478533253041	1478533253115	BKSP	8
475324	5119812	We have lots of paper stuff.	We have lots of paper stuff.	243048700	1478533253171	1478533253255	BKSP	8
475324	5119812	We have lots of paper stuff.	We have lots of paper stuff.	243048705	1478533253306	1478533253399	BKSP	8
475324	5119812	We have lots of paper stuff.	We have lots of paper stuff.	243048712	1478533253452	1478533253553	BKSP	8
475324	5119812	We have lots of paper stuff.	We have lots of paper stuff.	243048721	1478533253750	1478533253878	v	86
475324	5119812	We have lots of paper stuff.	We have lots of paper stuff.	243048731	1478533253919	1478533254087	e	69
475324	5119812	We have lots of paper stuff.	We have lots of paper stuff.	243048738	1478533253998	1478533254127	 	32
475324	5119812	We have lots of paper stuff.	We have lots of paper stuff.	243048745	1478533254236	1478533254310	l	76
475324	5119812	We have lots of paper stuff.	We have lots of paper stuff.	243048750	1478533254401	1478533254481	o	79
475324	5119812	We have lots of paper stuff.	We have lots of paper stuff.	243048753	1478533254503	1478533254645	s	83
475324	5119812	We have lots of paper stuff.	We have lots of paper stuff.	243048756	1478533254606	1478533254767	t	84
475324	5119812	We have lots of paper stuff.	We have lots of paper stuff.	243048758	1478533254871	1478533254945	BKSP	8
475324	5119812	We have lots of paper stuff.	We have lots of paper stuff.	243048761	1478533254995	1478533255088	BKSP	8
475324	5119812	We have lots of paper stuff.	We have lots of paper stuff.	243048765	1478533255066	1478533255194	t	84
475324	5119812	We have lots of paper stuff.	We have lots of paper stuff.	243048831	1478533255138	1478533255277	s	83
475324	5119812	We have lots of paper stuff.	We have lots of paper stuff.	243048833	1478533255263	1478533255391	 	32
475324	5119812	We have lots of paper stuff.	We have lots of paper stuff.	243048835	1478533255739	1478533255836	o	79
475324	5119812	We have lots of paper stuff.	We have lots of paper stuff.	243048837	1478533255859	1478533256034	f	70
475324	5119812	We have lots of paper stuff.	We have lots of paper stuff.	243048838	1478533255966	1478533256109	 	32
475324	5119812	We have lots of paper stuff.	We have lots of paper stuff.	243048839	1478533256226	1478533256319	p	80
475324	5119812	We have lots of paper stuff.	We have lots of paper stuff.	243048872	1478533256324	1478533256469	a	65
475324	5119812	We have lots of paper stuff.	We have lots of paper stuff.	243048878	1478533256429	1478533256579	r	82
475324	5119812	We have lots of paper stuff.	We have lots of paper stuff.	243048889	1478533256729	1478533256801	BKSP	8
475324	5119812	We have lots of paper stuff.	We have lots of paper stuff.	243048898	1478533256873	1478533256987	p	80
475324	5119812	We have lots of paper stuff.	We have lots of paper stuff.	243048908	1478533256979	1478533257151	e	69
475324	5119812	We have lots of paper stuff.	We have lots of paper stuff.	243048948	1478533257054	1478533257235	r	82
475324	5119812	We have lots of paper stuff.	We have lots of paper stuff.	243048952	1478533257189	1478533257378	 	32
475324	5119812	We have lots of paper stuff.	We have lots of paper stuff.	243048958	1478533257525	1478533257616	s	83
475324	5119812	We have lots of paper stuff.	We have lots of paper stuff.	243048966	1478533257670	1478533257790	t	84
475324	5119812	We have lots of paper stuff.	We have lots of paper stuff.	243048974	1478533257772	1478533257866	u	85
475324	5119812	We have lots of paper stuff.	We have lots of paper stuff.	243048980	1478533257900	1478533258003	f	70
475324	5119812	We have lots of paper stuff.	We have lots of paper stuff.	243049010	1478533258059	1478533258150	f	70
475324	5119831	He refused to elaborate on the delay.	He refused to elaborate on he delay.	243049798	1478533258498	1478533269404	.	190
475324	5119831	He refused to elaborate on the delay.	He refused to elaborate on he delay.	243049250	1478533260985	1478533261319	SHIFT	16
475324	5119831	He refused to elaborate on the delay.	He refused to elaborate on he delay.	243049255	1478533261232	1478533261348	H	72
475324	5119831	He refused to elaborate on the delay.	He refused to elaborate on he delay.	243049259	1478533261407	1478533261554	e	69
475324	5119831	He refused to elaborate on the delay.	He refused to elaborate on he delay.	243049263	1478533261472	1478533261608	 	32
475324	5119831	He refused to elaborate on the delay.	He refused to elaborate on he delay.	243049267	1478533261659	1478533261812	r	82
475324	5119831	He refused to elaborate on the delay.	He refused to elaborate on he delay.	243049341	1478533261795	1478533261875	e	69
475324	5119831	He refused to elaborate on the delay.	He refused to elaborate on he delay.	243049342	1478533261975	1478533262064	BKSP	8
475324	5119831	He refused to elaborate on the delay.	He refused to elaborate on he delay.	243049343	1478533262295	1478533262417	e	69
475324	5119831	He refused to elaborate on the delay.	He refused to elaborate on he delay.	243049345	1478533262598	1478533262734	f	70
475324	5119831	He refused to elaborate on the delay.	He refused to elaborate on he delay.	243049347	1478533262784	1478533262911	u	85
475324	5119831	He refused to elaborate on the delay.	He refused to elaborate on he delay.	243049350	1478533263059	1478533263155	s	83
475324	5119831	He refused to elaborate on the delay.	He refused to elaborate on he delay.	243049354	1478533263205	1478533263310	e	69
475324	5119831	He refused to elaborate on the delay.	He refused to elaborate on he delay.	243049364	1478533263376	1478533263499	d	68
475324	5119831	He refused to elaborate on the delay.	He refused to elaborate on he delay.	243049368	1478533263439	1478533263576	 	32
475324	5119831	He refused to elaborate on the delay.	He refused to elaborate on he delay.	243049371	1478533263614	1478533263715	t	84
475324	5119831	He refused to elaborate on the delay.	He refused to elaborate on he delay.	243049374	1478533263718	1478533263812	o	79
475324	5119831	He refused to elaborate on the delay.	He refused to elaborate on he delay.	243049444	1478533263787	1478533263920	 	32
475324	5119831	He refused to elaborate on the delay.	He refused to elaborate on he delay.	243049447	1478533263976	1478533264072	e	69
475324	5119831	He refused to elaborate on the delay.	He refused to elaborate on he delay.	243049451	1478533264082	1478533264168	l	76
475324	5119831	He refused to elaborate on the delay.	He refused to elaborate on he delay.	243049458	1478533264334	1478533264443	a	65
475324	5119831	He refused to elaborate on the delay.	He refused to elaborate on he delay.	243049463	1478533264743	1478533264873	v	86
475324	5119831	He refused to elaborate on the delay.	He refused to elaborate on he delay.	243049469	1478533264926	1478533265035	o	79
475324	5119831	He refused to elaborate on the delay.	He refused to elaborate on he delay.	243049571	1478533265195	1478533265267	BKSP	8
475324	5119831	He refused to elaborate on the delay.	He refused to elaborate on he delay.	243049575	1478533265316	1478533265407	BKSP	8
475324	5119831	He refused to elaborate on the delay.	He refused to elaborate on he delay.	243049579	1478533265397	1478533265515	b	66
475324	5119831	He refused to elaborate on the delay.	He refused to elaborate on he delay.	243049584	1478533265500	1478533265609	o	79
475324	5119831	He refused to elaborate on the delay.	He refused to elaborate on he delay.	243049587	1478533266480	1478533266636	r	82
475324	5119831	He refused to elaborate on the delay.	He refused to elaborate on he delay.	243049590	1478533266632	1478533266796	a	65
475324	5119831	He refused to elaborate on the delay.	He refused to elaborate on he delay.	243049618	1478533266759	1478533266878	t	84
475324	5119831	He refused to elaborate on the delay.	He refused to elaborate on he delay.	243049623	1478533266890	1478533267058	e	69
475324	5119831	He refused to elaborate on the delay.	He refused to elaborate on he delay.	243049628	1478533266971	1478533267110	 	32
475324	5119831	He refused to elaborate on the delay.	He refused to elaborate on he delay.	243049633	1478533267211	1478533267359	o	79
475324	5119831	He refused to elaborate on the delay.	He refused to elaborate on he delay.	243049636	1478533267286	1478533267411	n	78
475324	5119831	He refused to elaborate on the delay.	He refused to elaborate on he delay.	243049640	1478533267423	1478533267557	 	32
475324	5119831	He refused to elaborate on the delay.	He refused to elaborate on he delay.	243049681	1478533267720	1478533267820	h	72
475324	5119831	He refused to elaborate on the delay.	He refused to elaborate on he delay.	243049686	1478533267754	1478533267907	e	69
475324	5119831	He refused to elaborate on the delay.	He refused to elaborate on he delay.	243049689	1478533267839	1478533267965	 	32
475324	5119831	He refused to elaborate on the delay.	He refused to elaborate on he delay.	243049693	1478533268180	1478533268283	d	68
475324	5119831	He refused to elaborate on the delay.	He refused to elaborate on he delay.	243049695	1478533268372	1478533268479	e	69
475324	5119831	He refused to elaborate on the delay.	He refused to elaborate on he delay.	243049784	1478533268831	1478533268924	l	76
475324	5119831	He refused to elaborate on the delay.	He refused to elaborate on he delay.	243049790	1478533268958	1478533269090	a	65
475324	5119831	He refused to elaborate on the delay.	He refused to elaborate on he delay.	243049795	1478533269099	1478533269192	y	89
475324	5119848	See you on the third.	See you on the third.	243050176	1478533274491	1478533274830	SHIFT	16
475324	5119848	See you on the third.	See you on the third.	243050180	1478533274761	1478533274873	S	83
475324	5119848	See you on the third.	See you on the third.	243050184	1478533275048	1478533275136	e	69
475324	5119848	See you on the third.	See you on the third.	243050190	1478533275186	1478533275333	e	69
475324	5119848	See you on the third.	See you on the third.	243050194	1478533275270	1478533275407	 	32
475324	5119848	See you on the third.	See you on the third.	243050198	1478533275528	1478533275634	y	89
475324	5119848	See you on the third.	See you on the third.	243050220	1478533275640	1478533275751	o	79
475324	5119848	See you on the third.	See you on the third.	243050224	1478533275698	1478533275819	u	85
475324	5119848	See you on the third.	See you on the third.	243050230	1478533275804	1478533275904	 	32
475324	5119848	See you on the third.	See you on the third.	243050233	1478533275992	1478533276127	o	79
475324	5119848	See you on the third.	See you on the third.	243050245	1478533276045	1478533276173	n	78
475324	5119848	See you on the third.	See you on the third.	243050249	1478533276132	1478533276252	 	32
475324	5119848	See you on the third.	See you on the third.	243050255	1478533276286	1478533276410	t	84
475324	5119848	See you on the third.	See you on the third.	243050260	1478533276398	1478533276489	h	72
475324	5119848	See you on the third.	See you on the third.	243050264	1478533276445	1478533276582	e	69
475324	5119848	See you on the third.	See you on the third.	243050302	1478533276501	1478533276635	 	32
475324	5119848	See you on the third.	See you on the third.	243050303	1478533276726	1478533276837	t	84
475324	5119848	See you on the third.	See you on the third.	243050305	1478533276829	1478533276935	h	72
475324	5119848	See you on the third.	See you on the third.	243050306	1478533276891	1478533277003	i	73
475324	5119848	See you on the third.	See you on the third.	243050309	1478533277088	1478533277225	r	82
475324	5119848	See you on the third.	See you on the third.	243050312	1478533277347	1478533277466	d	68
475324	5119848	See you on the third.	See you on the third.	243050327	1478533277856	1478533277942	.	190
