PARTICIPANT_ID	TEST_SECTION_ID	SENTENCE	USER_INPUT	KEYSTROKE_ID	PRESS_TIME	RELEASE_TIME	LETTER	KEYCODE
477836	5145857	The appointments were confirmed by China's parliament.	The appointments were confirmed by China's parliament.	244276938	1478553169580	1478553169738	SHIFT	16
477836	5145857	The appointments were confirmed by China's parliament.	The appointments were confirmed by China's parliament.	244276936	1478553169659	1478553169722	T	84
477836	5145857	The appointments were confirmed by China's parliament.	The appointments were confirmed by China's parliament.	244276940	1478553169796	1478553169858	h	72
477836	5145857	The appointments were confirmed by China's parliament.	The appointments were confirmed by China's parliament.	244276944	1478553169939	1478553170018	e	69
477836	5145857	The appointments were confirmed by China's parliament.	The appointments were confirmed by China's parliament.	244276948	1478553169987	1478553170090	 	32
477836	5145857	The appointments were confirmed by China's parliament.	The appointments were confirmed by China's parliament.	244276976	1478553170067	1478553170146	a	65
477836	5145857	The appointments were confirmed by China's parliament.	The appointments were confirmed by China's parliament.	244276978	1478553170163	1478553170234	p	80
477836	5145857	The appointments were confirmed by China's parliament.	The appointments were confirmed by China's parliament.	244276982	1478553170324	1478553170394	p	80
477836	5145857	The appointments were confirmed by China's parliament.	The appointments were confirmed by China's parliament.	244276983	1478553170507	1478553170610	o	79
477836	5145857	The appointments were confirmed by China's parliament.	The appointments were confirmed by China's parliament.	244276987	1478553170563	1478553170658	i	73
477836	5145857	The appointments were confirmed by China's parliament.	The appointments were confirmed by China's parliament.	244277018	1478553170626	1478553170706	n	78
477836	5145857	The appointments were confirmed by China's parliament.	The appointments were confirmed by China's parliament.	244277022	1478553170676	1478553170753	t	84
477836	5145857	The appointments were confirmed by China's parliament.	The appointments were confirmed by China's parliament.	244277025	1478553170795	1478553170889	m	77
477836	5145857	The appointments were confirmed by China's parliament.	The appointments were confirmed by China's parliament.	244277027	1478553170883	1478553170978	e	69
477836	5145857	The appointments were confirmed by China's parliament.	The appointments were confirmed by China's parliament.	244277029	1478553170995	1478553171107	n	78
477836	5145857	The appointments were confirmed by China's parliament.	The appointments were confirmed by China's parliament.	244277051	1478553171091	1478553171154	t	84
477836	5145857	The appointments were confirmed by China's parliament.	The appointments were confirmed by China's parliament.	244277057	1478553171235	1478553171338	s	83
477836	5145857	The appointments were confirmed by China's parliament.	The appointments were confirmed by China's parliament.	244277064	1478553171307	1478553171417	 	32
477836	5145857	The appointments were confirmed by China's parliament.	The appointments were confirmed by China's parliament.	244277070	1478553171467	1478553171641	w	87
477836	5145857	The appointments were confirmed by China's parliament.	The appointments were confirmed by China's parliament.	244277096	1478553171563	1478553171666	e	69
477836	5145857	The appointments were confirmed by China's parliament.	The appointments were confirmed by China's parliament.	244277099	1478553171635	1478553171833	r	82
477836	5145857	The appointments were confirmed by China's parliament.	The appointments were confirmed by China's parliament.	244277103	1478553171747	1478553171874	e	69
477836	5145857	The appointments were confirmed by China's parliament.	The appointments were confirmed by China's parliament.	244277107	1478553171827	1478553171922	 	32
477836	5145857	The appointments were confirmed by China's parliament.	The appointments were confirmed by China's parliament.	244277112	1478553172179	1478553172290	c	67
477836	5145857	The appointments were confirmed by China's parliament.	The appointments were confirmed by China's parliament.	244277116	1478553172259	1478553172378	o	79
477836	5145857	The appointments were confirmed by China's parliament.	The appointments were confirmed by China's parliament.	244277133	1478553172331	1478553172444	n	78
477836	5145857	The appointments were confirmed by China's parliament.	The appointments were confirmed by China's parliament.	244277137	1478553172436	1478553172514	f	70
477836	5145857	The appointments were confirmed by China's parliament.	The appointments were confirmed by China's parliament.	244277139	1478553172523	1478553172594	i	73
477836	5145857	The appointments were confirmed by China's parliament.	The appointments were confirmed by China's parliament.	244277142	1478553172611	1478553172677	r	82
477836	5145857	The appointments were confirmed by China's parliament.	The appointments were confirmed by China's parliament.	244277145	1478553172675	1478553172794	m	77
477836	5145857	The appointments were confirmed by China's parliament.	The appointments were confirmed by China's parliament.	244277177	1478553172755	1478553172810	e	69
477836	5145857	The appointments were confirmed by China's parliament.	The appointments were confirmed by China's parliament.	244277181	1478553172899	1478553172986	d	68
477836	5145857	The appointments were confirmed by China's parliament.	The appointments were confirmed by China's parliament.	244277186	1478553173003	1478553173122	 	32
477836	5145857	The appointments were confirmed by China's parliament.	The appointments were confirmed by China's parliament.	244277189	1478553173139	1478553173170	b	66
477836	5145857	The appointments were confirmed by China's parliament.	The appointments were confirmed by China's parliament.	244277191	1478553173275	1478553173386	y	89
477836	5145857	The appointments were confirmed by China's parliament.	The appointments were confirmed by China's parliament.	244277193	1478553173419	1478553173498	 	32
477836	5145857	The appointments were confirmed by China's parliament.	The appointments were confirmed by China's parliament.	244277231	1478553173562	1478553173866	SHIFT	16
477836	5145857	The appointments were confirmed by China's parliament.	The appointments were confirmed by China's parliament.	244277235	1478553173755	1478553173874	C	67
477836	5145857	The appointments were confirmed by China's parliament.	The appointments were confirmed by China's parliament.	244277240	1478553173971	1478553174050	h	72
477836	5145857	The appointments were confirmed by China's parliament.	The appointments were confirmed by China's parliament.	244277244	1478553174035	1478553174186	i	73
477836	5145857	The appointments were confirmed by China's parliament.	The appointments were confirmed by China's parliament.	244277250	1478553174147	1478553174266	n	78
477836	5145857	The appointments were confirmed by China's parliament.	The appointments were confirmed by China's parliament.	244277256	1478553174275	1478553174354	'	222
477836	5145857	The appointments were confirmed by China's parliament.	The appointments were confirmed by China's parliament.	244277285	1478553174403	1478553174490	a	65
477836	5145857	The appointments were confirmed by China's parliament.	The appointments were confirmed by China's parliament.	244277289	1478553174627	1478553174682	BKSP	8
477836	5145857	The appointments were confirmed by China's parliament.	The appointments were confirmed by China's parliament.	244277294	1478553174763	1478553174859	BKSP	8
477836	5145857	The appointments were confirmed by China's parliament.	The appointments were confirmed by China's parliament.	244277298	1478553174843	1478553174922	a	65
477836	5145857	The appointments were confirmed by China's parliament.	The appointments were confirmed by China's parliament.	244277303	1478553174947	1478553175042	'	222
477836	5145857	The appointments were confirmed by China's parliament.	The appointments were confirmed by China's parliament.	244277306	1478553175028	1478553175138	s	83
477836	5145857	The appointments were confirmed by China's parliament.	The appointments were confirmed by China's parliament.	244277318	1478553175107	1478553175218	 	32
477836	5145857	The appointments were confirmed by China's parliament.	The appointments were confirmed by China's parliament.	244277321	1478553175203	1478553175297	p	80
477836	5145857	The appointments were confirmed by China's parliament.	The appointments were confirmed by China's parliament.	244277326	1478553175275	1478553175386	a	65
477836	5145857	The appointments were confirmed by China's parliament.	The appointments were confirmed by China's parliament.	244277329	1478553175348	1478553175449	r	82
477836	5145857	The appointments were confirmed by China's parliament.	The appointments were confirmed by China's parliament.	244277331	1478553175443	1478553175554	l	76
477836	5145857	The appointments were confirmed by China's parliament.	The appointments were confirmed by China's parliament.	244277345	1478553175531	1478553175610	i	73
477836	5145857	The appointments were confirmed by China's parliament.	The appointments were confirmed by China's parliament.	244277346	1478553175570	1478553175642	a	65
477836	5145857	The appointments were confirmed by China's parliament.	The appointments were confirmed by China's parliament.	244277349	1478553175715	1478553175794	m	77
477836	5145857	The appointments were confirmed by China's parliament.	The appointments were confirmed by China's parliament.	244277353	1478553175811	1478553175882	e	69
477836	5145857	The appointments were confirmed by China's parliament.	The appointments were confirmed by China's parliament.	244277357	1478553175899	1478553175970	n	78
477836	5145857	The appointments were confirmed by China's parliament.	The appointments were confirmed by China's parliament.	244277362	1478553175979	1478553176042	t	84
477836	5145857	The appointments were confirmed by China's parliament.	The appointments were confirmed by China's parliament.	244277363	1478553176051	1478553176130	.	190
477836	5145871	We are looking at military assistance.	We are looking at military assistance.	244277517	1478553178154	1478553178290	SHIFT	16
477836	5145871	We are looking at military assistance.	We are looking at military assistance.	244277518	1478553178203	1478553178314	W	87
477836	5145871	We are looking at military assistance.	We are looking at military assistance.	244277519	1478553178267	1478553178362	E	69
477836	5145871	We are looking at military assistance.	We are looking at military assistance.	244277521	1478553178339	1478553178458	 	32
477836	5145871	We are looking at military assistance.	We are looking at military assistance.	244277523	1478553178428	1478553178570	a	65
477836	5145871	We are looking at military assistance.	We are looking at military assistance.	244277597	1478553178515	1478553178626	r	82
477836	5145871	We are looking at military assistance.	We are looking at military assistance.	244277599	1478553178587	1478553178698	e	69
477836	5145871	We are looking at military assistance.	We are looking at military assistance.	244277602	1478553178635	1478553178730	 	32
477836	5145871	We are looking at military assistance.	We are looking at military assistance.	244277606	1478553178747	1478553178842	l	76
477836	5145871	We are looking at military assistance.	We are looking at military assistance.	244277609	1478553178979	1478553179066	BKSP	8
477836	5145871	We are looking at military assistance.	We are looking at military assistance.	244277611	1478553179122	1478553179346	WIN	91
477836	5145871	We are looking at military assistance.	We are looking at military assistance.	244277614	1478553179506	1478553179634	SHIFT	16
477836	5145871	We are looking at military assistance.	We are looking at military assistance.	244277617	1478553179580	1478553179674	W	87
477836	5145871	We are looking at military assistance.	We are looking at military assistance.	244277646	1478553179668	1478553179746	e	69
477836	5145871	We are looking at military assistance.	We are looking at military assistance.	244277649	1478553179764	1478553179850	 	32
477836	5145871	We are looking at military assistance.	We are looking at military assistance.	244277653	1478553179995	1478553180050	a	65
477836	5145871	We are looking at military assistance.	We are looking at military assistance.	244277659	1478553180371	1478553180490	r	82
477836	5145871	We are looking at military assistance.	We are looking at military assistance.	244277707	1478553180443	1478553180530	e	69
477836	5145871	We are looking at military assistance.	We are looking at military assistance.	244277712	1478553180484	1478553180585	 	32
477836	5145871	We are looking at military assistance.	We are looking at military assistance.	244277714	1478553180579	1478553180650	l	76
477836	5145871	We are looking at military assistance.	We are looking at military assistance.	244277716	1478553180739	1478553180810	o	79
477836	5145871	We are looking at military assistance.	We are looking at military assistance.	244277722	1478553180891	1478553180994	o	79
477836	5145871	We are looking at military assistance.	We are looking at military assistance.	244277719	1478553180931	1478553180986	k	75
477836	5145871	We are looking at military assistance.	We are looking at military assistance.	244277724	1478553181075	1478553181154	i	73
477836	5145871	We are looking at military assistance.	We are looking at military assistance.	244277728	1478553181131	1478553181234	g	78
477836	5145871	We are looking at military assistance.	We are looking at military assistance.	244277729	1478553181203	1478553181290	 	32
477836	5145871	We are looking at military assistance.	We are looking at military assistance.	244277730	1478553181276	1478553181394	a	65
477836	5145871	We are looking at military assistance.	We are looking at military assistance.	244277731	1478553181347	1478553181458	t	84
477836	5145871	We are looking at military assistance.	We are looking at military assistance.	244277733	1478553181402	1478553181514	 	32
477836	5145871	We are looking at military assistance.	We are looking at military assistance.	244277766	1478553181491	1478553181661	m	77
477836	5145871	We are looking at military assistance.	We are looking at military assistance.	244277770	1478553181603	1478553181698	i	73
477836	5145871	We are looking at military assistance.	We are looking at military assistance.	244277775	1478553181660	1478553181834	l	76
477836	5145871	We are looking at military assistance.	We are looking at military assistance.	244277778	1478553181787	1478553181898	i	73
477836	5145871	We are looking at military assistance.	We are looking at military assistance.	244277780	1478553181915	1478553181995	t	84
477836	5145871	We are looking at military assistance.	We are looking at military assistance.	244277782	1478553182002	1478553182138	a	65
477836	5145871	We are looking at military assistance.	We are looking at military assistance.	244277792	1478553182099	1478553182186	r	82
477836	5145871	We are looking at military assistance.	We are looking at military assistance.	244277794	1478553182163	1478553182242	y	89
477836	5145871	We are looking at military assistance.	We are looking at military assistance.	244277796	1478553182267	1478553182378	 	32
477836	5145871	We are looking at military assistance.	We are looking at military assistance.	244277800	1478553182314	1478553182418	a	65
477836	5145871	We are looking at military assistance.	We are looking at military assistance.	244277804	1478553182483	1478553182546	s	83
477836	5145871	We are looking at military assistance.	We are looking at military assistance.	244277808	1478553182627	1478553182698	s	83
477836	5145871	We are looking at military assistance.	We are looking at military assistance.	244277825	1478553182691	1478553182762	i	73
477836	5145871	We are looking at military assistance.	We are looking at military assistance.	244277829	1478553182779	1478553182890	s	83
477836	5145871	We are looking at military assistance.	We are looking at military assistance.	244277834	1478553182883	1478553182986	t	84
477836	5145871	We are looking at military assistance.	We are looking at military assistance.	244277839	1478553182955	1478553183010	a	65
477836	5145871	We are looking at military assistance.	We are looking at military assistance.	244277845	1478553183012	1478553183101	n	78
477836	5145871	We are looking at military assistance.	We are looking at military assistance.	244277853	1478553183099	1478553183186	c	67
477836	5145871	We are looking at military assistance.	We are looking at military assistance.	244277855	1478553183163	1478553183250	e	69
477836	5145871	We are looking at military assistance.	We are looking at military assistance.	244277858	1478553183211	1478553183290	.	190
477836	5145880	Song was vice minister of the geology and mineral resources minister.	Song was vice minister o the geology and mineral resources minister.	244277988	1478553185140	1478553185306	SHIFT	16
477836	5145880	Song was vice minister of the geology and mineral resources minister.	Song was vice minister o the geology and mineral resources minister.	244277993	1478553185211	1478553185314	S	83
477836	5145880	Song was vice minister of the geology and mineral resources minister.	Song was vice minister o the geology and mineral resources minister.	244277997	1478553185396	1478553185506	o	79
477836	5145880	Song was vice minister of the geology and mineral resources minister.	Song was vice minister o the geology and mineral resources minister.	244278003	1478553185475	1478553185586	n	78
477836	5145880	Song was vice minister of the geology and mineral resources minister.	Song was vice minister o the geology and mineral resources minister.	244278019	1478553185524	1478553185596	g	71
477836	5145880	Song was vice minister of the geology and mineral resources minister.	Song was vice minister o the geology and mineral resources minister.	244278020	1478553185572	1478553185674	 	32
477836	5145880	Song was vice minister of the geology and mineral resources minister.	Song was vice minister o the geology and mineral resources minister.	244278021	1478553185668	1478553185762	w	87
477836	5145880	Song was vice minister of the geology and mineral resources minister.	Song was vice minister o the geology and mineral resources minister.	244278024	1478553185732	1478553185826	a	65
477836	5145880	Song was vice minister of the geology and mineral resources minister.	Song was vice minister o the geology and mineral resources minister.	244278028	1478553185867	1478553185970	s	83
477836	5145880	Song was vice minister of the geology and mineral resources minister.	Song was vice minister o the geology and mineral resources minister.	244278033	1478553185947	1478553186010	 	32
477836	5145880	Song was vice minister of the geology and mineral resources minister.	Song was vice minister o the geology and mineral resources minister.	244278039	1478553186067	1478553186154	v	86
477836	5145880	Song was vice minister of the geology and mineral resources minister.	Song was vice minister o the geology and mineral resources minister.	244278053	1478553186147	1478553186210	i	73
477836	5145880	Song was vice minister of the geology and mineral resources minister.	Song was vice minister o the geology and mineral resources minister.	244278058	1478553186244	1478553186330	c	67
477836	5145880	Song was vice minister of the geology and mineral resources minister.	Song was vice minister o the geology and mineral resources minister.	244278063	1478553186323	1478553186409	e	69
477836	5145880	Song was vice minister of the geology and mineral resources minister.	Song was vice minister o the geology and mineral resources minister.	244278072	1478553186387	1478553186474	m	32
477836	5145880	Song was vice minister of the geology and mineral resources minister.	Song was vice minister o the geology and mineral resources minister.	244278104	1478553186499	1478553186586	i	73
477836	5145880	Song was vice minister of the geology and mineral resources minister.	Song was vice minister o the geology and mineral resources minister.	244278107	1478553186603	1478553186722	n	78
477836	5145880	Song was vice minister of the geology and mineral resources minister.	Song was vice minister o the geology and mineral resources minister.	244278109	1478553186683	1478553186780	i	73
477836	5145880	Song was vice minister of the geology and mineral resources minister.	Song was vice minister o the geology and mineral resources minister.	244278111	1478553186763	1478553186842	s	83
477836	5145880	Song was vice minister of the geology and mineral resources minister.	Song was vice minister o the geology and mineral resources minister.	244278112	1478553186812	1478553186898	t	84
477836	5145880	Song was vice minister of the geology and mineral resources minister.	Song was vice minister o the geology and mineral resources minister.	244278114	1478553186947	1478553187050	e	69
477836	5145880	Song was vice minister of the geology and mineral resources minister.	Song was vice minister o the geology and mineral resources minister.	244278120	1478553187011	1478553187098	r	82
477836	5145880	Song was vice minister of the geology and mineral resources minister.	Song was vice minister o the geology and mineral resources minister.	244278122	1478553187059	1478553187146	 	32
477836	5145880	Song was vice minister of the geology and mineral resources minister.	Song was vice minister o the geology and mineral resources minister.	244278124	1478553187140	1478553187226	o	79
477836	5145880	Song was vice minister of the geology and mineral resources minister.	Song was vice minister o the geology and mineral resources minister.	244278128	1478553187267	1478553187341	 	32
477836	5145880	Song was vice minister of the geology and mineral resources minister.	Song was vice minister o the geology and mineral resources minister.	244278131	1478553187340	1478553187402	t	84
477836	5145880	Song was vice minister of the geology and mineral resources minister.	Song was vice minister o the geology and mineral resources minister.	244278157	1478553187395	1478553187474	h	72
477836	5145880	Song was vice minister of the geology and mineral resources minister.	Song was vice minister o the geology and mineral resources minister.	244278159	1478553187467	1478553187538	e	69
477836	5145880	Song was vice minister of the geology and mineral resources minister.	Song was vice minister o the geology and mineral resources minister.	244278161	1478553187531	1478553187610	 	32
477836	5145880	Song was vice minister of the geology and mineral resources minister.	Song was vice minister o the geology and mineral resources minister.	244278166	1478553187603	1478553187674	g	71
477836	5145880	Song was vice minister of the geology and mineral resources minister.	Song was vice minister o the geology and mineral resources minister.	244278170	1478553187715	1478553187794	e	69
477836	5145880	Song was vice minister of the geology and mineral resources minister.	Song was vice minister o the geology and mineral resources minister.	244278174	1478553187819	1478553187898	o	79
477836	5145880	Song was vice minister of the geology and mineral resources minister.	Song was vice minister o the geology and mineral resources minister.	244278188	1478553187996	1478553188042	l	76
477836	5145880	Song was vice minister of the geology and mineral resources minister.	Song was vice minister o the geology and mineral resources minister.	244278192	1478553188123	1478553188210	o	79
477836	5145880	Song was vice minister of the geology and mineral resources minister.	Song was vice minister o the geology and mineral resources minister.	244278196	1478553188203	1478553188266	g	71
477836	5145880	Song was vice minister of the geology and mineral resources minister.	Song was vice minister o the geology and mineral resources minister.	244278201	1478553188355	1478553188418	y	89
477836	5145880	Song was vice minister of the geology and mineral resources minister.	Song was vice minister o the geology and mineral resources minister.	244278211	1478553188411	1478553188490	 	32
477836	5145880	Song was vice minister of the geology and mineral resources minister.	Song was vice minister o the geology and mineral resources minister.	244278214	1478553188475	1478553188546	a	65
477836	5145880	Song was vice minister of the geology and mineral resources minister.	Song was vice minister o the geology and mineral resources minister.	244278219	1478553188580	1478553188659	n	78
477836	5145880	Song was vice minister of the geology and mineral resources minister.	Song was vice minister o the geology and mineral resources minister.	244278223	1478553188628	1478553188738	d	68
477836	5145880	Song was vice minister of the geology and mineral resources minister.	Song was vice minister o the geology and mineral resources minister.	244278227	1478553188699	1478553188810	 	32
477836	5145880	Song was vice minister of the geology and mineral resources minister.	Song was vice minister o the geology and mineral resources minister.	244278251	1478553188804	1478553188906	m	77
477836	5145880	Song was vice minister of the geology and mineral resources minister.	Song was vice minister o the geology and mineral resources minister.	244278255	1478553188900	1478553189026	i	73
477836	5145880	Song was vice minister of the geology and mineral resources minister.	Song was vice minister o the geology and mineral resources minister.	244278260	1478553189011	1478553189122	n	78
477836	5145880	Song was vice minister of the geology and mineral resources minister.	Song was vice minister o the geology and mineral resources minister.	244278267	1478553189108	1478553189226	e	69
477836	5145880	Song was vice minister of the geology and mineral resources minister.	Song was vice minister o the geology and mineral resources minister.	244278270	1478553189195	1478553189298	r	82
477836	5145880	Song was vice minister of the geology and mineral resources minister.	Song was vice minister o the geology and mineral resources minister.	244278314	1478553189260	1478553189322	a	65
477836	5145880	Song was vice minister of the geology and mineral resources minister.	Song was vice minister o the geology and mineral resources minister.	244278316	1478553189420	1478553189482	l	76
477836	5145880	Song was vice minister of the geology and mineral resources minister.	Song was vice minister o the geology and mineral resources minister.	244278317	1478553189540	1478553189626	 	32
477836	5145880	Song was vice minister of the geology and mineral resources minister.	Song was vice minister o the geology and mineral resources minister.	244278319	1478553189739	1478553189842	r	82
477836	5145880	Song was vice minister of the geology and mineral resources minister.	Song was vice minister o the geology and mineral resources minister.	244278322	1478553189803	1478553189930	e	69
477836	5145880	Song was vice minister of the geology and mineral resources minister.	Song was vice minister o the geology and mineral resources minister.	244278327	1478553190012	1478553190106	s	83
477836	5145880	Song was vice minister of the geology and mineral resources minister.	Song was vice minister o the geology and mineral resources minister.	244278348	1478553190084	1478553190178	o	79
477836	5145880	Song was vice minister of the geology and mineral resources minister.	Song was vice minister o the geology and mineral resources minister.	244278351	1478553190147	1478553190226	u	85
477836	5145880	Song was vice minister of the geology and mineral resources minister.	Song was vice minister o the geology and mineral resources minister.	244278358	1478553190211	1478553190298	r	82
477836	5145880	Song was vice minister of the geology and mineral resources minister.	Song was vice minister o the geology and mineral resources minister.	244278363	1478553190403	1478553190514	c	67
477836	5145880	Song was vice minister of the geology and mineral resources minister.	Song was vice minister o the geology and mineral resources minister.	244278367	1478553190499	1478553190658	e	69
477836	5145880	Song was vice minister of the geology and mineral resources minister.	Song was vice minister o the geology and mineral resources minister.	244278378	1478553190579	1478553190730	s	83
477836	5145880	Song was vice minister of the geology and mineral resources minister.	Song was vice minister o the geology and mineral resources minister.	244278380	1478553190676	1478553190772	 	32
477836	5145880	Song was vice minister of the geology and mineral resources minister.	Song was vice minister o the geology and mineral resources minister.	244278383	1478553190803	1478553190881	m	77
477836	5145880	Song was vice minister of the geology and mineral resources minister.	Song was vice minister o the geology and mineral resources minister.	244278387	1478553190859	1478553190954	i	73
477836	5145880	Song was vice minister of the geology and mineral resources minister.	Song was vice minister o the geology and mineral resources minister.	244278389	1478553190971	1478553191106	n	78
477836	5145880	Song was vice minister of the geology and mineral resources minister.	Song was vice minister o the geology and mineral resources minister.	244278420	1478553191059	1478553191162	i	73
477836	5145880	Song was vice minister of the geology and mineral resources minister.	Song was vice minister o the geology and mineral resources minister.	244278424	1478553191132	1478553191218	t	84
477836	5145880	Song was vice minister of the geology and mineral resources minister.	Song was vice minister o the geology and mineral resources minister.	244278431	1478553191644	1478553191730	s	83
477836	5145880	Song was vice minister of the geology and mineral resources minister.	Song was vice minister o the geology and mineral resources minister.	244278433	1478553191820	1478553191890	t	84
477836	5145880	Song was vice minister of the geology and mineral resources minister.	Song was vice minister o the geology and mineral resources minister.	244278436	1478553191923	1478553192026	e	69
477836	5145880	Song was vice minister of the geology and mineral resources minister.	Song was vice minister o the geology and mineral resources minister.	244278439	1478553192004	1478553192082	r	82
477836	5145880	Song was vice minister of the geology and mineral resources minister.	Song was vice minister o the geology and mineral resources minister.	244278442	1478553192068	1478553192122	.	190
477836	5145898	Charlie Garner will once again be Oakland's feature back.	Charlie Garner will once again be Oakland's feature back.	244278618	1478553193874	1478553193994	SHIFT	16
477836	5145898	Charlie Garner will once again be Oakland's feature back.	Charlie Garner will once again be Oakland's feature back.	244278622	1478553193932	1478553194050	C	67
477836	5145898	Charlie Garner will once again be Oakland's feature back.	Charlie Garner will once again be Oakland's feature back.	244278626	1478553194076	1478553194170	h	72
477836	5145898	Charlie Garner will once again be Oakland's feature back.	Charlie Garner will once again be Oakland's feature back.	244278631	1478553194148	1478553194266	a	65
477836	5145898	Charlie Garner will once again be Oakland's feature back.	Charlie Garner will once again be Oakland's feature back.	244278635	1478553194252	1478553194354	r	82
477836	5145898	Charlie Garner will once again be Oakland's feature back.	Charlie Garner will once again be Oakland's feature back.	244278638	1478553194380	1478553194490	l	76
477836	5145898	Charlie Garner will once again be Oakland's feature back.	Charlie Garner will once again be Oakland's feature back.	244278650	1478553194460	1478553194547	i	73
477836	5145898	Charlie Garner will once again be Oakland's feature back.	Charlie Garner will once again be Oakland's feature back.	244278665	1478553194532	1478553194626	e	69
477836	5145898	Charlie Garner will once again be Oakland's feature back.	Charlie Garner will once again be Oakland's feature back.	244278676	1478553194604	1478553194690	 	32
477836	5145898	Charlie Garner will once again be Oakland's feature back.	Charlie Garner will once again be Oakland's feature back.	244278684	1478553194699	1478553194826	SHIFT	16
477836	5145898	Charlie Garner will once again be Oakland's feature back.	Charlie Garner will once again be Oakland's feature back.	244278695	1478553194772	1478553194842	G	71
477836	5145898	Charlie Garner will once again be Oakland's feature back.	Charlie Garner will once again be Oakland's feature back.	244278707	1478553194884	1478553194986	a	65
477836	5145898	Charlie Garner will once again be Oakland's feature back.	Charlie Garner will once again be Oakland's feature back.	244278717	1478553194956	1478553195034	r	82
477836	5145898	Charlie Garner will once again be Oakland's feature back.	Charlie Garner will once again be Oakland's feature back.	244278726	1478553195044	1478553195122	n	78
477836	5145898	Charlie Garner will once again be Oakland's feature back.	Charlie Garner will once again be Oakland's feature back.	244278733	1478553195116	1478553195218	e	69
477836	5145898	Charlie Garner will once again be Oakland's feature back.	Charlie Garner will once again be Oakland's feature back.	244278742	1478553195189	1478553195266	r	82
477836	5145898	Charlie Garner will once again be Oakland's feature back.	Charlie Garner will once again be Oakland's feature back.	244278750	1478553195227	1478553195341	 	32
477836	5145898	Charlie Garner will once again be Oakland's feature back.	Charlie Garner will once again be Oakland's feature back.	244278785	1478553195315	1478553195394	w	87
477836	5145898	Charlie Garner will once again be Oakland's feature back.	Charlie Garner will once again be Oakland's feature back.	244278791	1478553195412	1478553195514	i	73
477836	5145898	Charlie Garner will once again be Oakland's feature back.	Charlie Garner will once again be Oakland's feature back.	244278797	1478553195476	1478553195546	l	76
477836	5145898	Charlie Garner will once again be Oakland's feature back.	Charlie Garner will once again be Oakland's feature back.	244278801	1478553195635	1478553195714	 	76
477836	5145898	Charlie Garner will once again be Oakland's feature back.	Charlie Garner will once again be Oakland's feature back.	244278805	1478553195828	1478553195933	o	79
477836	5145898	Charlie Garner will once again be Oakland's feature back.	Charlie Garner will once again be Oakland's feature back.	244278812	1478553195900	1478553196010	n	78
477836	5145898	Charlie Garner will once again be Oakland's feature back.	Charlie Garner will once again be Oakland's feature back.	244278815	1478553195932	1478553196034	c	67
477836	5145898	Charlie Garner will once again be Oakland's feature back.	Charlie Garner will once again be Oakland's feature back.	244278820	1478553196020	1478553196106	e	69
477836	5145898	Charlie Garner will once again be Oakland's feature back.	Charlie Garner will once again be Oakland's feature back.	244278826	1478553196060	1478553196154	 	32
477836	5145898	Charlie Garner will once again be Oakland's feature back.	Charlie Garner will once again be Oakland's feature back.	244278832	1478553196172	1478553196307	a	65
477836	5145898	Charlie Garner will once again be Oakland's feature back.	Charlie Garner will once again be Oakland's feature back.	244278836	1478553196268	1478553196381	g	71
477836	5145898	Charlie Garner will once again be Oakland's feature back.	Charlie Garner will once again be Oakland's feature back.	244278849	1478553196380	1478553196458	a	65
477836	5145898	Charlie Garner will once again be Oakland's feature back.	Charlie Garner will once again be Oakland's feature back.	244278853	1478553196428	1478553196522	i	73
477836	5145898	Charlie Garner will once again be Oakland's feature back.	Charlie Garner will once again be Oakland's feature back.	244278859	1478553196500	1478553196605	n	78
477836	5145898	Charlie Garner will once again be Oakland's feature back.	Charlie Garner will once again be Oakland's feature back.	244278865	1478553196532	1478553196642	 	32
477836	5145898	Charlie Garner will once again be Oakland's feature back.	Charlie Garner will once again be Oakland's feature back.	244278871	1478553196604	1478553196683	b	66
477836	5145898	Charlie Garner will once again be Oakland's feature back.	Charlie Garner will once again be Oakland's feature back.	244278876	1478553196748	1478553196842	e	69
477836	5145898	Charlie Garner will once again be Oakland's feature back.	Charlie Garner will once again be Oakland's feature back.	244278997	1478553196819	1478553196906	 	32
477836	5145898	Charlie Garner will once again be Oakland's feature back.	Charlie Garner will once again be Oakland's feature back.	244279003	1478553196850	1478553196978	SHIFT	16
477836	5145898	Charlie Garner will once again be Oakland's feature back.	Charlie Garner will once again be Oakland's feature back.	244279011	1478553197100	1478553197178	o	79
477836	5145898	Charlie Garner will once again be Oakland's feature back.	Charlie Garner will once again be Oakland's feature back.	244279016	1478553197588	1478553197658	BKSP	8
477836	5145898	Charlie Garner will once again be Oakland's feature back.	Charlie Garner will once again be Oakland's feature back.	244279020	1478553197763	1478553197906	SHIFT	16
477836	5145898	Charlie Garner will once again be Oakland's feature back.	Charlie Garner will once again be Oakland's feature back.	244279026	1478553197820	1478553197907	O	79
477836	5145898	Charlie Garner will once again be Oakland's feature back.	Charlie Garner will once again be Oakland's feature back.	244279033	1478553198044	1478553198083	k	75
477836	5145898	Charlie Garner will once again be Oakland's feature back.	Charlie Garner will once again be Oakland's feature back.	244279036	1478553198148	1478553198210	a	65
477836	5145898	Charlie Garner will once again be Oakland's feature back.	Charlie Garner will once again be Oakland's feature back.	244279042	1478553198391	1478553198426	BKSP	8
477836	5145898	Charlie Garner will once again be Oakland's feature back.	Charlie Garner will once again be Oakland's feature back.	244279046	1478553198508	1478553198586	BKSP	8
477836	5145898	Charlie Garner will once again be Oakland's feature back.	Charlie Garner will once again be Oakland's feature back.	244279050	1478553198596	1478553198667	a	65
477836	5145898	Charlie Garner will once again be Oakland's feature back.	Charlie Garner will once again be Oakland's feature back.	244279079	1478553198708	1478553198818	k	75
477836	5145898	Charlie Garner will once again be Oakland's feature back.	Charlie Garner will once again be Oakland's feature back.	244279082	1478553198860	1478553198930	a	65
477836	5145898	Charlie Garner will once again be Oakland's feature back.	Charlie Garner will once again be Oakland's feature back.	244279088	1478553198916	1478553198986	l	76
477836	5145898	Charlie Garner will once again be Oakland's feature back.	Charlie Garner will once again be Oakland's feature back.	244279093	1478553199252	1478553199314	BKSP	8
477836	5145898	Charlie Garner will once again be Oakland's feature back.	Charlie Garner will once again be Oakland's feature back.	244279098	1478553199411	1478553199490	BKSP	8
477836	5145898	Charlie Garner will once again be Oakland's feature back.	Charlie Garner will once again be Oakland's feature back.	244279105	1478553199636	1478553199739	l	76
477836	5145898	Charlie Garner will once again be Oakland's feature back.	Charlie Garner will once again be Oakland's feature back.	244279132	1478553199716	1478553199794	a	65
477836	5145898	Charlie Garner will once again be Oakland's feature back.	Charlie Garner will once again be Oakland's feature back.	244279136	1478553199828	1478553199922	n	78
477836	5145898	Charlie Garner will once again be Oakland's feature back.	Charlie Garner will once again be Oakland's feature back.	244279139	1478553199956	1478553200026	d	68
477836	5145898	Charlie Garner will once again be Oakland's feature back.	Charlie Garner will once again be Oakland's feature back.	244279144	1478553200315	1478553200404	'	222
477836	5145898	Charlie Garner will once again be Oakland's feature back.	Charlie Garner will once again be Oakland's feature back.	244279150	1478553200421	1478553200530	s	83
477836	5145898	Charlie Garner will once again be Oakland's feature back.	Charlie Garner will once again be Oakland's feature back.	244279213	1478553200508	1478553200610	 	32
477836	5145898	Charlie Garner will once again be Oakland's feature back.	Charlie Garner will once again be Oakland's feature back.	244279214	1478553200780	1478553200874	r	82
477836	5145898	Charlie Garner will once again be Oakland's feature back.	Charlie Garner will once again be Oakland's feature back.	244279215	1478553201020	1478553201115	f	70
477836	5145898	Charlie Garner will once again be Oakland's feature back.	Charlie Garner will once again be Oakland's feature back.	244279216	1478553201180	1478553201234	BKSP	8
477836	5145898	Charlie Garner will once again be Oakland's feature back.	Charlie Garner will once again be Oakland's feature back.	244279217	1478553201308	1478553201402	BKSP	8
477836	5145898	Charlie Garner will once again be Oakland's feature back.	Charlie Garner will once again be Oakland's feature back.	244279218	1478553201364	1478553201459	f	70
477836	5145898	Charlie Garner will once again be Oakland's feature back.	Charlie Garner will once again be Oakland's feature back.	244279219	1478553201444	1478553201547	e	69
477836	5145898	Charlie Garner will once again be Oakland's feature back.	Charlie Garner will once again be Oakland's feature back.	244279227	1478553201500	1478553201610	a	65
477836	5145898	Charlie Garner will once again be Oakland's feature back.	Charlie Garner will once again be Oakland's feature back.	244279232	1478553201564	1478553201659	t	84
477836	5145898	Charlie Garner will once again be Oakland's feature back.	Charlie Garner will once again be Oakland's feature back.	244279239	1478553201724	1478553201794	u	85
477836	5145898	Charlie Garner will once again be Oakland's feature back.	Charlie Garner will once again be Oakland's feature back.	244279247	1478553201780	1478553201891	r	82
477836	5145898	Charlie Garner will once again be Oakland's feature back.	Charlie Garner will once again be Oakland's feature back.	244279253	1478553201852	1478553201930	e	69
477836	5145898	Charlie Garner will once again be Oakland's feature back.	Charlie Garner will once again be Oakland's feature back.	244279264	1478553201908	1478553201978	 	32
477836	5145898	Charlie Garner will once again be Oakland's feature back.	Charlie Garner will once again be Oakland's feature back.	244279265	1478553202004	1478553202082	b	66
477836	5145898	Charlie Garner will once again be Oakland's feature back.	Charlie Garner will once again be Oakland's feature back.	244279266	1478553202100	1478553202170	a	65
477836	5145898	Charlie Garner will once again be Oakland's feature back.	Charlie Garner will once again be Oakland's feature back.	244279267	1478553202212	1478553202291	k	67
477836	5145898	Charlie Garner will once again be Oakland's feature back.	Charlie Garner will once again be Oakland's feature back.	244279268	1478553202356	1478553202427	.	190
477836	5145912	Hopefully it cheered you up a bit.	Hopefully it cheered you up a bit.	244279430	1478553204187	1478553204347	SHIFT	16
477836	5145912	Hopefully it cheered you up a bit.	Hopefully it cheered you up a bit.	244279426	1478553204260	1478553204322	H	72
477836	5145912	Hopefully it cheered you up a bit.	Hopefully it cheered you up a bit.	244279434	1478553204437	1478553204578	o	79
477836	5145912	Hopefully it cheered you up a bit.	Hopefully it cheered you up a bit.	244279439	1478553204540	1478553204627	p	80
477836	5145912	Hopefully it cheered you up a bit.	Hopefully it cheered you up a bit.	244279441	1478553204660	1478553204723	e	69
477836	5145912	Hopefully it cheered you up a bit.	Hopefully it cheered you up a bit.	244279447	1478553204812	1478553204915	f	70
477836	5145912	Hopefully it cheered you up a bit.	Hopefully it cheered you up a bit.	244279504	1478553204876	1478553204995	u	85
477836	5145912	Hopefully it cheered you up a bit.	Hopefully it cheered you up a bit.	244279506	1478553204940	1478553205019	l	76
477836	5145912	Hopefully it cheered you up a bit.	Hopefully it cheered you up a bit.	244279508	1478553205108	1478553205219	l	76
477836	5145912	Hopefully it cheered you up a bit.	Hopefully it cheered you up a bit.	244279511	1478553205197	1478553205331	y	89
477836	5145912	Hopefully it cheered you up a bit.	Hopefully it cheered you up a bit.	244279518	1478553205372	1478553205498	 	32
477836	5145912	Hopefully it cheered you up a bit.	Hopefully it cheered you up a bit.	244279524	1478553205660	1478553205739	i	73
477836	5145912	Hopefully it cheered you up a bit.	Hopefully it cheered you up a bit.	244279543	1478553205756	1478553205835	t	84
477836	5145912	Hopefully it cheered you up a bit.	Hopefully it cheered you up a bit.	244279546	1478553205804	1478553205898	 	32
477836	5145912	Hopefully it cheered you up a bit.	Hopefully it cheered you up a bit.	244279548	1478553206020	1478553206139	c	67
477836	5145912	Hopefully it cheered you up a bit.	Hopefully it cheered you up a bit.	244279551	1478553206124	1478553206202	h	72
477836	5145912	Hopefully it cheered you up a bit.	Hopefully it cheered you up a bit.	244279555	1478553206212	1478553206259	e	69
477836	5145912	Hopefully it cheered you up a bit.	Hopefully it cheered you up a bit.	244279585	1478553206332	1478553206427	e	69
477836	5145912	Hopefully it cheered you up a bit.	Hopefully it cheered you up a bit.	244279589	1478553206428	1478553206547	r	82
477836	5145912	Hopefully it cheered you up a bit.	Hopefully it cheered you up a bit.	244279592	1478553206532	1478553206603	e	69
477836	5145912	Hopefully it cheered you up a bit.	Hopefully it cheered you up a bit.	244279595	1478553206676	1478553206771	d	68
477836	5145912	Hopefully it cheered you up a bit.	Hopefully it cheered you up a bit.	244279610	1478553206740	1478553206859	 	32
477836	5145912	Hopefully it cheered you up a bit.	Hopefully it cheered you up a bit.	244279614	1478553206844	1478553206909	y	89
477836	5145912	Hopefully it cheered you up a bit.	Hopefully it cheered you up a bit.	244279619	1478553206908	1478553206995	o	79
477836	5145912	Hopefully it cheered you up a bit.	Hopefully it cheered you up a bit.	244279624	1478553206964	1478553207050	u	85
477836	5145912	Hopefully it cheered you up a bit.	Hopefully it cheered you up a bit.	244279629	1478553206996	1478553207083	 	32
477836	5145912	Hopefully it cheered you up a bit.	Hopefully it cheered you up a bit.	244279632	1478553207132	1478553207211	u	85
477836	5145912	Hopefully it cheered you up a bit.	Hopefully it cheered you up a bit.	244279643	1478553207188	1478553207258	p	80
477836	5145912	Hopefully it cheered you up a bit.	Hopefully it cheered you up a bit.	244279650	1478553207236	1478553207339	 	32
477836	5145912	Hopefully it cheered you up a bit.	Hopefully it cheered you up a bit.	244279656	1478553207324	1478553207412	a	65
477836	5145912	Hopefully it cheered you up a bit.	Hopefully it cheered you up a bit.	244279662	1478553207421	1478553207491	 	32
477836	5145912	Hopefully it cheered you up a bit.	Hopefully it cheered you up a bit.	244279668	1478553207516	1478553207611	b	66
477836	5145912	Hopefully it cheered you up a bit.	Hopefully it cheered you up a bit.	244279672	1478553207597	1478553207667	i	73
477836	5145912	Hopefully it cheered you up a bit.	Hopefully it cheered you up a bit.	244279676	1478553207700	1478553207755	t	84
477836	5145912	Hopefully it cheered you up a bit.	Hopefully it cheered you up a bit.	244279681	1478553207756	1478553207827	.	190
477836	5145920	I'll call you when I get to the office.	I'll call you when I get to the office.	244279789	1478553209779	1478553209987	SHIFT	16
477836	5145920	I'll call you when I get to the office.	I'll call you when I get to the office.	244279791	1478553209884	1478553210003	I	73
477836	5145920	I'll call you when I get to the office.	I'll call you when I get to the office.	244279794	1478553210100	1478553210234	'	222
477836	5145920	I'll call you when I get to the office.	I'll call you when I get to the office.	244279798	1478553210228	1478553210291	l	76
477836	5145920	I'll call you when I get to the office.	I'll call you when I get to the office.	244279801	1478553210396	1478553210459	l	76
477836	5145920	I'll call you when I get to the office.	I'll call you when I get to the office.	244279813	1478553210428	1478553210546	 	32
477836	5145920	I'll call you when I get to the office.	I'll call you when I get to the office.	244279817	1478553210508	1478553210643	c	67
477836	5145920	I'll call you when I get to the office.	I'll call you when I get to the office.	244279818	1478553210596	1478553210659	a	65
477836	5145920	I'll call you when I get to the office.	I'll call you when I get to the office.	244279820	1478553210668	1478553210731	l	76
477836	5145920	I'll call you when I get to the office.	I'll call you when I get to the office.	244279821	1478553210812	1478553210907	l	76
477836	5145920	I'll call you when I get to the office.	I'll call you when I get to the office.	244279822	1478553210884	1478553210994	 	32
477836	5145920	I'll call you when I get to the office.	I'll call you when I get to the office.	244279823	1478553210979	1478553211051	y	89
477836	5145920	I'll call you when I get to the office.	I'll call you when I get to the office.	244279824	1478553211060	1478553211139	o	79
477836	5145920	I'll call you when I get to the office.	I'll call you when I get to the office.	244279826	1478553211116	1478553211195	u	85
477836	5145920	I'll call you when I get to the office.	I'll call you when I get to the office.	244279828	1478553211148	1478553211259	 	32
477836	5145920	I'll call you when I get to the office.	I'll call you when I get to the office.	244279843	1478553211228	1478553211291	w	87
477836	5145920	I'll call you when I get to the office.	I'll call you when I get to the office.	244279845	1478553211316	1478553211371	h	72
477836	5145920	I'll call you when I get to the office.	I'll call you when I get to the office.	244279847	1478553211403	1478553211474	e	69
477836	5145920	I'll call you when I get to the office.	I'll call you when I get to the office.	244279849	1478553211468	1478553211547	n	78
477836	5145920	I'll call you when I get to the office.	I'll call you when I get to the office.	244279851	1478553211532	1478553211619	 	32
477836	5145920	I'll call you when I get to the office.	I'll call you when I get to the office.	244279854	1478553211643	1478553211755	SHIFT	16
477836	5145920	I'll call you when I get to the office.	I'll call you when I get to the office.	244279860	1478553211724	1478553211795	I	73
477836	5145920	I'll call you when I get to the office.	I'll call you when I get to the office.	244279863	1478553211820	1478553211915	 	32
477836	5145920	I'll call you when I get to the office.	I'll call you when I get to the office.	244279869	1478553211884	1478553211955	g	71
477836	5145920	I'll call you when I get to the office.	I'll call you when I get to the office.	244279875	1478553211996	1478553212131	e	69
477836	5145920	I'll call you when I get to the office.	I'll call you when I get to the office.	244279880	1478553212084	1478553212203	t	84
477836	5145920	I'll call you when I get to the office.	I'll call you when I get to the office.	244279900	1478553212148	1478553212314	 	32
477836	5145920	I'll call you when I get to the office.	I'll call you when I get to the office.	244279901	1478553212340	1478553212419	t	84
477836	5145920	I'll call you when I get to the office.	I'll call you when I get to the office.	244279904	1478553212428	1478553212523	o	79
477836	5145920	I'll call you when I get to the office.	I'll call you when I get to the office.	244279908	1478553212476	1478553212587	 	32
477836	5145920	I'll call you when I get to the office.	I'll call you when I get to the office.	244279914	1478553212612	1478553212675	t	84
477836	5145920	I'll call you when I get to the office.	I'll call you when I get to the office.	244279918	1478553212691	1478553212757	h	72
477836	5145920	I'll call you when I get to the office.	I'll call you when I get to the office.	244279937	1478553212756	1478553212843	e	69
477836	5145920	I'll call you when I get to the office.	I'll call you when I get to the office.	244279940	1478553212812	1478553212906	 	32
477836	5145920	I'll call you when I get to the office.	I'll call you when I get to the office.	244279943	1478553212900	1478553212995	o	79
477836	5145920	I'll call you when I get to the office.	I'll call you when I get to the office.	244279949	1478553213012	1478553213067	f	70
477836	5145920	I'll call you when I get to the office.	I'll call you when I get to the office.	244279954	1478553213147	1478553213222	f	70
477836	5145920	I'll call you when I get to the office.	I'll call you when I get to the office.	244279960	1478553213223	1478553213307	i	73
477836	5145920	I'll call you when I get to the office.	I'll call you when I get to the office.	244279969	1478553213315	1478553213403	c	67
477836	5145920	I'll call you when I get to the office.	I'll call you when I get to the office.	244279972	1478553213388	1478553213452	e	69
477836	5145920	I'll call you when I get to the office.	I'll call you when I get to the office.	244279975	1478553213432	1478553213499	.	190
477836	5145929	However, he warrants no real Fantasy consideration at this point.	However, he warrants no real Fantasy consideratio nat this point.	244280109	1478553215179	1478553215352	SHIFT	16
477836	5145929	However, he warrants no real Fantasy consideration at this point.	However, he warrants no real Fantasy consideratio nat this point.	244280103	1478553215277	1478553215342	H	72
477836	5145929	However, he warrants no real Fantasy consideration at this point.	However, he warrants no real Fantasy consideratio nat this point.	244280118	1478553215412	1478553215490	o	79
477836	5145929	However, he warrants no real Fantasy consideration at this point.	However, he warrants no real Fantasy consideratio nat this point.	244280126	1478553215500	1478553215611	w	87
477836	5145929	However, he warrants no real Fantasy consideration at this point.	However, he warrants no real Fantasy consideratio nat this point.	244280133	1478553215555	1478553215643	e	69
477836	5145929	However, he warrants no real Fantasy consideration at this point.	However, he warrants no real Fantasy consideratio nat this point.	244280140	1478553215708	1478553215787	v	86
477836	5145929	However, he warrants no real Fantasy consideration at this point.	However, he warrants no real Fantasy consideratio nat this point.	244280147	1478553215828	1478553215955	e	69
477836	5145929	However, he warrants no real Fantasy consideration at this point.	However, he warrants no real Fantasy consideratio nat this point.	244280151	1478553215916	1478553215987	r	82
477836	5145929	However, he warrants no real Fantasy consideration at this point.	However, he warrants no real Fantasy consideratio nat this point.	244280156	1478553216004	1478553216107	,	188
477836	5145929	However, he warrants no real Fantasy consideration at this point.	However, he warrants no real Fantasy consideratio nat this point.	244280161	1478553216084	1478553216203	 	32
477836	5145929	However, he warrants no real Fantasy consideration at this point.	However, he warrants no real Fantasy consideratio nat this point.	244280166	1478553216252	1478553216326	h	72
477836	5145929	However, he warrants no real Fantasy consideration at this point.	However, he warrants no real Fantasy consideratio nat this point.	244280203	1478553216316	1478553216403	e	69
477836	5145929	However, he warrants no real Fantasy consideration at this point.	However, he warrants no real Fantasy consideratio nat this point.	244280205	1478553216380	1478553216474	 	32
477836	5145929	However, he warrants no real Fantasy consideration at this point.	However, he warrants no real Fantasy consideratio nat this point.	244280209	1478553216468	1478553216595	w	87
477836	5145929	However, he warrants no real Fantasy consideration at this point.	However, he warrants no real Fantasy consideratio nat this point.	244280213	1478553216548	1478553216707	a	65
477836	5145929	However, he warrants no real Fantasy consideration at this point.	However, he warrants no real Fantasy consideratio nat this point.	244280217	1478553216932	1478553217011	r	82
477836	5145929	However, he warrants no real Fantasy consideration at this point.	However, he warrants no real Fantasy consideratio nat this point.	244280222	1478553217092	1478553217211	r	82
477836	5145929	However, he warrants no real Fantasy consideration at this point.	However, he warrants no real Fantasy consideratio nat this point.	244280249	1478553217188	1478553217275	a	65
477836	5145929	However, he warrants no real Fantasy consideration at this point.	However, he warrants no real Fantasy consideratio nat this point.	244280251	1478553217324	1478553217419	n	78
477836	5145929	However, he warrants no real Fantasy consideration at this point.	However, he warrants no real Fantasy consideratio nat this point.	244280252	1478553217428	1478553217507	t	84
477836	5145929	However, he warrants no real Fantasy consideration at this point.	However, he warrants no real Fantasy consideratio nat this point.	244280253	1478553217596	1478553217707	s	83
477836	5145929	However, he warrants no real Fantasy consideration at this point.	However, he warrants no real Fantasy consideratio nat this point.	244280255	1478553217684	1478553217795	 	32
477836	5145929	However, he warrants no real Fantasy consideration at this point.	However, he warrants no real Fantasy consideratio nat this point.	244280321	1478553217772	1478553217843	t	84
477836	5145929	However, he warrants no real Fantasy consideration at this point.	However, he warrants no real Fantasy consideratio nat this point.	244280322	1478553217900	1478553217971	o	79
477836	5145929	However, he warrants no real Fantasy consideration at this point.	However, he warrants no real Fantasy consideratio nat this point.	244280326	1478553218132	1478553218195	BKSP	8
477836	5145929	However, he warrants no real Fantasy consideration at this point.	However, he warrants no real Fantasy consideratio nat this point.	244280330	1478553218276	1478553218370	BKSP	8
477836	5145929	However, he warrants no real Fantasy consideration at this point.	However, he warrants no real Fantasy consideratio nat this point.	244280337	1478553218452	1478553218563	n	78
477836	5145929	However, he warrants no real Fantasy consideration at this point.	However, he warrants no real Fantasy consideratio nat this point.	244280345	1478553218524	1478553218635	o	79
477836	5145929	However, he warrants no real Fantasy consideration at this point.	However, he warrants no real Fantasy consideratio nat this point.	244280351	1478553218580	1478553218693	 	32
477836	5145929	However, he warrants no real Fantasy consideration at this point.	However, he warrants no real Fantasy consideratio nat this point.	244280364	1478553218692	1478553218819	r	82
477836	5145929	However, he warrants no real Fantasy consideration at this point.	However, he warrants no real Fantasy consideratio nat this point.	244280367	1478553218764	1478553218875	e	69
477836	5145929	However, he warrants no real Fantasy consideration at this point.	However, he warrants no real Fantasy consideratio nat this point.	244280370	1478553218829	1478553218899	a	65
477836	5145929	However, he warrants no real Fantasy consideration at this point.	However, he warrants no real Fantasy consideratio nat this point.	244280374	1478553218900	1478553218986	l	76
477836	5145929	However, he warrants no real Fantasy consideration at this point.	However, he warrants no real Fantasy consideratio nat this point.	244280379	1478553218980	1478553219099	 	32
477836	5145929	However, he warrants no real Fantasy consideration at this point.	However, he warrants no real Fantasy consideratio nat this point.	244280386	1478553219083	1478553219219	SHIFT	16
477836	5145929	However, he warrants no real Fantasy consideration at this point.	However, he warrants no real Fantasy consideratio nat this point.	244280402	1478553219164	1478553219291	F	70
477836	5145929	However, he warrants no real Fantasy consideration at this point.	However, he warrants no real Fantasy consideratio nat this point.	244280405	1478553219268	1478553219331	a	65
477836	5145929	However, he warrants no real Fantasy consideration at this point.	However, he warrants no real Fantasy consideratio nat this point.	244280411	1478553219381	1478553219499	n	78
477836	5145929	However, he warrants no real Fantasy consideration at this point.	However, he warrants no real Fantasy consideratio nat this point.	244280417	1478553219500	1478553219598	t	84
477836	5145929	However, he warrants no real Fantasy consideration at this point.	However, he warrants no real Fantasy consideratio nat this point.	244280422	1478553219596	1478553219723	a	65
477836	5145929	However, he warrants no real Fantasy consideration at this point.	However, he warrants no real Fantasy consideratio nat this point.	244280440	1478553219684	1478553219795	s	83
477836	5145929	However, he warrants no real Fantasy consideration at this point.	However, he warrants no real Fantasy consideratio nat this point.	244280445	1478553219772	1478553219859	y	89
477836	5145929	However, he warrants no real Fantasy consideration at this point.	However, he warrants no real Fantasy consideratio nat this point.	244280451	1478553219964	1478553220043	 	32
477836	5145929	However, he warrants no real Fantasy consideration at this point.	However, he warrants no real Fantasy consideratio nat this point.	244280457	1478553220060	1478553220163	c	67
477836	5145929	However, he warrants no real Fantasy consideration at this point.	However, he warrants no real Fantasy consideratio nat this point.	244280460	1478553220132	1478553220235	o	79
477836	5145929	However, he warrants no real Fantasy consideration at this point.	However, he warrants no real Fantasy consideratio nat this point.	244280480	1478553220180	1478553220307	n	78
477836	5145929	However, he warrants no real Fantasy consideration at this point.	However, he warrants no real Fantasy consideratio nat this point.	244280482	1478553220268	1478553220339	s	83
477836	5145929	However, he warrants no real Fantasy consideration at this point.	However, he warrants no real Fantasy consideratio nat this point.	244280484	1478553220356	1478553220419	i	73
477836	5145929	However, he warrants no real Fantasy consideration at this point.	However, he warrants no real Fantasy consideratio nat this point.	244280486	1478553220428	1478553220491	d	68
477836	5145929	However, he warrants no real Fantasy consideration at this point.	However, he warrants no real Fantasy consideratio nat this point.	244280489	1478553220564	1478553220667	e	69
477836	5145929	However, he warrants no real Fantasy consideration at this point.	However, he warrants no real Fantasy consideratio nat this point.	244280498	1478553220628	1478553220747	r	82
477836	5145929	However, he warrants no real Fantasy consideration at this point.	However, he warrants no real Fantasy consideratio nat this point.	244280501	1478553220732	1478553220843	a	65
477836	5145929	However, he warrants no real Fantasy consideration at this point.	However, he warrants no real Fantasy consideratio nat this point.	244280502	1478553220828	1478553220910	t	84
477836	5145929	However, he warrants no real Fantasy consideration at this point.	However, he warrants no real Fantasy consideratio nat this point.	244280503	1478553220908	1478553220978	i	73
477836	5145929	However, he warrants no real Fantasy consideration at this point.	However, he warrants no real Fantasy consideratio nat this point.	244280504	1478553220964	1478553221051	o	79
477836	5145929	However, he warrants no real Fantasy consideration at this point.	However, he warrants no real Fantasy consideratio nat this point.	244280522	1478553221043	1478553221155	 	32
477836	5145929	However, he warrants no real Fantasy consideration at this point.	However, he warrants no real Fantasy consideratio nat this point.	244280517	1478553221076	1478553221115	n	78
477836	5145929	However, he warrants no real Fantasy consideration at this point.	However, he warrants no real Fantasy consideratio nat this point.	244280529	1478553221132	1478553221218	a	65
477836	5145929	However, he warrants no real Fantasy consideration at this point.	However, he warrants no real Fantasy consideratio nat this point.	244280534	1478553221212	1478553221290	t	84
477836	5145929	However, he warrants no real Fantasy consideration at this point.	However, he warrants no real Fantasy consideratio nat this point.	244280540	1478553221284	1478553221405	 	32
477836	5145929	However, he warrants no real Fantasy consideration at this point.	However, he warrants no real Fantasy consideratio nat this point.	244280596	1478553221403	1478553221506	t	84
477836	5145929	However, he warrants no real Fantasy consideration at this point.	However, he warrants no real Fantasy consideratio nat this point.	244280600	1478553221500	1478553221611	h	72
477836	5145929	However, he warrants no real Fantasy consideration at this point.	However, he warrants no real Fantasy consideratio nat this point.	244280601	1478553221580	1478553221683	i	73
477836	5145929	However, he warrants no real Fantasy consideration at this point.	However, he warrants no real Fantasy consideratio nat this point.	244280605	1478553221660	1478553221746	s	83
477836	5145929	However, he warrants no real Fantasy consideration at this point.	However, he warrants no real Fantasy consideratio nat this point.	244280606	1478553221740	1478553221811	 	32
477836	5145929	However, he warrants no real Fantasy consideration at this point.	However, he warrants no real Fantasy consideratio nat this point.	244280611	1478553222260	1478553222340	p	80
477836	5145929	However, he warrants no real Fantasy consideration at this point.	However, he warrants no real Fantasy consideratio nat this point.	244280626	1478553222428	1478553222539	o	79
477836	5145929	However, he warrants no real Fantasy consideration at this point.	However, he warrants no real Fantasy consideratio nat this point.	244280629	1478553222484	1478553222571	i	73
477836	5145929	However, he warrants no real Fantasy consideration at this point.	However, he warrants no real Fantasy consideratio nat this point.	244280633	1478553222524	1478553222603	n	78
477836	5145929	However, he warrants no real Fantasy consideration at this point.	However, he warrants no real Fantasy consideratio nat this point.	244280636	1478553222548	1478553222619	t	84
477836	5145929	However, he warrants no real Fantasy consideration at this point.	However, he warrants no real Fantasy consideratio nat this point.	244280639	1478553222668	1478553222723	.	190
477836	5145936	For those of you who have not paid please get your money tome soon.	For those of you who have not paid please get your money tome soon.	244280789	1478553224483	1478553224819	SHIFT	16
477836	5145936	For those of you who have not paid please get your money tome soon.	For those of you who have not paid please get your money tome soon.	244280793	1478553224731	1478553224843	F	70
477836	5145936	For those of you who have not paid please get your money tome soon.	For those of you who have not paid please get your money tome soon.	244280801	1478553224892	1478553224987	o	79
477836	5145936	For those of you who have not paid please get your money tome soon.	For those of you who have not paid please get your money tome soon.	244280808	1478553224956	1478553225037	r	82
477836	5145936	For those of you who have not paid please get your money tome soon.	For those of you who have not paid please get your money tome soon.	244280814	1478553225020	1478553225139	 	32
477836	5145936	For those of you who have not paid please get your money tome soon.	For those of you who have not paid please get your money tome soon.	244280827	1478553225108	1478553225187	t	84
477836	5145936	For those of you who have not paid please get your money tome soon.	For those of you who have not paid please get your money tome soon.	244280829	1478553225156	1478553225259	h	72
477836	5145936	For those of you who have not paid please get your money tome soon.	For those of you who have not paid please get your money tome soon.	244280832	1478553225212	1478553225315	o	79
477836	5145936	For those of you who have not paid please get your money tome soon.	For those of you who have not paid please get your money tome soon.	244280834	1478553225285	1478553225405	s	83
477836	5145936	For those of you who have not paid please get your money tome soon.	For those of you who have not paid please get your money tome soon.	244280835	1478553225340	1478553225451	e	69
477836	5145936	For those of you who have not paid please get your money tome soon.	For those of you who have not paid please get your money tome soon.	244280846	1478553225405	1478553225523	 	32
477836	5145936	For those of you who have not paid please get your money tome soon.	For those of you who have not paid please get your money tome soon.	244280849	1478553225508	1478553225604	o	79
477836	5145936	For those of you who have not paid please get your money tome soon.	For those of you who have not paid please get your money tome soon.	244280852	1478553225588	1478553225691	f	70
477836	5145936	For those of you who have not paid please get your money tome soon.	For those of you who have not paid please get your money tome soon.	244280857	1478553225676	1478553225794	 	32
477836	5145936	For those of you who have not paid please get your money tome soon.	For those of you who have not paid please get your money tome soon.	244280860	1478553225788	1478553225867	y	89
477836	5145936	For those of you who have not paid please get your money tome soon.	For those of you who have not paid please get your money tome soon.	244280871	1478553225820	1478553225931	o	79
477836	5145936	For those of you who have not paid please get your money tome soon.	For those of you who have not paid please get your money tome soon.	244280875	1478553225892	1478553225979	u	85
477836	5145936	For those of you who have not paid please get your money tome soon.	For those of you who have not paid please get your money tome soon.	244280877	1478553225956	1478553226059	 	32
477836	5145936	For those of you who have not paid please get your money tome soon.	For those of you who have not paid please get your money tome soon.	244280882	1478553226180	1478553226259	w	87
477836	5145936	For those of you who have not paid please get your money tome soon.	For those of you who have not paid please get your money tome soon.	244280889	1478553226284	1478553226387	h	72
477836	5145936	For those of you who have not paid please get your money tome soon.	For those of you who have not paid please get your money tome soon.	244280902	1478553226348	1478553226445	o	79
477836	5145936	For those of you who have not paid please get your money tome soon.	For those of you who have not paid please get your money tome soon.	244280905	1478553226429	1478553226531	 	32
477836	5145936	For those of you who have not paid please get your money tome soon.	For those of you who have not paid please get your money tome soon.	244280908	1478553226556	1478553226643	h	72
477836	5145936	For those of you who have not paid please get your money tome soon.	For those of you who have not paid please get your money tome soon.	244280910	1478553226580	1478553226707	a	65
477836	5145936	For those of you who have not paid please get your money tome soon.	For those of you who have not paid please get your money tome soon.	244280912	1478553226669	1478553226763	v	86
477836	5145936	For those of you who have not paid please get your money tome soon.	For those of you who have not paid please get your money tome soon.	244280914	1478553226796	1478553226907	e	69
477836	5145936	For those of you who have not paid please get your money tome soon.	For those of you who have not paid please get your money tome soon.	244280918	1478553226852	1478553226962	 	32
477836	5145936	For those of you who have not paid please get your money tome soon.	For those of you who have not paid please get your money tome soon.	244280921	1478553226892	1478553227019	n	78
477836	5145936	For those of you who have not paid please get your money tome soon.	For those of you who have not paid please get your money tome soon.	244280924	1478553226956	1478553227075	o	79
477836	5145936	For those of you who have not paid please get your money tome soon.	For those of you who have not paid please get your money tome soon.	244280927	1478553227028	1478553227123	t	84
477836	5145936	For those of you who have not paid please get your money tome soon.	For those of you who have not paid please get your money tome soon.	244280930	1478553227108	1478553227187	 	32
477836	5145936	For those of you who have not paid please get your money tome soon.	For those of you who have not paid please get your money tome soon.	244280933	1478553227204	1478553227307	p	80
477836	5145936	For those of you who have not paid please get your money tome soon.	For those of you who have not paid please get your money tome soon.	244280959	1478553227268	1478553227355	a	65
477836	5145936	For those of you who have not paid please get your money tome soon.	For those of you who have not paid please get your money tome soon.	244280960	1478553227420	1478553227507	i	73
477836	5145936	For those of you who have not paid please get your money tome soon.	For those of you who have not paid please get your money tome soon.	244280963	1478553227540	1478553227651	d	68
477836	5145936	For those of you who have not paid please get your money tome soon.	For those of you who have not paid please get your money tome soon.	244280967	1478553227612	1478553227715	 	32
477836	5145936	For those of you who have not paid please get your money tome soon.	For those of you who have not paid please get your money tome soon.	244280971	1478553227828	1478553227923	p	80
477836	5145936	For those of you who have not paid please get your money tome soon.	For those of you who have not paid please get your money tome soon.	244280974	1478553228020	1478553228091	l	76
477836	5145936	For those of you who have not paid please get your money tome soon.	For those of you who have not paid please get your money tome soon.	244280987	1478553228068	1478553228155	e	69
477836	5145936	For those of you who have not paid please get your money tome soon.	For those of you who have not paid please get your money tome soon.	244280990	1478553228108	1478553228275	a	65
477836	5145936	For those of you who have not paid please get your money tome soon.	For those of you who have not paid please get your money tome soon.	244280993	1478553228204	1478553228379	s	83
477836	5145936	For those of you who have not paid please get your money tome soon.	For those of you who have not paid please get your money tome soon.	244280996	1478553228307	1478553228422	e	69
477836	5145936	For those of you who have not paid please get your money tome soon.	For those of you who have not paid please get your money tome soon.	244280998	1478553228396	1478553228483	 	32
477836	5145936	For those of you who have not paid please get your money tome soon.	For those of you who have not paid please get your money tome soon.	244281001	1478553228500	1478553228596	g	71
477836	5145936	For those of you who have not paid please get your money tome soon.	For those of you who have not paid please get your money tome soon.	244281019	1478553228628	1478553228763	e	69
477836	5145936	For those of you who have not paid please get your money tome soon.	For those of you who have not paid please get your money tome soon.	244281024	1478553228700	1478553228803	t	84
477836	5145936	For those of you who have not paid please get your money tome soon.	For those of you who have not paid please get your money tome soon.	244281027	1478553228748	1478553228875	 	32
477836	5145936	For those of you who have not paid please get your money tome soon.	For those of you who have not paid please get your money tome soon.	244281030	1478553228884	1478553228972	y	89
477836	5145936	For those of you who have not paid please get your money tome soon.	For those of you who have not paid please get your money tome soon.	244281041	1478553228948	1478553229059	o	79
477836	5145936	For those of you who have not paid please get your money tome soon.	For those of you who have not paid please get your money tome soon.	244281044	1478553229012	1478553229099	u	85
477836	5145936	For those of you who have not paid please get your money tome soon.	For those of you who have not paid please get your money tome soon.	244281047	1478553229084	1478553229195	r	82
477836	5145936	For those of you who have not paid please get your money tome soon.	For those of you who have not paid please get your money tome soon.	244281050	1478553229156	1478553229275	 	32
477836	5145936	For those of you who have not paid please get your money tome soon.	For those of you who have not paid please get your money tome soon.	244281054	1478553229236	1478553229323	m	77
477836	5145936	For those of you who have not paid please get your money tome soon.	For those of you who have not paid please get your money tome soon.	244281077	1478553229292	1478553229451	o	79
477836	5145936	For those of you who have not paid please get your money tome soon.	For those of you who have not paid please get your money tome soon.	244281079	1478553229421	1478553229531	n	78
477836	5145936	For those of you who have not paid please get your money tome soon.	For those of you who have not paid please get your money tome soon.	244281081	1478553229444	1478553229603	e	69
477836	5145936	For those of you who have not paid please get your money tome soon.	For those of you who have not paid please get your money tome soon.	244281084	1478553229548	1478553229651	y	89
477836	5145936	For those of you who have not paid please get your money tome soon.	For those of you who have not paid please get your money tome soon.	244281088	1478553229612	1478553229699	 	32
477836	5145936	For those of you who have not paid please get your money tome soon.	For those of you who have not paid please get your money tome soon.	244281092	1478553229743	1478553229851	t	84
477836	5145936	For those of you who have not paid please get your money tome soon.	For those of you who have not paid please get your money tome soon.	244281127	1478553229804	1478553229939	o	79
477836	5145936	For those of you who have not paid please get your money tome soon.	For those of you who have not paid please get your money tome soon.	244281132	1478553229884	1478553230027	m	77
477836	5145936	For those of you who have not paid please get your money tome soon.	For those of you who have not paid please get your money tome soon.	244281140	1478553229972	1478553230091	e	69
477836	5145936	For those of you who have not paid please get your money tome soon.	For those of you who have not paid please get your money tome soon.	244281146	1478553230052	1478553230147	 	32
477836	5145936	For those of you who have not paid please get your money tome soon.	For those of you who have not paid please get your money tome soon.	244281150	1478553230580	1478553230651	s	83
477836	5145936	For those of you who have not paid please get your money tome soon.	For those of you who have not paid please get your money tome soon.	244281156	1478553230660	1478553230739	o	79
477836	5145936	For those of you who have not paid please get your money tome soon.	For those of you who have not paid please get your money tome soon.	244281175	1478553230828	1478553230939	o	79
477836	5145936	For those of you who have not paid please get your money tome soon.	For those of you who have not paid please get your money tome soon.	244281178	1478553230884	1478553230987	n	78
477836	5145936	For those of you who have not paid please get your money tome soon.	For those of you who have not paid please get your money tome soon.	244281182	1478553231051	1478553231147	.	190
477836	5145953	It would be wise to keep him inactive until he is effective in a game.	It would be wise to keep him inactive until he is effective in a game.	244281356	1478553233131	1478553233323	SHIFT	16
477836	5145953	It would be wise to keep him inactive until he is effective in a game.	It would be wise to keep him inactive until he is effective in a game.	244281357	1478553233260	1478553233387	I	73
477836	5145953	It would be wise to keep him inactive until he is effective in a game.	It would be wise to keep him inactive until he is effective in a game.	244281359	1478553233364	1478553233475	t	84
477836	5145953	It would be wise to keep him inactive until he is effective in a game.	It would be wise to keep him inactive until he is effective in a game.	244281363	1478553233444	1478553233571	 	32
477836	5145953	It would be wise to keep him inactive until he is effective in a game.	It would be wise to keep him inactive until he is effective in a game.	244281366	1478553233549	1478553233619	w	87
477836	5145953	It would be wise to keep him inactive until he is effective in a game.	It would be wise to keep him inactive until he is effective in a game.	244281390	1478553233604	1478553233707	o	79
477836	5145953	It would be wise to keep him inactive until he is effective in a game.	It would be wise to keep him inactive until he is effective in a game.	244281394	1478553233701	1478553233843	u	85
477836	5145953	It would be wise to keep him inactive until he is effective in a game.	It would be wise to keep him inactive until he is effective in a game.	244281401	1478553233812	1478553233892	l	76
477836	5145953	It would be wise to keep him inactive until he is effective in a game.	It would be wise to keep him inactive until he is effective in a game.	244281408	1478553233868	1478553233931	d	68
477836	5145953	It would be wise to keep him inactive until he is effective in a game.	It would be wise to keep him inactive until he is effective in a game.	244281413	1478553233908	1478553233995	 	32
477836	5145953	It would be wise to keep him inactive until he is effective in a game.	It would be wise to keep him inactive until he is effective in a game.	244281417	1478553234004	1478553234075	b	66
477836	5145953	It would be wise to keep him inactive until he is effective in a game.	It would be wise to keep him inactive until he is effective in a game.	244281437	1478553234140	1478553234243	e	69
477836	5145953	It would be wise to keep him inactive until he is effective in a game.	It would be wise to keep him inactive until he is effective in a game.	244281439	1478553234212	1478553234323	 	32
477836	5145953	It would be wise to keep him inactive until he is effective in a game.	It would be wise to keep him inactive until he is effective in a game.	244281443	1478553234357	1478553234452	w	87
477836	5145953	It would be wise to keep him inactive until he is effective in a game.	It would be wise to keep him inactive until he is effective in a game.	244281445	1478553234484	1478553234563	i	73
477836	5145953	It would be wise to keep him inactive until he is effective in a game.	It would be wise to keep him inactive until he is effective in a game.	244281448	1478553234580	1478553234739	s	83
477836	5145953	It would be wise to keep him inactive until he is effective in a game.	It would be wise to keep him inactive until he is effective in a game.	244281467	1478553234676	1478553234803	e	69
477836	5145953	It would be wise to keep him inactive until he is effective in a game.	It would be wise to keep him inactive until he is effective in a game.	244281474	1478553234788	1478553234899	 	32
477836	5145953	It would be wise to keep him inactive until he is effective in a game.	It would be wise to keep him inactive until he is effective in a game.	244281481	1478553234876	1478553234955	t	84
477836	5145953	It would be wise to keep him inactive until he is effective in a game.	It would be wise to keep him inactive until he is effective in a game.	244281487	1478553234964	1478553235051	o	79
477836	5145953	It would be wise to keep him inactive until he is effective in a game.	It would be wise to keep him inactive until he is effective in a game.	244281494	1478553235037	1478553235141	 	32
477836	5145953	It would be wise to keep him inactive until he is effective in a game.	It would be wise to keep him inactive until he is effective in a game.	244281513	1478553235125	1478553235211	k	75
477836	5145953	It would be wise to keep him inactive until he is effective in a game.	It would be wise to keep him inactive until he is effective in a game.	244281515	1478553235204	1478553235267	e	69
477836	5145953	It would be wise to keep him inactive until he is effective in a game.	It would be wise to keep him inactive until he is effective in a game.	244281518	1478553235342	1478553235427	e	69
477836	5145953	It would be wise to keep him inactive until he is effective in a game.	It would be wise to keep him inactive until he is effective in a game.	244281520	1478553235389	1478553235475	p	80
477836	5145953	It would be wise to keep him inactive until he is effective in a game.	It would be wise to keep him inactive until he is effective in a game.	244281522	1478553235533	1478553235611	 	32
477836	5145953	It would be wise to keep him inactive until he is effective in a game.	It would be wise to keep him inactive until he is effective in a game.	244281533	1478553235565	1478553235667	h	72
477836	5145953	It would be wise to keep him inactive until he is effective in a game.	It would be wise to keep him inactive until he is effective in a game.	244281538	1478553235661	1478553235795	i	73
477836	5145953	It would be wise to keep him inactive until he is effective in a game.	It would be wise to keep him inactive until he is effective in a game.	244281543	1478553235781	1478553235875	 	77
477836	5145953	It would be wise to keep him inactive until he is effective in a game.	It would be wise to keep him inactive until he is effective in a game.	244281545	1478553235916	1478553236011	i	73
477836	5145953	It would be wise to keep him inactive until he is effective in a game.	It would be wise to keep him inactive until he is effective in a game.	244281560	1478553235997	1478553236093	n	78
477836	5145953	It would be wise to keep him inactive until he is effective in a game.	It would be wise to keep him inactive until he is effective in a game.	244281563	1478553236076	1478553236163	a	65
477836	5145953	It would be wise to keep him inactive until he is effective in a game.	It would be wise to keep him inactive until he is effective in a game.	244281570	1478553236220	1478553236307	c	67
477836	5145953	It would be wise to keep him inactive until he is effective in a game.	It would be wise to keep him inactive until he is effective in a game.	244281576	1478553236396	1478553236460	t	84
477836	5145953	It would be wise to keep him inactive until he is effective in a game.	It would be wise to keep him inactive until he is effective in a game.	244281583	1478553236452	1478553236515	i	73
477836	5145953	It would be wise to keep him inactive until he is effective in a game.	It would be wise to keep him inactive until he is effective in a game.	244281587	1478553236540	1478553236603	v	86
477836	5145953	It would be wise to keep him inactive until he is effective in a game.	It would be wise to keep him inactive until he is effective in a game.	244281592	1478553236636	1478553236715	e	69
477836	5145953	It would be wise to keep him inactive until he is effective in a game.	It would be wise to keep him inactive until he is effective in a game.	244281593	1478553236693	1478553236787	 	32
477836	5145953	It would be wise to keep him inactive until he is effective in a game.	It would be wise to keep him inactive until he is effective in a game.	244281595	1478553236764	1478553236867	u	85
477836	5145953	It would be wise to keep him inactive until he is effective in a game.	It would be wise to keep him inactive until he is effective in a game.	244281596	1478553236853	1478553236995	n	78
477836	5145953	It would be wise to keep him inactive until he is effective in a game.	It would be wise to keep him inactive until he is effective in a game.	244281608	1478553236933	1478553237003	t	84
477836	5145953	It would be wise to keep him inactive until he is effective in a game.	It would be wise to keep him inactive until he is effective in a game.	244281611	1478553236989	1478553237083	i	73
477836	5145953	It would be wise to keep him inactive until he is effective in a game.	It would be wise to keep him inactive until he is effective in a game.	244281615	1478553237052	1478553237163	l	76
477836	5145953	It would be wise to keep him inactive until he is effective in a game.	It would be wise to keep him inactive until he is effective in a game.	244281619	1478553237125	1478553237211	 	32
477836	5145953	It would be wise to keep him inactive until he is effective in a game.	It would be wise to keep him inactive until he is effective in a game.	244281627	1478553237221	1478553237291	h	72
477836	5145953	It would be wise to keep him inactive until he is effective in a game.	It would be wise to keep him inactive until he is effective in a game.	244281634	1478553237340	1478553237435	e	69
477836	5145953	It would be wise to keep him inactive until he is effective in a game.	It would be wise to keep him inactive until he is effective in a game.	244281662	1478553237412	1478553237483	 	32
477836	5145953	It would be wise to keep him inactive until he is effective in a game.	It would be wise to keep him inactive until he is effective in a game.	244281669	1478553237509	1478553237579	i	73
477836	5145953	It would be wise to keep him inactive until he is effective in a game.	It would be wise to keep him inactive until he is effective in a game.	244281676	1478553237589	1478553237667	s	83
477836	5145953	It would be wise to keep him inactive until he is effective in a game.	It would be wise to keep him inactive until he is effective in a game.	244281682	1478553237644	1478553237731	 	32
477836	5145953	It would be wise to keep him inactive until he is effective in a game.	It would be wise to keep him inactive until he is effective in a game.	244281686	1478553237797	1478553237867	e	69
477836	5145953	It would be wise to keep him inactive until he is effective in a game.	It would be wise to keep him inactive until he is effective in a game.	244281689	1478553237957	1478553237987	f	70
477836	5145953	It would be wise to keep him inactive until he is effective in a game.	It would be wise to keep him inactive until he is effective in a game.	244281711	1478553238069	1478553238155	f	70
477836	5145953	It would be wise to keep him inactive until he is effective in a game.	It would be wise to keep him inactive until he is effective in a game.	244281715	1478553238141	1478553238227	e	69
477836	5145953	It would be wise to keep him inactive until he is effective in a game.	It would be wise to keep him inactive until he is effective in a game.	244281720	1478553238285	1478553238371	c	67
477836	5145953	It would be wise to keep him inactive until he is effective in a game.	It would be wise to keep him inactive until he is effective in a game.	244281726	1478553238445	1478553238507	t	84
477836	5145953	It would be wise to keep him inactive until he is effective in a game.	It would be wise to keep him inactive until he is effective in a game.	244281729	1478553238532	1478553238595	i	73
477836	5145953	It would be wise to keep him inactive until he is effective in a game.	It would be wise to keep him inactive until he is effective in a game.	244281736	1478553238589	1478553238643	v	86
477836	5145953	It would be wise to keep him inactive until he is effective in a game.	It would be wise to keep him inactive until he is effective in a game.	244281740	1478553238684	1478553238747	e	69
477836	5145953	It would be wise to keep him inactive until he is effective in a game.	It would be wise to keep him inactive until he is effective in a game.	244281743	1478553238732	1478553238819	 	32
477836	5145953	It would be wise to keep him inactive until he is effective in a game.	It would be wise to keep him inactive until he is effective in a game.	244281745	1478553238788	1478553238867	i	73
477836	5145953	It would be wise to keep him inactive until he is effective in a game.	It would be wise to keep him inactive until he is effective in a game.	244281749	1478553238844	1478553238955	n	78
477836	5145953	It would be wise to keep him inactive until he is effective in a game.	It would be wise to keep him inactive until he is effective in a game.	244281795	1478553238909	1478553239011	 	32
477836	5145953	It would be wise to keep him inactive until he is effective in a game.	It would be wise to keep him inactive until he is effective in a game.	244281801	1478553238964	1478553239035	a	65
477836	5145953	It would be wise to keep him inactive until he is effective in a game.	It would be wise to keep him inactive until he is effective in a game.	244281809	1478553239060	1478553239195	 	32
477836	5145953	It would be wise to keep him inactive until he is effective in a game.	It would be wise to keep him inactive until he is effective in a game.	244281813	1478553239221	1478553239323	g	71
477836	5145953	It would be wise to keep him inactive until he is effective in a game.	It would be wise to keep him inactive until he is effective in a game.	244281820	1478553239332	1478553239406	a	65
477836	5145953	It would be wise to keep him inactive until he is effective in a game.	It would be wise to keep him inactive until he is effective in a game.	244281826	1478553239428	1478553239531	m	77
477836	5145953	It would be wise to keep him inactive until he is effective in a game.	It would be wise to keep him inactive until he is effective in a game.	244281824	1478553239485	1478553239555	e	69
477836	5145953	It would be wise to keep him inactive until he is effective in a game.	It would be wise to keep him inactive until he is effective in a game.	244281828	1478553239540	1478553239651	.	190
477836	5145968	Following are my comments.	Following are my comments.	244282012	1478553241348	1478553241499	SHIFT	16
477836	5145968	Following are my comments.	Following are my comments.	244282020	1478553241421	1478553241507	F	70
477836	5145968	Following are my comments.	Following are my comments.	244282028	1478553241589	1478553241667	o	79
477836	5145968	Following are my comments.	Following are my comments.	244282036	1478553241781	1478553241835	l	76
477836	5145968	Following are my comments.	Following are my comments.	244282041	1478553241933	1478553241987	l	76
477836	5145968	Following are my comments.	Following are my comments.	244282047	1478553242069	1478553242163	o	79
477836	5145968	Following are my comments.	Following are my comments.	244282083	1478553242141	1478553242203	w	87
477836	5145968	Following are my comments.	Following are my comments.	244282090	1478553242245	1478553242323	i	73
477836	5145968	Following are my comments.	Following are my comments.	244282096	1478553242333	1478553242427	n	78
477836	5145968	Following are my comments.	Following are my comments.	244282101	1478553242453	1478553242582	g	71
477836	5145968	Following are my comments.	Following are my comments.	244282111	1478553242557	1478553242660	 	32
477836	5145968	Following are my comments.	Following are my comments.	244282114	1478553242765	1478553242931	a	65
477836	5145968	Following are my comments.	Following are my comments.	244282124	1478553242869	1478553242987	r	82
477836	5145968	Following are my comments.	Following are my comments.	244282128	1478553242948	1478553243051	e	69
477836	5145968	Following are my comments.	Following are my comments.	244282132	1478553243005	1478553243107	 	32
477836	5145968	Following are my comments.	Following are my comments.	244282136	1478553243125	1478553243212	m	77
477836	5145968	Following are my comments.	Following are my comments.	244282140	1478553243197	1478553243300	y	89
477836	5145968	Following are my comments.	Following are my comments.	244282160	1478553243277	1478553243366	 	32
477836	5145968	Following are my comments.	Following are my comments.	244282165	1478553243421	1478553243507	c	67
477836	5145968	Following are my comments.	Following are my comments.	244282170	1478553243492	1478553243619	o	79
477836	5145968	Following are my comments.	Following are my comments.	244282177	1478553243573	1478553243635	m	77
477836	5145968	Following are my comments.	Following are my comments.	244282182	1478553243709	1478553243803	m	77
477836	5145968	Following are my comments.	Following are my comments.	244282186	1478553243813	1478553243907	e	69
477836	5145968	Following are my comments.	Following are my comments.	244282191	1478553243892	1478553243971	n	78
477836	5145968	Following are my comments.	Following are my comments.	244282196	1478553243933	1478553243995	t	84
477836	5145968	Following are my comments.	Following are my comments.	244282199	1478553244036	1478553244107	s	83
477836	5145968	Following are my comments.	Following are my comments.	244282202	1478553244085	1478553244155	.	190
477836	5145976	I decided that I am going to stay here!	I decided taht I a m going to stay here!	244282346	1478553245997	1478553246147	SHIFT	16
477836	5145976	I decided that I am going to stay here!	I decided taht I a m going to stay here!	244282351	1478553246101	1478553246179	I	73
477836	5145976	I decided that I am going to stay here!	I decided taht I a m going to stay here!	244282357	1478553246325	1478553246435	 	32
477836	5145976	I decided that I am going to stay here!	I decided taht I a m going to stay here!	244282367	1478553246461	1478553246547	d	68
477836	5145976	I decided that I am going to stay here!	I decided taht I a m going to stay here!	244282372	1478553246637	1478553246715	e	69
477836	5145976	I decided that I am going to stay here!	I decided taht I a m going to stay here!	244282377	1478553246997	1478553247083	c	67
477836	5145976	I decided that I am going to stay here!	I decided taht I a m going to stay here!	244282391	1478553247141	1478553247219	i	73
477836	5145976	I decided that I am going to stay here!	I decided taht I a m going to stay here!	244282393	1478553247285	1478553247355	d	68
477836	5145976	I decided that I am going to stay here!	I decided taht I a m going to stay here!	244282395	1478553247429	1478553247475	e	69
477836	5145976	I decided that I am going to stay here!	I decided taht I a m going to stay here!	244282397	1478553247557	1478553247643	d	68
477836	5145976	I decided that I am going to stay here!	I decided taht I a m going to stay here!	244282404	1478553247637	1478553247731	 	32
477836	5145976	I decided that I am going to stay here!	I decided taht I a m going to stay here!	244282409	1478553247709	1478553247788	t	84
477836	5145976	I decided that I am going to stay here!	I decided taht I a m going to stay here!	244282416	1478553247845	1478553248003	h	65
477836	5145976	I decided that I am going to stay here!	I decided taht I a m going to stay here!	244282421	1478553247933	1478553248029	t	84
477836	5145976	I decided that I am going to stay here!	I decided taht I a m going to stay here!	244282446	1478553248005	1478553248099	 	32
477836	5145976	I decided that I am going to stay here!	I decided taht I a m going to stay here!	244282450	1478553248076	1478553248203	SHIFT	16
477836	5145976	I decided that I am going to stay here!	I decided taht I a m going to stay here!	244282455	1478553248149	1478553248235	I	73
477836	5145976	I decided that I am going to stay here!	I decided taht I a m going to stay here!	244282462	1478553248213	1478553248315	 	32
477836	5145976	I decided that I am going to stay here!	I decided taht I a m going to stay here!	244282471	1478553248325	1478553248435	a	65
477836	5145976	I decided that I am going to stay here!	I decided taht I a m going to stay here!	244282476	1478553248429	1478553248523	 	32
477836	5145976	I decided that I am going to stay here!	I decided taht I a m going to stay here!	244282489	1478553248485	1478553248603	m	77
477836	5145976	I decided that I am going to stay here!	I decided taht I a m going to stay here!	244282496	1478553248613	1478553248740	 	32
477836	5145976	I decided that I am going to stay here!	I decided taht I a m going to stay here!	244282501	1478553248717	1478553248867	g	71
477836	5145976	I decided that I am going to stay here!	I decided taht I a m going to stay here!	244282507	1478553248781	1478553248908	o	79
477836	5145976	I decided that I am going to stay here!	I decided taht I a m going to stay here!	244282513	1478553248853	1478553248940	i	73
477836	5145976	I decided that I am going to stay here!	I decided taht I a m going to stay here!	244282550	1478553248917	1478553249043	n	78
477836	5145976	I decided that I am going to stay here!	I decided taht I a m going to stay here!	244282556	1478553248981	1478553249099	g	71
477836	5145976	I decided that I am going to stay here!	I decided taht I a m going to stay here!	244282561	1478553249053	1478553249172	 	32
477836	5145976	I decided that I am going to stay here!	I decided taht I a m going to stay here!	244282566	1478553249253	1478553249339	t	84
477836	5145976	I decided that I am going to stay here!	I decided taht I a m going to stay here!	244282569	1478553249357	1478553249446	o	79
477836	5145976	I decided that I am going to stay here!	I decided taht I a m going to stay here!	244282614	1478553249406	1478553249515	 	32
477836	5145976	I decided that I am going to stay here!	I decided taht I a m going to stay here!	244282621	1478553249581	1478553249699	s	83
477836	5145976	I decided that I am going to stay here!	I decided taht I a m going to stay here!	244282626	1478553249677	1478553249771	t	84
477836	5145976	I decided that I am going to stay here!	I decided taht I a m going to stay here!	244282629	1478553249765	1478553249827	a	65
477836	5145976	I decided that I am going to stay here!	I decided taht I a m going to stay here!	244282633	1478553249869	1478553249947	y	89
477836	5145976	I decided that I am going to stay here!	I decided taht I a m going to stay here!	244282637	1478553249981	1478553250094	 	32
477836	5145976	I decided that I am going to stay here!	I decided taht I a m going to stay here!	244282684	1478553250093	1478553250187	h	72
477836	5145976	I decided that I am going to stay here!	I decided taht I a m going to stay here!	244282690	1478553250149	1478553250244	e	69
477836	5145976	I decided that I am going to stay here!	I decided taht I a m going to stay here!	244282700	1478553250229	1478553250387	r	82
477836	5145976	I decided that I am going to stay here!	I decided taht I a m going to stay here!	244282707	1478553250341	1478553250452	e	69
477836	5145976	I decided that I am going to stay here!	I decided taht I a m going to stay here!	244282714	1478553250851	1478553250988	!	16
477836	5145989	Have a safe trip!	Have a safe trip!	244282866	1478553253348	1478553253595	SHIFT	16
477836	5145989	Have a safe trip!	Have a safe trip!	244282871	1478553253533	1478553253619	H	72
477836	5145989	Have a safe trip!	Have a safe trip!	244282878	1478553253685	1478553253772	a	65
477836	5145989	Have a safe trip!	Have a safe trip!	244282884	1478553253789	1478553253868	v	86
477836	5145989	Have a safe trip!	Have a safe trip!	244282890	1478553253909	1478553254004	e	69
477836	5145989	Have a safe trip!	Have a safe trip!	244282898	1478553253973	1478553254051	 	32
477836	5145989	Have a safe trip!	Have a safe trip!	244282903	1478553254077	1478553254196	a	65
477836	5145989	Have a safe trip!	Have a safe trip!	244282907	1478553254165	1478553254292	 	32
477836	5145989	Have a safe trip!	Have a safe trip!	244282913	1478553254277	1478553254413	s	83
477836	5145989	Have a safe trip!	Have a safe trip!	244282918	1478553254365	1478553254492	a	65
477836	5145989	Have a safe trip!	Have a safe trip!	244282928	1478553254445	1478553254563	f	70
477836	5145989	Have a safe trip!	Have a safe trip!	244282930	1478553254557	1478553254684	e	69
477836	5145989	Have a safe trip!	Have a safe trip!	244282933	1478553254637	1478553254772	 	32
477836	5145989	Have a safe trip!	Have a safe trip!	244282937	1478553254757	1478553254836	t	84
477836	5145989	Have a safe trip!	Have a safe trip!	244282941	1478553254885	1478553255020	r	82
477836	5145989	Have a safe trip!	Have a safe trip!	244282968	1478553254965	1478553255076	i	73
477836	5145989	Have a safe trip!	Have a safe trip!	244282973	1478553255045	1478553255132	p	80
477836	5145989	Have a safe trip!	Have a safe trip!	244282981	1478553255204	1478553255292	SHIFT	16
477836	5145989	Have a safe trip!	Have a safe trip!	244282988	1478553255245	1478553255308	!	49
477836	5145995	We can have wine and catch up.	We can have wine and catch up.	244283126	1478553257293	1478553257556	SHIFT	16
477836	5145995	We can have wine and catch up.	We can have wine and catch up.	244283136	1478553257485	1478553257587	W	87
477836	5145995	We can have wine and catch up.	We can have wine and catch up.	244283144	1478553257581	1478553257676	e	69
477836	5145995	We can have wine and catch up.	We can have wine and catch up.	244283153	1478553257661	1478553257748	 	32
477836	5145995	We can have wine and catch up.	We can have wine and catch up.	244283161	1478553257797	1478553257900	c	67
477836	5145995	We can have wine and catch up.	We can have wine and catch up.	244283217	1478553257845	1478553257932	a	65
477836	5145995	We can have wine and catch up.	We can have wine and catch up.	244283221	1478553258077	1478553258172	 	32
477836	5145995	We can have wine and catch up.	We can have wine and catch up.	244283225	1478553258319	1478553258396	h	72
477836	5145995	We can have wine and catch up.	We can have wine and catch up.	244283229	1478553258413	1478553258492	a	65
477836	5145995	We can have wine and catch up.	We can have wine and catch up.	244283234	1478553258605	1478553258652	BKSP	8
477836	5145995	We can have wine and catch up.	We can have wine and catch up.	244283236	1478553258749	1478553258796	BKSP	8
477836	5145995	We can have wine and catch up.	We can have wine and catch up.	244283238	1478553258869	1478553258940	BKSP	8
477836	5145995	We can have wine and catch up.	We can have wine and catch up.	244283242	1478553259037	1478553259115	n	78
477836	5145995	We can have wine and catch up.	We can have wine and catch up.	244283250	1478553259109	1478553259212	 	32
477836	5145995	We can have wine and catch up.	We can have wine and catch up.	244283253	1478553259229	1478553259324	a	65
477836	5145995	We can have wine and catch up.	We can have wine and catch up.	244283257	1478553259277	1478553259324	h	72
477836	5145995	We can have wine and catch up.	We can have wine and catch up.	244283261	1478553259389	1478553259476	v	86
477836	5145995	We can have wine and catch up.	We can have wine and catch up.	244283263	1478553259509	1478553259628	e	69
477836	5145995	We can have wine and catch up.	We can have wine and catch up.	244283343	1478553259597	1478553259700	 	32
477836	5145995	We can have wine and catch up.	We can have wine and catch up.	244283345	1478553259766	1478553259820	BKSP	8
477836	5145995	We can have wine and catch up.	We can have wine and catch up.	244283348	1478553259901	1478553259980	BKSP	8
477836	5145995	We can have wine and catch up.	We can have wine and catch up.	244283351	1478553260053	1478553260132	BKSP	8
477836	5145995	We can have wine and catch up.	We can have wine and catch up.	244283356	1478553260205	1478553260276	BKSP	8
477836	5145995	We can have wine and catch up.	We can have wine and catch up.	244283359	1478553260357	1478553260435	BKSP	8
477836	5145995	We can have wine and catch up.	We can have wine and catch up.	244283364	1478553260429	1478553260500	h	72
477836	5145995	We can have wine and catch up.	We can have wine and catch up.	244283369	1478553260485	1478553260628	a	65
477836	5145995	We can have wine and catch up.	We can have wine and catch up.	244283375	1478553260605	1478553260700	v	86
477836	5145995	We can have wine and catch up.	We can have wine and catch up.	244283379	1478553260733	1478553260836	e	69
477836	5145995	We can have wine and catch up.	We can have wine and catch up.	244283368	1478553260821	1478553260924	 	32
477836	5145995	We can have wine and catch up.	We can have wine and catch up.	244283371	1478553260909	1478553261003	w	87
477836	5145995	We can have wine and catch up.	We can have wine and catch up.	244283374	1478553260997	1478553261092	i	73
477836	5145995	We can have wine and catch up.	We can have wine and catch up.	244283378	1478553261053	1478553261172	n	78
477836	5145995	We can have wine and catch up.	We can have wine and catch up.	244283384	1478553261117	1478553261203	e	69
477836	5145995	We can have wine and catch up.	We can have wine and catch up.	244283404	1478553261189	1478553261284	 	32
477836	5145995	We can have wine and catch up.	We can have wine and catch up.	244283410	1478553261244	1478553261355	a	65
477836	5145995	We can have wine and catch up.	We can have wine and catch up.	244283417	1478553261349	1478553261484	n	78
477836	5145995	We can have wine and catch up.	We can have wine and catch up.	244283422	1478553261440	1478553261540	d	68
477836	5145995	We can have wine and catch up.	We can have wine and catch up.	244283428	1478553261509	1478553261604	 	32
477836	5145995	We can have wine and catch up.	We can have wine and catch up.	244283433	1478553261613	1478553261708	c	67
477836	5145995	We can have wine and catch up.	We can have wine and catch up.	244283477	1478553261693	1478553261819	a	65
477836	5145995	We can have wine and catch up.	We can have wine and catch up.	244283480	1478553261813	1478553261868	t	84
477836	5145995	We can have wine and catch up.	We can have wine and catch up.	244283488	1478553262245	1478553262292	c	67
477836	5145995	We can have wine and catch up.	We can have wine and catch up.	244283494	1478553262341	1478553262427	h	72
477836	5145995	We can have wine and catch up.	We can have wine and catch up.	244283499	1478553262453	1478553262532	 	32
477836	5145995	We can have wine and catch up.	We can have wine and catch up.	244283504	1478553262557	1478553262660	u	85
477836	5145995	We can have wine and catch up.	We can have wine and catch up.	244283510	1478553262629	1478553262772	p	80
477836	5145995	We can have wine and catch up.	We can have wine and catch up.	244283514	1478553262861	1478553262948	.	190
477836	5146007	Both have also promised higher salaries.	Both have also promised higher salaries.	244283705	1478553264572	1478553265044	SHIFT	16
477836	5146007	Both have also promised higher salaries.	Both have also promised higher salaries.	244283702	1478553264925	1478553265036	B	66
477836	5146007	Both have also promised higher salaries.	Both have also promised higher salaries.	244283710	1478553265149	1478553265244	o	79
477836	5146007	Both have also promised higher salaries.	Both have also promised higher salaries.	244283715	1478553265221	1478553265300	t	84
477836	5146007	Both have also promised higher salaries.	Both have also promised higher salaries.	244283724	1478553265397	1478553265468	h	72
477836	5146007	Both have also promised higher salaries.	Both have also promised higher salaries.	244283731	1478553265477	1478553265564	 	32
477836	5146007	Both have also promised higher salaries.	Both have also promised higher salaries.	244283742	1478553265677	1478553265748	h	72
477836	5146007	Both have also promised higher salaries.	Both have also promised higher salaries.	244283751	1478553265717	1478553265820	a	65
477836	5146007	Both have also promised higher salaries.	Both have also promised higher salaries.	244283756	1478553265789	1478553265868	v	86
477836	5146007	Both have also promised higher salaries.	Both have also promised higher salaries.	244283761	1478553265917	1478553266012	e	69
477836	5146007	Both have also promised higher salaries.	Both have also promised higher salaries.	244283789	1478553265965	1478553266076	 	32
477836	5146007	Both have also promised higher salaries.	Both have also promised higher salaries.	244283795	1478553266045	1478553266116	a	65
477836	5146007	Both have also promised higher salaries.	Both have also promised higher salaries.	244283800	1478553266141	1478553266228	l	76
477836	5146007	Both have also promised higher salaries.	Both have also promised higher salaries.	244283805	1478553266269	1478553266355	s	83
477836	5146007	Both have also promised higher salaries.	Both have also promised higher salaries.	244283808	1478553266349	1478553266420	o	79
477836	5146007	Both have also promised higher salaries.	Both have also promised higher salaries.	244283814	1478553266477	1478553266580	 	32
477836	5146007	Both have also promised higher salaries.	Both have also promised higher salaries.	244283848	1478553266525	1478553266620	p	80
477836	5146007	Both have also promised higher salaries.	Both have also promised higher salaries.	244283854	1478553266629	1478553266716	r	82
477836	5146007	Both have also promised higher salaries.	Both have also promised higher salaries.	244283860	1478553266733	1478553266893	o	79
477836	5146007	Both have also promised higher salaries.	Both have also promised higher salaries.	244283869	1478553266885	1478553267060	m	77
477836	5146007	Both have also promised higher salaries.	Both have also promised higher salaries.	244283880	1478553267013	1478553267132	i	73
477836	5146007	Both have also promised higher salaries.	Both have also promised higher salaries.	244283887	1478553267141	1478553267244	s	83
477836	5146007	Both have also promised higher salaries.	Both have also promised higher salaries.	244283931	1478553267205	1478553267284	e	69
477836	5146007	Both have also promised higher salaries.	Both have also promised higher salaries.	244283937	1478553267358	1478553267500	d	68
477836	5146007	Both have also promised higher salaries.	Both have also promised higher salaries.	244283942	1478553267469	1478553267540	 	32
477836	5146007	Both have also promised higher salaries.	Both have also promised higher salaries.	244283945	1478553267765	1478553267828	t	84
477836	5146007	Both have also promised higher salaries.	Both have also promised higher salaries.	244283951	1478553268037	1478553268115	BKSP	8
477836	5146007	Both have also promised higher salaries.	Both have also promised higher salaries.	244283958	1478553268109	1478553268172	h	72
477836	5146007	Both have also promised higher salaries.	Both have also promised higher salaries.	244283964	1478553268229	1478553268300	i	73
477836	5146007	Both have also promised higher salaries.	Both have also promised higher salaries.	244283971	1478553268325	1478553268403	g	71
477836	5146007	Both have also promised higher salaries.	Both have also promised higher salaries.	244283974	1478553268461	1478553268524	h	72
477836	5146007	Both have also promised higher salaries.	Both have also promised higher salaries.	244283978	1478553268533	1478553268652	e	69
477836	5146007	Both have also promised higher salaries.	Both have also promised higher salaries.	244283981	1478553268621	1478553268716	r	82
477836	5146007	Both have also promised higher salaries.	Both have also promised higher salaries.	244283997	1478553268685	1478553268756	 	32
477836	5146007	Both have also promised higher salaries.	Both have also promised higher salaries.	244284000	1478553268789	1478553268908	s	83
477836	5146007	Both have also promised higher salaries.	Both have also promised higher salaries.	244284003	1478553268877	1478553268948	a	65
477836	5146007	Both have also promised higher salaries.	Both have also promised higher salaries.	244284007	1478553268973	1478553269052	l	76
477836	5146007	Both have also promised higher salaries.	Both have also promised higher salaries.	244284010	1478553269069	1478553269212	a	65
477836	5146007	Both have also promised higher salaries.	Both have also promised higher salaries.	244284034	1478553269149	1478553269268	r	82
477836	5146007	Both have also promised higher salaries.	Both have also promised higher salaries.	244284039	1478553269302	1478553269396	i	73
477836	5146007	Both have also promised higher salaries.	Both have also promised higher salaries.	244284044	1478553269373	1478553269524	e	69
477836	5146007	Both have also promised higher salaries.	Both have also promised higher salaries.	244284049	1478553269445	1478553269588	s	83
477836	5146007	Both have also promised higher salaries.	Both have also promised higher salaries.	244284056	1478553269565	1478553269660	.	190
477836	5146014	What is your issue sir?	What is your issue sir?	244284178	1478553271660	1478553271972	SHIFT	16
477836	5146014	What is your issue sir?	What is your issue sir?	244284181	1478553271893	1478553271972	W	87
477836	5146014	What is your issue sir?	What is your issue sir?	244284187	1478553272037	1478553272156	h	72
477836	5146014	What is your issue sir?	What is your issue sir?	244284191	1478553272101	1478553272228	a	65
477836	5146014	What is your issue sir?	What is your issue sir?	244284194	1478553272165	1478553272268	t	84
477836	5146014	What is your issue sir?	What is your issue sir?	244284214	1478553272229	1478553272331	 	32
477836	5146014	What is your issue sir?	What is your issue sir?	244284217	1478553272349	1478553272444	i	73
477836	5146014	What is your issue sir?	What is your issue sir?	244284222	1478553272405	1478553272500	s	83
477836	5146014	What is your issue sir?	What is your issue sir?	244284224	1478553272469	1478553272596	 	32
477836	5146014	What is your issue sir?	What is your issue sir?	244284227	1478553272621	1478553272724	y	89
477836	5146014	What is your issue sir?	What is your issue sir?	244284265	1478553272685	1478553272803	o	79
477836	5146014	What is your issue sir?	What is your issue sir?	244284268	1478553272757	1478553272860	u	85
477836	5146014	What is your issue sir?	What is your issue sir?	244284272	1478553272837	1478553272948	r	82
477836	5146014	What is your issue sir?	What is your issue sir?	244284277	1478553272917	1478553272996	 	32
477836	5146014	What is your issue sir?	What is your issue sir?	244284282	1478553273125	1478553273196	s	83
477836	5146014	What is your issue sir?	What is your issue sir?	244284286	1478553273344	1478553273428	BKSP	8
477836	5146014	What is your issue sir?	What is your issue sir?	244284291	1478553273509	1478553273596	i	73
477836	5146014	What is your issue sir?	What is your issue sir?	244284301	1478553273601	1478553273652	s	83
477836	5146014	What is your issue sir?	What is your issue sir?	244284308	1478553273717	1478553273796	s	83
477836	5146014	What is your issue sir?	What is your issue sir?	244284314	1478553273821	1478553273892	u	85
477836	5146014	What is your issue sir?	What is your issue sir?	244284318	1478553273925	1478553274020	e	69
477836	5146014	What is your issue sir?	What is your issue sir?	244284338	1478553273997	1478553274076	 	32
477836	5146014	What is your issue sir?	What is your issue sir?	244284340	1478553274092	1478553274197	s	83
477836	5146014	What is your issue sir?	What is your issue sir?	244284342	1478553274189	1478553274259	i	73
477836	5146014	What is your issue sir?	What is your issue sir?	244284344	1478553274253	1478553274332	r	82
477836	5146014	What is your issue sir?	What is your issue sir?	244284346	1478553274348	1478553274435	SHIFT	16
477836	5146014	What is your issue sir?	What is your issue sir?	244284348	1478553274429	1478553274540	?	191
