PARTICIPANT_ID	TEST_SECTION_ID	SENTENCE	USER_INPUT	KEYSTROKE_ID	PRESS_TIME	RELEASE_TIME	LETTER	KEYCODE
478317	5151773	I will add this to the folder and let you know when we get into it.	I will dd this to the folder and let you know when we get into it.	244559283	1478557977002	1478557977340	SHIFT	16
478317	5151773	I will add this to the folder and let you know when we get into it.	I will dd this to the folder and let you know when we get into it.	244559278	1478557977156	1478557977249	I	73
478317	5151773	I will add this to the folder and let you know when we get into it.	I will dd this to the folder and let you know when we get into it.	244559287	1478557977387	1478557977465	 	32
478317	5151773	I will add this to the folder and let you know when we get into it.	I will dd this to the folder and let you know when we get into it.	244559292	1478557977556	1478557977625	w	87
478317	5151773	I will add this to the folder and let you know when we get into it.	I will dd this to the folder and let you know when we get into it.	244559298	1478557977656	1478557977740	i	73
478317	5151773	I will add this to the folder and let you know when we get into it.	I will dd this to the folder and let you know when we get into it.	244559302	1478557977771	1478557977845	l	76
478317	5151773	I will add this to the folder and let you know when we get into it.	I will dd this to the folder and let you know when we get into it.	244559338	1478557977925	1478557978006	l	76
478317	5151773	I will add this to the folder and let you know when we get into it.	I will dd this to the folder and let you know when we get into it.	244559345	1478557977997	1478557978080	 	32
478317	5151773	I will add this to the folder and let you know when we get into it.	I will dd this to the folder and let you know when we get into it.	244559353	1478557978225	1478557978320	d	68
478317	5151773	I will add this to the folder and let you know when we get into it.	I will dd this to the folder and let you know when we get into it.	244559361	1478557978389	1478557978449	d	68
478317	5151773	I will add this to the folder and let you know when we get into it.	I will dd this to the folder and let you know when we get into it.	244559371	1478557978496	1478557978566	 	32
478317	5151773	I will add this to the folder and let you know when we get into it.	I will dd this to the folder and let you know when we get into it.	244559410	1478557978601	1478557978662	t	84
478317	5151773	I will add this to the folder and let you know when we get into it.	I will dd this to the folder and let you know when we get into it.	244559413	1478557978697	1478557978830	h	72
478317	5151773	I will add this to the folder and let you know when we get into it.	I will dd this to the folder and let you know when we get into it.	244559416	1478557978789	1478557978896	i	73
478317	5151773	I will add this to the folder and let you know when we get into it.	I will dd this to the folder and let you know when we get into it.	244559419	1478557978975	1478557979066	s	83
478317	5151773	I will add this to the folder and let you know when we get into it.	I will dd this to the folder and let you know when we get into it.	244559421	1478557979240	1478557979344	 	32
478317	5151773	I will add this to the folder and let you know when we get into it.	I will dd this to the folder and let you know when we get into it.	244559450	1478557979526	1478557979582	t	84
478317	5151773	I will add this to the folder and let you know when we get into it.	I will dd this to the folder and let you know when we get into it.	244559455	1478557979617	1478557979686	o	79
478317	5151773	I will add this to the folder and let you know when we get into it.	I will dd this to the folder and let you know when we get into it.	244559460	1478557979647	1478557979741	 	32
478317	5151773	I will add this to the folder and let you know when we get into it.	I will dd this to the folder and let you know when we get into it.	244559465	1478557979907	1478557979964	t	84
478317	5151773	I will add this to the folder and let you know when we get into it.	I will dd this to the folder and let you know when we get into it.	244559472	1478557980017	1478557980102	h	72
478317	5151773	I will add this to the folder and let you know when we get into it.	I will dd this to the folder and let you know when we get into it.	244559498	1478557980067	1478557980123	e	69
478317	5151773	I will add this to the folder and let you know when we get into it.	I will dd this to the folder and let you know when we get into it.	244559503	1478557980162	1478557980245	 	32
478317	5151773	I will add this to the folder and let you know when we get into it.	I will dd this to the folder and let you know when we get into it.	244559508	1478557980453	1478557980517	f	70
478317	5151773	I will add this to the folder and let you know when we get into it.	I will dd this to the folder and let you know when we get into it.	244559512	1478557980546	1478557980646	o	79
478317	5151773	I will add this to the folder and let you know when we get into it.	I will dd this to the folder and let you know when we get into it.	244559517	1478557980708	1478557980781	l	76
478317	5151773	I will add this to the folder and let you know when we get into it.	I will dd this to the folder and let you know when we get into it.	244559522	1478557980812	1478557980873	d	68
478317	5151773	I will add this to the folder and let you know when we get into it.	I will dd this to the folder and let you know when we get into it.	244559547	1478557980964	1478557981040	e	69
478317	5151773	I will add this to the folder and let you know when we get into it.	I will dd this to the folder and let you know when we get into it.	244559548	1478557981012	1478557981089	r	82
478317	5151773	I will add this to the folder and let you know when we get into it.	I will dd this to the folder and let you know when we get into it.	244559550	1478557981082	1478557981164	 	32
478317	5151773	I will add this to the folder and let you know when we get into it.	I will dd this to the folder and let you know when we get into it.	244559553	1478557981195	1478557981249	a	65
478317	5151773	I will add this to the folder and let you know when we get into it.	I will dd this to the folder and let you know when we get into it.	244559557	1478557981280	1478557981398	n	78
478317	5151773	I will add this to the folder and let you know when we get into it.	I will dd this to the folder and let you know when we get into it.	244559549	1478557981330	1478557981422	d	68
478317	5151773	I will add this to the folder and let you know when we get into it.	I will dd this to the folder and let you know when we get into it.	244559551	1478557981413	1478557981500	 	32
478317	5151773	I will add this to the folder and let you know when we get into it.	I will dd this to the folder and let you know when we get into it.	244559552	1478557981500	1478557981613	l	76
478317	5151773	I will add this to the folder and let you know when we get into it.	I will dd this to the folder and let you know when we get into it.	244559554	1478557981627	1478557981742	e	69
478317	5151773	I will add this to the folder and let you know when we get into it.	I will dd this to the folder and let you know when we get into it.	244559556	1478557981725	1478557981762	t	84
478317	5151773	I will add this to the folder and let you know when we get into it.	I will dd this to the folder and let you know when we get into it.	244559559	1478557981782	1478557981865	 	32
478317	5151773	I will add this to the folder and let you know when we get into it.	I will dd this to the folder and let you know when we get into it.	244559602	1478557982480	1478557982550	y	89
478317	5151773	I will add this to the folder and let you know when we get into it.	I will dd this to the folder and let you know when we get into it.	244559605	1478557982533	1478557982665	o	79
478317	5151773	I will add this to the folder and let you know when we get into it.	I will dd this to the folder and let you know when we get into it.	244559607	1478557982634	1478557982716	u	85
478317	5151773	I will add this to the folder and let you know when we get into it.	I will dd this to the folder and let you know when we get into it.	244559609	1478557982660	1478557982768	 	32
478317	5151773	I will add this to the folder and let you know when we get into it.	I will dd this to the folder and let you know when we get into it.	244559611	1478557982831	1478557982930	k	75
478317	5151773	I will add this to the folder and let you know when we get into it.	I will dd this to the folder and let you know when we get into it.	244559642	1478557982914	1478557983040	n	78
478317	5151773	I will add this to the folder and let you know when we get into it.	I will dd this to the folder and let you know when we get into it.	244559646	1478557982982	1478557983088	o	79
478317	5151773	I will add this to the folder and let you know when we get into it.	I will dd this to the folder and let you know when we get into it.	244559650	1478557983109	1478557983199	w	87
478317	5151773	I will add this to the folder and let you know when we get into it.	I will dd this to the folder and let you know when we get into it.	244559654	1478557983189	1478557983266	 	32
478317	5151773	I will add this to the folder and let you know when we get into it.	I will dd this to the folder and let you know when we get into it.	244559656	1478557983334	1478557983414	w	87
478317	5151773	I will add this to the folder and let you know when we get into it.	I will dd this to the folder and let you know when we get into it.	244559658	1478557983451	1478557983516	h	72
478317	5151773	I will add this to the folder and let you know when we get into it.	I will dd this to the folder and let you know when we get into it.	244559712	1478557983568	1478557983650	e	69
478317	5151773	I will add this to the folder and let you know when we get into it.	I will dd this to the folder and let you know when we get into it.	244559715	1478557983681	1478557983803	n	78
478317	5151773	I will add this to the folder and let you know when we get into it.	I will dd this to the folder and let you know when we get into it.	244559719	1478557983767	1478557983866	 	32
478317	5151773	I will add this to the folder and let you know when we get into it.	I will dd this to the folder and let you know when we get into it.	244559723	1478557984013	1478557984196	w	87
478317	5151773	I will add this to the folder and let you know when we get into it.	I will dd this to the folder and let you know when we get into it.	244559735	1478557984121	1478557984226	e	69
478317	5151773	I will add this to the folder and let you know when we get into it.	I will dd this to the folder and let you know when we get into it.	244559739	1478557984236	1478557984336	 	32
478317	5151773	I will add this to the folder and let you know when we get into it.	I will dd this to the folder and let you know when we get into it.	244559743	1478557984436	1478557984499	g	71
478317	5151773	I will add this to the folder and let you know when we get into it.	I will dd this to the folder and let you know when we get into it.	244559747	1478557984581	1478557984673	e	69
478317	5151773	I will add this to the folder and let you know when we get into it.	I will dd this to the folder and let you know when we get into it.	244559751	1478557984637	1478557984705	t	84
478317	5151773	I will add this to the folder and let you know when we get into it.	I will dd this to the folder and let you know when we get into it.	244559765	1478557984683	1478557984773	 	32
478317	5151773	I will add this to the folder and let you know when we get into it.	I will dd this to the folder and let you know when we get into it.	244559768	1478557984820	1478557984964	i	73
478317	5151773	I will add this to the folder and let you know when we get into it.	I will dd this to the folder and let you know when we get into it.	244559773	1478557984898	1478557985013	n	78
478317	5151773	I will add this to the folder and let you know when we get into it.	I will dd this to the folder and let you know when we get into it.	244559776	1478557984981	1478557985031	 	32
478317	5151773	I will add this to the folder and let you know when we get into it.	I will dd this to the folder and let you know when we get into it.	244559780	1478557985049	1478557985116	t	84
478317	5151773	I will add this to the folder and let you know when we get into it.	I will dd this to the folder and let you know when we get into it.	244559786	1478557985207	1478557985237	o	79
478317	5151773	I will add this to the folder and let you know when we get into it.	I will dd this to the folder and let you know when we get into it.	244559834	1478557985453	1478557985510	BKSP	8
478317	5151773	I will add this to the folder and let you know when we get into it.	I will dd this to the folder and let you know when we get into it.	244559839	1478557985568	1478557985629	BKSP	8
478317	5151773	I will add this to the folder and let you know when we get into it.	I will dd this to the folder and let you know when we get into it.	244559842	1478557985684	1478557985769	BKSP	8
478317	5151773	I will add this to the folder and let you know when we get into it.	I will dd this to the folder and let you know when we get into it.	244559846	1478557985800	1478557985866	t	84
478317	5151773	I will add this to the folder and let you know when we get into it.	I will dd this to the folder and let you know when we get into it.	244559851	1478557985898	1478557986005	o	79
478317	5151773	I will add this to the folder and let you know when we get into it.	I will dd this to the folder and let you know when we get into it.	244559854	1478557985966	1478557986069	 	32
478317	5151773	I will add this to the folder and let you know when we get into it.	I will dd this to the folder and let you know when we get into it.	244559857	1478557986110	1478557986181	i	73
478317	5151773	I will add this to the folder and let you know when we get into it.	I will dd this to the folder and let you know when we get into it.	244559863	1478557986254	1478557986316	t	84
478317	5151773	I will add this to the folder and let you know when we get into it.	I will dd this to the folder and let you know when we get into it.	244559876	1478557986370	1478557986439	.	190
478317	5151799	The event reopens debate on the issue.	The event reopens debate on the issue.	244560178	1478557990575	1478557990722	SHIFT	16
478317	5151799	The event reopens debate on the issue.	The event reopens debate on the issue.	244560179	1478557990676	1478557990748	T	84
478317	5151799	The event reopens debate on the issue.	The event reopens debate on the issue.	244560182	1478557990796	1478557990860	h	72
478317	5151799	The event reopens debate on the issue.	The event reopens debate on the issue.	244560188	1478557990867	1478557990945	e	69
478317	5151799	The event reopens debate on the issue.	The event reopens debate on the issue.	244560196	1478557990976	1478557991060	 	32
478317	5151799	The event reopens debate on the issue.	The event reopens debate on the issue.	244560204	1478557991107	1478557991181	e	69
478317	5151799	The event reopens debate on the issue.	The event reopens debate on the issue.	244560272	1478557991308	1478557991412	v	86
478317	5151799	The event reopens debate on the issue.	The event reopens debate on the issue.	244560277	1478557991478	1478557991551	e	69
478317	5151799	The event reopens debate on the issue.	The event reopens debate on the issue.	244560280	1478557991613	1478557991724	n	78
478317	5151799	The event reopens debate on the issue.	The event reopens debate on the issue.	244560283	1478557991778	1478557991846	t	84
478317	5151799	The event reopens debate on the issue.	The event reopens debate on the issue.	244560286	1478557991849	1478557991948	 	32
478317	5151799	The event reopens debate on the issue.	The event reopens debate on the issue.	244560330	1478557992110	1478557992242	r	82
478317	5151799	The event reopens debate on the issue.	The event reopens debate on the issue.	244560334	1478557992196	1478557992280	e	69
478317	5151799	The event reopens debate on the issue.	The event reopens debate on the issue.	244560337	1478557992348	1478557992579	o	79
478317	5151799	The event reopens debate on the issue.	The event reopens debate on the issue.	244560342	1478557992526	1478557992649	p	80
478317	5151799	The event reopens debate on the issue.	The event reopens debate on the issue.	244560348	1478557992680	1478557992764	e	69
478317	5151799	The event reopens debate on the issue.	The event reopens debate on the issue.	244560376	1478557992806	1478557992912	n	78
478317	5151799	The event reopens debate on the issue.	The event reopens debate on the issue.	244560377	1478557993027	1478557993110	s	83
478317	5151799	The event reopens debate on the issue.	The event reopens debate on the issue.	244560378	1478557993141	1478557993199	 	32
478317	5151799	The event reopens debate on the issue.	The event reopens debate on the issue.	244560379	1478557993280	1478557993349	d	68
478317	5151799	The event reopens debate on the issue.	The event reopens debate on the issue.	244560381	1478557993427	1478557993484	e	69
478317	5151799	The event reopens debate on the issue.	The event reopens debate on the issue.	244560483	1478557993593	1478557993650	b	66
478317	5151799	The event reopens debate on the issue.	The event reopens debate on the issue.	244560486	1478557993708	1478557993847	a	65
478317	5151799	The event reopens debate on the issue.	The event reopens debate on the issue.	244560490	1478557993784	1478557993897	t	84
478317	5151799	The event reopens debate on the issue.	The event reopens debate on the issue.	244560493	1478557993997	1478557994065	e	69
478317	5151799	The event reopens debate on the issue.	The event reopens debate on the issue.	244560494	1478557994112	1478557994182	 	32
478317	5151799	The event reopens debate on the issue.	The event reopens debate on the issue.	244560482	1478557994283	1478557994422	o	79
478317	5151799	The event reopens debate on the issue.	The event reopens debate on the issue.	244560485	1478557994365	1478557994476	n	78
478317	5151799	The event reopens debate on the issue.	The event reopens debate on the issue.	244560487	1478557994450	1478557994550	 	32
478317	5151799	The event reopens debate on the issue.	The event reopens debate on the issue.	244560489	1478557994665	1478557994732	t	84
478317	5151799	The event reopens debate on the issue.	The event reopens debate on the issue.	244560491	1478557994793	1478557994846	h	72
478317	5151799	The event reopens debate on the issue.	The event reopens debate on the issue.	244560527	1478557994831	1478557994922	e	69
478317	5151799	The event reopens debate on the issue.	The event reopens debate on the issue.	244560533	1478557994915	1478557995118	 	32
478317	5151799	The event reopens debate on the issue.	The event reopens debate on the issue.	244560540	1478557995114	1478557995166	i	73
478317	5151799	The event reopens debate on the issue.	The event reopens debate on the issue.	244560542	1478557995197	1478557995281	s	83
478317	5151799	The event reopens debate on the issue.	The event reopens debate on the issue.	244560545	1478557995353	1478557995414	s	83
478317	5151799	The event reopens debate on the issue.	The event reopens debate on the issue.	244560549	1478557995446	1478557995514	u	85
478317	5151799	The event reopens debate on the issue.	The event reopens debate on the issue.	244560574	1478557995544	1478557995599	e	69
478317	5151799	The event reopens debate on the issue.	The event reopens debate on the issue.	244560578	1478557995734	1478557995800	.	190
478317	5151811	Thanks for sending this.	Thanks for sending this.	244560785	1478557999234	1478557999441	SHIFT	16
478317	5151811	Thanks for sending this.	Thanks for sending this.	244560787	1478557999384	1478557999456	T	84
478317	5151811	Thanks for sending this.	Thanks for sending this.	244560791	1478557999519	1478557999597	h	72
478317	5151811	Thanks for sending this.	Thanks for sending this.	244560797	1478557999613	1478557999723	a	65
478317	5151811	Thanks for sending this.	Thanks for sending this.	244560805	1478557999698	1478557999823	n	78
478317	5151811	Thanks for sending this.	Thanks for sending this.	244560828	1478557999773	1478557999879	k	75
478317	5151811	Thanks for sending this.	Thanks for sending this.	244560829	1478557999857	1478557999953	s	83
478317	5151811	Thanks for sending this.	Thanks for sending this.	244560831	1478557999973	1478558000048	 	32
478317	5151811	Thanks for sending this.	Thanks for sending this.	244560834	1478558000241	1478558000300	f	70
478317	5151811	Thanks for sending this.	Thanks for sending this.	244560842	1478558000354	1478558000438	o	79
478317	5151811	Thanks for sending this.	Thanks for sending this.	244560899	1478558000416	1478558000482	r	82
478317	5151811	Thanks for sending this.	Thanks for sending this.	244560907	1478558000497	1478558000606	 	32
478317	5151811	Thanks for sending this.	Thanks for sending this.	244560913	1478558000722	1478558000860	s	83
478317	5151811	Thanks for sending this.	Thanks for sending this.	244560919	1478558000827	1478558000897	e	69
478317	5151811	Thanks for sending this.	Thanks for sending this.	244560924	1478558000960	1478558001055	n	78
478317	5151811	Thanks for sending this.	Thanks for sending this.	244560926	1478558001075	1478558001152	d	68
478317	5151811	Thanks for sending this.	Thanks for sending this.	244560937	1478558001178	1478558001299	i	73
478317	5151811	Thanks for sending this.	Thanks for sending this.	244560939	1478558001252	1478558001377	n	78
478317	5151811	Thanks for sending this.	Thanks for sending this.	244560942	1478558001359	1478558001432	g	71
478317	5151811	Thanks for sending this.	Thanks for sending this.	244560945	1478558001451	1478558001517	 	32
478317	5151811	Thanks for sending this.	Thanks for sending this.	244560947	1478558001575	1478558001644	t	84
478317	5151811	Thanks for sending this.	Thanks for sending this.	244560980	1478558001660	1478558001764	h	72
478317	5151811	Thanks for sending this.	Thanks for sending this.	244560982	1478558001722	1478558001808	i	73
478317	5151811	Thanks for sending this.	Thanks for sending this.	244560986	1478558001820	1478558001897	s	83
478317	5151811	Thanks for sending this.	Thanks for sending this.	244560989	1478558001960	1478558002060	.	190
478317	5151820	Please call tomorrow if possible.	Please call tomorrow if possible.	244561282	1478558006199	1478558006469	SHIFT	16
478317	5151820	Please call tomorrow if possible.	Please call tomorrow if possible.	244561284	1478558006398	1478558006469	P	80
478317	5151820	Please call tomorrow if possible.	Please call tomorrow if possible.	244561287	1478558006548	1478558006631	l	76
478317	5151820	Please call tomorrow if possible.	Please call tomorrow if possible.	244561289	1478558006647	1478558006771	e	69
478317	5151820	Please call tomorrow if possible.	Please call tomorrow if possible.	244561294	1478558006731	1478558006846	a	65
478317	5151820	Please call tomorrow if possible.	Please call tomorrow if possible.	244561298	1478558006901	1478558007032	s	83
478317	5151820	Please call tomorrow if possible.	Please call tomorrow if possible.	244561341	1478558007001	1478558007086	e	69
478317	5151820	Please call tomorrow if possible.	Please call tomorrow if possible.	244561343	1478558007117	1478558007206	 	32
478317	5151820	Please call tomorrow if possible.	Please call tomorrow if possible.	244561346	1478558007445	1478558007529	c	67
478317	5151820	Please call tomorrow if possible.	Please call tomorrow if possible.	244561349	1478558007593	1478558007687	a	65
478317	5151820	Please call tomorrow if possible.	Please call tomorrow if possible.	244561352	1478558007702	1478558007771	l	76
478317	5151820	Please call tomorrow if possible.	Please call tomorrow if possible.	244561355	1478558007833	1478558007931	l	76
478317	5151820	Please call tomorrow if possible.	Please call tomorrow if possible.	244561380	1478558007864	1478558007986	 	32
478317	5151820	Please call tomorrow if possible.	Please call tomorrow if possible.	244561386	1478558008018	1478558008082	t	84
478317	5151820	Please call tomorrow if possible.	Please call tomorrow if possible.	244561390	1478558008097	1478558008171	o	79
478317	5151820	Please call tomorrow if possible.	Please call tomorrow if possible.	244561398	1478558008231	1478558008411	m	77
478317	5151820	Please call tomorrow if possible.	Please call tomorrow if possible.	244561406	1478558008345	1478558008464	o	79
478317	5151820	Please call tomorrow if possible.	Please call tomorrow if possible.	244561412	1478558008487	1478558008565	r	82
478317	5151820	Please call tomorrow if possible.	Please call tomorrow if possible.	244561469	1478558008624	1478558008698	o	79
478317	5151820	Please call tomorrow if possible.	Please call tomorrow if possible.	244561473	1478558009103	1478558009167	BKSP	8
478317	5151820	Please call tomorrow if possible.	Please call tomorrow if possible.	244561475	1478558009235	1478558009281	r	82
478317	5151820	Please call tomorrow if possible.	Please call tomorrow if possible.	244561479	1478558009367	1478558009446	o	79
478317	5151820	Please call tomorrow if possible.	Please call tomorrow if possible.	244561481	1478558009488	1478558009572	w	87
478317	5151820	Please call tomorrow if possible.	Please call tomorrow if possible.	244561487	1478558009619	1478558009688	 	32
478317	5151820	Please call tomorrow if possible.	Please call tomorrow if possible.	244561529	1478558009819	1478558009881	i	73
478317	5151820	Please call tomorrow if possible.	Please call tomorrow if possible.	244561536	1478558009897	1478558009953	s	83
478317	5151820	Please call tomorrow if possible.	Please call tomorrow if possible.	244561542	1478558010015	1478558010083	 	32
478317	5151820	Please call tomorrow if possible.	Please call tomorrow if possible.	244561547	1478558010252	1478558010298	BKSP	8
478317	5151820	Please call tomorrow if possible.	Please call tomorrow if possible.	244561552	1478558010373	1478558010431	BKSP	8
478317	5151820	Please call tomorrow if possible.	Please call tomorrow if possible.	244561560	1478558010490	1478558010552	f	70
478317	5151820	Please call tomorrow if possible.	Please call tomorrow if possible.	244561594	1478558010548	1478558010662	 	32
478317	5151820	Please call tomorrow if possible.	Please call tomorrow if possible.	244561597	1478558010737	1478558010849	p	80
478317	5151820	Please call tomorrow if possible.	Please call tomorrow if possible.	244561603	1478558010835	1478558010930	o	79
478317	5151820	Please call tomorrow if possible.	Please call tomorrow if possible.	244561608	1478558011005	1478558011073	s	83
478317	5151820	Please call tomorrow if possible.	Please call tomorrow if possible.	244561613	1478558011140	1478558011198	s	83
478317	5151820	Please call tomorrow if possible.	Please call tomorrow if possible.	244561615	1478558011229	1478558011298	i	73
478317	5151820	Please call tomorrow if possible.	Please call tomorrow if possible.	244561637	1478558011309	1478558011371	b	66
478317	5151820	Please call tomorrow if possible.	Please call tomorrow if possible.	244561640	1478558011389	1478558011470	l	76
478317	5151820	Please call tomorrow if possible.	Please call tomorrow if possible.	244561643	1478558011474	1478558011515	e	69
478317	5151820	Please call tomorrow if possible.	Please call tomorrow if possible.	244561647	1478558011574	1478558011647	.	190
478317	5151831	Our numbers are correct in the system now.	Our numbers are correct in the system now.	244561918	1478558015649	1478558015865	SHIFT	16
478317	5151831	Our numbers are correct in the system now.	Our numbers are correct in the system now.	244561911	1478558015802	1478558015864	O	79
478317	5151831	Our numbers are correct in the system now.	Our numbers are correct in the system now.	244561923	1478558015950	1478558016019	u	85
478317	5151831	Our numbers are correct in the system now.	Our numbers are correct in the system now.	244561926	1478558016051	1478558016099	 	82
478317	5151831	Our numbers are correct in the system now.	Our numbers are correct in the system now.	244561934	1478558016298	1478558016364	n	78
478317	5151831	Our numbers are correct in the system now.	Our numbers are correct in the system now.	244561963	1478558016436	1478558016497	u	85
478317	5151831	Our numbers are correct in the system now.	Our numbers are correct in the system now.	244561965	1478558016583	1478558016677	m	77
478317	5151831	Our numbers are correct in the system now.	Our numbers are correct in the system now.	244561967	1478558016664	1478558016715	b	66
478317	5151831	Our numbers are correct in the system now.	Our numbers are correct in the system now.	244561969	1478558016794	1478558016953	e	69
478317	5151831	Our numbers are correct in the system now.	Our numbers are correct in the system now.	244561994	1478558016854	1478558016967	r	82
478317	5151831	Our numbers are correct in the system now.	Our numbers are correct in the system now.	244561998	1478558016971	1478558017063	s	83
478317	5151831	Our numbers are correct in the system now.	Our numbers are correct in the system now.	244562003	1478558017116	1478558017181	 	32
478317	5151831	Our numbers are correct in the system now.	Our numbers are correct in the system now.	244562009	1478558017322	1478558017430	a	65
478317	5151831	Our numbers are correct in the system now.	Our numbers are correct in the system now.	244562011	1478558017396	1478558017502	r	82
478317	5151831	Our numbers are correct in the system now.	Our numbers are correct in the system now.	244562035	1478558017463	1478558017558	e	69
478317	5151831	Our numbers are correct in the system now.	Our numbers are correct in the system now.	244562036	1478558017538	1478558017622	 	32
478317	5151831	Our numbers are correct in the system now.	Our numbers are correct in the system now.	244562037	1478558017738	1478558017841	c	67
478317	5151831	Our numbers are correct in the system now.	Our numbers are correct in the system now.	244562039	1478558017823	1478558017897	o	79
478317	5151831	Our numbers are correct in the system now.	Our numbers are correct in the system now.	244562043	1478558017944	1478558018017	r	82
478317	5151831	Our numbers are correct in the system now.	Our numbers are correct in the system now.	244562046	1478558018054	1478558018210	r	82
478317	5151831	Our numbers are correct in the system now.	Our numbers are correct in the system now.	244562080	1478558018178	1478558018261	e	69
478317	5151831	Our numbers are correct in the system now.	Our numbers are correct in the system now.	244562084	1478558018385	1478558018446	c	67
478317	5151831	Our numbers are correct in the system now.	Our numbers are correct in the system now.	244562088	1478558018523	1478558018596	t	84
478317	5151831	Our numbers are correct in the system now.	Our numbers are correct in the system now.	244562092	1478558018601	1478558018730	 	32
478317	5151831	Our numbers are correct in the system now.	Our numbers are correct in the system now.	244562096	1478558018715	1478558018835	i	73
478317	5151831	Our numbers are correct in the system now.	Our numbers are correct in the system now.	244562115	1478558018781	1478558018856	n	78
478317	5151831	Our numbers are correct in the system now.	Our numbers are correct in the system now.	244562120	1478558018817	1478558018897	 	32
478317	5151831	Our numbers are correct in the system now.	Our numbers are correct in the system now.	244562124	1478558018923	1478558018975	t	84
478317	5151831	Our numbers are correct in the system now.	Our numbers are correct in the system now.	244562127	1478558018998	1478558019071	h	72
478317	5151831	Our numbers are correct in the system now.	Our numbers are correct in the system now.	244562131	1478558019058	1478558019123	e	69
478317	5151831	Our numbers are correct in the system now.	Our numbers are correct in the system now.	244562135	1478558019098	1478558019194	 	32
478317	5151831	Our numbers are correct in the system now.	Our numbers are correct in the system now.	244562137	1478558019253	1478558019336	s	83
478317	5151831	Our numbers are correct in the system now.	Our numbers are correct in the system now.	244562189	1478558019367	1478558019439	y	89
478317	5151831	Our numbers are correct in the system now.	Our numbers are correct in the system now.	244562194	1478558019470	1478558019564	s	83
478317	5151831	Our numbers are correct in the system now.	Our numbers are correct in the system now.	244562197	1478558019641	1478558019681	s	83
478317	5151831	Our numbers are correct in the system now.	Our numbers are correct in the system now.	244562200	1478558019697	1478558019796	t	84
478317	5151831	Our numbers are correct in the system now.	Our numbers are correct in the system now.	244562206	1478558020063	1478558020132	BKSP	8
478317	5151831	Our numbers are correct in the system now.	Our numbers are correct in the system now.	244562212	1478558020179	1478558020249	BKSP	8
478317	5151831	Our numbers are correct in the system now.	Our numbers are correct in the system now.	244562217	1478558020249	1478558020332	t	84
478317	5151831	Our numbers are correct in the system now.	Our numbers are correct in the system now.	244562238	1478558020355	1478558020428	e	69
478317	5151831	Our numbers are correct in the system now.	Our numbers are correct in the system now.	244562241	1478558020475	1478558020581	m	77
478317	5151831	Our numbers are correct in the system now.	Our numbers are correct in the system now.	244562243	1478558020547	1478558020643	 	32
478317	5151831	Our numbers are correct in the system now.	Our numbers are correct in the system now.	244562247	1478558020806	1478558020952	n	78
478317	5151831	Our numbers are correct in the system now.	Our numbers are correct in the system now.	244562265	1478558020905	1478558020983	o	79
478317	5151831	Our numbers are correct in the system now.	Our numbers are correct in the system now.	244562273	1478558020965	1478558021047	w	87
478317	5151831	Our numbers are correct in the system now.	Our numbers are correct in the system now.	244562280	1478558021110	1478558021180	.	190
478317	5151847	We just pulled schedules from the web.	We just pulled schedules from the web.	244562592	1478558025201	1478558025540	SHIFT	16
478317	5151847	We just pulled schedules from the web.	We just pulled schedules from the web.	244562589	1478558025370	1478558025494	W	87
478317	5151847	We just pulled schedules from the web.	We just pulled schedules from the web.	244562595	1478558025624	1478558025698	e	69
478317	5151847	We just pulled schedules from the web.	We just pulled schedules from the web.	244562598	1478558025756	1478558025856	 	32
478317	5151847	We just pulled schedules from the web.	We just pulled schedules from the web.	244562600	1478558025987	1478558026048	j	74
478317	5151847	We just pulled schedules from the web.	We just pulled schedules from the web.	244562603	1478558026125	1478558026198	u	85
478317	5151847	We just pulled schedules from the web.	We just pulled schedules from the web.	244562615	1478558026224	1478558026311	s	83
478317	5151847	We just pulled schedules from the web.	We just pulled schedules from the web.	244562617	1478558026281	1478558026371	t	84
478317	5151847	We just pulled schedules from the web.	We just pulled schedules from the web.	244562619	1478558026347	1478558026426	 	32
478317	5151847	We just pulled schedules from the web.	We just pulled schedules from the web.	244562621	1478558026557	1478558026693	p	80
478317	5151847	We just pulled schedules from the web.	We just pulled schedules from the web.	244562668	1478558026663	1478558026763	u	85
478317	5151847	We just pulled schedules from the web.	We just pulled schedules from the web.	244562673	1478558026842	1478558026898	l	76
478317	5151847	We just pulled schedules from the web.	We just pulled schedules from the web.	244562679	1478558026988	1478558027048	l	76
478317	5151847	We just pulled schedules from the web.	We just pulled schedules from the web.	244562684	1478558027128	1478558027197	e	69
478317	5151847	We just pulled schedules from the web.	We just pulled schedules from the web.	244562687	1478558027274	1478558027340	d	68
478317	5151847	We just pulled schedules from the web.	We just pulled schedules from the web.	244562692	1478558027349	1478558027428	 	32
478317	5151847	We just pulled schedules from the web.	We just pulled schedules from the web.	244562712	1478558027518	1478558027593	s	83
478317	5151847	We just pulled schedules from the web.	We just pulled schedules from the web.	244562718	1478558027683	1478558027748	c	67
478317	5151847	We just pulled schedules from the web.	We just pulled schedules from the web.	244562725	1478558027829	1478558027889	h	72
478317	5151847	We just pulled schedules from the web.	We just pulled schedules from the web.	244562732	1478558027929	1478558027993	e	69
478317	5151847	We just pulled schedules from the web.	We just pulled schedules from the web.	244562737	1478558028082	1478558028131	d	68
478317	5151847	We just pulled schedules from the web.	We just pulled schedules from the web.	244562765	1478558028174	1478558028310	u	85
478317	5151847	We just pulled schedules from the web.	We just pulled schedules from the web.	244562767	1478558028263	1478558028347	l	76
478317	5151847	We just pulled schedules from the web.	We just pulled schedules from the web.	244562770	1478558028394	1478558028448	e	69
478317	5151847	We just pulled schedules from the web.	We just pulled schedules from the web.	244562773	1478558028576	1478558028656	s	83
478317	5151847	We just pulled schedules from the web.	We just pulled schedules from the web.	244562777	1478558028704	1478558028780	 	32
478317	5151847	We just pulled schedules from the web.	We just pulled schedules from the web.	244562792	1478558028861	1478558028919	f	70
478317	5151847	We just pulled schedules from the web.	We just pulled schedules from the web.	244562797	1478558029008	1478558029065	r	82
478317	5151847	We just pulled schedules from the web.	We just pulled schedules from the web.	244562802	1478558029116	1478558029191	o	79
478317	5151847	We just pulled schedules from the web.	We just pulled schedules from the web.	244562806	1478558029147	1478558029261	m	77
478317	5151847	We just pulled schedules from the web.	We just pulled schedules from the web.	244562830	1478558029199	1478558029288	 	32
478317	5151847	We just pulled schedules from the web.	We just pulled schedules from the web.	244562836	1478558029345	1478558029400	t	84
478317	5151847	We just pulled schedules from the web.	We just pulled schedules from the web.	244562841	1478558029445	1478558029499	h	72
478317	5151847	We just pulled schedules from the web.	We just pulled schedules from the web.	244562848	1478558029485	1478558029531	e	69
478317	5151847	We just pulled schedules from the web.	We just pulled schedules from the web.	244562853	1478558029565	1478558029631	 	32
478317	5151847	We just pulled schedules from the web.	We just pulled schedules from the web.	244562858	1478558029681	1478558029791	w	87
478317	5151847	We just pulled schedules from the web.	We just pulled schedules from the web.	244562866	1478558029830	1478558029898	e	69
478317	5151847	We just pulled schedules from the web.	We just pulled schedules from the web.	244562870	1478558030024	1478558030081	b	66
478317	5151847	We just pulled schedules from the web.	We just pulled schedules from the web.	244562875	1478558030177	1478558030248	.	190
478317	5151858	The same prize was offered for the arrest of Abdul Razak Memon.	The same prize was offered for the arrest of Abdul Razak Memon.	244563247	1478558037143	1478558037288	SHIFT	16
478317	5151858	The same prize was offered for the arrest of Abdul Razak Memon.	The same prize was offered for the arrest of Abdul Razak Memon.	244563249	1478558037242	1478558037303	T	84
478317	5151858	The same prize was offered for the arrest of Abdul Razak Memon.	The same prize was offered for the arrest of Abdul Razak Memon.	244563252	1478558037343	1478558037392	h	72
478317	5151858	The same prize was offered for the arrest of Abdul Razak Memon.	The same prize was offered for the arrest of Abdul Razak Memon.	244563255	1478558037413	1478558037463	e	69
478317	5151858	The same prize was offered for the arrest of Abdul Razak Memon.	The same prize was offered for the arrest of Abdul Razak Memon.	244563261	1478558037470	1478558037559	 	32
478317	5151858	The same prize was offered for the arrest of Abdul Razak Memon.	The same prize was offered for the arrest of Abdul Razak Memon.	244563268	1478558037841	1478558037958	s	83
478317	5151858	The same prize was offered for the arrest of Abdul Razak Memon.	The same prize was offered for the arrest of Abdul Razak Memon.	244563298	1478558037944	1478558038044	a	65
478317	5151858	The same prize was offered for the arrest of Abdul Razak Memon.	The same prize was offered for the arrest of Abdul Razak Memon.	244563302	1478558038075	1478558038142	m	77
478317	5151858	The same prize was offered for the arrest of Abdul Razak Memon.	The same prize was offered for the arrest of Abdul Razak Memon.	244563304	1478558038160	1478558038239	e	69
478317	5151858	The same prize was offered for the arrest of Abdul Razak Memon.	The same prize was offered for the arrest of Abdul Razak Memon.	244563305	1478558038244	1478558038337	 	32
478317	5151858	The same prize was offered for the arrest of Abdul Razak Memon.	The same prize was offered for the arrest of Abdul Razak Memon.	244563308	1478558038441	1478558038513	p	80
478317	5151858	The same prize was offered for the arrest of Abdul Razak Memon.	The same prize was offered for the arrest of Abdul Razak Memon.	244563311	1478558038544	1478558038607	r	82
478317	5151858	The same prize was offered for the arrest of Abdul Razak Memon.	The same prize was offered for the arrest of Abdul Razak Memon.	244563358	1478558038660	1478558038737	i	73
478317	5151858	The same prize was offered for the arrest of Abdul Razak Memon.	The same prize was offered for the arrest of Abdul Razak Memon.	244563362	1478558038808	1478558038852	x	88
478317	5151858	The same prize was offered for the arrest of Abdul Razak Memon.	The same prize was offered for the arrest of Abdul Razak Memon.	244563368	1478558039128	1478558039197	BKSP	8
478317	5151858	The same prize was offered for the arrest of Abdul Razak Memon.	The same prize was offered for the arrest of Abdul Razak Memon.	244563378	1478558039213	1478558039348	z	90
478317	5151858	The same prize was offered for the arrest of Abdul Razak Memon.	The same prize was offered for the arrest of Abdul Razak Memon.	244563385	1478558039281	1478558039395	e	69
478317	5151858	The same prize was offered for the arrest of Abdul Razak Memon.	The same prize was offered for the arrest of Abdul Razak Memon.	244563394	1478558039426	1478558039496	 	32
478317	5151858	The same prize was offered for the arrest of Abdul Razak Memon.	The same prize was offered for the arrest of Abdul Razak Memon.	244563423	1478558039647	1478558039748	w	87
478317	5151858	The same prize was offered for the arrest of Abdul Razak Memon.	The same prize was offered for the arrest of Abdul Razak Memon.	244563427	1478558039763	1478558039931	a	65
478317	5151858	The same prize was offered for the arrest of Abdul Razak Memon.	The same prize was offered for the arrest of Abdul Razak Memon.	244563431	1478558039880	1478558039951	s	83
478317	5151858	The same prize was offered for the arrest of Abdul Razak Memon.	The same prize was offered for the arrest of Abdul Razak Memon.	244563434	1478558040004	1478558040104	 	32
478317	5151858	The same prize was offered for the arrest of Abdul Razak Memon.	The same prize was offered for the arrest of Abdul Razak Memon.	244563438	1478558040148	1478558040248	o	79
478317	5151858	The same prize was offered for the arrest of Abdul Razak Memon.	The same prize was offered for the arrest of Abdul Razak Memon.	244563467	1478558040259	1478558040328	f	70
478317	5151858	The same prize was offered for the arrest of Abdul Razak Memon.	The same prize was offered for the arrest of Abdul Razak Memon.	244563470	1478558040410	1478558040463	f	70
478317	5151858	The same prize was offered for the arrest of Abdul Razak Memon.	The same prize was offered for the arrest of Abdul Razak Memon.	244563474	1478558040511	1478558040625	e	69
478317	5151858	The same prize was offered for the arrest of Abdul Razak Memon.	The same prize was offered for the arrest of Abdul Razak Memon.	244563480	1478558040579	1478558040672	r	82
478317	5151858	The same prize was offered for the arrest of Abdul Razak Memon.	The same prize was offered for the arrest of Abdul Razak Memon.	244563484	1478558040700	1478558040779	e	69
478317	5151858	The same prize was offered for the arrest of Abdul Razak Memon.	The same prize was offered for the arrest of Abdul Razak Memon.	244563501	1478558040940	1478558041031	d	68
478317	5151858	The same prize was offered for the arrest of Abdul Razak Memon.	The same prize was offered for the arrest of Abdul Razak Memon.	244563504	1478558041104	1478558041166	 	32
478317	5151858	The same prize was offered for the arrest of Abdul Razak Memon.	The same prize was offered for the arrest of Abdul Razak Memon.	244563509	1478558041239	1478558041301	f	70
478317	5151858	The same prize was offered for the arrest of Abdul Razak Memon.	The same prize was offered for the arrest of Abdul Razak Memon.	244563515	1478558041350	1478558041424	o	79
478317	5151858	The same prize was offered for the arrest of Abdul Razak Memon.	The same prize was offered for the arrest of Abdul Razak Memon.	244563548	1478558041419	1478558041459	r	82
478317	5151858	The same prize was offered for the arrest of Abdul Razak Memon.	The same prize was offered for the arrest of Abdul Razak Memon.	244563551	1478558041530	1478558041616	 	32
478317	5151858	The same prize was offered for the arrest of Abdul Razak Memon.	The same prize was offered for the arrest of Abdul Razak Memon.	244563552	1478558041666	1478558041723	t	84
478317	5151858	The same prize was offered for the arrest of Abdul Razak Memon.	The same prize was offered for the arrest of Abdul Razak Memon.	244563553	1478558041766	1478558041834	h	72
478317	5151858	The same prize was offered for the arrest of Abdul Razak Memon.	The same prize was offered for the arrest of Abdul Razak Memon.	244563554	1478558041816	1478558041884	e	69
478317	5151858	The same prize was offered for the arrest of Abdul Razak Memon.	The same prize was offered for the arrest of Abdul Razak Memon.	244563559	1478558041884	1478558041969	 	32
478317	5151858	The same prize was offered for the arrest of Abdul Razak Memon.	The same prize was offered for the arrest of Abdul Razak Memon.	244563606	1478558042152	1478558042315	a	65
478317	5151858	The same prize was offered for the arrest of Abdul Razak Memon.	The same prize was offered for the arrest of Abdul Razak Memon.	244563611	1478558042414	1478558042485	r	82
478317	5151858	The same prize was offered for the arrest of Abdul Razak Memon.	The same prize was offered for the arrest of Abdul Razak Memon.	244563617	1478558042568	1478558042683	r	82
478317	5151858	The same prize was offered for the arrest of Abdul Razak Memon.	The same prize was offered for the arrest of Abdul Razak Memon.	244563626	1478558042686	1478558042847	e	69
478317	5151858	The same prize was offered for the arrest of Abdul Razak Memon.	The same prize was offered for the arrest of Abdul Razak Memon.	244563632	1478558042853	1478558042977	s	83
478317	5151858	The same prize was offered for the arrest of Abdul Razak Memon.	The same prize was offered for the arrest of Abdul Razak Memon.	244563666	1478558042955	1478558043050	t	84
478317	5151858	The same prize was offered for the arrest of Abdul Razak Memon.	The same prize was offered for the arrest of Abdul Razak Memon.	244563669	1478558043069	1478558043135	 	32
478317	5151858	The same prize was offered for the arrest of Abdul Razak Memon.	The same prize was offered for the arrest of Abdul Razak Memon.	244563673	1478558043170	1478558043235	o	79
478317	5151858	The same prize was offered for the arrest of Abdul Razak Memon.	The same prize was offered for the arrest of Abdul Razak Memon.	244563675	1478558043270	1478558043330	f	70
478317	5151858	The same prize was offered for the arrest of Abdul Razak Memon.	The same prize was offered for the arrest of Abdul Razak Memon.	244563680	1478558043354	1478558043433	 	32
478317	5151858	The same prize was offered for the arrest of Abdul Razak Memon.	The same prize was offered for the arrest of Abdul Razak Memon.	244563684	1478558043570	1478558043734	SHIFT	16
478317	5151858	The same prize was offered for the arrest of Abdul Razak Memon.	The same prize was offered for the arrest of Abdul Razak Memon.	244563716	1478558043670	1478558043760	A	65
478317	5151858	The same prize was offered for the arrest of Abdul Razak Memon.	The same prize was offered for the arrest of Abdul Razak Memon.	244563721	1478558043855	1478558043951	b	66
478317	5151858	The same prize was offered for the arrest of Abdul Razak Memon.	The same prize was offered for the arrest of Abdul Razak Memon.	244563726	1478558044503	1478558044572	d	68
478317	5151858	The same prize was offered for the arrest of Abdul Razak Memon.	The same prize was offered for the arrest of Abdul Razak Memon.	244563729	1478558044634	1478558044733	u	85
478317	5151858	The same prize was offered for the arrest of Abdul Razak Memon.	The same prize was offered for the arrest of Abdul Razak Memon.	244563733	1478558044803	1478558044908	l	76
478317	5151858	The same prize was offered for the arrest of Abdul Razak Memon.	The same prize was offered for the arrest of Abdul Razak Memon.	244563789	1478558044899	1478558044988	 	32
478317	5151858	The same prize was offered for the arrest of Abdul Razak Memon.	The same prize was offered for the arrest of Abdul Razak Memon.	244563792	1478558045035	1478558045206	SHIFT	16
478317	5151858	The same prize was offered for the arrest of Abdul Razak Memon.	The same prize was offered for the arrest of Abdul Razak Memon.	244563800	1478558045135	1478558045238	R	82
478317	5151858	The same prize was offered for the arrest of Abdul Razak Memon.	The same prize was offered for the arrest of Abdul Razak Memon.	244563809	1478558045320	1478558045415	a	65
478317	5151858	The same prize was offered for the arrest of Abdul Razak Memon.	The same prize was offered for the arrest of Abdul Razak Memon.	244563816	1478558045574	1478558045696	z	90
478317	5151858	The same prize was offered for the arrest of Abdul Razak Memon.	The same prize was offered for the arrest of Abdul Razak Memon.	244563821	1478558045807	1478558045868	a	65
478317	5151858	The same prize was offered for the arrest of Abdul Razak Memon.	The same prize was offered for the arrest of Abdul Razak Memon.	244563825	1478558045900	1478558045984	k	75
478317	5151858	The same prize was offered for the arrest of Abdul Razak Memon.	The same prize was offered for the arrest of Abdul Razak Memon.	244563846	1478558046010	1478558046092	 	32
478317	5151858	The same prize was offered for the arrest of Abdul Razak Memon.	The same prize was offered for the arrest of Abdul Razak Memon.	244563848	1478558046152	1478558046272	SHIFT	16
478317	5151858	The same prize was offered for the arrest of Abdul Razak Memon.	The same prize was offered for the arrest of Abdul Razak Memon.	244563854	1478558046237	1478558046318	M	77
478317	5151858	The same prize was offered for the arrest of Abdul Razak Memon.	The same prize was offered for the arrest of Abdul Razak Memon.	244563858	1478558046390	1478558046440	e	69
478317	5151858	The same prize was offered for the arrest of Abdul Razak Memon.	The same prize was offered for the arrest of Abdul Razak Memon.	244563865	1478558046506	1478558046651	m	77
478317	5151858	The same prize was offered for the arrest of Abdul Razak Memon.	The same prize was offered for the arrest of Abdul Razak Memon.	244563989	1478558046648	1478558046763	o	79
478317	5151858	The same prize was offered for the arrest of Abdul Razak Memon.	The same prize was offered for the arrest of Abdul Razak Memon.	244563995	1478558046750	1478558046801	n	78
478317	5151858	The same prize was offered for the arrest of Abdul Razak Memon.	The same prize was offered for the arrest of Abdul Razak Memon.	244563998	1478558046960	1478558047032	.	190
478317	5151858	The same prize was offered for the arrest of Abdul Razak Memon.	The same prize was offered for the arrest of Abdul Razak Memon.	244564003	1478558047159	1478558047217	ARW_LEFT	37
478317	5151880	I need a little more stability in my work environment.	I need a little more stability in my work environment.	244564345	1478558053537	1478558053851	SHIFT	16
478317	5151880	I need a little more stability in my work environment.	I need a little more stability in my work environment.	244564342	1478558053755	1478558053829	I	73
478317	5151880	I need a little more stability in my work environment.	I need a little more stability in my work environment.	244564352	1478558053866	1478558053950	 	32
478317	5151880	I need a little more stability in my work environment.	I need a little more stability in my work environment.	244564356	1478558054025	1478558054109	n	78
478317	5151880	I need a little more stability in my work environment.	I need a little more stability in my work environment.	244564359	1478558054156	1478558054217	e	69
478317	5151880	I need a little more stability in my work environment.	I need a little more stability in my work environment.	244564361	1478558054288	1478558054351	e	69
478317	5151880	I need a little more stability in my work environment.	I need a little more stability in my work environment.	244564372	1478558054425	1478558054494	d	68
478317	5151880	I need a little more stability in my work environment.	I need a little more stability in my work environment.	244564374	1478558054525	1478558054610	 	32
478317	5151880	I need a little more stability in my work environment.	I need a little more stability in my work environment.	244564380	1478558054641	1478558054750	a	65
478317	5151880	I need a little more stability in my work environment.	I need a little more stability in my work environment.	244564386	1478558054734	1478558054833	 	32
478317	5151880	I need a little more stability in my work environment.	I need a little more stability in my work environment.	244564389	1478558054849	1478558055003	l	76
478317	5151880	I need a little more stability in my work environment.	I need a little more stability in my work environment.	244564407	1478558054986	1478558055072	i	73
478317	5151880	I need a little more stability in my work environment.	I need a little more stability in my work environment.	244564409	1478558055095	1478558055150	t	84
478317	5151880	I need a little more stability in my work environment.	I need a little more stability in my work environment.	244564412	1478558055211	1478558055271	t	84
478317	5151880	I need a little more stability in my work environment.	I need a little more stability in my work environment.	244564415	1478558055311	1478558055389	l	76
478317	5151880	I need a little more stability in my work environment.	I need a little more stability in my work environment.	244564418	1478558055395	1478558055458	e	69
478317	5151880	I need a little more stability in my work environment.	I need a little more stability in my work environment.	244564422	1478558055464	1478558055550	 	32
478317	5151880	I need a little more stability in my work environment.	I need a little more stability in my work environment.	244564425	1478558055593	1478558055727	m	77
478317	5151880	I need a little more stability in my work environment.	I need a little more stability in my work environment.	244564430	1478558055667	1478558055755	o	79
478317	5151880	I need a little more stability in my work environment.	I need a little more stability in my work environment.	244564433	1478558055735	1478558055853	r	82
478317	5151880	I need a little more stability in my work environment.	I need a little more stability in my work environment.	244564436	1478558055802	1478558055902	e	69
478317	5151880	I need a little more stability in my work environment.	I need a little more stability in my work environment.	244564491	1478558055868	1478558055961	 	32
478317	5151880	I need a little more stability in my work environment.	I need a little more stability in my work environment.	244564493	1478558056020	1478558056146	a	65
478317	5151880	I need a little more stability in my work environment.	I need a little more stability in my work environment.	244564497	1478558056691	1478558056821	BKSP	8
478317	5151880	I need a little more stability in my work environment.	I need a little more stability in my work environment.	244564501	1478558056837	1478558056936	s	83
478317	5151880	I need a little more stability in my work environment.	I need a little more stability in my work environment.	244564504	1478558056916	1478558056990	t	84
478317	5151880	I need a little more stability in my work environment.	I need a little more stability in my work environment.	244564507	1478558057044	1478558057113	a	65
478317	5151880	I need a little more stability in my work environment.	I need a little more stability in my work environment.	244564510	1478558057193	1478558057252	b	66
478317	5151880	I need a little more stability in my work environment.	I need a little more stability in my work environment.	244564523	1478558057298	1478558057384	i	73
478317	5151880	I need a little more stability in my work environment.	I need a little more stability in my work environment.	244564528	1478558057367	1478558057533	l	76
478317	5151880	I need a little more stability in my work environment.	I need a little more stability in my work environment.	244564534	1478558057467	1478558057598	i	73
478317	5151880	I need a little more stability in my work environment.	I need a little more stability in my work environment.	244564537	1478558057629	1478558057686	t	84
478317	5151880	I need a little more stability in my work environment.	I need a little more stability in my work environment.	244564540	1478558057742	1478558057850	y	89
478317	5151880	I need a little more stability in my work environment.	I need a little more stability in my work environment.	244564570	1478558057807	1478558057895	 	32
478317	5151880	I need a little more stability in my work environment.	I need a little more stability in my work environment.	244564572	1478558057980	1478558058097	i	73
478317	5151880	I need a little more stability in my work environment.	I need a little more stability in my work environment.	244564574	1478558058067	1478558058168	n	78
478317	5151880	I need a little more stability in my work environment.	I need a little more stability in my work environment.	244564577	1478558058112	1478558058230	 	32
478317	5151880	I need a little more stability in my work environment.	I need a little more stability in my work environment.	244564581	1478558058277	1478558058351	m	77
478317	5151880	I need a little more stability in my work environment.	I need a little more stability in my work environment.	244564586	1478558058462	1478558058547	y	89
478317	5151880	I need a little more stability in my work environment.	I need a little more stability in my work environment.	244564606	1478558058534	1478558058615	 	32
478317	5151880	I need a little more stability in my work environment.	I need a little more stability in my work environment.	244564609	1478558058746	1478558058818	w	87
478317	5151880	I need a little more stability in my work environment.	I need a little more stability in my work environment.	244564615	1478558058833	1478558058899	o	79
478317	5151880	I need a little more stability in my work environment.	I need a little more stability in my work environment.	244564620	1478558058915	1478558058989	r	82
478317	5151880	I need a little more stability in my work environment.	I need a little more stability in my work environment.	244564624	1478558059015	1478558059095	k	75
478317	5151880	I need a little more stability in my work environment.	I need a little more stability in my work environment.	244564630	1478558059115	1478558059199	 	32
478317	5151880	I need a little more stability in my work environment.	I need a little more stability in my work environment.	244564675	1478558059347	1478558059415	e	69
478317	5151880	I need a little more stability in my work environment.	I need a little more stability in my work environment.	244564678	1478558059462	1478558059536	n	78
478317	5151880	I need a little more stability in my work environment.	I need a little more stability in my work environment.	244564683	1478558059631	1478558059701	v	86
478317	5151880	I need a little more stability in my work environment.	I need a little more stability in my work environment.	244564688	1478558059779	1478558059883	i	73
478317	5151880	I need a little more stability in my work environment.	I need a little more stability in my work environment.	244564693	1478558060385	1478558060447	r	82
478317	5151880	I need a little more stability in my work environment.	I need a little more stability in my work environment.	244564714	1478558060501	1478558060640	o	79
478317	5151880	I need a little more stability in my work environment.	I need a little more stability in my work environment.	244564721	1478558060584	1478558060701	n	78
478317	5151880	I need a little more stability in my work environment.	I need a little more stability in my work environment.	244564726	1478558060764	1478558060834	m	77
478317	5151880	I need a little more stability in my work environment.	I need a little more stability in my work environment.	244564731	1478558060866	1478558060934	e	69
478317	5151880	I need a little more stability in my work environment.	I need a little more stability in my work environment.	244564736	1478558060950	1478558061001	n	78
478317	5151880	I need a little more stability in my work environment.	I need a little more stability in my work environment.	244564786	1478558061040	1478558061097	t	84
478317	5151880	I need a little more stability in my work environment.	I need a little more stability in my work environment.	244564787	1478558061602	1478558061682	.	190
478317	5151897	Where do you want to meet to walk over there?	Where do you want to meet to walk over there?	244565025	1478558065127	1478558065323	SHIFT	16
478317	5151897	Where do you want to meet to walk over there?	Where do you want to meet to walk over there?	244565020	1478558065208	1478558065323	W	87
478317	5151897	Where do you want to meet to walk over there?	Where do you want to meet to walk over there?	244565030	1478558065386	1478558065449	h	72
478317	5151897	Where do you want to meet to walk over there?	Where do you want to meet to walk over there?	244565035	1478558065449	1478558065578	e	69
478317	5151897	Where do you want to meet to walk over there?	Where do you want to meet to walk over there?	244565042	1478558065523	1478558065605	r	82
478317	5151897	Where do you want to meet to walk over there?	Where do you want to meet to walk over there?	244565047	1478558065655	1478558065724	e	69
478317	5151897	Where do you want to meet to walk over there?	Where do you want to meet to walk over there?	244565067	1478558065824	1478558065908	 	32
478317	5151897	Where do you want to meet to walk over there?	Where do you want to meet to walk over there?	244565070	1478558066009	1478558066077	t	84
478317	5151897	Where do you want to meet to walk over there?	Where do you want to meet to walk over there?	244565074	1478558066272	1478558066324	BKSP	8
478317	5151897	Where do you want to meet to walk over there?	Where do you want to meet to walk over there?	244565078	1478558066381	1478558066438	d	68
478317	5151897	Where do you want to meet to walk over there?	Where do you want to meet to walk over there?	244565081	1478558066466	1478558066575	o	79
478317	5151897	Where do you want to meet to walk over there?	Where do you want to meet to walk over there?	244565115	1478558066550	1478558066633	 	32
478317	5151897	Where do you want to meet to walk over there?	Where do you want to meet to walk over there?	244565118	1478558066756	1478558066836	y	89
478317	5151897	Where do you want to meet to walk over there?	Where do you want to meet to walk over there?	244565122	1478558066821	1478558066901	o	79
478317	5151897	Where do you want to meet to walk over there?	Where do you want to meet to walk over there?	244565126	1478558066910	1478558066984	u	85
478317	5151897	Where do you want to meet to walk over there?	Where do you want to meet to walk over there?	244565130	1478558066934	1478558067026	 	32
478317	5151897	Where do you want to meet to walk over there?	Where do you want to meet to walk over there?	244565134	1478558067194	1478558067326	w	87
478317	5151897	Where do you want to meet to walk over there?	Where do you want to meet to walk over there?	244565164	1478558067298	1478558067426	a	65
478317	5151897	Where do you want to meet to walk over there?	Where do you want to meet to walk over there?	244565169	1478558067459	1478558067526	n	78
478317	5151897	Where do you want to meet to walk over there?	Where do you want to meet to walk over there?	244565177	1478558067557	1478558067617	t	84
478317	5151897	Where do you want to meet to walk over there?	Where do you want to meet to walk over there?	244565185	1478558067633	1478558067711	 	32
478317	5151897	Where do you want to meet to walk over there?	Where do you want to meet to walk over there?	244565198	1478558067766	1478558067854	t	84
478317	5151897	Where do you want to meet to walk over there?	Where do you want to meet to walk over there?	244565202	1478558067912	1478558068012	o	79
478317	5151897	Where do you want to meet to walk over there?	Where do you want to meet to walk over there?	244565222	1478558067983	1478558068082	 	32
478317	5151897	Where do you want to meet to walk over there?	Where do you want to meet to walk over there?	244565224	1478558068175	1478558068249	m	77
478317	5151897	Where do you want to meet to walk over there?	Where do you want to meet to walk over there?	244565230	1478558068296	1478558068351	e	69
478317	5151897	Where do you want to meet to walk over there?	Where do you want to meet to walk over there?	244565238	1478558068431	1478558068569	e	69
478317	5151897	Where do you want to meet to walk over there?	Where do you want to meet to walk over there?	244565245	1478558068513	1478558068585	t	84
478317	5151897	Where do you want to meet to walk over there?	Where do you want to meet to walk over there?	244565252	1478558068629	1478558068702	 	32
478317	5151897	Where do you want to meet to walk over there?	Where do you want to meet to walk over there?	244565441	1478558068762	1478558068837	t	84
478317	5151897	Where do you want to meet to walk over there?	Where do you want to meet to walk over there?	244565445	1478558068837	1478558068929	o	79
478317	5151897	Where do you want to meet to walk over there?	Where do you want to meet to walk over there?	244565446	1478558068885	1478558068980	 	32
478317	5151897	Where do you want to meet to walk over there?	Where do you want to meet to walk over there?	244565449	1478558069063	1478558069184	w	87
478317	5151897	Where do you want to meet to walk over there?	Where do you want to meet to walk over there?	244565393	1478558069133	1478558069260	a	65
478317	5151897	Where do you want to meet to walk over there?	Where do you want to meet to walk over there?	244565396	1478558069317	1478558069449	l	76
478317	5151897	Where do you want to meet to walk over there?	Where do you want to meet to walk over there?	244565399	1478558069415	1478558069531	k	75
478317	5151897	Where do you want to meet to walk over there?	Where do you want to meet to walk over there?	244565404	1478558069662	1478558069749	 	32
478317	5151897	Where do you want to meet to walk over there?	Where do you want to meet to walk over there?	244565409	1478558069832	1478558069932	o	79
478317	5151897	Where do you want to meet to walk over there?	Where do you want to meet to walk over there?	244565414	1478558069956	1478558070028	v	86
478317	5151897	Where do you want to meet to walk over there?	Where do you want to meet to walk over there?	244565389	1478558070114	1478558070186	e	69
478317	5151897	Where do you want to meet to walk over there?	Where do you want to meet to walk over there?	244565390	1478558070156	1478558070218	r	82
478317	5151897	Where do you want to meet to walk over there?	Where do you want to meet to walk over there?	244565392	1478558070218	1478558070300	 	32
478317	5151897	Where do you want to meet to walk over there?	Where do you want to meet to walk over there?	244565395	1478558070332	1478558070393	t	84
478317	5151897	Where do you want to meet to walk over there?	Where do you want to meet to walk over there?	244565397	1478558070417	1478558070485	h	72
478317	5151897	Where do you want to meet to walk over there?	Where do you want to meet to walk over there?	244565391	1478558070481	1478558070574	e	69
478317	5151897	Where do you want to meet to walk over there?	Where do you want to meet to walk over there?	244565394	1478558070549	1478558070634	r	82
478317	5151897	Where do you want to meet to walk over there?	Where do you want to meet to walk over there?	244565398	1478558070665	1478558070733	e	69
478317	5151897	Where do you want to meet to walk over there?	Where do you want to meet to walk over there?	244565408	1478558070863	1478558071062	SHIFT	16
478317	5151897	Where do you want to meet to walk over there?	Where do you want to meet to walk over there?	244565401	1478558070948	1478558071029	?	191
478317	5151913	his will be hard.	his will be hard.	244565712	1478558075187	1478558075296	h	72
478317	5151913	his will be hard.	his will be hard.	244565716	1478558075259	1478558075352	i	73
478317	5151913	his will be hard.	his will be hard.	244565723	1478558075323	1478558075384	s	83
478317	5151913	his will be hard.	his will be hard.	244565729	1478558075399	1478558075467	 	32
478317	5151913	his will be hard.	his will be hard.	244565735	1478558075540	1478558075621	w	87
478317	5151913	his will be hard.	his will be hard.	244565756	1478558075634	1478558075742	i	73
478317	5151913	his will be hard.	his will be hard.	244565758	1478558075727	1478558075799	l	76
478317	5151913	his will be hard.	his will be hard.	244565762	1478558075887	1478558075986	l	76
478317	5151913	his will be hard.	his will be hard.	244565764	1478558075950	1478558076040	 	32
478317	5151913	his will be hard.	his will be hard.	244565768	1478558076156	1478558076225	b	66
478317	5151913	his will be hard.	his will be hard.	244565794	1478558076295	1478558076370	e	69
478317	5151913	his will be hard.	his will be hard.	244565796	1478558076351	1478558076441	 	32
478317	5151913	his will be hard.	his will be hard.	244565803	1478558076487	1478558076566	h	72
478317	5151913	his will be hard.	his will be hard.	244565807	1478558076566	1478558076694	a	65
478317	5151913	his will be hard.	his will be hard.	244565854	1478558076651	1478558076722	r	82
478317	5151913	his will be hard.	his will be hard.	244565862	1478558076828	1478558076868	d	68
478317	5151913	his will be hard.	his will be hard.	244565870	1478558076942	1478558077021	.	190
478317	5151923	We are proceeding with a great reception so far.	We are proceeding with a great reception so far.	244566223	1478558081250	1478558081334	W	87
478317	5151923	We are proceeding with a great reception so far.	We are proceeding with a great reception so far.	244566229	1478558081435	1478558081499	e	69
478317	5151923	We are proceeding with a great reception so far.	We are proceeding with a great reception so far.	244566234	1478558081517	1478558081562	 	32
478317	5151923	We are proceeding with a great reception so far.	We are proceeding with a great reception so far.	244566237	1478558081603	1478558081727	a	65
478317	5151923	We are proceeding with a great reception so far.	We are proceeding with a great reception so far.	244566242	1478558081684	1478558081813	r	82
478317	5151923	We are proceeding with a great reception so far.	We are proceeding with a great reception so far.	244566244	1478558081766	1478558081851	e	69
478317	5151923	We are proceeding with a great reception so far.	We are proceeding with a great reception so far.	244566248	1478558081882	1478558081966	 	32
478317	5151923	We are proceeding with a great reception so far.	We are proceeding with a great reception so far.	244566251	1478558082016	1478558082136	p	80
478317	5151923	We are proceeding with a great reception so far.	We are proceeding with a great reception so far.	244566254	1478558082152	1478558082212	r	82
478317	5151923	We are proceeding with a great reception so far.	We are proceeding with a great reception so far.	244566257	1478558082252	1478558082383	o	79
478317	5151923	We are proceeding with a great reception so far.	We are proceeding with a great reception so far.	244566313	1478558082353	1478558082416	c	67
478317	5151923	We are proceeding with a great reception so far.	We are proceeding with a great reception so far.	244566318	1478558082515	1478558082570	e	69
478317	5151923	We are proceeding with a great reception so far.	We are proceeding with a great reception so far.	244566323	1478558082637	1478558082702	e	69
478317	5151923	We are proceeding with a great reception so far.	We are proceeding with a great reception so far.	244566328	1478558082784	1478558082832	d	68
478317	5151923	We are proceeding with a great reception so far.	We are proceeding with a great reception so far.	244566332	1478558083001	1478558083047	d	68
478317	5151923	We are proceeding with a great reception so far.	We are proceeding with a great reception so far.	244566337	1478558083534	1478558083584	BKSP	8
478317	5151923	We are proceeding with a great reception so far.	We are proceeding with a great reception so far.	244566342	1478558083702	1478558083833	i	73
478317	5151923	We are proceeding with a great reception so far.	We are proceeding with a great reception so far.	244566356	1478558083782	1478558083870	n	78
478317	5151923	We are proceeding with a great reception so far.	We are proceeding with a great reception so far.	244566362	1478558083850	1478558083932	g	71
478317	5151923	We are proceeding with a great reception so far.	We are proceeding with a great reception so far.	244566364	1478558083939	1478558084032	 	32
478317	5151923	We are proceeding with a great reception so far.	We are proceeding with a great reception so far.	244566366	1478558084055	1478558084139	w	87
478317	5151923	We are proceeding with a great reception so far.	We are proceeding with a great reception so far.	244566369	1478558084170	1478558084239	i	73
478317	5151923	We are proceeding with a great reception so far.	We are proceeding with a great reception so far.	244566372	1478558084239	1478558084300	t	84
478317	5151923	We are proceeding with a great reception so far.	We are proceeding with a great reception so far.	244566388	1478558084318	1478558084395	h	72
478317	5151923	We are proceeding with a great reception so far.	We are proceeding with a great reception so far.	244566390	1478558084361	1478558084439	 	32
478317	5151923	We are proceeding with a great reception so far.	We are proceeding with a great reception so far.	244566392	1478558084516	1478558084616	a	65
478317	5151923	We are proceeding with a great reception so far.	We are proceeding with a great reception so far.	244566396	1478558084616	1478558084715	 	32
478317	5151923	We are proceeding with a great reception so far.	We are proceeding with a great reception so far.	244566398	1478558084855	1478558084934	g	71
478317	5151923	We are proceeding with a great reception so far.	We are proceeding with a great reception so far.	244566419	1478558085029	1478558085140	r	82
478317	5151923	We are proceeding with a great reception so far.	We are proceeding with a great reception so far.	244566426	1478558085083	1478558085193	e	69
478317	5151923	We are proceeding with a great reception so far.	We are proceeding with a great reception so far.	244566433	1478558085175	1478558085291	a	65
478317	5151923	We are proceeding with a great reception so far.	We are proceeding with a great reception so far.	244566441	1478558085271	1478558085340	t	84
478317	5151923	We are proceeding with a great reception so far.	We are proceeding with a great reception so far.	244566448	1478558085371	1478558085439	 	32
478317	5151923	We are proceeding with a great reception so far.	We are proceeding with a great reception so far.	244566476	1478558085628	1478558085748	r	82
478317	5151923	We are proceeding with a great reception so far.	We are proceeding with a great reception so far.	244566480	1478558085699	1478558085800	e	69
478317	5151923	We are proceeding with a great reception so far.	We are proceeding with a great reception so far.	244566485	1478558085906	1478558085960	c	67
478317	5151923	We are proceeding with a great reception so far.	We are proceeding with a great reception so far.	244566492	1478558086042	1478558086090	e	69
478317	5151923	We are proceeding with a great reception so far.	We are proceeding with a great reception so far.	244566500	1478558086139	1478558086200	p	80
478317	5151923	We are proceeding with a great reception so far.	We are proceeding with a great reception so far.	244566520	1478558086227	1478558086283	t	84
478317	5151923	We are proceeding with a great reception so far.	We are proceeding with a great reception so far.	244566525	1478558086299	1478558086442	i	73
478317	5151923	We are proceeding with a great reception so far.	We are proceeding with a great reception so far.	244566529	1478558086367	1478558086504	o	79
478317	5151923	We are proceeding with a great reception so far.	We are proceeding with a great reception so far.	244566534	1478558086458	1478558086591	n	78
478317	5151923	We are proceeding with a great reception so far.	We are proceeding with a great reception so far.	244566580	1478558086573	1478558086700	 	32
478317	5151923	We are proceeding with a great reception so far.	We are proceeding with a great reception so far.	244566584	1478558086943	1478558087043	s	83
478317	5151923	We are proceeding with a great reception so far.	We are proceeding with a great reception so far.	244566587	1478558087059	1478558087165	o	79
478317	5151923	We are proceeding with a great reception so far.	We are proceeding with a great reception so far.	244566592	1478558087106	1478558087207	 	32
478317	5151923	We are proceeding with a great reception so far.	We are proceeding with a great reception so far.	244566597	1478558087259	1478558087343	f	70
478317	5151923	We are proceeding with a great reception so far.	We are proceeding with a great reception so far.	244566603	1478558087359	1478558087538	a	65
478317	5151923	We are proceeding with a great reception so far.	We are proceeding with a great reception so far.	244566601	1478558087490	1478558087568	r	82
478317	5151923	We are proceeding with a great reception so far.	We are proceeding with a great reception so far.	244566605	1478558087643	1478558087717	.	190
478317	5151939	A growing number of US households are joining the middle class.	A growing number of US households are joining the middle class.	244566962	1478558091865	1478558092081	SHIFT	16
478317	5151939	A growing number of US households are joining the middle class.	A growing number of US households are joining the middle class.	244566965	1478558091983	1478558092097	A	65
478317	5151939	A growing number of US households are joining the middle class.	A growing number of US households are joining the middle class.	244566970	1478558092166	1478558092232	 	32
478317	5151939	A growing number of US households are joining the middle class.	A growing number of US households are joining the middle class.	244566978	1478558092329	1478558092383	g	71
478317	5151939	A growing number of US households are joining the middle class.	A growing number of US households are joining the middle class.	244566986	1478558092482	1478558092544	r	82
478317	5151939	A growing number of US households are joining the middle class.	A growing number of US households are joining the middle class.	244566992	1478558092613	1478558092731	o	79
478317	5151939	A growing number of US households are joining the middle class.	A growing number of US households are joining the middle class.	244566957	1478558092731	1478558092799	w	87
478317	5151939	A growing number of US households are joining the middle class.	A growing number of US households are joining the middle class.	244566958	1478558092898	1478558093038	i	73
478317	5151939	A growing number of US households are joining the middle class.	A growing number of US households are joining the middle class.	244566960	1478558092982	1478558093106	n	78
478317	5151939	A growing number of US households are joining the middle class.	A growing number of US households are joining the middle class.	244566964	1478558093082	1478558093163	g	71
478317	5151939	A growing number of US households are joining the middle class.	A growing number of US households are joining the middle class.	244566993	1478558093135	1478558093214	 	32
478317	5151939	A growing number of US households are joining the middle class.	A growing number of US households are joining the middle class.	244566998	1478558093314	1478558093383	n	78
478317	5151939	A growing number of US households are joining the middle class.	A growing number of US households are joining the middle class.	244567003	1478558093483	1478558093534	u	85
478317	5151939	A growing number of US households are joining the middle class.	A growing number of US households are joining the middle class.	244567006	1478558093618	1478558093684	m	77
478317	5151939	A growing number of US households are joining the middle class.	A growing number of US households are joining the middle class.	244567009	1478558093700	1478558093752	b	66
478317	5151939	A growing number of US households are joining the middle class.	A growing number of US households are joining the middle class.	244567011	1478558093830	1478558093923	e	69
478317	5151939	A growing number of US households are joining the middle class.	A growing number of US households are joining the middle class.	244567039	1478558093883	1478558093959	r	82
478317	5151939	A growing number of US households are joining the middle class.	A growing number of US households are joining the middle class.	244567043	1478558093935	1478558094035	 	32
478317	5151939	A growing number of US households are joining the middle class.	A growing number of US households are joining the middle class.	244567046	1478558094052	1478558094103	o	79
478317	5151939	A growing number of US households are joining the middle class.	A growing number of US households are joining the middle class.	244567049	1478558094134	1478558094200	f	70
478317	5151939	A growing number of US households are joining the middle class.	A growing number of US households are joining the middle class.	244567051	1478558094200	1478558094282	 	32
478317	5151939	A growing number of US households are joining the middle class.	A growing number of US households are joining the middle class.	244567058	1478558094347	1478558094654	SHIFT	16
478317	5151939	A growing number of US households are joining the middle class.	A growing number of US households are joining the middle class.	244567055	1478558094431	1478558094498	U	85
478317	5151939	A growing number of US households are joining the middle class.	A growing number of US households are joining the middle class.	244567054	1478558094534	1478558094651	S	83
478317	5151939	A growing number of US households are joining the middle class.	A growing number of US households are joining the middle class.	244567061	1478558094723	1478558094797	 	32
478317	5151939	A growing number of US households are joining the middle class.	A growing number of US households are joining the middle class.	244567064	1478558094870	1478558094933	h	72
478317	5151939	A growing number of US households are joining the middle class.	A growing number of US households are joining the middle class.	244567068	1478558094949	1478558095066	o	79
478317	5151939	A growing number of US households are joining the middle class.	A growing number of US households are joining the middle class.	244567091	1478558095049	1478558095115	u	85
478317	5151939	A growing number of US households are joining the middle class.	A growing number of US households are joining the middle class.	244567093	1478558095132	1478558095245	s	83
478317	5151939	A growing number of US households are joining the middle class.	A growing number of US households are joining the middle class.	244567096	1478558095198	1478558095305	e	69
478317	5151939	A growing number of US households are joining the middle class.	A growing number of US households are joining the middle class.	244567100	1478558095286	1478558095434	h	72
478317	5151939	A growing number of US households are joining the middle class.	A growing number of US households are joining the middle class.	244567103	1478558095382	1478558095486	o	79
478317	5151939	A growing number of US households are joining the middle class.	A growing number of US households are joining the middle class.	244567106	1478558095570	1478558095653	l	76
478317	5151939	A growing number of US households are joining the middle class.	A growing number of US households are joining the middle class.	244567135	1478558095687	1478558095733	d	68
478317	5151939	A growing number of US households are joining the middle class.	A growing number of US households are joining the middle class.	244567140	1478558095801	1478558095840	 	32
478317	5151939	A growing number of US households are joining the middle class.	A growing number of US households are joining the middle class.	244567146	1478558095867	1478558095955	s	83
478317	5151939	A growing number of US households are joining the middle class.	A growing number of US households are joining the middle class.	244567151	1478558096138	1478558096178	BKSP	8
478317	5151939	A growing number of US households are joining the middle class.	A growing number of US households are joining the middle class.	244567155	1478558096226	1478558096298	BKSP	8
478317	5151939	A growing number of US households are joining the middle class.	A growing number of US households are joining the middle class.	244567158	1478558096330	1478558096397	s	83
478317	5151939	A growing number of US households are joining the middle class.	A growing number of US households are joining the middle class.	244567159	1478558096415	1478558096498	 	32
478317	5151939	A growing number of US households are joining the middle class.	A growing number of US households are joining the middle class.	244567174	1478558096536	1478558096617	a	65
478317	5151939	A growing number of US households are joining the middle class.	A growing number of US households are joining the middle class.	244567177	1478558096583	1478558096707	r	82
478317	5151939	A growing number of US households are joining the middle class.	A growing number of US households are joining the middle class.	244567183	1478558096653	1478558096752	e	69
478317	5151939	A growing number of US households are joining the middle class.	A growing number of US households are joining the middle class.	244567190	1478558096723	1478558096815	 	32
478317	5151939	A growing number of US households are joining the middle class.	A growing number of US households are joining the middle class.	244567193	1478558096889	1478558096989	j	74
478317	5151939	A growing number of US households are joining the middle class.	A growing number of US households are joining the middle class.	244567220	1478558097001	1478558097150	o	79
478317	5151939	A growing number of US households are joining the middle class.	A growing number of US households are joining the middle class.	244567222	1478558097090	1478558097253	i	73
478317	5151939	A growing number of US households are joining the middle class.	A growing number of US households are joining the middle class.	244567224	1478558097225	1478558097302	n	78
478317	5151939	A growing number of US households are joining the middle class.	A growing number of US households are joining the middle class.	244567227	1478558097389	1478558097530	i	73
478317	5151939	A growing number of US households are joining the middle class.	A growing number of US households are joining the middle class.	244567286	1478558097466	1478558097623	n	78
478317	5151939	A growing number of US households are joining the middle class.	A growing number of US households are joining the middle class.	244567293	1478558097659	1478558097749	g	71
478317	5151939	A growing number of US households are joining the middle class.	A growing number of US households are joining the middle class.	244567297	1478558098046	1478558098132	 	32
478317	5151939	A growing number of US households are joining the middle class.	A growing number of US households are joining the middle class.	244567299	1478558098207	1478558098262	t	84
478317	5151939	A growing number of US households are joining the middle class.	A growing number of US households are joining the middle class.	244567302	1478558098282	1478558098354	h	72
478317	5151939	A growing number of US households are joining the middle class.	A growing number of US households are joining the middle class.	244567307	1478558098391	1478558098498	e	69
478317	5151939	A growing number of US households are joining the middle class.	A growing number of US households are joining the middle class.	244567348	1478558098518	1478558098609	 	32
478317	5151939	A growing number of US households are joining the middle class.	A growing number of US households are joining the middle class.	244567351	1478558098994	1478558099118	m	77
478317	5151939	A growing number of US households are joining the middle class.	A growing number of US households are joining the middle class.	244567354	1478558099107	1478558099213	i	73
478317	5151939	A growing number of US households are joining the middle class.	A growing number of US households are joining the middle class.	244567356	1478558099263	1478558099332	d	68
478317	5151939	A growing number of US households are joining the middle class.	A growing number of US households are joining the middle class.	244567362	1478558099394	1478558099443	d	68
478317	5151939	A growing number of US households are joining the middle class.	A growing number of US households are joining the middle class.	244567405	1478558099451	1478558099500	l	76
478317	5151939	A growing number of US households are joining the middle class.	A growing number of US households are joining the middle class.	244567408	1478558099562	1478558099616	e	69
478317	5151939	A growing number of US households are joining the middle class.	A growing number of US households are joining the middle class.	244567412	1478558099678	1478558099762	 	32
478317	5151939	A growing number of US households are joining the middle class.	A growing number of US households are joining the middle class.	244567415	1478558099894	1478558100019	c	67
478317	5151939	A growing number of US households are joining the middle class.	A growing number of US households are joining the middle class.	244567421	1478558100079	1478558100164	l	76
478317	5151939	A growing number of US households are joining the middle class.	A growing number of US households are joining the middle class.	244567531	1478558100311	1478558100413	s	83
478317	5151939	A growing number of US households are joining the middle class.	A growing number of US households are joining the middle class.	244567538	1478558100526	1478558100624	s	83
478317	5151939	A growing number of US households are joining the middle class.	A growing number of US households are joining the middle class.	244567546	1478558100711	1478558100749	.	190
478317	5151939	A growing number of US households are joining the middle class.	A growing number of US households are joining the middle class.	244567551	1478558101303	1478558101354	BKSP	8
478317	5151939	A growing number of US households are joining the middle class.	A growing number of US households are joining the middle class.	244567557	1478558101413	1478558101487	BKSP	8
478317	5151939	A growing number of US households are joining the middle class.	A growing number of US households are joining the middle class.	244567562	1478558101550	1478558101636	BKSP	8
478317	5151939	A growing number of US households are joining the middle class.	A growing number of US households are joining the middle class.	244567568	1478558101667	1478558101758	a	65
478317	5151939	A growing number of US households are joining the middle class.	A growing number of US households are joining the middle class.	244567590	1478558101713	1478558101786	s	83
478317	5151939	A growing number of US households are joining the middle class.	A growing number of US households are joining the middle class.	244567594	1478558101899	1478558101955	s	83
478317	5151939	A growing number of US households are joining the middle class.	A growing number of US households are joining the middle class.	244567598	1478558102067	1478558102166	.	190
478317	5151958	I doubt that it is forecasted.	I doubt that it is forecasted.	244567876	1478558106617	1478558106855	SHIFT	16
478317	5151958	I doubt that it is forecasted.	I doubt that it is forecasted.	244567879	1478558106807	1478558106871	I	73
478317	5151958	I doubt that it is forecasted.	I doubt that it is forecasted.	244567882	1478558106933	1478558107018	 	32
478317	5151958	I doubt that it is forecasted.	I doubt that it is forecasted.	244567885	1478558107071	1478558107129	d	68
478317	5151958	I doubt that it is forecasted.	I doubt that it is forecasted.	244567888	1478558107169	1478558107304	o	79
478317	5151958	I doubt that it is forecasted.	I doubt that it is forecasted.	244567910	1478558107276	1478558107401	u	85
478317	5151958	I doubt that it is forecasted.	I doubt that it is forecasted.	244567914	1478558107377	1478558107452	b	66
478317	5151958	I doubt that it is forecasted.	I doubt that it is forecasted.	244567918	1478558107809	1478558107865	t	84
478317	5151958	I doubt that it is forecasted.	I doubt that it is forecasted.	244567924	1478558107909	1478558107994	 	32
478317	5151958	I doubt that it is forecasted.	I doubt that it is forecasted.	244567927	1478558108097	1478558108140	t	84
478317	5151958	I doubt that it is forecasted.	I doubt that it is forecasted.	244567931	1478558108153	1478558108203	h	72
478317	5151958	I doubt that it is forecasted.	I doubt that it is forecasted.	244567939	1478558108225	1478558108337	a	65
478317	5151958	I doubt that it is forecasted.	I doubt that it is forecasted.	244567943	1478558108287	1478558108364	t	84
478317	5151958	I doubt that it is forecasted.	I doubt that it is forecasted.	244567947	1478558108352	1478558108440	 	32
478317	5151958	I doubt that it is forecasted.	I doubt that it is forecasted.	244567951	1478558108434	1478558108502	i	73
478317	5151958	I doubt that it is forecasted.	I doubt that it is forecasted.	244567957	1478558108573	1478558108629	t	84
478317	5151958	I doubt that it is forecasted.	I doubt that it is forecasted.	244567977	1478558108633	1478558108746	 	32
478317	5151958	I doubt that it is forecasted.	I doubt that it is forecasted.	244567981	1478558108708	1478558108810	i	73
478317	5151958	I doubt that it is forecasted.	I doubt that it is forecasted.	244567984	1478558108852	1478558108918	s	83
478317	5151958	I doubt that it is forecasted.	I doubt that it is forecasted.	244567987	1478558108949	1478558109050	 	32
478317	5151958	I doubt that it is forecasted.	I doubt that it is forecasted.	244567990	1478558109191	1478558109257	f	70
478317	5151958	I doubt that it is forecasted.	I doubt that it is forecasted.	244568024	1478558109296	1478558109396	o	79
478317	5151958	I doubt that it is forecasted.	I doubt that it is forecasted.	244568028	1478558109396	1478558109529	r	82
478317	5151958	I doubt that it is forecasted.	I doubt that it is forecasted.	244568034	1478558109480	1478558109581	e	69
478317	5151958	I doubt that it is forecasted.	I doubt that it is forecasted.	244568040	1478558109697	1478558109781	c	67
478317	5151958	I doubt that it is forecasted.	I doubt that it is forecasted.	244568047	1478558109864	1478558110017	a	65
478317	5151958	I doubt that it is forecasted.	I doubt that it is forecasted.	244568094	1478558109982	1478558110082	s	83
478317	5151958	I doubt that it is forecasted.	I doubt that it is forecasted.	244568099	1478558110114	1478558110213	t	84
478317	5151958	I doubt that it is forecasted.	I doubt that it is forecasted.	244568104	1478558110258	1478558110335	e	69
478317	5151958	I doubt that it is forecasted.	I doubt that it is forecasted.	244568112	1478558110429	1478558110486	d	68
478317	5151958	I doubt that it is forecasted.	I doubt that it is forecasted.	244568115	1478558110566	1478558110630	.	190
478317	5151968	Are you feeling better?	Are you feeling better?	244568331	1478558113567	1478558113755	SHIFT	16
478317	5151968	Are you feeling better?	Are you feeling better?	244568334	1478558113688	1478558113770	A	65
478317	5151968	Are you feeling better?	Are you feeling better?	244568340	1478558113888	1478558114007	r	82
478317	5151968	Are you feeling better?	Are you feeling better?	244568343	1478558113953	1478558114037	e	69
478317	5151968	Are you feeling better?	Are you feeling better?	244568348	1478558114009	1478558114089	 	32
478317	5151968	Are you feeling better?	Are you feeling better?	244568354	1478558114189	1478558114259	y	89
478317	5151968	Are you feeling better?	Are you feeling better?	244568369	1478558114237	1478558114347	o	79
478317	5151968	Are you feeling better?	Are you feeling better?	244568375	1478558114320	1478558114404	u	85
478317	5151968	Are you feeling better?	Are you feeling better?	244568380	1478558114342	1478558114404	 	32
478317	5151968	Are you feeling better?	Are you feeling better?	244568383	1478558114537	1478558114591	f	70
478317	5151968	Are you feeling better?	Are you feeling better?	244568387	1478558114665	1478558114736	e	69
478317	5151968	Are you feeling better?	Are you feeling better?	244568391	1478558114806	1478558114881	e	69
478317	5151968	Are you feeling better?	Are you feeling better?	244568407	1478558114924	1478558115056	l	76
478317	5151968	Are you feeling better?	Are you feeling better?	244568416	1478558115022	1478558115143	i	73
478317	5151968	Are you feeling better?	Are you feeling better?	244568422	1478558115110	1478558115207	n	78
478317	5151968	Are you feeling better?	Are you feeling better?	244568429	1478558115223	1478558115291	g	71
478317	5151968	Are you feeling better?	Are you feeling better?	244568434	1478558115291	1478558115391	 	32
478317	5151968	Are you feeling better?	Are you feeling better?	244568464	1478558115474	1478558115537	b	66
478317	5151968	Are you feeling better?	Are you feeling better?	244568471	1478558115625	1478558115714	e	69
478317	5151968	Are you feeling better?	Are you feeling better?	244568477	1478558115683	1478558115736	t	84
478317	5151968	Are you feeling better?	Are you feeling better?	244568485	1478558115827	1478558115876	t	84
478317	5151968	Are you feeling better?	Are you feeling better?	244568493	1478558115940	1478558116053	e	69
478317	5151968	Are you feeling better?	Are you feeling better?	244568511	1478558116004	1478558116093	r	82
478317	5151968	Are you feeling better?	Are you feeling better?	244568515	1478558116211	1478558116369	SHIFT	16
478317	5151968	Are you feeling better?	Are you feeling better?	244568518	1478558116325	1478558116369	?	191
478317	5151977	The Japanese justice ministry refused Maradona a visa.	The Japanese justice ministry refused Maradona a visa.	244568861	1478558122899	1478558123338	SHIFT	16
478317	5151977	The Japanese justice ministry refused Maradona a visa.	The Japanese justice ministry refused Maradona a visa.	244568858	1478558123254	1478558123306	T	84
478317	5151977	The Japanese justice ministry refused Maradona a visa.	The Japanese justice ministry refused Maradona a visa.	244568864	1478558123369	1478558123420	h	72
478317	5151977	The Japanese justice ministry refused Maradona a visa.	The Japanese justice ministry refused Maradona a visa.	244568866	1478558123451	1478558123502	e	69
478317	5151977	The Japanese justice ministry refused Maradona a visa.	The Japanese justice ministry refused Maradona a visa.	244568868	1478558123505	1478558123603	 	32
478317	5151977	The Japanese justice ministry refused Maradona a visa.	The Japanese justice ministry refused Maradona a visa.	244568871	1478558123923	1478558124026	SHIFT	16
478317	5151977	The Japanese justice ministry refused Maradona a visa.	The Japanese justice ministry refused Maradona a visa.	244568950	1478558123985	1478558124038	J	74
478317	5151977	The Japanese justice ministry refused Maradona a visa.	The Japanese justice ministry refused Maradona a visa.	244568953	1478558124121	1478558124169	a	65
478317	5151977	The Japanese justice ministry refused Maradona a visa.	The Japanese justice ministry refused Maradona a visa.	244568956	1478558124586	1478558124634	BKSP	8
478317	5151977	The Japanese justice ministry refused Maradona a visa.	The Japanese justice ministry refused Maradona a visa.	244568958	1478558125056	1478558125191	p	80
478317	5151977	The Japanese justice ministry refused Maradona a visa.	The Japanese justice ministry refused Maradona a visa.	244568960	1478558125456	1478558125510	BKSP	8
478317	5151977	The Japanese justice ministry refused Maradona a visa.	The Japanese justice ministry refused Maradona a visa.	244568963	1478558125541	1478558125693	a	65
478317	5151977	The Japanese justice ministry refused Maradona a visa.	The Japanese justice ministry refused Maradona a visa.	244568967	1478558125672	1478558125784	p	80
478317	5151977	The Japanese justice ministry refused Maradona a visa.	The Japanese justice ministry refused Maradona a visa.	244568971	1478558125857	1478558126010	a	65
478317	5151977	The Japanese justice ministry refused Maradona a visa.	The Japanese justice ministry refused Maradona a visa.	244569006	1478558126055	1478558126152	n	78
478317	5151977	The Japanese justice ministry refused Maradona a visa.	The Japanese justice ministry refused Maradona a visa.	244569009	1478558126167	1478558126348	e	69
478317	5151977	The Japanese justice ministry refused Maradona a visa.	The Japanese justice ministry refused Maradona a visa.	244569013	1478558126311	1478558126412	s	83
478317	5151977	The Japanese justice ministry refused Maradona a visa.	The Japanese justice ministry refused Maradona a visa.	244569016	1478558126574	1478558126666	e	69
478317	5151977	The Japanese justice ministry refused Maradona a visa.	The Japanese justice ministry refused Maradona a visa.	244569020	1478558126764	1478558126845	 	32
478317	5151977	The Japanese justice ministry refused Maradona a visa.	The Japanese justice ministry refused Maradona a visa.	244569036	1478558126975	1478558127081	j	74
478317	5151977	The Japanese justice ministry refused Maradona a visa.	The Japanese justice ministry refused Maradona a visa.	244569038	1478558127168	1478558127250	u	85
478317	5151977	The Japanese justice ministry refused Maradona a visa.	The Japanese justice ministry refused Maradona a visa.	244569041	1478558127281	1478558127367	s	83
478317	5151977	The Japanese justice ministry refused Maradona a visa.	The Japanese justice ministry refused Maradona a visa.	244569046	1478558127412	1478558127481	t	84
478317	5151977	The Japanese justice ministry refused Maradona a visa.	The Japanese justice ministry refused Maradona a visa.	244569050	1478558127528	1478558127613	i	73
478317	5151977	The Japanese justice ministry refused Maradona a visa.	The Japanese justice ministry refused Maradona a visa.	244569084	1478558127689	1478558127752	c	67
478317	5151977	The Japanese justice ministry refused Maradona a visa.	The Japanese justice ministry refused Maradona a visa.	244569088	1478558127844	1478558127906	e	69
478317	5151977	The Japanese justice ministry refused Maradona a visa.	The Japanese justice ministry refused Maradona a visa.	244569094	1478558127950	1478558128035	 	32
478317	5151977	The Japanese justice ministry refused Maradona a visa.	The Japanese justice ministry refused Maradona a visa.	244569098	1478558128115	1478558128246	m	77
478317	5151977	The Japanese justice ministry refused Maradona a visa.	The Japanese justice ministry refused Maradona a visa.	244569102	1478558128262	1478558128355	i	73
478317	5151977	The Japanese justice ministry refused Maradona a visa.	The Japanese justice ministry refused Maradona a visa.	244569151	1478558128335	1478558128484	n	78
478317	5151977	The Japanese justice ministry refused Maradona a visa.	The Japanese justice ministry refused Maradona a visa.	244569155	1478558128431	1478558128547	i	73
478317	5151977	The Japanese justice ministry refused Maradona a visa.	The Japanese justice ministry refused Maradona a visa.	244569159	1478558128578	1478558128689	s	83
478317	5151977	The Japanese justice ministry refused Maradona a visa.	The Japanese justice ministry refused Maradona a visa.	244569165	1478558128667	1478558128736	t	84
478317	5151977	The Japanese justice ministry refused Maradona a visa.	The Japanese justice ministry refused Maradona a visa.	244569169	1478558128847	1478558128893	r	82
478317	5151977	The Japanese justice ministry refused Maradona a visa.	The Japanese justice ministry refused Maradona a visa.	244569172	1478558128903	1478558128999	y	89
478317	5151977	The Japanese justice ministry refused Maradona a visa.	The Japanese justice ministry refused Maradona a visa.	244569188	1478558128969	1478558129035	 	32
478317	5151977	The Japanese justice ministry refused Maradona a visa.	The Japanese justice ministry refused Maradona a visa.	244569190	1478558129208	1478558129385	r	82
478317	5151977	The Japanese justice ministry refused Maradona a visa.	The Japanese justice ministry refused Maradona a visa.	244569192	1478558129332	1478558129431	e	69
478317	5151977	The Japanese justice ministry refused Maradona a visa.	The Japanese justice ministry refused Maradona a visa.	244569193	1478558129532	1478558129605	f	70
478317	5151977	The Japanese justice ministry refused Maradona a visa.	The Japanese justice ministry refused Maradona a visa.	244569194	1478558129647	1478558129741	u	85
478317	5151977	The Japanese justice ministry refused Maradona a visa.	The Japanese justice ministry refused Maradona a visa.	244569196	1478558129788	1478558129971	s	83
478317	5151977	The Japanese justice ministry refused Maradona a visa.	The Japanese justice ministry refused Maradona a visa.	244569227	1478558129883	1478558130012	e	69
478317	5151977	The Japanese justice ministry refused Maradona a visa.	The Japanese justice ministry refused Maradona a visa.	244569233	1478558130116	1478558130187	d	68
478317	5151977	The Japanese justice ministry refused Maradona a visa.	The Japanese justice ministry refused Maradona a visa.	244569238	1478558130232	1478558130317	 	32
478317	5151977	The Japanese justice ministry refused Maradona a visa.	The Japanese justice ministry refused Maradona a visa.	244569242	1478558130381	1478558130528	SHIFT	16
478317	5151977	The Japanese justice ministry refused Maradona a visa.	The Japanese justice ministry refused Maradona a visa.	244569245	1478558130479	1478558130583	M	77
478317	5151977	The Japanese justice ministry refused Maradona a visa.	The Japanese justice ministry refused Maradona a visa.	244569247	1478558130616	1478558130718	a	65
478317	5151977	The Japanese justice ministry refused Maradona a visa.	The Japanese justice ministry refused Maradona a visa.	244569283	1478558130669	1478558130751	r	82
478317	5151977	The Japanese justice ministry refused Maradona a visa.	The Japanese justice ministry refused Maradona a visa.	244569287	1478558130817	1478558130884	a	65
478317	5151977	The Japanese justice ministry refused Maradona a visa.	The Japanese justice ministry refused Maradona a visa.	244569293	1478558131218	1478558131285	d	68
478317	5151977	The Japanese justice ministry refused Maradona a visa.	The Japanese justice ministry refused Maradona a visa.	244569296	1478558131334	1478558131460	o	79
478317	5151977	The Japanese justice ministry refused Maradona a visa.	The Japanese justice ministry refused Maradona a visa.	244569301	1478558131418	1478558131518	n	78
478317	5151977	The Japanese justice ministry refused Maradona a visa.	The Japanese justice ministry refused Maradona a visa.	244569306	1478558131596	1478558131699	a	65
478317	5151977	The Japanese justice ministry refused Maradona a visa.	The Japanese justice ministry refused Maradona a visa.	244569329	1478558131723	1478558131814	 	32
478317	5151977	The Japanese justice ministry refused Maradona a visa.	The Japanese justice ministry refused Maradona a visa.	244569331	1478558131919	1478558132035	a	65
478317	5151977	The Japanese justice ministry refused Maradona a visa.	The Japanese justice ministry refused Maradona a visa.	244569334	1478558132098	1478558132201	 	32
478317	5151977	The Japanese justice ministry refused Maradona a visa.	The Japanese justice ministry refused Maradona a visa.	244569336	1478558132220	1478558132287	v	86
478317	5151977	The Japanese justice ministry refused Maradona a visa.	The Japanese justice ministry refused Maradona a visa.	244569339	1478558132420	1478558132500	i	73
478317	5151977	The Japanese justice ministry refused Maradona a visa.	The Japanese justice ministry refused Maradona a visa.	244569366	1478558132554	1478558132620	s	83
478317	5151977	The Japanese justice ministry refused Maradona a visa.	The Japanese justice ministry refused Maradona a visa.	244569370	1478558132720	1478558132781	a	65
478317	5151977	The Japanese justice ministry refused Maradona a visa.	The Japanese justice ministry refused Maradona a visa.	244569374	1478558132852	1478558132931	.	190
