PARTICIPANT_ID	TEST_SECTION_ID	SENTENCE	USER_INPUT	KEYSTROKE_ID	PRESS_TIME	RELEASE_TIME	LETTER	KEYCODE
478612	5155764	Reports said Clinton feels the same way.	Reports asid Clinton feels the same way.	244744932	1478561586808	1478561586935	SHIFT	16
478612	5155764	Reports said Clinton feels the same way.	Reports asid Clinton feels the same way.	244744937	1478561586895	1478561586951	R	82
478612	5155764	Reports said Clinton feels the same way.	Reports asid Clinton feels the same way.	244744943	1478561587047	1478561587135	e	69
478612	5155764	Reports said Clinton feels the same way.	Reports asid Clinton feels the same way.	244744948	1478561587159	1478561587207	p	80
478612	5155764	Reports said Clinton feels the same way.	Reports asid Clinton feels the same way.	244744951	1478561587263	1478561587351	o	79
478612	5155764	Reports said Clinton feels the same way.	Reports asid Clinton feels the same way.	244744953	1478561587367	1478561587383	r	82
478612	5155764	Reports said Clinton feels the same way.	Reports asid Clinton feels the same way.	244744968	1478561587479	1478561587535	t	84
478612	5155764	Reports said Clinton feels the same way.	Reports asid Clinton feels the same way.	244744972	1478561587567	1478561587687	s	83
478612	5155764	Reports said Clinton feels the same way.	Reports asid Clinton feels the same way.	244744975	1478561587663	1478561587767	 	32
478612	5155764	Reports said Clinton feels the same way.	Reports asid Clinton feels the same way.	244744989	1478561587863	1478561587975	s	65
478612	5155764	Reports said Clinton feels the same way.	Reports asid Clinton feels the same way.	244744991	1478561587951	1478561588007	i	73
478612	5155764	Reports said Clinton feels the same way.	Reports asid Clinton feels the same way.	244744993	1478561588031	1478561588103	d	68
478612	5155764	Reports said Clinton feels the same way.	Reports asid Clinton feels the same way.	244744996	1478561588103	1478561588191	 	32
478612	5155764	Reports said Clinton feels the same way.	Reports asid Clinton feels the same way.	244744999	1478561588215	1478561588311	SHIFT	16
478612	5155764	Reports said Clinton feels the same way.	Reports asid Clinton feels the same way.	244745001	1478561588271	1478561588327	C	67
478612	5155764	Reports said Clinton feels the same way.	Reports asid Clinton feels the same way.	244745003	1478561588375	1478561588479	l	76
478612	5155764	Reports said Clinton feels the same way.	Reports asid Clinton feels the same way.	244745006	1478561588455	1478561588535	i	73
478612	5155764	Reports said Clinton feels the same way.	Reports asid Clinton feels the same way.	244745007	1478561588511	1478561588591	n	78
478612	5155764	Reports said Clinton feels the same way.	Reports asid Clinton feels the same way.	244745008	1478561588671	1478561588735	t	84
478612	5155764	Reports said Clinton feels the same way.	Reports asid Clinton feels the same way.	244745009	1478561588695	1478561588823	o	79
478612	5155764	Reports said Clinton feels the same way.	Reports asid Clinton feels the same way.	244745011	1478561588767	1478561588871	n	78
478612	5155764	Reports said Clinton feels the same way.	Reports asid Clinton feels the same way.	244745041	1478561588847	1478561588943	 	32
478612	5155764	Reports said Clinton feels the same way.	Reports asid Clinton feels the same way.	244745043	1478561588959	1478561589007	f	70
478612	5155764	Reports said Clinton feels the same way.	Reports asid Clinton feels the same way.	244745045	1478561589023	1478561589071	e	69
478612	5155764	Reports said Clinton feels the same way.	Reports asid Clinton feels the same way.	244745048	1478561589143	1478561589215	e	69
478612	5155764	Reports said Clinton feels the same way.	Reports asid Clinton feels the same way.	244745051	1478561589239	1478561589311	l	76
478612	5155764	Reports said Clinton feels the same way.	Reports asid Clinton feels the same way.	244745055	1478561589327	1478561589431	s	83
478612	5155764	Reports said Clinton feels the same way.	Reports asid Clinton feels the same way.	244745057	1478561589447	1478561589527	 	32
478612	5155764	Reports said Clinton feels the same way.	Reports asid Clinton feels the same way.	244745060	1478561589591	1478561589647	t	84
478612	5155764	Reports said Clinton feels the same way.	Reports asid Clinton feels the same way.	244745063	1478561589647	1478561589695	h	72
478612	5155764	Reports said Clinton feels the same way.	Reports asid Clinton feels the same way.	244745069	1478561589711	1478561589783	e	69
478612	5155764	Reports said Clinton feels the same way.	Reports asid Clinton feels the same way.	244745079	1478561589759	1478561589839	 	32
478612	5155764	Reports said Clinton feels the same way.	Reports asid Clinton feels the same way.	244745083	1478561589855	1478561589959	s	83
478612	5155764	Reports said Clinton feels the same way.	Reports asid Clinton feels the same way.	244745086	1478561589935	1478561590023	a	65
478612	5155764	Reports said Clinton feels the same way.	Reports asid Clinton feels the same way.	244745088	1478561589999	1478561590063	m	77
478612	5155764	Reports said Clinton feels the same way.	Reports asid Clinton feels the same way.	244745092	1478561590079	1478561590151	e	69
478612	5155764	Reports said Clinton feels the same way.	Reports asid Clinton feels the same way.	244745095	1478561590151	1478561590231	 	32
478612	5155764	Reports said Clinton feels the same way.	Reports asid Clinton feels the same way.	244745106	1478561590247	1478561590335	w	87
478612	5155764	Reports said Clinton feels the same way.	Reports asid Clinton feels the same way.	244745108	1478561590311	1478561590415	a	65
478612	5155764	Reports said Clinton feels the same way.	Reports asid Clinton feels the same way.	244745111	1478561590375	1478561590431	y	89
478612	5155764	Reports said Clinton feels the same way.	Reports asid Clinton feels the same way.	244745114	1478561590551	1478561590591	.	190
478612	5155769	China replaced three ministers on Thursday.	China replaced three ministers on thursday.	244745226	1478561592655	1478561592735	SHIFT	16
478612	5155769	China replaced three ministers on Thursday.	China replaced three ministers on thursday.	244745228	1478561592695	1478561592767	C	67
478612	5155769	China replaced three ministers on Thursday.	China replaced three ministers on thursday.	244745229	1478561592807	1478561592887	h	72
478612	5155769	China replaced three ministers on Thursday.	China replaced three ministers on thursday.	244745231	1478561592888	1478561592919	i	73
478612	5155769	China replaced three ministers on Thursday.	China replaced three ministers on thursday.	244745233	1478561592959	1478561593047	n	78
478612	5155769	China replaced three ministers on Thursday.	China replaced three ministers on thursday.	244745235	1478561593071	1478561593191	a	65
478612	5155769	China replaced three ministers on Thursday.	China replaced three ministers on thursday.	244745248	1478561593167	1478561593247	 	32
478612	5155769	China replaced three ministers on Thursday.	China replaced three ministers on thursday.	244745250	1478561593343	1478561593407	r	82
478612	5155769	China replaced three ministers on Thursday.	China replaced three ministers on thursday.	244745254	1478561593503	1478561593567	e	69
478612	5155769	China replaced three ministers on Thursday.	China replaced three ministers on thursday.	244745256	1478561593655	1478561593695	p	80
478612	5155769	China replaced three ministers on Thursday.	China replaced three ministers on thursday.	244745258	1478561593815	1478561593887	l	76
478612	5155769	China replaced three ministers on Thursday.	China replaced three ministers on thursday.	244745260	1478561593903	1478561593935	a	65
478612	5155769	China replaced three ministers on Thursday.	China replaced three ministers on thursday.	244745262	1478561594007	1478561594055	c	67
478612	5155769	China replaced three ministers on Thursday.	China replaced three ministers on thursday.	244745266	1478561594159	1478561594207	e	69
478612	5155769	China replaced three ministers on Thursday.	China replaced three ministers on thursday.	244745271	1478561594295	1478561594375	d	68
478612	5155769	China replaced three ministers on Thursday.	China replaced three ministers on thursday.	244745276	1478561594375	1478561594447	 	32
478612	5155769	China replaced three ministers on Thursday.	China replaced three ministers on thursday.	244745281	1478561594463	1478561594519	t	84
478612	5155769	China replaced three ministers on Thursday.	China replaced three ministers on thursday.	244745290	1478561594535	1478561594607	h	72
478612	5155769	China replaced three ministers on Thursday.	China replaced three ministers on thursday.	244745294	1478561594623	1478561594695	r	82
478612	5155769	China replaced three ministers on Thursday.	China replaced three ministers on thursday.	244745297	1478561594695	1478561594727	e	69
478612	5155769	China replaced three ministers on Thursday.	China replaced three ministers on thursday.	244745300	1478561594807	1478561594927	e	69
478612	5155769	China replaced three ministers on Thursday.	China replaced three ministers on thursday.	244745311	1478561594903	1478561594975	 	32
478612	5155769	China replaced three ministers on Thursday.	China replaced three ministers on thursday.	244745313	1478561594991	1478561595039	m	77
478612	5155769	China replaced three ministers on Thursday.	China replaced three ministers on thursday.	244745316	1478561595039	1478561595135	i	73
478612	5155769	China replaced three ministers on Thursday.	China replaced three ministers on thursday.	244745320	1478561595135	1478561595263	n	78
478612	5155769	China replaced three ministers on Thursday.	China replaced three ministers on thursday.	244745323	1478561595231	1478561595319	i	73
478612	5155769	China replaced three ministers on Thursday.	China replaced three ministers on thursday.	244745324	1478561595263	1478561595335	s	83
478612	5155769	China replaced three ministers on Thursday.	China replaced three ministers on thursday.	244745325	1478561595375	1478561595423	t	84
478612	5155769	China replaced three ministers on Thursday.	China replaced three ministers on thursday.	244745326	1478561595487	1478561595591	e	69
478612	5155769	China replaced three ministers on Thursday.	China replaced three ministers on thursday.	244745327	1478561595567	1478561595662	r	82
478612	5155769	China replaced three ministers on Thursday.	China replaced three ministers on thursday.	244745328	1478561595679	1478561595767	s	83
478612	5155769	China replaced three ministers on Thursday.	China replaced three ministers on thursday.	244745330	1478561595855	1478561595919	 	32
478612	5155769	China replaced three ministers on Thursday.	China replaced three ministers on thursday.	244745339	1478561595935	1478561596031	o	79
478612	5155769	China replaced three ministers on Thursday.	China replaced three ministers on thursday.	244745341	1478561596007	1478561596095	n	78
478612	5155769	China replaced three ministers on Thursday.	China replaced three ministers on thursday.	244745347	1478561596071	1478561596126	 	32
478612	5155769	China replaced three ministers on Thursday.	China replaced three ministers on thursday.	244745352	1478561596174	1478561596270	SHIFT	16
478612	5155769	China replaced three ministers on Thursday.	China replaced three ministers on thursday.	244745359	1478561596271	1478561596343	t	84
478612	5155769	China replaced three ministers on Thursday.	China replaced three ministers on thursday.	244745373	1478561596319	1478561596374	h	72
478612	5155769	China replaced three ministers on Thursday.	China replaced three ministers on thursday.	244745375	1478561596471	1478561596567	u	85
478612	5155769	China replaced three ministers on Thursday.	China replaced three ministers on thursday.	244745377	1478561596527	1478561596582	r	82
478612	5155769	China replaced three ministers on Thursday.	China replaced three ministers on thursday.	244745380	1478561596598	1478561596655	s	83
478612	5155769	China replaced three ministers on Thursday.	China replaced three ministers on thursday.	244745383	1478561596694	1478561596791	d	68
478612	5155769	China replaced three ministers on Thursday.	China replaced three ministers on thursday.	244745388	1478561596791	1478561596903	a	65
478612	5155769	China replaced three ministers on Thursday.	China replaced three ministers on thursday.	244745384	1478561596847	1478561596904	y	89
478612	5155769	China replaced three ministers on Thursday.	China replaced three ministers on thursday.	244745387	1478561597023	1478561597079	.	190
478612	5155775	I will need to have my memory refreshed.	I will need to have my meory refreshed.	244745473	1478561599135	1478561599230	SHIFT	16
478612	5155775	I will need to have my memory refreshed.	I will need to have my meory refreshed.	244745475	1478561599206	1478561599254	I	73
478612	5155775	I will need to have my memory refreshed.	I will need to have my meory refreshed.	244745477	1478561599270	1478561599350	 	32
478612	5155775	I will need to have my memory refreshed.	I will need to have my meory refreshed.	244745480	1478561599351	1478561599454	w	87
478612	5155775	I will need to have my memory refreshed.	I will need to have my meory refreshed.	244745485	1478561599431	1478561599478	i	73
478612	5155775	I will need to have my memory refreshed.	I will need to have my meory refreshed.	244745490	1478561599542	1478561599598	l	76
478612	5155775	I will need to have my memory refreshed.	I will need to have my meory refreshed.	244745513	1478561599678	1478561599742	l	76
478612	5155775	I will need to have my memory refreshed.	I will need to have my meory refreshed.	244745517	1478561599719	1478561599790	 	32
478612	5155775	I will need to have my memory refreshed.	I will need to have my meory refreshed.	244745521	1478561600110	1478561600198	n	78
478612	5155775	I will need to have my memory refreshed.	I will need to have my meory refreshed.	244745526	1478561600199	1478561600214	e	69
478612	5155775	I will need to have my memory refreshed.	I will need to have my meory refreshed.	244745528	1478561600310	1478561600358	e	69
478612	5155775	I will need to have my memory refreshed.	I will need to have my meory refreshed.	244745543	1478561600454	1478561600526	d	68
478612	5155775	I will need to have my memory refreshed.	I will need to have my meory refreshed.	244745546	1478561600550	1478561600614	 	32
478612	5155775	I will need to have my memory refreshed.	I will need to have my meory refreshed.	244745547	1478561600630	1478561600710	t	84
478612	5155775	I will need to have my memory refreshed.	I will need to have my meory refreshed.	244745549	1478561600686	1478561600783	o	79
478612	5155775	I will need to have my memory refreshed.	I will need to have my meory refreshed.	244745550	1478561600735	1478561600807	 	32
478612	5155775	I will need to have my memory refreshed.	I will need to have my meory refreshed.	244745551	1478561600784	1478561600855	h	72
478612	5155775	I will need to have my memory refreshed.	I will need to have my meory refreshed.	244745552	1478561600831	1478561600903	a	65
478612	5155775	I will need to have my memory refreshed.	I will need to have my meory refreshed.	244745553	1478561600879	1478561600951	v	86
478612	5155775	I will need to have my memory refreshed.	I will need to have my meory refreshed.	244745554	1478561600927	1478561601007	e	69
478612	5155775	I will need to have my memory refreshed.	I will need to have my meory refreshed.	244745575	1478561600983	1478561601087	 	32
478612	5155775	I will need to have my memory refreshed.	I will need to have my meory refreshed.	244745576	1478561601087	1478561601127	m	77
478612	5155775	I will need to have my memory refreshed.	I will need to have my meory refreshed.	244745577	1478561601255	1478561601327	y	89
478612	5155775	I will need to have my memory refreshed.	I will need to have my meory refreshed.	244745578	1478561601303	1478561601343	 	32
478612	5155775	I will need to have my memory refreshed.	I will need to have my meory refreshed.	244745579	1478561601431	1478561601495	m	77
478612	5155775	I will need to have my memory refreshed.	I will need to have my meory refreshed.	244745580	1478561601551	1478561601639	e	69
478612	5155775	I will need to have my memory refreshed.	I will need to have my meory refreshed.	244745599	1478561601640	1478561601703	o	79
478612	5155775	I will need to have my memory refreshed.	I will need to have my meory refreshed.	244745603	1478561601751	1478561601815	r	82
478612	5155775	I will need to have my memory refreshed.	I will need to have my meory refreshed.	244745606	1478561601847	1478561601943	y	89
478612	5155775	I will need to have my memory refreshed.	I will need to have my meory refreshed.	244745609	1478561601944	1478561602047	 	32
478612	5155775	I will need to have my memory refreshed.	I will need to have my meory refreshed.	244745612	1478561602095	1478561602167	r	82
478612	5155775	I will need to have my memory refreshed.	I will need to have my meory refreshed.	244745619	1478561602168	1478561602239	e	69
478612	5155775	I will need to have my memory refreshed.	I will need to have my meory refreshed.	244745621	1478561602295	1478561602343	f	70
478612	5155775	I will need to have my memory refreshed.	I will need to have my meory refreshed.	244745625	1478561602447	1478561602520	r	82
478612	5155775	I will need to have my memory refreshed.	I will need to have my meory refreshed.	244745627	1478561602535	1478561602639	e	69
478612	5155775	I will need to have my memory refreshed.	I will need to have my meory refreshed.	244745652	1478561602615	1478561602703	s	83
478612	5155775	I will need to have my memory refreshed.	I will need to have my meory refreshed.	244745658	1478561602727	1478561602799	h	72
478612	5155775	I will need to have my memory refreshed.	I will need to have my meory refreshed.	244745660	1478561602815	1478561602863	e	69
478612	5155775	I will need to have my memory refreshed.	I will need to have my meory refreshed.	244745665	1478561602960	1478561603063	d	68
478612	5155775	I will need to have my memory refreshed.	I will need to have my meory refreshed.	244745669	1478561603143	1478561603191	.	190
478612	5155782	I was a bit rusty but I didn't want to miss the elections back home.	I was a bit rusty but I didn't want to miss the elections back home.	244745728	1478561605135	1478561605239	SHIFT	16
478612	5155782	I was a bit rusty but I didn't want to miss the elections back home.	I was a bit rusty but I didn't want to miss the elections back home.	244745730	1478561605215	1478561605287	I	73
478612	5155782	I was a bit rusty but I didn't want to miss the elections back home.	I was a bit rusty but I didn't want to miss the elections back home.	244745732	1478561605263	1478561605367	 	32
478612	5155782	I was a bit rusty but I didn't want to miss the elections back home.	I was a bit rusty but I didn't want to miss the elections back home.	244745734	1478561605367	1478561605439	w	87
478612	5155782	I was a bit rusty but I didn't want to miss the elections back home.	I was a bit rusty but I didn't want to miss the elections back home.	244745735	1478561605415	1478561605567	a	65
478612	5155782	I was a bit rusty but I didn't want to miss the elections back home.	I was a bit rusty but I didn't want to miss the elections back home.	244745739	1478561605519	1478561605607	s	83
478612	5155782	I was a bit rusty but I didn't want to miss the elections back home.	I was a bit rusty but I didn't want to miss the elections back home.	244745743	1478561605568	1478561605623	 	32
478612	5155782	I was a bit rusty but I didn't want to miss the elections back home.	I was a bit rusty but I didn't want to miss the elections back home.	244745747	1478561605703	1478561605791	a	65
478612	5155782	I was a bit rusty but I didn't want to miss the elections back home.	I was a bit rusty but I didn't want to miss the elections back home.	244745751	1478561605767	1478561605831	 	32
478612	5155782	I was a bit rusty but I didn't want to miss the elections back home.	I was a bit rusty but I didn't want to miss the elections back home.	244745755	1478561605863	1478561605903	b	66
478612	5155782	I was a bit rusty but I didn't want to miss the elections back home.	I was a bit rusty but I didn't want to miss the elections back home.	244745760	1478561605935	1478561606007	i	73
478612	5155782	I was a bit rusty but I didn't want to miss the elections back home.	I was a bit rusty but I didn't want to miss the elections back home.	244745771	1478561606023	1478561606055	t	84
478612	5155782	I was a bit rusty but I didn't want to miss the elections back home.	I was a bit rusty but I didn't want to miss the elections back home.	244745773	1478561606087	1478561606175	 	32
478612	5155782	I was a bit rusty but I didn't want to miss the elections back home.	I was a bit rusty but I didn't want to miss the elections back home.	244745775	1478561606199	1478561606279	r	82
478612	5155782	I was a bit rusty but I didn't want to miss the elections back home.	I was a bit rusty but I didn't want to miss the elections back home.	244745777	1478561606295	1478561606375	u	85
478612	5155782	I was a bit rusty but I didn't want to miss the elections back home.	I was a bit rusty but I didn't want to miss the elections back home.	244745778	1478561606391	1478561606463	s	83
478612	5155782	I was a bit rusty but I didn't want to miss the elections back home.	I was a bit rusty but I didn't want to miss the elections back home.	244745792	1478561606487	1478561606559	t	84
478612	5155782	I was a bit rusty but I didn't want to miss the elections back home.	I was a bit rusty but I didn't want to miss the elections back home.	244745794	1478561606599	1478561606679	y	89
478612	5155782	I was a bit rusty but I didn't want to miss the elections back home.	I was a bit rusty but I didn't want to miss the elections back home.	244745798	1478561606655	1478561606719	 	32
478612	5155782	I was a bit rusty but I didn't want to miss the elections back home.	I was a bit rusty but I didn't want to miss the elections back home.	244745801	1478561606871	1478561606927	b	66
478612	5155782	I was a bit rusty but I didn't want to miss the elections back home.	I was a bit rusty but I didn't want to miss the elections back home.	244745804	1478561606959	1478561607031	u	85
478612	5155782	I was a bit rusty but I didn't want to miss the elections back home.	I was a bit rusty but I didn't want to miss the elections back home.	244745823	1478561607047	1478561607103	t	84
478612	5155782	I was a bit rusty but I didn't want to miss the elections back home.	I was a bit rusty but I didn't want to miss the elections back home.	244745826	1478561607143	1478561607199	 	32
478612	5155782	I was a bit rusty but I didn't want to miss the elections back home.	I was a bit rusty but I didn't want to miss the elections back home.	244745828	1478561607247	1478561607335	SHIFT	16
478612	5155782	I was a bit rusty but I didn't want to miss the elections back home.	I was a bit rusty but I didn't want to miss the elections back home.	244745829	1478561607311	1478561607383	I	73
478612	5155782	I was a bit rusty but I didn't want to miss the elections back home.	I was a bit rusty but I didn't want to miss the elections back home.	244745830	1478561607359	1478561607423	 	32
478612	5155782	I was a bit rusty but I didn't want to miss the elections back home.	I was a bit rusty but I didn't want to miss the elections back home.	244745831	1478561607439	1478561607495	d	68
478612	5155782	I was a bit rusty but I didn't want to miss the elections back home.	I was a bit rusty but I didn't want to miss the elections back home.	244745836	1478561607519	1478561607583	i	73
478612	5155782	I was a bit rusty but I didn't want to miss the elections back home.	I was a bit rusty but I didn't want to miss the elections back home.	244745837	1478561607599	1478561607663	d	68
478612	5155782	I was a bit rusty but I didn't want to miss the elections back home.	I was a bit rusty but I didn't want to miss the elections back home.	244745838	1478561607664	1478561607759	n	78
478612	5155782	I was a bit rusty but I didn't want to miss the elections back home.	I was a bit rusty but I didn't want to miss the elections back home.	244745839	1478561607735	1478561607807	'	222
478612	5155782	I was a bit rusty but I didn't want to miss the elections back home.	I was a bit rusty but I didn't want to miss the elections back home.	244745840	1478561607807	1478561607855	t	84
478612	5155782	I was a bit rusty but I didn't want to miss the elections back home.	I was a bit rusty but I didn't want to miss the elections back home.	244745850	1478561607895	1478561607991	 	32
478612	5155782	I was a bit rusty but I didn't want to miss the elections back home.	I was a bit rusty but I didn't want to miss the elections back home.	244745854	1478561607967	1478561608079	w	87
478612	5155782	I was a bit rusty but I didn't want to miss the elections back home.	I was a bit rusty but I didn't want to miss the elections back home.	244745858	1478561608055	1478561608127	a	65
478612	5155782	I was a bit rusty but I didn't want to miss the elections back home.	I was a bit rusty but I didn't want to miss the elections back home.	244745861	1478561608103	1478561608159	n	78
478612	5155782	I was a bit rusty but I didn't want to miss the elections back home.	I was a bit rusty but I didn't want to miss the elections back home.	244745863	1478561608191	1478561608255	t	84
478612	5155782	I was a bit rusty but I didn't want to miss the elections back home.	I was a bit rusty but I didn't want to miss the elections back home.	244745872	1478561608272	1478561608327	 	32
478612	5155782	I was a bit rusty but I didn't want to miss the elections back home.	I was a bit rusty but I didn't want to miss the elections back home.	244745875	1478561608367	1478561608439	t	84
478612	5155782	I was a bit rusty but I didn't want to miss the elections back home.	I was a bit rusty but I didn't want to miss the elections back home.	244745879	1478561608415	1478561608487	o	79
478612	5155782	I was a bit rusty but I didn't want to miss the elections back home.	I was a bit rusty but I didn't want to miss the elections back home.	244745883	1478561608487	1478561608543	 	32
478612	5155782	I was a bit rusty but I didn't want to miss the elections back home.	I was a bit rusty but I didn't want to miss the elections back home.	244745886	1478561608567	1478561608663	m	77
478612	5155782	I was a bit rusty but I didn't want to miss the elections back home.	I was a bit rusty but I didn't want to miss the elections back home.	244745894	1478561608639	1478561608711	i	73
478612	5155782	I was a bit rusty but I didn't want to miss the elections back home.	I was a bit rusty but I didn't want to miss the elections back home.	244745896	1478561608711	1478561608751	s	83
478612	5155782	I was a bit rusty but I didn't want to miss the elections back home.	I was a bit rusty but I didn't want to miss the elections back home.	244745898	1478561608831	1478561608919	s	83
478612	5155782	I was a bit rusty but I didn't want to miss the elections back home.	I was a bit rusty but I didn't want to miss the elections back home.	244745899	1478561608919	1478561608991	 	32
478612	5155782	I was a bit rusty but I didn't want to miss the elections back home.	I was a bit rusty but I didn't want to miss the elections back home.	244745900	1478561609007	1478561609063	t	84
478612	5155782	I was a bit rusty but I didn't want to miss the elections back home.	I was a bit rusty but I didn't want to miss the elections back home.	244745902	1478561609079	1478561609127	h	72
478612	5155782	I was a bit rusty but I didn't want to miss the elections back home.	I was a bit rusty but I didn't want to miss the elections back home.	244745930	1478561609143	1478561609207	e	69
478612	5155782	I was a bit rusty but I didn't want to miss the elections back home.	I was a bit rusty but I didn't want to miss the elections back home.	244745932	1478561609183	1478561609263	 	32
478612	5155782	I was a bit rusty but I didn't want to miss the elections back home.	I was a bit rusty but I didn't want to miss the elections back home.	244745936	1478561609327	1478561609407	e	69
478612	5155782	I was a bit rusty but I didn't want to miss the elections back home.	I was a bit rusty but I didn't want to miss the elections back home.	244745938	1478561609407	1478561609479	l	76
478612	5155782	I was a bit rusty but I didn't want to miss the elections back home.	I was a bit rusty but I didn't want to miss the elections back home.	244745942	1478561609919	1478561609975	e	69
478612	5155782	I was a bit rusty but I didn't want to miss the elections back home.	I was a bit rusty but I didn't want to miss the elections back home.	244745951	1478561610087	1478561610143	c	67
478612	5155782	I was a bit rusty but I didn't want to miss the elections back home.	I was a bit rusty but I didn't want to miss the elections back home.	244745952	1478561610255	1478561610311	t	84
478612	5155782	I was a bit rusty but I didn't want to miss the elections back home.	I was a bit rusty but I didn't want to miss the elections back home.	244745954	1478561610351	1478561610439	i	73
478612	5155782	I was a bit rusty but I didn't want to miss the elections back home.	I was a bit rusty but I didn't want to miss the elections back home.	244745957	1478561610375	1478561610463	o	79
478612	5155782	I was a bit rusty but I didn't want to miss the elections back home.	I was a bit rusty but I didn't want to miss the elections back home.	244745975	1478561610439	1478561610479	n	78
478612	5155782	I was a bit rusty but I didn't want to miss the elections back home.	I was a bit rusty but I didn't want to miss the elections back home.	244745977	1478561610495	1478561610559	s	83
478612	5155782	I was a bit rusty but I didn't want to miss the elections back home.	I was a bit rusty but I didn't want to miss the elections back home.	244745980	1478561610575	1478561610671	 	32
478612	5155782	I was a bit rusty but I didn't want to miss the elections back home.	I was a bit rusty but I didn't want to miss the elections back home.	244745983	1478561610671	1478561610727	b	66
478612	5155782	I was a bit rusty but I didn't want to miss the elections back home.	I was a bit rusty but I didn't want to miss the elections back home.	244745985	1478561610727	1478561610783	a	65
478612	5155782	I was a bit rusty but I didn't want to miss the elections back home.	I was a bit rusty but I didn't want to miss the elections back home.	244745987	1478561610847	1478561610951	c	67
478612	5155782	I was a bit rusty but I didn't want to miss the elections back home.	I was a bit rusty but I didn't want to miss the elections back home.	244745989	1478561610919	1478561610975	k	75
478612	5155782	I was a bit rusty but I didn't want to miss the elections back home.	I was a bit rusty but I didn't want to miss the elections back home.	244745991	1478561610952	1478561611039	 	32
478612	5155782	I was a bit rusty but I didn't want to miss the elections back home.	I was a bit rusty but I didn't want to miss the elections back home.	244745993	1478561611015	1478561611103	h	72
478612	5155782	I was a bit rusty but I didn't want to miss the elections back home.	I was a bit rusty but I didn't want to miss the elections back home.	244745996	1478561611079	1478561611135	o	79
478612	5155782	I was a bit rusty but I didn't want to miss the elections back home.	I was a bit rusty but I didn't want to miss the elections back home.	244745999	1478561611207	1478561611271	m	77
478612	5155782	I was a bit rusty but I didn't want to miss the elections back home.	I was a bit rusty but I didn't want to miss the elections back home.	244746002	1478561611295	1478561611343	e	69
478612	5155782	I was a bit rusty but I didn't want to miss the elections back home.	I was a bit rusty but I didn't want to miss the elections back home.	244746009	1478561611439	1478561611495	.	190
478612	5155787	Doug Chapman will likely get the start in Bennett s absence.	Doug chapman will liekly get th estart in Bennett s absence.	244746091	1478561613367	1478561613447	SHIFT	16
478612	5155787	Doug Chapman will likely get the start in Bennett s absence.	Doug chapman will liekly get th estart in Bennett s absence.	244746094	1478561613407	1478561613490	D	68
478612	5155787	Doug Chapman will likely get the start in Bennett s absence.	Doug chapman will liekly get th estart in Bennett s absence.	244746095	1478561613551	1478561613663	o	79
478612	5155787	Doug Chapman will likely get the start in Bennett s absence.	Doug chapman will liekly get th estart in Bennett s absence.	244746098	1478561613623	1478561613694	u	85
478612	5155787	Doug Chapman will likely get the start in Bennett s absence.	Doug chapman will liekly get th estart in Bennett s absence.	244746100	1478561613710	1478561613775	g	71
478612	5155787	Doug Chapman will likely get the start in Bennett s absence.	Doug chapman will liekly get th estart in Bennett s absence.	244746103	1478561613790	1478561613871	 	32
478612	5155787	Doug Chapman will likely get the start in Bennett s absence.	Doug chapman will liekly get th estart in Bennett s absence.	244746116	1478561613935	1478561614023	c	67
478612	5155787	Doug Chapman will likely get the start in Bennett s absence.	Doug chapman will liekly get th estart in Bennett s absence.	244746118	1478561613999	1478561614054	h	72
478612	5155787	Doug Chapman will likely get the start in Bennett s absence.	Doug chapman will liekly get th estart in Bennett s absence.	244746120	1478561614094	1478561614207	a	65
478612	5155787	Doug Chapman will likely get the start in Bennett s absence.	Doug chapman will liekly get th estart in Bennett s absence.	244746124	1478561614167	1478561614222	p	80
478612	5155787	Doug Chapman will likely get the start in Bennett s absence.	Doug chapman will liekly get th estart in Bennett s absence.	244746127	1478561614351	1478561614406	m	77
478612	5155787	Doug Chapman will likely get the start in Bennett s absence.	Doug chapman will liekly get th estart in Bennett s absence.	244746135	1478561614446	1478561614551	a	65
478612	5155787	Doug Chapman will likely get the start in Bennett s absence.	Doug chapman will liekly get th estart in Bennett s absence.	244746138	1478561614527	1478561614591	n	78
478612	5155787	Doug Chapman will likely get the start in Bennett s absence.	Doug chapman will liekly get th estart in Bennett s absence.	244746141	1478561614623	1478561614719	 	32
478612	5155787	Doug Chapman will likely get the start in Bennett s absence.	Doug chapman will liekly get th estart in Bennett s absence.	244746144	1478561614750	1478561614855	w	87
478612	5155787	Doug Chapman will likely get the start in Bennett s absence.	Doug chapman will liekly get th estart in Bennett s absence.	244746152	1478561614815	1478561614855	i	73
478612	5155787	Doug Chapman will likely get the start in Bennett s absence.	Doug chapman will liekly get th estart in Bennett s absence.	244746154	1478561614958	1478561614998	l	76
478612	5155787	Doug Chapman will likely get the start in Bennett s absence.	Doug chapman will liekly get th estart in Bennett s absence.	244746155	1478561615087	1478561615175	l	76
478612	5155787	Doug Chapman will likely get the start in Bennett s absence.	Doug chapman will liekly get th estart in Bennett s absence.	244746157	1478561615151	1478561615223	 	32
478612	5155787	Doug Chapman will likely get the start in Bennett s absence.	Doug chapman will liekly get th estart in Bennett s absence.	244746158	1478561615311	1478561615414	l	76
478612	5155787	Doug Chapman will likely get the start in Bennett s absence.	Doug chapman will liekly get th estart in Bennett s absence.	244746175	1478561615391	1478561615446	i	73
478612	5155787	Doug Chapman will likely get the start in Bennett s absence.	Doug chapman will liekly get th estart in Bennett s absence.	244746180	1478561615494	1478561615559	e	69
478612	5155787	Doug Chapman will likely get the start in Bennett s absence.	Doug chapman will liekly get th estart in Bennett s absence.	244746184	1478561615574	1478561615686	k	75
478612	5155787	Doug Chapman will likely get the start in Bennett s absence.	Doug chapman will liekly get th estart in Bennett s absence.	244746189	1478561615663	1478561615775	l	76
478612	5155787	Doug Chapman will likely get the start in Bennett s absence.	Doug chapman will liekly get th estart in Bennett s absence.	244746192	1478561615750	1478561615839	y	89
478612	5155787	Doug Chapman will likely get the start in Bennett s absence.	Doug chapman will liekly get th estart in Bennett s absence.	244746199	1478561615814	1478561615935	 	32
478612	5155787	Doug Chapman will likely get the start in Bennett s absence.	Doug chapman will liekly get th estart in Bennett s absence.	244746201	1478561615950	1478561616006	g	71
478612	5155787	Doug Chapman will likely get the start in Bennett s absence.	Doug chapman will liekly get th estart in Bennett s absence.	244746205	1478561616022	1478561616151	e	69
478612	5155787	Doug Chapman will likely get the start in Bennett s absence.	Doug chapman will liekly get th estart in Bennett s absence.	244746208	1478561616127	1478561616199	t	84
478612	5155787	Doug Chapman will likely get the start in Bennett s absence.	Doug chapman will liekly get th estart in Bennett s absence.	244746212	1478561616174	1478561616239	 	32
478612	5155787	Doug Chapman will likely get the start in Bennett s absence.	Doug chapman will liekly get th estart in Bennett s absence.	244746216	1478561616279	1478561616367	t	84
478612	5155787	Doug Chapman will likely get the start in Bennett s absence.	Doug chapman will liekly get th estart in Bennett s absence.	244746232	1478561616342	1478561616414	h	72
478612	5155787	Doug Chapman will likely get the start in Bennett s absence.	Doug chapman will liekly get th estart in Bennett s absence.	244746241	1478561616415	1478561616542	 	32
478612	5155787	Doug Chapman will likely get the start in Bennett s absence.	Doug chapman will liekly get th estart in Bennett s absence.	244746236	1478561616439	1478561616502	e	69
478612	5155787	Doug Chapman will likely get the start in Bennett s absence.	Doug chapman will liekly get th estart in Bennett s absence.	244746246	1478561616582	1478561616670	s	83
478612	5155787	Doug Chapman will likely get the start in Bennett s absence.	Doug chapman will liekly get th estart in Bennett s absence.	244746248	1478561616702	1478561616774	t	84
478612	5155787	Doug Chapman will likely get the start in Bennett s absence.	Doug chapman will liekly get th estart in Bennett s absence.	244746252	1478561616798	1478561616942	a	65
478612	5155787	Doug Chapman will likely get the start in Bennett s absence.	Doug chapman will liekly get th estart in Bennett s absence.	244746254	1478561616886	1478561616943	r	82
478612	5155787	Doug Chapman will likely get the start in Bennett s absence.	Doug chapman will liekly get th estart in Bennett s absence.	244746255	1478561617014	1478561617102	t	84
478612	5155787	Doug Chapman will likely get the start in Bennett s absence.	Doug chapman will liekly get th estart in Bennett s absence.	244746257	1478561617103	1478561617150	 	32
478612	5155787	Doug Chapman will likely get the start in Bennett s absence.	Doug chapman will liekly get th estart in Bennett s absence.	244746259	1478561617166	1478561617270	i	73
478612	5155787	Doug Chapman will likely get the start in Bennett s absence.	Doug chapman will liekly get th estart in Bennett s absence.	244746261	1478561617230	1478561617318	n	78
478612	5155787	Doug Chapman will likely get the start in Bennett s absence.	Doug chapman will liekly get th estart in Bennett s absence.	244746273	1478561617294	1478561617350	 	32
478612	5155787	Doug Chapman will likely get the start in Bennett s absence.	Doug chapman will liekly get th estart in Bennett s absence.	244746275	1478561617390	1478561617502	SHIFT	16
478612	5155787	Doug Chapman will likely get the start in Bennett s absence.	Doug chapman will liekly get th estart in Bennett s absence.	244746278	1478561617462	1478561617518	B	66
478612	5155787	Doug Chapman will likely get the start in Bennett s absence.	Doug chapman will liekly get th estart in Bennett s absence.	244746281	1478561617534	1478561617622	e	69
478612	5155787	Doug Chapman will likely get the start in Bennett s absence.	Doug chapman will liekly get th estart in Bennett s absence.	244746284	1478561617623	1478561617662	n	78
478612	5155787	Doug Chapman will likely get the start in Bennett s absence.	Doug chapman will liekly get th estart in Bennett s absence.	244746287	1478561617734	1478561617830	n	78
478612	5155787	Doug Chapman will likely get the start in Bennett s absence.	Doug chapman will liekly get th estart in Bennett s absence.	244746336	1478561617807	1478561617886	e	69
478612	5155787	Doug Chapman will likely get the start in Bennett s absence.	Doug chapman will liekly get th estart in Bennett s absence.	244746342	1478561617910	1478561617982	t	84
478612	5155787	Doug Chapman will likely get the start in Bennett s absence.	Doug chapman will liekly get th estart in Bennett s absence.	244746347	1478561618198	1478561618311	t	84
478612	5155787	Doug Chapman will likely get the start in Bennett s absence.	Doug chapman will liekly get th estart in Bennett s absence.	244746352	1478561619287	1478561619391	 	32
478612	5155787	Doug Chapman will likely get the start in Bennett s absence.	Doug chapman will liekly get th estart in Bennett s absence.	244746356	1478561619439	1478561619543	s	83
478612	5155787	Doug Chapman will likely get the start in Bennett s absence.	Doug chapman will liekly get th estart in Bennett s absence.	244746360	1478561619583	1478561619680	 	32
478612	5155787	Doug Chapman will likely get the start in Bennett s absence.	Doug chapman will liekly get th estart in Bennett s absence.	244746386	1478561619735	1478561619848	a	65
478612	5155787	Doug Chapman will likely get the start in Bennett s absence.	Doug chapman will liekly get th estart in Bennett s absence.	244746388	1478561619911	1478561619959	b	66
478612	5155787	Doug Chapman will likely get the start in Bennett s absence.	Doug chapman will liekly get th estart in Bennett s absence.	244746391	1478561620039	1478561620159	s	83
478612	5155787	Doug Chapman will likely get the start in Bennett s absence.	Doug chapman will liekly get th estart in Bennett s absence.	244746394	1478561620119	1478561620183	e	69
478612	5155787	Doug Chapman will likely get the start in Bennett s absence.	Doug chapman will liekly get th estart in Bennett s absence.	244746398	1478561620255	1478561620335	n	78
478612	5155787	Doug Chapman will likely get the start in Bennett s absence.	Doug chapman will liekly get th estart in Bennett s absence.	244746408	1478561620311	1478561620351	c	67
478612	5155787	Doug Chapman will likely get the start in Bennett s absence.	Doug chapman will liekly get th estart in Bennett s absence.	244746410	1478561620439	1478561620535	e	69
478612	5155787	Doug Chapman will likely get the start in Bennett s absence.	Doug chapman will liekly get th estart in Bennett s absence.	244746416	1478561620535	1478561620591	.	190
478612	5155796	All our demographics indicate that is a family audience.	All our dmeographics indiciate that is a family audience.	244746526	1478561622623	1478561622711	SHIFT	16
478612	5155796	All our demographics indicate that is a family audience.	All our dmeographics indiciate that is a family audience.	244746529	1478561622671	1478561622751	A	65
478612	5155796	All our demographics indicate that is a family audience.	All our dmeographics indiciate that is a family audience.	244746533	1478561622815	1478561622855	l	76
478612	5155796	All our demographics indicate that is a family audience.	All our dmeographics indiciate that is a family audience.	244746536	1478561622951	1478561623031	l	76
478612	5155796	All our demographics indicate that is a family audience.	All our dmeographics indiciate that is a family audience.	244746538	1478561623031	1478561623111	 	32
478612	5155796	All our demographics indicate that is a family audience.	All our dmeographics indiciate that is a family audience.	244746539	1478561623127	1478561623231	o	79
478612	5155796	All our demographics indicate that is a family audience.	All our dmeographics indiciate that is a family audience.	244746553	1478561623207	1478561623311	u	85
478612	5155796	All our demographics indicate that is a family audience.	All our dmeographics indiciate that is a family audience.	244746556	1478561623287	1478561623335	r	82
478612	5155796	All our demographics indicate that is a family audience.	All our dmeographics indiciate that is a family audience.	244746558	1478561623376	1478561623463	 	32
478612	5155796	All our demographics indicate that is a family audience.	All our dmeographics indiciate that is a family audience.	244746560	1478561623503	1478561623551	d	68
478612	5155796	All our demographics indicate that is a family audience.	All our dmeographics indiciate that is a family audience.	244746563	1478561623631	1478561623727	m	77
478612	5155796	All our demographics indicate that is a family audience.	All our dmeographics indiciate that is a family audience.	244746569	1478561623663	1478561623751	e	69
478612	5155796	All our demographics indicate that is a family audience.	All our dmeographics indiciate that is a family audience.	244746571	1478561623728	1478561623807	o	79
478612	5155796	All our demographics indicate that is a family audience.	All our dmeographics indiciate that is a family audience.	244746574	1478561623823	1478561623871	g	71
478612	5155796	All our demographics indicate that is a family audience.	All our dmeographics indiciate that is a family audience.	244746576	1478561623975	1478561624071	r	82
478612	5155796	All our demographics indicate that is a family audience.	All our dmeographics indiciate that is a family audience.	244746577	1478561624047	1478561624151	a	65
478612	5155796	All our demographics indicate that is a family audience.	All our dmeographics indiciate that is a family audience.	244746594	1478561624127	1478561624175	p	80
478612	5155796	All our demographics indicate that is a family audience.	All our dmeographics indiciate that is a family audience.	244746597	1478561624215	1478561624343	h	72
478612	5155796	All our demographics indicate that is a family audience.	All our dmeographics indiciate that is a family audience.	244746602	1478561624319	1478561624407	i	73
478612	5155796	All our demographics indicate that is a family audience.	All our dmeographics indiciate that is a family audience.	244746607	1478561624407	1478561624487	c	67
478612	5155796	All our demographics indicate that is a family audience.	All our dmeographics indiciate that is a family audience.	244746612	1478561624487	1478561624551	s	83
478612	5155796	All our demographics indicate that is a family audience.	All our dmeographics indiciate that is a family audience.	244746615	1478561624551	1478561624623	 	32
478612	5155796	All our demographics indicate that is a family audience.	All our dmeographics indiciate that is a family audience.	244746627	1478561624647	1478561624751	i	73
478612	5155796	All our demographics indicate that is a family audience.	All our dmeographics indiciate that is a family audience.	244746630	1478561624727	1478561624783	n	78
478612	5155796	All our demographics indicate that is a family audience.	All our dmeographics indiciate that is a family audience.	244746634	1478561624847	1478561624903	d	68
478612	5155796	All our demographics indicate that is a family audience.	All our dmeographics indiciate that is a family audience.	244746638	1478561624919	1478561624983	i	73
478612	5155796	All our demographics indicate that is a family audience.	All our dmeographics indiciate that is a family audience.	244746642	1478561625023	1478561625103	c	67
478612	5155796	All our demographics indicate that is a family audience.	All our dmeographics indiciate that is a family audience.	244746646	1478561625119	1478561625135	i	73
478612	5155796	All our demographics indicate that is a family audience.	All our dmeographics indiciate that is a family audience.	244746650	1478561625151	1478561625279	a	65
478612	5155796	All our demographics indicate that is a family audience.	All our dmeographics indiciate that is a family audience.	244746653	1478561625255	1478561625351	t	84
478612	5155796	All our demographics indicate that is a family audience.	All our dmeographics indiciate that is a family audience.	244746655	1478561625327	1478561625407	e	69
478612	5155796	All our demographics indicate that is a family audience.	All our dmeographics indiciate that is a family audience.	244746659	1478561625383	1478561625463	 	32
478612	5155796	All our demographics indicate that is a family audience.	All our dmeographics indiciate that is a family audience.	244746660	1478561625495	1478561625567	t	84
478612	5155796	All our demographics indicate that is a family audience.	All our dmeographics indiciate that is a family audience.	244746661	1478561625567	1478561625639	h	72
478612	5155796	All our demographics indicate that is a family audience.	All our dmeographics indiciate that is a family audience.	244746662	1478561625615	1478561625711	a	65
478612	5155796	All our demographics indicate that is a family audience.	All our dmeographics indiciate that is a family audience.	244746663	1478561625671	1478561625767	t	84
478612	5155796	All our demographics indicate that is a family audience.	All our dmeographics indiciate that is a family audience.	244746679	1478561625743	1478561625831	 	32
478612	5155796	All our demographics indicate that is a family audience.	All our dmeographics indiciate that is a family audience.	244746681	1478561625983	1478561626063	i	73
478612	5155796	All our demographics indicate that is a family audience.	All our dmeographics indiciate that is a family audience.	244746682	1478561626079	1478561626183	s	83
478612	5155796	All our demographics indicate that is a family audience.	All our dmeographics indiciate that is a family audience.	244746683	1478561626183	1478561626263	 	32
478612	5155796	All our demographics indicate that is a family audience.	All our dmeographics indiciate that is a family audience.	244746685	1478561626319	1478561626447	a	65
478612	5155796	All our demographics indicate that is a family audience.	All our dmeographics indiciate that is a family audience.	244746698	1478561626423	1478561626503	 	32
478612	5155796	All our demographics indicate that is a family audience.	All our dmeographics indiciate that is a family audience.	244746700	1478561626527	1478561626615	f	70
478612	5155796	All our demographics indicate that is a family audience.	All our dmeographics indiciate that is a family audience.	244746703	1478561626615	1478561626775	a	65
478612	5155796	All our demographics indicate that is a family audience.	All our dmeographics indiciate that is a family audience.	244746705	1478561626663	1478561626775	m	77
478612	5155796	All our demographics indicate that is a family audience.	All our dmeographics indiciate that is a family audience.	244746707	1478561626743	1478561626855	i	73
478612	5155796	All our demographics indicate that is a family audience.	All our dmeographics indiciate that is a family audience.	244746713	1478561626799	1478561626927	l	76
478612	5155796	All our demographics indicate that is a family audience.	All our dmeographics indiciate that is a family audience.	244746716	1478561626903	1478561626991	y	89
478612	5155796	All our demographics indicate that is a family audience.	All our dmeographics indiciate that is a family audience.	244746718	1478561626967	1478561627031	 	32
478612	5155796	All our demographics indicate that is a family audience.	All our dmeographics indiciate that is a family audience.	244746720	1478561627031	1478561627111	a	65
478612	5155796	All our demographics indicate that is a family audience.	All our dmeographics indiciate that is a family audience.	244746723	1478561627135	1478561627207	u	85
478612	5155796	All our demographics indicate that is a family audience.	All our dmeographics indiciate that is a family audience.	244746728	1478561627223	1478561627279	d	68
478612	5155796	All our demographics indicate that is a family audience.	All our dmeographics indiciate that is a family audience.	244746745	1478561627383	1478561627447	i	73
478612	5155796	All our demographics indicate that is a family audience.	All our dmeographics indiciate that is a family audience.	244746746	1478561627471	1478561627535	e	69
478612	5155796	All our demographics indicate that is a family audience.	All our dmeographics indiciate that is a family audience.	244746747	1478561627583	1478561627655	n	78
478612	5155796	All our demographics indicate that is a family audience.	All our dmeographics indiciate that is a family audience.	244746748	1478561627655	1478561627695	c	67
478612	5155796	All our demographics indicate that is a family audience.	All our dmeographics indiciate that is a family audience.	244746749	1478561627799	1478561627895	e	69
478612	5155796	All our demographics indicate that is a family audience.	All our dmeographics indiciate that is a family audience.	244746755	1478561627855	1478561627896	.	190
478612	5155804	Here's the September purchase for September.	here's the se[tember purchase for September.	244746862	1478561629951	1478561630039	SHIFT	16
478612	5155804	Here's the September purchase for September.	here's the se[tember purchase for September.	244746865	1478561630039	1478561630095	h	72
478612	5155804	Here's the September purchase for September.	here's the se[tember purchase for September.	244746868	1478561630111	1478561630207	e	69
478612	5155804	Here's the September purchase for September.	here's the se[tember purchase for September.	244746873	1478561630183	1478561630295	r	82
478612	5155804	Here's the September purchase for September.	here's the se[tember purchase for September.	244746877	1478561630271	1478561630374	e	69
478612	5155804	Here's the September purchase for September.	here's the se[tember purchase for September.	244746879	1478561630375	1478561630455	'	222
478612	5155804	Here's the September purchase for September.	here's the se[tember purchase for September.	244746888	1478561630479	1478561630567	s	83
478612	5155804	Here's the September purchase for September.	here's the se[tember purchase for September.	244746891	1478561630583	1478561630647	 	32
478612	5155804	Here's the September purchase for September.	here's the se[tember purchase for September.	244746894	1478561630663	1478561630735	t	84
478612	5155804	Here's the September purchase for September.	here's the se[tember purchase for September.	244746896	1478561630735	1478561630783	h	72
478612	5155804	Here's the September purchase for September.	here's the se[tember purchase for September.	244746898	1478561630799	1478561630879	e	69
478612	5155804	Here's the September purchase for September.	here's the se[tember purchase for September.	244746953	1478561630839	1478561630918	 	32
478612	5155804	Here's the September purchase for September.	here's the se[tember purchase for September.	244746955	1478561631079	1478561631271	s	83
478612	5155804	Here's the September purchase for September.	here's the se[tember purchase for September.	244746958	1478561631479	1478561631567	e	69
478612	5155804	Here's the September purchase for September.	here's the se[tember purchase for September.	244746961	1478561631638	1478561631695	[	219
478612	5155804	Here's the September purchase for September.	here's the se[tember purchase for September.	244746968	1478561631959	1478561632023	t	84
478612	5155804	Here's the September purchase for September.	here's the se[tember purchase for September.	244746972	1478561632094	1478561632175	e	69
478612	5155804	Here's the September purchase for September.	here's the se[tember purchase for September.	244746979	1478561632191	1478561632271	m	77
478612	5155804	Here's the September purchase for September.	here's the se[tember purchase for September.	244746983	1478561632271	1478561632311	b	66
478612	5155804	Here's the September purchase for September.	here's the se[tember purchase for September.	244746989	1478561632350	1478561632479	e	69
478612	5155804	Here's the September purchase for September.	here's the se[tember purchase for September.	244746993	1478561632455	1478561632559	r	82
478612	5155804	Here's the September purchase for September.	here's the se[tember purchase for September.	244747005	1478561632534	1478561632606	 	32
478612	5155804	Here's the September purchase for September.	here's the se[tember purchase for September.	244747007	1478561632638	1478561632734	p	80
478612	5155804	Here's the September purchase for September.	here's the se[tember purchase for September.	244747009	1478561632711	1478561632774	u	85
478612	5155804	Here's the September purchase for September.	here's the se[tember purchase for September.	244747011	1478561632775	1478561632823	r	82
478612	5155804	Here's the September purchase for September.	here's the se[tember purchase for September.	244747015	1478561632950	1478561633031	c	67
478612	5155804	Here's the September purchase for September.	here's the se[tember purchase for September.	244747027	1478561633007	1478561633071	h	72
478612	5155804	Here's the September purchase for September.	here's the se[tember purchase for September.	244747028	1478561633102	1478561633190	a	65
478612	5155804	Here's the September purchase for September.	here's the se[tember purchase for September.	244747030	1478561633151	1478561633263	s	83
478612	5155804	Here's the September purchase for September.	here's the se[tember purchase for September.	244747031	1478561633222	1478561633311	e	69
478612	5155804	Here's the September purchase for September.	here's the se[tember purchase for September.	244747033	1478561633286	1478561633351	 	32
478612	5155804	Here's the September purchase for September.	here's the se[tember purchase for September.	244747034	1478561633407	1478561633487	f	70
478612	5155804	Here's the September purchase for September.	here's the se[tember purchase for September.	244747047	1478561633463	1478561633518	o	79
478612	5155804	Here's the September purchase for September.	here's the se[tember purchase for September.	244747049	1478561633542	1478561633615	r	82
478612	5155804	Here's the September purchase for September.	here's the se[tember purchase for September.	244747052	1478561633591	1478561633694	 	32
478612	5155804	Here's the September purchase for September.	here's the se[tember purchase for September.	244747055	1478561633670	1478561633766	SHIFT	16
478612	5155804	Here's the September purchase for September.	here's the se[tember purchase for September.	244747059	1478561633742	1478561633831	S	83
478612	5155804	Here's the September purchase for September.	here's the se[tember purchase for September.	244747063	1478561633806	1478561633911	e	69
478612	5155804	Here's the September purchase for September.	here's the se[tember purchase for September.	244747066	1478561633911	1478561633975	p	80
478612	5155804	Here's the September purchase for September.	here's the se[tember purchase for September.	244747079	1478561633998	1478561634055	t	84
478612	5155804	Here's the September purchase for September.	here's the se[tember purchase for September.	244747080	1478561634102	1478561634207	e	69
478612	5155804	Here's the September purchase for September.	here's the se[tember purchase for September.	244747081	1478561634207	1478561634286	m	77
478612	5155804	Here's the September purchase for September.	here's the se[tember purchase for September.	244747082	1478561634302	1478561634334	b	66
478612	5155804	Here's the September purchase for September.	here's the se[tember purchase for September.	244747084	1478561634374	1478561634502	e	69
478612	5155804	Here's the September purchase for September.	here's the se[tember purchase for September.	244747094	1478561634478	1478561634534	r	82
478612	5155804	Here's the September purchase for September.	here's the se[tember purchase for September.	244747097	1478561634686	1478561634742	.	190
478612	5155808	Has anyone else heard anything?	Has anyhone else heard anything?>	244747190	1478561637127	1478561637207	SHIFT	16
478612	5155808	Has anyone else heard anything?	Has anyhone else heard anything?>	244747193	1478561637167	1478561637231	H	72
478612	5155808	Has anyone else heard anything?	Has anyhone else heard anything?>	244747196	1478561637303	1478561637383	a	65
478612	5155808	Has anyone else heard anything?	Has anyhone else heard anything?>	244747199	1478561637351	1478561637455	s	83
478612	5155808	Has anyone else heard anything?	Has anyhone else heard anything?>	244747202	1478561637431	1478561637495	 	32
478612	5155808	Has anyone else heard anything?	Has anyhone else heard anything?>	244747221	1478561637527	1478561637639	a	65
478612	5155808	Has anyone else heard anything?	Has anyhone else heard anything?>	244747208	1478561637583	1478561637623	n	78
478612	5155808	Has anyone else heard anything?	Has anyhone else heard anything?>	244747225	1478561637727	1478561637783	h	89
478612	5155808	Has anyone else heard anything?	Has anyhone else heard anything?>	244747229	1478561637784	1478561637919	o	79
478612	5155808	Has anyone else heard anything?	Has anyhone else heard anything?>	244747232	1478561637895	1478561637959	n	78
478612	5155808	Has anyone else heard anything?	Has anyhone else heard anything?>	244747236	1478561637975	1478561638023	e	69
478612	5155808	Has anyone else heard anything?	Has anyhone else heard anything?>	244747231	1478561638039	1478561638111	 	32
478612	5155808	Has anyone else heard anything?	Has anyhone else heard anything?>	244747234	1478561638135	1478561638199	e	69
478612	5155808	Has anyone else heard anything?	Has anyhone else heard anything?>	244747238	1478561638200	1478561638247	l	76
478612	5155808	Has anyone else heard anything?	Has anyhone else heard anything?>	244747242	1478561638263	1478561638367	s	83
478612	5155808	Has anyone else heard anything?	Has anyhone else heard anything?>	244747253	1478561638319	1478561638407	e	69
478612	5155808	Has anyone else heard anything?	Has anyhone else heard anything?>	244747257	1478561638368	1478561638455	 	32
478612	5155808	Has anyone else heard anything?	Has anyhone else heard anything?>	244747258	1478561638431	1478561638519	h	72
478612	5155808	Has anyone else heard anything?	Has anyhone else heard anything?>	244747261	1478561638519	1478561638591	e	69
478612	5155808	Has anyone else heard anything?	Has anyhone else heard anything?>	244747263	1478561638567	1478561638671	a	65
478612	5155808	Has anyone else heard anything?	Has anyhone else heard anything?>	244747280	1478561638631	1478561638687	r	82
478612	5155808	Has anyone else heard anything?	Has anyhone else heard anything?>	244747281	1478561638799	1478561638911	d	68
478612	5155808	Has anyone else heard anything?	Has anyhone else heard anything?>	244747282	1478561638967	1478561639055	 	32
478612	5155808	Has anyone else heard anything?	Has anyhone else heard anything?>	244747283	1478561639087	1478561639207	a	65
478612	5155808	Has anyone else heard anything?	Has anyhone else heard anything?>	244747284	1478561639183	1478561639223	n	78
478612	5155808	Has anyone else heard anything?	Has anyhone else heard anything?>	244747285	1478561639311	1478561639375	y	89
478612	5155808	Has anyone else heard anything?	Has anyhone else heard anything?>	244747293	1478561639415	1478561639503	t	84
478612	5155808	Has anyone else heard anything?	Has anyhone else heard anything?>	244747296	1478561639479	1478561639575	h	72
478612	5155808	Has anyone else heard anything?	Has anyhone else heard anything?>	244747298	1478561639551	1478561639671	i	73
478612	5155808	Has anyone else heard anything?	Has anyhone else heard anything?>	244747300	1478561639647	1478561639719	n	78
478612	5155808	Has anyone else heard anything?	Has anyhone else heard anything?>	244747307	1478561639695	1478561639743	g	71
478612	5155808	Has anyone else heard anything?	Has anyhone else heard anything?>	244747310	1478561639887	1478561639951	?	191
478612	5155808	Has anyone else heard anything?	Has anyhone else heard anything?>	244747309	1478561639919	1478561639951	>	190
478612	5155812	But we should pay them the 4500.	but we should pay them the 45000.	244747411	1478561641919	1478561641951	b	66
478612	5155812	But we should pay them the 4500.	but we should pay them the 45000.	244747415	1478561642007	1478561642071	u	85
478612	5155812	But we should pay them the 4500.	but we should pay them the 45000.	244747420	1478561642087	1478561642143	t	84
478612	5155812	But we should pay them the 4500.	but we should pay them the 45000.	244747424	1478561642183	1478561642279	 	32
478612	5155812	But we should pay them the 4500.	but we should pay them the 45000.	244747426	1478561642503	1478561642615	w	87
478612	5155812	But we should pay them the 4500.	but we should pay them the 45000.	244747433	1478561642591	1478561642663	e	69
478612	5155812	But we should pay them the 4500.	but we should pay them the 45000.	244747434	1478561642663	1478561642743	 	32
478612	5155812	But we should pay them the 4500.	but we should pay them the 45000.	244747435	1478561642783	1478561642903	s	83
478612	5155812	But we should pay them the 4500.	but we should pay them the 45000.	244747437	1478561642879	1478561642931	h	72
478612	5155812	But we should pay them the 4500.	but we should pay them the 45000.	244747441	1478561642955	1478561643035	o	79
478612	5155812	But we should pay them the 4500.	but we should pay them the 45000.	244747446	1478561643051	1478561643171	u	85
478612	5155812	But we should pay them the 4500.	but we should pay them the 45000.	244747454	1478561643139	1478561643172	l	76
478612	5155812	But we should pay them the 4500.	but we should pay them the 45000.	244747456	1478561643172	1478561643227	d	68
478612	5155812	But we should pay them the 4500.	but we should pay them the 45000.	244747457	1478561643259	1478561643347	 	32
478612	5155812	But we should pay them the 4500.	but we should pay them the 45000.	244747458	1478561643323	1478561643387	p	80
478612	5155812	But we should pay them the 4500.	but we should pay them the 45000.	244747459	1478561643411	1478561643523	a	65
478612	5155812	But we should pay them the 4500.	but we should pay them the 45000.	244747464	1478561643491	1478561643563	y	89
478612	5155812	But we should pay them the 4500.	but we should pay them the 45000.	244747466	1478561643524	1478561643595	 	32
478612	5155812	But we should pay them the 4500.	but we should pay them the 45000.	244747469	1478561643627	1478561643691	t	84
478612	5155812	But we should pay them the 4500.	but we should pay them the 45000.	244747472	1478561643691	1478561643747	h	72
478612	5155812	But we should pay them the 4500.	but we should pay them the 45000.	244747473	1478561643779	1478561643867	e	69
478612	5155812	But we should pay them the 4500.	but we should pay them the 45000.	244747475	1478561643867	1478561643963	m	77
478612	5155812	But we should pay them the 4500.	but we should pay them the 45000.	244747506	1478561643939	1478561644027	 	32
478612	5155812	But we should pay them the 4500.	but we should pay them the 45000.	244747509	1478561644067	1478561644131	t	84
478612	5155812	But we should pay them the 4500.	but we should pay them the 45000.	244747513	1478561644131	1478561644195	h	72
478612	5155812	But we should pay them the 4500.	but we should pay them the 45000.	244747518	1478561644219	1478561644323	e	69
478612	5155812	But we should pay them the 4500.	but we should pay them the 45000.	244747524	1478561644267	1478561644347	 	32
478612	5155812	But we should pay them the 4500.	but we should pay them the 45000.	244747529	1478561644899	1478561644979	4	52
478612	5155812	But we should pay them the 4500.	but we should pay them the 45000.	244747552	1478561645131	1478561645203	5	53
478612	5155812	But we should pay them the 4500.	but we should pay them the 45000.	244747554	1478561645283	1478561645331	0	48
478612	5155812	But we should pay them the 4500.	but we should pay them the 45000.	244747557	1478561645387	1478561645459	0	48
478612	5155812	But we should pay them the 4500.	but we should pay them the 45000.	244747559	1478561645507	1478561645531	0	48
478612	5155812	But we should pay them the 4500.	but we should pay them the 45000.	244747564	1478561645571	1478561645619	.	190
478612	5155817	If so he probably will have to pay back.	If so he probably will have to pay back.	244747650	1478561647579	1478561647675	SHIFT	16
478612	5155817	If so he probably will have to pay back.	If so he probably will have to pay back.	244747653	1478561647651	1478561647698	I	73
478612	5155817	If so he probably will have to pay back.	If so he probably will have to pay back.	244747656	1478561647739	1478561647819	f	70
478612	5155817	If so he probably will have to pay back.	If so he probably will have to pay back.	244747658	1478561647819	1478561647891	 	32
478612	5155817	If so he probably will have to pay back.	If so he probably will have to pay back.	244747660	1478561647931	1478561648035	s	83
478612	5155817	If so he probably will have to pay back.	If so he probably will have to pay back.	244747673	1478561647987	1478561648059	o	79
478612	5155817	If so he probably will have to pay back.	If so he probably will have to pay back.	244747675	1478561648036	1478561648106	 	32
478612	5155817	If so he probably will have to pay back.	If so he probably will have to pay back.	244747678	1478561648123	1478561648195	h	72
478612	5155817	If so he probably will have to pay back.	If so he probably will have to pay back.	244747681	1478561648219	1478561648291	e	69
478612	5155817	If so he probably will have to pay back.	If so he probably will have to pay back.	244747684	1478561648291	1478561648379	 	32
478612	5155817	If so he probably will have to pay back.	If so he probably will have to pay back.	244747688	1478561648379	1478561648435	p	80
478612	5155817	If so he probably will have to pay back.	If so he probably will have to pay back.	244747689	1478561648459	1478561648499	r	82
478612	5155817	If so he probably will have to pay back.	If so he probably will have to pay back.	244747692	1478561648538	1478561648611	o	79
478612	5155817	If so he probably will have to pay back.	If so he probably will have to pay back.	244747694	1478561648627	1478561648667	b	66
478612	5155817	If so he probably will have to pay back.	If so he probably will have to pay back.	244747697	1478561648682	1478561648787	a	65
478612	5155817	If so he probably will have to pay back.	If so he probably will have to pay back.	244747702	1478561648787	1478561648859	b	66
478612	5155817	If so he probably will have to pay back.	If so he probably will have to pay back.	244747712	1478561648819	1478561648907	l	76
478612	5155817	If so he probably will have to pay back.	If so he probably will have to pay back.	244747715	1478561648883	1478561648963	y	89
478612	5155817	If so he probably will have to pay back.	If so he probably will have to pay back.	244747718	1478561648938	1478561648994	 	32
478612	5155817	If so he probably will have to pay back.	If so he probably will have to pay back.	244747722	1478561649010	1478561649115	w	87
478612	5155817	If so he probably will have to pay back.	If so he probably will have to pay back.	244747731	1478561649091	1478561649138	i	73
478612	5155817	If so he probably will have to pay back.	If so he probably will have to pay back.	244747734	1478561649243	1478561649275	l	76
478612	5155817	If so he probably will have to pay back.	If so he probably will have to pay back.	244747740	1478561649363	1478561649483	l	76
478612	5155817	If so he probably will have to pay back.	If so he probably will have to pay back.	244747744	1478561649387	1478561649507	 	32
478612	5155817	If so he probably will have to pay back.	If so he probably will have to pay back.	244747747	1478561649483	1478561649530	h	72
478612	5155817	If so he probably will have to pay back.	If so he probably will have to pay back.	244747749	1478561649554	1478561649587	v	65
478612	5155817	If so he probably will have to pay back.	If so he probably will have to pay back.	244747756	1478561649588	1478561649683	e	69
478612	5155817	If so he probably will have to pay back.	If so he probably will have to pay back.	244747757	1478561649658	1478561649706	 	32
478612	5155817	If so he probably will have to pay back.	If so he probably will have to pay back.	244747761	1478561649754	1478561649835	t	84
478612	5155817	If so he probably will have to pay back.	If so he probably will have to pay back.	244747764	1478561649811	1478561649891	o	79
478612	5155817	If so he probably will have to pay back.	If so he probably will have to pay back.	244747784	1478561649866	1478561649947	 	32
478612	5155817	If so he probably will have to pay back.	If so he probably will have to pay back.	244747787	1478561649970	1478561650042	p	80
478612	5155817	If so he probably will have to pay back.	If so he probably will have to pay back.	244747789	1478561650066	1478561650163	a	65
478612	5155817	If so he probably will have to pay back.	If so he probably will have to pay back.	244747791	1478561650139	1478561650227	y	89
478612	5155817	If so he probably will have to pay back.	If so he probably will have to pay back.	244747794	1478561650202	1478561650274	 	32
478612	5155817	If so he probably will have to pay back.	If so he probably will have to pay back.	244747797	1478561650298	1478561650387	b	66
478612	5155817	If so he probably will have to pay back.	If so he probably will have to pay back.	244747799	1478561650363	1478561650426	a	65
478612	5155817	If so he probably will have to pay back.	If so he probably will have to pay back.	244747801	1478561650482	1478561650587	c	67
478612	5155817	If so he probably will have to pay back.	If so he probably will have to pay back.	244747804	1478561650547	1478561650587	k	75
478612	5155817	If so he probably will have to pay back.	If so he probably will have to pay back.	244747806	1478561650698	1478561650754	.	190
478612	5155823	I think I played three different courses.	I think I played three different courses.	244747872	1478561652610	1478561652714	SHIFT	16
478612	5155823	I think I played three different courses.	I think I played three different courses.	244747874	1478561652690	1478561652754	I	73
478612	5155823	I think I played three different courses.	I think I played three different courses.	244747877	1478561652755	1478561652810	 	32
478612	5155823	I think I played three different courses.	I think I played three different courses.	244747882	1478561652826	1478561652906	t	84
478612	5155823	I think I played three different courses.	I think I played three different courses.	244747886	1478561652866	1478561652954	h	72
478612	5155823	I think I played three different courses.	I think I played three different courses.	244747898	1478561652930	1478561652955	i	73
478612	5155823	I think I played three different courses.	I think I played three different courses.	244747901	1478561653019	1478561653138	n	78
478612	5155823	I think I played three different courses.	I think I played three different courses.	244747905	1478561653074	1478561653162	k	75
478612	5155823	I think I played three different courses.	I think I played three different courses.	244747909	1478561653139	1478561653211	 	32
478612	5155823	I think I played three different courses.	I think I played three different courses.	244747915	1478561653259	1478561653387	SHIFT	16
478612	5155823	I think I played three different courses.	I think I played three different courses.	244747921	1478561653323	1478561653388	I	73
478612	5155823	I think I played three different courses.	I think I played three different courses.	244747926	1478561653403	1478561653467	 	32
478612	5155823	I think I played three different courses.	I think I played three different courses.	244747938	1478561653484	1478561653523	p	80
478612	5155823	I think I played three different courses.	I think I played three different courses.	244747943	1478561653619	1478561653683	l	76
478612	5155823	I think I played three different courses.	I think I played three different courses.	244747948	1478561653699	1478561653787	a	65
478612	5155823	I think I played three different courses.	I think I played three different courses.	244747950	1478561653763	1478561653835	y	89
478612	5155823	I think I played three different courses.	I think I played three different courses.	244747953	1478561653851	1478561653891	e	69
478612	5155823	I think I played three different courses.	I think I played three different courses.	244747964	1478561653987	1478561654083	d	68
478612	5155823	I think I played three different courses.	I think I played three different courses.	244747966	1478561654059	1478561654131	 	32
478612	5155823	I think I played three different courses.	I think I played three different courses.	244747969	1478561654163	1478561654211	t	84
478612	5155823	I think I played three different courses.	I think I played three different courses.	244747972	1478561654227	1478561654299	h	72
478612	5155823	I think I played three different courses.	I think I played three different courses.	244747973	1478561654315	1478561654379	r	82
478612	5155823	I think I played three different courses.	I think I played three different courses.	244747979	1478561654355	1478561654395	e	69
478612	5155823	I think I played three different courses.	I think I played three different courses.	244747980	1478561654467	1478561654555	e	69
478612	5155823	I think I played three different courses.	I think I played three different courses.	244747981	1478561654571	1478561654627	 	32
478612	5155823	I think I played three different courses.	I think I played three different courses.	244747983	1478561654659	1478561654763	d	68
478612	5155823	I think I played three different courses.	I think I played three different courses.	244747984	1478561654739	1478561654803	i	73
478612	5155823	I think I played three different courses.	I think I played three different courses.	244747986	1478561654827	1478561654899	f	70
478612	5155823	I think I played three different courses.	I think I played three different courses.	244748041	1478561655131	1478561655235	f	70
478612	5155823	I think I played three different courses.	I think I played three different courses.	244748044	1478561655355	1478561655435	e	69
478612	5155823	I think I played three different courses.	I think I played three different courses.	244748047	1478561655467	1478561655571	r	82
478612	5155823	I think I played three different courses.	I think I played three different courses.	244748050	1478561655572	1478561655643	e	69
478612	5155823	I think I played three different courses.	I think I played three different courses.	244748052	1478561656083	1478561656155	n	78
478612	5155823	I think I played three different courses.	I think I played three different courses.	244748058	1478561656187	1478561656259	t	84
478612	5155823	I think I played three different courses.	I think I played three different courses.	244748059	1478561656299	1478561656371	 	32
478612	5155823	I think I played three different courses.	I think I played three different courses.	244748060	1478561656395	1478561656491	c	67
478612	5155823	I think I played three different courses.	I think I played three different courses.	244748061	1478561656467	1478561656555	o	79
478612	5155823	I think I played three different courses.	I think I played three different courses.	244748072	1478561656531	1478561656603	u	85
478612	5155823	I think I played three different courses.	I think I played three different courses.	244748075	1478561656579	1478561656619	r	82
478612	5155823	I think I played three different courses.	I think I played three different courses.	244748081	1478561656683	1478561656803	s	83
478612	5155823	I think I played three different courses.	I think I played three different courses.	244748085	1478561656779	1478561656883	e	69
478612	5155823	I think I played three different courses.	I think I played three different courses.	244748089	1478561656915	1478561657011	s	83
478612	5155823	I think I played three different courses.	I think I played three different courses.	244748092	1478561657035	1478561657091	.	190
478612	5155827	The reserve wideout is day-to-day.	The reserve wideout is day-topday.	244748183	1478561658891	1478561658995	SHIFT	16
478612	5155827	The reserve wideout is day-to-day.	The reserve wideout is day-topday.	244748184	1478561658939	1478561659011	T	84
478612	5155827	The reserve wideout is day-to-day.	The reserve wideout is day-topday.	244748187	1478561659051	1478561659123	h	72
478612	5155827	The reserve wideout is day-to-day.	The reserve wideout is day-topday.	244748189	1478561659099	1478561659171	e	69
478612	5155827	The reserve wideout is day-to-day.	The reserve wideout is day-topday.	244748192	1478561659187	1478561659315	 	32
478612	5155827	The reserve wideout is day-to-day.	The reserve wideout is day-topday.	244748195	1478561659355	1478561659435	r	82
478612	5155827	The reserve wideout is day-to-day.	The reserve wideout is day-topday.	244748204	1478561659483	1478561659555	e	69
478612	5155827	The reserve wideout is day-to-day.	The reserve wideout is day-topday.	244748205	1478561659555	1478561659675	s	83
478612	5155827	The reserve wideout is day-to-day.	The reserve wideout is day-topday.	244748206	1478561659651	1478561659747	e	69
478612	5155827	The reserve wideout is day-to-day.	The reserve wideout is day-topday.	244748207	1478561659707	1478561659763	r	82
478612	5155827	The reserve wideout is day-to-day.	The reserve wideout is day-topday.	244748208	1478561659867	1478561659955	v	86
478612	5155827	The reserve wideout is day-to-day.	The reserve wideout is day-topday.	244748221	1478561659956	1478561660043	e	69
478612	5155827	The reserve wideout is day-to-day.	The reserve wideout is day-topday.	244748224	1478561660059	1478561660155	 	32
478612	5155827	The reserve wideout is day-to-day.	The reserve wideout is day-topday.	244748227	1478561660267	1478561660387	w	87
478612	5155827	The reserve wideout is day-to-day.	The reserve wideout is day-topday.	244748232	1478561660363	1478561660419	i	73
478612	5155827	The reserve wideout is day-to-day.	The reserve wideout is day-topday.	244748233	1478561660459	1478561660515	d	68
478612	5155827	The reserve wideout is day-to-day.	The reserve wideout is day-topday.	244748246	1478561660627	1478561660707	e	69
478612	5155827	The reserve wideout is day-to-day.	The reserve wideout is day-topday.	244748248	1478561660731	1478561660835	o	79
478612	5155827	The reserve wideout is day-to-day.	The reserve wideout is day-topday.	244748249	1478561660811	1478561660859	u	85
478612	5155827	The reserve wideout is day-to-day.	The reserve wideout is day-topday.	244748250	1478561660899	1478561660963	t	84
478612	5155827	The reserve wideout is day-to-day.	The reserve wideout is day-topday.	244748251	1478561660979	1478561661075	 	32
478612	5155827	The reserve wideout is day-to-day.	The reserve wideout is day-topday.	244748265	1478561661051	1478561661123	i	73
478612	5155827	The reserve wideout is day-to-day.	The reserve wideout is day-topday.	244748266	1478561661123	1478561661179	s	83
478612	5155827	The reserve wideout is day-to-day.	The reserve wideout is day-topday.	244748268	1478561661203	1478561661299	 	32
478612	5155827	The reserve wideout is day-to-day.	The reserve wideout is day-topday.	244748272	1478561661299	1478561661331	d	68
478612	5155827	The reserve wideout is day-to-day.	The reserve wideout is day-topday.	244748277	1478561661459	1478561661595	a	65
478612	5155827	The reserve wideout is day-to-day.	The reserve wideout is day-topday.	244748309	1478561661555	1478561661611	y	89
478612	5155827	The reserve wideout is day-to-day.	The reserve wideout is day-topday.	244748313	1478561661939	1478561661995	-	189
478612	5155827	The reserve wideout is day-to-day.	The reserve wideout is day-topday.	244748316	1478561662067	1478561662131	t	84
478612	5155827	The reserve wideout is day-to-day.	The reserve wideout is day-topday.	244748322	1478561662227	1478561662275	o	79
478612	5155827	The reserve wideout is day-to-day.	The reserve wideout is day-topday.	244748323	1478561662507	1478561662563	p	80
478612	5155827	The reserve wideout is day-to-day.	The reserve wideout is day-topday.	244748326	1478561662707	1478561662795	d	68
478612	5155827	The reserve wideout is day-to-day.	The reserve wideout is day-topday.	244748335	1478561662811	1478561662931	a	65
478612	5155827	The reserve wideout is day-to-day.	The reserve wideout is day-topday.	244748337	1478561662931	1478561662987	y	89
478612	5155827	The reserve wideout is day-to-day.	The reserve wideout is day-topday.	244748339	1478561663187	1478561663227	.	190
478612	5155836	The Senate vote undercut him the day before the Geneva talks.	The Senate vote undercut him the day before the Geneva talks.	244748408	1478561665259	1478561665339	SHIFT	16
478612	5155836	The Senate vote undercut him the day before the Geneva talks.	The Senate vote undercut him the day before the Geneva talks.	244748410	1478561665315	1478561665370	T	84
478612	5155836	The Senate vote undercut him the day before the Geneva talks.	The Senate vote undercut him the day before the Geneva talks.	244748412	1478561665411	1478561665491	h	72
478612	5155836	The Senate vote undercut him the day before the Geneva talks.	The Senate vote undercut him the day before the Geneva talks.	244748414	1478561665467	1478561665555	e	69
478612	5155836	The Senate vote undercut him the day before the Geneva talks.	The Senate vote undercut him the day before the Geneva talks.	244748416	1478561665531	1478561665626	 	32
478612	5155836	The Senate vote undercut him the day before the Geneva talks.	The Senate vote undercut him the day before the Geneva talks.	244748418	1478561665658	1478561665779	SHIFT	16
478612	5155836	The Senate vote undercut him the day before the Geneva talks.	The Senate vote undercut him the day before the Geneva talks.	244748435	1478561665739	1478561665835	S	83
478612	5155836	The Senate vote undercut him the day before the Geneva talks.	The Senate vote undercut him the day before the Geneva talks.	244748438	1478561665811	1478561665906	e	69
478612	5155836	The Senate vote undercut him the day before the Geneva talks.	The Senate vote undercut him the day before the Geneva talks.	244748443	1478561665931	1478561666011	n	78
478612	5155836	The Senate vote undercut him the day before the Geneva talks.	The Senate vote undercut him the day before the Geneva talks.	244748447	1478561666011	1478561666099	a	65
478612	5155836	The Senate vote undercut him the day before the Geneva talks.	The Senate vote undercut him the day before the Geneva talks.	244748450	1478561666075	1478561666154	t	84
478612	5155836	The Senate vote undercut him the day before the Geneva talks.	The Senate vote undercut him the day before the Geneva talks.	244748453	1478561666155	1478561666259	e	69
478612	5155836	The Senate vote undercut him the day before the Geneva talks.	The Senate vote undercut him the day before the Geneva talks.	244748482	1478561666235	1478561666323	 	32
478612	5155836	The Senate vote undercut him the day before the Geneva talks.	The Senate vote undercut him the day before the Geneva talks.	244748484	1478561666466	1478561666515	v	86
478612	5155836	The Senate vote undercut him the day before the Geneva talks.	The Senate vote undercut him the day before the Geneva talks.	244748487	1478561666530	1478561666619	o	79
478612	5155836	The Senate vote undercut him the day before the Geneva talks.	The Senate vote undercut him the day before the Geneva talks.	244748490	1478561666650	1478561666739	t	84
478612	5155836	The Senate vote undercut him the day before the Geneva talks.	The Senate vote undercut him the day before the Geneva talks.	244748492	1478561666739	1478561666843	e	69
478612	5155836	The Senate vote undercut him the day before the Geneva talks.	The Senate vote undercut him the day before the Geneva talks.	244748499	1478561666819	1478561666906	 	32
478612	5155836	The Senate vote undercut him the day before the Geneva talks.	The Senate vote undercut him the day before the Geneva talks.	244748502	1478561666922	1478561666971	u	85
478612	5155836	The Senate vote undercut him the day before the Geneva talks.	The Senate vote undercut him the day before the Geneva talks.	244748505	1478561667066	1478561667155	n	78
478612	5155836	The Senate vote undercut him the day before the Geneva talks.	The Senate vote undercut him the day before the Geneva talks.	244748508	1478561667131	1478561667170	d	68
478612	5155836	The Senate vote undercut him the day before the Geneva talks.	The Senate vote undercut him the day before the Geneva talks.	244748510	1478561667266	1478561667363	e	69
478612	5155836	The Senate vote undercut him the day before the Geneva talks.	The Senate vote undercut him the day before the Geneva talks.	244748539	1478561667339	1478561667386	r	82
478612	5155836	The Senate vote undercut him the day before the Geneva talks.	The Senate vote undercut him the day before the Geneva talks.	244748542	1478561667498	1478561667571	c	67
478612	5155836	The Senate vote undercut him the day before the Geneva talks.	The Senate vote undercut him the day before the Geneva talks.	244748547	1478561667586	1478561667659	u	85
478612	5155836	The Senate vote undercut him the day before the Geneva talks.	The Senate vote undercut him the day before the Geneva talks.	244748550	1478561667682	1478561667739	t	84
478612	5155836	The Senate vote undercut him the day before the Geneva talks.	The Senate vote undercut him the day before the Geneva talks.	244748552	1478561667786	1478561667867	 	32
478612	5155836	The Senate vote undercut him the day before the Geneva talks.	The Senate vote undercut him the day before the Geneva talks.	244748555	1478561667986	1478561668083	h	72
478612	5155836	The Senate vote undercut him the day before the Geneva talks.	The Senate vote undercut him the day before the Geneva talks.	244748573	1478561668059	1478561668122	i	73
478612	5155836	The Senate vote undercut him the day before the Geneva talks.	The Senate vote undercut him the day before the Geneva talks.	244748576	1478561668170	1478561668259	m	77
478612	5155836	The Senate vote undercut him the day before the Geneva talks.	The Senate vote undercut him the day before the Geneva talks.	244748578	1478561668282	1478561668371	 	32
478612	5155836	The Senate vote undercut him the day before the Geneva talks.	The Senate vote undercut him the day before the Geneva talks.	244748579	1478561668418	1478561668498	t	84
478612	5155836	The Senate vote undercut him the day before the Geneva talks.	The Senate vote undercut him the day before the Geneva talks.	244748580	1478561668475	1478561668530	h	72
478612	5155836	The Senate vote undercut him the day before the Geneva talks.	The Senate vote undercut him the day before the Geneva talks.	244748581	1478561668531	1478561668595	e	69
478612	5155836	The Senate vote undercut him the day before the Geneva talks.	The Senate vote undercut him the day before the Geneva talks.	244748582	1478561668610	1478561668690	 	32
478612	5155836	The Senate vote undercut him the day before the Geneva talks.	The Senate vote undercut him the day before the Geneva talks.	244748583	1478561668706	1478561668802	d	68
478612	5155836	The Senate vote undercut him the day before the Geneva talks.	The Senate vote undercut him the day before the Geneva talks.	244748584	1478561668779	1478561668866	a	65
478612	5155836	The Senate vote undercut him the day before the Geneva talks.	The Senate vote undercut him the day before the Geneva talks.	244748587	1478561668826	1478561668922	y	89
478612	5155836	The Senate vote undercut him the day before the Geneva talks.	The Senate vote undercut him the day before the Geneva talks.	244748616	1478561668898	1478561668980	 	32
478612	5155836	The Senate vote undercut him the day before the Geneva talks.	The Senate vote undercut him the day before the Geneva talks.	244748618	1478561668994	1478561669050	b	66
478612	5155836	The Senate vote undercut him the day before the Geneva talks.	The Senate vote undercut him the day before the Geneva talks.	244748620	1478561669090	1478561669202	e	69
478612	5155836	The Senate vote undercut him the day before the Geneva talks.	The Senate vote undercut him the day before the Geneva talks.	244748622	1478561669218	1478561669282	f	70
478612	5155836	The Senate vote undercut him the day before the Geneva talks.	The Senate vote undercut him the day before the Geneva talks.	244748624	1478561669330	1478561669402	o	79
478612	5155836	The Senate vote undercut him the day before the Geneva talks.	The Senate vote undercut him the day before the Geneva talks.	244748626	1478561669418	1478561669482	r	82
478612	5155836	The Senate vote undercut him the day before the Geneva talks.	The Senate vote undercut him the day before the Geneva talks.	244748636	1478561669459	1478561669530	e	69
478612	5155836	The Senate vote undercut him the day before the Geneva talks.	The Senate vote undercut him the day before the Geneva talks.	244748639	1478561669531	1478561669602	 	32
478612	5155836	The Senate vote undercut him the day before the Geneva talks.	The Senate vote undercut him the day before the Geneva talks.	244748641	1478561669626	1478561669714	t	84
478612	5155836	The Senate vote undercut him the day before the Geneva talks.	The Senate vote undercut him the day before the Geneva talks.	244748644	1478561669691	1478561669746	h	72
478612	5155836	The Senate vote undercut him the day before the Geneva talks.	The Senate vote undercut him the day before the Geneva talks.	244748653	1478561669747	1478561669826	e	69
478612	5155836	The Senate vote undercut him the day before the Geneva talks.	The Senate vote undercut him the day before the Geneva talks.	244748674	1478561669802	1478561669922	 	32
478612	5155836	The Senate vote undercut him the day before the Geneva talks.	The Senate vote undercut him the day before the Geneva talks.	244748676	1478561669898	1478561670010	SHIFT	16
478612	5155836	The Senate vote undercut him the day before the Geneva talks.	The Senate vote undercut him the day before the Geneva talks.	244748680	1478561669986	1478561670034	G	71
478612	5155836	The Senate vote undercut him the day before the Geneva talks.	The Senate vote undercut him the day before the Geneva talks.	244748686	1478561670058	1478561670146	e	69
478612	5155836	The Senate vote undercut him the day before the Geneva talks.	The Senate vote undercut him the day before the Geneva talks.	244748691	1478561670170	1478561670250	n	78
478612	5155836	The Senate vote undercut him the day before the Geneva talks.	The Senate vote undercut him the day before the Geneva talks.	244748698	1478561670266	1478561670314	e	69
478612	5155836	The Senate vote undercut him the day before the Geneva talks.	The Senate vote undercut him the day before the Geneva talks.	244748702	1478561670434	1478561670522	v	86
478612	5155836	The Senate vote undercut him the day before the Geneva talks.	The Senate vote undercut him the day before the Geneva talks.	244748719	1478561670546	1478561670683	a	65
478612	5155836	The Senate vote undercut him the day before the Geneva talks.	The Senate vote undercut him the day before the Geneva talks.	244748721	1478561670771	1478561670875	 	32
478612	5155836	The Senate vote undercut him the day before the Geneva talks.	The Senate vote undercut him the day before the Geneva talks.	244748724	1478561670963	1478561671043	t	84
478612	5155836	The Senate vote undercut him the day before the Geneva talks.	The Senate vote undercut him the day before the Geneva talks.	244748727	1478561671044	1478561671147	a	65
478612	5155836	The Senate vote undercut him the day before the Geneva talks.	The Senate vote undercut him the day before the Geneva talks.	244748738	1478561671107	1478561671219	l	76
478612	5155836	The Senate vote undercut him the day before the Geneva talks.	The Senate vote undercut him the day before the Geneva talks.	244748742	1478561671195	1478561671235	k	75
478612	5155836	The Senate vote undercut him the day before the Geneva talks.	The Senate vote undercut him the day before the Geneva talks.	244748746	1478561671251	1478561671331	s	83
478612	5155836	The Senate vote undercut him the day before the Geneva talks.	The Senate vote undercut him the day before the Geneva talks.	244748750	1478561671435	1478561671483	.	190
478612	5155846	Genaro, we have fixed the pricing in our system.	Genar, we have fixed the pricing in our system.	244748849	1478561673395	1478561673499	SHIFT	16
478612	5155846	Genaro, we have fixed the pricing in our system.	Genar, we have fixed the pricing in our system.	244748851	1478561673459	1478561673515	G	71
478612	5155846	Genaro, we have fixed the pricing in our system.	Genar, we have fixed the pricing in our system.	244748853	1478561673539	1478561673659	e	69
478612	5155846	Genaro, we have fixed the pricing in our system.	Genar, we have fixed the pricing in our system.	244748855	1478561673635	1478561673707	n	78
478612	5155846	Genaro, we have fixed the pricing in our system.	Genar, we have fixed the pricing in our system.	244748859	1478561673739	1478561673827	a	65
478612	5155846	Genaro, we have fixed the pricing in our system.	Genar, we have fixed the pricing in our system.	244748879	1478561673803	1478561673939	r	82
478612	5155846	Genaro, we have fixed the pricing in our system.	Genar, we have fixed the pricing in our system.	244748883	1478561674027	1478561674083	,	188
478612	5155846	Genaro, we have fixed the pricing in our system.	Genar, we have fixed the pricing in our system.	244748886	1478561674123	1478561674203	 	32
478612	5155846	Genaro, we have fixed the pricing in our system.	Genar, we have fixed the pricing in our system.	244748887	1478561674219	1478561674331	w	87
478612	5155846	Genaro, we have fixed the pricing in our system.	Genar, we have fixed the pricing in our system.	244748889	1478561674291	1478561674387	e	69
478612	5155846	Genaro, we have fixed the pricing in our system.	Genar, we have fixed the pricing in our system.	244748890	1478561674387	1478561674491	 	32
478612	5155846	Genaro, we have fixed the pricing in our system.	Genar, we have fixed the pricing in our system.	244748904	1478561674467	1478561674539	h	72
478612	5155846	Genaro, we have fixed the pricing in our system.	Genar, we have fixed the pricing in our system.	244748907	1478561674515	1478561674611	a	65
478612	5155846	Genaro, we have fixed the pricing in our system.	Genar, we have fixed the pricing in our system.	244748913	1478561674563	1478561674635	v	86
478612	5155846	Genaro, we have fixed the pricing in our system.	Genar, we have fixed the pricing in our system.	244748921	1478561674612	1478561674691	e	69
478612	5155846	Genaro, we have fixed the pricing in our system.	Genar, we have fixed the pricing in our system.	244748926	1478561674667	1478561674747	 	32
478612	5155846	Genaro, we have fixed the pricing in our system.	Genar, we have fixed the pricing in our system.	244748931	1478561674811	1478561674875	f	70
478612	5155846	Genaro, we have fixed the pricing in our system.	Genar, we have fixed the pricing in our system.	244748950	1478561674899	1478561674971	i	73
478612	5155846	Genaro, we have fixed the pricing in our system.	Genar, we have fixed the pricing in our system.	244748952	1478561675003	1478561675091	x	88
478612	5155846	Genaro, we have fixed the pricing in our system.	Genar, we have fixed the pricing in our system.	244748956	1478561675179	1478561675235	e	69
478612	5155846	Genaro, we have fixed the pricing in our system.	Genar, we have fixed the pricing in our system.	244748959	1478561675332	1478561675411	d	68
478612	5155846	Genaro, we have fixed the pricing in our system.	Genar, we have fixed the pricing in our system.	244748962	1478561675427	1478561675491	 	32
478612	5155846	Genaro, we have fixed the pricing in our system.	Genar, we have fixed the pricing in our system.	244748966	1478561675507	1478561675587	t	84
478612	5155846	Genaro, we have fixed the pricing in our system.	Genar, we have fixed the pricing in our system.	244748970	1478561675563	1478561675619	h	72
478612	5155846	Genaro, we have fixed the pricing in our system.	Genar, we have fixed the pricing in our system.	244748975	1478561675619	1478561675699	e	69
478612	5155846	Genaro, we have fixed the pricing in our system.	Genar, we have fixed the pricing in our system.	244748979	1478561675675	1478561675763	 	32
478612	5155846	Genaro, we have fixed the pricing in our system.	Genar, we have fixed the pricing in our system.	244748986	1478561675723	1478561675795	p	80
478612	5155846	Genaro, we have fixed the pricing in our system.	Genar, we have fixed the pricing in our system.	244748989	1478561675795	1478561675851	r	82
478612	5155846	Genaro, we have fixed the pricing in our system.	Genar, we have fixed the pricing in our system.	244748992	1478561675891	1478561675948	i	73
478612	5155846	Genaro, we have fixed the pricing in our system.	Genar, we have fixed the pricing in our system.	244748995	1478561675963	1478561676027	c	67
478612	5155846	Genaro, we have fixed the pricing in our system.	Genar, we have fixed the pricing in our system.	244749000	1478561676043	1478561676131	i	73
478612	5155846	Genaro, we have fixed the pricing in our system.	Genar, we have fixed the pricing in our system.	244749007	1478561676091	1478561676147	n	78
478612	5155846	Genaro, we have fixed the pricing in our system.	Genar, we have fixed the pricing in our system.	244749009	1478561676163	1478561676211	g	71
478612	5155846	Genaro, we have fixed the pricing in our system.	Genar, we have fixed the pricing in our system.	244749012	1478561676235	1478561676283	 	32
478612	5155846	Genaro, we have fixed the pricing in our system.	Genar, we have fixed the pricing in our system.	244749015	1478561676299	1478561676387	i	73
478612	5155846	Genaro, we have fixed the pricing in our system.	Genar, we have fixed the pricing in our system.	244749020	1478561676363	1478561676403	n	78
478612	5155846	Genaro, we have fixed the pricing in our system.	Genar, we have fixed the pricing in our system.	244749023	1478561676451	1478561676491	 	32
478612	5155846	Genaro, we have fixed the pricing in our system.	Genar, we have fixed the pricing in our system.	244749032	1478561676507	1478561676603	o	79
478612	5155846	Genaro, we have fixed the pricing in our system.	Genar, we have fixed the pricing in our system.	244749036	1478561676579	1478561676651	u	85
478612	5155846	Genaro, we have fixed the pricing in our system.	Genar, we have fixed the pricing in our system.	244749039	1478561676667	1478561676731	r	82
478612	5155846	Genaro, we have fixed the pricing in our system.	Genar, we have fixed the pricing in our system.	244749044	1478561676747	1478561676811	 	32
478612	5155846	Genaro, we have fixed the pricing in our system.	Genar, we have fixed the pricing in our system.	244749050	1478561676835	1478561676899	s	83
478612	5155846	Genaro, we have fixed the pricing in our system.	Genar, we have fixed the pricing in our system.	244749056	1478561676915	1478561676987	y	89
478612	5155846	Genaro, we have fixed the pricing in our system.	Genar, we have fixed the pricing in our system.	244749059	1478561677011	1478561677123	s	83
478612	5155846	Genaro, we have fixed the pricing in our system.	Genar, we have fixed the pricing in our system.	244749060	1478561677099	1478561677171	t	84
478612	5155846	Genaro, we have fixed the pricing in our system.	Genar, we have fixed the pricing in our system.	244749062	1478561677171	1478561677275	e	69
478612	5155846	Genaro, we have fixed the pricing in our system.	Genar, we have fixed the pricing in our system.	244749072	1478561677251	1478561677291	m	77
478612	5155846	Genaro, we have fixed the pricing in our system.	Genar, we have fixed the pricing in our system.	244749073	1478561677411	1478561677459	.	190
478612	5155851	Are you going to call?	Are you going to call?	244749161	1478561679235	1478561679347	SHIFT	16
478612	5155851	Are you going to call?	Are you going to call?	244749166	1478561679323	1478561679371	A	65
478612	5155851	Are you going to call?	Are you going to call?	244749171	1478561679395	1478561679467	r	82
478612	5155851	Are you going to call?	Are you going to call?	244749176	1478561679467	1478561679611	e	69
478612	5155851	Are you going to call?	Are you going to call?	244749174	1478561679523	1478561679587	 	32
478612	5155851	Are you going to call?	Are you going to call?	244749181	1478561679587	1478561679643	y	89
478612	5155851	Are you going to call?	Are you going to call?	244749183	1478561679643	1478561679755	o	79
478612	5155851	Are you going to call?	Are you going to call?	244749187	1478561679731	1478561679819	u	85
478612	5155851	Are you going to call?	Are you going to call?	244749193	1478561679779	1478561679867	 	32
478612	5155851	Are you going to call?	Are you going to call?	244749198	1478561679947	1478561680011	g	71
478612	5155851	Are you going to call?	Are you going to call?	244749210	1478561679979	1478561680059	o	79
478612	5155851	Are you going to call?	Are you going to call?	244749212	1478561680012	1478561680083	i	73
478612	5155851	Are you going to call?	Are you going to call?	244749213	1478561680059	1478561680099	n	78
478612	5155851	Are you going to call?	Are you going to call?	244749216	1478561680123	1478561680179	g	71
478612	5155851	Are you going to call?	Are you going to call?	244749218	1478561680203	1478561680251	 	32
478612	5155851	Are you going to call?	Are you going to call?	244749220	1478561680299	1478561680363	t	84
478612	5155851	Are you going to call?	Are you going to call?	244749225	1478561680323	1478561680427	o	79
478612	5155851	Are you going to call?	Are you going to call?	244749227	1478561680403	1478561680475	 	32
478612	5155851	Are you going to call?	Are you going to call?	244749229	1478561680475	1478561680547	c	67
478612	5155851	Are you going to call?	Are you going to call?	244749230	1478561680547	1478561680635	a	65
478612	5155851	Are you going to call?	Are you going to call?	244749233	1478561680595	1478561680635	l	76
478612	5155851	Are you going to call?	Are you going to call?	244749235	1478561680691	1478561680755	l	76
478612	5155851	Are you going to call?	Are you going to call?	244749245	1478561680803	1478561681019	SHIFT	16
478612	5155851	Are you going to call?	Are you going to call?	244749241	1478561680907	1478561680947	?	191
