PARTICIPANT_ID	TEST_SECTION_ID	SENTENCE	USER_INPUT	KEYSTROKE_ID	PRESS_TIME	RELEASE_TIME	LETTER	KEYCODE
48430	527607	Sun Jiazheng, 50, takes over as radio, film and television minister.	Sun Jiazeng, 50, takes over as radio, film and television minister.	25113451	1472576193674	1472576194118	SHIFT	16
48430	527607	Sun Jiazheng, 50, takes over as radio, film and television minister.	Sun Jiazeng, 50, takes over as radio, film and television minister.	25113449	1472576193935	1472576194073	S	83
48430	527607	Sun Jiazheng, 50, takes over as radio, film and television minister.	Sun Jiazeng, 50, takes over as radio, film and television minister.	25113453	1472576194280	1472576194436	u	85
48430	527607	Sun Jiazheng, 50, takes over as radio, film and television minister.	Sun Jiazeng, 50, takes over as radio, film and television minister.	25113457	1472576194353	1472576194499	n	78
48430	527607	Sun Jiazheng, 50, takes over as radio, film and television minister.	Sun Jiazeng, 50, takes over as radio, film and television minister.	25113460	1472576194528	1472576194672	 	32
48430	527607	Sun Jiazheng, 50, takes over as radio, film and television minister.	Sun Jiazeng, 50, takes over as radio, film and television minister.	25113612	1472576194893	1472576195660	SHIFT	16
48430	527607	Sun Jiazheng, 50, takes over as radio, film and television minister.	Sun Jiazeng, 50, takes over as radio, film and television minister.	25113464	1472576195522	1472576195656	J	74
48430	527607	Sun Jiazheng, 50, takes over as radio, film and television minister.	Sun Jiazeng, 50, takes over as radio, film and television minister.	25113615	1472576195808	1472576195954	i	73
48430	527607	Sun Jiazheng, 50, takes over as radio, film and television minister.	Sun Jiazeng, 50, takes over as radio, film and television minister.	25113616	1472576196268	1472576196430	a	65
48430	527607	Sun Jiazheng, 50, takes over as radio, film and television minister.	Sun Jiazeng, 50, takes over as radio, film and television minister.	25113620	1472576196852	1472576196980	z	90
48430	527607	Sun Jiazheng, 50, takes over as radio, film and television minister.	Sun Jiazeng, 50, takes over as radio, film and television minister.	25113623	1472576197334	1472576197463	e	69
48430	527607	Sun Jiazheng, 50, takes over as radio, film and television minister.	Sun Jiazeng, 50, takes over as radio, film and television minister.	25113626	1472576198671	1472576198808	n	78
48430	527607	Sun Jiazheng, 50, takes over as radio, film and television minister.	Sun Jiazeng, 50, takes over as radio, film and television minister.	25113778	1472576198945	1472576199069	g	71
48430	527607	Sun Jiazheng, 50, takes over as radio, film and television minister.	Sun Jiazeng, 50, takes over as radio, film and television minister.	25113781	1472576200041	1472576200155	,	188
48430	527607	Sun Jiazheng, 50, takes over as radio, film and television minister.	Sun Jiazeng, 50, takes over as radio, film and television minister.	25113786	1472576200175	1472576200312	 	32
48430	527607	Sun Jiazheng, 50, takes over as radio, film and television minister.	Sun Jiazeng, 50, takes over as radio, film and television minister.	25113790	1472576200632	1472576200738	5	53
48430	527607	Sun Jiazheng, 50, takes over as radio, film and television minister.	Sun Jiazeng, 50, takes over as radio, film and television minister.	25113792	1472576200842	1472576201028	0	48
48430	527607	Sun Jiazheng, 50, takes over as radio, film and television minister.	Sun Jiazeng, 50, takes over as radio, film and television minister.	25113876	1472576201887	1472576201999	,	188
48430	527607	Sun Jiazheng, 50, takes over as radio, film and television minister.	Sun Jiazeng, 50, takes over as radio, film and television minister.	25113881	1472576202037	1472576202154	 	32
48430	527607	Sun Jiazheng, 50, takes over as radio, film and television minister.	Sun Jiazeng, 50, takes over as radio, film and television minister.	25113887	1472576202626	1472576202731	t	84
48430	527607	Sun Jiazheng, 50, takes over as radio, film and television minister.	Sun Jiazeng, 50, takes over as radio, film and television minister.	25113894	1472576202874	1472576202970	a	65
48430	527607	Sun Jiazheng, 50, takes over as radio, film and television minister.	Sun Jiazeng, 50, takes over as radio, film and television minister.	25113953	1472576202917	1472576203028	k	75
48430	527607	Sun Jiazheng, 50, takes over as radio, film and television minister.	Sun Jiazeng, 50, takes over as radio, film and television minister.	25113956	1472576203059	1472576203172	e	69
48430	527607	Sun Jiazheng, 50, takes over as radio, film and television minister.	Sun Jiazeng, 50, takes over as radio, film and television minister.	25113959	1472576203215	1472576203347	s	83
48430	527607	Sun Jiazheng, 50, takes over as radio, film and television minister.	Sun Jiazeng, 50, takes over as radio, film and television minister.	25113961	1472576203330	1472576203455	 	32
48430	527607	Sun Jiazheng, 50, takes over as radio, film and television minister.	Sun Jiazeng, 50, takes over as radio, film and television minister.	25113964	1472576203542	1472576203665	o	79
48430	527607	Sun Jiazheng, 50, takes over as radio, film and television minister.	Sun Jiazeng, 50, takes over as radio, film and television minister.	25113970	1472576203798	1472576203907	v	86
48430	527607	Sun Jiazheng, 50, takes over as radio, film and television minister.	Sun Jiazeng, 50, takes over as radio, film and television minister.	25113979	1472576203918	1472576204036	e	69
48430	527607	Sun Jiazheng, 50, takes over as radio, film and television minister.	Sun Jiazeng, 50, takes over as radio, film and television minister.	25113981	1472576204065	1472576204168	r	82
48430	527607	Sun Jiazheng, 50, takes over as radio, film and television minister.	Sun Jiazeng, 50, takes over as radio, film and television minister.	25113985	1472576204137	1472576204264	 	32
48430	527607	Sun Jiazheng, 50, takes over as radio, film and television minister.	Sun Jiazeng, 50, takes over as radio, film and television minister.	25113987	1472576204282	1472576204406	a	65
48430	527607	Sun Jiazheng, 50, takes over as radio, film and television minister.	Sun Jiazeng, 50, takes over as radio, film and television minister.	25114079	1472576204396	1472576204514	 	32
48430	527607	Sun Jiazheng, 50, takes over as radio, film and television minister.	Sun Jiazeng, 50, takes over as radio, film and television minister.	25114081	1472576204827	1472576204970	BKSP	8
48430	527607	Sun Jiazheng, 50, takes over as radio, film and television minister.	Sun Jiazeng, 50, takes over as radio, film and television minister.	25114082	1472576204979	1472576205102	s	83
48430	527607	Sun Jiazheng, 50, takes over as radio, film and television minister.	Sun Jiazeng, 50, takes over as radio, film and television minister.	25114083	1472576205174	1472576205289	 	32
48430	527607	Sun Jiazheng, 50, takes over as radio, film and television minister.	Sun Jiazeng, 50, takes over as radio, film and television minister.	25114085	1472576205985	1472576206080	r	82
48430	527607	Sun Jiazheng, 50, takes over as radio, film and television minister.	Sun Jiazeng, 50, takes over as radio, film and television minister.	25114087	1472576206145	1472576206302	a	65
48430	527607	Sun Jiazheng, 50, takes over as radio, film and television minister.	Sun Jiazeng, 50, takes over as radio, film and television minister.	25114207	1472576206262	1472576206384	d	68
48430	527607	Sun Jiazheng, 50, takes over as radio, film and television minister.	Sun Jiazeng, 50, takes over as radio, film and television minister.	25114208	1472576206367	1472576206449	i	73
48430	527607	Sun Jiazheng, 50, takes over as radio, film and television minister.	Sun Jiazeng, 50, takes over as radio, film and television minister.	25114211	1472576206475	1472576206601	o	79
48430	527607	Sun Jiazheng, 50, takes over as radio, film and television minister.	Sun Jiazeng, 50, takes over as radio, film and television minister.	25114212	1472576206939	1472576207050	,	188
48430	527607	Sun Jiazheng, 50, takes over as radio, film and television minister.	Sun Jiazeng, 50, takes over as radio, film and television minister.	25114213	1472576207321	1472576207445	 	32
48430	527607	Sun Jiazheng, 50, takes over as radio, film and television minister.	Sun Jiazeng, 50, takes over as radio, film and television minister.	25114215	1472576207923	1472576208032	f	70
48430	527607	Sun Jiazheng, 50, takes over as radio, film and television minister.	Sun Jiazeng, 50, takes over as radio, film and television minister.	25114305	1472576208060	1472576208144	i	73
48430	527607	Sun Jiazheng, 50, takes over as radio, film and television minister.	Sun Jiazeng, 50, takes over as radio, film and television minister.	25114307	1472576208202	1472576208335	l	76
48430	527607	Sun Jiazheng, 50, takes over as radio, film and television minister.	Sun Jiazeng, 50, takes over as radio, film and television minister.	25114309	1472576208473	1472576208594	m	77
48430	527607	Sun Jiazheng, 50, takes over as radio, film and television minister.	Sun Jiazeng, 50, takes over as radio, film and television minister.	25114311	1472576209430	1472576209545	 	32
48430	527607	Sun Jiazheng, 50, takes over as radio, film and television minister.	Sun Jiazeng, 50, takes over as radio, film and television minister.	25114314	1472576209726	1472576209928	a	65
48430	527607	Sun Jiazheng, 50, takes over as radio, film and television minister.	Sun Jiazeng, 50, takes over as radio, film and television minister.	25114483	1472576210384	1472576210508	d	68
48430	527607	Sun Jiazheng, 50, takes over as radio, film and television minister.	Sun Jiazeng, 50, takes over as radio, film and television minister.	25114486	1472576210580	1472576210707	 	32
48430	527607	Sun Jiazheng, 50, takes over as radio, film and television minister.	Sun Jiazeng, 50, takes over as radio, film and television minister.	25114489	1472576212242	1472576212318	\	220
48430	527607	Sun Jiazheng, 50, takes over as radio, film and television minister.	Sun Jiazeng, 50, takes over as radio, film and television minister.	25114492	1472576212380	1472576212468	\	220
48430	527607	Sun Jiazheng, 50, takes over as radio, film and television minister.	Sun Jiazeng, 50, takes over as radio, film and television minister.	25114495	1472576212548	1472576212625	BKSP	8
48430	527607	Sun Jiazheng, 50, takes over as radio, film and television minister.	Sun Jiazeng, 50, takes over as radio, film and television minister.	25114498	1472576212670	1472576212762	BKSP	8
48430	527607	Sun Jiazheng, 50, takes over as radio, film and television minister.	Sun Jiazeng, 50, takes over as radio, film and television minister.	25114502	1472576212805	1472576212894	BKSP	8
48430	527607	Sun Jiazheng, 50, takes over as radio, film and television minister.	Sun Jiazeng, 50, takes over as radio, film and television minister.	25114504	1472576212932	1472576213047	BKSP	8
48430	527607	Sun Jiazheng, 50, takes over as radio, film and television minister.	Sun Jiazeng, 50, takes over as radio, film and television minister.	25114505	1472576213397	1472576213508	n	78
48430	527607	Sun Jiazheng, 50, takes over as radio, film and television minister.	Sun Jiazeng, 50, takes over as radio, film and television minister.	25114545	1472576213500	1472576213612	d	68
48430	527607	Sun Jiazheng, 50, takes over as radio, film and television minister.	Sun Jiazeng, 50, takes over as radio, film and television minister.	25114549	1472576213574	1472576213687	 	32
48430	527607	Sun Jiazheng, 50, takes over as radio, film and television minister.	Sun Jiazeng, 50, takes over as radio, film and television minister.	25114555	1472576214416	1472576214546	t	84
48430	527607	Sun Jiazheng, 50, takes over as radio, film and television minister.	Sun Jiazeng, 50, takes over as radio, film and television minister.	25114559	1472576214558	1472576214689	e	69
48430	527607	Sun Jiazheng, 50, takes over as radio, film and television minister.	Sun Jiazeng, 50, takes over as radio, film and television minister.	25114564	1472576214667	1472576214776	l	76
48430	527607	Sun Jiazheng, 50, takes over as radio, film and television minister.	Sun Jiazeng, 50, takes over as radio, film and television minister.	25114612	1472576214754	1472576214877	e	69
48430	527607	Sun Jiazheng, 50, takes over as radio, film and television minister.	Sun Jiazeng, 50, takes over as radio, film and television minister.	25114623	1472576214995	1472576215098	v	86
48430	527607	Sun Jiazheng, 50, takes over as radio, film and television minister.	Sun Jiazeng, 50, takes over as radio, film and television minister.	25114630	1472576215082	1472576215193	i	73
48430	527607	Sun Jiazheng, 50, takes over as radio, film and television minister.	Sun Jiazeng, 50, takes over as radio, film and television minister.	25114636	1472576215242	1472576215347	d	68
48430	527607	Sun Jiazheng, 50, takes over as radio, film and television minister.	Sun Jiazeng, 50, takes over as radio, film and television minister.	25114645	1472576215325	1472576215419	i	73
48430	527607	Sun Jiazheng, 50, takes over as radio, film and television minister.	Sun Jiazeng, 50, takes over as radio, film and television minister.	25114655	1472576215564	1472576215671	BKSP	8
48430	527607	Sun Jiazheng, 50, takes over as radio, film and television minister.	Sun Jiazeng, 50, takes over as radio, film and television minister.	25114660	1472576215682	1472576215791	BKSP	8
48430	527607	Sun Jiazheng, 50, takes over as radio, film and television minister.	Sun Jiazeng, 50, takes over as radio, film and television minister.	25114666	1472576215830	1472576215932	s	83
48430	527607	Sun Jiazheng, 50, takes over as radio, film and television minister.	Sun Jiazeng, 50, takes over as radio, film and television minister.	25114705	1472576215909	1472576216003	i	73
48430	527607	Sun Jiazheng, 50, takes over as radio, film and television minister.	Sun Jiazeng, 50, takes over as radio, film and television minister.	25114712	1472576216071	1472576216264	o	79
48430	527607	Sun Jiazheng, 50, takes over as radio, film and television minister.	Sun Jiazeng, 50, takes over as radio, film and television minister.	25114715	1472576216173	1472576216314	n	78
48430	527607	Sun Jiazheng, 50, takes over as radio, film and television minister.	Sun Jiazeng, 50, takes over as radio, film and television minister.	25114720	1472576216375	1472576216487	 	32
48430	527607	Sun Jiazheng, 50, takes over as radio, film and television minister.	Sun Jiazeng, 50, takes over as radio, film and television minister.	25114724	1472576216569	1472576216733	m	77
48430	527607	Sun Jiazheng, 50, takes over as radio, film and television minister.	Sun Jiazeng, 50, takes over as radio, film and television minister.	25114757	1472576216695	1472576216858	i	73
48430	527607	Sun Jiazheng, 50, takes over as radio, film and television minister.	Sun Jiazeng, 50, takes over as radio, film and television minister.	25114762	1472576216813	1472576216976	n	78
48430	527607	Sun Jiazheng, 50, takes over as radio, film and television minister.	Sun Jiazeng, 50, takes over as radio, film and television minister.	25114770	1472576216937	1472576217081	i	73
48430	527607	Sun Jiazheng, 50, takes over as radio, film and television minister.	Sun Jiazeng, 50, takes over as radio, film and television minister.	25114777	1472576217167	1472576217294	s	83
48430	527607	Sun Jiazheng, 50, takes over as radio, film and television minister.	Sun Jiazeng, 50, takes over as radio, film and television minister.	25114784	1472576217292	1472576217400	t	84
48430	527607	Sun Jiazheng, 50, takes over as radio, film and television minister.	Sun Jiazeng, 50, takes over as radio, film and television minister.	25114791	1472576217402	1472576217524	e	69
48430	527607	Sun Jiazheng, 50, takes over as radio, film and television minister.	Sun Jiazeng, 50, takes over as radio, film and television minister.	25114845	1472576217542	1472576217658	r	82
48430	527607	Sun Jiazheng, 50, takes over as radio, film and television minister.	Sun Jiazeng, 50, takes over as radio, film and television minister.	25114849	1472576218127	1472576218227	.	190
48430	527647	Through this account cash flows to corporate.	Through this account cash flows to corporate.	25115042	1472576220415	1472576220689	SHIFT	16
48430	527647	Through this account cash flows to corporate.	Through this account cash flows to corporate.	25115047	1472576220573	1472576220703	T	84
48430	527647	Through this account cash flows to corporate.	Through this account cash flows to corporate.	25115051	1472576220800	1472576220903	h	72
48430	527647	Through this account cash flows to corporate.	Through this account cash flows to corporate.	25115054	1472576220848	1472576220962	r	82
48430	527647	Through this account cash flows to corporate.	Through this account cash flows to corporate.	25115059	1472576220923	1472576221067	o	79
48430	527647	Through this account cash flows to corporate.	Through this account cash flows to corporate.	25115088	1472576221002	1472576221134	u	85
48430	527647	Through this account cash flows to corporate.	Through this account cash flows to corporate.	25115091	1472576221117	1472576221237	g	71
48430	527647	Through this account cash flows to corporate.	Through this account cash flows to corporate.	25115095	1472576221206	1472576221300	h	72
48430	527647	Through this account cash flows to corporate.	Through this account cash flows to corporate.	25115098	1472576221368	1472576221504	 	32
48430	527647	Through this account cash flows to corporate.	Through this account cash flows to corporate.	25115100	1472576221743	1472576221857	t	84
48430	527647	Through this account cash flows to corporate.	Through this account cash flows to corporate.	25115121	1472576221817	1472576221947	h	72
48430	527647	Through this account cash flows to corporate.	Through this account cash flows to corporate.	25115129	1472576221886	1472576222014	i	73
48430	527647	Through this account cash flows to corporate.	Through this account cash flows to corporate.	25115133	1472576221953	1472576222087	s	83
48430	527647	Through this account cash flows to corporate.	Through this account cash flows to corporate.	25115139	1472576222072	1472576222191	 	32
48430	527647	Through this account cash flows to corporate.	Through this account cash flows to corporate.	25115143	1472576222184	1472576222296	a	65
48430	527647	Through this account cash flows to corporate.	Through this account cash flows to corporate.	25115148	1472576222344	1472576222432	c	67
48430	527647	Through this account cash flows to corporate.	Through this account cash flows to corporate.	25115158	1472576222477	1472576222587	c	67
48430	527647	Through this account cash flows to corporate.	Through this account cash flows to corporate.	25115162	1472576222572	1472576222744	o	79
48430	527647	Through this account cash flows to corporate.	Through this account cash flows to corporate.	25115167	1472576222659	1472576222764	u	85
48430	527647	Through this account cash flows to corporate.	Through this account cash flows to corporate.	25115170	1472576222809	1472576222926	n	78
48430	527647	Through this account cash flows to corporate.	Through this account cash flows to corporate.	25115198	1472576222895	1472576222996	t	84
48430	527647	Through this account cash flows to corporate.	Through this account cash flows to corporate.	25115201	1472576222982	1472576223106	 	32
48430	527647	Through this account cash flows to corporate.	Through this account cash flows to corporate.	25115205	1472576223492	1472576223589	c	67
48430	527647	Through this account cash flows to corporate.	Through this account cash flows to corporate.	25115209	1472576223677	1472576223818	a	65
48430	527647	Through this account cash flows to corporate.	Through this account cash flows to corporate.	25115214	1472576223776	1472576223912	s	83
48430	527647	Through this account cash flows to corporate.	Through this account cash flows to corporate.	25115259	1472576223899	1472576223996	h	72
48430	527647	Through this account cash flows to corporate.	Through this account cash flows to corporate.	25115264	1472576224070	1472576224173	 	32
48430	527647	Through this account cash flows to corporate.	Through this account cash flows to corporate.	25115269	1472576224138	1472576224260	f	70
48430	527647	Through this account cash flows to corporate.	Through this account cash flows to corporate.	25115272	1472576224245	1472576224338	l	76
48430	527647	Through this account cash flows to corporate.	Through this account cash flows to corporate.	25115281	1472576224373	1472576224495	o	79
48430	527647	Through this account cash flows to corporate.	Through this account cash flows to corporate.	25115287	1472576224562	1472576224684	w	87
48430	527647	Through this account cash flows to corporate.	Through this account cash flows to corporate.	25115316	1472576224731	1472576224851	s	83
48430	527647	Through this account cash flows to corporate.	Through this account cash flows to corporate.	25115321	1472576224900	1472576225036	 	32
48430	527647	Through this account cash flows to corporate.	Through this account cash flows to corporate.	25115325	1472576225387	1472576225491	t	84
48430	527647	Through this account cash flows to corporate.	Through this account cash flows to corporate.	25115331	1472576225464	1472576225597	o	79
48430	527647	Through this account cash flows to corporate.	Through this account cash flows to corporate.	25115523	1472576225550	1472576225680	 	32
48430	527647	Through this account cash flows to corporate.	Through this account cash flows to corporate.	25115535	1472576226021	1472576226147	c	67
48430	527647	Through this account cash flows to corporate.	Through this account cash flows to corporate.	25115540	1472576226131	1472576226251	o	79
48430	527647	Through this account cash flows to corporate.	Through this account cash flows to corporate.	25115548	1472576226240	1472576226357	r	82
48430	527647	Through this account cash flows to corporate.	Through this account cash flows to corporate.	25115554	1472576227918	1472576228002	p	80
48430	527647	Through this account cash flows to corporate.	Through this account cash flows to corporate.	25115559	1472576228494	1472576228598	o	79
48430	527647	Through this account cash flows to corporate.	Through this account cash flows to corporate.	25115623	1472576229129	1472576229237	r	82
48430	527647	Through this account cash flows to corporate.	Through this account cash flows to corporate.	25115629	1472576229307	1472576229445	a	65
48430	527647	Through this account cash flows to corporate.	Through this account cash flows to corporate.	25115634	1472576229398	1472576229488	t	84
48430	527647	Through this account cash flows to corporate.	Through this account cash flows to corporate.	25115638	1472576229477	1472576229587	e	69
48430	527647	Through this account cash flows to corporate.	Through this account cash flows to corporate.	25115643	1472576229776	1472576229880	.	190
48430	527665	The Senate defied President Bill Clinton on Thursday.	The senate defied President Bill Clinton on Thursday.	25115754	1472576231336	1472576231686	SHIFT	16
48430	527665	The Senate defied President Bill Clinton on Thursday.	The senate defied President Bill Clinton on Thursday.	25115757	1472576231581	1472576231722	T	84
48430	527665	The Senate defied President Bill Clinton on Thursday.	The senate defied President Bill Clinton on Thursday.	25115763	1472576231807	1472576231895	h	72
48430	527665	The Senate defied President Bill Clinton on Thursday.	The senate defied President Bill Clinton on Thursday.	25115768	1472576231840	1472576231951	e	69
48430	527665	The Senate defied President Bill Clinton on Thursday.	The senate defied President Bill Clinton on Thursday.	25115774	1472576231944	1472576232070	 	32
48430	527665	The Senate defied President Bill Clinton on Thursday.	The senate defied President Bill Clinton on Thursday.	25115797	1472576232057	1472576232167	s	83
48430	527665	The Senate defied President Bill Clinton on Thursday.	The senate defied President Bill Clinton on Thursday.	25115801	1472576232203	1472576232311	e	69
48430	527665	The Senate defied President Bill Clinton on Thursday.	The senate defied President Bill Clinton on Thursday.	25115804	1472576232289	1472576232419	n	78
48430	527665	The Senate defied President Bill Clinton on Thursday.	The senate defied President Bill Clinton on Thursday.	25115807	1472576232469	1472576232604	a	65
48430	527665	The Senate defied President Bill Clinton on Thursday.	The senate defied President Bill Clinton on Thursday.	25115810	1472576232608	1472576232727	t	84
48430	527665	The Senate defied President Bill Clinton on Thursday.	The senate defied President Bill Clinton on Thursday.	25115902	1472576232718	1472576232813	e	69
48430	527665	The Senate defied President Bill Clinton on Thursday.	The senate defied President Bill Clinton on Thursday.	25115909	1472576232857	1472576232970	 	32
48430	527665	The Senate defied President Bill Clinton on Thursday.	The senate defied President Bill Clinton on Thursday.	25115915	1472576233998	1472576234125	d	68
48430	527665	The Senate defied President Bill Clinton on Thursday.	The senate defied President Bill Clinton on Thursday.	25115921	1472576234063	1472576234229	e	69
48430	527665	The Senate defied President Bill Clinton on Thursday.	The senate defied President Bill Clinton on Thursday.	25115929	1472576234198	1472576234326	f	70
48430	527665	The Senate defied President Bill Clinton on Thursday.	The senate defied President Bill Clinton on Thursday.	25115932	1472576234330	1472576234447	i	73
48430	527665	The Senate defied President Bill Clinton on Thursday.	The senate defied President Bill Clinton on Thursday.	25116039	1472576234444	1472576234588	e	69
48430	527665	The Senate defied President Bill Clinton on Thursday.	The senate defied President Bill Clinton on Thursday.	25116042	1472576234685	1472576234798	d	68
48430	527665	The Senate defied President Bill Clinton on Thursday.	The senate defied President Bill Clinton on Thursday.	25116046	1472576234847	1472576234971	 	32
48430	527665	The Senate defied President Bill Clinton on Thursday.	The senate defied President Bill Clinton on Thursday.	25116057	1472576235727	1472576236177	SHIFT	16
48430	527665	The Senate defied President Bill Clinton on Thursday.	The senate defied President Bill Clinton on Thursday.	25116052	1472576235973	1472576236124	P	80
48430	527665	The Senate defied President Bill Clinton on Thursday.	The senate defied President Bill Clinton on Thursday.	25116064	1472576236229	1472576236353	r	82
48430	527665	The Senate defied President Bill Clinton on Thursday.	The senate defied President Bill Clinton on Thursday.	25116092	1472576236348	1472576236455	e	69
48430	527665	The Senate defied President Bill Clinton on Thursday.	The senate defied President Bill Clinton on Thursday.	25116097	1472576236598	1472576236727	s	83
48430	527665	The Senate defied President Bill Clinton on Thursday.	The senate defied President Bill Clinton on Thursday.	25116099	1472576236704	1472576236828	i	73
48430	527665	The Senate defied President Bill Clinton on Thursday.	The senate defied President Bill Clinton on Thursday.	25116104	1472576236807	1472576236931	d	68
48430	527665	The Senate defied President Bill Clinton on Thursday.	The senate defied President Bill Clinton on Thursday.	25116106	1472576236933	1472576237061	e	69
48430	527665	The Senate defied President Bill Clinton on Thursday.	The senate defied President Bill Clinton on Thursday.	25116154	1472576237022	1472576237137	n	78
48430	527665	The Senate defied President Bill Clinton on Thursday.	The senate defied President Bill Clinton on Thursday.	25116155	1472576237108	1472576237238	t	84
48430	527665	The Senate defied President Bill Clinton on Thursday.	The senate defied President Bill Clinton on Thursday.	25116158	1472576237244	1472576237360	 	32
48430	527665	The Senate defied President Bill Clinton on Thursday.	The senate defied President Bill Clinton on Thursday.	25116166	1472576237490	1472576237769	SHIFT	16
48430	527665	The Senate defied President Bill Clinton on Thursday.	The senate defied President Bill Clinton on Thursday.	25116162	1472576237590	1472576237693	B	66
48430	527665	The Senate defied President Bill Clinton on Thursday.	The senate defied President Bill Clinton on Thursday.	25116171	1472576237830	1472576237941	i	73
48430	527665	The Senate defied President Bill Clinton on Thursday.	The senate defied President Bill Clinton on Thursday.	25116179	1472576238057	1472576238152	l	76
48430	527665	The Senate defied President Bill Clinton on Thursday.	The senate defied President Bill Clinton on Thursday.	25116225	1472576238211	1472576238295	l	76
48430	527665	The Senate defied President Bill Clinton on Thursday.	The senate defied President Bill Clinton on Thursday.	25116228	1472576238384	1472576238519	 	32
48430	527665	The Senate defied President Bill Clinton on Thursday.	The senate defied President Bill Clinton on Thursday.	25116234	1472576238578	1472576238963	SHIFT	16
48430	527665	The Senate defied President Bill Clinton on Thursday.	The senate defied President Bill Clinton on Thursday.	25116231	1472576238756	1472576238859	C	67
48430	527665	The Senate defied President Bill Clinton on Thursday.	The senate defied President Bill Clinton on Thursday.	25116239	1472576238992	1472576239118	l	76
48430	527665	The Senate defied President Bill Clinton on Thursday.	The senate defied President Bill Clinton on Thursday.	25116243	1472576239142	1472576239315	i	73
48430	527665	The Senate defied President Bill Clinton on Thursday.	The senate defied President Bill Clinton on Thursday.	25116285	1472576239244	1472576239381	n	78
48430	527665	The Senate defied President Bill Clinton on Thursday.	The senate defied President Bill Clinton on Thursday.	25116287	1472576239341	1472576239452	t	84
48430	527665	The Senate defied President Bill Clinton on Thursday.	The senate defied President Bill Clinton on Thursday.	25116290	1472576239416	1472576239571	o	79
48430	527665	The Senate defied President Bill Clinton on Thursday.	The senate defied President Bill Clinton on Thursday.	25116292	1472576239508	1472576239623	n	78
48430	527665	The Senate defied President Bill Clinton on Thursday.	The senate defied President Bill Clinton on Thursday.	25116295	1472576239668	1472576239805	 	32
48430	527665	The Senate defied President Bill Clinton on Thursday.	The senate defied President Bill Clinton on Thursday.	25116304	1472576240060	1472576240211	o	79
48430	527665	The Senate defied President Bill Clinton on Thursday.	The senate defied President Bill Clinton on Thursday.	25116363	1472576240131	1472576240235	n	78
48430	527665	The Senate defied President Bill Clinton on Thursday.	The senate defied President Bill Clinton on Thursday.	25116365	1472576240269	1472576240386	 	32
48430	527665	The Senate defied President Bill Clinton on Thursday.	The senate defied President Bill Clinton on Thursday.	25116368	1472576240580	1472576240927	SHIFT	16
48430	527665	The Senate defied President Bill Clinton on Thursday.	The senate defied President Bill Clinton on Thursday.	25116366	1472576240720	1472576240823	T	84
48430	527665	The Senate defied President Bill Clinton on Thursday.	The senate defied President Bill Clinton on Thursday.	25116369	1472576240969	1472576241125	h	72
48430	527665	The Senate defied President Bill Clinton on Thursday.	The senate defied President Bill Clinton on Thursday.	25116373	1472576241084	1472576241208	u	85
48430	527665	The Senate defied President Bill Clinton on Thursday.	The senate defied President Bill Clinton on Thursday.	25116380	1472576241264	1472576241379	r	82
48430	527665	The Senate defied President Bill Clinton on Thursday.	The senate defied President Bill Clinton on Thursday.	25116475	1472576241505	1472576241617	s	83
48430	527665	The Senate defied President Bill Clinton on Thursday.	The senate defied President Bill Clinton on Thursday.	25116477	1472576241661	1472576241765	d	68
48430	527665	The Senate defied President Bill Clinton on Thursday.	The senate defied President Bill Clinton on Thursday.	25116479	1472576241809	1472576241949	a	65
48430	527665	The Senate defied President Bill Clinton on Thursday.	The senate defied President Bill Clinton on Thursday.	25116482	1472576241930	1472576242034	y	89
48430	527681	Washington was not moving toward a unilateral lifting of the embargo.	Washington was not moving toward a unilateral lifting of the embargo.	25117575	1472576242352	1472576259606	.	190
48430	527681	Washington was not moving toward a unilateral lifting of the embargo.	Washington was not moving toward a unilateral lifting of the embargo.	25116638	1472576244246	1472576244682	SHIFT	16
48430	527681	Washington was not moving toward a unilateral lifting of the embargo.	Washington was not moving toward a unilateral lifting of the embargo.	25116636	1472576244525	1472576244635	W	87
48430	527681	Washington was not moving toward a unilateral lifting of the embargo.	Washington was not moving toward a unilateral lifting of the embargo.	25116640	1472576244743	1472576244846	a	65
48430	527681	Washington was not moving toward a unilateral lifting of the embargo.	Washington was not moving toward a unilateral lifting of the embargo.	25116644	1472576244882	1472576244988	s	83
48430	527681	Washington was not moving toward a unilateral lifting of the embargo.	Washington was not moving toward a unilateral lifting of the embargo.	25116648	1472576244946	1472576245076	h	72
48430	527681	Washington was not moving toward a unilateral lifting of the embargo.	Washington was not moving toward a unilateral lifting of the embargo.	25116669	1472576245029	1472576245215	i	73
48430	527681	Washington was not moving toward a unilateral lifting of the embargo.	Washington was not moving toward a unilateral lifting of the embargo.	25116673	1472576245141	1472576245286	n	78
48430	527681	Washington was not moving toward a unilateral lifting of the embargo.	Washington was not moving toward a unilateral lifting of the embargo.	25116680	1472576245257	1472576245352	t	84
48430	527681	Washington was not moving toward a unilateral lifting of the embargo.	Washington was not moving toward a unilateral lifting of the embargo.	25116682	1472576245496	1472576245633	BKSP	8
48430	527681	Washington was not moving toward a unilateral lifting of the embargo.	Washington was not moving toward a unilateral lifting of the embargo.	25116687	1472576245620	1472576245741	g	71
48430	527681	Washington was not moving toward a unilateral lifting of the embargo.	Washington was not moving toward a unilateral lifting of the embargo.	25116692	1472576245752	1472576245871	t	84
48430	527681	Washington was not moving toward a unilateral lifting of the embargo.	Washington was not moving toward a unilateral lifting of the embargo.	25116771	1472576245842	1472576246000	o	79
48430	527681	Washington was not moving toward a unilateral lifting of the embargo.	Washington was not moving toward a unilateral lifting of the embargo.	25116777	1472576245932	1472576246040	m	77
48430	527681	Washington was not moving toward a unilateral lifting of the embargo.	Washington was not moving toward a unilateral lifting of the embargo.	25116781	1472576246489	1472576246596	BKSP	8
48430	527681	Washington was not moving toward a unilateral lifting of the embargo.	Washington was not moving toward a unilateral lifting of the embargo.	25116785	1472576246778	1472576246866	n	78
48430	527681	Washington was not moving toward a unilateral lifting of the embargo.	Washington was not moving toward a unilateral lifting of the embargo.	25116788	1472576246942	1472576247064	 	32
48430	527681	Washington was not moving toward a unilateral lifting of the embargo.	Washington was not moving toward a unilateral lifting of the embargo.	25116793	1472576247175	1472576247290	w	87
48430	527681	Washington was not moving toward a unilateral lifting of the embargo.	Washington was not moving toward a unilateral lifting of the embargo.	25116795	1472576247350	1472576247472	a	65
48430	527681	Washington was not moving toward a unilateral lifting of the embargo.	Washington was not moving toward a unilateral lifting of the embargo.	25116799	1472576247485	1472576247622	s	83
48430	527681	Washington was not moving toward a unilateral lifting of the embargo.	Washington was not moving toward a unilateral lifting of the embargo.	25116801	1472576247566	1472576247669	 	32
48430	527681	Washington was not moving toward a unilateral lifting of the embargo.	Washington was not moving toward a unilateral lifting of the embargo.	25116803	1472576247726	1472576247869	n	78
48430	527681	Washington was not moving toward a unilateral lifting of the embargo.	Washington was not moving toward a unilateral lifting of the embargo.	25116805	1472576247793	1472576247930	o	79
48430	527681	Washington was not moving toward a unilateral lifting of the embargo.	Washington was not moving toward a unilateral lifting of the embargo.	25116843	1472576247878	1472576247970	t	84
48430	527681	Washington was not moving toward a unilateral lifting of the embargo.	Washington was not moving toward a unilateral lifting of the embargo.	25116848	1472576248026	1472576248132	 	32
48430	527681	Washington was not moving toward a unilateral lifting of the embargo.	Washington was not moving toward a unilateral lifting of the embargo.	25116852	1472576248224	1472576248357	m	77
48430	527681	Washington was not moving toward a unilateral lifting of the embargo.	Washington was not moving toward a unilateral lifting of the embargo.	25116855	1472576248283	1472576248425	o	79
48430	527681	Washington was not moving toward a unilateral lifting of the embargo.	Washington was not moving toward a unilateral lifting of the embargo.	25116858	1472576248628	1472576248731	v	86
48430	527681	Washington was not moving toward a unilateral lifting of the embargo.	Washington was not moving toward a unilateral lifting of the embargo.	25116940	1472576248702	1472576248858	i	73
48430	527681	Washington was not moving toward a unilateral lifting of the embargo.	Washington was not moving toward a unilateral lifting of the embargo.	25116941	1472576248772	1472576248899	n	78
48430	527681	Washington was not moving toward a unilateral lifting of the embargo.	Washington was not moving toward a unilateral lifting of the embargo.	25116943	1472576248850	1472576248955	g	71
48430	527681	Washington was not moving toward a unilateral lifting of the embargo.	Washington was not moving toward a unilateral lifting of the embargo.	25116945	1472576248962	1472576249077	 	32
48430	527681	Washington was not moving toward a unilateral lifting of the embargo.	Washington was not moving toward a unilateral lifting of the embargo.	25116948	1472576249732	1472576249845	t	84
48430	527681	Washington was not moving toward a unilateral lifting of the embargo.	Washington was not moving toward a unilateral lifting of the embargo.	25117002	1472576249837	1472576249961	o	79
48430	527681	Washington was not moving toward a unilateral lifting of the embargo.	Washington was not moving toward a unilateral lifting of the embargo.	25117003	1472576250051	1472576250168	w	87
48430	527681	Washington was not moving toward a unilateral lifting of the embargo.	Washington was not moving toward a unilateral lifting of the embargo.	25117005	1472576250233	1472576250348	a	65
48430	527681	Washington was not moving toward a unilateral lifting of the embargo.	Washington was not moving toward a unilateral lifting of the embargo.	25117012	1472576250422	1472576250519	r	82
48430	527681	Washington was not moving toward a unilateral lifting of the embargo.	Washington was not moving toward a unilateral lifting of the embargo.	25117018	1472576250558	1472576250670	d	68
48430	527681	Washington was not moving toward a unilateral lifting of the embargo.	Washington was not moving toward a unilateral lifting of the embargo.	25117024	1472576250696	1472576250821	 	32
48430	527681	Washington was not moving toward a unilateral lifting of the embargo.	Washington was not moving toward a unilateral lifting of the embargo.	25117088	1472576251074	1472576251213	a	65
48430	527681	Washington was not moving toward a unilateral lifting of the embargo.	Washington was not moving toward a unilateral lifting of the embargo.	25117090	1472576251239	1472576251380	 	32
48430	527681	Washington was not moving toward a unilateral lifting of the embargo.	Washington was not moving toward a unilateral lifting of the embargo.	25117095	1472576251571	1472576251706	u	85
48430	527681	Washington was not moving toward a unilateral lifting of the embargo.	Washington was not moving toward a unilateral lifting of the embargo.	25117099	1472576251654	1472576251794	n	78
48430	527681	Washington was not moving toward a unilateral lifting of the embargo.	Washington was not moving toward a unilateral lifting of the embargo.	25117179	1472576251780	1472576251904	i	73
48430	527681	Washington was not moving toward a unilateral lifting of the embargo.	Washington was not moving toward a unilateral lifting of the embargo.	25117186	1472576252595	1472576252723	l	76
48430	527681	Washington was not moving toward a unilateral lifting of the embargo.	Washington was not moving toward a unilateral lifting of the embargo.	25117193	1472576252958	1472576253086	a	65
48430	527681	Washington was not moving toward a unilateral lifting of the embargo.	Washington was not moving toward a unilateral lifting of the embargo.	25117198	1472576253285	1472576253384	t	84
48430	527681	Washington was not moving toward a unilateral lifting of the embargo.	Washington was not moving toward a unilateral lifting of the embargo.	25117204	1472576253429	1472576253579	e	69
48430	527681	Washington was not moving toward a unilateral lifting of the embargo.	Washington was not moving toward a unilateral lifting of the embargo.	25117229	1472576253516	1472576253630	r	82
48430	527681	Washington was not moving toward a unilateral lifting of the embargo.	Washington was not moving toward a unilateral lifting of the embargo.	25117231	1472576253709	1472576253837	a	65
48430	527681	Washington was not moving toward a unilateral lifting of the embargo.	Washington was not moving toward a unilateral lifting of the embargo.	25117235	1472576253822	1472576253954	l	76
48430	527681	Washington was not moving toward a unilateral lifting of the embargo.	Washington was not moving toward a unilateral lifting of the embargo.	25117242	1472576253979	1472576254126	 	32
48430	527681	Washington was not moving toward a unilateral lifting of the embargo.	Washington was not moving toward a unilateral lifting of the embargo.	25117250	1472576254302	1472576254452	l	76
48430	527681	Washington was not moving toward a unilateral lifting of the embargo.	Washington was not moving toward a unilateral lifting of the embargo.	25117257	1472576254569	1472576254695	i	73
48430	527681	Washington was not moving toward a unilateral lifting of the embargo.	Washington was not moving toward a unilateral lifting of the embargo.	25117308	1472576254831	1472576254975	f	70
48430	527681	Washington was not moving toward a unilateral lifting of the embargo.	Washington was not moving toward a unilateral lifting of the embargo.	25117314	1472576255030	1472576255141	t	84
48430	527681	Washington was not moving toward a unilateral lifting of the embargo.	Washington was not moving toward a unilateral lifting of the embargo.	25117317	1472576255094	1472576255264	i	73
48430	527681	Washington was not moving toward a unilateral lifting of the embargo.	Washington was not moving toward a unilateral lifting of the embargo.	25117319	1472576255188	1472576255289	n	78
48430	527681	Washington was not moving toward a unilateral lifting of the embargo.	Washington was not moving toward a unilateral lifting of the embargo.	25117322	1472576255315	1472576255428	g	71
48430	527681	Washington was not moving toward a unilateral lifting of the embargo.	Washington was not moving toward a unilateral lifting of the embargo.	25117349	1472576255498	1472576255626	 	32
48430	527681	Washington was not moving toward a unilateral lifting of the embargo.	Washington was not moving toward a unilateral lifting of the embargo.	25117350	1472576255850	1472576255987	o	79
48430	527681	Washington was not moving toward a unilateral lifting of the embargo.	Washington was not moving toward a unilateral lifting of the embargo.	25117351	1472576256016	1472576256139	f	70
48430	527681	Washington was not moving toward a unilateral lifting of the embargo.	Washington was not moving toward a unilateral lifting of the embargo.	25117352	1472576256126	1472576256243	 	32
48430	527681	Washington was not moving toward a unilateral lifting of the embargo.	Washington was not moving toward a unilateral lifting of the embargo.	25117355	1472576256245	1472576256346	t	84
48430	527681	Washington was not moving toward a unilateral lifting of the embargo.	Washington was not moving toward a unilateral lifting of the embargo.	25117425	1472576256322	1472576256427	h	72
48430	527681	Washington was not moving toward a unilateral lifting of the embargo.	Washington was not moving toward a unilateral lifting of the embargo.	25117429	1472576256402	1472576256510	e	69
48430	527681	Washington was not moving toward a unilateral lifting of the embargo.	Washington was not moving toward a unilateral lifting of the embargo.	25117435	1472576256494	1472576256595	 	32
48430	527681	Washington was not moving toward a unilateral lifting of the embargo.	Washington was not moving toward a unilateral lifting of the embargo.	25117444	1472576256670	1472576256757	e	69
48430	527681	Washington was not moving toward a unilateral lifting of the embargo.	Washington was not moving toward a unilateral lifting of the embargo.	25117450	1472576256823	1472576256930	m	77
48430	527681	Washington was not moving toward a unilateral lifting of the embargo.	Washington was not moving toward a unilateral lifting of the embargo.	25117459	1472576257598	1472576257675	v	86
48430	527681	Washington was not moving toward a unilateral lifting of the embargo.	Washington was not moving toward a unilateral lifting of the embargo.	25117524	1472576257865	1472576257989	BKSP	8
48430	527681	Washington was not moving toward a unilateral lifting of the embargo.	Washington was not moving toward a unilateral lifting of the embargo.	25117531	1472576258426	1472576258536	b	66
48430	527681	Washington was not moving toward a unilateral lifting of the embargo.	Washington was not moving toward a unilateral lifting of the embargo.	25117537	1472576258577	1472576258689	a	65
48430	527681	Washington was not moving toward a unilateral lifting of the embargo.	Washington was not moving toward a unilateral lifting of the embargo.	25117543	1472576258966	1472576259070	r	82
48430	527681	Washington was not moving toward a unilateral lifting of the embargo.	Washington was not moving toward a unilateral lifting of the embargo.	25117547	1472576259144	1472576259245	g	71
48430	527681	Washington was not moving toward a unilateral lifting of the embargo.	Washington was not moving toward a unilateral lifting of the embargo.	25117574	1472576259232	1472576259331	o	79
48430	527705	It will probably be tomorrow.	It will probably be tomorrow.	25117783	1472576261674	1472576261806	ARW_RIGHT	39
48430	527705	It will probably be tomorrow.	It will probably be tomorrow.	25117789	1472576261682	1472576262028	ARW_UP	38
48430	527705	It will probably be tomorrow.	It will probably be tomorrow.	25117801	1472576262173	1472576262662	SHIFT	16
48430	527705	It will probably be tomorrow.	It will probably be tomorrow.	25117795	1472576262392	1472576262482	U	73
48430	527705	It will probably be tomorrow.	It will probably be tomorrow.	25117809	1472576262917	1472576263027	BKSP	8
48430	527705	It will probably be tomorrow.	It will probably be tomorrow.	25117814	1472576263362	1472576263472	t	84
48430	527705	It will probably be tomorrow.	It will probably be tomorrow.	25117817	1472576263451	1472576263570	 	32
48430	527705	It will probably be tomorrow.	It will probably be tomorrow.	25117820	1472576263598	1472576263708	w	87
48430	527705	It will probably be tomorrow.	It will probably be tomorrow.	25117841	1472576263671	1472576263764	i	73
48430	527705	It will probably be tomorrow.	It will probably be tomorrow.	25117843	1472576263835	1472576263921	l	76
48430	527705	It will probably be tomorrow.	It will probably be tomorrow.	25117845	1472576263952	1472576264047	l	76
48430	527705	It will probably be tomorrow.	It will probably be tomorrow.	25117848	1472576264110	1472576264224	 	32
48430	527705	It will probably be tomorrow.	It will probably be tomorrow.	25117853	1472576264351	1472576264481	p	80
48430	527705	It will probably be tomorrow.	It will probably be tomorrow.	25117858	1472576264501	1472576264618	r	82
48430	527705	It will probably be tomorrow.	It will probably be tomorrow.	25117884	1472576264584	1472576264692	o	79
48430	527705	It will probably be tomorrow.	It will probably be tomorrow.	25117886	1472576264775	1472576264872	b	66
48430	527705	It will probably be tomorrow.	It will probably be tomorrow.	25117888	1472576264870	1472576265000	a	65
48430	527705	It will probably be tomorrow.	It will probably be tomorrow.	25117889	1472576264930	1472576265017	b	66
48430	527705	It will probably be tomorrow.	It will probably be tomorrow.	25117891	1472576265058	1472576265186	l	76
48430	527705	It will probably be tomorrow.	It will probably be tomorrow.	25117892	1472576265216	1472576265315	y	89
48430	527705	It will probably be tomorrow.	It will probably be tomorrow.	25117951	1472576265344	1472576265474	 	32
48430	527705	It will probably be tomorrow.	It will probably be tomorrow.	25117957	1472576265854	1472576265951	b	66
48430	527705	It will probably be tomorrow.	It will probably be tomorrow.	25117962	1472576265943	1472576266055	e	69
48430	527705	It will probably be tomorrow.	It will probably be tomorrow.	25117968	1472576266020	1472576266136	 	32
48430	527705	It will probably be tomorrow.	It will probably be tomorrow.	25117972	1472576266217	1472576266346	o	79
48430	527705	It will probably be tomorrow.	It will probably be tomorrow.	25118037	1472576266319	1472576266444	m	77
48430	527705	It will probably be tomorrow.	It will probably be tomorrow.	25118044	1472576266431	1472576266546	o	79
48430	527705	It will probably be tomorrow.	It will probably be tomorrow.	25118049	1472576266752	1472576266848	BKSP	8
48430	527705	It will probably be tomorrow.	It will probably be tomorrow.	25118052	1472576266873	1472576266966	BKSP	8
48430	527705	It will probably be tomorrow.	It will probably be tomorrow.	25118055	1472576266993	1472576267114	BKSP	8
48430	527705	It will probably be tomorrow.	It will probably be tomorrow.	25118056	1472576267319	1472576267430	t	84
48430	527705	It will probably be tomorrow.	It will probably be tomorrow.	25118057	1472576267403	1472576267511	o	79
48430	527705	It will probably be tomorrow.	It will probably be tomorrow.	25118058	1472576267468	1472576267590	m	77
48430	527705	It will probably be tomorrow.	It will probably be tomorrow.	25118067	1472576267582	1472576267685	o	79
48430	527705	It will probably be tomorrow.	It will probably be tomorrow.	25118074	1472576267668	1472576267758	r	82
48430	527705	It will probably be tomorrow.	It will probably be tomorrow.	25118080	1472576267787	1472576267890	r	82
48430	527705	It will probably be tomorrow.	It will probably be tomorrow.	25118084	1472576267879	1472576267985	o	79
48430	527705	It will probably be tomorrow.	It will probably be tomorrow.	25118091	1472576267940	1472576268057	w	87
48430	527715	Theresa, I changed the CIG fuel rate to.	Theresa, I changed the CIG fuel rate to.	25118936	1472576268219	1472576283978	.	190
48430	527715	Theresa, I changed the CIG fuel rate to.	Theresa, I changed the CIG fuel rate to.	25118226	1472576270060	1472576270382	SHIFT	16
48430	527715	Theresa, I changed the CIG fuel rate to.	Theresa, I changed the CIG fuel rate to.	25118222	1472576270266	1472576270377	T	84
48430	527715	Theresa, I changed the CIG fuel rate to.	Theresa, I changed the CIG fuel rate to.	25118231	1472576270528	1472576270639	h	72
48430	527715	Theresa, I changed the CIG fuel rate to.	Theresa, I changed the CIG fuel rate to.	25118234	1472576270647	1472576270742	e	69
48430	527715	Theresa, I changed the CIG fuel rate to.	Theresa, I changed the CIG fuel rate to.	25118237	1472576270764	1472576270863	r	82
48430	527715	Theresa, I changed the CIG fuel rate to.	Theresa, I changed the CIG fuel rate to.	25118240	1472576270971	1472576271083	e	69
48430	527715	Theresa, I changed the CIG fuel rate to.	Theresa, I changed the CIG fuel rate to.	25118284	1472576271181	1472576271284	s	83
48430	527715	Theresa, I changed the CIG fuel rate to.	Theresa, I changed the CIG fuel rate to.	25118288	1472576271329	1472576271452	a	65
48430	527715	Theresa, I changed the CIG fuel rate to.	Theresa, I changed the CIG fuel rate to.	25118293	1472576271468	1472576271592	 	32
48430	527715	Theresa, I changed the CIG fuel rate to.	Theresa, I changed the CIG fuel rate to.	25118299	1472576272044	1472576272154	BKSP	8
48430	527715	Theresa, I changed the CIG fuel rate to.	Theresa, I changed the CIG fuel rate to.	25118302	1472576272331	1472576272438	,	188
48430	527715	Theresa, I changed the CIG fuel rate to.	Theresa, I changed the CIG fuel rate to.	25118305	1472576272476	1472576272585	 	32
48430	527715	Theresa, I changed the CIG fuel rate to.	Theresa, I changed the CIG fuel rate to.	25118323	1472576272596	1472576272956	SHIFT	16
48430	527715	Theresa, I changed the CIG fuel rate to.	Theresa, I changed the CIG fuel rate to.	25118322	1472576272816	1472576272923	I	73
48430	527715	Theresa, I changed the CIG fuel rate to.	Theresa, I changed the CIG fuel rate to.	25118324	1472576273075	1472576273188	 	32
48430	527715	Theresa, I changed the CIG fuel rate to.	Theresa, I changed the CIG fuel rate to.	25118325	1472576273233	1472576273339	c	67
48430	527715	Theresa, I changed the CIG fuel rate to.	Theresa, I changed the CIG fuel rate to.	25118326	1472576273316	1472576273406	h	72
48430	527715	Theresa, I changed the CIG fuel rate to.	Theresa, I changed the CIG fuel rate to.	25118377	1472576273393	1472576273520	a	65
48430	527715	Theresa, I changed the CIG fuel rate to.	Theresa, I changed the CIG fuel rate to.	25118380	1472576273464	1472576273549	n	78
48430	527715	Theresa, I changed the CIG fuel rate to.	Theresa, I changed the CIG fuel rate to.	25118383	1472576273615	1472576273738	g	71
48430	527715	Theresa, I changed the CIG fuel rate to.	Theresa, I changed the CIG fuel rate to.	25118385	1472576274057	1472576274169	e	69
48430	527715	Theresa, I changed the CIG fuel rate to.	Theresa, I changed the CIG fuel rate to.	25118388	1472576274418	1472576274560	d	68
48430	527715	Theresa, I changed the CIG fuel rate to.	Theresa, I changed the CIG fuel rate to.	25118392	1472576274587	1472576274706	 	32
48430	527715	Theresa, I changed the CIG fuel rate to.	Theresa, I changed the CIG fuel rate to.	25118445	1472576274979	1472576275099	t	84
48430	527715	Theresa, I changed the CIG fuel rate to.	Theresa, I changed the CIG fuel rate to.	25118450	1472576275079	1472576275191	h	72
48430	527715	Theresa, I changed the CIG fuel rate to.	Theresa, I changed the CIG fuel rate to.	25118452	1472576275180	1472576275312	e	69
48430	527715	Theresa, I changed the CIG fuel rate to.	Theresa, I changed the CIG fuel rate to.	25118456	1472576275271	1472576275376	 	32
48430	527715	Theresa, I changed the CIG fuel rate to.	Theresa, I changed the CIG fuel rate to.	25118586	1472576275487	1472576276480	SHIFT	16
48430	527715	Theresa, I changed the CIG fuel rate to.	Theresa, I changed the CIG fuel rate to.	25118459	1472576275709	1472576275834	C	67
48430	527715	Theresa, I changed the CIG fuel rate to.	Theresa, I changed the CIG fuel rate to.	25118568	1472576275990	1472576276086	I	73
48430	527715	Theresa, I changed the CIG fuel rate to.	Theresa, I changed the CIG fuel rate to.	25118576	1472576276328	1472576276429	G	71
48430	527715	Theresa, I changed the CIG fuel rate to.	Theresa, I changed the CIG fuel rate to.	25118596	1472576276564	1472576276685	 	32
48430	527715	Theresa, I changed the CIG fuel rate to.	Theresa, I changed the CIG fuel rate to.	25118603	1472576277446	1472576277559	f	70
48430	527715	Theresa, I changed the CIG fuel rate to.	Theresa, I changed the CIG fuel rate to.	25118608	1472576277841	1472576277968	e	69
48430	527715	Theresa, I changed the CIG fuel rate to.	Theresa, I changed the CIG fuel rate to.	25118749	1472576277947	1472576278046	u	85
48430	527715	Theresa, I changed the CIG fuel rate to.	Theresa, I changed the CIG fuel rate to.	25118751	1472576278111	1472576278242	l	76
48430	527715	Theresa, I changed the CIG fuel rate to.	Theresa, I changed the CIG fuel rate to.	25118752	1472576278321	1472576278445	 	32
48430	527715	Theresa, I changed the CIG fuel rate to.	Theresa, I changed the CIG fuel rate to.	25118753	1472576279106	1472576279189	\	8
48430	527715	Theresa, I changed the CIG fuel rate to.	Theresa, I changed the CIG fuel rate to.	25118754	1472576279241	1472576279322	BKSP	8
48430	527715	Theresa, I changed the CIG fuel rate to.	Theresa, I changed the CIG fuel rate to.	25118755	1472576279370	1472576279469	BKSP	8
48430	527715	Theresa, I changed the CIG fuel rate to.	Theresa, I changed the CIG fuel rate to.	25118756	1472576279507	1472576279592	BKSP	8
48430	527715	Theresa, I changed the CIG fuel rate to.	Theresa, I changed the CIG fuel rate to.	25118757	1472576279630	1472576279727	BKSP	8
48430	527715	Theresa, I changed the CIG fuel rate to.	Theresa, I changed the CIG fuel rate to.	25118758	1472576280172	1472576280294	u	85
48430	527715	Theresa, I changed the CIG fuel rate to.	Theresa, I changed the CIG fuel rate to.	25118759	1472576280504	1472576280629	e	69
48430	527715	Theresa, I changed the CIG fuel rate to.	Theresa, I changed the CIG fuel rate to.	25118837	1472576280713	1472576280817	;	186
48430	527715	Theresa, I changed the CIG fuel rate to.	Theresa, I changed the CIG fuel rate to.	25118839	1472576280966	1472576281074	 	32
48430	527715	Theresa, I changed the CIG fuel rate to.	Theresa, I changed the CIG fuel rate to.	25118842	1472576281302	1472576281410	BKSP	8
48430	527715	Theresa, I changed the CIG fuel rate to.	Theresa, I changed the CIG fuel rate to.	25118846	1472576281428	1472576281561	BKSP	8
48430	527715	Theresa, I changed the CIG fuel rate to.	Theresa, I changed the CIG fuel rate to.	25118850	1472576282017	1472576282116	l	76
48430	527715	Theresa, I changed the CIG fuel rate to.	Theresa, I changed the CIG fuel rate to.	25118856	1472576282216	1472576282326	 	32
48430	527715	Theresa, I changed the CIG fuel rate to.	Theresa, I changed the CIG fuel rate to.	25118861	1472576282466	1472576282596	r	82
48430	527715	Theresa, I changed the CIG fuel rate to.	Theresa, I changed the CIG fuel rate to.	25118899	1472576282698	1472576282840	a	65
48430	527715	Theresa, I changed the CIG fuel rate to.	Theresa, I changed the CIG fuel rate to.	25118901	1472576282813	1472576282925	t	84
48430	527715	Theresa, I changed the CIG fuel rate to.	Theresa, I changed the CIG fuel rate to.	25118903	1472576282916	1472576283034	e	69
48430	527715	Theresa, I changed the CIG fuel rate to.	Theresa, I changed the CIG fuel rate to.	25118907	1472576283008	1472576283150	 	32
48430	527715	Theresa, I changed the CIG fuel rate to.	Theresa, I changed the CIG fuel rate to.	25118910	1472576283376	1472576283481	t	84
48430	527715	Theresa, I changed the CIG fuel rate to.	Theresa, I changed the CIG fuel rate to.	25118932	1472576283486	1472576283618	o	79
48430	527731	I will follow up with him as soon as the dust settles.	I will follow up with him as soon as the dust settles.	25119082	1472576285939	1472576286097	SHIFT	16
48430	527731	I will follow up with him as soon as the dust settles.	I will follow up with him as soon as the dust settles.	25119091	1472576286302	1472576286642	SHIFT	16
48430	527731	I will follow up with him as soon as the dust settles.	I will follow up with him as soon as the dust settles.	25119085	1472576286523	1472576286626	I	73
48430	527731	I will follow up with him as soon as the dust settles.	I will follow up with him as soon as the dust settles.	25119097	1472576286732	1472576286851	 	32
48430	527731	I will follow up with him as soon as the dust settles.	I will follow up with him as soon as the dust settles.	25119102	1472576286951	1472576287034	i	73
48430	527731	I will follow up with him as soon as the dust settles.	I will follow up with him as soon as the dust settles.	25119104	1472576287162	1472576287241	l	76
48430	527731	I will follow up with him as soon as the dust settles.	I will follow up with him as soon as the dust settles.	25119108	1472576287281	1472576287378	l	76
48430	527731	I will follow up with him as soon as the dust settles.	I will follow up with him as soon as the dust settles.	25119179	1472576287478	1472576287582	 	32
48430	527731	I will follow up with him as soon as the dust settles.	I will follow up with him as soon as the dust settles.	25119182	1472576287750	1472576287859	BKSP	8
48430	527731	I will follow up with him as soon as the dust settles.	I will follow up with him as soon as the dust settles.	25119187	1472576287879	1472576287963	BKSP	8
48430	527731	I will follow up with him as soon as the dust settles.	I will follow up with him as soon as the dust settles.	25119192	1472576287996	1472576288078	BKSP	8
48430	527731	I will follow up with him as soon as the dust settles.	I will follow up with him as soon as the dust settles.	25119196	1472576288122	1472576288228	BKSP	8
48430	527731	I will follow up with him as soon as the dust settles.	I will follow up with him as soon as the dust settles.	25119201	1472576288305	1472576288411	w	87
48430	527731	I will follow up with him as soon as the dust settles.	I will follow up with him as soon as the dust settles.	25119206	1472576288566	1472576288679	i	73
48430	527731	I will follow up with him as soon as the dust settles.	I will follow up with him as soon as the dust settles.	25119207	1472576288755	1472576288841	l	76
48430	527731	I will follow up with him as soon as the dust settles.	I will follow up with him as soon as the dust settles.	25119210	1472576288868	1472576288969	l	76
48430	527731	I will follow up with him as soon as the dust settles.	I will follow up with him as soon as the dust settles.	25119236	1472576289071	1472576289172	 	32
48430	527731	I will follow up with him as soon as the dust settles.	I will follow up with him as soon as the dust settles.	25119241	1472576289387	1472576289492	f	70
48430	527731	I will follow up with him as soon as the dust settles.	I will follow up with him as soon as the dust settles.	25119247	1472576289467	1472576289557	o	79
48430	527731	I will follow up with him as soon as the dust settles.	I will follow up with him as soon as the dust settles.	25119252	1472576289605	1472576289688	l	76
48430	527731	I will follow up with him as soon as the dust settles.	I will follow up with him as soon as the dust settles.	25119257	1472576289722	1472576289825	l	76
48430	527731	I will follow up with him as soon as the dust settles.	I will follow up with him as soon as the dust settles.	25119284	1472576289859	1472576289980	o	79
48430	527731	I will follow up with him as soon as the dust settles.	I will follow up with him as soon as the dust settles.	25119287	1472576290059	1472576290168	w	87
48430	527731	I will follow up with him as soon as the dust settles.	I will follow up with him as soon as the dust settles.	25119292	1472576290140	1472576290251	 	32
48430	527731	I will follow up with him as soon as the dust settles.	I will follow up with him as soon as the dust settles.	25119298	1472576290314	1472576290426	u	85
48430	527731	I will follow up with him as soon as the dust settles.	I will follow up with him as soon as the dust settles.	25119302	1472576290555	1472576290690	p	80
48430	527731	I will follow up with him as soon as the dust settles.	I will follow up with him as soon as the dust settles.	25119346	1472576290870	1472576291042	 	32
48430	527731	I will follow up with him as soon as the dust settles.	I will follow up with him as soon as the dust settles.	25119350	1472576291410	1472576291578	w	87
48430	527731	I will follow up with him as soon as the dust settles.	I will follow up with him as soon as the dust settles.	25119354	1472576291533	1472576291671	i	73
48430	527731	I will follow up with him as soon as the dust settles.	I will follow up with him as soon as the dust settles.	25119358	1472576291686	1472576291823	t	84
48430	527731	I will follow up with him as soon as the dust settles.	I will follow up with him as soon as the dust settles.	25119372	1472576291762	1472576291845	h	72
48430	527731	I will follow up with him as soon as the dust settles.	I will follow up with him as soon as the dust settles.	25119377	1472576291908	1472576291994	 	32
48430	527731	I will follow up with him as soon as the dust settles.	I will follow up with him as soon as the dust settles.	25119381	1472576292070	1472576292182	h	72
48430	527731	I will follow up with him as soon as the dust settles.	I will follow up with him as soon as the dust settles.	25119389	1472576292139	1472576292331	i	73
48430	527731	I will follow up with him as soon as the dust settles.	I will follow up with him as soon as the dust settles.	25119398	1472576292276	1472576292371	m	77
48430	527731	I will follow up with him as soon as the dust settles.	I will follow up with him as soon as the dust settles.	25119405	1472576292477	1472576292599	 	32
48430	527731	I will follow up with him as soon as the dust settles.	I will follow up with him as soon as the dust settles.	25119444	1472576292995	1472576293200	a	65
48430	527731	I will follow up with him as soon as the dust settles.	I will follow up with him as soon as the dust settles.	25119447	1472576293160	1472576293296	s	83
48430	527731	I will follow up with him as soon as the dust settles.	I will follow up with him as soon as the dust settles.	25119449	1472576293299	1472576293434	 	32
48430	527731	I will follow up with him as soon as the dust settles.	I will follow up with him as soon as the dust settles.	25119454	1472576293610	1472576293735	s	83
48430	527731	I will follow up with him as soon as the dust settles.	I will follow up with him as soon as the dust settles.	25119466	1472576293704	1472576293807	o	79
48430	527731	I will follow up with him as soon as the dust settles.	I will follow up with him as soon as the dust settles.	25119467	1472576293836	1472576293952	o	79
48430	527731	I will follow up with him as soon as the dust settles.	I will follow up with him as soon as the dust settles.	25119468	1472576293980	1472576294075	n	78
48430	527731	I will follow up with him as soon as the dust settles.	I will follow up with him as soon as the dust settles.	25119469	1472576294134	1472576294243	 	32
48430	527731	I will follow up with him as soon as the dust settles.	I will follow up with him as soon as the dust settles.	25119470	1472576294241	1472576294405	a	65
48430	527731	I will follow up with him as soon as the dust settles.	I will follow up with him as soon as the dust settles.	25119500	1472576294349	1472576294493	s	83
48430	527731	I will follow up with him as soon as the dust settles.	I will follow up with him as soon as the dust settles.	25119504	1472576294445	1472576294583	 	32
48430	527731	I will follow up with him as soon as the dust settles.	I will follow up with him as soon as the dust settles.	25119508	1472576294680	1472576294807	t	84
48430	527731	I will follow up with him as soon as the dust settles.	I will follow up with him as soon as the dust settles.	25119513	1472576294765	1472576294863	h	72
48430	527731	I will follow up with him as soon as the dust settles.	I will follow up with him as soon as the dust settles.	25119517	1472576294857	1472576294991	e	69
48430	527731	I will follow up with him as soon as the dust settles.	I will follow up with him as soon as the dust settles.	25119547	1472576294940	1472576295064	 	32
48430	527731	I will follow up with him as soon as the dust settles.	I will follow up with him as soon as the dust settles.	25119551	1472576295384	1472576295485	d	68
48430	527731	I will follow up with him as soon as the dust settles.	I will follow up with him as soon as the dust settles.	25119557	1472576295469	1472576295565	u	85
48430	527731	I will follow up with him as soon as the dust settles.	I will follow up with him as soon as the dust settles.	25119562	1472576295557	1472576295692	s	83
48430	527731	I will follow up with him as soon as the dust settles.	I will follow up with him as soon as the dust settles.	25119568	1472576295685	1472576295797	t	84
48430	527731	I will follow up with him as soon as the dust settles.	I will follow up with him as soon as the dust settles.	25119571	1472576295852	1472576296007	 	32
48430	527731	I will follow up with him as soon as the dust settles.	I will follow up with him as soon as the dust settles.	25119616	1472576296371	1472576296488	s	83
48430	527731	I will follow up with him as soon as the dust settles.	I will follow up with him as soon as the dust settles.	25119621	1472576296533	1472576296650	e	69
48430	527731	I will follow up with him as soon as the dust settles.	I will follow up with him as soon as the dust settles.	25119624	1472576296720	1472576296810	t	84
48430	527731	I will follow up with him as soon as the dust settles.	I will follow up with him as soon as the dust settles.	25119628	1472576296847	1472576296960	t	84
48430	527731	I will follow up with him as soon as the dust settles.	I will follow up with him as soon as the dust settles.	25119630	1472576297175	1472576297287	e	69
48430	527731	I will follow up with him as soon as the dust settles.	I will follow up with him as soon as the dust settles.	25119654	1472576297477	1472576297598	BKSP	8
48430	527731	I will follow up with him as soon as the dust settles.	I will follow up with him as soon as the dust settles.	25119657	1472576297662	1472576297774	l	76
48430	527731	I will follow up with him as soon as the dust settles.	I will follow up with him as soon as the dust settles.	25119662	1472576297743	1472576297861	e	69
48430	527731	I will follow up with him as soon as the dust settles.	I will follow up with him as soon as the dust settles.	25119667	1472576297898	1472576298078	s	83
48430	527731	I will follow up with him as soon as the dust settles.	I will follow up with him as soon as the dust settles.	25119672	1472576298152	1472576298285	.	190
48430	527746	The move is also against our law.	The move is also against our law.	25119822	1472576300604	1472576300962	SHIFT	16
48430	527746	The move is also against our law.	The move is also against our law.	25119824	1472576300843	1472576300976	T	84
48430	527746	The move is also against our law.	The move is also against our law.	25119827	1472576301066	1472576301157	h	72
48430	527746	The move is also against our law.	The move is also against our law.	25119830	1472576301088	1472576301216	e	69
48430	527746	The move is also against our law.	The move is also against our law.	25119834	1472576301196	1472576301313	 	32
48430	527746	The move is also against our law.	The move is also against our law.	25119837	1472576301342	1472576301497	m	77
48430	527746	The move is also against our law.	The move is also against our law.	25119859	1472576301441	1472576301578	o	79
48430	527746	The move is also against our law.	The move is also against our law.	25119860	1472576301538	1472576301692	v	86
48430	527746	The move is also against our law.	The move is also against our law.	25119861	1472576301616	1472576301798	e	69
48430	527746	The move is also against our law.	The move is also against our law.	25119862	1472576301766	1472576301881	 	32
48430	527746	The move is also against our law.	The move is also against our law.	25119863	1472576301974	1472576302093	i	73
48430	527746	The move is also against our law.	The move is also against our law.	25119875	1472576302045	1472576302189	s	83
48430	527746	The move is also against our law.	The move is also against our law.	25119880	1472576302153	1472576302254	 	32
48430	527746	The move is also against our law.	The move is also against our law.	25119887	1472576302257	1472576302409	a	65
48430	527746	The move is also against our law.	The move is also against our law.	25119892	1472576302367	1472576302466	l	76
48430	527746	The move is also against our law.	The move is also against our law.	25119897	1472576302452	1472576302569	s	83
48430	527746	The move is also against our law.	The move is also against our law.	25119925	1472576302544	1472576302663	o	79
48430	527746	The move is also against our law.	The move is also against our law.	25119928	1472576302683	1472576302808	 	32
48430	527746	The move is also against our law.	The move is also against our law.	25119933	1472576303347	1472576303490	a	65
48430	527746	The move is also against our law.	The move is also against our law.	25119939	1472576303539	1472576303642	g	71
48430	527746	The move is also against our law.	The move is also against our law.	25119947	1472576303611	1472576303745	a	65
48430	527746	The move is also against our law.	The move is also against our law.	25119993	1472576303698	1472576303851	i	73
48430	527746	The move is also against our law.	The move is also against our law.	25119996	1472576303777	1472576303929	n	78
48430	527746	The move is also against our law.	The move is also against our law.	25119999	1472576303898	1472576304010	s	83
48430	527746	The move is also against our law.	The move is also against our law.	25120001	1472576304019	1472576304141	t	84
48430	527746	The move is also against our law.	The move is also against our law.	25120004	1472576304138	1472576304294	 	32
48430	527746	The move is also against our law.	The move is also against our law.	25120011	1472576304741	1472576304872	o	79
48430	527746	The move is also against our law.	The move is also against our law.	25120029	1472576304930	1472576305048	u	85
48430	527746	The move is also against our law.	The move is also against our law.	25120032	1472576305075	1472576305187	r	82
48430	527746	The move is also against our law.	The move is also against our law.	25120034	1472576305173	1472576305279	 	32
48430	527746	The move is also against our law.	The move is also against our law.	25120035	1472576305352	1472576305469	l	76
48430	527746	The move is also against our law.	The move is also against our law.	25120058	1472576305435	1472576305565	a	65
48430	527746	The move is also against our law.	The move is also against our law.	25120065	1472576305583	1472576305702	w	87
48430	527757	Have I mentioned how much I love Houston traffic?	Have I mentioned how much I love Houston traffic?	25120221	1472576307963	1472576308411	SHIFT	16
48430	527757	Have I mentioned how much I love Houston traffic?	Have I mentioned how much I love Houston traffic?	25120213	1472576308232	1472576308333	H	72
48430	527757	Have I mentioned how much I love Houston traffic?	Have I mentioned how much I love Houston traffic?	25120228	1472576308474	1472576308637	a	65
48430	527757	Have I mentioned how much I love Houston traffic?	Have I mentioned how much I love Houston traffic?	25120237	1472576308611	1472576308706	v	86
48430	527757	Have I mentioned how much I love Houston traffic?	Have I mentioned how much I love Houston traffic?	25120242	1472576308697	1472576308829	e	69
48430	527757	Have I mentioned how much I love Houston traffic?	Have I mentioned how much I love Houston traffic?	25120311	1472576308759	1472576308877	 	32
48430	527757	Have I mentioned how much I love Houston traffic?	Have I mentioned how much I love Houston traffic?	25120318	1472576308885	1472576309023	i	73
48430	527757	Have I mentioned how much I love Houston traffic?	Have I mentioned how much I love Houston traffic?	25120324	1472576309004	1472576309153	 	32
48430	527757	Have I mentioned how much I love Houston traffic?	Have I mentioned how much I love Houston traffic?	25120326	1472576309497	1472576309591	BKSP	8
48430	527757	Have I mentioned how much I love Houston traffic?	Have I mentioned how much I love Houston traffic?	25120330	1472576309625	1472576309742	BKSP	8
48430	527757	Have I mentioned how much I love Houston traffic?	Have I mentioned how much I love Houston traffic?	25120335	1472576309904	1472576310246	SHIFT	16
48430	527757	Have I mentioned how much I love Houston traffic?	Have I mentioned how much I love Houston traffic?	25120334	1472576310111	1472576310205	I	73
48430	527757	Have I mentioned how much I love Houston traffic?	Have I mentioned how much I love Houston traffic?	25120336	1472576310334	1472576310449	 	32
48430	527757	Have I mentioned how much I love Houston traffic?	Have I mentioned how much I love Houston traffic?	25120337	1472576310517	1472576310629	m	77
48430	527757	Have I mentioned how much I love Houston traffic?	Have I mentioned how much I love Houston traffic?	25120343	1472576310597	1472576310723	e	69
48430	527757	Have I mentioned how much I love Houston traffic?	Have I mentioned how much I love Houston traffic?	25120346	1472576310689	1472576310813	n	78
48430	527757	Have I mentioned how much I love Houston traffic?	Have I mentioned how much I love Houston traffic?	25120350	1472576310800	1472576310911	t	84
48430	527757	Have I mentioned how much I love Houston traffic?	Have I mentioned how much I love Houston traffic?	25120354	1472576310887	1472576310977	i	73
48430	527757	Have I mentioned how much I love Houston traffic?	Have I mentioned how much I love Houston traffic?	25120360	1472576311010	1472576311158	o	79
48430	527757	Have I mentioned how much I love Houston traffic?	Have I mentioned how much I love Houston traffic?	25120396	1472576311080	1472576311205	n	78
48430	527757	Have I mentioned how much I love Houston traffic?	Have I mentioned how much I love Houston traffic?	25120398	1472576311363	1472576311472	e	69
48430	527757	Have I mentioned how much I love Houston traffic?	Have I mentioned how much I love Houston traffic?	25120399	1472576311508	1472576311634	d	68
48430	527757	Have I mentioned how much I love Houston traffic?	Have I mentioned how much I love Houston traffic?	25120401	1472576311615	1472576311733	 	32
48430	527757	Have I mentioned how much I love Houston traffic?	Have I mentioned how much I love Houston traffic?	25120403	1472576311899	1472576312007	h	72
48430	527757	Have I mentioned how much I love Houston traffic?	Have I mentioned how much I love Houston traffic?	25120431	1472576312001	1472576312140	o	79
48430	527757	Have I mentioned how much I love Houston traffic?	Have I mentioned how much I love Houston traffic?	25120433	1472576312091	1472576312220	w	87
48430	527757	Have I mentioned how much I love Houston traffic?	Have I mentioned how much I love Houston traffic?	25120435	1472576312214	1472576312329	 	32
48430	527757	Have I mentioned how much I love Houston traffic?	Have I mentioned how much I love Houston traffic?	25120438	1472576312519	1472576312661	m	77
48430	527757	Have I mentioned how much I love Houston traffic?	Have I mentioned how much I love Houston traffic?	25120443	1472576312683	1472576312820	u	85
48430	527757	Have I mentioned how much I love Houston traffic?	Have I mentioned how much I love Houston traffic?	25120502	1472576312768	1472576312889	c	67
48430	527757	Have I mentioned how much I love Houston traffic?	Have I mentioned how much I love Houston traffic?	25120504	1472576312851	1472576312941	h	72
48430	527757	Have I mentioned how much I love Houston traffic?	Have I mentioned how much I love Houston traffic?	25120507	1472576313004	1472576313112	 	32
48430	527757	Have I mentioned how much I love Houston traffic?	Have I mentioned how much I love Houston traffic?	25120514	1472576313328	1472576313586	SHIFT	16
48430	527757	Have I mentioned how much I love Houston traffic?	Have I mentioned how much I love Houston traffic?	25120511	1472576313470	1472576313566	I	73
48430	527757	Have I mentioned how much I love Houston traffic?	Have I mentioned how much I love Houston traffic?	25120517	1472576313672	1472576313785	 	32
48430	527757	Have I mentioned how much I love Houston traffic?	Have I mentioned how much I love Houston traffic?	25120520	1472576314410	1472576314647	l	76
48430	527757	Have I mentioned how much I love Houston traffic?	Have I mentioned how much I love Houston traffic?	25120584	1472576314527	1472576314716	o	79
48430	527757	Have I mentioned how much I love Houston traffic?	Have I mentioned how much I love Houston traffic?	25120586	1472576314858	1472576314971	v	86
48430	527757	Have I mentioned how much I love Houston traffic?	Have I mentioned how much I love Houston traffic?	25120590	1472576314973	1472576315079	e	69
48430	527757	Have I mentioned how much I love Houston traffic?	Have I mentioned how much I love Houston traffic?	25120592	1472576315065	1472576315189	 	32
48430	527757	Have I mentioned how much I love Houston traffic?	Have I mentioned how much I love Houston traffic?	25120598	1472576315425	1472576315918	SHIFT	16
48430	527757	Have I mentioned how much I love Houston traffic?	Have I mentioned how much I love Houston traffic?	25120595	1472576315805	1472576315916	H	72
48430	527757	Have I mentioned how much I love Houston traffic?	Have I mentioned how much I love Houston traffic?	25120602	1472576316030	1472576316169	i	73
48430	527757	Have I mentioned how much I love Houston traffic?	Have I mentioned how much I love Houston traffic?	25120638	1472576316125	1472576316259	u	85
48430	527757	Have I mentioned how much I love Houston traffic?	Have I mentioned how much I love Houston traffic?	25120640	1472576316340	1472576316460	s	83
48430	527757	Have I mentioned how much I love Houston traffic?	Have I mentioned how much I love Houston traffic?	25120644	1472576316423	1472576316515	t	84
48430	527757	Have I mentioned how much I love Houston traffic?	Have I mentioned how much I love Houston traffic?	25120648	1472576316608	1472576316799	o	79
48430	527757	Have I mentioned how much I love Houston traffic?	Have I mentioned how much I love Houston traffic?	25120651	1472576316736	1472576316930	n	78
48430	527757	Have I mentioned how much I love Houston traffic?	Have I mentioned how much I love Houston traffic?	25120747	1472576317119	1472576317209	=	8
48430	527757	Have I mentioned how much I love Houston traffic?	Have I mentioned how much I love Houston traffic?	25120751	1472576317271	1472576317343	=	187
48430	527757	Have I mentioned how much I love Houston traffic?	Have I mentioned how much I love Houston traffic?	25120756	1472576317277	1472576317343	BKSP	8
48430	527757	Have I mentioned how much I love Houston traffic?	Have I mentioned how much I love Houston traffic?	25120761	1472576317386	1472576317487	BKSP	8
48430	527757	Have I mentioned how much I love Houston traffic?	Have I mentioned how much I love Houston traffic?	25120765	1472576317514	1472576317608	BKSP	8
48430	527757	Have I mentioned how much I love Houston traffic?	Have I mentioned how much I love Houston traffic?	25120769	1472576317649	1472576317728	BKSP	8
48430	527757	Have I mentioned how much I love Houston traffic?	Have I mentioned how much I love Houston traffic?	25120774	1472576317759	1472576317858	BKSP	8
48430	527757	Have I mentioned how much I love Houston traffic?	Have I mentioned how much I love Houston traffic?	25120777	1472576317898	1472576317984	BKSP	8
48430	527757	Have I mentioned how much I love Houston traffic?	Have I mentioned how much I love Houston traffic?	25120780	1472576318067	1472576318139	BKSP	8
48430	527757	Have I mentioned how much I love Houston traffic?	Have I mentioned how much I love Houston traffic?	25120784	1472576318474	1472576318611	o	79
48430	527757	Have I mentioned how much I love Houston traffic?	Have I mentioned how much I love Houston traffic?	25120792	1472576318590	1472576318714	u	85
48430	527757	Have I mentioned how much I love Houston traffic?	Have I mentioned how much I love Houston traffic?	25120798	1472576318739	1472576318865	s	83
48430	527757	Have I mentioned how much I love Houston traffic?	Have I mentioned how much I love Houston traffic?	25120803	1472576318988	1472576319087	t	84
48430	527757	Have I mentioned how much I love Houston traffic?	Have I mentioned how much I love Houston traffic?	25120848	1472576319044	1472576319204	o	79
48430	527757	Have I mentioned how much I love Houston traffic?	Have I mentioned how much I love Houston traffic?	25120852	1472576319123	1472576319237	n	78
48430	527757	Have I mentioned how much I love Houston traffic?	Have I mentioned how much I love Houston traffic?	25120856	1472576319285	1472576319411	 	32
48430	527757	Have I mentioned how much I love Houston traffic?	Have I mentioned how much I love Houston traffic?	25120859	1472576320074	1472576320200	t	84
48430	527757	Have I mentioned how much I love Houston traffic?	Have I mentioned how much I love Houston traffic?	25120861	1472576320220	1472576320342	r	82
48430	527757	Have I mentioned how much I love Houston traffic?	Have I mentioned how much I love Houston traffic?	25120862	1472576320416	1472576320549	a	65
48430	527757	Have I mentioned how much I love Houston traffic?	Have I mentioned how much I love Houston traffic?	25120891	1472576320593	1472576320677	f	70
48430	527757	Have I mentioned how much I love Houston traffic?	Have I mentioned how much I love Houston traffic?	25120894	1472576320710	1472576320812	f	70
48430	527757	Have I mentioned how much I love Houston traffic?	Have I mentioned how much I love Houston traffic?	25120898	1472576320809	1472576320908	i	73
48430	527757	Have I mentioned how much I love Houston traffic?	Have I mentioned how much I love Houston traffic?	25120904	1472576320894	1472576321000	c	67
48430	527757	Have I mentioned how much I love Houston traffic?	Have I mentioned how much I love Houston traffic?	25120902	1472576321137	1472576321531	SHIFT	16
48430	527757	Have I mentioned how much I love Houston traffic?	Have I mentioned how much I love Houston traffic?	25120909	1472576321345	1472576321500	?	191
48430	527771	Liverpool always had a knack of bringing people down to earth.	Liverpool always had a knack of bringing people down to earth.	25121053	1472576323694	1472576324063	SHIFT	16
48430	527771	Liverpool always had a knack of bringing people down to earth.	Liverpool always had a knack of bringing people down to earth.	25121051	1472576323923	1472576324061	L	76
48430	527771	Liverpool always had a knack of bringing people down to earth.	Liverpool always had a knack of bringing people down to earth.	25121057	1472576324169	1472576324273	i	73
48430	527771	Liverpool always had a knack of bringing people down to earth.	Liverpool always had a knack of bringing people down to earth.	25121064	1472576324336	1472576324457	v	86
48430	527771	Liverpool always had a knack of bringing people down to earth.	Liverpool always had a knack of bringing people down to earth.	25121071	1472576324446	1472576324610	e	69
48430	527771	Liverpool always had a knack of bringing people down to earth.	Liverpool always had a knack of bringing people down to earth.	25121124	1472576324554	1472576324693	r	82
48430	527771	Liverpool always had a knack of bringing people down to earth.	Liverpool always had a knack of bringing people down to earth.	25121125	1472576324713	1472576324819	p	80
48430	527771	Liverpool always had a knack of bringing people down to earth.	Liverpool always had a knack of bringing people down to earth.	25121126	1472576324965	1472576325048	o	79
48430	527771	Liverpool always had a knack of bringing people down to earth.	Liverpool always had a knack of bringing people down to earth.	25121127	1472576325104	1472576325192	o	79
48430	527771	Liverpool always had a knack of bringing people down to earth.	Liverpool always had a knack of bringing people down to earth.	25121128	1472576325262	1472576325346	l	76
48430	527771	Liverpool always had a knack of bringing people down to earth.	Liverpool always had a knack of bringing people down to earth.	25121130	1472576325463	1472576325564	 	32
48430	527771	Liverpool always had a knack of bringing people down to earth.	Liverpool always had a knack of bringing people down to earth.	25121152	1472576325643	1472576325778	a	65
48430	527771	Liverpool always had a knack of bringing people down to earth.	Liverpool always had a knack of bringing people down to earth.	25121154	1472576325742	1472576325854	l	76
48430	527771	Liverpool always had a knack of bringing people down to earth.	Liverpool always had a knack of bringing people down to earth.	25121155	1472576326200	1472576326326	w	87
48430	527771	Liverpool always had a knack of bringing people down to earth.	Liverpool always had a knack of bringing people down to earth.	25121157	1472576326375	1472576326503	a	65
48430	527771	Liverpool always had a knack of bringing people down to earth.	Liverpool always had a knack of bringing people down to earth.	25121226	1472576326481	1472576326564	t	84
48430	527771	Liverpool always had a knack of bringing people down to earth.	Liverpool always had a knack of bringing people down to earth.	25121230	1472576326556	1472576326665	s	83
48430	527771	Liverpool always had a knack of bringing people down to earth.	Liverpool always had a knack of bringing people down to earth.	25121237	1472576326702	1472576326831	 	32
48430	527771	Liverpool always had a knack of bringing people down to earth.	Liverpool always had a knack of bringing people down to earth.	25121243	1472576327002	1472576327059	=	187
48430	527771	Liverpool always had a knack of bringing people down to earth.	Liverpool always had a knack of bringing people down to earth.	25121249	1472576327113	1472576327220	BKSP	8
48430	527771	Liverpool always had a knack of bringing people down to earth.	Liverpool always had a knack of bringing people down to earth.	25121255	1472576327248	1472576327329	BKSP	8
48430	527771	Liverpool always had a knack of bringing people down to earth.	Liverpool always had a knack of bringing people down to earth.	25121261	1472576327373	1472576327439	BKSP	8
48430	527771	Liverpool always had a knack of bringing people down to earth.	Liverpool always had a knack of bringing people down to earth.	25121264	1472576327481	1472576327584	BKSP	8
48430	527771	Liverpool always had a knack of bringing people down to earth.	Liverpool always had a knack of bringing people down to earth.	25121267	1472576327963	1472576328073	y	89
48430	527771	Liverpool always had a knack of bringing people down to earth.	Liverpool always had a knack of bringing people down to earth.	25121276	1472576328041	1472576328157	s	83
48430	527771	Liverpool always had a knack of bringing people down to earth.	Liverpool always had a knack of bringing people down to earth.	25121278	1472576328108	1472576328230	 	32
48430	527771	Liverpool always had a knack of bringing people down to earth.	Liverpool always had a knack of bringing people down to earth.	25121283	1472576328342	1472576328452	h	72
48430	527771	Liverpool always had a knack of bringing people down to earth.	Liverpool always had a knack of bringing people down to earth.	25121288	1472576328369	1472576328537	a	65
48430	527771	Liverpool always had a knack of bringing people down to earth.	Liverpool always had a knack of bringing people down to earth.	25121292	1472576328552	1472576328663	d	68
48430	527771	Liverpool always had a knack of bringing people down to earth.	Liverpool always had a knack of bringing people down to earth.	25121296	1472576328670	1472576328796	 	32
48430	527771	Liverpool always had a knack of bringing people down to earth.	Liverpool always had a knack of bringing people down to earth.	25121368	1472576329575	1472576329672	a	65
48430	527771	Liverpool always had a knack of bringing people down to earth.	Liverpool always had a knack of bringing people down to earth.	25121370	1472576329680	1472576329807	 	32
48430	527771	Liverpool always had a knack of bringing people down to earth.	Liverpool always had a knack of bringing people down to earth.	25121377	1472576330078	1472576330201	k	75
48430	527771	Liverpool always had a knack of bringing people down to earth.	Liverpool always had a knack of bringing people down to earth.	25121381	1472576330145	1472576330268	n	78
48430	527771	Liverpool always had a knack of bringing people down to earth.	Liverpool always had a knack of bringing people down to earth.	25121450	1472576330219	1472576330342	a	65
48430	527771	Liverpool always had a knack of bringing people down to earth.	Liverpool always had a knack of bringing people down to earth.	25121454	1472576330415	1472576330516	c	67
48430	527771	Liverpool always had a knack of bringing people down to earth.	Liverpool always had a knack of bringing people down to earth.	25121461	1472576330509	1472576330642	k	75
48430	527771	Liverpool always had a knack of bringing people down to earth.	Liverpool always had a knack of bringing people down to earth.	25121466	1472576330606	1472576330739	 	32
48430	527771	Liverpool always had a knack of bringing people down to earth.	Liverpool always had a knack of bringing people down to earth.	25121473	1472576331039	1472576331163	o	79
48430	527771	Liverpool always had a knack of bringing people down to earth.	Liverpool always had a knack of bringing people down to earth.	25121477	1472576331268	1472576331319	f	70
48430	527771	Liverpool always had a knack of bringing people down to earth.	Liverpool always had a knack of bringing people down to earth.	25121508	1472576331779	1472576331911	 	32
48430	527771	Liverpool always had a knack of bringing people down to earth.	Liverpool always had a knack of bringing people down to earth.	25121511	1472576331912	1472576332093	v	86
48430	527771	Liverpool always had a knack of bringing people down to earth.	Liverpool always had a knack of bringing people down to earth.	25121516	1472576332051	1472576332208	r	82
48430	527771	Liverpool always had a knack of bringing people down to earth.	Liverpool always had a knack of bringing people down to earth.	25121518	1472576332196	1472576332347	i	73
48430	527771	Liverpool always had a knack of bringing people down to earth.	Liverpool always had a knack of bringing people down to earth.	25121652	1472576332324	1472576332367	n	78
48430	527771	Liverpool always had a knack of bringing people down to earth.	Liverpool always had a knack of bringing people down to earth.	25121658	1472576332493	1472576332604	BKSP	8
48430	527771	Liverpool always had a knack of bringing people down to earth.	Liverpool always had a knack of bringing people down to earth.	25121665	1472576332628	1472576332718	BKSP	8
48430	527771	Liverpool always had a knack of bringing people down to earth.	Liverpool always had a knack of bringing people down to earth.	25121670	1472576332750	1472576332858	BKSP	8
48430	527771	Liverpool always had a knack of bringing people down to earth.	Liverpool always had a knack of bringing people down to earth.	25121674	1472576332878	1472576332976	BKSP	8
48430	527771	Liverpool always had a knack of bringing people down to earth.	Liverpool always had a knack of bringing people down to earth.	25121678	1472576333212	1472576333331	BKSP	8
48430	527771	Liverpool always had a knack of bringing people down to earth.	Liverpool always had a knack of bringing people down to earth.	25121682	1472576334474	1472576334585	 	32
48430	527771	Liverpool always had a knack of bringing people down to earth.	Liverpool always had a knack of bringing people down to earth.	25121687	1472576334623	1472576334741	b	66
48430	527771	Liverpool always had a knack of bringing people down to earth.	Liverpool always had a knack of bringing people down to earth.	25121690	1472576334780	1472576334883	r	82
48430	527771	Liverpool always had a knack of bringing people down to earth.	Liverpool always had a knack of bringing people down to earth.	25121697	1472576334917	1472576335093	i	73
48430	527771	Liverpool always had a knack of bringing people down to earth.	Liverpool always had a knack of bringing people down to earth.	25121703	1472576335021	1472576335158	n	78
48430	527771	Liverpool always had a knack of bringing people down to earth.	Liverpool always had a knack of bringing people down to earth.	25121704	1472576335148	1472576335216	g	71
48430	527771	Liverpool always had a knack of bringing people down to earth.	Liverpool always had a knack of bringing people down to earth.	25121706	1472576335217	1472576335346	i	73
48430	527771	Liverpool always had a knack of bringing people down to earth.	Liverpool always had a knack of bringing people down to earth.	25121708	1472576335288	1472576335413	n	78
48430	527771	Liverpool always had a knack of bringing people down to earth.	Liverpool always had a knack of bringing people down to earth.	25121711	1472576335800	1472576335899	g	71
48430	527771	Liverpool always had a knack of bringing people down to earth.	Liverpool always had a knack of bringing people down to earth.	25121714	1472576336006	1472576336121	 	32
48430	527771	Liverpool always had a knack of bringing people down to earth.	Liverpool always had a knack of bringing people down to earth.	25121778	1472576337385	1472576337476	p	80
48430	527771	Liverpool always had a knack of bringing people down to earth.	Liverpool always had a knack of bringing people down to earth.	25121784	1472576337451	1472576337563	e	69
48430	527771	Liverpool always had a knack of bringing people down to earth.	Liverpool always had a knack of bringing people down to earth.	25121790	1472576337534	1472576337646	o	79
48430	527771	Liverpool always had a knack of bringing people down to earth.	Liverpool always had a knack of bringing people down to earth.	25121796	1472576337632	1472576337780	p	80
48430	527771	Liverpool always had a knack of bringing people down to earth.	Liverpool always had a knack of bringing people down to earth.	25121841	1472576337696	1472576337827	l	76
48430	527771	Liverpool always had a knack of bringing people down to earth.	Liverpool always had a knack of bringing people down to earth.	25121845	1472576337763	1472576337889	e	69
48430	527771	Liverpool always had a knack of bringing people down to earth.	Liverpool always had a knack of bringing people down to earth.	25121851	1472576337911	1472576338035	 	32
48430	527771	Liverpool always had a knack of bringing people down to earth.	Liverpool always had a knack of bringing people down to earth.	25121854	1472576338285	1472576338404	d	68
48430	527771	Liverpool always had a knack of bringing people down to earth.	Liverpool always had a knack of bringing people down to earth.	25121857	1472576338364	1472576338494	o	79
48430	527771	Liverpool always had a knack of bringing people down to earth.	Liverpool always had a knack of bringing people down to earth.	25121862	1472576338637	1472576338746	w	87
48430	527771	Liverpool always had a knack of bringing people down to earth.	Liverpool always had a knack of bringing people down to earth.	25121898	1472576338729	1472576338809	n	78
48430	527771	Liverpool always had a knack of bringing people down to earth.	Liverpool always had a knack of bringing people down to earth.	25121905	1472576338863	1472576338972	 	32
48430	527771	Liverpool always had a knack of bringing people down to earth.	Liverpool always had a knack of bringing people down to earth.	25121911	1472576339055	1472576339160	t	84
48430	527771	Liverpool always had a knack of bringing people down to earth.	Liverpool always had a knack of bringing people down to earth.	25121916	1472576339111	1472576339253	o	79
48430	527771	Liverpool always had a knack of bringing people down to earth.	Liverpool always had a knack of bringing people down to earth.	25121921	1472576339199	1472576339327	 	32
48430	527771	Liverpool always had a knack of bringing people down to earth.	Liverpool always had a knack of bringing people down to earth.	25121925	1472576339367	1472576339491	e	69
48430	527771	Liverpool always had a knack of bringing people down to earth.	Liverpool always had a knack of bringing people down to earth.	25121969	1472576339572	1472576339687	a	65
48430	527771	Liverpool always had a knack of bringing people down to earth.	Liverpool always had a knack of bringing people down to earth.	25121971	1472576339747	1472576339851	r	82
48430	527771	Liverpool always had a knack of bringing people down to earth.	Liverpool always had a knack of bringing people down to earth.	25121973	1472576339893	1472576339994	t	84
48430	527771	Liverpool always had a knack of bringing people down to earth.	Liverpool always had a knack of bringing people down to earth.	25121975	1472576339961	1472576340040	h	72
48430	527795	The rates would become effective after endorsement by parliament.	The rates would become effective after endorsement by parliament.	25122132	1472576342584	1472576342946	SHIFT	16
48430	527795	The rates would become effective after endorsement by parliament.	The rates would become effective after endorsement by parliament.	25122135	1472576342848	1472576342971	T	84
48430	527795	The rates would become effective after endorsement by parliament.	The rates would become effective after endorsement by parliament.	25122137	1472576343057	1472576343151	h	72
48430	527795	The rates would become effective after endorsement by parliament.	The rates would become effective after endorsement by parliament.	25122142	1472576343109	1472576343219	e	69
48430	527795	The rates would become effective after endorsement by parliament.	The rates would become effective after endorsement by parliament.	25122145	1472576343205	1472576343320	 	32
48430	527795	The rates would become effective after endorsement by parliament.	The rates would become effective after endorsement by parliament.	25122147	1472576343403	1472576343495	r	82
48430	527795	The rates would become effective after endorsement by parliament.	The rates would become effective after endorsement by parliament.	25122212	1472576343554	1472576343662	t	84
48430	527795	The rates would become effective after endorsement by parliament.	The rates would become effective after endorsement by parliament.	25122216	1472576343657	1472576343784	e	69
48430	527795	The rates would become effective after endorsement by parliament.	The rates would become effective after endorsement by parliament.	25122218	1472576344106	1472576344204	BKSP	8
48430	527795	The rates would become effective after endorsement by parliament.	The rates would become effective after endorsement by parliament.	25122220	1472576344223	1472576344327	BKSP	8
48430	527795	The rates would become effective after endorsement by parliament.	The rates would become effective after endorsement by parliament.	25122222	1472576344413	1472576344564	a	65
48430	527795	The rates would become effective after endorsement by parliament.	The rates would become effective after endorsement by parliament.	25122229	1472576344547	1472576344664	t	84
48430	527795	The rates would become effective after endorsement by parliament.	The rates would become effective after endorsement by parliament.	25122285	1472576344660	1472576344785	e	69
48430	527795	The rates would become effective after endorsement by parliament.	The rates would become effective after endorsement by parliament.	25122291	1472576344847	1472576344954	s	83
48430	527795	The rates would become effective after endorsement by parliament.	The rates would become effective after endorsement by parliament.	25122297	1472576345316	1472576345433	 	32
48430	527795	The rates would become effective after endorsement by parliament.	The rates would become effective after endorsement by parliament.	25122302	1472576345611	1472576345738	w	87
48430	527795	The rates would become effective after endorsement by parliament.	The rates would become effective after endorsement by parliament.	25122307	1472576345702	1472576345852	o	79
48430	527795	The rates would become effective after endorsement by parliament.	The rates would become effective after endorsement by parliament.	25122355	1472576345778	1472576345881	u	85
48430	527795	The rates would become effective after endorsement by parliament.	The rates would become effective after endorsement by parliament.	25122359	1472576345958	1472576346061	l	76
48430	527795	The rates would become effective after endorsement by parliament.	The rates would become effective after endorsement by parliament.	25122363	1472576346034	1472576346122	d	68
48430	527795	The rates would become effective after endorsement by parliament.	The rates would become effective after endorsement by parliament.	25122367	1472576346149	1472576346261	 	32
48430	527795	The rates would become effective after endorsement by parliament.	The rates would become effective after endorsement by parliament.	25122370	1472576346577	1472576346685	b	66
48430	527795	The rates would become effective after endorsement by parliament.	The rates would become effective after endorsement by parliament.	25122382	1472576346641	1472576346766	e	69
48430	527795	The rates would become effective after endorsement by parliament.	The rates would become effective after endorsement by parliament.	25122384	1472576346802	1472576346916	c	67
48430	527795	The rates would become effective after endorsement by parliament.	The rates would become effective after endorsement by parliament.	25122390	1472576346882	1472576347053	o	79
48430	527795	The rates would become effective after endorsement by parliament.	The rates would become effective after endorsement by parliament.	25122394	1472576346969	1472576347087	m	77
48430	527795	The rates would become effective after endorsement by parliament.	The rates would become effective after endorsement by parliament.	25122403	1472576347048	1472576347165	e	69
48430	527795	The rates would become effective after endorsement by parliament.	The rates would become effective after endorsement by parliament.	25122473	1472576347153	1472576347277	 	32
48430	527795	The rates would become effective after endorsement by parliament.	The rates would become effective after endorsement by parliament.	25122477	1472576347711	1472576347805	e	69
48430	527795	The rates would become effective after endorsement by parliament.	The rates would become effective after endorsement by parliament.	25122482	1472576347886	1472576347981	f	70
48430	527795	The rates would become effective after endorsement by parliament.	The rates would become effective after endorsement by parliament.	25122486	1472576348001	1472576348125	f	70
48430	527795	The rates would become effective after endorsement by parliament.	The rates would become effective after endorsement by parliament.	25122490	1472576348122	1472576348244	e	69
48430	527795	The rates would become effective after endorsement by parliament.	The rates would become effective after endorsement by parliament.	25122494	1472576348259	1472576348407	c	67
48430	527795	The rates would become effective after endorsement by parliament.	The rates would become effective after endorsement by parliament.	25122511	1472576348471	1472576348571	t	84
48430	527795	The rates would become effective after endorsement by parliament.	The rates would become effective after endorsement by parliament.	25122518	1472576348524	1472576348646	i	73
48430	527795	The rates would become effective after endorsement by parliament.	The rates would become effective after endorsement by parliament.	25122524	1472576348664	1472576348773	v	86
48430	527795	The rates would become effective after endorsement by parliament.	The rates would become effective after endorsement by parliament.	25122530	1472576348769	1472576348902	e	69
48430	527795	The rates would become effective after endorsement by parliament.	The rates would become effective after endorsement by parliament.	25122579	1472576348882	1472576349012	 	32
48430	527795	The rates would become effective after endorsement by parliament.	The rates would become effective after endorsement by parliament.	25122582	1472576349252	1472576349402	a	65
48430	527795	The rates would become effective after endorsement by parliament.	The rates would become effective after endorsement by parliament.	25122585	1472576349492	1472576349605	f	70
48430	527795	The rates would become effective after endorsement by parliament.	The rates would become effective after endorsement by parliament.	25122588	1472576349654	1472576349744	t	84
48430	527795	The rates would become effective after endorsement by parliament.	The rates would become effective after endorsement by parliament.	25122592	1472576349789	1472576349943	e	69
48430	527795	The rates would become effective after endorsement by parliament.	The rates would become effective after endorsement by parliament.	25122666	1472576349899	1472576350030	r	82
48430	527795	The rates would become effective after endorsement by parliament.	The rates would become effective after endorsement by parliament.	25122672	1472576349996	1472576350134	 	32
48430	527795	The rates would become effective after endorsement by parliament.	The rates would become effective after endorsement by parliament.	25122680	1472576350714	1472576350813	e	69
48430	527795	The rates would become effective after endorsement by parliament.	The rates would become effective after endorsement by parliament.	25122683	1472576351041	1472576351161	n	78
48430	527795	The rates would become effective after endorsement by parliament.	The rates would become effective after endorsement by parliament.	25122685	1472576351235	1472576351341	d	68
48430	527795	The rates would become effective after endorsement by parliament.	The rates would become effective after endorsement by parliament.	25122790	1472576351338	1472576351453	o	79
48430	527795	The rates would become effective after endorsement by parliament.	The rates would become effective after endorsement by parliament.	25122791	1472576351433	1472576351536	r	82
48430	527795	The rates would become effective after endorsement by parliament.	The rates would become effective after endorsement by parliament.	25122792	1472576351889	1472576352024	s	83
48430	527795	The rates would become effective after endorsement by parliament.	The rates would become effective after endorsement by parliament.	25122793	1472576352274	1472576352394	m	77
48430	527795	The rates would become effective after endorsement by parliament.	The rates would become effective after endorsement by parliament.	25122795	1472576353092	1472576353245	BKSP	8
48430	527795	The rates would become effective after endorsement by parliament.	The rates would become effective after endorsement by parliament.	25122798	1472576353297	1472576353412	e	69
48430	527795	The rates would become effective after endorsement by parliament.	The rates would become effective after endorsement by parliament.	25122801	1472576353436	1472576353547	m	77
48430	527795	The rates would become effective after endorsement by parliament.	The rates would become effective after endorsement by parliament.	25122867	1472576353619	1472576353749	e	69
48430	527795	The rates would become effective after endorsement by parliament.	The rates would become effective after endorsement by parliament.	25122871	1472576353808	1472576353923	n	78
48430	527795	The rates would become effective after endorsement by parliament.	The rates would become effective after endorsement by parliament.	25122875	1472576353934	1472576353997	t	84
48430	527795	The rates would become effective after endorsement by parliament.	The rates would become effective after endorsement by parliament.	25122881	1472576354249	1472576354371	 	32
48430	527795	The rates would become effective after endorsement by parliament.	The rates would become effective after endorsement by parliament.	25122883	1472576354534	1472576354693	b	66
48430	527795	The rates would become effective after endorsement by parliament.	The rates would become effective after endorsement by parliament.	25122908	1472576354637	1472576354774	y	89
48430	527795	The rates would become effective after endorsement by parliament.	The rates would become effective after endorsement by parliament.	25122911	1472576354780	1472576354920	 	32
48430	527795	The rates would become effective after endorsement by parliament.	The rates would become effective after endorsement by parliament.	25122913	1472576355064	1472576355186	p	80
48430	527795	The rates would become effective after endorsement by parliament.	The rates would become effective after endorsement by parliament.	25122915	1472576355218	1472576355352	a	65
48430	527795	The rates would become effective after endorsement by parliament.	The rates would become effective after endorsement by parliament.	25122918	1472576355399	1472576355519	r	82
48430	527795	The rates would become effective after endorsement by parliament.	The rates would become effective after endorsement by parliament.	25122997	1472576355510	1472576355617	l	76
48430	527795	The rates would become effective after endorsement by parliament.	The rates would become effective after endorsement by parliament.	25122998	1472576355656	1472576355833	i	73
48430	527795	The rates would become effective after endorsement by parliament.	The rates would become effective after endorsement by parliament.	25122999	1472576355770	1472576355962	m	77
48430	527795	The rates would become effective after endorsement by parliament.	The rates would become effective after endorsement by parliament.	25123001	1472576356401	1472576356544	BKSP	8
48430	527795	The rates would become effective after endorsement by parliament.	The rates would become effective after endorsement by parliament.	25123004	1472576356629	1472576356827	a	65
48430	527795	The rates would become effective after endorsement by parliament.	The rates would become effective after endorsement by parliament.	25123007	1472576356850	1472576356967	m	77
48430	527795	The rates would become effective after endorsement by parliament.	The rates would become effective after endorsement by parliament.	25123010	1472576356989	1472576357118	e	69
48430	527795	The rates would become effective after endorsement by parliament.	The rates would become effective after endorsement by parliament.	25123089	1472576357092	1472576357204	n	78
48430	527795	The rates would become effective after endorsement by parliament.	The rates would become effective after endorsement by parliament.	25123091	1472576358230	1472576358354	t	84
48430	527795	The rates would become effective after endorsement by parliament.	The rates would become effective after endorsement by parliament.	25123094	1472576358361	1472576358530	.	190
48430	527816	I'll get you one.	I'll get you one.	25123300	1472576360220	1472576360716	SHIFT	16
48430	527816	I'll get you one.	I'll get you one.	25123297	1472576360543	1472576360651	I	73
48430	527816	I'll get you one.	I'll get you one.	25123302	1472576360810	1472576360935	'	222
48430	527816	I'll get you one.	I'll get you one.	25123303	1472576361334	1472576361414	l	76
48430	527816	I'll get you one.	I'll get you one.	25123304	1472576361445	1472576361557	l	76
48430	527816	I'll get you one.	I'll get you one.	25123305	1472576361575	1472576361704	 	32
48430	527816	I'll get you one.	I'll get you one.	25123329	1472576361803	1472576361934	g	71
48430	527816	I'll get you one.	I'll get you one.	25123335	1472576361916	1472576362059	e	69
48430	527816	I'll get you one.	I'll get you one.	25123338	1472576362013	1472576362131	t	84
48430	527816	I'll get you one.	I'll get you one.	25123342	1472576362167	1472576362314	 	32
48430	527816	I'll get you one.	I'll get you one.	25123347	1472576362490	1472576362634	y	89
48430	527816	I'll get you one.	I'll get you one.	25123362	1472576362569	1472576362735	o	79
48430	527816	I'll get you one.	I'll get you one.	25123366	1472576362667	1472576362784	u	85
48430	527816	I'll get you one.	I'll get you one.	25123370	1472576362859	1472576362978	 	32
48430	527816	I'll get you one.	I'll get you one.	25123376	1472576363150	1472576363321	o	79
48430	527816	I'll get you one.	I'll get you one.	25123384	1472576363222	1472576363352	n	78
48430	527816	I'll get you one.	I'll get you one.	25123396	1472576363345	1472576363462	e	69
48430	527825	This is not a good situation to be in without a contract.	This is not a good situatuon to be in without a contract.	25124100	1472576363579	1472576375558	.	190
48430	527825	This is not a good situation to be in without a contract.	This is not a good situatuon to be in without a contract.	25123493	1472576365547	1472576365901	SHIFT	16
48430	527825	This is not a good situation to be in without a contract.	This is not a good situatuon to be in without a contract.	25123488	1472576365764	1472576365883	T	84
48430	527825	This is not a good situation to be in without a contract.	This is not a good situatuon to be in without a contract.	25123498	1472576366007	1472576366135	h	72
48430	527825	This is not a good situation to be in without a contract.	This is not a good situatuon to be in without a contract.	25123503	1472576366075	1472576366200	i	73
48430	527825	This is not a good situation to be in without a contract.	This is not a good situatuon to be in without a contract.	25123507	1472576366110	1472576366232	s	83
48430	527825	This is not a good situation to be in without a contract.	This is not a good situatuon to be in without a contract.	25123533	1472576366220	1472576366338	 	32
48430	527825	This is not a good situation to be in without a contract.	This is not a good situatuon to be in without a contract.	25123536	1472576366328	1472576366454	i	73
48430	527825	This is not a good situation to be in without a contract.	This is not a good situatuon to be in without a contract.	25123541	1472576366422	1472576366548	s	83
48430	527825	This is not a good situation to be in without a contract.	This is not a good situatuon to be in without a contract.	25123545	1472576366481	1472576366613	 	32
48430	527825	This is not a good situation to be in without a contract.	This is not a good situatuon to be in without a contract.	25123549	1472576366708	1472576366857	n	78
48430	527825	This is not a good situation to be in without a contract.	This is not a good situatuon to be in without a contract.	25123615	1472576366787	1472576366949	o	79
48430	527825	This is not a good situation to be in without a contract.	This is not a good situatuon to be in without a contract.	25123619	1472576366908	1472576367180	t	84
48430	527825	This is not a good situation to be in without a contract.	This is not a good situatuon to be in without a contract.	25123623	1472576367351	1472576367467	 	32
48430	527825	This is not a good situation to be in without a contract.	This is not a good situatuon to be in without a contract.	25123628	1472576367489	1472576367631	a	65
48430	527825	This is not a good situation to be in without a contract.	This is not a good situatuon to be in without a contract.	25123635	1472576367593	1472576367714	 	32
48430	527825	This is not a good situation to be in without a contract.	This is not a good situatuon to be in without a contract.	25123642	1472576367981	1472576368080	g	71
48430	527825	This is not a good situation to be in without a contract.	This is not a good situatuon to be in without a contract.	25123697	1472576368046	1472576368125	o	79
48430	527825	This is not a good situation to be in without a contract.	This is not a good situatuon to be in without a contract.	25123700	1472576368159	1472576368267	o	79
48430	527825	This is not a good situation to be in without a contract.	This is not a good situatuon to be in without a contract.	25123703	1472576368244	1472576368372	d	68
48430	527825	This is not a good situation to be in without a contract.	This is not a good situatuon to be in without a contract.	25123704	1472576368338	1472576368460	 	32
48430	527825	This is not a good situation to be in without a contract.	This is not a good situatuon to be in without a contract.	25123707	1472576368971	1472576369092	s	83
48430	527825	This is not a good situation to be in without a contract.	This is not a good situatuon to be in without a contract.	25123711	1472576369093	1472576369202	i	73
48430	527825	This is not a good situation to be in without a contract.	This is not a good situatuon to be in without a contract.	25123737	1472576369207	1472576369319	t	84
48430	527825	This is not a good situation to be in without a contract.	This is not a good situatuon to be in without a contract.	25123741	1472576369362	1472576369475	u	85
48430	527825	This is not a good situation to be in without a contract.	This is not a good situatuon to be in without a contract.	25123746	1472576369542	1472576369663	a	65
48430	527825	This is not a good situation to be in without a contract.	This is not a good situatuon to be in without a contract.	25123752	1472576369749	1472576369860	t	84
48430	527825	This is not a good situation to be in without a contract.	This is not a good situatuon to be in without a contract.	25123795	1472576369850	1472576369911	u	85
48430	527825	This is not a good situation to be in without a contract.	This is not a good situatuon to be in without a contract.	25123800	1472576369986	1472576370144	o	79
48430	527825	This is not a good situation to be in without a contract.	This is not a good situatuon to be in without a contract.	25123802	1472576370141	1472576370292	n	78
48430	527825	This is not a good situation to be in without a contract.	This is not a good situatuon to be in without a contract.	25123805	1472576370432	1472576370556	 	32
48430	527825	This is not a good situation to be in without a contract.	This is not a good situatuon to be in without a contract.	25123806	1472576370721	1472576370847	t	84
48430	527825	This is not a good situation to be in without a contract.	This is not a good situatuon to be in without a contract.	25123828	1472576370819	1472576370962	o	79
48430	527825	This is not a good situation to be in without a contract.	This is not a good situatuon to be in without a contract.	25123830	1472576370918	1472576371036	 	32
48430	527825	This is not a good situation to be in without a contract.	This is not a good situatuon to be in without a contract.	25123832	1472576371121	1472576371226	b	66
48430	527825	This is not a good situation to be in without a contract.	This is not a good situatuon to be in without a contract.	25123834	1472576371188	1472576371312	e	69
48430	527825	This is not a good situation to be in without a contract.	This is not a good situatuon to be in without a contract.	25123837	1472576371292	1472576371393	 	32
48430	527825	This is not a good situation to be in without a contract.	This is not a good situatuon to be in without a contract.	25123841	1472576371436	1472576371587	i	73
48430	527825	This is not a good situation to be in without a contract.	This is not a good situatuon to be in without a contract.	25123853	1472576371503	1472576371623	n	78
48430	527825	This is not a good situation to be in without a contract.	This is not a good situatuon to be in without a contract.	25123856	1472576371676	1472576371792	 	32
48430	527825	This is not a good situation to be in without a contract.	This is not a good situatuon to be in without a contract.	25123859	1472576371784	1472576371896	w	87
48430	527825	This is not a good situation to be in without a contract.	This is not a good situatuon to be in without a contract.	25123863	1472576371863	1472576371984	i	73
48430	527825	This is not a good situation to be in without a contract.	This is not a good situatuon to be in without a contract.	25123866	1472576371995	1472576372112	t	84
48430	527825	This is not a good situation to be in without a contract.	This is not a good situatuon to be in without a contract.	25123912	1472576372050	1472576372162	h	72
48430	527825	This is not a good situation to be in without a contract.	This is not a good situatuon to be in without a contract.	25123915	1472576372214	1472576372374	o	79
48430	527825	This is not a good situation to be in without a contract.	This is not a good situatuon to be in without a contract.	25123920	1472576372326	1472576372459	u	85
48430	527825	This is not a good situation to be in without a contract.	This is not a good situatuon to be in without a contract.	25123925	1472576372463	1472576372558	t	84
48430	527825	This is not a good situation to be in without a contract.	This is not a good situatuon to be in without a contract.	25123927	1472576372569	1472576372699	 	32
48430	527825	This is not a good situation to be in without a contract.	This is not a good situatuon to be in without a contract.	25123933	1472576372984	1472576373080	a	65
48430	527825	This is not a good situation to be in without a contract.	This is not a good situatuon to be in without a contract.	25123957	1472576373173	1472576373310	 	32
48430	527825	This is not a good situation to be in without a contract.	This is not a good situatuon to be in without a contract.	25123960	1472576373389	1472576373469	c	67
48430	527825	This is not a good situation to be in without a contract.	This is not a good situatuon to be in without a contract.	25123964	1472576373430	1472576373580	o	79
48430	527825	This is not a good situation to be in without a contract.	This is not a good situatuon to be in without a contract.	25123967	1472576373502	1472576373650	n	78
48430	527825	This is not a good situation to be in without a contract.	This is not a good situatuon to be in without a contract.	25124059	1472576373585	1472576373713	t	84
48430	527825	This is not a good situation to be in without a contract.	This is not a good situatuon to be in without a contract.	25124062	1472576373746	1472576373868	r	82
48430	527825	This is not a good situation to be in without a contract.	This is not a good situatuon to be in without a contract.	25124068	1472576374206	1472576374278	a	65
48430	527825	This is not a good situation to be in without a contract.	This is not a good situatuon to be in without a contract.	25124075	1472576374298	1472576374351	a	65
48430	527825	This is not a good situation to be in without a contract.	This is not a good situatuon to be in without a contract.	25124081	1472576374784	1472576374937	BKSP	8
48430	527825	This is not a good situation to be in without a contract.	This is not a good situatuon to be in without a contract.	25124089	1472576374986	1472576375085	c	67
48430	527825	This is not a good situation to be in without a contract.	This is not a good situatuon to be in without a contract.	25124093	1472576375169	1472576375290	t	84
48430	527838	He is listed as questionable for this week's game.	He is listed as questionable for this week's game.	25124326	1472576377403	1472576378110	SHIFT	16
48430	527838	He is listed as questionable for this week's game.	He is listed as questionable for this week's game.	25124324	1472576377820	1472576377941	G	71
48430	527838	He is listed as questionable for this week's game.	He is listed as questionable for this week's game.	25124333	1472576378207	1472576378318	BKSP	8
48430	527838	He is listed as questionable for this week's game.	He is listed as questionable for this week's game.	25124340	1472576378404	1472576378721	SHIFT	16
48430	527838	He is listed as questionable for this week's game.	He is listed as questionable for this week's game.	25124338	1472576378516	1472576378642	H	72
48430	527838	He is listed as questionable for this week's game.	He is listed as questionable for this week's game.	25124344	1472576378734	1472576378865	r	82
48430	527838	He is listed as questionable for this week's game.	He is listed as questionable for this week's game.	25124348	1472576379250	1472576379397	BKSP	8
48430	527838	He is listed as questionable for this week's game.	He is listed as questionable for this week's game.	25124353	1472576379357	1472576379471	e	69
48430	527838	He is listed as questionable for this week's game.	He is listed as questionable for this week's game.	25124357	1472576379498	1472576379613	 	32
48430	527838	He is listed as questionable for this week's game.	He is listed as questionable for this week's game.	25124410	1472576379669	1472576379763	i	73
48430	527838	He is listed as questionable for this week's game.	He is listed as questionable for this week's game.	25124414	1472576379727	1472576379851	s	83
48430	527838	He is listed as questionable for this week's game.	He is listed as questionable for this week's game.	25124418	1472576379840	1472576379966	 	32
48430	527838	He is listed as questionable for this week's game.	He is listed as questionable for this week's game.	25124422	1472576380752	1472576380873	l	76
48430	527838	He is listed as questionable for this week's game.	He is listed as questionable for this week's game.	25124427	1472576380895	1472576381037	i	73
48430	527838	He is listed as questionable for this week's game.	He is listed as questionable for this week's game.	25124445	1472576381040	1472576381154	s	83
48430	527838	He is listed as questionable for this week's game.	He is listed as questionable for this week's game.	25124450	1472576381138	1472576381246	t	84
48430	527838	He is listed as questionable for this week's game.	He is listed as questionable for this week's game.	25124455	1472576381219	1472576381333	e	69
48430	527838	He is listed as questionable for this week's game.	He is listed as questionable for this week's game.	25124459	1472576381372	1472576381496	d	68
48430	527838	He is listed as questionable for this week's game.	He is listed as questionable for this week's game.	25124526	1472576381472	1472576381606	 	32
48430	527838	He is listed as questionable for this week's game.	He is listed as questionable for this week's game.	25124530	1472576381691	1472576381851	a	65
48430	527838	He is listed as questionable for this week's game.	He is listed as questionable for this week's game.	25124537	1472576381837	1472576381968	s	83
48430	527838	He is listed as questionable for this week's game.	He is listed as questionable for this week's game.	25124543	1472576382010	1472576382128	 	32
48430	527838	He is listed as questionable for this week's game.	He is listed as questionable for this week's game.	25124546	1472576382641	1472576382768	q	81
48430	527838	He is listed as questionable for this week's game.	He is listed as questionable for this week's game.	25124575	1472576382766	1472576382881	u	85
48430	527838	He is listed as questionable for this week's game.	He is listed as questionable for this week's game.	25124577	1472576382855	1472576382966	e	69
48430	527838	He is listed as questionable for this week's game.	He is listed as questionable for this week's game.	25124582	1472576383011	1472576383135	s	83
48430	527838	He is listed as questionable for this week's game.	He is listed as questionable for this week's game.	25124589	1472576383230	1472576383336	t	84
48430	527838	He is listed as questionable for this week's game.	He is listed as questionable for this week's game.	25124595	1472576383313	1472576383412	i	73
48430	527838	He is listed as questionable for this week's game.	He is listed as questionable for this week's game.	25124601	1472576383448	1472576383603	o	79
48430	527838	He is listed as questionable for this week's game.	He is listed as questionable for this week's game.	25124626	1472576383517	1472576383653	n	78
48430	527838	He is listed as questionable for this week's game.	He is listed as questionable for this week's game.	25124629	1472576383648	1472576383762	a	65
48430	527838	He is listed as questionable for this week's game.	He is listed as questionable for this week's game.	25124631	1472576383751	1472576383839	l	76
48430	527838	He is listed as questionable for this week's game.	He is listed as questionable for this week's game.	25124633	1472576384022	1472576384145	BKSP	8
48430	527838	He is listed as questionable for this week's game.	He is listed as questionable for this week's game.	25124640	1472576384217	1472576384321	b	66
48430	527838	He is listed as questionable for this week's game.	He is listed as questionable for this week's game.	25124645	1472576384292	1472576384415	l	76
48430	527838	He is listed as questionable for this week's game.	He is listed as questionable for this week's game.	25124677	1472576384366	1472576384498	e	69
48430	527838	He is listed as questionable for this week's game.	He is listed as questionable for this week's game.	25124681	1472576384505	1472576384625	 	32
48430	527838	He is listed as questionable for this week's game.	He is listed as questionable for this week's game.	25124687	1472576385054	1472576385171	f	70
48430	527838	He is listed as questionable for this week's game.	He is listed as questionable for this week's game.	25124693	1472576385144	1472576385256	o	79
48430	527838	He is listed as questionable for this week's game.	He is listed as questionable for this week's game.	25124702	1472576385222	1472576385336	r	82
48430	527838	He is listed as questionable for this week's game.	He is listed as questionable for this week's game.	25124742	1472576385272	1472576385382	 	32
48430	527838	He is listed as questionable for this week's game.	He is listed as questionable for this week's game.	25124748	1472576385390	1472576385482	t	84
48430	527838	He is listed as questionable for this week's game.	He is listed as questionable for this week's game.	25124754	1472576385476	1472576385617	h	72
48430	527838	He is listed as questionable for this week's game.	He is listed as questionable for this week's game.	25124758	1472576385575	1472576385711	i	73
48430	527838	He is listed as questionable for this week's game.	He is listed as questionable for this week's game.	25124762	1472576385630	1472576385777	s	83
48430	527838	He is listed as questionable for this week's game.	He is listed as questionable for this week's game.	25124765	1472576386142	1472576386262	 	32
48430	527838	He is listed as questionable for this week's game.	He is listed as questionable for this week's game.	25124835	1472576386296	1472576386472	w	87
48430	527838	He is listed as questionable for this week's game.	He is listed as questionable for this week's game.	25124840	1472576386423	1472576386551	e	69
48430	527838	He is listed as questionable for this week's game.	He is listed as questionable for this week's game.	25124845	1472576386579	1472576386718	e	69
48430	527838	He is listed as questionable for this week's game.	He is listed as questionable for this week's game.	25124849	1472576386742	1472576386855	k	75
48430	527838	He is listed as questionable for this week's game.	He is listed as questionable for this week's game.	25124853	1472576387343	1472576387454	'	222
48430	527838	He is listed as questionable for this week's game.	He is listed as questionable for this week's game.	25124888	1472576387451	1472576387570	s	83
48430	527838	He is listed as questionable for this week's game.	He is listed as questionable for this week's game.	25124897	1472576387579	1472576387669	 	32
48430	527838	He is listed as questionable for this week's game.	He is listed as questionable for this week's game.	25124902	1472576387768	1472576387867	g	71
48430	527838	He is listed as questionable for this week's game.	He is listed as questionable for this week's game.	25124909	1472576387916	1472576388039	a	65
48430	527838	He is listed as questionable for this week's game.	He is listed as questionable for this week's game.	25124913	1472576388022	1472576388130	m	77
48430	527838	He is listed as questionable for this week's game.	He is listed as questionable for this week's game.	25124936	1472576388116	1472576388231	e	69
48430	527838	He is listed as questionable for this week's game.	He is listed as questionable for this week's game.	25124940	1472576388321	1472576388456	.	190
48430	527857	I left a message.	I left a message.	25125101	1472576390439	1472576390970	SHIFT	16
48430	527857	I left a message.	I left a message.	25125097	1472576390788	1472576390930	I	73
48430	527857	I left a message.	I left a message.	25125106	1472576391104	1472576391241	 	32
48430	527857	I left a message.	I left a message.	25125110	1472576391282	1472576391392	l	76
48430	527857	I left a message.	I left a message.	25125114	1472576391385	1472576391531	e	69
48430	527857	I left a message.	I left a message.	25125138	1472576391500	1472576391619	f	70
48430	527857	I left a message.	I left a message.	25125142	1472576391657	1472576391754	t	84
48430	527857	I left a message.	I left a message.	25125148	1472576391711	1472576391814	 	32
48430	527857	I left a message.	I left a message.	25125152	1472576391864	1472576391974	a	65
48430	527857	I left a message.	I left a message.	25125155	1472576391936	1472576392025	 	32
48430	527857	I left a message.	I left a message.	25125158	1472576392070	1472576392182	m	77
48430	527857	I left a message.	I left a message.	25125198	1472576392153	1472576392241	e	69
48430	527857	I left a message.	I left a message.	25125203	1472576392510	1472576392606	s	83
48430	527857	I left a message.	I left a message.	25125207	1472576392635	1472576392755	s	83
48430	527857	I left a message.	I left a message.	25125212	1472576392757	1472576392903	a	65
48430	527857	I left a message.	I left a message.	25125214	1472576392851	1472576392929	g	71
48430	527857	I left a message.	I left a message.	25125217	1472576392968	1472576393055	e	69
48430	527857	I left a message.	I left a message.	25125219	1472576393134	1472576393244	.	190
