PARTICIPANT_ID	TEST_SECTION_ID	SENTENCE	USER_INPUT	KEYSTROKE_ID	PRESS_TIME	RELEASE_TIME	LETTER	KEYCODE
485243	5225231	Ben could tell him about Pompano.	Ben could tell him about Pompano.	248036345	1478640479286	1478640479643	SHIFT	16
485243	5225231	Ben could tell him about Pompano.	Ben could tell him about Pompano.	248036349	1478640479571	1478640479684	B	66
485243	5225231	Ben could tell him about Pompano.	Ben could tell him about Pompano.	248036350	1478640479795	1478640479890	e	69
485243	5225231	Ben could tell him about Pompano.	Ben could tell him about Pompano.	248036352	1478640479858	1478640479962	n	78
485243	5225231	Ben could tell him about Pompano.	Ben could tell him about Pompano.	248036359	1478640479914	1478640480035	 	32
485243	5225231	Ben could tell him about Pompano.	Ben could tell him about Pompano.	248036365	1478640480035	1478640480139	c	67
485243	5225231	Ben could tell him about Pompano.	Ben could tell him about Pompano.	248036385	1478640480090	1478640480186	o	79
485243	5225231	Ben could tell him about Pompano.	Ben could tell him about Pompano.	248036389	1478640480142	1478640480243	u	85
485243	5225231	Ben could tell him about Pompano.	Ben could tell him about Pompano.	248036392	1478640480323	1478640480451	l	76
485243	5225231	Ben could tell him about Pompano.	Ben could tell him about Pompano.	248036395	1478640480355	1478640480468	d	68
485243	5225231	Ben could tell him about Pompano.	Ben could tell him about Pompano.	248036402	1478640480427	1478640480571	 	32
485243	5225231	Ben could tell him about Pompano.	Ben could tell him about Pompano.	248036421	1478640480499	1478640480634	t	84
485243	5225231	Ben could tell him about Pompano.	Ben could tell him about Pompano.	248036424	1478640480587	1478640480690	e	69
485243	5225231	Ben could tell him about Pompano.	Ben could tell him about Pompano.	248036426	1478640480658	1478640480730	l	76
485243	5225231	Ben could tell him about Pompano.	Ben could tell him about Pompano.	248036428	1478640480795	1478640480906	l	76
485243	5225231	Ben could tell him about Pompano.	Ben could tell him about Pompano.	248036429	1478640480851	1478640481019	 	32
485243	5225231	Ben could tell him about Pompano.	Ben could tell him about Pompano.	248036438	1478640480979	1478640481082	h	72
485243	5225231	Ben could tell him about Pompano.	Ben could tell him about Pompano.	248036442	1478640481035	1478640481114	i	73
485243	5225231	Ben could tell him about Pompano.	Ben could tell him about Pompano.	248036449	1478640481195	1478640481314	m	77
485243	5225231	Ben could tell him about Pompano.	Ben could tell him about Pompano.	248036457	1478640481219	1478640481347	 	32
485243	5225231	Ben could tell him about Pompano.	Ben could tell him about Pompano.	248036462	1478640481307	1478640481459	a	65
485243	5225231	Ben could tell him about Pompano.	Ben could tell him about Pompano.	248036520	1478640481387	1478640481491	b	66
485243	5225231	Ben could tell him about Pompano.	Ben could tell him about Pompano.	248036524	1478640481443	1478640481602	o	79
485243	5225231	Ben could tell him about Pompano.	Ben could tell him about Pompano.	248036529	1478640481508	1478640481644	u	85
485243	5225231	Ben could tell him about Pompano.	Ben could tell him about Pompano.	248036535	1478640481612	1478640481730	t	84
485243	5225231	Ben could tell him about Pompano.	Ben could tell him about Pompano.	248036539	1478640481691	1478640481811	 	32
485243	5225231	Ben could tell him about Pompano.	Ben could tell him about Pompano.	248036543	1478640481763	1478640481922	SHIFT	16
485243	5225231	Ben could tell him about Pompano.	Ben could tell him about Pompano.	248036548	1478640481883	1478640481995	P	80
485243	5225231	Ben could tell him about Pompano.	Ben could tell him about Pompano.	248036551	1478640482477	1478640482562	o	79
485243	5225231	Ben could tell him about Pompano.	Ben could tell him about Pompano.	248036583	1478640482643	1478640482738	m	77
485243	5225231	Ben could tell him about Pompano.	Ben could tell him about Pompano.	248036591	1478640482835	1478640482930	p	80
485243	5225231	Ben could tell him about Pompano.	Ben could tell him about Pompano.	248036598	1478640482971	1478640483059	a	65
485243	5225231	Ben could tell him about Pompano.	Ben could tell him about Pompano.	248036603	1478640483107	1478640483162	n	78
485243	5225231	Ben could tell him about Pompano.	Ben could tell him about Pompano.	248036609	1478640483243	1478640483338	o	79
485243	5225231	Ben could tell him about Pompano.	Ben could tell him about Pompano.	248036625	1478640483516	1478640483602	.	190
485243	5225240	Michael was great this AM.	Michael was great this AM.	248036815	1478640485331	1478640485971	SHIFT	16
485243	5225240	Michael was great this AM.	Michael was great this AM.	248036806	1478640485835	1478640485930	M	77
485243	5225240	Michael was great this AM.	Michael was great this AM.	248036822	1478640486003	1478640486115	i	73
485243	5225240	Michael was great this AM.	Michael was great this AM.	248036829	1478640486083	1478640486227	c	67
485243	5225240	Michael was great this AM.	Michael was great this AM.	248036838	1478640486595	1478640486675	h	72
485243	5225240	Michael was great this AM.	Michael was great this AM.	248036847	1478640486691	1478640486813	a	65
485243	5225240	Michael was great this AM.	Michael was great this AM.	248036866	1478640486796	1478640486874	e	69
485243	5225240	Michael was great this AM.	Michael was great this AM.	248036868	1478640487011	1478640487125	l	76
485243	5225240	Michael was great this AM.	Michael was great this AM.	248036871	1478640487091	1478640487219	 	32
485243	5225240	Michael was great this AM.	Michael was great this AM.	248036874	1478640487203	1478640487283	w	87
485243	5225240	Michael was great this AM.	Michael was great this AM.	248036877	1478640487339	1478640487467	a	65
485243	5225240	Michael was great this AM.	Michael was great this AM.	248036888	1478640487411	1478640487531	s	83
485243	5225240	Michael was great this AM.	Michael was great this AM.	248036892	1478640487483	1478640487603	 	32
485243	5225240	Michael was great this AM.	Michael was great this AM.	248036903	1478640487547	1478640487634	g	71
485243	5225240	Michael was great this AM.	Michael was great this AM.	248036908	1478640487708	1478640487844	r	82
485243	5225240	Michael was great this AM.	Michael was great this AM.	248036928	1478640487747	1478640487898	e	69
485243	5225240	Michael was great this AM.	Michael was great this AM.	248036930	1478640487828	1478640487986	a	65
485243	5225240	Michael was great this AM.	Michael was great this AM.	248036936	1478640487938	1478640488034	t	84
485243	5225240	Michael was great this AM.	Michael was great this AM.	248036941	1478640488003	1478640488141	 	32
485243	5225240	Michael was great this AM.	Michael was great this AM.	248036945	1478640488099	1478640488242	t	84
485243	5225240	Michael was great this AM.	Michael was great this AM.	248036972	1478640488141	1478640488299	h	72
485243	5225240	Michael was great this AM.	Michael was great this AM.	248036975	1478640488204	1478640488323	i	73
485243	5225240	Michael was great this AM.	Michael was great this AM.	248036979	1478640488251	1478640488363	s	83
485243	5225240	Michael was great this AM.	Michael was great this AM.	248036987	1478640488339	1478640488451	 	32
485243	5225240	Michael was great this AM.	Michael was great this AM.	248037005	1478640488420	1478640488699	SHIFT	16
485243	5225240	Michael was great this AM.	Michael was great this AM.	248036992	1478640488507	1478640488610	A	65
485243	5225240	Michael was great this AM.	Michael was great this AM.	248036999	1478640488595	1478640488682	M	77
485243	5225246	This time I'm more comfortable and aware of a lot more situations.	This time I'm more comfortable and aware of a lot more situations.	248037115	1478640490427	1478640490755	SHIFT	16
485243	5225246	This time I'm more comfortable and aware of a lot more situations.	This time I'm more comfortable and aware of a lot more situations.	248037110	1478640490667	1478640490747	T	84
485243	5225246	This time I'm more comfortable and aware of a lot more situations.	This time I'm more comfortable and aware of a lot more situations.	248037120	1478640490851	1478640490962	h	72
485243	5225246	This time I'm more comfortable and aware of a lot more situations.	This time I'm more comfortable and aware of a lot more situations.	248037124	1478640490899	1478640491019	i	73
485243	5225246	This time I'm more comfortable and aware of a lot more situations.	This time I'm more comfortable and aware of a lot more situations.	248037129	1478640490948	1478640491051	s	83
485243	5225246	This time I'm more comfortable and aware of a lot more situations.	This time I'm more comfortable and aware of a lot more situations.	248037134	1478640491068	1478640491163	 	32
485243	5225246	This time I'm more comfortable and aware of a lot more situations.	This time I'm more comfortable and aware of a lot more situations.	248037156	1478640491125	1478640491250	t	84
485243	5225246	This time I'm more comfortable and aware of a lot more situations.	This time I'm more comfortable and aware of a lot more situations.	248037161	1478640491203	1478640491314	i	73
485243	5225246	This time I'm more comfortable and aware of a lot more situations.	This time I'm more comfortable and aware of a lot more situations.	248037165	1478640491283	1478640491419	m	77
485243	5225246	This time I'm more comfortable and aware of a lot more situations.	This time I'm more comfortable and aware of a lot more situations.	248037171	1478640491340	1478640491434	e	69
485243	5225246	This time I'm more comfortable and aware of a lot more situations.	This time I'm more comfortable and aware of a lot more situations.	248037176	1478640491394	1478640491523	 	32
485243	5225246	This time I'm more comfortable and aware of a lot more situations.	This time I'm more comfortable and aware of a lot more situations.	248037193	1478640491507	1478640491699	SHIFT	16
485243	5225246	This time I'm more comfortable and aware of a lot more situations.	This time I'm more comfortable and aware of a lot more situations.	248037180	1478640491571	1478640491683	I	73
485243	5225246	This time I'm more comfortable and aware of a lot more situations.	This time I'm more comfortable and aware of a lot more situations.	248037198	1478640491779	1478640491859	'	222
485243	5225246	This time I'm more comfortable and aware of a lot more situations.	This time I'm more comfortable and aware of a lot more situations.	248037201	1478640491924	1478640492026	m	77
485243	5225246	This time I'm more comfortable and aware of a lot more situations.	This time I'm more comfortable and aware of a lot more situations.	248037207	1478640491978	1478640492123	 	32
485243	5225246	This time I'm more comfortable and aware of a lot more situations.	This time I'm more comfortable and aware of a lot more situations.	248037211	1478640492107	1478640492252	m	77
485243	5225246	This time I'm more comfortable and aware of a lot more situations.	This time I'm more comfortable and aware of a lot more situations.	248037221	1478640492156	1478640492282	o	79
485243	5225246	This time I'm more comfortable and aware of a lot more situations.	This time I'm more comfortable and aware of a lot more situations.	248037226	1478640492188	1478640492283	r	82
485243	5225246	This time I'm more comfortable and aware of a lot more situations.	This time I'm more comfortable and aware of a lot more situations.	248037229	1478640492235	1478640492346	e	69
485243	5225246	This time I'm more comfortable and aware of a lot more situations.	This time I'm more comfortable and aware of a lot more situations.	248037233	1478640492300	1478640492403	 	32
485243	5225246	This time I'm more comfortable and aware of a lot more situations.	This time I'm more comfortable and aware of a lot more situations.	248037235	1478640492419	1478640492515	c	67
485243	5225246	This time I'm more comfortable and aware of a lot more situations.	This time I'm more comfortable and aware of a lot more situations.	248037238	1478640492443	1478640492539	o	79
485243	5225246	This time I'm more comfortable and aware of a lot more situations.	This time I'm more comfortable and aware of a lot more situations.	248037243	1478640492555	1478640492667	m	77
485243	5225246	This time I'm more comfortable and aware of a lot more situations.	This time I'm more comfortable and aware of a lot more situations.	248037277	1478640492636	1478640492755	f	70
485243	5225246	This time I'm more comfortable and aware of a lot more situations.	This time I'm more comfortable and aware of a lot more situations.	248037281	1478640492770	1478640492858	o	79
485243	5225246	This time I'm more comfortable and aware of a lot more situations.	This time I'm more comfortable and aware of a lot more situations.	248037284	1478640492835	1478640492931	r	82
485243	5225246	This time I'm more comfortable and aware of a lot more situations.	This time I'm more comfortable and aware of a lot more situations.	248037289	1478640493003	1478640493083	t	84
485243	5225246	This time I'm more comfortable and aware of a lot more situations.	This time I'm more comfortable and aware of a lot more situations.	248037293	1478640493187	1478640493338	a	65
485243	5225246	This time I'm more comfortable and aware of a lot more situations.	This time I'm more comfortable and aware of a lot more situations.	248037323	1478640493307	1478640493386	b	66
485243	5225246	This time I'm more comfortable and aware of a lot more situations.	This time I'm more comfortable and aware of a lot more situations.	248037327	1478640493411	1478640493555	l	76
485243	5225246	This time I'm more comfortable and aware of a lot more situations.	This time I'm more comfortable and aware of a lot more situations.	248037331	1478640493507	1478640493578	e	69
485243	5225246	This time I'm more comfortable and aware of a lot more situations.	This time I'm more comfortable and aware of a lot more situations.	248037333	1478640493547	1478640493708	 	32
485243	5225246	This time I'm more comfortable and aware of a lot more situations.	This time I'm more comfortable and aware of a lot more situations.	248037337	1478640493659	1478640493813	a	65
485243	5225246	This time I'm more comfortable and aware of a lot more situations.	This time I'm more comfortable and aware of a lot more situations.	248037370	1478640493795	1478640493914	n	78
485243	5225246	This time I'm more comfortable and aware of a lot more situations.	This time I'm more comfortable and aware of a lot more situations.	248037374	1478640493845	1478640493946	d	68
485243	5225246	This time I'm more comfortable and aware of a lot more situations.	This time I'm more comfortable and aware of a lot more situations.	248037379	1478640493907	1478640494043	 	32
485243	5225246	This time I'm more comfortable and aware of a lot more situations.	This time I'm more comfortable and aware of a lot more situations.	248037384	1478640493979	1478640494107	a	65
485243	5225246	This time I'm more comfortable and aware of a lot more situations.	This time I'm more comfortable and aware of a lot more situations.	248037387	1478640494067	1478640494170	w	87
485243	5225246	This time I'm more comfortable and aware of a lot more situations.	This time I'm more comfortable and aware of a lot more situations.	248037393	1478640494195	1478640494315	a	65
485243	5225246	This time I'm more comfortable and aware of a lot more situations.	This time I'm more comfortable and aware of a lot more situations.	248037397	1478640494275	1478640494412	r	82
485243	5225246	This time I'm more comfortable and aware of a lot more situations.	This time I'm more comfortable and aware of a lot more situations.	248037400	1478640494347	1478640494451	e	69
485243	5225246	This time I'm more comfortable and aware of a lot more situations.	This time I'm more comfortable and aware of a lot more situations.	248037402	1478640494403	1478640494547	 	32
485243	5225246	This time I'm more comfortable and aware of a lot more situations.	This time I'm more comfortable and aware of a lot more situations.	248037404	1478640494532	1478640494643	o	79
485243	5225246	This time I'm more comfortable and aware of a lot more situations.	This time I'm more comfortable and aware of a lot more situations.	248037408	1478640494555	1478640494699	f	70
485243	5225246	This time I'm more comfortable and aware of a lot more situations.	This time I'm more comfortable and aware of a lot more situations.	248037421	1478640494659	1478640494739	 	32
485243	5225246	This time I'm more comfortable and aware of a lot more situations.	This time I'm more comfortable and aware of a lot more situations.	248037423	1478640494707	1478640494834	a	65
485243	5225246	This time I'm more comfortable and aware of a lot more situations.	This time I'm more comfortable and aware of a lot more situations.	248037427	1478640494803	1478640494914	 	32
485243	5225246	This time I'm more comfortable and aware of a lot more situations.	This time I'm more comfortable and aware of a lot more situations.	248037430	1478640494860	1478640494938	l	76
485243	5225246	This time I'm more comfortable and aware of a lot more situations.	This time I'm more comfortable and aware of a lot more situations.	248037433	1478640495011	1478640495123	o	79
485243	5225246	This time I'm more comfortable and aware of a lot more situations.	This time I'm more comfortable and aware of a lot more situations.	248037440	1478640495035	1478640495139	t	84
485243	5225246	This time I'm more comfortable and aware of a lot more situations.	This time I'm more comfortable and aware of a lot more situations.	248037444	1478640495091	1478640495226	 	32
485243	5225246	This time I'm more comfortable and aware of a lot more situations.	This time I'm more comfortable and aware of a lot more situations.	248037450	1478640495203	1478640495322	m	77
485243	5225246	This time I'm more comfortable and aware of a lot more situations.	This time I'm more comfortable and aware of a lot more situations.	248037455	1478640495243	1478640495396	r	79
485243	5225246	This time I'm more comfortable and aware of a lot more situations.	This time I'm more comfortable and aware of a lot more situations.	248037488	1478640495315	1478640495403	e	69
485243	5225246	This time I'm more comfortable and aware of a lot more situations.	This time I'm more comfortable and aware of a lot more situations.	248037492	1478640495363	1478640495499	 	32
485243	5225246	This time I'm more comfortable and aware of a lot more situations.	This time I'm more comfortable and aware of a lot more situations.	248037497	1478640495467	1478640495587	s	83
485243	5225246	This time I'm more comfortable and aware of a lot more situations.	This time I'm more comfortable and aware of a lot more situations.	248037502	1478640495572	1478640495667	i	73
485243	5225246	This time I'm more comfortable and aware of a lot more situations.	This time I'm more comfortable and aware of a lot more situations.	248037506	1478640495627	1478640495722	t	84
485243	5225246	This time I'm more comfortable and aware of a lot more situations.	This time I'm more comfortable and aware of a lot more situations.	248037510	1478640495763	1478640495842	u	85
485243	5225246	This time I'm more comfortable and aware of a lot more situations.	This time I'm more comfortable and aware of a lot more situations.	248037514	1478640495875	1478640496035	a	65
485243	5225246	This time I'm more comfortable and aware of a lot more situations.	This time I'm more comfortable and aware of a lot more situations.	248037519	1478640496059	1478640496138	t	84
485243	5225246	This time I'm more comfortable and aware of a lot more situations.	This time I'm more comfortable and aware of a lot more situations.	248037524	1478640496211	1478640496323	i	73
485243	5225246	This time I'm more comfortable and aware of a lot more situations.	This time I'm more comfortable and aware of a lot more situations.	248037530	1478640496267	1478640496362	o	79
485243	5225246	This time I'm more comfortable and aware of a lot more situations.	This time I'm more comfortable and aware of a lot more situations.	248037538	1478640496419	1478640496539	n	78
485243	5225246	This time I'm more comfortable and aware of a lot more situations.	This time I'm more comfortable and aware of a lot more situations.	248037536	1478640496515	1478640496602	s	83
485243	5225258	Would you mind taking the lead on this?	Would you mind taking the lead on this?	248037681	1478640498452	1478640498763	SHIFT	16
485243	5225258	Would you mind taking the lead on this?	Would you mind taking the lead on this?	248037684	1478640498667	1478640498779	W	87
485243	5225258	Would you mind taking the lead on this?	Would you mind taking the lead on this?	248037687	1478640498812	1478640498899	o	79
485243	5225258	Would you mind taking the lead on this?	Would you mind taking the lead on this?	248037688	1478640498844	1478640498955	u	85
485243	5225258	Would you mind taking the lead on this?	Would you mind taking the lead on this?	248037690	1478640498995	1478640499107	d	76
485243	5225258	Would you mind taking the lead on this?	Would you mind taking the lead on this?	248037703	1478640499091	1478640499227	 	32
485243	5225258	Would you mind taking the lead on this?	Would you mind taking the lead on this?	248037707	1478640499187	1478640499300	y	89
485243	5225258	Would you mind taking the lead on this?	Would you mind taking the lead on this?	248037712	1478640499211	1478640499355	o	79
485243	5225258	Would you mind taking the lead on this?	Would you mind taking the lead on this?	248037710	1478640499300	1478640499346	 	85
485243	5225258	Would you mind taking the lead on this?	Would you mind taking the lead on this?	248037714	1478640499443	1478640499562	m	77
485243	5225258	Would you mind taking the lead on this?	Would you mind taking the lead on this?	248037732	1478640499515	1478640499634	i	73
485243	5225258	Would you mind taking the lead on this?	Would you mind taking the lead on this?	248037736	1478640499659	1478640499772	n	78
485243	5225258	Would you mind taking the lead on this?	Would you mind taking the lead on this?	248037740	1478640499723	1478640499818	d	68
485243	5225258	Would you mind taking the lead on this?	Would you mind taking the lead on this?	248037744	1478640499772	1478640499914	 	32
485243	5225258	Would you mind taking the lead on this?	Would you mind taking the lead on this?	248037749	1478640500019	1478640500162	t	84
485243	5225258	Would you mind taking the lead on this?	Would you mind taking the lead on this?	248037772	1478640500116	1478640500210	a	65
485243	5225258	Would you mind taking the lead on this?	Would you mind taking the lead on this?	248037778	1478640500147	1478640500243	k	75
485243	5225258	Would you mind taking the lead on this?	Would you mind taking the lead on this?	248037784	1478640500331	1478640500363	i	73
485243	5225258	Would you mind taking the lead on this?	Would you mind taking the lead on this?	248037797	1478640500459	1478640500602	n	78
485243	5225258	Would you mind taking the lead on this?	Would you mind taking the lead on this?	248037790	1478640500483	1478640500570	g	71
485243	5225258	Would you mind taking the lead on this?	Would you mind taking the lead on this?	248037801	1478640500546	1478640500699	 	32
485243	5225258	Would you mind taking the lead on this?	Would you mind taking the lead on this?	248037808	1478640500651	1478640500771	t	84
485243	5225258	Would you mind taking the lead on this?	Would you mind taking the lead on this?	248037810	1478640500683	1478640500835	h	72
485243	5225258	Would you mind taking the lead on this?	Would you mind taking the lead on this?	248037813	1478640500731	1478640500851	e	69
485243	5225258	Would you mind taking the lead on this?	Would you mind taking the lead on this?	248037816	1478640500795	1478640500949	 	32
485243	5225258	Would you mind taking the lead on this?	Would you mind taking the lead on this?	248037821	1478640500931	1478640501067	l	76
485243	5225258	Would you mind taking the lead on this?	Would you mind taking the lead on this?	248037818	1478640500955	1478640501043	e	69
485243	5225258	Would you mind taking the lead on this?	Would you mind taking the lead on this?	248037835	1478640501059	1478640501227	a	65
485243	5225258	Would you mind taking the lead on this?	Would you mind taking the lead on this?	248037839	1478640501164	1478640501315	d	68
485243	5225258	Would you mind taking the lead on this?	Would you mind taking the lead on this?	248037842	1478640501259	1478640501395	 	32
485243	5225258	Would you mind taking the lead on this?	Would you mind taking the lead on this?	248037847	1478640501411	1478640501508	o	79
485243	5225258	Would you mind taking the lead on this?	Would you mind taking the lead on this?	248037852	1478640501532	1478640501620	n	78
485243	5225258	Would you mind taking the lead on this?	Would you mind taking the lead on this?	248037870	1478640501587	1478640501707	 	32
485243	5225258	Would you mind taking the lead on this?	Would you mind taking the lead on this?	248037876	1478640501659	1478640501794	t	84
485243	5225258	Would you mind taking the lead on this?	Would you mind taking the lead on this?	248037880	1478640501715	1478640501860	h	72
485243	5225258	Would you mind taking the lead on this?	Would you mind taking the lead on this?	248037891	1478640501763	1478640501891	i	73
485243	5225258	Would you mind taking the lead on this?	Would you mind taking the lead on this?	248037896	1478640501812	1478640501914	s	83
485243	5225258	Would you mind taking the lead on this?	Would you mind taking the lead on this?	248037901	1478640501996	1478640502106	SHIFT	16
485243	5225258	Would you mind taking the lead on this?	Would you mind taking the lead on this?	248037892	1478640502027	1478640502147	?	191
485243	5225263	We are also in touch with the U.	We are also in touch with the U.	248037979	1478640503547	1478640503762	SHIFT	16
485243	5225263	We are also in touch with the U.	We are also in touch with the U.	248037981	1478640503683	1478640503795	W	87
485243	5225263	We are also in touch with the U.	We are also in touch with the U.	248037984	1478640504082	1478640504210	e	69
485243	5225263	We are also in touch with the U.	We are also in touch with the U.	248037988	1478640504220	1478640504371	 	32
485243	5225263	We are also in touch with the U.	We are also in touch with the U.	248037991	1478640504307	1478640504474	a	65
485243	5225263	We are also in touch with the U.	We are also in touch with the U.	248038008	1478640504411	1478640504555	r	82
485243	5225263	We are also in touch with the U.	We are also in touch with the U.	248038012	1478640504491	1478640504586	e	69
485243	5225263	We are also in touch with the U.	We are also in touch with the U.	248038020	1478640504531	1478640504682	 	32
485243	5225263	We are also in touch with the U.	We are also in touch with the U.	248038028	1478640504645	1478640504771	a	65
485243	5225263	We are also in touch with the U.	We are also in touch with the U.	248038034	1478640504787	1478640504875	l	76
485243	5225263	We are also in touch with the U.	We are also in touch with the U.	248038038	1478640504884	1478640504979	s	83
485243	5225263	We are also in touch with the U.	We are also in touch with the U.	248038051	1478640504964	1478640505058	o	79
485243	5225263	We are also in touch with the U.	We are also in touch with the U.	248038053	1478640505019	1478640505147	 	32
485243	5225263	We are also in touch with the U.	We are also in touch with the U.	248038055	1478640505163	1478640505268	i	73
485243	5225263	We are also in touch with the U.	We are also in touch with the U.	248038058	1478640505203	1478640505315	n	78
485243	5225263	We are also in touch with the U.	We are also in touch with the U.	248038062	1478640505268	1478640505379	 	32
485243	5225263	We are also in touch with the U.	We are also in touch with the U.	248038072	1478640505339	1478640505435	t	84
485243	5225263	We are also in touch with the U.	We are also in touch with the U.	248038073	1478640505451	1478640505594	o	79
485243	5225263	We are also in touch with the U.	We are also in touch with the U.	248038074	1478640505531	1478640505636	u	85
485243	5225263	We are also in touch with the U.	We are also in touch with the U.	248038075	1478640505636	1478640505755	c	67
485243	5225263	We are also in touch with the U.	We are also in touch with the U.	248038078	1478640505731	1478640505835	h	72
485243	5225263	We are also in touch with the U.	We are also in touch with the U.	248038092	1478640505772	1478640505890	 	32
485243	5225263	We are also in touch with the U.	We are also in touch with the U.	248038095	1478640505859	1478640505987	w	87
485243	5225263	We are also in touch with the U.	We are also in touch with the U.	248038100	1478640505931	1478640506035	i	73
485243	5225263	We are also in touch with the U.	We are also in touch with the U.	248038105	1478640506029	1478640506147	t	84
485243	5225263	We are also in touch with the U.	We are also in touch with the U.	248038125	1478640506091	1478640506203	h	72
485243	5225263	We are also in touch with the U.	We are also in touch with the U.	248038127	1478640506139	1478640506299	 	32
485243	5225263	We are also in touch with the U.	We are also in touch with the U.	248038130	1478640506243	1478640506379	t	84
485243	5225263	We are also in touch with the U.	We are also in touch with the U.	248038133	1478640506332	1478640506451	e	72
485243	5225263	We are also in touch with the U.	We are also in touch with the U.	248038139	1478640506419	1478640506540	 	32
485243	5225263	We are also in touch with the U.	We are also in touch with the U.	248038144	1478640506507	1478640506707	SHIFT	16
485243	5225263	We are also in touch with the U.	We are also in touch with the U.	248038142	1478640506603	1478640506698	U	85
485243	5225268	But he is expected to play against the Raiders on Sunday night.	But he is expected to play against the Raiders on Sunday night.	248038234	1478640508180	1478640508428	SHIFT	16
485243	5225268	But he is expected to play against the Raiders on Sunday night.	But he is expected to play against the Raiders on Sunday night.	248038237	1478640508372	1478640508499	B	66
485243	5225268	But he is expected to play against the Raiders on Sunday night.	But he is expected to play against the Raiders on Sunday night.	248038242	1478640508508	1478640508635	u	85
485243	5225268	But he is expected to play against the Raiders on Sunday night.	But he is expected to play against the Raiders on Sunday night.	248038246	1478640508619	1478640508731	t	84
485243	5225268	But he is expected to play against the Raiders on Sunday night.	But he is expected to play against the Raiders on Sunday night.	248038248	1478640508683	1478640508796	 	32
485243	5225268	But he is expected to play against the Raiders on Sunday night.	But he is expected to play against the Raiders on Sunday night.	248038251	1478640508796	1478640508915	h	72
485243	5225268	But he is expected to play against the Raiders on Sunday night.	But he is expected to play against the Raiders on Sunday night.	248038257	1478640508891	1478640508978	e	69
485243	5225268	But he is expected to play against the Raiders on Sunday night.	But he is expected to play against the Raiders on Sunday night.	248038260	1478640508947	1478640509066	 	32
485243	5225268	But he is expected to play against the Raiders on Sunday night.	But he is expected to play against the Raiders on Sunday night.	248038262	1478640509036	1478640509163	i	73
485243	5225268	But he is expected to play against the Raiders on Sunday night.	But he is expected to play against the Raiders on Sunday night.	248038265	1478640509107	1478640509194	s	83
485243	5225268	But he is expected to play against the Raiders on Sunday night.	But he is expected to play against the Raiders on Sunday night.	248038267	1478640509179	1478640509299	 	32
485243	5225268	But he is expected to play against the Raiders on Sunday night.	But he is expected to play against the Raiders on Sunday night.	248038300	1478640509283	1478640509363	e	69
485243	5225268	But he is expected to play against the Raiders on Sunday night.	But he is expected to play against the Raiders on Sunday night.	248038303	1478640509459	1478640509532	x	88
485243	5225268	But he is expected to play against the Raiders on Sunday night.	But he is expected to play against the Raiders on Sunday night.	248038306	1478640509565	1478640509660	p	80
485243	5225268	But he is expected to play against the Raiders on Sunday night.	But he is expected to play against the Raiders on Sunday night.	248038310	1478640509628	1478640509716	e	69
485243	5225268	But he is expected to play against the Raiders on Sunday night.	But he is expected to play against the Raiders on Sunday night.	248038311	1478640509748	1478640509844	c	67
485243	5225268	But he is expected to play against the Raiders on Sunday night.	But he is expected to play against the Raiders on Sunday night.	248038313	1478640509925	1478640510060	t	84
485243	5225268	But he is expected to play against the Raiders on Sunday night.	But he is expected to play against the Raiders on Sunday night.	248038321	1478640509996	1478640510084	e	69
485243	5225268	But he is expected to play against the Raiders on Sunday night.	But he is expected to play against the Raiders on Sunday night.	248038324	1478640510172	1478640510267	d	68
485243	5225268	But he is expected to play against the Raiders on Sunday night.	But he is expected to play against the Raiders on Sunday night.	248038328	1478640510237	1478640510356	 	32
485243	5225268	But he is expected to play against the Raiders on Sunday night.	But he is expected to play against the Raiders on Sunday night.	248038335	1478640510317	1478640510444	t	84
485243	5225268	But he is expected to play against the Raiders on Sunday night.	But he is expected to play against the Raiders on Sunday night.	248038340	1478640510412	1478640510533	o	79
485243	5225268	But he is expected to play against the Raiders on Sunday night.	But he is expected to play against the Raiders on Sunday night.	248038361	1478640510452	1478640510588	 	32
485243	5225268	But he is expected to play against the Raiders on Sunday night.	But he is expected to play against the Raiders on Sunday night.	248038364	1478640510628	1478640510724	p	80
485243	5225268	But he is expected to play against the Raiders on Sunday night.	But he is expected to play against the Raiders on Sunday night.	248038369	1478640510860	1478640510972	l	76
485243	5225268	But he is expected to play against the Raiders on Sunday night.	But he is expected to play against the Raiders on Sunday night.	248038374	1478640510996	1478640511140	a	65
485243	5225268	But he is expected to play against the Raiders on Sunday night.	But he is expected to play against the Raiders on Sunday night.	248038377	1478640511092	1478640511195	y	89
485243	5225268	But he is expected to play against the Raiders on Sunday night.	But he is expected to play against the Raiders on Sunday night.	248038389	1478640511149	1478640511268	 	32
485243	5225268	But he is expected to play against the Raiders on Sunday night.	But he is expected to play against the Raiders on Sunday night.	248038393	1478640511236	1478640511379	a	65
485243	5225268	But he is expected to play against the Raiders on Sunday night.	But he is expected to play against the Raiders on Sunday night.	248038396	1478640511365	1478640511492	g	71
485243	5225268	But he is expected to play against the Raiders on Sunday night.	But he is expected to play against the Raiders on Sunday night.	248038400	1478640511460	1478640511588	a	65
485243	5225268	But he is expected to play against the Raiders on Sunday night.	But he is expected to play against the Raiders on Sunday night.	248038405	1478640511564	1478640511676	i	73
485243	5225268	But he is expected to play against the Raiders on Sunday night.	But he is expected to play against the Raiders on Sunday night.	248038417	1478640511637	1478640511755	n	78
485243	5225268	But he is expected to play against the Raiders on Sunday night.	But he is expected to play against the Raiders on Sunday night.	248038421	1478640511716	1478640511845	s	83
485243	5225268	But he is expected to play against the Raiders on Sunday night.	But he is expected to play against the Raiders on Sunday night.	248038423	1478640511788	1478640511915	t	84
485243	5225268	But he is expected to play against the Raiders on Sunday night.	But he is expected to play against the Raiders on Sunday night.	248038425	1478640511884	1478640512003	 	32
485243	5225268	But he is expected to play against the Raiders on Sunday night.	But he is expected to play against the Raiders on Sunday night.	248038429	1478640511979	1478640512107	t	84
485243	5225268	But he is expected to play against the Raiders on Sunday night.	But he is expected to play against the Raiders on Sunday night.	248038500	1478640512036	1478640512179	h	72
485243	5225268	But he is expected to play against the Raiders on Sunday night.	But he is expected to play against the Raiders on Sunday night.	248038504	1478640512076	1478640512195	e	69
485243	5225268	But he is expected to play against the Raiders on Sunday night.	But he is expected to play against the Raiders on Sunday night.	248038509	1478640512158	1478640512275	 	32
485243	5225268	But he is expected to play against the Raiders on Sunday night.	But he is expected to play against the Raiders on Sunday night.	248038512	1478640512212	1478640512364	SHIFT	16
485243	5225268	But he is expected to play against the Raiders on Sunday night.	But he is expected to play against the Raiders on Sunday night.	248038513	1478640512308	1478640512436	R	82
485243	5225268	But he is expected to play against the Raiders on Sunday night.	But he is expected to play against the Raiders on Sunday night.	248038515	1478640512452	1478640512588	a	65
485243	5225268	But he is expected to play against the Raiders on Sunday night.	But he is expected to play against the Raiders on Sunday night.	248038517	1478640513093	1478640513189	i	73
485243	5225268	But he is expected to play against the Raiders on Sunday night.	But he is expected to play against the Raiders on Sunday night.	248038538	1478640513147	1478640513244	d	68
485243	5225268	But he is expected to play against the Raiders on Sunday night.	But he is expected to play against the Raiders on Sunday night.	248038542	1478640513332	1478640513412	e	69
485243	5225268	But he is expected to play against the Raiders on Sunday night.	But he is expected to play against the Raiders on Sunday night.	248038544	1478640513372	1478640513508	r	82
485243	5225268	But he is expected to play against the Raiders on Sunday night.	But he is expected to play against the Raiders on Sunday night.	248038547	1478640513476	1478640513587	s	83
485243	5225268	But he is expected to play against the Raiders on Sunday night.	But he is expected to play against the Raiders on Sunday night.	248038551	1478640513548	1478640513699	 	32
485243	5225268	But he is expected to play against the Raiders on Sunday night.	But he is expected to play against the Raiders on Sunday night.	248038555	1478640513708	1478640513835	s	83
485243	5225268	But he is expected to play against the Raiders on Sunday night.	But he is expected to play against the Raiders on Sunday night.	248038621	1478640513812	1478640513908	u	85
485243	5225268	But he is expected to play against the Raiders on Sunday night.	But he is expected to play against the Raiders on Sunday night.	248038624	1478640514132	1478640514164	BKSP	8
485243	5225268	But he is expected to play against the Raiders on Sunday night.	But he is expected to play against the Raiders on Sunday night.	248038628	1478640514246	1478640514300	BKSP	8
485243	5225268	But he is expected to play against the Raiders on Sunday night.	But he is expected to play against the Raiders on Sunday night.	248038632	1478640514380	1478640514435	BKSP	8
485243	5225268	But he is expected to play against the Raiders on Sunday night.	But he is expected to play against the Raiders on Sunday night.	248038636	1478640514396	1478640514732	SHIFT	16
485243	5225268	But he is expected to play against the Raiders on Sunday night.	But he is expected to play against the Raiders on Sunday night.	248038641	1478640514781	1478640514892	 	32
485243	5225268	But he is expected to play against the Raiders on Sunday night.	But he is expected to play against the Raiders on Sunday night.	248038644	1478640515059	1478640515156	o	79
485243	5225268	But he is expected to play against the Raiders on Sunday night.	But he is expected to play against the Raiders on Sunday night.	248038648	1478640515228	1478640515348	n	78
485243	5225268	But he is expected to play against the Raiders on Sunday night.	But he is expected to play against the Raiders on Sunday night.	248038654	1478640515260	1478640515388	 	32
485243	5225268	But he is expected to play against the Raiders on Sunday night.	But he is expected to play against the Raiders on Sunday night.	248038661	1478640515316	1478640515484	SHIFT	16
485243	5225268	But he is expected to play against the Raiders on Sunday night.	But he is expected to play against the Raiders on Sunday night.	248038664	1478640515404	1478640515524	S	83
485243	5225268	But he is expected to play against the Raiders on Sunday night.	But he is expected to play against the Raiders on Sunday night.	248038669	1478640515540	1478640515612	u	85
485243	5225268	But he is expected to play against the Raiders on Sunday night.	But he is expected to play against the Raiders on Sunday night.	248038676	1478640515701	1478640515828	n	78
485243	5225268	But he is expected to play against the Raiders on Sunday night.	But he is expected to play against the Raiders on Sunday night.	248038684	1478640515732	1478640515836	d	68
485243	5225268	But he is expected to play against the Raiders on Sunday night.	But he is expected to play against the Raiders on Sunday night.	248038694	1478640515820	1478640515980	a	65
485243	5225268	But he is expected to play against the Raiders on Sunday night.	But he is expected to play against the Raiders on Sunday night.	248038701	1478640515932	1478640516028	y	89
485243	5225268	But he is expected to play against the Raiders on Sunday night.	But he is expected to play against the Raiders on Sunday night.	248038705	1478640515997	1478640516125	 	32
485243	5225268	But he is expected to play against the Raiders on Sunday night.	But he is expected to play against the Raiders on Sunday night.	248038707	1478640516044	1478640516139	n	78
485243	5225268	But he is expected to play against the Raiders on Sunday night.	But he is expected to play against the Raiders on Sunday night.	248038708	1478640516094	1478640516195	i	73
485243	5225268	But he is expected to play against the Raiders on Sunday night.	But he is expected to play against the Raiders on Sunday night.	248038710	1478640516157	1478640516252	g	71
485243	5225268	But he is expected to play against the Raiders on Sunday night.	But he is expected to play against the Raiders on Sunday night.	248038715	1478640516220	1478640516334	h	72
485243	5225268	But he is expected to play against the Raiders on Sunday night.	But he is expected to play against the Raiders on Sunday night.	248038719	1478640516335	1478640516412	t	84
485243	5225277	I won't be home until 6.	I won't be home until 6.	248038831	1478640517916	1478640518252	SHIFT	16
485243	5225277	I won't be home until 6.	I won't be home until 6.	248038834	1478640518116	1478640518259	I	73
485243	5225277	I won't be home until 6.	I won't be home until 6.	248038837	1478640518236	1478640518372	 	32
485243	5225277	I won't be home until 6.	I won't be home until 6.	248038840	1478640518356	1478640518476	w	87
485243	5225277	I won't be home until 6.	I won't be home until 6.	248038844	1478640518405	1478640518484	o	79
485243	5225277	I won't be home until 6.	I won't be home until 6.	248038847	1478640518541	1478640518612	n	78
485243	5225277	I won't be home until 6.	I won't be home until 6.	248038858	1478640518668	1478640518763	'	222
485243	5225277	I won't be home until 6.	I won't be home until 6.	248038864	1478640518740	1478640518860	t	84
485243	5225277	I won't be home until 6.	I won't be home until 6.	248038867	1478640518828	1478640518940	 	32
485243	5225277	I won't be home until 6.	I won't be home until 6.	248038873	1478640518948	1478640519044	b	66
485243	5225277	I won't be home until 6.	I won't be home until 6.	248038906	1478640519012	1478640519099	e	69
485243	5225277	I won't be home until 6.	I won't be home until 6.	248038911	1478640519060	1478640519195	 	32
485243	5225277	I won't be home until 6.	I won't be home until 6.	248038917	1478640519252	1478640519332	h	72
485243	5225277	I won't be home until 6.	I won't be home until 6.	248038920	1478640519364	1478640519467	o	79
485243	5225277	I won't be home until 6.	I won't be home until 6.	248038923	1478640519508	1478640519604	m	77
485243	5225277	I won't be home until 6.	I won't be home until 6.	248038960	1478640519564	1478640519660	e	69
485243	5225277	I won't be home until 6.	I won't be home until 6.	248038964	1478640519596	1478640519740	 	32
485243	5225277	I won't be home until 6.	I won't be home until 6.	248038968	1478640519724	1478640519859	u	85
485243	5225277	I won't be home until 6.	I won't be home until 6.	248038972	1478640519846	1478640519971	n	78
485243	5225277	I won't be home until 6.	I won't be home until 6.	248038975	1478640519987	1478640520076	t	84
485243	5225277	I won't be home until 6.	I won't be home until 6.	248038980	1478640520044	1478640520155	i	73
485243	5225277	I won't be home until 6.	I won't be home until 6.	248038985	1478640520268	1478640520347	l	76
485243	5225277	I won't be home until 6.	I won't be home until 6.	248039007	1478640520372	1478640520484	 	32
485243	5225277	I won't be home until 6.	I won't be home until 6.	248039010	1478640520548	1478640520628	6	54
485243	5225280	When do we review with El Paso?	When do we review with El Paso?	248039108	1478640522364	1478640522748	SHIFT	16
485243	5225280	When do we review with El Paso?	When do we review with El Paso?	248039106	1478640522572	1478640522676	W	87
485243	5225280	When do we review with El Paso?	When do we review with El Paso?	248039111	1478640522788	1478640522884	h	72
485243	5225280	When do we review with El Paso?	When do we review with El Paso?	248039115	1478640522940	1478640523036	e	69
485243	5225280	When do we review with El Paso?	When do we review with El Paso?	248039118	1478640523077	1478640523181	n	78
485243	5225280	When do we review with El Paso?	When do we review with El Paso?	248039122	1478640523181	1478640523308	 	32
485243	5225280	When do we review with El Paso?	When do we review with El Paso?	248039126	1478640523316	1478640523404	d	68
485243	5225280	When do we review with El Paso?	When do we review with El Paso?	248039129	1478640523388	1478640523501	o	79
485243	5225280	When do we review with El Paso?	When do we review with El Paso?	248039133	1478640523412	1478640523548	 	32
485243	5225280	When do we review with El Paso?	When do we review with El Paso?	248039137	1478640523516	1478640523635	w	87
485243	5225280	When do we review with El Paso?	When do we review with El Paso?	248039148	1478640523564	1478640523684	e	69
485243	5225280	When do we review with El Paso?	When do we review with El Paso?	248039149	1478640523652	1478640523771	 	32
485243	5225280	When do we review with El Paso?	When do we review with El Paso?	248039150	1478640523732	1478640523868	r	82
485243	5225280	When do we review with El Paso?	When do we review with El Paso?	248039152	1478640523813	1478640523899	e	69
485243	5225280	When do we review with El Paso?	When do we review with El Paso?	248039156	1478640523964	1478640524100	v	86
485243	5225280	When do we review with El Paso?	When do we review with El Paso?	248039171	1478640524084	1478640524212	i	73
485243	5225280	When do we review with El Paso?	When do we review with El Paso?	248039174	1478640524157	1478640524324	e	69
485243	5225280	When do we review with El Paso?	When do we review with El Paso?	248039178	1478640524245	1478640524356	w	87
485243	5225280	When do we review with El Paso?	When do we review with El Paso?	248039182	1478640524293	1478640524452	 	32
485243	5225280	When do we review with El Paso?	When do we review with El Paso?	248039184	1478640524444	1478640524571	w	87
485243	5225280	When do we review with El Paso?	When do we review with El Paso?	248039206	1478640524508	1478640524596	i	73
485243	5225280	When do we review with El Paso?	When do we review with El Paso?	248039212	1478640524628	1478640524764	t	84
485243	5225280	When do we review with El Paso?	When do we review with El Paso?	248039218	1478640524701	1478640524846	 	72
485243	5225280	When do we review with El Paso?	When do we review with El Paso?	248039223	1478640524804	1478640524980	SHIFT	16
485243	5225280	When do we review with El Paso?	When do we review with El Paso?	248039228	1478640524901	1478640525028	E	69
485243	5225280	When do we review with El Paso?	When do we review with El Paso?	248039231	1478640525124	1478640525251	l	76
485243	5225280	When do we review with El Paso?	When do we review with El Paso?	248039280	1478640525196	1478640525324	 	32
485243	5225280	When do we review with El Paso?	When do we review with El Paso?	248039283	1478640525268	1478640525515	SHIFT	16
485243	5225280	When do we review with El Paso?	When do we review with El Paso?	248039284	1478640525476	1478640525556	P	80
485243	5225280	When do we review with El Paso?	When do we review with El Paso?	248039285	1478640525628	1478640525771	a	65
485243	5225280	When do we review with El Paso?	When do we review with El Paso?	248039289	1478640525724	1478640525820	s	83
485243	5225280	When do we review with El Paso?	When do we review with El Paso?	248039295	1478640525812	1478640525900	o	79
485243	5225280	When do we review with El Paso?	When do we review with El Paso?	248039300	1478640526252	1478640526404	/	191
485243	5225280	When do we review with El Paso?	When do we review with El Paso?	248039335	1478640526701	1478640526788	BKSP	8
485243	5225280	When do we review with El Paso?	When do we review with El Paso?	248039338	1478640527316	1478640527492	SHIFT	16
485243	5225280	When do we review with El Paso?	When do we review with El Paso?	248039340	1478640527398	1478640527507	?	191
485243	5225291	Scotty and I will be in NYC.	Scotty and I will be in NYC.	248039439	1478640529054	1478640529348	SHIFT	16
485243	5225291	Scotty and I will be in NYC.	Scotty and I will be in NYC.	248039437	1478640529190	1478640529340	S	83
485243	5225291	Scotty and I will be in NYC.	Scotty and I will be in NYC.	248039441	1478640529420	1478640529532	c	67
485243	5225291	Scotty and I will be in NYC.	Scotty and I will be in NYC.	248039444	1478640529516	1478640529620	o	79
485243	5225291	Scotty and I will be in NYC.	Scotty and I will be in NYC.	248039447	1478640529637	1478640529716	t	84
485243	5225291	Scotty and I will be in NYC.	Scotty and I will be in NYC.	248039449	1478640529789	1478640529868	t	84
485243	5225291	Scotty and I will be in NYC.	Scotty and I will be in NYC.	248039472	1478640529964	1478640530059	y	89
485243	5225291	Scotty and I will be in NYC.	Scotty and I will be in NYC.	248039474	1478640530012	1478640530140	 	32
485243	5225291	Scotty and I will be in NYC.	Scotty and I will be in NYC.	248039476	1478640530092	1478640530237	a	65
485243	5225291	Scotty and I will be in NYC.	Scotty and I will be in NYC.	248039478	1478640530205	1478640530268	n	78
485243	5225291	Scotty and I will be in NYC.	Scotty and I will be in NYC.	248039481	1478640530309	1478640530444	d	68
485243	5225291	Scotty and I will be in NYC.	Scotty and I will be in NYC.	248039499	1478640530387	1478640530515	 	32
485243	5225291	Scotty and I will be in NYC.	Scotty and I will be in NYC.	248039502	1478640530460	1478640530620	SHIFT	16
485243	5225291	Scotty and I will be in NYC.	Scotty and I will be in NYC.	248039507	1478640530548	1478640530668	I	73
485243	5225291	Scotty and I will be in NYC.	Scotty and I will be in NYC.	248039511	1478640530636	1478640530740	 	32
485243	5225291	Scotty and I will be in NYC.	Scotty and I will be in NYC.	248039515	1478640530708	1478640530805	w	87
485243	5225291	Scotty and I will be in NYC.	Scotty and I will be in NYC.	248039519	1478640530773	1478640530836	i	73
485243	5225291	Scotty and I will be in NYC.	Scotty and I will be in NYC.	248039524	1478640530964	1478640531028	l	76
485243	5225291	Scotty and I will be in NYC.	Scotty and I will be in NYC.	248039530	1478640531085	1478640531164	l	76
485243	5225291	Scotty and I will be in NYC.	Scotty and I will be in NYC.	248039535	1478640531140	1478640531276	 	32
485243	5225291	Scotty and I will be in NYC.	Scotty and I will be in NYC.	248039541	1478640531260	1478640531388	b	66
485243	5225291	Scotty and I will be in NYC.	Scotty and I will be in NYC.	248039545	1478640531364	1478640531436	e	69
485243	5225291	Scotty and I will be in NYC.	Scotty and I will be in NYC.	248039582	1478640531397	1478640531524	 	32
485243	5225291	Scotty and I will be in NYC.	Scotty and I will be in NYC.	248039583	1478640531492	1478640531620	i	73
485243	5225291	Scotty and I will be in NYC.	Scotty and I will be in NYC.	248039585	1478640531580	1478640531723	n	78
485243	5225291	Scotty and I will be in NYC.	Scotty and I will be in NYC.	248039587	1478640531646	1478640531795	 	32
485243	5225291	Scotty and I will be in NYC.	Scotty and I will be in NYC.	248039619	1478640531764	1478640532484	SHIFT	16
485243	5225291	Scotty and I will be in NYC.	Scotty and I will be in NYC.	248039591	1478640531932	1478640532045	N	78
485243	5225291	Scotty and I will be in NYC.	Scotty and I will be in NYC.	248039594	1478640532092	1478640532147	Y	89
485243	5225291	Scotty and I will be in NYC.	Scotty and I will be in NYC.	248039615	1478640532340	1478640532436	C	67
485243	5225296	This is all so unreal.	This is all so unreal.	248039707	1478640534060	1478640534276	SHIFT	16
485243	5225296	This is all so unreal.	This is all so unreal.	248039713	1478640534189	1478640534284	T	84
485243	5225296	This is all so unreal.	This is all so unreal.	248039718	1478640534356	1478640534476	h	72
485243	5225296	This is all so unreal.	This is all so unreal.	248039722	1478640534412	1478640534508	i	73
485243	5225296	This is all so unreal.	This is all so unreal.	248039726	1478640534444	1478640534556	s	83
485243	5225296	This is all so unreal.	This is all so unreal.	248039739	1478640534524	1478640534676	 	32
485243	5225296	This is all so unreal.	This is all so unreal.	248039742	1478640534604	1478640534731	i	73
485243	5225296	This is all so unreal.	This is all so unreal.	248039746	1478640534661	1478640534771	s	83
485243	5225296	This is all so unreal.	This is all so unreal.	248039750	1478640534755	1478640534876	 	32
485243	5225296	This is all so unreal.	This is all so unreal.	248039754	1478640534845	1478640534963	a	65
485243	5225296	This is all so unreal.	This is all so unreal.	248039764	1478640534908	1478640534988	l	76
485243	5225296	This is all so unreal.	This is all so unreal.	248039766	1478640535037	1478640535164	l	76
485243	5225296	This is all so unreal.	This is all so unreal.	248039768	1478640535060	1478640535212	 	32
485243	5225296	This is all so unreal.	This is all so unreal.	248039770	1478640535181	1478640535300	s	83
485243	5225296	This is all so unreal.	This is all so unreal.	248039772	1478640535268	1478640535372	o	79
485243	5225296	This is all so unreal.	This is all so unreal.	248039786	1478640535317	1478640535439	 	32
485243	5225296	This is all so unreal.	This is all so unreal.	248039789	1478640535460	1478640535524	u	85
485243	5225296	This is all so unreal.	This is all so unreal.	248039794	1478640535613	1478640535732	n	78
485243	5225296	This is all so unreal.	This is all so unreal.	248039797	1478640535668	1478640535803	r	82
485243	5225296	This is all so unreal.	This is all so unreal.	248039805	1478640535732	1478640535845	e	69
485243	5225296	This is all so unreal.	This is all so unreal.	248039809	1478640535781	1478640535907	a	65
485243	5225296	This is all so unreal.	This is all so unreal.	248039813	1478640535860	1478640535940	l	76
485243	5225299	This is a most unfortunate news release.	This is a most unfortunate news release.	248039911	1478640537436	1478640537692	SHIFT	16
485243	5225299	This is a most unfortunate news release.	This is a most unfortunate news release.	248039912	1478640537596	1478640537700	T	84
485243	5225299	This is a most unfortunate news release.	This is a most unfortunate news release.	248039913	1478640537741	1478640537868	h	72
485243	5225299	This is a most unfortunate news release.	This is a most unfortunate news release.	248039914	1478640537796	1478640537915	i	73
485243	5225299	This is a most unfortunate news release.	This is a most unfortunate news release.	248039927	1478640537844	1478640537956	s	83
485243	5225299	This is a most unfortunate news release.	This is a most unfortunate news release.	248039931	1478640537909	1478640538052	 	32
485243	5225299	This is a most unfortunate news release.	This is a most unfortunate news release.	248039936	1478640538013	1478640538140	i	73
485243	5225299	This is a most unfortunate news release.	This is a most unfortunate news release.	248039937	1478640538060	1478640538149	s	83
485243	5225299	This is a most unfortunate news release.	This is a most unfortunate news release.	248039938	1478640538149	1478640538244	 	32
485243	5225299	This is a most unfortunate news release.	This is a most unfortunate news release.	248039939	1478640538212	1478640538356	a	65
485243	5225299	This is a most unfortunate news release.	This is a most unfortunate news release.	248039942	1478640538316	1478640538437	 	32
485243	5225299	This is a most unfortunate news release.	This is a most unfortunate news release.	248039944	1478640538405	1478640538532	m	77
485243	5225299	This is a most unfortunate news release.	This is a most unfortunate news release.	248039947	1478640538452	1478640538580	o	79
485243	5225299	This is a most unfortunate news release.	This is a most unfortunate news release.	248039950	1478640538492	1478640538620	s	83
485243	5225299	This is a most unfortunate news release.	This is a most unfortunate news release.	248039967	1478640538548	1478640538659	t	84
485243	5225299	This is a most unfortunate news release.	This is a most unfortunate news release.	248039972	1478640538612	1478640538731	 	32
485243	5225299	This is a most unfortunate news release.	This is a most unfortunate news release.	248039977	1478640538781	1478640538851	u	85
485243	5225299	This is a most unfortunate news release.	This is a most unfortunate news release.	248039981	1478640538948	1478640539043	n	78
485243	5225299	This is a most unfortunate news release.	This is a most unfortunate news release.	248039986	1478640539005	1478640539099	f	70
485243	5225299	This is a most unfortunate news release.	This is a most unfortunate news release.	248039990	1478640539141	1478640539252	o	79
485243	5225299	This is a most unfortunate news release.	This is a most unfortunate news release.	248040026	1478640539221	1478640539348	r	82
485243	5225299	This is a most unfortunate news release.	This is a most unfortunate news release.	248040028	1478640539724	1478640539788	t	84
485243	5225299	This is a most unfortunate news release.	This is a most unfortunate news release.	248040035	1478640539812	1478640539891	u	85
485243	5225299	This is a most unfortunate news release.	This is a most unfortunate news release.	248040040	1478640540004	1478640540148	n	78
485243	5225299	This is a most unfortunate news release.	This is a most unfortunate news release.	248040071	1478640540068	1478640540188	a	65
485243	5225299	This is a most unfortunate news release.	This is a most unfortunate news release.	248040074	1478640540132	1478640540324	t	84
485243	5225299	This is a most unfortunate news release.	This is a most unfortunate news release.	248040077	1478640540260	1478640540396	e	69
485243	5225299	This is a most unfortunate news release.	This is a most unfortunate news release.	248040080	1478640540365	1478640540475	 	32
485243	5225299	This is a most unfortunate news release.	This is a most unfortunate news release.	248040085	1478640540564	1478640540691	n	78
485243	5225299	This is a most unfortunate news release.	This is a most unfortunate news release.	248040088	1478640540628	1478640540756	e	69
485243	5225299	This is a most unfortunate news release.	This is a most unfortunate news release.	248040106	1478640540699	1478640540788	w	87
485243	5225299	This is a most unfortunate news release.	This is a most unfortunate news release.	248040111	1478640540892	1478640541004	s	83
485243	5225299	This is a most unfortunate news release.	This is a most unfortunate news release.	248040116	1478640540964	1478640541116	 	32
485243	5225299	This is a most unfortunate news release.	This is a most unfortunate news release.	248040119	1478640541060	1478640541188	r	82
485243	5225299	This is a most unfortunate news release.	This is a most unfortunate news release.	248040124	1478640541100	1478640541223	e	69
485243	5225299	This is a most unfortunate news release.	This is a most unfortunate news release.	248040142	1478640541212	1478640541324	l	76
485243	5225299	This is a most unfortunate news release.	This is a most unfortunate news release.	248040144	1478640541292	1478640541388	e	69
485243	5225299	This is a most unfortunate news release.	This is a most unfortunate news release.	248040145	1478640541380	1478640541548	a	65
485243	5225299	This is a most unfortunate news release.	This is a most unfortunate news release.	248040146	1478640541460	1478640541596	s	83
485243	5225299	This is a most unfortunate news release.	This is a most unfortunate news release.	248040149	1478640541516	1478640541620	e	69
485243	5225305	There is substantially no difference between us.	There is a substantially no difference between us.	248040263	1478640543092	1478640543323	SHIFT	16
485243	5225305	There is substantially no difference between us.	There is a substantially no difference between us.	248040261	1478640543204	1478640543308	T	84
485243	5225305	There is substantially no difference between us.	There is a substantially no difference between us.	248040266	1478640543436	1478640543548	h	72
485243	5225305	There is substantially no difference between us.	There is a substantially no difference between us.	248040270	1478640543508	1478640543587	e	69
485243	5225305	There is substantially no difference between us.	There is a substantially no difference between us.	248040277	1478640543557	1478640543684	r	82
485243	5225305	There is substantially no difference between us.	There is a substantially no difference between us.	248040288	1478640543644	1478640543757	e	69
485243	5225305	There is substantially no difference between us.	There is a substantially no difference between us.	248040291	1478640543717	1478640543860	 	32
485243	5225305	There is substantially no difference between us.	There is a substantially no difference between us.	248040296	1478640543828	1478640543971	i	73
485243	5225305	There is substantially no difference between us.	There is a substantially no difference between us.	248040297	1478640543868	1478640544003	s	83
485243	5225305	There is substantially no difference between us.	There is a substantially no difference between us.	248040301	1478640543956	1478640544068	 	32
485243	5225305	There is substantially no difference between us.	There is a substantially no difference between us.	248040339	1478640544036	1478640544165	a	65
485243	5225305	There is substantially no difference between us.	There is a substantially no difference between us.	248040343	1478640544132	1478640544268	 	32
485243	5225305	There is substantially no difference between us.	There is a substantially no difference between us.	248040348	1478640544252	1478640544365	s	83
485243	5225305	There is substantially no difference between us.	There is a substantially no difference between us.	248040351	1478640544366	1478640544476	u	85
485243	5225305	There is substantially no difference between us.	There is a substantially no difference between us.	248040355	1478640544764	1478640544868	b	66
485243	5225305	There is substantially no difference between us.	There is a substantially no difference between us.	248040360	1478640544916	1478640545043	s	83
485243	5225305	There is substantially no difference between us.	There is a substantially no difference between us.	248040464	1478640545012	1478640545100	t	84
485243	5225305	There is substantially no difference between us.	There is a substantially no difference between us.	248040468	1478640545212	1478640545332	a	65
485243	5225305	There is substantially no difference between us.	There is a substantially no difference between us.	248040472	1478640545748	1478640545837	n	78
485243	5225305	There is substantially no difference between us.	There is a substantially no difference between us.	248040476	1478640546052	1478640546084	BKSP	8
485243	5225305	There is substantially no difference between us.	There is a substantially no difference between us.	248040479	1478640546204	1478640546275	BKSP	8
485243	5225305	There is substantially no difference between us.	There is a substantially no difference between us.	248040480	1478640547284	1478640547404	a	65
485243	5225305	There is substantially no difference between us.	There is a substantially no difference between us.	248040481	1478640547397	1478640547477	n	78
485243	5225305	There is substantially no difference between us.	There is a substantially no difference between us.	248040482	1478640547516	1478640547588	t	84
485243	5225305	There is substantially no difference between us.	There is a substantially no difference between us.	248040516	1478640547628	1478640547732	i	73
485243	5225305	There is substantially no difference between us.	There is a substantially no difference between us.	248040520	1478640548060	1478640548149	a	65
485243	5225305	There is substantially no difference between us.	There is a substantially no difference between us.	248040526	1478640548149	1478640548235	l	76
485243	5225305	There is substantially no difference between us.	There is a substantially no difference between us.	248040533	1478640548284	1478640548420	l	76
485243	5225305	There is substantially no difference between us.	There is a substantially no difference between us.	248040618	1478640548325	1478640548421	y	89
485243	5225305	There is substantially no difference between us.	There is a substantially no difference between us.	248040619	1478640548388	1478640548516	 	32
485243	5225305	There is substantially no difference between us.	There is a substantially no difference between us.	248040620	1478640548588	1478640548716	o	79
485243	5225305	There is substantially no difference between us.	There is a substantially no difference between us.	248040622	1478640549205	1478640549267	BKSP	8
485243	5225305	There is substantially no difference between us.	There is a substantially no difference between us.	248040624	1478640549404	1478640549540	n	78
485243	5225305	There is substantially no difference between us.	There is a substantially no difference between us.	248040627	1478640549484	1478640549588	o	79
485243	5225305	There is substantially no difference between us.	There is a substantially no difference between us.	248040631	1478640549908	1478640550044	 	32
485243	5225305	There is substantially no difference between us.	There is a substantially no difference between us.	248040635	1478640550068	1478640550163	d	68
485243	5225305	There is substantially no difference between us.	There is a substantially no difference between us.	248040645	1478640550188	1478640550260	i	73
485243	5225305	There is substantially no difference between us.	There is a substantially no difference between us.	248040648	1478640550277	1478640550356	f	70
485243	5225305	There is substantially no difference between us.	There is a substantially no difference between us.	248040651	1478640550428	1478640550516	f	70
485243	5225305	There is substantially no difference between us.	There is a substantially no difference between us.	248040655	1478640550532	1478640550612	e	69
485243	5225305	There is substantially no difference between us.	There is a substantially no difference between us.	248040661	1478640550588	1478640550700	r	82
485243	5225305	There is substantially no difference between us.	There is a substantially no difference between us.	248040662	1478640550668	1478640550780	e	69
485243	5225305	There is substantially no difference between us.	There is a substantially no difference between us.	248040663	1478640550756	1478640550860	n	78
485243	5225305	There is substantially no difference between us.	There is a substantially no difference between us.	248040664	1478640550845	1478640550980	c	67
485243	5225305	There is substantially no difference between us.	There is a substantially no difference between us.	248040688	1478640550932	1478640551012	e	69
485243	5225305	There is substantially no difference between us.	There is a substantially no difference between us.	248040692	1478640550964	1478640551108	 	32
485243	5225305	There is substantially no difference between us.	There is a substantially no difference between us.	248040693	1478640551444	1478640551572	b	66
485243	5225305	There is substantially no difference between us.	There is a substantially no difference between us.	248040696	1478640551492	1478640551612	e	69
485243	5225305	There is substantially no difference between us.	There is a substantially no difference between us.	248040699	1478640551580	1478640551675	t	84
485243	5225305	There is substantially no difference between us.	There is a substantially no difference between us.	248040702	1478640551692	1478640551795	w	87
485243	5225305	There is substantially no difference between us.	There is a substantially no difference between us.	248040707	1478640551731	1478640551828	e	69
485243	5225305	There is substantially no difference between us.	There is a substantially no difference between us.	248040710	1478640551908	1478640551996	e	69
485243	5225305	There is substantially no difference between us.	There is a substantially no difference between us.	248040712	1478640551956	1478640552068	n	78
485243	5225305	There is substantially no difference between us.	There is a substantially no difference between us.	248040715	1478640552036	1478640552172	 	32
485243	5225305	There is substantially no difference between us.	There is a substantially no difference between us.	248040721	1478640552165	1478640552253	u	85
485243	5225305	There is substantially no difference between us.	There is a substantially no difference between us.	248040726	1478640552236	1478640552340	s	83
485243	5225322	Would you have John send me a message?	Would you have John send me a message?	248040864	1478640553917	1478640554204	SHIFT	16
485243	5225322	Would you have John send me a message?	Would you have John send me a message?	248040861	1478640554100	1478640554188	W	87
485243	5225322	Would you have John send me a message?	Would you have John send me a message?	248040868	1478640554212	1478640554299	o	79
485243	5225322	Would you have John send me a message?	Would you have John send me a message?	248040871	1478640554260	1478640554364	u	85
485243	5225322	Would you have John send me a message?	Would you have John send me a message?	248040875	1478640554412	1478640554564	l	76
485243	5225322	Would you have John send me a message?	Would you have John send me a message?	248040886	1478640554469	1478640554580	d	68
485243	5225322	Would you have John send me a message?	Would you have John send me a message?	248040891	1478640554548	1478640554676	 	32
485243	5225322	Would you have John send me a message?	Would you have John send me a message?	248040896	1478640554628	1478640554788	y	89
485243	5225322	Would you have John send me a message?	Would you have John send me a message?	248040902	1478640554693	1478640554835	o	79
485243	5225322	Would you have John send me a message?	Would you have John send me a message?	248040908	1478640554788	1478640554847	u	85
485243	5225322	Would you have John send me a message?	Would you have John send me a message?	248040913	1478640554820	1478640554972	 	32
485243	5225322	Would you have John send me a message?	Would you have John send me a message?	248040939	1478640554956	1478640555108	h	72
485243	5225322	Would you have John send me a message?	Would you have John send me a message?	248040945	1478640555028	1478640555189	a	65
485243	5225322	Would you have John send me a message?	Would you have John send me a message?	248040950	1478640555132	1478640555299	v	86
485243	5225322	Would you have John send me a message?	Would you have John send me a message?	248040955	1478640555228	1478640555339	e	69
485243	5225322	Would you have John send me a message?	Would you have John send me a message?	248040961	1478640555284	1478640555420	 	32
485243	5225322	Would you have John send me a message?	Would you have John send me a message?	248040964	1478640555484	1478640555652	SHIFT	16
485243	5225322	Would you have John send me a message?	Would you have John send me a message?	248040982	1478640555556	1478640555668	J	74
485243	5225322	Would you have John send me a message?	Would you have John send me a message?	248040986	1478640555741	1478640555851	o	79
485243	5225322	Would you have John send me a message?	Would you have John send me a message?	248040990	1478640555846	1478640555948	h	72
485243	5225322	Would you have John send me a message?	Would you have John send me a message?	248040993	1478640555964	1478640556077	 	78
485243	5225322	Would you have John send me a message?	Would you have John send me a message?	248040996	1478640556116	1478640556235	s	83
485243	5225322	Would you have John send me a message?	Would you have John send me a message?	248041015	1478640556180	1478640556268	e	69
485243	5225322	Would you have John send me a message?	Would you have John send me a message?	248041018	1478640556292	1478640556404	n	78
485243	5225322	Would you have John send me a message?	Would you have John send me a message?	248041023	1478640556388	1478640556524	d	68
485243	5225322	Would you have John send me a message?	Would you have John send me a message?	248041027	1478640556492	1478640556636	 	32
485243	5225322	Would you have John send me a message?	Would you have John send me a message?	248041033	1478640556708	1478640556820	m	77
485243	5225322	Would you have John send me a message?	Would you have John send me a message?	248041049	1478640556772	1478640556875	e	69
485243	5225322	Would you have John send me a message?	Would you have John send me a message?	248041051	1478640556846	1478640556931	 	32
485243	5225322	Would you have John send me a message?	Would you have John send me a message?	248041055	1478640556908	1478640557045	a	65
485243	5225322	Would you have John send me a message?	Would you have John send me a message?	248041058	1478640557020	1478640557140	 	32
485243	5225322	Would you have John send me a message?	Would you have John send me a message?	248041060	1478640557108	1478640557235	m	77
485243	5225322	Would you have John send me a message?	Would you have John send me a message?	248041078	1478640557204	1478640557268	e	69
485243	5225322	Would you have John send me a message?	Would you have John send me a message?	248041080	1478640557364	1478640557444	s	83
485243	5225322	Would you have John send me a message?	Would you have John send me a message?	248041081	1478640557508	1478640557597	s	83
485243	5225322	Would you have John send me a message?	Would you have John send me a message?	248041082	1478640557580	1478640557747	a	65
485243	5225322	Would you have John send me a message?	Would you have John send me a message?	248041083	1478640557677	1478640557819	g	71
485243	5225322	Would you have John send me a message?	Would you have John send me a message?	248041084	1478640557755	1478640557851	e	69
485243	5225322	Would you have John send me a message?	Would you have John send me a message?	248041085	1478640557787	1478640557876	SHIFT	16
485243	5225322	Would you have John send me a message?	Would you have John send me a message?	248041087	1478640557813	1478640557907	?	191
485243	5225328	I am hoping to complete them today or tomorrow morning.	I am hoping to complete them today or tomorrow morning.	248041173	1478640559269	1478640559636	SHIFT	16
485243	5225328	I am hoping to complete them today or tomorrow morning.	I am hoping to complete them today or tomorrow morning.	248041176	1478640559516	1478640559668	I	73
485243	5225328	I am hoping to complete them today or tomorrow morning.	I am hoping to complete them today or tomorrow morning.	248041178	1478640559604	1478640559731	 	32
485243	5225328	I am hoping to complete them today or tomorrow morning.	I am hoping to complete them today or tomorrow morning.	248041181	1478640559724	1478640559845	a	65
485243	5225328	I am hoping to complete them today or tomorrow morning.	I am hoping to complete them today or tomorrow morning.	248041184	1478640559820	1478640559915	m	77
485243	5225328	I am hoping to complete them today or tomorrow morning.	I am hoping to complete them today or tomorrow morning.	248041202	1478640559877	1478640559996	 	32
485243	5225328	I am hoping to complete them today or tomorrow morning.	I am hoping to complete them today or tomorrow morning.	248041203	1478640560020	1478640560102	h	72
485243	5225328	I am hoping to complete them today or tomorrow morning.	I am hoping to complete them today or tomorrow morning.	248041205	1478640560102	1478640560181	o	79
485243	5225328	I am hoping to complete them today or tomorrow morning.	I am hoping to complete them today or tomorrow morning.	248041207	1478640560276	1478640560371	p	80
485243	5225328	I am hoping to complete them today or tomorrow morning.	I am hoping to complete them today or tomorrow morning.	248041208	1478640560348	1478640560428	i	73
485243	5225328	I am hoping to complete them today or tomorrow morning.	I am hoping to complete them today or tomorrow morning.	248041211	1478640560524	1478640560659	n	78
485243	5225328	I am hoping to complete them today or tomorrow morning.	I am hoping to complete them today or tomorrow morning.	248041223	1478640560588	1478640560667	g	71
485243	5225328	I am hoping to complete them today or tomorrow morning.	I am hoping to complete them today or tomorrow morning.	248041225	1478640560628	1478640560756	 	32
485243	5225328	I am hoping to complete them today or tomorrow morning.	I am hoping to complete them today or tomorrow morning.	248041227	1478640560749	1478640560884	t	84
485243	5225328	I am hoping to complete them today or tomorrow morning.	I am hoping to complete them today or tomorrow morning.	248041230	1478640560820	1478640560932	o	79
485243	5225328	I am hoping to complete them today or tomorrow morning.	I am hoping to complete them today or tomorrow morning.	248041233	1478640560868	1478640560988	 	32
485243	5225328	I am hoping to complete them today or tomorrow morning.	I am hoping to complete them today or tomorrow morning.	248041238	1478640561036	1478640561140	c	67
485243	5225328	I am hoping to complete them today or tomorrow morning.	I am hoping to complete them today or tomorrow morning.	248041250	1478640561076	1478640561179	o	79
485243	5225328	I am hoping to complete them today or tomorrow morning.	I am hoping to complete them today or tomorrow morning.	248041253	1478640561158	1478640561236	m	77
485243	5225328	I am hoping to complete them today or tomorrow morning.	I am hoping to complete them today or tomorrow morning.	248041259	1478640561308	1478640561372	p	80
485243	5225328	I am hoping to complete them today or tomorrow morning.	I am hoping to complete them today or tomorrow morning.	248041266	1478640561460	1478640561572	l	76
485243	5225328	I am hoping to complete them today or tomorrow morning.	I am hoping to complete them today or tomorrow morning.	248041302	1478640561501	1478640561604	e	69
485243	5225328	I am hoping to complete them today or tomorrow morning.	I am hoping to complete them today or tomorrow morning.	248041306	1478640561564	1478640561700	t	84
485243	5225328	I am hoping to complete them today or tomorrow morning.	I am hoping to complete them today or tomorrow morning.	248041309	1478640561668	1478640561780	e	69
485243	5225328	I am hoping to complete them today or tomorrow morning.	I am hoping to complete them today or tomorrow morning.	248041312	1478640561724	1478640561867	 	32
485243	5225328	I am hoping to complete them today or tomorrow morning.	I am hoping to complete them today or tomorrow morning.	248041315	1478640561820	1478640561964	t	84
485243	5225328	I am hoping to complete them today or tomorrow morning.	I am hoping to complete them today or tomorrow morning.	248041320	1478640561891	1478640561989	h	72
485243	5225328	I am hoping to complete them today or tomorrow morning.	I am hoping to complete them today or tomorrow morning.	248041326	1478640561989	1478640562123	e	69
485243	5225328	I am hoping to complete them today or tomorrow morning.	I am hoping to complete them today or tomorrow morning.	248041334	1478640562084	1478640562195	m	77
485243	5225328	I am hoping to complete them today or tomorrow morning.	I am hoping to complete them today or tomorrow morning.	248041336	1478640562117	1478640562259	 	32
485243	5225328	I am hoping to complete them today or tomorrow morning.	I am hoping to complete them today or tomorrow morning.	248041337	1478640562220	1478640562380	t	84
485243	5225328	I am hoping to complete them today or tomorrow morning.	I am hoping to complete them today or tomorrow morning.	248041340	1478640562292	1478640562419	o	79
485243	5225328	I am hoping to complete them today or tomorrow morning.	I am hoping to complete them today or tomorrow morning.	248041343	1478640562357	1478640562501	d	68
485243	5225328	I am hoping to complete them today or tomorrow morning.	I am hoping to complete them today or tomorrow morning.	248041346	1478640562460	1478640562611	a	65
485243	5225328	I am hoping to complete them today or tomorrow morning.	I am hoping to complete them today or tomorrow morning.	248041351	1478640562549	1478640562668	y	89
485243	5225328	I am hoping to complete them today or tomorrow morning.	I am hoping to complete them today or tomorrow morning.	248041352	1478640562620	1478640562740	 	32
485243	5225328	I am hoping to complete them today or tomorrow morning.	I am hoping to complete them today or tomorrow morning.	248041353	1478640562732	1478640562860	o	79
485243	5225328	I am hoping to complete them today or tomorrow morning.	I am hoping to complete them today or tomorrow morning.	248041354	1478640562788	1478640562899	r	82
485243	5225328	I am hoping to complete them today or tomorrow morning.	I am hoping to complete them today or tomorrow morning.	248041355	1478640562845	1478640562971	 	32
485243	5225328	I am hoping to complete them today or tomorrow morning.	I am hoping to complete them today or tomorrow morning.	248041356	1478640562988	1478640563092	t	84
485243	5225328	I am hoping to complete them today or tomorrow morning.	I am hoping to complete them today or tomorrow morning.	248041371	1478640563084	1478640563117	o	79
485243	5225328	I am hoping to complete them today or tomorrow morning.	I am hoping to complete them today or tomorrow morning.	248041375	1478640563108	1478640563227	m	77
485243	5225328	I am hoping to complete them today or tomorrow morning.	I am hoping to complete them today or tomorrow morning.	248041379	1478640563196	1478640563308	o	79
485243	5225328	I am hoping to complete them today or tomorrow morning.	I am hoping to complete them today or tomorrow morning.	248041384	1478640563284	1478640563356	r	82
485243	5225328	I am hoping to complete them today or tomorrow morning.	I am hoping to complete them today or tomorrow morning.	248041386	1478640563428	1478640563539	r	82
485243	5225328	I am hoping to complete them today or tomorrow morning.	I am hoping to complete them today or tomorrow morning.	248041394	1478640563501	1478640563636	o	79
485243	5225328	I am hoping to complete them today or tomorrow morning.	I am hoping to complete them today or tomorrow morning.	248041396	1478640563564	1478640563707	w	87
485243	5225328	I am hoping to complete them today or tomorrow morning.	I am hoping to complete them today or tomorrow morning.	248041398	1478640563628	1478640563788	 	32
485243	5225328	I am hoping to complete them today or tomorrow morning.	I am hoping to complete them today or tomorrow morning.	248041401	1478640563724	1478640563828	m	77
485243	5225328	I am hoping to complete them today or tomorrow morning.	I am hoping to complete them today or tomorrow morning.	248041404	1478640563773	1478640563900	o	79
485243	5225328	I am hoping to complete them today or tomorrow morning.	I am hoping to complete them today or tomorrow morning.	248041416	1478640563885	1478640563987	r	82
485243	5225328	I am hoping to complete them today or tomorrow morning.	I am hoping to complete them today or tomorrow morning.	248041418	1478640563956	1478640564053	n	78
485243	5225328	I am hoping to complete them today or tomorrow morning.	I am hoping to complete them today or tomorrow morning.	248041421	1478640564022	1478640564156	i	73
485243	5225328	I am hoping to complete them today or tomorrow morning.	I am hoping to complete them today or tomorrow morning.	248041423	1478640564133	1478640564254	n	78
485243	5225328	I am hoping to complete them today or tomorrow morning.	I am hoping to complete them today or tomorrow morning.	248041425	1478640564222	1478640564308	g	71
485243	5225335	I'll call you in the morning.	I'll call you in the morning.	248041524	1478640565860	1478640566244	SHIFT	16
485243	5225335	I'll call you in the morning.	I'll call you in the morning.	248041519	1478640566100	1478640566212	I	73
485243	5225335	I'll call you in the morning.	I'll call you in the morning.	248041529	1478640566316	1478640566396	'	222
485243	5225335	I'll call you in the morning.	I'll call you in the morning.	248041533	1478640566476	1478640566555	l	76
485243	5225335	I'll call you in the morning.	I'll call you in the morning.	248041536	1478640566620	1478640566747	l	76
485243	5225335	I'll call you in the morning.	I'll call you in the morning.	248041543	1478640566652	1478640566779	 	32
485243	5225335	I'll call you in the morning.	I'll call you in the morning.	248041545	1478640566740	1478640566860	c	67
485243	5225335	I'll call you in the morning.	I'll call you in the morning.	248041549	1478640566788	1478640566915	a	65
485243	5225335	I'll call you in the morning.	I'll call you in the morning.	248041554	1478640566868	1478640566939	l	76
485243	5225335	I'll call you in the morning.	I'll call you in the morning.	248041560	1478640567004	1478640567115	l	76
485243	5225335	I'll call you in the morning.	I'll call you in the morning.	248041564	1478640567085	1478640567243	 	32
485243	5225335	I'll call you in the morning.	I'll call you in the morning.	248041569	1478640567188	1478640567300	y	89
485243	5225335	I'll call you in the morning.	I'll call you in the morning.	248041570	1478640567211	1478640567388	o	79
485243	5225335	I'll call you in the morning.	I'll call you in the morning.	248041572	1478640567302	1478640567421	u	85
485243	5225335	I'll call you in the morning.	I'll call you in the morning.	248041575	1478640567421	1478640567540	 	32
485243	5225335	I'll call you in the morning.	I'll call you in the morning.	248041580	1478640567516	1478640567652	i	73
485243	5225335	I'll call you in the morning.	I'll call you in the morning.	248041586	1478640567613	1478640567700	n	78
485243	5225335	I'll call you in the morning.	I'll call you in the morning.	248041596	1478640567660	1478640567789	 	32
485243	5225335	I'll call you in the morning.	I'll call you in the morning.	248041601	1478640567747	1478640567884	t	84
485243	5225335	I'll call you in the morning.	I'll call you in the morning.	248041608	1478640567789	1478640567899	h	72
485243	5225335	I'll call you in the morning.	I'll call you in the morning.	248041614	1478640567846	1478640567964	e	69
485243	5225335	I'll call you in the morning.	I'll call you in the morning.	248041617	1478640567916	1478640568028	 	32
485243	5225335	I'll call you in the morning.	I'll call you in the morning.	248041620	1478640568005	1478640568084	m	77
485243	5225335	I'll call you in the morning.	I'll call you in the morning.	248041621	1478640568044	1478640568158	o	79
485243	5225335	I'll call you in the morning.	I'll call you in the morning.	248041622	1478640568132	1478640568235	r	82
485243	5225335	I'll call you in the morning.	I'll call you in the morning.	248041623	1478640568205	1478640568292	n	78
485243	5225335	I'll call you in the morning.	I'll call you in the morning.	248041624	1478640568260	1478640568388	i	73
485243	5225335	I'll call you in the morning.	I'll call you in the morning.	248041630	1478640568373	1478640568491	n	78
485243	5225335	I'll call you in the morning.	I'll call you in the morning.	248041636	1478640568476	1478640568540	g	71
