PARTICIPANT_ID	TEST_SECTION_ID	SENTENCE	USER_INPUT	KEYSTROKE_ID	PRESS_TIME	RELEASE_TIME	LETTER	KEYCODE
490801	5281735	Call me anytime for information.	Call me anytime for information.	250715043	1478713472109	1478713472329	SHIFT	16
490801	5281735	Call me anytime for information.	Call me anytime for information.	250715045	1478713472281	1478713472345	C	67
490801	5281735	Call me anytime for information.	Call me anytime for information.	250715049	1478713472457	1478713472505	l	65
490801	5281735	Call me anytime for information.	Call me anytime for information.	250715054	1478713472601	1478713472665	l	76
490801	5281735	Call me anytime for information.	Call me anytime for information.	250715057	1478713472713	1478713472777	 	32
490801	5281735	Call me anytime for information.	Call me anytime for information.	250715060	1478713472873	1478713472937	m	77
490801	5281735	Call me anytime for information.	Call me anytime for information.	250715064	1478713472937	1478713472985	e	69
490801	5281735	Call me anytime for information.	Call me anytime for information.	250715071	1478713473033	1478713473081	 	32
490801	5281735	Call me anytime for information.	Call me anytime for information.	250715080	1478713473097	1478713473177	a	65
490801	5281735	Call me anytime for information.	Call me anytime for information.	250715092	1478713473177	1478713473241	n	78
490801	5281735	Call me anytime for information.	Call me anytime for information.	250715118	1478713473305	1478713473385	y	89
490801	5281735	Call me anytime for information.	Call me anytime for information.	250715123	1478713473417	1478713473513	t	84
490801	5281735	Call me anytime for information.	Call me anytime for information.	250715131	1478713473545	1478713473625	i	73
490801	5281735	Call me anytime for information.	Call me anytime for information.	250715138	1478713473657	1478713473721	m	77
490801	5281735	Call me anytime for information.	Call me anytime for information.	250715151	1478713473705	1478713473785	e	69
490801	5281735	Call me anytime for information.	Call me anytime for information.	250715156	1478713473817	1478713473881	 	32
490801	5281735	Call me anytime for information.	Call me anytime for information.	250715161	1478713473897	1478713473961	f	70
490801	5281735	Call me anytime for information.	Call me anytime for information.	250715168	1478713473977	1478713474041	o	79
490801	5281735	Call me anytime for information.	Call me anytime for information.	250715175	1478713474041	1478713474105	r	82
490801	5281735	Call me anytime for information.	Call me anytime for information.	250715181	1478713474105	1478713474153	 	32
490801	5281735	Call me anytime for information.	Call me anytime for information.	250715192	1478713474233	1478713474297	i	73
490801	5281735	Call me anytime for information.	Call me anytime for information.	250715199	1478713474313	1478713474376	n	78
490801	5281735	Call me anytime for information.	Call me anytime for information.	250715206	1478713474361	1478713474425	f	70
490801	5281735	Call me anytime for information.	Call me anytime for information.	250715208	1478713474473	1478713474521	o	79
490801	5281735	Call me anytime for information.	Call me anytime for information.	250715216	1478713474521	1478713474585	r	82
490801	5281735	Call me anytime for information.	Call me anytime for information.	250715247	1478713474601	1478713474665	m	77
490801	5281735	Call me anytime for information.	Call me anytime for information.	250715250	1478713474713	1478713474777	a	65
490801	5281735	Call me anytime for information.	Call me anytime for information.	250715253	1478713474905	1478713474969	t	84
490801	5281735	Call me anytime for information.	Call me anytime for information.	250715258	1478713474953	1478713475000	i	73
490801	5281735	Call me anytime for information.	Call me anytime for information.	250715265	1478713475081	1478713475161	o	79
490801	5281735	Call me anytime for information.	Call me anytime for information.	250715290	1478713475163	1478713475209	n	78
490801	5281735	Call me anytime for information.	Call me anytime for information.	250715296	1478713475417	1478713475465	.	190
490801	5281748	Did you tell Steve?	Did you tell Steve?	250715526	1478713477624	1478713478104	SHIFT	16
490801	5281748	Did you tell Steve?	Did you tell Steve?	250715531	1478713478056	1478713478120	D	68
490801	5281748	Did you tell Steve?	Did you tell Steve?	250715539	1478713478168	1478713478232	i	73
490801	5281748	Did you tell Steve?	Did you tell Steve?	250715546	1478713478233	1478713478296	d	68
490801	5281748	Did you tell Steve?	Did you tell Steve?	250715557	1478713478312	1478713478392	 	32
490801	5281748	Did you tell Steve?	Did you tell Steve?	250715565	1478713478472	1478713478536	y	89
490801	5281748	Did you tell Steve?	Did you tell Steve?	250715597	1478713478552	1478713478616	o	79
490801	5281748	Did you tell Steve?	Did you tell Steve?	250715599	1478713478728	1478713478792	u	85
490801	5281748	Did you tell Steve?	Did you tell Steve?	250715603	1478713478856	1478713478936	 	32
490801	5281748	Did you tell Steve?	Did you tell Steve?	250715606	1478713478920	1478713478968	t	84
490801	5281748	Did you tell Steve?	Did you tell Steve?	250715608	1478713479080	1478713479144	e	69
490801	5281748	Did you tell Steve?	Did you tell Steve?	250715621	1478713479146	1478713479208	l	76
490801	5281748	Did you tell Steve?	Did you tell Steve?	250715625	1478713479272	1478713479352	l	76
490801	5281748	Did you tell Steve?	Did you tell Steve?	250715628	1478713479400	1478713479464	 	32
490801	5281748	Did you tell Steve?	Did you tell Steve?	250715633	1478713479448	1478713479576	SHIFT	16
490801	5281748	Did you tell Steve?	Did you tell Steve?	250715639	1478713479528	1478713479608	S	83
490801	5281748	Did you tell Steve?	Did you tell Steve?	250715643	1478713479609	1478713479672	t	84
490801	5281748	Did you tell Steve?	Did you tell Steve?	250715678	1478713479705	1478713479768	e	69
490801	5281748	Did you tell Steve?	Did you tell Steve?	250715679	1478713479752	1478713479816	v	86
490801	5281748	Did you tell Steve?	Did you tell Steve?	250715683	1478713479864	1478713479896	e	69
490801	5281748	Did you tell Steve?	Did you tell Steve?	250715692	1478713479960	1478713480168	SHIFT	16
490801	5281748	Did you tell Steve?	Did you tell Steve?	250715688	1478713480056	1478713480120	?	191
490801	5281756	This time I'm more comfortable and aware of a lot more situations.	This time I'm more comfortable and aware of a lot more situations.	250715840	1478713482089	1478713482280	SHIFT	16
490801	5281756	This time I'm more comfortable and aware of a lot more situations.	This time I'm more comfortable and aware of a lot more situations.	250715843	1478713482233	1478713482312	T	84
490801	5281756	This time I'm more comfortable and aware of a lot more situations.	This time I'm more comfortable and aware of a lot more situations.	250715847	1478713482392	1478713482456	h	72
490801	5281756	This time I'm more comfortable and aware of a lot more situations.	This time I'm more comfortable and aware of a lot more situations.	250715850	1478713482488	1478713482552	i	73
490801	5281756	This time I'm more comfortable and aware of a lot more situations.	This time I'm more comfortable and aware of a lot more situations.	250715853	1478713482600	1478713482680	s	83
490801	5281756	This time I'm more comfortable and aware of a lot more situations.	This time I'm more comfortable and aware of a lot more situations.	250715857	1478713482696	1478713482760	 	32
490801	5281756	This time I'm more comfortable and aware of a lot more situations.	This time I'm more comfortable and aware of a lot more situations.	250715873	1478713482792	1478713482872	t	84
490801	5281756	This time I'm more comfortable and aware of a lot more situations.	This time I'm more comfortable and aware of a lot more situations.	250715876	1478713482873	1478713482936	i	73
490801	5281756	This time I'm more comfortable and aware of a lot more situations.	This time I'm more comfortable and aware of a lot more situations.	250715880	1478713482952	1478713483016	m	77
490801	5281756	This time I'm more comfortable and aware of a lot more situations.	This time I'm more comfortable and aware of a lot more situations.	250715884	1478713483032	1478713483096	e	69
490801	5281756	This time I'm more comfortable and aware of a lot more situations.	This time I'm more comfortable and aware of a lot more situations.	250715887	1478713483112	1478713483176	 	32
490801	5281756	This time I'm more comfortable and aware of a lot more situations.	This time I'm more comfortable and aware of a lot more situations.	250715933	1478713483192	1478713483320	SHIFT	16
490801	5281756	This time I'm more comfortable and aware of a lot more situations.	This time I'm more comfortable and aware of a lot more situations.	250715936	1478713483256	1478713483320	I	73
490801	5281756	This time I'm more comfortable and aware of a lot more situations.	This time I'm more comfortable and aware of a lot more situations.	250715944	1478713483464	1478713483528	'	222
490801	5281756	This time I'm more comfortable and aware of a lot more situations.	This time I'm more comfortable and aware of a lot more situations.	250715947	1478713483640	1478713483704	m	77
490801	5281756	This time I'm more comfortable and aware of a lot more situations.	This time I'm more comfortable and aware of a lot more situations.	250715953	1478713483784	1478713483848	 	32
490801	5281756	This time I'm more comfortable and aware of a lot more situations.	This time I'm more comfortable and aware of a lot more situations.	250715961	1478713483928	1478713483992	m	77
490801	5281756	This time I'm more comfortable and aware of a lot more situations.	This time I'm more comfortable and aware of a lot more situations.	250715976	1478713484040	1478713484104	o	79
490801	5281756	This time I'm more comfortable and aware of a lot more situations.	This time I'm more comfortable and aware of a lot more situations.	250715979	1478713484104	1478713484152	r	82
490801	5281756	This time I'm more comfortable and aware of a lot more situations.	This time I'm more comfortable and aware of a lot more situations.	250715987	1478713484248	1478713484312	e	69
490801	5281756	This time I'm more comfortable and aware of a lot more situations.	This time I'm more comfortable and aware of a lot more situations.	250715993	1478713484360	1478713484440	 	32
490801	5281756	This time I'm more comfortable and aware of a lot more situations.	This time I'm more comfortable and aware of a lot more situations.	250715998	1478713484440	1478713484536	c	67
490801	5281756	This time I'm more comfortable and aware of a lot more situations.	This time I'm more comfortable and aware of a lot more situations.	250716020	1478713484553	1478713484616	o	79
490801	5281756	This time I'm more comfortable and aware of a lot more situations.	This time I'm more comfortable and aware of a lot more situations.	250716022	1478713484664	1478713484712	m	77
490801	5281756	This time I'm more comfortable and aware of a lot more situations.	This time I'm more comfortable and aware of a lot more situations.	250716025	1478713484728	1478713484808	f	70
490801	5281756	This time I'm more comfortable and aware of a lot more situations.	This time I'm more comfortable and aware of a lot more situations.	250716031	1478713485080	1478713485144	o	79
490801	5281756	This time I'm more comfortable and aware of a lot more situations.	This time I'm more comfortable and aware of a lot more situations.	250716036	1478713485208	1478713485272	r	82
490801	5281756	This time I'm more comfortable and aware of a lot more situations.	This time I'm more comfortable and aware of a lot more situations.	250716059	1478713485368	1478713485417	t	84
490801	5281756	This time I'm more comfortable and aware of a lot more situations.	This time I'm more comfortable and aware of a lot more situations.	250716065	1478713485545	1478713485625	a	65
490801	5281756	This time I'm more comfortable and aware of a lot more situations.	This time I'm more comfortable and aware of a lot more situations.	250716072	1478713485626	1478713485674	b	66
490801	5281756	This time I'm more comfortable and aware of a lot more situations.	This time I'm more comfortable and aware of a lot more situations.	250716078	1478713485785	1478713485849	l	76
490801	5281756	This time I'm more comfortable and aware of a lot more situations.	This time I'm more comfortable and aware of a lot more situations.	250716097	1478713485833	1478713485897	e	69
490801	5281756	This time I'm more comfortable and aware of a lot more situations.	This time I'm more comfortable and aware of a lot more situations.	250716100	1478713485913	1478713485977	 	32
490801	5281756	This time I'm more comfortable and aware of a lot more situations.	This time I'm more comfortable and aware of a lot more situations.	250716103	1478713486025	1478713486105	a	65
490801	5281756	This time I'm more comfortable and aware of a lot more situations.	This time I'm more comfortable and aware of a lot more situations.	250716106	1478713486106	1478713486169	n	78
490801	5281756	This time I'm more comfortable and aware of a lot more situations.	This time I'm more comfortable and aware of a lot more situations.	250716109	1478713486201	1478713486265	d	68
490801	5281756	This time I'm more comfortable and aware of a lot more situations.	This time I'm more comfortable and aware of a lot more situations.	250716113	1478713486265	1478713486313	 	32
490801	5281756	This time I'm more comfortable and aware of a lot more situations.	This time I'm more comfortable and aware of a lot more situations.	250716167	1478713486362	1478713486473	a	65
490801	5281756	This time I'm more comfortable and aware of a lot more situations.	This time I'm more comfortable and aware of a lot more situations.	250716173	1478713486585	1478713486649	w	87
490801	5281756	This time I'm more comfortable and aware of a lot more situations.	This time I'm more comfortable and aware of a lot more situations.	250716180	1478713486729	1478713486793	a	65
490801	5281756	This time I'm more comfortable and aware of a lot more situations.	This time I'm more comfortable and aware of a lot more situations.	250716186	1478713486889	1478713486953	r	82
490801	5281756	This time I'm more comfortable and aware of a lot more situations.	This time I'm more comfortable and aware of a lot more situations.	250716192	1478713487017	1478713487081	e	69
490801	5281756	This time I'm more comfortable and aware of a lot more situations.	This time I'm more comfortable and aware of a lot more situations.	250716220	1478713487065	1478713487113	 	32
490801	5281756	This time I'm more comfortable and aware of a lot more situations.	This time I'm more comfortable and aware of a lot more situations.	250716225	1478713487193	1478713487257	o	79
490801	5281756	This time I'm more comfortable and aware of a lot more situations.	This time I'm more comfortable and aware of a lot more situations.	250716233	1478713487241	1478713487351	f	70
490801	5281756	This time I'm more comfortable and aware of a lot more situations.	This time I'm more comfortable and aware of a lot more situations.	250716240	1478713487408	1478713487411	 	32
490801	5281756	This time I'm more comfortable and aware of a lot more situations.	This time I'm more comfortable and aware of a lot more situations.	250716247	1478713487569	1478713487584	 	32
490801	5281756	This time I'm more comfortable and aware of a lot more situations.	This time I'm more comfortable and aware of a lot more situations.	250716250	1478713487641	1478713487705	l	76
490801	5281756	This time I'm more comfortable and aware of a lot more situations.	This time I'm more comfortable and aware of a lot more situations.	250716260	1478713487769	1478713487833	o	79
490801	5281756	This time I'm more comfortable and aware of a lot more situations.	This time I'm more comfortable and aware of a lot more situations.	250716262	1478713487865	1478713487929	t	84
490801	5281756	This time I'm more comfortable and aware of a lot more situations.	This time I'm more comfortable and aware of a lot more situations.	250716264	1478713487929	1478713487993	 	32
490801	5281756	This time I'm more comfortable and aware of a lot more situations.	This time I'm more comfortable and aware of a lot more situations.	250716267	1478713488073	1478713488137	m	77
490801	5281756	This time I'm more comfortable and aware of a lot more situations.	This time I'm more comfortable and aware of a lot more situations.	250716273	1478713488169	1478713488217	o	79
490801	5281756	This time I'm more comfortable and aware of a lot more situations.	This time I'm more comfortable and aware of a lot more situations.	250716360	1478713488201	1478713488292	r	82
490801	5281756	This time I'm more comfortable and aware of a lot more situations.	This time I'm more comfortable and aware of a lot more situations.	250716365	1478713488361	1478713488409	e	69
490801	5281756	This time I'm more comfortable and aware of a lot more situations.	This time I'm more comfortable and aware of a lot more situations.	250716373	1478713488505	1478713488569	 	83
490801	5281756	This time I'm more comfortable and aware of a lot more situations.	This time I'm more comfortable and aware of a lot more situations.	250716381	1478713489001	1478713489069	BKSP	8
490801	5281756	This time I'm more comfortable and aware of a lot more situations.	This time I'm more comfortable and aware of a lot more situations.	250716387	1478713489129	1478713489209	BKSP	8
490801	5281756	This time I'm more comfortable and aware of a lot more situations.	This time I'm more comfortable and aware of a lot more situations.	250716392	1478713489305	1478713489385	 	32
490801	5281756	This time I'm more comfortable and aware of a lot more situations.	This time I'm more comfortable and aware of a lot more situations.	250716396	1478713489401	1478713489497	s	83
490801	5281756	This time I'm more comfortable and aware of a lot more situations.	This time I'm more comfortable and aware of a lot more situations.	250716419	1478713489513	1478713489577	i	73
490801	5281756	This time I'm more comfortable and aware of a lot more situations.	This time I'm more comfortable and aware of a lot more situations.	250716424	1478713489609	1478713489705	t	84
490801	5281756	This time I'm more comfortable and aware of a lot more situations.	This time I'm more comfortable and aware of a lot more situations.	250716428	1478713489753	1478713489817	u	85
490801	5281756	This time I'm more comfortable and aware of a lot more situations.	This time I'm more comfortable and aware of a lot more situations.	250716432	1478713489865	1478713489929	a	65
490801	5281756	This time I'm more comfortable and aware of a lot more situations.	This time I'm more comfortable and aware of a lot more situations.	250716435	1478713490041	1478713490105	t	84
490801	5281756	This time I'm more comfortable and aware of a lot more situations.	This time I'm more comfortable and aware of a lot more situations.	250716454	1478713490089	1478713490153	i	73
490801	5281756	This time I'm more comfortable and aware of a lot more situations.	This time I'm more comfortable and aware of a lot more situations.	250716461	1478713490233	1478713490281	o	79
490801	5281756	This time I'm more comfortable and aware of a lot more situations.	This time I'm more comfortable and aware of a lot more situations.	250716468	1478713490313	1478713490361	n	78
490801	5281756	This time I'm more comfortable and aware of a lot more situations.	This time I'm more comfortable and aware of a lot more situations.	250716473	1478713490361	1478713490425	s	83
490801	5281756	This time I'm more comfortable and aware of a lot more situations.	This time I'm more comfortable and aware of a lot more situations.	250716476	1478713490505	1478713490569	.	190
490801	5281771	Will call later to explain.	Will call later to explain.	250716639	1478713492441	1478713492632	SHIFT	16
490801	5281771	Will call later to explain.	Will call later to explain.	250716643	1478713492585	1478713492681	W	87
490801	5281771	Will call later to explain.	Will call later to explain.	250716649	1478713492681	1478713492745	i	73
490801	5281771	Will call later to explain.	Will call later to explain.	250716656	1478713492841	1478713492904	l	76
490801	5281771	Will call later to explain.	Will call later to explain.	250716662	1478713492985	1478713493033	l	76
490801	5281771	Will call later to explain.	Will call later to explain.	250716669	1478713493081	1478713493161	 	32
490801	5281771	Will call later to explain.	Will call later to explain.	250716682	1478713493162	1478713493208	c	67
490801	5281771	Will call later to explain.	Will call later to explain.	250716689	1478713493305	1478713493384	a	65
490801	5281771	Will call later to explain.	Will call later to explain.	250716691	1478713493353	1478713493416	l	76
490801	5281771	Will call later to explain.	Will call later to explain.	250716700	1478713493513	1478713493561	l	76
490801	5281771	Will call later to explain.	Will call later to explain.	250716705	1478713493592	1478713493657	 	32
490801	5281771	Will call later to explain.	Will call later to explain.	250716739	1478713493737	1478713493816	l	76
490801	5281771	Will call later to explain.	Will call later to explain.	250716745	1478713493833	1478713493928	a	65
490801	5281771	Will call later to explain.	Will call later to explain.	250716750	1478713493993	1478713494057	t	84
490801	5281771	Will call later to explain.	Will call later to explain.	250716757	1478713494058	1478713494121	e	69
490801	5281771	Will call later to explain.	Will call later to explain.	250716765	1478713494200	1478713494249	r	82
490801	5281771	Will call later to explain.	Will call later to explain.	250716779	1478713494251	1478713494312	 	32
490801	5281771	Will call later to explain.	Will call later to explain.	250716783	1478713494376	1478713494424	t	84
490801	5281771	Will call later to explain.	Will call later to explain.	250716790	1478713494425	1478713494472	o	79
490801	5281771	Will call later to explain.	Will call later to explain.	250716797	1478713494520	1478713494584	 	32
490801	5281771	Will call later to explain.	Will call later to explain.	250716805	1478713494600	1478713494649	e	69
490801	5281771	Will call later to explain.	Will call later to explain.	250716826	1478713494744	1478713494808	x	88
490801	5281771	Will call later to explain.	Will call later to explain.	250716833	1478713494792	1478713494856	p	80
490801	5281771	Will call later to explain.	Will call later to explain.	250716840	1478713494936	1478713495001	l	76
490801	5281771	Will call later to explain.	Will call later to explain.	250716846	1478713495048	1478713495112	a	65
490801	5281771	Will call later to explain.	Will call later to explain.	250716854	1478713495113	1478713495176	i	73
490801	5281771	Will call later to explain.	Will call later to explain.	250716868	1478713495178	1478713495224	n	78
490801	5281771	Will call later to explain.	Will call later to explain.	250716871	1478713495384	1478713495448	.	190
490801	5281782	I hope this answers your question.	I hope this answers your question.	250717013	1478713497067	1478713497240	SHIFT	16
490801	5281782	I hope this answers your question.	I hope this answers your question.	250717016	1478713497192	1478713497256	I	73
490801	5281782	I hope this answers your question.	I hope this answers your question.	250717021	1478713497336	1478713497400	 	32
490801	5281782	I hope this answers your question.	I hope this answers your question.	250717024	1478713497432	1478713497512	h	72
490801	5281782	I hope this answers your question.	I hope this answers your question.	250717032	1478713497513	1478713497576	o	79
490801	5281782	I hope this answers your question.	I hope this answers your question.	250717037	1478713497672	1478713497736	p	80
490801	5281782	I hope this answers your question.	I hope this answers your question.	250717059	1478713497738	1478713497800	e	69
490801	5281782	I hope this answers your question.	I hope this answers your question.	250717063	1478713497816	1478713497880	 	32
490801	5281782	I hope this answers your question.	I hope this answers your question.	250717069	1478713497944	1478713497992	t	84
490801	5281782	I hope this answers your question.	I hope this answers your question.	250717074	1478713498088	1478713498153	h	72
490801	5281782	I hope this answers your question.	I hope this answers your question.	250717079	1478713498154	1478713498216	i	73
490801	5281782	I hope this answers your question.	I hope this answers your question.	250717130	1478713498280	1478713498360	s	83
490801	5281782	I hope this answers your question.	I hope this answers your question.	250717135	1478713498361	1478713498440	 	32
490801	5281782	I hope this answers your question.	I hope this answers your question.	250717139	1478713498552	1478713498632	a	65
490801	5281782	I hope this answers your question.	I hope this answers your question.	250717144	1478713498664	1478713498728	n	78
490801	5281782	I hope this answers your question.	I hope this answers your question.	250717149	1478713498808	1478713498840	s	83
490801	5281782	I hope this answers your question.	I hope this answers your question.	250717204	1478713498968	1478713499016	w	87
490801	5281782	I hope this answers your question.	I hope this answers your question.	250717208	1478713499448	1478713499512	e	69
490801	5281782	I hope this answers your question.	I hope this answers your question.	250717212	1478713499576	1478713499640	r	82
490801	5281782	I hope this answers your question.	I hope this answers your question.	250717216	1478713499736	1478713499800	s	83
490801	5281782	I hope this answers your question.	I hope this answers your question.	250717218	1478713499864	1478713499912	 	32
490801	5281782	I hope this answers your question.	I hope this answers your question.	250717233	1478713500040	1478713500104	y	89
490801	5281782	I hope this answers your question.	I hope this answers your question.	250717235	1478713500105	1478713500168	o	79
490801	5281782	I hope this answers your question.	I hope this answers your question.	250717237	1478713500264	1478713500328	u	85
490801	5281782	I hope this answers your question.	I hope this answers your question.	250717238	1478713500329	1478713500392	r	82
490801	5281782	I hope this answers your question.	I hope this answers your question.	250717239	1478713500408	1478713500472	 	32
490801	5281782	I hope this answers your question.	I hope this answers your question.	250717256	1478713500504	1478713500584	q	81
490801	5281782	I hope this answers your question.	I hope this answers your question.	250717261	1478713500568	1478713500632	u	85
490801	5281782	I hope this answers your question.	I hope this answers your question.	250717265	1478713500680	1478713500744	e	69
490801	5281782	I hope this answers your question.	I hope this answers your question.	250717274	1478713500792	1478713500840	s	83
490801	5281782	I hope this answers your question.	I hope this answers your question.	250717283	1478713500952	1478713501033	t	84
490801	5281782	I hope this answers your question.	I hope this answers your question.	250717334	1478713501000	1478713501064	i	73
490801	5281782	I hope this answers your question.	I hope this answers your question.	250717338	1478713501144	1478713501208	o	79
490801	5281782	I hope this answers your question.	I hope this answers your question.	250717342	1478713501224	1478713501304	n	78
490801	5281782	I hope this answers your question.	I hope this answers your question.	250717348	1478713501544	1478713501592	.	190
490801	5281790	No, just Thursday and Friday of this week.	No, just Thursday and Friday of this week.	250717517	1478713503338	1478713503529	SHIFT	16
490801	5281790	No, just Thursday and Friday of this week.	No, just Thursday and Friday of this week.	250717512	1478713503449	1478713503497	N	78
490801	5281790	No, just Thursday and Friday of this week.	No, just Thursday and Friday of this week.	250717521	1478713503593	1478713503657	o	79
490801	5281790	No, just Thursday and Friday of this week.	No, just Thursday and Friday of this week.	250717526	1478713503977	1478713504041	,	188
490801	5281790	No, just Thursday and Friday of this week.	No, just Thursday and Friday of this week.	250717532	1478713504153	1478713504217	 	32
490801	5281790	No, just Thursday and Friday of this week.	No, just Thursday and Friday of this week.	250717543	1478713504313	1478713504377	n	78
490801	5281790	No, just Thursday and Friday of this week.	No, just Thursday and Friday of this week.	250717605	1478713504473	1478713504521	u	85
490801	5281790	No, just Thursday and Friday of this week.	No, just Thursday and Friday of this week.	250717608	1478713504873	1478713504921	BKSP	8
490801	5281790	No, just Thursday and Friday of this week.	No, just Thursday and Friday of this week.	250717613	1478713504985	1478713505049	BKSP	8
490801	5281790	No, just Thursday and Friday of this week.	No, just Thursday and Friday of this week.	250717617	1478713505225	1478713505289	j	74
490801	5281790	No, just Thursday and Friday of this week.	No, just Thursday and Friday of this week.	250717621	1478713505353	1478713505433	u	85
490801	5281790	No, just Thursday and Friday of this week.	No, just Thursday and Friday of this week.	250717626	1478713505433	1478713505513	s	83
490801	5281790	No, just Thursday and Friday of this week.	No, just Thursday and Friday of this week.	250717708	1478713505673	1478713505753	t	32
490801	5281790	No, just Thursday and Friday of this week.	No, just Thursday and Friday of this week.	250717713	1478713506073	1478713506121	BKSP	8
490801	5281790	No, just Thursday and Friday of this week.	No, just Thursday and Friday of this week.	250717720	1478713506201	1478713506249	BKSP	8
490801	5281790	No, just Thursday and Friday of this week.	No, just Thursday and Friday of this week.	250717725	1478713506313	1478713506393	BKSP	8
490801	5281790	No, just Thursday and Friday of this week.	No, just Thursday and Friday of this week.	250717733	1478713506393	1478713506473	t	84
490801	5281790	No, just Thursday and Friday of this week.	No, just Thursday and Friday of this week.	250717738	1478713506505	1478713506585	 	32
490801	5281790	No, just Thursday and Friday of this week.	No, just Thursday and Friday of this week.	250717745	1478713506601	1478713506761	SHIFT	16
490801	5281790	No, just Thursday and Friday of this week.	No, just Thursday and Friday of this week.	250717752	1478713506713	1478713506777	T	84
490801	5281790	No, just Thursday and Friday of this week.	No, just Thursday and Friday of this week.	250717757	1478713506873	1478713506937	h	72
490801	5281790	No, just Thursday and Friday of this week.	No, just Thursday and Friday of this week.	250717762	1478713507033	1478713507097	u	85
490801	5281790	No, just Thursday and Friday of this week.	No, just Thursday and Friday of this week.	250717775	1478713507065	1478713507129	r	82
490801	5281790	No, just Thursday and Friday of this week.	No, just Thursday and Friday of this week.	250717779	1478713507241	1478713507289	s	83
490801	5281790	No, just Thursday and Friday of this week.	No, just Thursday and Friday of this week.	250717784	1478713507385	1478713507433	d	68
490801	5281790	No, just Thursday and Friday of this week.	No, just Thursday and Friday of this week.	250717788	1478713507529	1478713507593	a	65
490801	5281790	No, just Thursday and Friday of this week.	No, just Thursday and Friday of this week.	250717792	1478713507593	1478713507657	y	89
490801	5281790	No, just Thursday and Friday of this week.	No, just Thursday and Friday of this week.	250717794	1478713507721	1478713507801	 	32
490801	5281790	No, just Thursday and Friday of this week.	No, just Thursday and Friday of this week.	250717803	1478713507802	1478713507865	a	65
490801	5281790	No, just Thursday and Friday of this week.	No, just Thursday and Friday of this week.	250717806	1478713507897	1478713507977	n	78
490801	5281790	No, just Thursday and Friday of this week.	No, just Thursday and Friday of this week.	250717808	1478713507961	1478713508025	d	68
490801	5281790	No, just Thursday and Friday of this week.	No, just Thursday and Friday of this week.	250717811	1478713508057	1478713508120	 	32
490801	5281790	No, just Thursday and Friday of this week.	No, just Thursday and Friday of this week.	250717814	1478713508105	1478713508265	SHIFT	16
490801	5281790	No, just Thursday and Friday of this week.	No, just Thursday and Friday of this week.	250717856	1478713508217	1478713508266	F	70
490801	5281790	No, just Thursday and Friday of this week.	No, just Thursday and Friday of this week.	250717860	1478713508361	1478713508457	r	82
490801	5281790	No, just Thursday and Friday of this week.	No, just Thursday and Friday of this week.	250717861	1478713508457	1478713508521	i	73
490801	5281790	No, just Thursday and Friday of this week.	No, just Thursday and Friday of this week.	250717864	1478713508553	1478713508601	d	68
490801	5281790	No, just Thursday and Friday of this week.	No, just Thursday and Friday of this week.	250717867	1478713508697	1478713508777	a	65
490801	5281790	No, just Thursday and Friday of this week.	No, just Thursday and Friday of this week.	250717869	1478713508777	1478713508857	y	89
490801	5281790	No, just Thursday and Friday of this week.	No, just Thursday and Friday of this week.	250717886	1478713508937	1478713508985	 	32
490801	5281790	No, just Thursday and Friday of this week.	No, just Thursday and Friday of this week.	250717891	1478713509097	1478713509161	o	79
490801	5281790	No, just Thursday and Friday of this week.	No, just Thursday and Friday of this week.	250717898	1478713509161	1478713509225	f	70
490801	5281790	No, just Thursday and Friday of this week.	No, just Thursday and Friday of this week.	250717902	1478713509240	1478713509304	 	32
490801	5281790	No, just Thursday and Friday of this week.	No, just Thursday and Friday of this week.	250717905	1478713509337	1478713509401	t	84
490801	5281790	No, just Thursday and Friday of this week.	No, just Thursday and Friday of this week.	250717918	1478713509481	1478713509545	h	72
490801	5281790	No, just Thursday and Friday of this week.	No, just Thursday and Friday of this week.	250717921	1478713509577	1478713509641	i	73
490801	5281790	No, just Thursday and Friday of this week.	No, just Thursday and Friday of this week.	250717924	1478713509705	1478713509769	s	83
490801	5281790	No, just Thursday and Friday of this week.	No, just Thursday and Friday of this week.	250717927	1478713509784	1478713509832	 	32
490801	5281790	No, just Thursday and Friday of this week.	No, just Thursday and Friday of this week.	250717930	1478713509913	1478713509976	w	87
490801	5281790	No, just Thursday and Friday of this week.	No, just Thursday and Friday of this week.	250717983	1478713510073	1478713510137	e	69
490801	5281790	No, just Thursday and Friday of this week.	No, just Thursday and Friday of this week.	250717988	1478713510201	1478713510248	e	69
490801	5281790	No, just Thursday and Friday of this week.	No, just Thursday and Friday of this week.	250717992	1478713510249	1478713510328	k	75
490801	5281790	No, just Thursday and Friday of this week.	No, just Thursday and Friday of this week.	250717995	1478713510473	1478713510536	.	190
490801	5281801	Good to know it exists.	Good to know it exists.	250718191	1478713513320	1478713513496	SHIFT	16
490801	5281801	Good to know it exists.	Good to know it exists.	250718195	1478713513417	1478713513497	G	71
490801	5281801	Good to know it exists.	Good to know it exists.	250718197	1478713513512	1478713513577	o	79
490801	5281801	Good to know it exists.	Good to know it exists.	250718201	1478713513656	1478713513720	o	79
490801	5281801	Good to know it exists.	Good to know it exists.	250718205	1478713513721	1478713513800	d	68
490801	5281801	Good to know it exists.	Good to know it exists.	250718207	1478713513816	1478713513880	 	32
490801	5281801	Good to know it exists.	Good to know it exists.	250718244	1478713513944	1478713514008	t	84
490801	5281801	Good to know it exists.	Good to know it exists.	250718248	1478713513976	1478713514041	o	79
490801	5281801	Good to know it exists.	Good to know it exists.	250718254	1478713514105	1478713514168	 	32
490801	5281801	Good to know it exists.	Good to know it exists.	250718259	1478713514280	1478713514344	k	75
490801	5281801	Good to know it exists.	Good to know it exists.	250718264	1478713514408	1478713514472	n	78
490801	5281801	Good to know it exists.	Good to know it exists.	250718273	1478713514552	1478713514616	w	79
490801	5281801	Good to know it exists.	Good to know it exists.	250718276	1478713514680	1478713514744	 	32
490801	5281801	Good to know it exists.	Good to know it exists.	250718280	1478713514824	1478713514888	i	73
490801	5281801	Good to know it exists.	Good to know it exists.	250718321	1478713514856	1478713514920	t	84
490801	5281801	Good to know it exists.	Good to know it exists.	250718326	1478713514968	1478713515049	 	32
490801	5281801	Good to know it exists.	Good to know it exists.	250718331	1478713515049	1478713515112	e	69
490801	5281801	Good to know it exists.	Good to know it exists.	250718337	1478713515208	1478713515272	x	88
490801	5281801	Good to know it exists.	Good to know it exists.	250718342	1478713515304	1478713515384	i	73
490801	5281801	Good to know it exists.	Good to know it exists.	250718347	1478713515385	1478713515448	s	83
490801	5281801	Good to know it exists.	Good to know it exists.	250718359	1478713515592	1478713515641	t	84
490801	5281801	Good to know it exists.	Good to know it exists.	250718363	1478713515753	1478713515816	s	83
490801	5281801	Good to know it exists.	Good to know it exists.	250718371	1478713515848	1478713515912	.	190
490801	5281811	Is Cassandra there today?	Is Cassandra there today?	250718644	1478713518424	1478713518635	SHIFT	16
490801	5281811	Is Cassandra there today?	Is Cassandra there today?	250718652	1478713518616	1478713518680	I	73
490801	5281811	Is Cassandra there today?	Is Cassandra there today?	250718661	1478713518681	1478713518760	s	83
490801	5281811	Is Cassandra there today?	Is Cassandra there today?	250718669	1478713518808	1478713518872	 	32
490801	5281811	Is Cassandra there today?	Is Cassandra there today?	250718675	1478713518888	1478713518952	c	67
490801	5281811	Is Cassandra there today?	Is Cassandra there today?	250718678	1478713519272	1478713519352	BKSP	8
490801	5281811	Is Cassandra there today?	Is Cassandra there today?	250718683	1478713519353	1478713519529	SHIFT	16
490801	5281811	Is Cassandra there today?	Is Cassandra there today?	250718711	1478713519465	1478713519545	C	67
490801	5281811	Is Cassandra there today?	Is Cassandra there today?	250718713	1478713519657	1478713519721	a	65
490801	5281811	Is Cassandra there today?	Is Cassandra there today?	250718716	1478713519817	1478713519865	s	83
490801	5281811	Is Cassandra there today?	Is Cassandra there today?	250718721	1478713519929	1478713519993	s	83
490801	5281811	Is Cassandra there today?	Is Cassandra there today?	250718729	1478713520073	1478713520137	a	65
490801	5281811	Is Cassandra there today?	Is Cassandra there today?	250718735	1478713520153	1478713520201	n	78
490801	5281811	Is Cassandra there today?	Is Cassandra there today?	250718770	1478713520265	1478713520345	d	68
490801	5281811	Is Cassandra there today?	Is Cassandra there today?	250718773	1478713520442	1478713520506	r	82
490801	5281811	Is Cassandra there today?	Is Cassandra there today?	250718777	1478713520634	1478713520699	a	65
490801	5281811	Is Cassandra there today?	Is Cassandra there today?	250718781	1478713520730	1478713520778	 	32
490801	5281811	Is Cassandra there today?	Is Cassandra there today?	250718784	1478713520890	1478713520954	t	84
490801	5281811	Is Cassandra there today?	Is Cassandra there today?	250718813	1478713521034	1478713521098	h	72
490801	5281811	Is Cassandra there today?	Is Cassandra there today?	250718819	1478713521066	1478713521130	e	69
490801	5281811	Is Cassandra there today?	Is Cassandra there today?	250718826	1478713521210	1478713521274	r	82
490801	5281811	Is Cassandra there today?	Is Cassandra there today?	250718833	1478713521338	1478713521418	e	69
490801	5281811	Is Cassandra there today?	Is Cassandra there today?	250718837	1478713521434	1478713521482	 	32
490801	5281811	Is Cassandra there today?	Is Cassandra there today?	250718844	1478713521514	1478713521594	t	84
490801	5281811	Is Cassandra there today?	Is Cassandra there today?	250718845	1478713521595	1478713521674	o	79
490801	5281811	Is Cassandra there today?	Is Cassandra there today?	250718847	1478713521690	1478713521739	d	68
490801	5281811	Is Cassandra there today?	Is Cassandra there today?	250718850	1478713521834	1478713521914	a	65
490801	5281811	Is Cassandra there today?	Is Cassandra there today?	250718867	1478713521898	1478713521962	y	89
490801	5281811	Is Cassandra there today?	Is Cassandra there today?	250718876	1478713522090	1478713522282	SHIFT	16
490801	5281811	Is Cassandra there today?	Is Cassandra there today?	250718871	1478713522202	1478713522266	?	191
490801	5281823	England star Paul Gascoigne was one of the recipients of the loans.	England star Paul Gascoigne was one of the recipients of the loans.	250719140	1478713525867	1478713526058	SHIFT	16
490801	5281823	England star Paul Gascoigne was one of the recipients of the loans.	England star Paul Gascoigne was one of the recipients of the loans.	250719145	1478713525994	1478713526090	E	69
490801	5281823	England star Paul Gascoigne was one of the recipients of the loans.	England star Paul Gascoigne was one of the recipients of the loans.	250719149	1478713526106	1478713526170	n	78
490801	5281823	England star Paul Gascoigne was one of the recipients of the loans.	England star Paul Gascoigne was one of the recipients of the loans.	250719155	1478713526186	1478713526250	g	71
490801	5281823	England star Paul Gascoigne was one of the recipients of the loans.	England star Paul Gascoigne was one of the recipients of the loans.	250719162	1478713526282	1478713526346	l	76
490801	5281823	England star Paul Gascoigne was one of the recipients of the loans.	England star Paul Gascoigne was one of the recipients of the loans.	250719169	1478713526378	1478713526458	a	65
490801	5281823	England star Paul Gascoigne was one of the recipients of the loans.	England star Paul Gascoigne was one of the recipients of the loans.	250719194	1478713526554	1478713526634	n	78
490801	5281823	England star Paul Gascoigne was one of the recipients of the loans.	England star Paul Gascoigne was one of the recipients of the loans.	250719199	1478713526650	1478713526698	d	68
490801	5281823	England star Paul Gascoigne was one of the recipients of the loans.	England star Paul Gascoigne was one of the recipients of the loans.	250719204	1478713526730	1478713526810	 	32
490801	5281823	England star Paul Gascoigne was one of the recipients of the loans.	England star Paul Gascoigne was one of the recipients of the loans.	250719208	1478713526842	1478713526890	s	83
490801	5281823	England star Paul Gascoigne was one of the recipients of the loans.	England star Paul Gascoigne was one of the recipients of the loans.	250719214	1478713527018	1478713527065	t	84
490801	5281823	England star Paul Gascoigne was one of the recipients of the loans.	England star Paul Gascoigne was one of the recipients of the loans.	250719250	1478713527210	1478713527274	a	65
490801	5281823	England star Paul Gascoigne was one of the recipients of the loans.	England star Paul Gascoigne was one of the recipients of the loans.	250719254	1478713527386	1478713527450	r	82
490801	5281823	England star Paul Gascoigne was one of the recipients of the loans.	England star Paul Gascoigne was one of the recipients of the loans.	250719260	1478713527434	1478713527498	 	32
490801	5281823	England star Paul Gascoigne was one of the recipients of the loans.	England star Paul Gascoigne was one of the recipients of the loans.	250719263	1478713527546	1478713527657	SHIFT	16
490801	5281823	England star Paul Gascoigne was one of the recipients of the loans.	England star Paul Gascoigne was one of the recipients of the loans.	250719266	1478713527609	1478713527689	P	80
490801	5281823	England star Paul Gascoigne was one of the recipients of the loans.	England star Paul Gascoigne was one of the recipients of the loans.	250719268	1478713527753	1478713527833	a	65
490801	5281823	England star Paul Gascoigne was one of the recipients of the loans.	England star Paul Gascoigne was one of the recipients of the loans.	250719290	1478713527850	1478713527914	u	85
490801	5281823	England star Paul Gascoigne was one of the recipients of the loans.	England star Paul Gascoigne was one of the recipients of the loans.	250719298	1478713528026	1478713528089	l	76
490801	5281823	England star Paul Gascoigne was one of the recipients of the loans.	England star Paul Gascoigne was one of the recipients of the loans.	250719310	1478713528138	1478713528329	 	16
490801	5281823	England star Paul Gascoigne was one of the recipients of the loans.	England star Paul Gascoigne was one of the recipients of the loans.	250719304	1478713528266	1478713528313	G	71
490801	5281823	England star Paul Gascoigne was one of the recipients of the loans.	England star Paul Gascoigne was one of the recipients of the loans.	250719320	1478713528457	1478713528521	a	65
490801	5281823	England star Paul Gascoigne was one of the recipients of the loans.	England star Paul Gascoigne was one of the recipients of the loans.	250719395	1478713528634	1478713528681	s	83
490801	5281823	England star Paul Gascoigne was one of the recipients of the loans.	England star Paul Gascoigne was one of the recipients of the loans.	250719398	1478713528842	1478713528921	c	67
490801	5281823	England star Paul Gascoigne was one of the recipients of the loans.	England star Paul Gascoigne was one of the recipients of the loans.	250719403	1478713528954	1478713529034	o	79
490801	5281823	England star Paul Gascoigne was one of the recipients of the loans.	England star Paul Gascoigne was one of the recipients of the loans.	250719407	1478713529113	1478713529177	i	73
490801	5281823	England star Paul Gascoigne was one of the recipients of the loans.	England star Paul Gascoigne was one of the recipients of the loans.	250719413	1478713529482	1478713529545	g	71
490801	5281823	England star Paul Gascoigne was one of the recipients of the loans.	England star Paul Gascoigne was one of the recipients of the loans.	250719462	1478713529658	1478713529706	n	78
490801	5281823	England star Paul Gascoigne was one of the recipients of the loans.	England star Paul Gascoigne was one of the recipients of the loans.	250719467	1478713529817	1478713529898	e	69
490801	5281823	England star Paul Gascoigne was one of the recipients of the loans.	England star Paul Gascoigne was one of the recipients of the loans.	250719472	1478713529993	1478713530057	 	32
490801	5281823	England star Paul Gascoigne was one of the recipients of the loans.	England star Paul Gascoigne was one of the recipients of the loans.	250719478	1478713530185	1478713530249	w	87
490801	5281823	England star Paul Gascoigne was one of the recipients of the loans.	England star Paul Gascoigne was one of the recipients of the loans.	250719484	1478713530329	1478713530393	a	65
490801	5281823	England star Paul Gascoigne was one of the recipients of the loans.	England star Paul Gascoigne was one of the recipients of the loans.	250719497	1478713530457	1478713530521	s	83
490801	5281823	England star Paul Gascoigne was one of the recipients of the loans.	England star Paul Gascoigne was one of the recipients of the loans.	250719498	1478713530505	1478713530569	 	32
490801	5281823	England star Paul Gascoigne was one of the recipients of the loans.	England star Paul Gascoigne was one of the recipients of the loans.	250719499	1478713530633	1478713530713	o	79
490801	5281823	England star Paul Gascoigne was one of the recipients of the loans.	England star Paul Gascoigne was one of the recipients of the loans.	250719500	1478713530745	1478713530793	n	78
490801	5281823	England star Paul Gascoigne was one of the recipients of the loans.	England star Paul Gascoigne was one of the recipients of the loans.	250719502	1478713530794	1478713530857	e	69
490801	5281823	England star Paul Gascoigne was one of the recipients of the loans.	England star Paul Gascoigne was one of the recipients of the loans.	250719530	1478713530889	1478713530937	 	32
490801	5281823	England star Paul Gascoigne was one of the recipients of the loans.	England star Paul Gascoigne was one of the recipients of the loans.	250719538	1478713531001	1478713531065	o	79
490801	5281823	England star Paul Gascoigne was one of the recipients of the loans.	England star Paul Gascoigne was one of the recipients of the loans.	250719550	1478713531081	1478713531145	f	70
490801	5281823	England star Paul Gascoigne was one of the recipients of the loans.	England star Paul Gascoigne was one of the recipients of the loans.	250719555	1478713531146	1478713531194	 	32
490801	5281823	England star Paul Gascoigne was one of the recipients of the loans.	England star Paul Gascoigne was one of the recipients of the loans.	250719563	1478713531274	1478713531353	t	84
490801	5281823	England star Paul Gascoigne was one of the recipients of the loans.	England star Paul Gascoigne was one of the recipients of the loans.	250719588	1478713531433	1478713531497	h	72
490801	5281823	England star Paul Gascoigne was one of the recipients of the loans.	England star Paul Gascoigne was one of the recipients of the loans.	250719593	1478713531529	1478713531578	e	69
490801	5281823	England star Paul Gascoigne was one of the recipients of the loans.	England star Paul Gascoigne was one of the recipients of the loans.	250719601	1478713531561	1478713531609	 	32
490801	5281823	England star Paul Gascoigne was one of the recipients of the loans.	England star Paul Gascoigne was one of the recipients of the loans.	250719606	1478713531673	1478713531737	r	82
490801	5281823	England star Paul Gascoigne was one of the recipients of the loans.	England star Paul Gascoigne was one of the recipients of the loans.	250719616	1478713531817	1478713531881	e	69
490801	5281823	England star Paul Gascoigne was one of the recipients of the loans.	England star Paul Gascoigne was one of the recipients of the loans.	250719687	1478713531993	1478713532073	c	67
490801	5281823	England star Paul Gascoigne was one of the recipients of the loans.	England star Paul Gascoigne was one of the recipients of the loans.	250719695	1478713532169	1478713532249	i	73
490801	5281823	England star Paul Gascoigne was one of the recipients of the loans.	England star Paul Gascoigne was one of the recipients of the loans.	250719703	1478713532377	1478713532441	p	80
490801	5281823	England star Paul Gascoigne was one of the recipients of the loans.	England star Paul Gascoigne was one of the recipients of the loans.	250719711	1478713532457	1478713532537	e	69
490801	5281823	England star Paul Gascoigne was one of the recipients of the loans.	England star Paul Gascoigne was one of the recipients of the loans.	250719713	1478713532601	1478713532681	i	73
490801	5281823	England star Paul Gascoigne was one of the recipients of the loans.	England star Paul Gascoigne was one of the recipients of the loans.	250719834	1478713533386	1478713533449	BKSP	8
490801	5281823	England star Paul Gascoigne was one of the recipients of the loans.	England star Paul Gascoigne was one of the recipients of the loans.	250719837	1478713533865	1478713533913	BKSP	8
490801	5281823	England star Paul Gascoigne was one of the recipients of the loans.	England star Paul Gascoigne was one of the recipients of the loans.	250719849	1478713534345	1478713534409	i	73
490801	5281823	England star Paul Gascoigne was one of the recipients of the loans.	England star Paul Gascoigne was one of the recipients of the loans.	250719854	1478713534441	1478713534537	e	69
490801	5281823	England star Paul Gascoigne was one of the recipients of the loans.	England star Paul Gascoigne was one of the recipients of the loans.	250719859	1478713534553	1478713534617	n	78
490801	5281823	England star Paul Gascoigne was one of the recipients of the loans.	England star Paul Gascoigne was one of the recipients of the loans.	250719865	1478713534633	1478713534681	t	84
490801	5281823	England star Paul Gascoigne was one of the recipients of the loans.	England star Paul Gascoigne was one of the recipients of the loans.	250719871	1478713534793	1478713534857	s	83
490801	5281823	England star Paul Gascoigne was one of the recipients of the loans.	England star Paul Gascoigne was one of the recipients of the loans.	250719892	1478713534889	1478713534937	 	32
490801	5281823	England star Paul Gascoigne was one of the recipients of the loans.	England star Paul Gascoigne was one of the recipients of the loans.	250719895	1478713535001	1478713535081	o	79
490801	5281823	England star Paul Gascoigne was one of the recipients of the loans.	England star Paul Gascoigne was one of the recipients of the loans.	250719899	1478713535082	1478713535129	f	70
490801	5281823	England star Paul Gascoigne was one of the recipients of the loans.	England star Paul Gascoigne was one of the recipients of the loans.	250719902	1478713535161	1478713535209	 	32
490801	5281823	England star Paul Gascoigne was one of the recipients of the loans.	England star Paul Gascoigne was one of the recipients of the loans.	250719905	1478713535289	1478713535353	t	84
490801	5281823	England star Paul Gascoigne was one of the recipients of the loans.	England star Paul Gascoigne was one of the recipients of the loans.	250719928	1478713535449	1478713535497	h	72
490801	5281823	England star Paul Gascoigne was one of the recipients of the loans.	England star Paul Gascoigne was one of the recipients of the loans.	250719933	1478713535498	1478713535561	e	69
490801	5281823	England star Paul Gascoigne was one of the recipients of the loans.	England star Paul Gascoigne was one of the recipients of the loans.	250719937	1478713535593	1478713535657	 	32
490801	5281823	England star Paul Gascoigne was one of the recipients of the loans.	England star Paul Gascoigne was one of the recipients of the loans.	250719941	1478713535737	1478713535801	l	76
490801	5281823	England star Paul Gascoigne was one of the recipients of the loans.	England star Paul Gascoigne was one of the recipients of the loans.	250719944	1478713535882	1478713535945	o	79
490801	5281823	England star Paul Gascoigne was one of the recipients of the loans.	England star Paul Gascoigne was one of the recipients of the loans.	250719973	1478713535947	1478713536025	a	65
490801	5281823	England star Paul Gascoigne was one of the recipients of the loans.	England star Paul Gascoigne was one of the recipients of the loans.	250719977	1478713536009	1478713536073	n	78
490801	5281823	England star Paul Gascoigne was one of the recipients of the loans.	England star Paul Gascoigne was one of the recipients of the loans.	250719984	1478713536121	1478713536185	s	83
490801	5281823	England star Paul Gascoigne was one of the recipients of the loans.	England star Paul Gascoigne was one of the recipients of the loans.	250719990	1478713536233	1478713536297	.	190
490801	5281846	Give it some time.	Give it some time.	250720137	1478713538026	1478713538218	SHIFT	16
490801	5281846	Give it some time.	Give it some time.	250720141	1478713538154	1478713538218	G	71
490801	5281846	Give it some time.	Give it some time.	250720149	1478713538250	1478713538330	i	73
490801	5281846	Give it some time.	Give it some time.	250720157	1478713538346	1478713538410	v	86
490801	5281846	Give it some time.	Give it some time.	250720165	1478713538511	1478713538570	e	69
490801	5281846	Give it some time.	Give it some time.	250720204	1478713538554	1478713538618	 	32
490801	5281846	Give it some time.	Give it some time.	250720208	1478713538698	1478713538762	i	73
490801	5281846	Give it some time.	Give it some time.	250720214	1478713538746	1478713538794	t	84
490801	5281846	Give it some time.	Give it some time.	250720216	1478713538858	1478713538906	 	32
490801	5281846	Give it some time.	Give it some time.	250720217	1478713538938	1478713539002	s	83
490801	5281846	Give it some time.	Give it some time.	250720219	1478713539003	1478713539082	o	79
490801	5281846	Give it some time.	Give it some time.	250720228	1478713539084	1478713539130	m	77
490801	5281846	Give it some time.	Give it some time.	250720233	1478713539114	1478713539178	e	69
490801	5281846	Give it some time.	Give it some time.	250720239	1478713539274	1478713539338	t	32
490801	5281846	Give it some time.	Give it some time.	250720248	1478713539418	1478713539482	i	73
490801	5281846	Give it some time.	Give it some time.	250720316	1478713539962	1478713540026	m	77
490801	5281846	Give it some time.	Give it some time.	250720317	1478713540058	1478713540122	e	69
490801	5281846	Give it some time.	Give it some time.	250720320	1478713540186	1478713540250	.	190
490801	5281853	Can you rough out a slide on rating agencies?	Can you rough out a slide on rating agencies?	250720443	1478713541882	1478713542074	SHIFT	16
490801	5281853	Can you rough out a slide on rating agencies?	Can you rough out a slide on rating agencies?	250720446	1478713542010	1478713542074	C	67
490801	5281853	Can you rough out a slide on rating agencies?	Can you rough out a slide on rating agencies?	250720450	1478713542186	1478713542250	a	65
490801	5281853	Can you rough out a slide on rating agencies?	Can you rough out a slide on rating agencies?	250720455	1478713542250	1478713542298	n	78
490801	5281853	Can you rough out a slide on rating agencies?	Can you rough out a slide on rating agencies?	250720459	1478713542394	1478713542458	 	32
490801	5281853	Can you rough out a slide on rating agencies?	Can you rough out a slide on rating agencies?	250720464	1478713542490	1478713542538	y	89
490801	5281853	Can you rough out a slide on rating agencies?	Can you rough out a slide on rating agencies?	250720494	1478713542554	1478713542618	o	79
490801	5281853	Can you rough out a slide on rating agencies?	Can you rough out a slide on rating agencies?	250720496	1478713542714	1478713542794	u	85
490801	5281853	Can you rough out a slide on rating agencies?	Can you rough out a slide on rating agencies?	250720497	1478713542858	1478713542938	 	32
490801	5281853	Can you rough out a slide on rating agencies?	Can you rough out a slide on rating agencies?	250720498	1478713542954	1478713543002	r	82
490801	5281853	Can you rough out a slide on rating agencies?	Can you rough out a slide on rating agencies?	250720500	1478713543034	1478713543098	o	79
490801	5281853	Can you rough out a slide on rating agencies?	Can you rough out a slide on rating agencies?	250720557	1478713543194	1478713543258	u	85
490801	5281853	Can you rough out a slide on rating agencies?	Can you rough out a slide on rating agencies?	250720562	1478713543306	1478713543370	g	71
490801	5281853	Can you rough out a slide on rating agencies?	Can you rough out a slide on rating agencies?	250720565	1478713543450	1478713543514	h	72
490801	5281853	Can you rough out a slide on rating agencies?	Can you rough out a slide on rating agencies?	250720569	1478713543626	1478713543690	 	32
490801	5281853	Can you rough out a slide on rating agencies?	Can you rough out a slide on rating agencies?	250720572	1478713543802	1478713543850	o	79
490801	5281853	Can you rough out a slide on rating agencies?	Can you rough out a slide on rating agencies?	250720589	1478713543962	1478713544026	u	85
490801	5281853	Can you rough out a slide on rating agencies?	Can you rough out a slide on rating agencies?	250720594	1478713544010	1478713544057	t	84
490801	5281853	Can you rough out a slide on rating agencies?	Can you rough out a slide on rating agencies?	250720597	1478713544122	1478713544186	 	32
490801	5281853	Can you rough out a slide on rating agencies?	Can you rough out a slide on rating agencies?	250720605	1478713544202	1478713544282	a	65
490801	5281853	Can you rough out a slide on rating agencies?	Can you rough out a slide on rating agencies?	250720609	1478713544282	1478713544346	 	32
490801	5281853	Can you rough out a slide on rating agencies?	Can you rough out a slide on rating agencies?	250720680	1478713544458	1478713544474	d	83
490801	5281853	Can you rough out a slide on rating agencies?	Can you rough out a slide on rating agencies?	250720722	1478713544461	1478713545545	l	68
490801	5281853	Can you rough out a slide on rating agencies?	Can you rough out a slide on rating agencies?	250720687	1478713544954	1478713545001	BKSP	8
490801	5281853	Can you rough out a slide on rating agencies?	Can you rough out a slide on rating agencies?	250720693	1478713545098	1478713545145	BKSP	8
490801	5281853	Can you rough out a slide on rating agencies?	Can you rough out a slide on rating agencies?	250720702	1478713545274	1478713545353	l	76
490801	5281853	Can you rough out a slide on rating agencies?	Can you rough out a slide on rating agencies?	250720710	1478713545450	1478713545514	i	73
490801	5281853	Can you rough out a slide on rating agencies?	Can you rough out a slide on rating agencies?	250720727	1478713545626	1478713545706	e	69
490801	5281853	Can you rough out a slide on rating agencies?	Can you rough out a slide on rating agencies?	250720736	1478713545690	1478713545753	 	32
490801	5281853	Can you rough out a slide on rating agencies?	Can you rough out a slide on rating agencies?	250720747	1478713545833	1478713545897	o	79
490801	5281853	Can you rough out a slide on rating agencies?	Can you rough out a slide on rating agencies?	250720754	1478713545946	1478713546009	n	78
490801	5281853	Can you rough out a slide on rating agencies?	Can you rough out a slide on rating agencies?	250720783	1478713546090	1478713546137	 	32
490801	5281853	Can you rough out a slide on rating agencies?	Can you rough out a slide on rating agencies?	250720788	1478713546122	1478713546185	r	82
490801	5281853	Can you rough out a slide on rating agencies?	Can you rough out a slide on rating agencies?	250720791	1478713546282	1478713546361	a	65
490801	5281853	Can you rough out a slide on rating agencies?	Can you rough out a slide on rating agencies?	250720794	1478713546489	1478713546554	t	84
490801	5281853	Can you rough out a slide on rating agencies?	Can you rough out a slide on rating agencies?	250720842	1478713546525	1478713546601	i	73
490801	5281853	Can you rough out a slide on rating agencies?	Can you rough out a slide on rating agencies?	250720847	1478713546602	1478713546665	n	78
490801	5281853	Can you rough out a slide on rating agencies?	Can you rough out a slide on rating agencies?	250720854	1478713546713	1478713546777	g	71
490801	5281853	Can you rough out a slide on rating agencies?	Can you rough out a slide on rating agencies?	250720859	1478713546793	1478713546857	 	32
490801	5281853	Can you rough out a slide on rating agencies?	Can you rough out a slide on rating agencies?	250720862	1478713546937	1478713547017	a	65
490801	5281853	Can you rough out a slide on rating agencies?	Can you rough out a slide on rating agencies?	250720866	1478713547161	1478713547225	g	71
490801	5281853	Can you rough out a slide on rating agencies?	Can you rough out a slide on rating agencies?	250720876	1478713547321	1478713547401	e	69
490801	5281853	Can you rough out a slide on rating agencies?	Can you rough out a slide on rating agencies?	250720878	1478713547402	1478713547465	n	78
490801	5281853	Can you rough out a slide on rating agencies?	Can you rough out a slide on rating agencies?	250720880	1478713547497	1478713547577	c	67
490801	5281853	Can you rough out a slide on rating agencies?	Can you rough out a slide on rating agencies?	250720887	1478713547609	1478713547689	i	73
490801	5281853	Can you rough out a slide on rating agencies?	Can you rough out a slide on rating agencies?	250720895	1478713547705	1478713547769	e	69
490801	5281853	Can you rough out a slide on rating agencies?	Can you rough out a slide on rating agencies?	250720933	1478713547817	1478713547881	s	83
490801	5281853	Can you rough out a slide on rating agencies?	Can you rough out a slide on rating agencies?	250720938	1478713547977	1478713548121	SHIFT	16
490801	5281853	Can you rough out a slide on rating agencies?	Can you rough out a slide on rating agencies?	250720941	1478713548057	1478713548122	?	191
490801	5281867	Kay Mann is going to take the lead on this.	Kay Mann is going to take the lead on this.	250721131	1478713549817	1478713550041	SHIFT	16
490801	5281867	Kay Mann is going to take the lead on this.	Kay Mann is going to take the lead on this.	250721133	1478713549993	1478713550073	K	75
490801	5281867	Kay Mann is going to take the lead on this.	Kay Mann is going to take the lead on this.	250721141	1478713550153	1478713550249	a	65
490801	5281867	Kay Mann is going to take the lead on this.	Kay Mann is going to take the lead on this.	250721147	1478713550281	1478713550345	y	89
490801	5281867	Kay Mann is going to take the lead on this.	Kay Mann is going to take the lead on this.	250721151	1478713550425	1478713550489	 	32
490801	5281867	Kay Mann is going to take the lead on this.	Kay Mann is going to take the lead on this.	250721156	1478713550553	1478713550729	SHIFT	16
490801	5281867	Kay Mann is going to take the lead on this.	Kay Mann is going to take the lead on this.	250721167	1478713550665	1478713550745	M	77
490801	5281867	Kay Mann is going to take the lead on this.	Kay Mann is going to take the lead on this.	250721168	1478713550777	1478713550857	a	65
490801	5281867	Kay Mann is going to take the lead on this.	Kay Mann is going to take the lead on this.	250721171	1478713550889	1478713550953	n	78
490801	5281867	Kay Mann is going to take the lead on this.	Kay Mann is going to take the lead on this.	250721173	1478713551033	1478713551097	n	78
490801	5281867	Kay Mann is going to take the lead on this.	Kay Mann is going to take the lead on this.	250721175	1478713551193	1478713551257	 	32
490801	5281867	Kay Mann is going to take the lead on this.	Kay Mann is going to take the lead on this.	250721177	1478713551353	1478713551401	i	73
490801	5281867	Kay Mann is going to take the lead on this.	Kay Mann is going to take the lead on this.	250721189	1478713551417	1478713551497	s	83
490801	5281867	Kay Mann is going to take the lead on this.	Kay Mann is going to take the lead on this.	250721194	1478713551498	1478713551561	 	32
490801	5281867	Kay Mann is going to take the lead on this.	Kay Mann is going to take the lead on this.	250721201	1478713551641	1478713551705	g	71
490801	5281867	Kay Mann is going to take the lead on this.	Kay Mann is going to take the lead on this.	250721207	1478713551673	1478713551753	o	79
490801	5281867	Kay Mann is going to take the lead on this.	Kay Mann is going to take the lead on this.	250721212	1478713551817	1478713551881	i	73
490801	5281867	Kay Mann is going to take the lead on this.	Kay Mann is going to take the lead on this.	250721229	1478713551913	1478713551961	n	78
490801	5281867	Kay Mann is going to take the lead on this.	Kay Mann is going to take the lead on this.	250721231	1478713551962	1478713552025	g	71
490801	5281867	Kay Mann is going to take the lead on this.	Kay Mann is going to take the lead on this.	250721235	1478713552057	1478713552121	 	32
490801	5281867	Kay Mann is going to take the lead on this.	Kay Mann is going to take the lead on this.	250721239	1478713552137	1478713552201	t	84
490801	5281867	Kay Mann is going to take the lead on this.	Kay Mann is going to take the lead on this.	250721244	1478713552202	1478713552249	o	79
490801	5281867	Kay Mann is going to take the lead on this.	Kay Mann is going to take the lead on this.	250721289	1478713552297	1478713552361	 	32
490801	5281867	Kay Mann is going to take the lead on this.	Kay Mann is going to take the lead on this.	250721295	1478713552362	1478713552425	t	84
490801	5281867	Kay Mann is going to take the lead on this.	Kay Mann is going to take the lead on this.	250721299	1478713552553	1478713552633	a	65
490801	5281867	Kay Mann is going to take the lead on this.	Kay Mann is going to take the lead on this.	250721302	1478713552634	1478713552681	k	75
490801	5281867	Kay Mann is going to take the lead on this.	Kay Mann is going to take the lead on this.	250721303	1478713552729	1478713552777	 	69
490801	5281867	Kay Mann is going to take the lead on this.	Kay Mann is going to take the lead on this.	250721309	1478713552905	1478713552953	t	84
490801	5281867	Kay Mann is going to take the lead on this.	Kay Mann is going to take the lead on this.	250721314	1478713553065	1478713553113	h	72
490801	5281867	Kay Mann is going to take the lead on this.	Kay Mann is going to take the lead on this.	250721320	1478713553114	1478713553177	e	69
490801	5281867	Kay Mann is going to take the lead on this.	Kay Mann is going to take the lead on this.	250721327	1478713553178	1478713553241	 	32
490801	5281867	Kay Mann is going to take the lead on this.	Kay Mann is going to take the lead on this.	250721332	1478713553337	1478713553401	e	76
490801	5281867	Kay Mann is going to take the lead on this.	Kay Mann is going to take the lead on this.	250721354	1478713553529	1478713553593	a	65
490801	5281867	Kay Mann is going to take the lead on this.	Kay Mann is going to take the lead on this.	250721363	1478713553754	1478713553801	 	32
490801	5281867	Kay Mann is going to take the lead on this.	Kay Mann is going to take the lead on this.	250721368	1478713553865	1478713553945	o	79
490801	5281867	Kay Mann is going to take the lead on this.	Kay Mann is going to take the lead on this.	250721373	1478713553977	1478713554041	n	78
490801	5281867	Kay Mann is going to take the lead on this.	Kay Mann is going to take the lead on this.	250721420	1478713554137	1478713554185	 	32
490801	5281867	Kay Mann is going to take the lead on this.	Kay Mann is going to take the lead on this.	250721426	1478713554217	1478713554297	t	84
490801	5281867	Kay Mann is going to take the lead on this.	Kay Mann is going to take the lead on this.	250721433	1478713554377	1478713554457	h	72
490801	5281867	Kay Mann is going to take the lead on this.	Kay Mann is going to take the lead on this.	250721442	1478713554473	1478713554553	i	73
490801	5281867	Kay Mann is going to take the lead on this.	Kay Mann is going to take the lead on this.	250721449	1478713554585	1478713554665	s	83
490801	5281867	Kay Mann is going to take the lead on this.	Kay Mann is going to take the lead on this.	250721454	1478713554697	1478713554761	.	190
490801	5281877	Many earlier ceasefire accords have been broken.	Many earlier ceasefire accords have been broken.	250721655	1478713556251	1478713556410	SHIFT	16
490801	5281877	Many earlier ceasefire accords have been broken.	Many earlier ceasefire accords have been broken.	250721658	1478713556378	1478713556458	M	77
490801	5281877	Many earlier ceasefire accords have been broken.	Many earlier ceasefire accords have been broken.	250721665	1478713556490	1478713556586	a	65
490801	5281877	Many earlier ceasefire accords have been broken.	Many earlier ceasefire accords have been broken.	250721671	1478713556587	1478713556666	n	78
490801	5281877	Many earlier ceasefire accords have been broken.	Many earlier ceasefire accords have been broken.	250721677	1478713556746	1478713556810	y	89
490801	5281877	Many earlier ceasefire accords have been broken.	Many earlier ceasefire accords have been broken.	250721684	1478713556890	1478713556954	 	32
490801	5281877	Many earlier ceasefire accords have been broken.	Many earlier ceasefire accords have been broken.	250721721	1478713556956	1478713557034	e	69
490801	5281877	Many earlier ceasefire accords have been broken.	Many earlier ceasefire accords have been broken.	250721722	1478713557130	1478713557178	a	65
490801	5281877	Many earlier ceasefire accords have been broken.	Many earlier ceasefire accords have been broken.	250721723	1478713557290	1478713557370	r	82
490801	5281877	Many earlier ceasefire accords have been broken.	Many earlier ceasefire accords have been broken.	250721724	1478713557530	1478713557546	i	73
490801	5281877	Many earlier ceasefire accords have been broken.	Many earlier ceasefire accords have been broken.	250721725	1478713557834	1478713557914	BKSP	8
490801	5281877	Many earlier ceasefire accords have been broken.	Many earlier ceasefire accords have been broken.	250721726	1478713558106	1478713558170	l	76
490801	5281877	Many earlier ceasefire accords have been broken.	Many earlier ceasefire accords have been broken.	250721767	1478713558314	1478713558362	i	73
490801	5281877	Many earlier ceasefire accords have been broken.	Many earlier ceasefire accords have been broken.	250721770	1478713558378	1478713558426	e	69
490801	5281877	Many earlier ceasefire accords have been broken.	Many earlier ceasefire accords have been broken.	250721773	1478713558506	1478713558570	r	82
490801	5281877	Many earlier ceasefire accords have been broken.	Many earlier ceasefire accords have been broken.	250721775	1478713558602	1478713558666	 	32
490801	5281877	Many earlier ceasefire accords have been broken.	Many earlier ceasefire accords have been broken.	250721779	1478713558842	1478713558922	c	67
490801	5281877	Many earlier ceasefire accords have been broken.	Many earlier ceasefire accords have been broken.	250721809	1478713559034	1478713559098	e	69
490801	5281877	Many earlier ceasefire accords have been broken.	Many earlier ceasefire accords have been broken.	250721811	1478713559194	1478713559274	a	65
490801	5281877	Many earlier ceasefire accords have been broken.	Many earlier ceasefire accords have been broken.	250721813	1478713559354	1478713559402	s	83
490801	5281877	Many earlier ceasefire accords have been broken.	Many earlier ceasefire accords have been broken.	250721815	1478713559498	1478713559546	e	69
490801	5281877	Many earlier ceasefire accords have been broken.	Many earlier ceasefire accords have been broken.	250721818	1478713559658	1478713559722	f	70
490801	5281877	Many earlier ceasefire accords have been broken.	Many earlier ceasefire accords have been broken.	250721831	1478713559723	1478713559802	i	73
490801	5281877	Many earlier ceasefire accords have been broken.	Many earlier ceasefire accords have been broken.	250721833	1478713559834	1478713559898	r	82
490801	5281877	Many earlier ceasefire accords have been broken.	Many earlier ceasefire accords have been broken.	250721834	1478713559946	1478713560010	e	69
490801	5281877	Many earlier ceasefire accords have been broken.	Many earlier ceasefire accords have been broken.	250721836	1478713560058	1478713560106	 	32
490801	5281877	Many earlier ceasefire accords have been broken.	Many earlier ceasefire accords have been broken.	250721837	1478713560122	1478713560186	a	65
490801	5281877	Many earlier ceasefire accords have been broken.	Many earlier ceasefire accords have been broken.	250721876	1478713560314	1478713560378	c	67
490801	5281877	Many earlier ceasefire accords have been broken.	Many earlier ceasefire accords have been broken.	250721883	1478713560458	1478713560538	c	67
490801	5281877	Many earlier ceasefire accords have been broken.	Many earlier ceasefire accords have been broken.	250721889	1478713560523	1478713560602	o	79
490801	5281877	Many earlier ceasefire accords have been broken.	Many earlier ceasefire accords have been broken.	250721895	1478713560650	1478713560714	r	82
490801	5281877	Many earlier ceasefire accords have been broken.	Many earlier ceasefire accords have been broken.	250721940	1478713560986	1478713561050	s	83
490801	5281877	Many earlier ceasefire accords have been broken.	Many earlier ceasefire accords have been broken.	250721946	1478713561114	1478713561178	 	32
490801	5281877	Many earlier ceasefire accords have been broken.	Many earlier ceasefire accords have been broken.	250721954	1478713561258	1478713561322	h	72
490801	5281877	Many earlier ceasefire accords have been broken.	Many earlier ceasefire accords have been broken.	250721961	1478713561354	1478713561402	a	65
490801	5281877	Many earlier ceasefire accords have been broken.	Many earlier ceasefire accords have been broken.	250721967	1478713561417	1478713561482	v	86
490801	5281877	Many earlier ceasefire accords have been broken.	Many earlier ceasefire accords have been broken.	250721998	1478713561514	1478713561578	e	69
490801	5281877	Many earlier ceasefire accords have been broken.	Many earlier ceasefire accords have been broken.	250722002	1478713561578	1478713561642	 	32
490801	5281877	Many earlier ceasefire accords have been broken.	Many earlier ceasefire accords have been broken.	250722007	1478713561754	1478713561802	b	66
490801	5281877	Many earlier ceasefire accords have been broken.	Many earlier ceasefire accords have been broken.	250722013	1478713561817	1478713561866	e	69
490801	5281877	Many earlier ceasefire accords have been broken.	Many earlier ceasefire accords have been broken.	250722018	1478713561946	1478713562009	e	69
490801	5281877	Many earlier ceasefire accords have been broken.	Many earlier ceasefire accords have been broken.	250722102	1478713561978	1478713562058	n	78
490801	5281877	Many earlier ceasefire accords have been broken.	Many earlier ceasefire accords have been broken.	250722108	1478713562138	1478713562202	 	32
490801	5281877	Many earlier ceasefire accords have been broken.	Many earlier ceasefire accords have been broken.	250722112	1478713562554	1478713562617	b	66
490801	5281877	Many earlier ceasefire accords have been broken.	Many earlier ceasefire accords have been broken.	250722117	1478713562666	1478713562729	r	82
490801	5281877	Many earlier ceasefire accords have been broken.	Many earlier ceasefire accords have been broken.	250722122	1478713562761	1478713562825	o	79
490801	5281877	Many earlier ceasefire accords have been broken.	Many earlier ceasefire accords have been broken.	250722125	1478713562922	1478713563001	k	75
490801	5281877	Many earlier ceasefire accords have been broken.	Many earlier ceasefire accords have been broken.	250722135	1478713563017	1478713563082	e	69
490801	5281877	Many earlier ceasefire accords have been broken.	Many earlier ceasefire accords have been broken.	250722137	1478713563082	1478713563145	n	78
490801	5281877	Many earlier ceasefire accords have been broken.	Many earlier ceasefire accords have been broken.	250722145	1478713563290	1478713563353	.	190
490801	5281892	Diplomats are predicting that the embargo will remain in force.	Diplomats are predicting that the embargo will remain in force.	250722346	1478713565066	1478713565225	SHIFT	16
490801	5281892	Diplomats are predicting that the embargo will remain in force.	Diplomats are predicting that the embargo will remain in force.	250722502	1478713565177	1478713567529	D	68
490801	5281892	Diplomats are predicting that the embargo will remain in force.	Diplomats are predicting that the embargo will remain in force.	250722353	1478713565289	1478713565369	i	73
490801	5281892	Diplomats are predicting that the embargo will remain in force.	Diplomats are predicting that the embargo will remain in force.	250722356	1478713565481	1478713565545	p	80
490801	5281892	Diplomats are predicting that the embargo will remain in force.	Diplomats are predicting that the embargo will remain in force.	250722359	1478713565625	1478713565690	l	76
490801	5281892	Diplomats are predicting that the embargo will remain in force.	Diplomats are predicting that the embargo will remain in force.	250722363	1478713565769	1478713565849	o	79
490801	5281892	Diplomats are predicting that the embargo will remain in force.	Diplomats are predicting that the embargo will remain in force.	250722382	1478713565897	1478713565961	m	77
490801	5281892	Diplomats are predicting that the embargo will remain in force.	Diplomats are predicting that the embargo will remain in force.	250722386	1478713565962	1478713566025	a	65
490801	5281892	Diplomats are predicting that the embargo will remain in force.	Diplomats are predicting that the embargo will remain in force.	250722390	1478713566169	1478713566217	t	84
490801	5281892	Diplomats are predicting that the embargo will remain in force.	Diplomats are predicting that the embargo will remain in force.	250722393	1478713566346	1478713566393	s	83
490801	5281892	Diplomats are predicting that the embargo will remain in force.	Diplomats are predicting that the embargo will remain in force.	250722398	1478713566441	1478713566505	 	32
490801	5281892	Diplomats are predicting that the embargo will remain in force.	Diplomats are predicting that the embargo will remain in force.	250722439	1478713566553	1478713566634	a	65
490801	5281892	Diplomats are predicting that the embargo will remain in force.	Diplomats are predicting that the embargo will remain in force.	250722446	1478713566747	1478713566809	r	82
490801	5281892	Diplomats are predicting that the embargo will remain in force.	Diplomats are predicting that the embargo will remain in force.	250722453	1478713566873	1478713566937	e	69
490801	5281892	Diplomats are predicting that the embargo will remain in force.	Diplomats are predicting that the embargo will remain in force.	250722460	1478713566938	1478713566985	 	32
490801	5281892	Diplomats are predicting that the embargo will remain in force.	Diplomats are predicting that the embargo will remain in force.	250722465	1478713567081	1478713567145	p	80
490801	5281892	Diplomats are predicting that the embargo will remain in force.	Diplomats are predicting that the embargo will remain in force.	250722491	1478713567129	1478713567193	r	82
490801	5281892	Diplomats are predicting that the embargo will remain in force.	Diplomats are predicting that the embargo will remain in force.	250722497	1478713567257	1478713567337	e	69
490801	5281892	Diplomats are predicting that the embargo will remain in force.	Diplomats are predicting that the embargo will remain in force.	250722510	1478713567609	1478713567673	i	73
490801	5281892	Diplomats are predicting that the embargo will remain in force.	Diplomats are predicting that the embargo will remain in force.	250722516	1478713567689	1478713567769	c	67
490801	5281892	Diplomats are predicting that the embargo will remain in force.	Diplomats are predicting that the embargo will remain in force.	250722524	1478713567881	1478713567961	t	84
490801	5281892	Diplomats are predicting that the embargo will remain in force.	Diplomats are predicting that the embargo will remain in force.	250722545	1478713567963	1478713568025	i	73
490801	5281892	Diplomats are predicting that the embargo will remain in force.	Diplomats are predicting that the embargo will remain in force.	250722550	1478713568073	1478713568137	n	78
490801	5281892	Diplomats are predicting that the embargo will remain in force.	Diplomats are predicting that the embargo will remain in force.	250722556	1478713568153	1478713568217	g	71
490801	5281892	Diplomats are predicting that the embargo will remain in force.	Diplomats are predicting that the embargo will remain in force.	250722562	1478713568233	1478713568297	 	32
490801	5281892	Diplomats are predicting that the embargo will remain in force.	Diplomats are predicting that the embargo will remain in force.	250722567	1478713568377	1478713568441	t	84
490801	5281892	Diplomats are predicting that the embargo will remain in force.	Diplomats are predicting that the embargo will remain in force.	250722597	1478713568521	1478713568585	h	72
490801	5281892	Diplomats are predicting that the embargo will remain in force.	Diplomats are predicting that the embargo will remain in force.	250722602	1478713568601	1478713568665	a	65
490801	5281892	Diplomats are predicting that the embargo will remain in force.	Diplomats are predicting that the embargo will remain in force.	250722608	1478713568681	1478713568729	t	84
490801	5281892	Diplomats are predicting that the embargo will remain in force.	Diplomats are predicting that the embargo will remain in force.	250722613	1478713568793	1478713568857	 	32
490801	5281892	Diplomats are predicting that the embargo will remain in force.	Diplomats are predicting that the embargo will remain in force.	250722616	1478713568937	1478713569017	t	84
490801	5281892	Diplomats are predicting that the embargo will remain in force.	Diplomats are predicting that the embargo will remain in force.	250722637	1478713569097	1478713569161	h	72
490801	5281892	Diplomats are predicting that the embargo will remain in force.	Diplomats are predicting that the embargo will remain in force.	250722649	1478713569177	1478713569225	e	69
490801	5281892	Diplomats are predicting that the embargo will remain in force.	Diplomats are predicting that the embargo will remain in force.	250722659	1478713569226	1478713569289	 	32
490801	5281892	Diplomats are predicting that the embargo will remain in force.	Diplomats are predicting that the embargo will remain in force.	250722665	1478713569353	1478713569417	e	69
490801	5281892	Diplomats are predicting that the embargo will remain in force.	Diplomats are predicting that the embargo will remain in force.	250722672	1478713569465	1478713569513	m	77
490801	5281892	Diplomats are predicting that the embargo will remain in force.	Diplomats are predicting that the embargo will remain in force.	250722719	1478713569641	1478713569705	b	66
490801	5281892	Diplomats are predicting that the embargo will remain in force.	Diplomats are predicting that the embargo will remain in force.	250722720	1478713569737	1478713569801	a	65
490801	5281892	Diplomats are predicting that the embargo will remain in force.	Diplomats are predicting that the embargo will remain in force.	250722724	1478713569929	1478713569993	r	82
490801	5281892	Diplomats are predicting that the embargo will remain in force.	Diplomats are predicting that the embargo will remain in force.	250722729	1478713570105	1478713570169	g	71
490801	5281892	Diplomats are predicting that the embargo will remain in force.	Diplomats are predicting that the embargo will remain in force.	250722734	1478713570185	1478713570217	o	79
490801	5281892	Diplomats are predicting that the embargo will remain in force.	Diplomats are predicting that the embargo will remain in force.	250722757	1478713570313	1478713570361	 	32
490801	5281892	Diplomats are predicting that the embargo will remain in force.	Diplomats are predicting that the embargo will remain in force.	250722758	1478713570409	1478713570473	w	87
490801	5281892	Diplomats are predicting that the embargo will remain in force.	Diplomats are predicting that the embargo will remain in force.	250722760	1478713570474	1478713570553	i	73
490801	5281892	Diplomats are predicting that the embargo will remain in force.	Diplomats are predicting that the embargo will remain in force.	250722761	1478713570649	1478713570697	l	76
490801	5281892	Diplomats are predicting that the embargo will remain in force.	Diplomats are predicting that the embargo will remain in force.	250722762	1478713570777	1478713570825	l	76
490801	5281892	Diplomats are predicting that the embargo will remain in force.	Diplomats are predicting that the embargo will remain in force.	250722796	1478713570889	1478713570937	 	32
490801	5281892	Diplomats are predicting that the embargo will remain in force.	Diplomats are predicting that the embargo will remain in force.	250722800	1478713570969	1478713571033	r	82
490801	5281892	Diplomats are predicting that the embargo will remain in force.	Diplomats are predicting that the embargo will remain in force.	250722806	1478713571114	1478713571177	e	69
490801	5281892	Diplomats are predicting that the embargo will remain in force.	Diplomats are predicting that the embargo will remain in force.	250722811	1478713571225	1478713571305	m	77
490801	5281892	Diplomats are predicting that the embargo will remain in force.	Diplomats are predicting that the embargo will remain in force.	250722816	1478713571369	1478713571449	a	65
490801	5281892	Diplomats are predicting that the embargo will remain in force.	Diplomats are predicting that the embargo will remain in force.	250722845	1478713571433	1478713571513	i	73
490801	5281892	Diplomats are predicting that the embargo will remain in force.	Diplomats are predicting that the embargo will remain in force.	250722850	1478713571561	1478713571625	n	78
490801	5281892	Diplomats are predicting that the embargo will remain in force.	Diplomats are predicting that the embargo will remain in force.	250722856	1478713571705	1478713571769	 	32
490801	5281892	Diplomats are predicting that the embargo will remain in force.	Diplomats are predicting that the embargo will remain in force.	250722862	1478713571849	1478713571913	i	73
490801	5281892	Diplomats are predicting that the embargo will remain in force.	Diplomats are predicting that the embargo will remain in force.	250722869	1478713571929	1478713571993	n	78
490801	5281892	Diplomats are predicting that the embargo will remain in force.	Diplomats are predicting that the embargo will remain in force.	250722878	1478713572073	1478713572137	 	32
490801	5281892	Diplomats are predicting that the embargo will remain in force.	Diplomats are predicting that the embargo will remain in force.	250722906	1478713572105	1478713572185	f	70
490801	5281892	Diplomats are predicting that the embargo will remain in force.	Diplomats are predicting that the embargo will remain in force.	250722912	1478713572249	1478713572313	r	79
490801	5281892	Diplomats are predicting that the embargo will remain in force.	Diplomats are predicting that the embargo will remain in force.	250722917	1478713572441	1478713572505	c	67
490801	5281892	Diplomats are predicting that the embargo will remain in force.	Diplomats are predicting that the embargo will remain in force.	250722921	1478713572633	1478713572697	e	69
490801	5281892	Diplomats are predicting that the embargo will remain in force.	Diplomats are predicting that the embargo will remain in force.	250722925	1478713572698	1478713572729	.	190
490801	5281904	I have an AM doctor's appointment.	I have an AM doctor's appointment.	250723182	1478713574298	1478713574506	SHIFT	16
490801	5281904	I have an AM doctor's appointment.	I have an AM doctor's appointment.	250723179	1478713574426	1478713574490	O	73
490801	5281904	I have an AM doctor's appointment.	I have an AM doctor's appointment.	250723184	1478713574922	1478713574954	BKSP	8
490801	5281904	I have an AM doctor's appointment.	I have an AM doctor's appointment.	250723185	1478713575018	1478713575082	BKSP	8
490801	5281904	I have an AM doctor's appointment.	I have an AM doctor's appointment.	250723186	1478713575386	1478713575514	SHIFT	16
490801	5281904	I have an AM doctor's appointment.	I have an AM doctor's appointment.	250723187	1478713575466	1478713575530	I	73
490801	5281904	I have an AM doctor's appointment.	I have an AM doctor's appointment.	250723188	1478713575610	1478713575658	 	32
490801	5281904	I have an AM doctor's appointment.	I have an AM doctor's appointment.	250723190	1478713575754	1478713575818	h	72
490801	5281904	I have an AM doctor's appointment.	I have an AM doctor's appointment.	250723203	1478713575834	1478713575898	a	65
490801	5281904	I have an AM doctor's appointment.	I have an AM doctor's appointment.	250723207	1478713575899	1478713575962	v	86
490801	5281904	I have an AM doctor's appointment.	I have an AM doctor's appointment.	250723211	1478713576010	1478713576058	e	69
490801	5281904	I have an AM doctor's appointment.	I have an AM doctor's appointment.	250723214	1478713576090	1478713576138	 	32
490801	5281904	I have an AM doctor's appointment.	I have an AM doctor's appointment.	250723217	1478713576170	1478713576234	a	65
490801	5281904	I have an AM doctor's appointment.	I have an AM doctor's appointment.	250723242	1478713576250	1478713576314	n	78
490801	5281904	I have an AM doctor's appointment.	I have an AM doctor's appointment.	250723273	1478713576362	1478713576714	SHIFT	16
490801	5281904	I have an AM doctor's appointment.	I have an AM doctor's appointment.	250723247	1478713576410	1478713576426	 	32
490801	5281904	I have an AM doctor's appointment.	I have an AM doctor's appointment.	250723256	1478713576490	1478713576586	A	65
490801	5281904	I have an AM doctor's appointment.	I have an AM doctor's appointment.	250723264	1478713576602	1478713576666	M	77
490801	5281904	I have an AM doctor's appointment.	I have an AM doctor's appointment.	250723282	1478713576778	1478713576842	 	32
490801	5281904	I have an AM doctor's appointment.	I have an AM doctor's appointment.	250723338	1478713576986	1478713577050	SHIFT	16
490801	5281904	I have an AM doctor's appointment.	I have an AM doctor's appointment.	250723347	1478713577450	1478713577514	o	79
490801	5281904	I have an AM doctor's appointment.	I have an AM doctor's appointment.	250723352	1478713577530	1478713577594	c	67
490801	5281904	I have an AM doctor's appointment.	I have an AM doctor's appointment.	250723358	1478713577706	1478713577770	t	84
490801	5281904	I have an AM doctor's appointment.	I have an AM doctor's appointment.	250723361	1478713577770	1478713577834	o	79
490801	5281904	I have an AM doctor's appointment.	I have an AM doctor's appointment.	250723385	1478713577866	1478713577930	r	82
490801	5281904	I have an AM doctor's appointment.	I have an AM doctor's appointment.	250723391	1478713578026	1478713578090	'	222
490801	5281904	I have an AM doctor's appointment.	I have an AM doctor's appointment.	250723393	1478713578122	1478713578186	s	83
490801	5281904	I have an AM doctor's appointment.	I have an AM doctor's appointment.	250723398	1478713578250	1478713578298	 	32
490801	5281904	I have an AM doctor's appointment.	I have an AM doctor's appointment.	250723406	1478713578330	1478713578410	a	65
490801	5281904	I have an AM doctor's appointment.	I have an AM doctor's appointment.	250723430	1478713578458	1478713578522	p	80
490801	5281904	I have an AM doctor's appointment.	I have an AM doctor's appointment.	250723437	1478713578602	1478713578666	p	80
490801	5281904	I have an AM doctor's appointment.	I have an AM doctor's appointment.	250723444	1478713578746	1478713578810	o	79
490801	5281904	I have an AM doctor's appointment.	I have an AM doctor's appointment.	250723450	1478713578906	1478713578954	i	73
490801	5281904	I have an AM doctor's appointment.	I have an AM doctor's appointment.	250723456	1478713578986	1478713579050	n	78
490801	5281904	I have an AM doctor's appointment.	I have an AM doctor's appointment.	250723479	1478713579066	1478713579145	t	84
490801	5281904	I have an AM doctor's appointment.	I have an AM doctor's appointment.	250723486	1478713579194	1478713579242	m	77
490801	5281904	I have an AM doctor's appointment.	I have an AM doctor's appointment.	250723493	1478713579290	1478713579354	e	69
490801	5281904	I have an AM doctor's appointment.	I have an AM doctor's appointment.	250723500	1478713579355	1478713579402	n	78
490801	5281904	I have an AM doctor's appointment.	I have an AM doctor's appointment.	250723508	1478713579450	1478713579513	t	84
490801	5281904	I have an AM doctor's appointment.	I have an AM doctor's appointment.	250723503	1478713579561	1478713579609	.	190
