PARTICIPANT_ID	TEST_SECTION_ID	SENTENCE	USER_INPUT	KEYSTROKE_ID	PRESS_TIME	RELEASE_TIME	LETTER	KEYCODE
491871	5292711	Our advantages have been brought into fuller play.	our advantages have been brought into fuller play	251228420	1478721704436	1478721704610	o	79
491871	5292711	Our advantages have been brought into fuller play.	our advantages have been brought into fuller play	251228423	1478721704554	1478721704682	u	85
491871	5292711	Our advantages have been brought into fuller play.	our advantages have been brought into fuller play	251228426	1478721704745	1478721704818	r	82
491871	5292711	Our advantages have been brought into fuller play.	our advantages have been brought into fuller play	251228432	1478721704866	1478721704938	 	32
491871	5292711	Our advantages have been brought into fuller play.	our advantages have been brought into fuller play	251228439	1478721705001	1478721705105	a	65
491871	5292711	Our advantages have been brought into fuller play.	our advantages have been brought into fuller play	251228568	1478721705561	1478721705633	d	68
491871	5292711	Our advantages have been brought into fuller play.	our advantages have been brought into fuller play	251228570	1478721705978	1478721706034	v	86
491871	5292711	Our advantages have been brought into fuller play.	our advantages have been brought into fuller play	251228576	1478721706170	1478721706242	a	65
491871	5292711	Our advantages have been brought into fuller play.	our advantages have been brought into fuller play	251228579	1478721706354	1478721706426	n	78
491871	5292711	Our advantages have been brought into fuller play.	our advantages have been brought into fuller play	251228583	1478721706594	1478721706650	t	84
491871	5292711	Our advantages have been brought into fuller play.	our advantages have been brought into fuller play	251228620	1478721706778	1478721706874	a	65
491871	5292711	Our advantages have been brought into fuller play.	our advantages have been brought into fuller play	251228626	1478721706930	1478721707001	g	71
491871	5292711	Our advantages have been brought into fuller play.	our advantages have been brought into fuller play	251228632	1478721707033	1478721707129	e	69
491871	5292711	Our advantages have been brought into fuller play.	our advantages have been brought into fuller play	251228638	1478721707217	1478721707297	s	83
491871	5292711	Our advantages have been brought into fuller play.	our advantages have been brought into fuller play	251228644	1478721707386	1478721707466	 	32
491871	5292711	Our advantages have been brought into fuller play.	our advantages have been brought into fuller play	251228749	1478721707682	1478721707770	h	72
491871	5292711	Our advantages have been brought into fuller play.	our advantages have been brought into fuller play	251228752	1478721708010	1478721708098	a	65
491871	5292711	Our advantages have been brought into fuller play.	our advantages have been brought into fuller play	251228756	1478721708593	1478721708657	v	86
491871	5292711	Our advantages have been brought into fuller play.	our advantages have been brought into fuller play	251228758	1478721708721	1478721708817	e	69
491871	5292711	Our advantages have been brought into fuller play.	our advantages have been brought into fuller play	251228760	1478721708890	1478721708954	 	32
491871	5292711	Our advantages have been brought into fuller play.	our advantages have been brought into fuller play	251228860	1478721709530	1478721709602	b	66
491871	5292711	Our advantages have been brought into fuller play.	our advantages have been brought into fuller play	251228864	1478721709690	1478721709778	e	69
491871	5292711	Our advantages have been brought into fuller play.	our advantages have been brought into fuller play	251228868	1478721709865	1478721709953	e	69
491871	5292711	Our advantages have been brought into fuller play.	our advantages have been brought into fuller play	251228872	1478721710001	1478721710081	n	78
491871	5292711	Our advantages have been brought into fuller play.	our advantages have been brought into fuller play	251228875	1478721710129	1478721710201	 	32
491871	5292711	Our advantages have been brought into fuller play.	our advantages have been brought into fuller play	251228980	1478721710642	1478721710690	b	66
491871	5292711	Our advantages have been brought into fuller play.	our advantages have been brought into fuller play	251228984	1478721710882	1478721710962	r	82
491871	5292711	Our advantages have been brought into fuller play.	our advantages have been brought into fuller play	251228990	1478721711018	1478721711194	o	79
491871	5292711	Our advantages have been brought into fuller play.	our advantages have been brought into fuller play	251228998	1478721711146	1478721711265	u	85
491871	5292711	Our advantages have been brought into fuller play.	our advantages have been brought into fuller play	251229002	1478721711305	1478721711401	g	71
491871	5292711	Our advantages have been brought into fuller play.	our advantages have been brought into fuller play	251229075	1478721711441	1478721711514	h	72
491871	5292711	Our advantages have been brought into fuller play.	our advantages have been brought into fuller play	251229078	1478721711553	1478721711625	t	84
491871	5292711	Our advantages have been brought into fuller play.	our advantages have been brought into fuller play	251229082	1478721711705	1478721711785	 	32
491871	5292711	Our advantages have been brought into fuller play.	our advantages have been brought into fuller play	251229087	1478721712490	1478721712634	i	73
491871	5292711	Our advantages have been brought into fuller play.	our advantages have been brought into fuller play	251229145	1478721712562	1478721712666	n	78
491871	5292711	Our advantages have been brought into fuller play.	our advantages have been brought into fuller play	251229149	1478721712698	1478721712761	t	84
491871	5292711	Our advantages have been brought into fuller play.	our advantages have been brought into fuller play	251229153	1478721712802	1478721712882	o	79
491871	5292711	Our advantages have been brought into fuller play.	our advantages have been brought into fuller play	251229156	1478721712930	1478721713002	 	32
491871	5292711	Our advantages have been brought into fuller play.	our advantages have been brought into fuller play	251229161	1478721713130	1478721713161	f	70
491871	5292711	Our advantages have been brought into fuller play.	our advantages have been brought into fuller play	251229167	1478721713426	1478721713490	u	85
491871	5292711	Our advantages have been brought into fuller play.	our advantages have been brought into fuller play	251229208	1478721713642	1478721713714	l	76
491871	5292711	Our advantages have been brought into fuller play.	our advantages have been brought into fuller play	251229211	1478721713794	1478721713858	l	76
491871	5292711	Our advantages have been brought into fuller play.	our advantages have been brought into fuller play	251229218	1478721713906	1478721714082	e	69
491871	5292711	Our advantages have been brought into fuller play.	our advantages have been brought into fuller play	251229225	1478721714034	1478721714130	r	82
491871	5292711	Our advantages have been brought into fuller play.	our advantages have been brought into fuller play	251229232	1478721714146	1478721714218	 	32
491871	5292711	Our advantages have been brought into fuller play.	our advantages have been brought into fuller play	251229308	1478721714418	1478721714490	p	80
491871	5292711	Our advantages have been brought into fuller play.	our advantages have been brought into fuller play	251229318	1478721714577	1478721714649	l	76
491871	5292711	Our advantages have been brought into fuller play.	our advantages have been brought into fuller play	251229324	1478721714761	1478721714849	a	65
491871	5292711	Our advantages have been brought into fuller play.	our advantages have been brought into fuller play	251229329	1478721714890	1478721714970	y	89
491871	5292735	Binoche welcomed the movie industry to the French riviera.	Bionche welcomed the movie industry to the French riviera	251229637	1478721717298	1478721717410	CAPS_LOCK	20
491871	5292735	Binoche welcomed the movie industry to the French riviera.	Bionche welcomed the movie industry to the French riviera	251229640	1478721717465	1478721717554	B	66
491871	5292735	Binoche welcomed the movie industry to the French riviera.	Bionche welcomed the movie industry to the French riviera	251229644	1478721717618	1478721717689	CAPS_LOCK	20
491871	5292735	Binoche welcomed the movie industry to the French riviera.	Bionche welcomed the movie industry to the French riviera	251229649	1478721717769	1478721718050	i	73
491871	5292735	Binoche welcomed the movie industry to the French riviera.	Bionche welcomed the movie industry to the French riviera	251229650	1478721717898	1478721718082	o	79
491871	5292735	Binoche welcomed the movie industry to the French riviera.	Bionche welcomed the movie industry to the French riviera	251229654	1478721718043	1478721718162	n	78
491871	5292735	Binoche welcomed the movie industry to the French riviera.	Bionche welcomed the movie industry to the French riviera	251229657	1478721718354	1478721718450	c	67
491871	5292735	Binoche welcomed the movie industry to the French riviera.	Bionche welcomed the movie industry to the French riviera	251229790	1478721718634	1478721718674	h	74
491871	5292735	Binoche welcomed the movie industry to the French riviera.	Bionche welcomed the movie industry to the French riviera	251229794	1478721719305	1478721719410	BKSP	8
491871	5292735	Binoche welcomed the movie industry to the French riviera.	Bionche welcomed the movie industry to the French riviera	251229798	1478721719754	1478721719834	BKSP	8
491871	5292735	Binoche welcomed the movie industry to the French riviera.	Bionche welcomed the movie industry to the French riviera	251229803	1478721720289	1478721720354	h	72
491871	5292735	Binoche welcomed the movie industry to the French riviera.	Bionche welcomed the movie industry to the French riviera	251229810	1478721720425	1478721720482	e	69
491871	5292735	Binoche welcomed the movie industry to the French riviera.	Bionche welcomed the movie industry to the French riviera	251229820	1478721720578	1478721720633	 	32
491871	5292735	Binoche welcomed the movie industry to the French riviera.	Bionche welcomed the movie industry to the French riviera	251229900	1478721720922	1478721721002	w	87
491871	5292735	Binoche welcomed the movie industry to the French riviera.	Bionche welcomed the movie industry to the French riviera	251229904	1478721721114	1478721721186	e	69
491871	5292735	Binoche welcomed the movie industry to the French riviera.	Bionche welcomed the movie industry to the French riviera	251229908	1478721721298	1478721721370	l	76
491871	5292735	Binoche welcomed the movie industry to the French riviera.	Bionche welcomed the movie industry to the French riviera	251229912	1478721721482	1478721721554	c	67
491871	5292735	Binoche welcomed the movie industry to the French riviera.	Bionche welcomed the movie industry to the French riviera	251229913	1478721721658	1478721721825	o	79
491871	5292735	Binoche welcomed the movie industry to the French riviera.	Bionche welcomed the movie industry to the French riviera	251229964	1478721721802	1478721721898	m	77
491871	5292735	Binoche welcomed the movie industry to the French riviera.	Bionche welcomed the movie industry to the French riviera	251229970	1478721721937	1478721722010	e	69
491871	5292735	Binoche welcomed the movie industry to the French riviera.	Bionche welcomed the movie industry to the French riviera	251229976	1478721722161	1478721722233	d	68
491871	5292735	Binoche welcomed the movie industry to the French riviera.	Bionche welcomed the movie industry to the French riviera	251229978	1478721722305	1478721722401	 	32
491871	5292735	Binoche welcomed the movie industry to the French riviera.	Bionche welcomed the movie industry to the French riviera	251229983	1478721722514	1478721722618	t	84
491871	5292735	Binoche welcomed the movie industry to the French riviera.	Bionche welcomed the movie industry to the French riviera	251229987	1478721722658	1478721722746	h	72
491871	5292735	Binoche welcomed the movie industry to the French riviera.	Bionche welcomed the movie industry to the French riviera	251230109	1478721722794	1478721722874	e	69
491871	5292735	Binoche welcomed the movie industry to the French riviera.	Bionche welcomed the movie industry to the French riviera	251230114	1478721722890	1478721722986	 	32
491871	5292735	Binoche welcomed the movie industry to the French riviera.	Bionche welcomed the movie industry to the French riviera	251230121	1478721723241	1478721723314	m	77
491871	5292735	Binoche welcomed the movie industry to the French riviera.	Bionche welcomed the movie industry to the French riviera	251230127	1478721723465	1478721723538	o	79
491871	5292735	Binoche welcomed the movie industry to the French riviera.	Bionche welcomed the movie industry to the French riviera	251230133	1478721724138	1478721724218	v	86
491871	5292735	Binoche welcomed the movie industry to the French riviera.	Bionche welcomed the movie industry to the French riviera	251230250	1478721724378	1478721724442	i	73
491871	5292735	Binoche welcomed the movie industry to the French riviera.	Bionche welcomed the movie industry to the French riviera	251230251	1478721724778	1478721724874	e	69
491871	5292735	Binoche welcomed the movie industry to the French riviera.	Bionche welcomed the movie industry to the French riviera	251230254	1478721724921	1478721725009	 	32
491871	5292735	Binoche welcomed the movie industry to the French riviera.	Bionche welcomed the movie industry to the French riviera	251230258	1478721726017	1478721726186	i	73
491871	5292735	Binoche welcomed the movie industry to the French riviera.	Bionche welcomed the movie industry to the French riviera	251230313	1478721726114	1478721726225	n	78
491871	5292735	Binoche welcomed the movie industry to the French riviera.	Bionche welcomed the movie industry to the French riviera	251230320	1478721726289	1478721726362	d	68
491871	5292735	Binoche welcomed the movie industry to the French riviera.	Bionche welcomed the movie industry to the French riviera	251230326	1478721726450	1478721726529	u	85
491871	5292735	Binoche welcomed the movie industry to the French riviera.	Bionche welcomed the movie industry to the French riviera	251230331	1478721726593	1478721726689	s	83
491871	5292735	Binoche welcomed the movie industry to the French riviera.	Bionche welcomed the movie industry to the French riviera	251230339	1478721726737	1478721726825	t	84
491871	5292735	Binoche welcomed the movie industry to the French riviera.	Bionche welcomed the movie industry to the French riviera	251230343	1478721726897	1478721726994	r	82
491871	5292735	Binoche welcomed the movie industry to the French riviera.	Bionche welcomed the movie industry to the French riviera	251230439	1478721727018	1478721727122	y	89
491871	5292735	Binoche welcomed the movie industry to the French riviera.	Bionche welcomed the movie industry to the French riviera	251230444	1478721727154	1478721727250	 	32
491871	5292735	Binoche welcomed the movie industry to the French riviera.	Bionche welcomed the movie industry to the French riviera	251230448	1478721728225	1478721728377	t	84
491871	5292735	Binoche welcomed the movie industry to the French riviera.	Bionche welcomed the movie industry to the French riviera	251230453	1478721728353	1478721728449	o	79
491871	5292735	Binoche welcomed the movie industry to the French riviera.	Bionche welcomed the movie industry to the French riviera	251230537	1478721728441	1478721728554	 	32
491871	5292735	Binoche welcomed the movie industry to the French riviera.	Bionche welcomed the movie industry to the French riviera	251230540	1478721728642	1478721728730	t	84
491871	5292735	Binoche welcomed the movie industry to the French riviera.	Bionche welcomed the movie industry to the French riviera	251230545	1478721728754	1478721728843	h	72
491871	5292735	Binoche welcomed the movie industry to the French riviera.	Bionche welcomed the movie industry to the French riviera	251230550	1478721728866	1478721728970	e	69
491871	5292735	Binoche welcomed the movie industry to the French riviera.	Bionche welcomed the movie industry to the French riviera	251230554	1478721729009	1478721729098	 	32
491871	5292735	Binoche welcomed the movie industry to the French riviera.	Bionche welcomed the movie industry to the French riviera	251230558	1478721729402	1478721729513	CAPS_LOCK	20
491871	5292735	Binoche welcomed the movie industry to the French riviera.	Bionche welcomed the movie industry to the French riviera	251230562	1478721729610	1478721729689	F	70
491871	5292735	Binoche welcomed the movie industry to the French riviera.	Bionche welcomed the movie industry to the French riviera	251230629	1478721729730	1478721729817	CAPS_LOCK	20
491871	5292735	Binoche welcomed the movie industry to the French riviera.	Bionche welcomed the movie industry to the French riviera	251230634	1478721729881	1478721729970	r	82
491871	5292735	Binoche welcomed the movie industry to the French riviera.	Bionche welcomed the movie industry to the French riviera	251230638	1478721730034	1478721730122	e	69
491871	5292735	Binoche welcomed the movie industry to the French riviera.	Bionche welcomed the movie industry to the French riviera	251230643	1478721730298	1478721730370	n	78
491871	5292735	Binoche welcomed the movie industry to the French riviera.	Bionche welcomed the movie industry to the French riviera	251230647	1478721730442	1478721730546	c	67
491871	5292735	Binoche welcomed the movie industry to the French riviera.	Bionche welcomed the movie industry to the French riviera	251230651	1478721730561	1478721730649	h	72
491871	5292735	Binoche welcomed the movie industry to the French riviera.	Bionche welcomed the movie industry to the French riviera	251230790	1478721730673	1478721730769	 	32
491871	5292735	Binoche welcomed the movie industry to the French riviera.	Bionche welcomed the movie industry to the French riviera	251230796	1478721731562	1478721731641	r	82
491871	5292735	Binoche welcomed the movie industry to the French riviera.	Bionche welcomed the movie industry to the French riviera	251230809	1478721731705	1478721731769	i	73
491871	5292735	Binoche welcomed the movie industry to the French riviera.	Bionche welcomed the movie industry to the French riviera	251230820	1478721732009	1478721732097	v	86
491871	5292735	Binoche welcomed the movie industry to the French riviera.	Bionche welcomed the movie industry to the French riviera	251230835	1478721732153	1478721732217	i	73
491871	5292735	Binoche welcomed the movie industry to the French riviera.	Bionche welcomed the movie industry to the French riviera	251230959	1478721733138	1478721733314	e	69
491871	5292735	Binoche welcomed the movie industry to the French riviera.	Bionche welcomed the movie industry to the French riviera	251230967	1478721733290	1478721733418	r	82
491871	5292735	Binoche welcomed the movie industry to the French riviera.	Bionche welcomed the movie industry to the French riviera	251230974	1478721733474	1478721733578	a	65
491871	5292764	Jim please confirm to Vince you are happy.	Jim please confirm to Vince you are happy	251231208	1478721735098	1478721735209	CAPS_LOCK	20
491871	5292764	Jim please confirm to Vince you are happy.	Jim please confirm to Vince you are happy	251231211	1478721735497	1478721735577	J	74
491871	5292764	Jim please confirm to Vince you are happy.	Jim please confirm to Vince you are happy	251231214	1478721735618	1478721735705	CAPS_LOCK	20
491871	5292764	Jim please confirm to Vince you are happy.	Jim please confirm to Vince you are happy	251231218	1478721735793	1478721735985	i	73
491871	5292764	Jim please confirm to Vince you are happy.	Jim please confirm to Vince you are happy	251231221	1478721735937	1478721736050	m	77
491871	5292764	Jim please confirm to Vince you are happy.	Jim please confirm to Vince you are happy	251231224	1478721736066	1478721736162	 	32
491871	5292764	Jim please confirm to Vince you are happy.	Jim please confirm to Vince you are happy	251231227	1478721736562	1478721736657	p	80
491871	5292764	Jim please confirm to Vince you are happy.	Jim please confirm to Vince you are happy	251231258	1478721736745	1478721736833	l	76
491871	5292764	Jim please confirm to Vince you are happy.	Jim please confirm to Vince you are happy	251231261	1478721736905	1478721736993	e	69
491871	5292764	Jim please confirm to Vince you are happy.	Jim please confirm to Vince you are happy	251231267	1478721737097	1478721737289	a	65
491871	5292764	Jim please confirm to Vince you are happy.	Jim please confirm to Vince you are happy	251231273	1478721737233	1478721737393	s	83
491871	5292764	Jim please confirm to Vince you are happy.	Jim please confirm to Vince you are happy	251231281	1478721737401	1478721737513	e	69
491871	5292764	Jim please confirm to Vince you are happy.	Jim please confirm to Vince you are happy	251231336	1478721737505	1478721737610	 	32
491871	5292764	Jim please confirm to Vince you are happy.	Jim please confirm to Vince you are happy	251231339	1478721737706	1478721737777	c	67
491871	5292764	Jim please confirm to Vince you are happy.	Jim please confirm to Vince you are happy	251231341	1478721737810	1478721738065	o	79
491871	5292764	Jim please confirm to Vince you are happy.	Jim please confirm to Vince you are happy	251231346	1478721738002	1478721738113	n	78
491871	5292764	Jim please confirm to Vince you are happy.	Jim please confirm to Vince you are happy	251231352	1478721738562	1478721738657	f	70
491871	5292764	Jim please confirm to Vince you are happy.	Jim please confirm to Vince you are happy	251231361	1478721738745	1478721738865	i	73
491871	5292764	Jim please confirm to Vince you are happy.	Jim please confirm to Vince you are happy	251231412	1478721738952	1478721739041	r	82
491871	5292764	Jim please confirm to Vince you are happy.	Jim please confirm to Vince you are happy	251231416	1478721739082	1478721739185	m	77
491871	5292764	Jim please confirm to Vince you are happy.	Jim please confirm to Vince you are happy	251231422	1478721739170	1478721739305	 	32
491871	5292764	Jim please confirm to Vince you are happy.	Jim please confirm to Vince you are happy	251231425	1478721739690	1478721739801	t	84
491871	5292764	Jim please confirm to Vince you are happy.	Jim please confirm to Vince you are happy	251231432	1478721739849	1478721739945	o	79
491871	5292764	Jim please confirm to Vince you are happy.	Jim please confirm to Vince you are happy	251231530	1478721739961	1478721740081	 	32
491871	5292764	Jim please confirm to Vince you are happy.	Jim please confirm to Vince you are happy	251231533	1478721740265	1478721740361	CAPS_LOCK	20
491871	5292764	Jim please confirm to Vince you are happy.	Jim please confirm to Vince you are happy	251231539	1478721740377	1478721740457	V	86
491871	5292764	Jim please confirm to Vince you are happy.	Jim please confirm to Vince you are happy	251231545	1478721740521	1478721740618	CAPS_LOCK	20
491871	5292764	Jim please confirm to Vince you are happy.	Jim please confirm to Vince you are happy	251231552	1478721740745	1478721740913	i	73
491871	5292764	Jim please confirm to Vince you are happy.	Jim please confirm to Vince you are happy	251231558	1478721740881	1478721740969	n	78
491871	5292764	Jim please confirm to Vince you are happy.	Jim please confirm to Vince you are happy	251231566	1478721741177	1478721741377	c	67
491871	5292764	Jim please confirm to Vince you are happy.	Jim please confirm to Vince you are happy	251231695	1478721741305	1478721741425	e	69
491871	5292764	Jim please confirm to Vince you are happy.	Jim please confirm to Vince you are happy	251231700	1478721741457	1478721741577	 	32
491871	5292764	Jim please confirm to Vince you are happy.	Jim please confirm to Vince you are happy	251231703	1478721742458	1478721742578	y	89
491871	5292764	Jim please confirm to Vince you are happy.	Jim please confirm to Vince you are happy	251231707	1478721742617	1478721742777	o	79
491871	5292764	Jim please confirm to Vince you are happy.	Jim please confirm to Vince you are happy	251231713	1478721742729	1478721742865	u	85
491871	5292764	Jim please confirm to Vince you are happy.	Jim please confirm to Vince you are happy	251231720	1478721742881	1478721742977	 	32
491871	5292764	Jim please confirm to Vince you are happy.	Jim please confirm to Vince you are happy	251231766	1478721743065	1478721743177	a	65
491871	5292764	Jim please confirm to Vince you are happy.	Jim please confirm to Vince you are happy	251231772	1478721743233	1478721743361	r	82
491871	5292764	Jim please confirm to Vince you are happy.	Jim please confirm to Vince you are happy	251231782	1478721743409	1478721743505	e	69
491871	5292764	Jim please confirm to Vince you are happy.	Jim please confirm to Vince you are happy	251231793	1478721743537	1478721743650	 	32
491871	5292764	Jim please confirm to Vince you are happy.	Jim please confirm to Vince you are happy	251231801	1478721743785	1478721743858	h	72
491871	5292764	Jim please confirm to Vince you are happy.	Jim please confirm to Vince you are happy	251231883	1478721743890	1478721743986	a	65
491871	5292764	Jim please confirm to Vince you are happy.	Jim please confirm to Vince you are happy	251231887	1478721744074	1478721744121	o	79
491871	5292764	Jim please confirm to Vince you are happy.	Jim please confirm to Vince you are happy	251231892	1478721744257	1478721744297	p	80
491871	5292764	Jim please confirm to Vince you are happy.	Jim please confirm to Vince you are happy	251231899	1478721744529	1478721744601	BKSP	8
491871	5292764	Jim please confirm to Vince you are happy.	Jim please confirm to Vince you are happy	251231908	1478721744673	1478721744737	BKSP	8
491871	5292764	Jim please confirm to Vince you are happy.	Jim please confirm to Vince you are happy	251231913	1478721744817	1478721744889	p	80
491871	5292764	Jim please confirm to Vince you are happy.	Jim please confirm to Vince you are happy	251231919	1478721745017	1478721745082	p	80
491871	5292764	Jim please confirm to Vince you are happy.	Jim please confirm to Vince you are happy	251231903	1478721745114	1478721745202	y	89
491871	5292789	I think these will be just fine.	I think these will be just fine	251232075	1478721746442	1478721746561	CAPS_LOCK	20
491871	5292789	I think these will be just fine.	I think these will be just fine	251232078	1478721746785	1478721746841	I	73
491871	5292789	I think these will be just fine.	I think these will be just fine	251232080	1478721746946	1478721747097	CAPS_LOCK	20
491871	5292789	I think these will be just fine.	I think these will be just fine	251232082	1478721747161	1478721747265	 	32
491871	5292789	I think these will be just fine.	I think these will be just fine	251232084	1478721747377	1478721747457	t	84
491871	5292789	I think these will be just fine.	I think these will be just fine	251232085	1478721747504	1478721747673	h	72
491871	5292789	I think these will be just fine.	I think these will be just fine	251232149	1478721747633	1478721747761	i	73
491871	5292789	I think these will be just fine.	I think these will be just fine	251232153	1478721747825	1478721747992	n	78
491871	5292789	I think these will be just fine.	I think these will be just fine	251232158	1478721747944	1478721748064	k	75
491871	5292789	I think these will be just fine.	I think these will be just fine	251232161	1478721748048	1478721748146	 	32
491871	5292789	I think these will be just fine.	I think these will be just fine	251232164	1478721748897	1478721748977	t	84
491871	5292789	I think these will be just fine.	I think these will be just fine	251232168	1478721749009	1478721749104	h	72
491871	5292789	I think these will be just fine.	I think these will be just fine	251232207	1478721749201	1478721749281	e	69
491871	5292789	I think these will be just fine.	I think these will be just fine	251232212	1478721749409	1478721749577	s	83
491871	5292789	I think these will be just fine.	I think these will be just fine	251232215	1478721749552	1478721749681	e	69
491871	5292789	I think these will be just fine.	I think these will be just fine	251232221	1478721749698	1478721749793	 	32
491871	5292789	I think these will be just fine.	I think these will be just fine	251232227	1478721749849	1478721749945	w	87
491871	5292789	I think these will be just fine.	I think these will be just fine	251232262	1478721750009	1478721750097	i	73
491871	5292789	I think these will be just fine.	I think these will be just fine	251232268	1478721750329	1478721750393	l	76
491871	5292789	I think these will be just fine.	I think these will be just fine	251232273	1478721750465	1478721750529	l	76
491871	5292789	I think these will be just fine.	I think these will be just fine	251232278	1478721750553	1478721750665	 	32
491871	5292789	I think these will be just fine.	I think these will be just fine	251232283	1478721750761	1478721750817	b	66
491871	5292789	I think these will be just fine.	I think these will be just fine	251232342	1478721750857	1478721750945	e	69
491871	5292789	I think these will be just fine.	I think these will be just fine	251232350	1478721751009	1478721751073	 	32
491871	5292789	I think these will be just fine.	I think these will be just fine	251232360	1478721751210	1478721751281	j	74
491871	5292789	I think these will be just fine.	I think these will be just fine	251232368	1478721751369	1478721751441	u	85
491871	5292789	I think these will be just fine.	I think these will be just fine	251232375	1478721751513	1478721751641	s	83
491871	5292789	I think these will be just fine.	I think these will be just fine	251232427	1478721751825	1478721751913	 	32
491871	5292789	I think these will be just fine.	I think these will be just fine	251232431	1478721752033	1478721752105	f	70
491871	5292789	I think these will be just fine.	I think these will be just fine	251232440	1478721752209	1478721752385	i	73
491871	5292789	I think these will be just fine.	I think these will be just fine	251232449	1478721752464	1478721752536	n	78
491871	5292789	I think these will be just fine.	I think these will be just fine	251232649	1478721752529	1478721752618	e	69
491871	5292789	I think these will be just fine.	I think these will be just fine	251232652	1478721753322	1478721753393	ARW_LEFT	37
491871	5292789	I think these will be just fine.	I think these will be just fine	251232656	1478721753489	1478721753529	ARW_LEFT	37
491871	5292789	I think these will be just fine.	I think these will be just fine	251232661	1478721753633	1478721753697	ARW_LEFT	37
491871	5292789	I think these will be just fine.	I think these will be just fine	251232667	1478721753777	1478721753841	ARW_LEFT	37
491871	5292789	I think these will be just fine.	I think these will be just fine	251232675	1478721753937	1478721753985	ARW_LEFT	37
491871	5292789	I think these will be just fine.	I think these will be just fine	251232682	1478721754729	1478721754793	t	84
491871	5292807	What is the shower at Patsy's for?	What is the shower at Patsy's for? 	251232890	1478721756458	1478721756577	CAPS_LOCK	20
491871	5292807	What is the shower at Patsy's for?	What is the shower at Patsy's for? 	251232897	1478721756713	1478721756865	W	87
491871	5292807	What is the shower at Patsy's for?	What is the shower at Patsy's for? 	251232900	1478721756842	1478721756929	CAPS_LOCK	20
491871	5292807	What is the shower at Patsy's for?	What is the shower at Patsy's for? 	251232904	1478721757040	1478721757121	h	72
491871	5292807	What is the shower at Patsy's for?	What is the shower at Patsy's for? 	251232910	1478721757193	1478721757258	a	65
491871	5292807	What is the shower at Patsy's for?	What is the shower at Patsy's for? 	251233049	1478721757305	1478721757369	r	84
491871	5292807	What is the shower at Patsy's for?	What is the shower at Patsy's for? 	251233051	1478721757409	1478721757497	 	32
491871	5292807	What is the shower at Patsy's for?	What is the shower at Patsy's for? 	251233053	1478721757857	1478721757913	BKSP	8
491871	5292807	What is the shower at Patsy's for?	What is the shower at Patsy's for? 	251233062	1478721758017	1478721758081	BKSP	8
491871	5292807	What is the shower at Patsy's for?	What is the shower at Patsy's for? 	251233067	1478721758201	1478721758281	 	32
491871	5292807	What is the shower at Patsy's for?	What is the shower at Patsy's for? 	251233076	1478721758674	1478721758729	i	73
491871	5292807	What is the shower at Patsy's for?	What is the shower at Patsy's for? 	251233083	1478721758849	1478721758897	s	83
491871	5292807	What is the shower at Patsy's for?	What is the shower at Patsy's for? 	251233090	1478721758970	1478721759025	 	32
491871	5292807	What is the shower at Patsy's for?	What is the shower at Patsy's for? 	251233178	1478721759433	1478721759465	s	83
491871	5292807	What is the shower at Patsy's for?	What is the shower at Patsy's for? 	251233182	1478721759833	1478721759896	BKSP	8
491871	5292807	What is the shower at Patsy's for?	What is the shower at Patsy's for? 	251233184	1478721759977	1478721760041	t	84
491871	5292807	What is the shower at Patsy's for?	What is the shower at Patsy's for? 	251233186	1478721760105	1478721760178	h	72
491871	5292807	What is the shower at Patsy's for?	What is the shower at Patsy's for? 	251233188	1478721760201	1478721760274	e	69
491871	5292807	What is the shower at Patsy's for?	What is the shower at Patsy's for? 	251233190	1478721760354	1478721760417	 	32
491871	5292807	What is the shower at Patsy's for?	What is the shower at Patsy's for? 	251233268	1478721760521	1478721760617	s	83
491871	5292807	What is the shower at Patsy's for?	What is the shower at Patsy's for? 	251233271	1478721760985	1478721761089	h	72
491871	5292807	What is the shower at Patsy's for?	What is the shower at Patsy's for? 	251233272	1478721761201	1478721761273	o	79
491871	5292807	What is the shower at Patsy's for?	What is the shower at Patsy's for? 	251233273	1478721761417	1478721761681	w	87
491871	5292807	What is the shower at Patsy's for?	What is the shower at Patsy's for? 	251233331	1478721761617	1478721761737	e	69
491871	5292807	What is the shower at Patsy's for?	What is the shower at Patsy's for? 	251233338	1478721761825	1478721761905	r	82
491871	5292807	What is the shower at Patsy's for?	What is the shower at Patsy's for? 	251233342	1478721761969	1478721762057	 	32
491871	5292807	What is the shower at Patsy's for?	What is the shower at Patsy's for? 	251233346	1478721762113	1478721762201	a	65
491871	5292807	What is the shower at Patsy's for?	What is the shower at Patsy's for? 	251233351	1478721762689	1478721762753	t	84
491871	5292807	What is the shower at Patsy's for?	What is the shower at Patsy's for? 	251233354	1478721762793	1478721762889	 	32
491871	5292807	What is the shower at Patsy's for?	What is the shower at Patsy's for? 	251233522	1478721762985	1478721763056	CAPS_LOCK	20
491871	5292807	What is the shower at Patsy's for?	What is the shower at Patsy's for? 	251233523	1478721763144	1478721763225	P	80
491871	5292807	What is the shower at Patsy's for?	What is the shower at Patsy's for? 	251233525	1478721763297	1478721763377	CAPS_LOCK	20
491871	5292807	What is the shower at Patsy's for?	What is the shower at Patsy's for? 	251233528	1478721763545	1478721763609	a	65
491871	5292807	What is the shower at Patsy's for?	What is the shower at Patsy's for? 	251233531	1478721764064	1478721764145	t	84
491871	5292807	What is the shower at Patsy's for?	What is the shower at Patsy's for? 	251233533	1478721764193	1478721764281	y	89
491871	5292807	What is the shower at Patsy's for?	What is the shower at Patsy's for? 	251233535	1478721765689	1478721765720	/	191
491871	5292807	What is the shower at Patsy's for?	What is the shower at Patsy's for? 	251233804	1478721765920	1478721765993	s	83
491871	5292807	What is the shower at Patsy's for?	What is the shower at Patsy's for? 	251233810	1478721766249	1478721766305	BKSP	8
491871	5292807	What is the shower at Patsy's for?	What is the shower at Patsy's for? 	251233814	1478721766393	1478721766473	BKSP	8
491871	5292807	What is the shower at Patsy's for?	What is the shower at Patsy's for? 	251233818	1478721766889	1478721766945	BKSP	8
491871	5292807	What is the shower at Patsy's for?	What is the shower at Patsy's for? 	251233826	1478721767665	1478721767777	s	83
491871	5292807	What is the shower at Patsy's for?	What is the shower at Patsy's for? 	251233833	1478721767921	1478721768001	t	84
491871	5292807	What is the shower at Patsy's for?	What is the shower at Patsy's for? 	251233838	1478721768425	1478721768497	;	186
491871	5292807	What is the shower at Patsy's for?	What is the shower at Patsy's for? 	251233845	1478721768553	1478721768641	s	83
491871	5292807	What is the shower at Patsy's for?	What is the shower at Patsy's for? 	251234110	1478721769009	1478721769081	INSERT	45
491871	5292807	What is the shower at Patsy's for?	What is the shower at Patsy's for? 	251234116	1478721769184	1478721769281	BKSP	8
491871	5292807	What is the shower at Patsy's for?	What is the shower at Patsy's for? 	251234130	1478721769385	1478721769433	BKSP	8
491871	5292807	What is the shower at Patsy's for?	What is the shower at Patsy's for? 	251234136	1478721769593	1478721769649	'	192
491871	5292807	What is the shower at Patsy's for?	What is the shower at Patsy's for? 	251234143	1478721769713	1478721769824	s	83
491871	5292807	What is the shower at Patsy's for?	What is the shower at Patsy's for? 	251234146	1478721769921	1478721770001	 	32
491871	5292807	What is the shower at Patsy's for?	What is the shower at Patsy's for? 	251234149	1478721770433	1478721770504	BKSP	8
491871	5292807	What is the shower at Patsy's for?	What is the shower at Patsy's for? 	251234153	1478721770601	1478721770672	BKSP	8
491871	5292807	What is the shower at Patsy's for?	What is the shower at Patsy's for? 	251234161	1478721770769	1478721770841	BKSP	8
491871	5292807	What is the shower at Patsy's for?	What is the shower at Patsy's for? 	251234168	1478721771529	1478721771569	y	89
491871	5292807	What is the shower at Patsy's for?	What is the shower at Patsy's for? 	251234173	1478721772176	1478721772233	'	192
491871	5292807	What is the shower at Patsy's for?	What is the shower at Patsy's for? 	251234769	1478721772265	1478721772401	s	83
491871	5292807	What is the shower at Patsy's for?	What is the shower at Patsy's for? 	251234771	1478721772417	1478721772497	 	32
491871	5292807	What is the shower at Patsy's for?	What is the shower at Patsy's for? 	251234773	1478721776729	1478721776810	ARW_LEFT	37
491871	5292807	What is the shower at Patsy's for?	What is the shower at Patsy's for? 	251234777	1478721776905	1478721776985	ARW_LEFT	37
491871	5292807	What is the shower at Patsy's for?	What is the shower at Patsy's for? 	251234781	1478721777057	1478721777153	ARW_LEFT	37
491871	5292807	What is the shower at Patsy's for?	What is the shower at Patsy's for? 	251234784	1478721777233	1478721777297	ARW_LEFT	37
491871	5292807	What is the shower at Patsy's for?	What is the shower at Patsy's for? 	251234790	1478721777705	1478721777769	BKSP	8
491871	5292807	What is the shower at Patsy's for?	What is the shower at Patsy's for? 	251234797	1478721777969	1478721778065	ARW_RIGHT	39
491871	5292807	What is the shower at Patsy's for?	What is the shower at Patsy's for? 	251234800	1478721778273	1478721778369	ARW_RIGHT	39
491871	5292807	What is the shower at Patsy's for?	What is the shower at Patsy's for? 	251234802	1478721778465	1478721778545	ARW_RIGHT	39
491871	5292807	What is the shower at Patsy's for?	What is the shower at Patsy's for? 	251234804	1478721778824	1478721778921	 	32
491871	5292807	What is the shower at Patsy's for?	What is the shower at Patsy's for? 	251234806	1478721779913	1478721779961	f	70
491871	5292807	What is the shower at Patsy's for?	What is the shower at Patsy's for? 	251234810	1478721780104	1478721780177	o	79
491871	5292807	What is the shower at Patsy's for?	What is the shower at Patsy's for? 	251234808	1478721780233	1478721780288	r	82
491871	5292807	What is the shower at Patsy's for?	What is the shower at Patsy's for? 	251234811	1478721780449	1478721780592	SHIFT	16
491871	5292807	What is the shower at Patsy's for?	What is the shower at Patsy's for? 	251234813	1478721780537	1478721780624	?	191
491871	5292854	Seems unusual to me.	Seems unusual to me.	251235004	1478721782361	1478721782472	CAPS_LOCK	20
491871	5292854	Seems unusual to me.	Seems unusual to me.	251235008	1478721782584	1478721782672	S	83
491871	5292854	Seems unusual to me.	Seems unusual to me.	251235013	1478721782905	1478721782985	E	69
491871	5292854	Seems unusual to me.	Seems unusual to me.	251235021	1478721783393	1478721783473	BKSP	8
491871	5292854	Seems unusual to me.	Seems unusual to me.	251235027	1478721783514	1478721783617	CAPS_LOCK	20
491871	5292854	Seems unusual to me.	Seems unusual to me.	251235032	1478721783729	1478721783801	e	69
491871	5292854	Seems unusual to me.	Seems unusual to me.	251235037	1478721783929	1478721783944	m	77
491871	5292854	Seems unusual to me.	Seems unusual to me.	251235044	1478721783952	1478721784032	e	69
491871	5292854	Seems unusual to me.	Seems unusual to me.	251235184	1478721784513	1478721784577	BKSP	8
491871	5292854	Seems unusual to me.	Seems unusual to me.	251235186	1478721784761	1478721784841	e	69
491871	5292854	Seems unusual to me.	Seems unusual to me.	251235195	1478721784985	1478721785057	BKSP	8
491871	5292854	Seems unusual to me.	Seems unusual to me.	251235203	1478721785161	1478721785209	BKSP	8
491871	5292854	Seems unusual to me.	Seems unusual to me.	251235207	1478721785224	1478721785305	e	69
491871	5292854	Seems unusual to me.	Seems unusual to me.	251235216	1478721785537	1478721785632	m	77
491871	5292854	Seems unusual to me.	Seems unusual to me.	251235223	1478721785857	1478721785945	s	83
491871	5292854	Seems unusual to me.	Seems unusual to me.	251235228	1478721785984	1478721786065	 	32
491871	5292854	Seems unusual to me.	Seems unusual to me.	251235340	1478721786369	1478721786553	u	85
491871	5292854	Seems unusual to me.	Seems unusual to me.	251235349	1478721786561	1478721786617	n	66
491871	5292854	Seems unusual to me.	Seems unusual to me.	251235360	1478721786992	1478721787080	BKSP	8
491871	5292854	Seems unusual to me.	Seems unusual to me.	251235369	1478721787160	1478721787232	BKSP	8
491871	5292854	Seems unusual to me.	Seems unusual to me.	251235377	1478721787713	1478721787785	n	78
491871	5292854	Seems unusual to me.	Seems unusual to me.	251235386	1478721787929	1478721787993	u	85
491871	5292854	Seems unusual to me.	Seems unusual to me.	251235427	1478721788137	1478721788209	s	83
491871	5292854	Seems unusual to me.	Seems unusual to me.	251235431	1478721788313	1478721788369	u	85
491871	5292854	Seems unusual to me.	Seems unusual to me.	251235437	1478721788497	1478721788569	a	65
491871	5292854	Seems unusual to me.	Seems unusual to me.	251235442	1478721788648	1478721788712	l	76
491871	5292854	Seems unusual to me.	Seems unusual to me.	251235446	1478721788800	1478721788897	 	32
491871	5292854	Seems unusual to me.	Seems unusual to me.	251235519	1478721789201	1478721789297	t	84
491871	5292854	Seems unusual to me.	Seems unusual to me.	251235524	1478721789385	1478721789449	o	79
491871	5292854	Seems unusual to me.	Seems unusual to me.	251235530	1478721789497	1478721789600	 	32
491871	5292854	Seems unusual to me.	Seems unusual to me.	251235536	1478721789657	1478721789737	m	77
491871	5292854	Seems unusual to me.	Seems unusual to me.	251235542	1478721789744	1478721789824	e	69
491871	5292854	Seems unusual to me.	Seems unusual to me.	251235669	1478721790113	1478721790288	SHIFT	16
491871	5292873	He is close to full speed, says the Charlotte Observer.	He is close to full speed, says tbe Charlotte Observer	251235902	1478721792721	1478721792841	CAPS_LOCK	20
491871	5292873	He is close to full speed, says the Charlotte Observer.	He is close to full speed, says tbe Charlotte Observer	251235908	1478721792889	1478721792944	H	72
491871	5292873	He is close to full speed, says the Charlotte Observer.	He is close to full speed, says tbe Charlotte Observer	251235916	1478721793001	1478721793112	CAPS_LOCK	20
491871	5292873	He is close to full speed, says the Charlotte Observer.	He is close to full speed, says tbe Charlotte Observer	251235922	1478721793208	1478721793296	e	69
491871	5292873	He is close to full speed, says the Charlotte Observer.	He is close to full speed, says tbe Charlotte Observer	251235928	1478721793409	1478721793489	 	32
491871	5292873	He is close to full speed, says the Charlotte Observer.	He is close to full speed, says tbe Charlotte Observer	251235940	1478721793633	1478721793705	i	73
491871	5292873	He is close to full speed, says the Charlotte Observer.	He is close to full speed, says tbe Charlotte Observer	251235947	1478721793745	1478721793848	s	83
491871	5292873	He is close to full speed, says the Charlotte Observer.	He is close to full speed, says tbe Charlotte Observer	251235961	1478721793873	1478721793952	 	32
491871	5292873	He is close to full speed, says the Charlotte Observer.	He is close to full speed, says tbe Charlotte Observer	251235962	1478721794049	1478721794153	c	67
491871	5292873	He is close to full speed, says the Charlotte Observer.	He is close to full speed, says tbe Charlotte Observer	251235963	1478721794200	1478721794288	l	76
491871	5292873	He is close to full speed, says the Charlotte Observer.	He is close to full speed, says tbe Charlotte Observer	251236171	1478721794409	1478721794456	o	73
491871	5292873	He is close to full speed, says the Charlotte Observer.	He is close to full speed, says tbe Charlotte Observer	251236175	1478721794544	1478721794712	s	83
491871	5292873	He is close to full speed, says the Charlotte Observer.	He is close to full speed, says tbe Charlotte Observer	251236180	1478721794672	1478721794784	e	69
491871	5292873	He is close to full speed, says the Charlotte Observer.	He is close to full speed, says tbe Charlotte Observer	251236184	1478721794808	1478721794873	 	32
491871	5292873	He is close to full speed, says the Charlotte Observer.	He is close to full speed, says tbe Charlotte Observer	251236189	1478721795145	1478721795209	BKSP	8
491871	5292873	He is close to full speed, says the Charlotte Observer.	He is close to full speed, says tbe Charlotte Observer	251236193	1478721795305	1478721795369	BKSP	8
491871	5292873	He is close to full speed, says the Charlotte Observer.	He is close to full speed, says tbe Charlotte Observer	251236197	1478721795464	1478721795537	BKSP	8
491871	5292873	He is close to full speed, says the Charlotte Observer.	He is close to full speed, says tbe Charlotte Observer	251236202	1478721795633	1478721795696	BKSP	8
491871	5292873	He is close to full speed, says the Charlotte Observer.	He is close to full speed, says tbe Charlotte Observer	251236206	1478721795969	1478721796056	BKSP	8
491871	5292873	He is close to full speed, says the Charlotte Observer.	He is close to full speed, says tbe Charlotte Observer	251236213	1478721796385	1478721796433	i	73
491871	5292873	He is close to full speed, says the Charlotte Observer.	He is close to full speed, says tbe Charlotte Observer	251236217	1478721796681	1478721796769	BKSP	8
491871	5292873	He is close to full speed, says the Charlotte Observer.	He is close to full speed, says tbe Charlotte Observer	251236221	1478721797584	1478721797648	o	79
491871	5292873	He is close to full speed, says the Charlotte Observer.	He is close to full speed, says tbe Charlotte Observer	251236279	1478721797736	1478721797889	s	83
491871	5292873	He is close to full speed, says the Charlotte Observer.	He is close to full speed, says tbe Charlotte Observer	251236284	1478721797824	1478721797977	e	69
491871	5292873	He is close to full speed, says the Charlotte Observer.	He is close to full speed, says tbe Charlotte Observer	251236292	1478721797969	1478721798073	 	32
491871	5292873	He is close to full speed, says the Charlotte Observer.	He is close to full speed, says tbe Charlotte Observer	251236300	1478721798744	1478721798792	t	84
491871	5292873	He is close to full speed, says the Charlotte Observer.	He is close to full speed, says tbe Charlotte Observer	251236308	1478721798912	1478721799016	o	79
491871	5292873	He is close to full speed, says the Charlotte Observer.	He is close to full speed, says tbe Charlotte Observer	251236361	1478721799176	1478721799263	 	32
491871	5292873	He is close to full speed, says the Charlotte Observer.	He is close to full speed, says tbe Charlotte Observer	251236363	1478721799473	1478721799561	f	70
491871	5292873	He is close to full speed, says the Charlotte Observer.	He is close to full speed, says tbe Charlotte Observer	251236366	1478721799648	1478721799729	u	85
491871	5292873	He is close to full speed, says the Charlotte Observer.	He is close to full speed, says tbe Charlotte Observer	251236369	1478721799889	1478721799969	l	76
491871	5292873	He is close to full speed, says the Charlotte Observer.	He is close to full speed, says tbe Charlotte Observer	251236373	1478721800056	1478721800129	l	76
491871	5292873	He is close to full speed, says the Charlotte Observer.	He is close to full speed, says tbe Charlotte Observer	251236413	1478721800169	1478721800264	 	32
491871	5292873	He is close to full speed, says the Charlotte Observer.	He is close to full speed, says tbe Charlotte Observer	251236416	1478721800329	1478721800440	s	83
491871	5292873	He is close to full speed, says the Charlotte Observer.	He is close to full speed, says tbe Charlotte Observer	251236419	1478721800432	1478721800504	p	80
491871	5292873	He is close to full speed, says the Charlotte Observer.	He is close to full speed, says tbe Charlotte Observer	251236422	1478721800584	1478721800656	e	69
491871	5292873	He is close to full speed, says the Charlotte Observer.	He is close to full speed, says tbe Charlotte Observer	251236424	1478721800752	1478721800824	e	69
491871	5292873	He is close to full speed, says the Charlotte Observer.	He is close to full speed, says tbe Charlotte Observer	251236536	1478721800937	1478721801017	d	68
491871	5292873	He is close to full speed, says the Charlotte Observer.	He is close to full speed, says tbe Charlotte Observer	251236542	1478721801073	1478721801137	,	188
491871	5292873	He is close to full speed, says the Charlotte Observer.	He is close to full speed, says tbe Charlotte Observer	251236544	1478721801169	1478721801265	 	32
491871	5292873	He is close to full speed, says the Charlotte Observer.	He is close to full speed, says tbe Charlotte Observer	251236547	1478721801968	1478721802000	s	83
491871	5292873	He is close to full speed, says the Charlotte Observer.	He is close to full speed, says tbe Charlotte Observer	251236551	1478721802232	1478721802312	a	83
491871	5292873	He is close to full speed, says the Charlotte Observer.	He is close to full speed, says tbe Charlotte Observer	251236701	1478721802401	1478721802481	y	89
491871	5292873	He is close to full speed, says the Charlotte Observer.	He is close to full speed, says tbe Charlotte Observer	251236707	1478721802713	1478721802761	s	83
491871	5292873	He is close to full speed, says the Charlotte Observer.	He is close to full speed, says tbe Charlotte Observer	251236712	1478721802977	1478721803041	BKSP	8
491871	5292873	He is close to full speed, says the Charlotte Observer.	He is close to full speed, says tbe Charlotte Observer	251236720	1478721803153	1478721803225	BKSP	8
491871	5292873	He is close to full speed, says the Charlotte Observer.	He is close to full speed, says tbe Charlotte Observer	251236727	1478721803312	1478721803408	BKSP	8
491871	5292873	He is close to full speed, says the Charlotte Observer.	He is close to full speed, says tbe Charlotte Observer	251236737	1478721803664	1478721803752	BKSP	8
491871	5292873	He is close to full speed, says the Charlotte Observer.	He is close to full speed, says tbe Charlotte Observer	251236742	1478721804145	1478721804233	a	65
491871	5292873	He is close to full speed, says the Charlotte Observer.	He is close to full speed, says tbe Charlotte Observer	251236750	1478721804321	1478721804393	y	89
491871	5292873	He is close to full speed, says the Charlotte Observer.	He is close to full speed, says tbe Charlotte Observer	251236758	1478721804432	1478721804521	s	83
491871	5292873	He is close to full speed, says the Charlotte Observer.	He is close to full speed, says tbe Charlotte Observer	251236780	1478721804545	1478721804641	 	32
491871	5292873	He is close to full speed, says the Charlotte Observer.	He is close to full speed, says tbe Charlotte Observer	251236784	1478721804824	1478721804920	t	84
491871	5292873	He is close to full speed, says the Charlotte Observer.	He is close to full speed, says tbe Charlotte Observer	251236788	1478721804984	1478721805056	b	66
491871	5292873	He is close to full speed, says the Charlotte Observer.	He is close to full speed, says tbe Charlotte Observer	251236791	1478721805096	1478721805184	e	69
491871	5292873	He is close to full speed, says the Charlotte Observer.	He is close to full speed, says tbe Charlotte Observer	251236793	1478721805256	1478721805328	 	32
491871	5292873	He is close to full speed, says the Charlotte Observer.	He is close to full speed, says tbe Charlotte Observer	251236909	1478721805977	1478721806057	CAPS_LOCK	20
491871	5292873	He is close to full speed, says the Charlotte Observer.	He is close to full speed, says tbe Charlotte Observer	251236912	1478721806201	1478721806256	C	67
491871	5292873	He is close to full speed, says the Charlotte Observer.	He is close to full speed, says tbe Charlotte Observer	251236916	1478721806401	1478721806472	CAPS_LOCK	20
491871	5292873	He is close to full speed, says the Charlotte Observer.	He is close to full speed, says tbe Charlotte Observer	251236919	1478721806544	1478721806608	h	72
491871	5292873	He is close to full speed, says the Charlotte Observer.	He is close to full speed, says tbe Charlotte Observer	251236924	1478721806720	1478721806824	a	65
491871	5292873	He is close to full speed, says the Charlotte Observer.	He is close to full speed, says tbe Charlotte Observer	251236930	1478721807585	1478721807704	r	82
491871	5292873	He is close to full speed, says the Charlotte Observer.	He is close to full speed, says tbe Charlotte Observer	251236937	1478721807920	1478721807976	l	76
491871	5292873	He is close to full speed, says the Charlotte Observer.	He is close to full speed, says tbe Charlotte Observer	251236959	1478721808088	1478721808176	o	79
491871	5292873	He is close to full speed, says the Charlotte Observer.	He is close to full speed, says tbe Charlotte Observer	251236963	1478721808288	1478721808360	t	84
491871	5292873	He is close to full speed, says the Charlotte Observer.	He is close to full speed, says tbe Charlotte Observer	251236966	1478721808448	1478721808513	t	84
491871	5292873	He is close to full speed, says the Charlotte Observer.	He is close to full speed, says tbe Charlotte Observer	251237094	1478721808649	1478721808761	e	87
491871	5292873	He is close to full speed, says the Charlotte Observer.	He is close to full speed, says tbe Charlotte Observer	251237098	1478721808976	1478721809073	 	32
491871	5292873	He is close to full speed, says the Charlotte Observer.	He is close to full speed, says tbe Charlotte Observer	251237103	1478721809329	1478721809384	BKSP	8
491871	5292873	He is close to full speed, says the Charlotte Observer.	He is close to full speed, says tbe Charlotte Observer	251237107	1478721809481	1478721809584	BKSP	8
491871	5292873	He is close to full speed, says the Charlotte Observer.	He is close to full speed, says tbe Charlotte Observer	251237113	1478721809623	1478721809752	w	87
491871	5292873	He is close to full speed, says the Charlotte Observer.	He is close to full speed, says tbe Charlotte Observer	251237118	1478721809720	1478721809832	 	32
491871	5292873	He is close to full speed, says the Charlotte Observer.	He is close to full speed, says tbe Charlotte Observer	251237122	1478721810072	1478721810153	BKSP	8
491871	5292873	He is close to full speed, says the Charlotte Observer.	He is close to full speed, says tbe Charlotte Observer	251237124	1478721810249	1478721810329	BKSP	8
491871	5292873	He is close to full speed, says the Charlotte Observer.	He is close to full speed, says tbe Charlotte Observer	251237129	1478721810417	1478721810488	BKSP	8
491871	5292873	He is close to full speed, says the Charlotte Observer.	He is close to full speed, says tbe Charlotte Observer	251237134	1478721810481	1478721810601	w	87
491871	5292873	He is close to full speed, says the Charlotte Observer.	He is close to full speed, says tbe Charlotte Observer	251237342	1478721810552	1478721810664	 	32
491871	5292873	He is close to full speed, says the Charlotte Observer.	He is close to full speed, says tbe Charlotte Observer	251237344	1478721810984	1478721811064	BKSP	8
491871	5292873	He is close to full speed, says the Charlotte Observer.	He is close to full speed, says tbe Charlotte Observer	251237348	1478721811160	1478721811240	BKSP	8
491871	5292873	He is close to full speed, says the Charlotte Observer.	He is close to full speed, says tbe Charlotte Observer	251237351	1478721811296	1478721811400	w	87
491871	5292873	He is close to full speed, says the Charlotte Observer.	He is close to full speed, says tbe Charlotte Observer	251237354	1478721811352	1478721811490	 	32
491871	5292873	He is close to full speed, says the Charlotte Observer.	He is close to full speed, says tbe Charlotte Observer	251237358	1478721811809	1478721811888	BKSP	8
491871	5292873	He is close to full speed, says the Charlotte Observer.	He is close to full speed, says tbe Charlotte Observer	251237361	1478721811977	1478721812073	BKSP	8
491871	5292873	He is close to full speed, says the Charlotte Observer.	He is close to full speed, says tbe Charlotte Observer	251237363	1478721812208	1478721812328	e	69
491871	5292873	He is close to full speed, says the Charlotte Observer.	He is close to full speed, says tbe Charlotte Observer	251237364	1478721812329	1478721812440	 	32
491871	5292873	He is close to full speed, says the Charlotte Observer.	He is close to full speed, says tbe Charlotte Observer	251237366	1478721813401	1478721813489	CAPS_LOCK	20
491871	5292873	He is close to full speed, says the Charlotte Observer.	He is close to full speed, says tbe Charlotte Observer	251237367	1478721813576	1478721813632	O	79
491871	5292873	He is close to full speed, says the Charlotte Observer.	He is close to full speed, says tbe Charlotte Observer	251237477	1478721813777	1478721813864	CAPS_LOCK	20
491871	5292873	He is close to full speed, says the Charlotte Observer.	He is close to full speed, says tbe Charlotte Observer	251237481	1478721813952	1478721814008	b	66
491871	5292873	He is close to full speed, says the Charlotte Observer.	He is close to full speed, says tbe Charlotte Observer	251237484	1478721814208	1478721814288	s	83
491871	5292873	He is close to full speed, says the Charlotte Observer.	He is close to full speed, says tbe Charlotte Observer	251237487	1478721814408	1478721814472	e	69
491871	5292873	He is close to full speed, says the Charlotte Observer.	He is close to full speed, says tbe Charlotte Observer	251237492	1478721814609	1478721814665	r	82
491871	5292873	He is close to full speed, says the Charlotte Observer.	He is close to full speed, says tbe Charlotte Observer	251237495	1478721815609	1478721815664	b	66
491871	5292873	He is close to full speed, says the Charlotte Observer.	He is close to full speed, says tbe Charlotte Observer	251237569	1478721816089	1478721816168	BKSP	8
491871	5292873	He is close to full speed, says the Charlotte Observer.	He is close to full speed, says tbe Charlotte Observer	251237571	1478721816425	1478721816488	v	86
491871	5292873	He is close to full speed, says the Charlotte Observer.	He is close to full speed, says tbe Charlotte Observer	251237574	1478721816632	1478721816752	e	69
491871	5292873	He is close to full speed, says the Charlotte Observer.	He is close to full speed, says tbe Charlotte Observer	251237577	1478721816736	1478721816832	r	82
491871	5292915	Can you call me at home?	Can you call me at home?	251237824	1478721819025	1478721819153	CAPS_LOCK	20
491871	5292915	Can you call me at home?	Can you call me at home?	251237831	1478721819473	1478721819560	C	67
491871	5292915	Can you call me at home?	Can you call me at home?	251237840	1478721819657	1478721819744	CAPS_LOCK	20
491871	5292915	Can you call me at home?	Can you call me at home?	251237848	1478721819840	1478721819928	n	78
491871	5292915	Can you call me at home?	Can you call me at home?	251237854	1478721820032	1478721820120	 	32
491871	5292915	Can you call me at home?	Can you call me at home?	251237860	1478721820448	1478721820545	BKSP	8
491871	5292915	Can you call me at home?	Can you call me at home?	251237866	1478721820761	1478721820817	BKSP	8
491871	5292915	Can you call me at home?	Can you call me at home?	251237872	1478721820897	1478721821016	a	65
491871	5292915	Can you call me at home?	Can you call me at home?	251237979	1478721821001	1478721821096	 	32
491871	5292915	Can you call me at home?	Can you call me at home?	251237990	1478721821048	1478721821144	n	78
491871	5292915	Can you call me at home?	Can you call me at home?	251237998	1478721821560	1478721821632	BKSP	8
491871	5292915	Can you call me at home?	Can you call me at home?	251238008	1478721821720	1478721821808	BKSP	8
491871	5292915	Can you call me at home?	Can you call me at home?	251238016	1478721822264	1478721822321	n	78
491871	5292915	Can you call me at home?	Can you call me at home?	251238023	1478721822392	1478721822456	 	32
491871	5292915	Can you call me at home?	Can you call me at home?	251238028	1478721822704	1478721822768	y	89
491871	5292915	Can you call me at home?	Can you call me at home?	251238030	1478721822832	1478721822984	o	79
491871	5292915	Can you call me at home?	Can you call me at home?	251238098	1478721822960	1478721823056	u	85
491871	5292915	Can you call me at home?	Can you call me at home?	251238101	1478721823096	1478721823177	 	32
491871	5292915	Can you call me at home?	Can you call me at home?	251238105	1478721823464	1478721823561	c	67
491871	5292915	Can you call me at home?	Can you call me at home?	251238108	1478721823673	1478721823769	a	65
491871	5292915	Can you call me at home?	Can you call me at home?	251238112	1478721823857	1478721823904	l	76
491871	5292915	Can you call me at home?	Can you call me at home?	251238117	1478721824017	1478721824064	l	76
491871	5292915	Can you call me at home?	Can you call me at home?	251238165	1478721824081	1478721824176	 	32
491871	5292915	Can you call me at home?	Can you call me at home?	251238175	1478721824280	1478721824344	m	77
491871	5292915	Can you call me at home?	Can you call me at home?	251238182	1478721824408	1478721824480	e	69
491871	5292915	Can you call me at home?	Can you call me at home?	251238192	1478721824512	1478721824592	 	32
491871	5292915	Can you call me at home?	Can you call me at home?	251238197	1478721824728	1478721824808	a	65
491871	5292915	Can you call me at home?	Can you call me at home?	251238254	1478721824976	1478721825040	t	84
491871	5292915	Can you call me at home?	Can you call me at home?	251238257	1478721825105	1478721825185	 	32
491871	5292915	Can you call me at home?	Can you call me at home?	251238260	1478721825329	1478721825384	h	72
491871	5292915	Can you call me at home?	Can you call me at home?	251238263	1478721825497	1478721825664	o	79
491871	5292915	Can you call me at home?	Can you call me at home?	251238313	1478721825624	1478721825728	m	77
491871	5292915	Can you call me at home?	Can you call me at home?	251238317	1478721825752	1478721825832	e	69
491871	5292915	Can you call me at home?	Can you call me at home?	251238321	1478721825928	1478721826096	SHIFT	16
491871	5292915	Can you call me at home?	Can you call me at home?	251238325	1478721826032	1478721826152	?	191
491871	5292925	I told Gary you could make the call.	I told Gary you could make the call.	251238491	1478721827872	1478721827968	CAPS_LOCK	20
491871	5292925	I told Gary you could make the call.	I told Gary you could make the call.	251238496	1478721828064	1478721828144	I	73
491871	5292925	I told Gary you could make the call.	I told Gary you could make the call.	251238500	1478721828273	1478721828369	CAPS_LOCK	20
491871	5292925	I told Gary you could make the call.	I told Gary you could make the call.	251238506	1478721828392	1478721828521	 	32
491871	5292925	I told Gary you could make the call.	I told Gary you could make the call.	251238513	1478721828689	1478721828784	t	84
491871	5292925	I told Gary you could make the call.	I told Gary you could make the call.	251238520	1478721828952	1478721829032	o	79
491871	5292925	I told Gary you could make the call.	I told Gary you could make the call.	251238525	1478721829216	1478721829288	l	76
491871	5292925	I told Gary you could make the call.	I told Gary you could make the call.	251238582	1478721829376	1478721829440	d	68
491871	5292925	I told Gary you could make the call.	I told Gary you could make the call.	251238586	1478721829488	1478721829568	 	32
491871	5292925	I told Gary you could make the call.	I told Gary you could make the call.	251238589	1478721829673	1478721829776	CAPS_LOCK	20
491871	5292925	I told Gary you could make the call.	I told Gary you could make the call.	251238594	1478721829833	1478721829912	G	71
491871	5292925	I told Gary you could make the call.	I told Gary you could make the call.	251238598	1478721830009	1478721830088	CAPS_LOCK	20
491871	5292925	I told Gary you could make the call.	I told Gary you could make the call.	251238600	1478721830304	1478721830384	a	65
491871	5292925	I told Gary you could make the call.	I told Gary you could make the call.	251238606	1478721830456	1478721830544	r	82
491871	5292925	I told Gary you could make the call.	I told Gary you could make the call.	251238703	1478721830664	1478721830768	y	89
491871	5292925	I told Gary you could make the call.	I told Gary you could make the call.	251238707	1478721830783	1478721830872	 	32
491871	5292925	I told Gary you could make the call.	I told Gary you could make the call.	251238710	1478721831704	1478721831768	y	89
491871	5292925	I told Gary you could make the call.	I told Gary you could make the call.	251238713	1478721831792	1478721831968	o	79
491871	5292925	I told Gary you could make the call.	I told Gary you could make the call.	251238806	1478721831904	1478721832048	u	85
491871	5292925	I told Gary you could make the call.	I told Gary you could make the call.	251238810	1478721832072	1478721832144	 	32
491871	5292925	I told Gary you could make the call.	I told Gary you could make the call.	251238817	1478721832280	1478721832344	c	67
491871	5292925	I told Gary you could make the call.	I told Gary you could make the call.	251238824	1478721832552	1478721832625	o	79
491871	5292925	I told Gary you could make the call.	I told Gary you could make the call.	251238830	1478721832784	1478721832841	u	85
491871	5292925	I told Gary you could make the call.	I told Gary you could make the call.	251238838	1478721832969	1478721833040	l	76
491871	5292925	I told Gary you could make the call.	I told Gary you could make the call.	251238951	1478721833064	1478721833144	d	68
491871	5292925	I told Gary you could make the call.	I told Gary you could make the call.	251238952	1478721833192	1478721833256	 	32
491871	5292925	I told Gary you could make the call.	I told Gary you could make the call.	251238954	1478721834217	1478721834273	m	77
491871	5292925	I told Gary you could make the call.	I told Gary you could make the call.	251238955	1478721834345	1478721834441	a	65
491871	5292925	I told Gary you could make the call.	I told Gary you could make the call.	251238956	1478721834504	1478721834552	k	75
491871	5292925	I told Gary you could make the call.	I told Gary you could make the call.	251239010	1478721834600	1478721834680	e	69
491871	5292925	I told Gary you could make the call.	I told Gary you could make the call.	251239017	1478721834768	1478721834832	 	32
491871	5292925	I told Gary you could make the call.	I told Gary you could make the call.	251239024	1478721834912	1478721834968	t	84
491871	5292925	I told Gary you could make the call.	I told Gary you could make the call.	251239027	1478721835055	1478721835128	h	72
491871	5292925	I told Gary you could make the call.	I told Gary you could make the call.	251239034	1478721835184	1478721835256	e	69
491871	5292925	I told Gary you could make the call.	I told Gary you could make the call.	251239071	1478721835328	1478721835407	 	32
491871	5292925	I told Gary you could make the call.	I told Gary you could make the call.	251239075	1478721835480	1478721835592	c	67
491871	5292925	I told Gary you could make the call.	I told Gary you could make the call.	251239080	1478721835640	1478721835729	a	65
491871	5292925	I told Gary you could make the call.	I told Gary you could make the call.	251239085	1478721835784	1478721835840	;	186
491871	5292925	I told Gary you could make the call.	I told Gary you could make the call.	251239090	1478721835953	1478721835992	;	186
491871	5292925	I told Gary you could make the call.	I told Gary you could make the call.	251239240	1478721836424	1478721836448	BKSP	8
491871	5292925	I told Gary you could make the call.	I told Gary you could make the call.	251239242	1478721836552	1478721836615	BKSP	8
491871	5292925	I told Gary you could make the call.	I told Gary you could make the call.	251239244	1478721836688	1478721836847	l	76
491871	5292925	I told Gary you could make the call.	I told Gary you could make the call.	251239249	1478721837297	1478721837368	BKSP	8
491871	5292925	I told Gary you could make the call.	I told Gary you could make the call.	251239254	1478721837504	1478721837560	BKSP	8
491871	5292925	I told Gary you could make the call.	I told Gary you could make the call.	251239256	1478721837592	1478721837720	l	76
491871	5292925	I told Gary you could make the call.	I told Gary you could make the call.	251239263	1478721837680	1478721837800	.	190
491871	5292925	I told Gary you could make the call.	I told Gary you could make the call.	251239266	1478721838104	1478721838159	BKSP	8
491871	5292925	I told Gary you could make the call.	I told Gary you could make the call.	251239270	1478721838584	1478721838656	l	76
491871	5292925	I told Gary you could make the call.	I told Gary you could make the call.	251239275	1478721838769	1478721838833	.	190
491871	5292950	Let me know if I can be of help.	Let me know if i can be of any help	251239455	1478721840441	1478721840536	CAPS_LOCK	20
491871	5292950	Let me know if I can be of help.	Let me know if i can be of any help	251239462	1478721840649	1478721840736	L	76
491871	5292950	Let me know if I can be of help.	Let me know if i can be of any help	251239470	1478721840792	1478721840872	CAPS_LOCK	20
491871	5292950	Let me know if I can be of help.	Let me know if i can be of any help	251239473	1478721840968	1478721841080	e	69
491871	5292950	Let me know if I can be of help.	Let me know if i can be of any help	251239482	1478721841096	1478721841184	t	84
491871	5292950	Let me know if I can be of help.	Let me know if i can be of any help	251239486	1478721841280	1478721841360	 	32
491871	5292950	Let me know if I can be of help.	Let me know if i can be of any help	251239490	1478721841423	1478721841488	n	78
491871	5292950	Let me know if I can be of help.	Let me know if i can be of any help	251239605	1478721841608	1478721841689	e	69
491871	5292950	Let me know if I can be of help.	Let me know if i can be of any help	251239612	1478721841840	1478721841896	BKSP	8
491871	5292950	Let me know if I can be of help.	Let me know if i can be of any help	251239620	1478721842008	1478721842064	BKSP	8
491871	5292950	Let me know if I can be of help.	Let me know if i can be of any help	251239628	1478721842632	1478721842696	m	77
491871	5292950	Let me know if I can be of help.	Let me know if i can be of any help	251239638	1478721842752	1478721842808	e	69
491871	5292950	Let me know if I can be of help.	Let me know if i can be of any help	251239644	1478721842856	1478721842928	 	32
491871	5292950	Let me know if I can be of help.	Let me know if i can be of any help	251239655	1478721843064	1478721843167	k	75
491871	5292950	Let me know if I can be of help.	Let me know if i can be of any help	251239687	1478721843240	1478721843336	k	78
491871	5292950	Let me know if I can be of help.	Let me know if i can be of any help	251239693	1478721843464	1478721843536	o	79
491871	5292950	Let me know if I can be of help.	Let me know if i can be of any help	251239698	1478721843608	1478721843704	w	87
491871	5292950	Let me know if I can be of help.	Let me know if i can be of any help	251239699	1478721843760	1478721843816	 	32
491871	5292950	Let me know if I can be of help.	Let me know if i can be of any help	251239832	1478721844128	1478721844200	BKSP	8
491871	5292950	Let me know if I can be of help.	Let me know if i can be of any help	251239836	1478721844304	1478721844376	BKSP	8
491871	5292950	Let me know if I can be of help.	Let me know if i can be of any help	251239843	1478721844463	1478721844528	BKSP	8
491871	5292950	Let me know if I can be of help.	Let me know if i can be of any help	251239847	1478721844824	1478721844872	BKSP	8
491871	5292950	Let me know if I can be of help.	Let me know if i can be of any help	251239852	1478721845360	1478721845424	o	79
491871	5292950	Let me know if I can be of help.	Let me know if i can be of any help	251239856	1478721845504	1478721845584	w	87
491871	5292950	Let me know if I can be of help.	Let me know if i can be of any help	251239859	1478721845616	1478721845696	 	32
491871	5292950	Let me know if I can be of help.	Let me know if i can be of any help	251239863	1478721845856	1478721845968	i	73
491871	5292950	Let me know if I can be of help.	Let me know if i can be of any help	251239940	1478721846111	1478721846192	f	68
491871	5292950	Let me know if I can be of help.	Let me know if i can be of any help	251239944	1478721846472	1478721846552	BKSP	8
491871	5292950	Let me know if I can be of help.	Let me know if i can be of any help	251239948	1478721846632	1478721846712	BKSP	8
491871	5292950	Let me know if I can be of help.	Let me know if i can be of any help	251239951	1478721847192	1478721847256	f	70
491871	5292950	Let me know if I can be of help.	Let me know if i can be of any help	251239953	1478721847296	1478721847384	 	32
491871	5292950	Let me know if I can be of help.	Let me know if i can be of any help	251239955	1478721847488	1478721847583	i	73
491871	5292950	Let me know if I can be of help.	Let me know if i can be of any help	251239959	1478721847623	1478721847728	 	32
491871	5292950	Let me know if I can be of help.	Let me know if i can be of any help	251239963	1478721847872	1478721848056	c	67
491871	5292950	Let me know if I can be of help.	Let me know if i can be of any help	251239979	1478721847976	1478721848128	a	65
491871	5292950	Let me know if I can be of help.	Let me know if i can be of any help	251239987	1478721848136	1478721848232	n	78
491871	5292950	Let me know if I can be of help.	Let me know if i can be of any help	251239994	1478721848264	1478721848368	 	32
491871	5292950	Let me know if I can be of help.	Let me know if i can be of any help	251240003	1478721848472	1478721848568	b	66
491871	5292950	Let me know if I can be of help.	Let me know if i can be of any help	251240012	1478721848616	1478721848688	e	69
491871	5292950	Let me know if I can be of help.	Let me know if i can be of any help	251240020	1478721848752	1478721848864	 	32
491871	5292950	Let me know if I can be of help.	Let me know if i can be of any help	251240133	1478721849192	1478721849264	o	79
491871	5292950	Let me know if I can be of help.	Let me know if i can be of any help	251240139	1478721849360	1478721849480	d	68
491871	5292950	Let me know if I can be of help.	Let me know if i can be of any help	251240145	1478721849768	1478721849856	BKSP	8
491871	5292950	Let me know if I can be of help.	Let me know if i can be of any help	251240149	1478721849832	1478721849976	f	70
491871	5292950	Let me know if I can be of help.	Let me know if i can be of any help	251240153	1478721849896	1478721850056	 	32
491871	5292950	Let me know if I can be of help.	Let me know if i can be of any help	251240157	1478721850304	1478721850416	a	65
491871	5292950	Let me know if I can be of help.	Let me know if i can be of any help	251240209	1478721850464	1478721850567	n	78
491871	5292950	Let me know if I can be of help.	Let me know if i can be of any help	251240215	1478721850696	1478721850784	y	89
491871	5292950	Let me know if I can be of help.	Let me know if i can be of any help	251240223	1478721850800	1478721850920	 	32
491871	5292950	Let me know if I can be of help.	Let me know if i can be of any help	251240229	1478721851080	1478721851160	h	72
491871	5292950	Let me know if I can be of help.	Let me know if i can be of any help	251240233	1478721851200	1478721851288	e	69
491871	5292950	Let me know if I can be of help.	Let me know if i can be of any help	251240248	1478721851328	1478721851416	l	76
491871	5292950	Let me know if I can be of help.	Let me know if i can be of any help	251240249	1478721851504	1478721851576	p	80
491871	5292970	Nice weather for it.	Nice weather for it.	251240443	1478721853608	1478721853703	CAPS_LOCK	20
491871	5292970	Nice weather for it.	Nice weather for it.	251240446	1478721853888	1478721853976	N	78
491871	5292970	Nice weather for it.	Nice weather for it.	251240451	1478721854041	1478721854120	CAPS_LOCK	20
491871	5292970	Nice weather for it.	Nice weather for it.	251240457	1478721854208	1478721854280	i	73
491871	5292970	Nice weather for it.	Nice weather for it.	251240461	1478721854440	1478721854608	c	67
491871	5292970	Nice weather for it.	Nice weather for it.	251240465	1478721854560	1478721854688	e	69
491871	5292970	Nice weather for it.	Nice weather for it.	251240469	1478721854688	1478721854816	 	32
491871	5292970	Nice weather for it.	Nice weather for it.	251240502	1478721854903	1478721855071	w	87
491871	5292970	Nice weather for it.	Nice weather for it.	251240509	1478721855008	1478721855127	e	69
491871	5292970	Nice weather for it.	Nice weather for it.	251240517	1478721855223	1478721855328	a	65
491871	5292970	Nice weather for it.	Nice weather for it.	251240524	1478721855432	1478721855504	t	84
491871	5292970	Nice weather for it.	Nice weather for it.	251240529	1478721855576	1478721855664	h	72
491871	5292970	Nice weather for it.	Nice weather for it.	251240554	1478721855680	1478721855824	e	69
491871	5292970	Nice weather for it.	Nice weather for it.	251240556	1478721855784	1478721855896	r	82
491871	5292970	Nice weather for it.	Nice weather for it.	251240558	1478721855920	1478721856032	 	32
491871	5292970	Nice weather for it.	Nice weather for it.	251240562	1478721856256	1478721856352	f	70
491871	5292970	Nice weather for it.	Nice weather for it.	251240567	1478721856383	1478721856480	o	79
491871	5292970	Nice weather for it.	Nice weather for it.	251240628	1478721856504	1478721856623	r	82
491871	5292970	Nice weather for it.	Nice weather for it.	251240631	1478721856671	1478721856768	 	32
491871	5292970	Nice weather for it.	Nice weather for it.	251240636	1478721856976	1478721857088	i	73
491871	5292970	Nice weather for it.	Nice weather for it.	251240639	1478721857128	1478721857232	t	84
491871	5292970	Nice weather for it.	Nice weather for it.	251240642	1478721857352	1478721857448	.	190
491871	5292976	No there will be plenty of others.	No there will be plenty of others.	251240793	1478721858936	1478721859040	CAPS_LOCK	20
491871	5292976	No there will be plenty of others.	No there will be plenty of others.	251240797	1478721859104	1478721859200	N	78
491871	5292976	No there will be plenty of others.	No there will be plenty of others.	251240800	1478721859256	1478721859320	CAPS_LOCK	20
491871	5292976	No there will be plenty of others.	No there will be plenty of others.	251240803	1478721859488	1478721859552	o	79
491871	5292976	No there will be plenty of others.	No there will be plenty of others.	251240806	1478721859663	1478721859743	 	32
491871	5292976	No there will be plenty of others.	No there will be plenty of others.	251240810	1478721859880	1478721859944	t	84
491871	5292976	No there will be plenty of others.	No there will be plenty of others.	251240813	1478721860024	1478721860112	h	72
491871	5292976	No there will be plenty of others.	No there will be plenty of others.	251240881	1478721860136	1478721860248	e	69
491871	5292976	No there will be plenty of others.	No there will be plenty of others.	251240883	1478721860928	1478721861063	r	82
491871	5292976	No there will be plenty of others.	No there will be plenty of others.	251240885	1478721861016	1478721861111	e	69
491871	5292976	No there will be plenty of others.	No there will be plenty of others.	251240889	1478721861143	1478721861271	 	32
491871	5292976	No there will be plenty of others.	No there will be plenty of others.	251240891	1478721861320	1478721861416	w	87
491871	5292976	No there will be plenty of others.	No there will be plenty of others.	251240926	1478721861456	1478721861544	i	73
491871	5292976	No there will be plenty of others.	No there will be plenty of others.	251240932	1478721861704	1478721861744	k	76
491871	5292976	No there will be plenty of others.	No there will be plenty of others.	251240939	1478721861832	1478721861904	l	76
491871	5292976	No there will be plenty of others.	No there will be plenty of others.	251240944	1478721861952	1478721862032	 	32
491871	5292976	No there will be plenty of others.	No there will be plenty of others.	251241049	1478721862112	1478721862176	b	66
491871	5292976	No there will be plenty of others.	No there will be plenty of others.	251241051	1478721862232	1478721862264	e	69
491871	5292976	No there will be plenty of others.	No there will be plenty of others.	251241054	1478721862432	1478721862463	 	32
491871	5292976	No there will be plenty of others.	No there will be plenty of others.	251241058	1478721862663	1478721862735	BKSP	8
491871	5292976	No there will be plenty of others.	No there will be plenty of others.	251241062	1478721862808	1478721862896	BKSP	8
491871	5292976	No there will be plenty of others.	No there will be plenty of others.	251241068	1478721862968	1478721863048	BKSP	8
491871	5292976	No there will be plenty of others.	No there will be plenty of others.	251241074	1478721863128	1478721863216	BKSP	8
491871	5292976	No there will be plenty of others.	No there will be plenty of others.	251241079	1478721863296	1478721863384	BKSP	8
491871	5292976	No there will be plenty of others.	No there will be plenty of others.	251241084	1478721863752	1478721863840	BKSP	8
491871	5292976	No there will be plenty of others.	No there will be plenty of others.	251241089	1478721864016	1478721864071	l	76
491871	5292976	No there will be plenty of others.	No there will be plenty of others.	251241094	1478721864151	1478721864247	 	32
491871	5292976	No there will be plenty of others.	No there will be plenty of others.	251241118	1478721864440	1478721864480	b	66
491871	5292976	No there will be plenty of others.	No there will be plenty of others.	251241123	1478721864536	1478721864592	e	69
491871	5292976	No there will be plenty of others.	No there will be plenty of others.	251241126	1478721864656	1478721864736	 	32
491871	5292976	No there will be plenty of others.	No there will be plenty of others.	251241131	1478721864960	1478721865048	p	80
491871	5292976	No there will be plenty of others.	No there will be plenty of others.	251241135	1478721865136	1478721865208	l	76
491871	5292976	No there will be plenty of others.	No there will be plenty of others.	251241232	1478721865288	1478721865375	e	69
491871	5292976	No there will be plenty of others.	No there will be plenty of others.	251241237	1478721865512	1478721865559	b	78
491871	5292976	No there will be plenty of others.	No there will be plenty of others.	251241241	1478721865912	1478721865976	BKSP	8
491871	5292976	No there will be plenty of others.	No there will be plenty of others.	251241250	1478721866056	1478721866104	BKSP	8
491871	5292976	No there will be plenty of others.	No there will be plenty of others.	251241257	1478721866272	1478721866392	t	84
491871	5292976	No there will be plenty of others.	No there will be plenty of others.	251241261	1478721866664	1478721866728	BKSP	8
491871	5292976	No there will be plenty of others.	No there will be plenty of others.	251241264	1478721866816	1478721866912	n	78
491871	5292976	No there will be plenty of others.	No there will be plenty of others.	251241331	1478721866976	1478721867119	t	84
491871	5292976	No there will be plenty of others.	No there will be plenty of others.	251241332	1478721867103	1478721867215	y	89
491871	5292976	No there will be plenty of others.	No there will be plenty of others.	251241333	1478721867472	1478721867560	 	32
491871	5292976	No there will be plenty of others.	No there will be plenty of others.	251241335	1478721868176	1478721868256	o	79
491871	5292976	No there will be plenty of others.	No there will be plenty of others.	251241339	1478721868304	1478721868376	f	70
491871	5292976	No there will be plenty of others.	No there will be plenty of others.	251241425	1478721868383	1478721868479	 	32
491871	5292976	No there will be plenty of others.	No there will be plenty of others.	251241429	1478721868551	1478721868607	t	84
491871	5292976	No there will be plenty of others.	No there will be plenty of others.	251241434	1478721869000	1478721869096	BKSP	8
491871	5292976	No there will be plenty of others.	No there will be plenty of others.	251241439	1478721869616	1478721869695	o	79
491871	5292976	No there will be plenty of others.	No there will be plenty of others.	251241446	1478721869768	1478721869823	t	84
491871	5292976	No there will be plenty of others.	No there will be plenty of others.	251241453	1478721869904	1478721869999	h	72
491871	5292976	No there will be plenty of others.	No there will be plenty of others.	251241501	1478721870063	1478721870231	e	69
491871	5292976	No there will be plenty of others.	No there will be plenty of others.	251241505	1478721870191	1478721870311	r	82
491871	5292976	No there will be plenty of others.	No there will be plenty of others.	251241508	1478721870472	1478721870552	s	83
491871	5292976	No there will be plenty of others.	No there will be plenty of others.	251241511	1478721870904	1478721870968	.	190
491871	5292999	A report Thursday showed wholesale prices fell 0.1 percent in April.	A report Thursday showed wholesales prices fell 0.1 percent in April	251241757	1478721872832	1478721872943	CAPS_LOCK	20
491871	5292999	A report Thursday showed wholesale prices fell 0.1 percent in April.	A report Thursday showed wholesales prices fell 0.1 percent in April	251241762	1478721873319	1478721873440	A	65
491871	5292999	A report Thursday showed wholesale prices fell 0.1 percent in April.	A report Thursday showed wholesales prices fell 0.1 percent in April	251241766	1478721873496	1478721873624	CAPS_LOCK	20
491871	5292999	A report Thursday showed wholesale prices fell 0.1 percent in April.	A report Thursday showed wholesales prices fell 0.1 percent in April	251241770	1478721873768	1478721873880	 	32
491871	5292999	A report Thursday showed wholesale prices fell 0.1 percent in April.	A report Thursday showed wholesales prices fell 0.1 percent in April	251241774	1478721873944	1478721874048	r	82
491871	5292999	A report Thursday showed wholesale prices fell 0.1 percent in April.	A report Thursday showed wholesales prices fell 0.1 percent in April	251241777	1478721874215	1478721874327	e	69
491871	5292999	A report Thursday showed wholesale prices fell 0.1 percent in April.	A report Thursday showed wholesales prices fell 0.1 percent in April	251241779	1478721874904	1478721875072	p	80
491871	5292999	A report Thursday showed wholesale prices fell 0.1 percent in April.	A report Thursday showed wholesales prices fell 0.1 percent in April	251241863	1478721875008	1478721875128	o	79
491871	5292999	A report Thursday showed wholesale prices fell 0.1 percent in April.	A report Thursday showed wholesales prices fell 0.1 percent in April	251241865	1478721875296	1478721875424	r	82
491871	5292999	A report Thursday showed wholesale prices fell 0.1 percent in April.	A report Thursday showed wholesales prices fell 0.1 percent in April	251241867	1478721875376	1478721875503	t	84
491871	5292999	A report Thursday showed wholesale prices fell 0.1 percent in April.	A report Thursday showed wholesales prices fell 0.1 percent in April	251241870	1478721875528	1478721875648	 	32
491871	5292999	A report Thursday showed wholesale prices fell 0.1 percent in April.	A report Thursday showed wholesales prices fell 0.1 percent in April	251241873	1478721875944	1478721876063	CAPS_LOCK	20
491871	5292999	A report Thursday showed wholesale prices fell 0.1 percent in April.	A report Thursday showed wholesales prices fell 0.1 percent in April	251241878	1478721876223	1478721876303	T	84
491871	5292999	A report Thursday showed wholesale prices fell 0.1 percent in April.	A report Thursday showed wholesales prices fell 0.1 percent in April	251241884	1478721876343	1478721876448	CAPS_LOCK	20
491871	5292999	A report Thursday showed wholesale prices fell 0.1 percent in April.	A report Thursday showed wholesales prices fell 0.1 percent in April	251241889	1478721876528	1478721876712	h	72
491871	5292999	A report Thursday showed wholesale prices fell 0.1 percent in April.	A report Thursday showed wholesales prices fell 0.1 percent in April	251241947	1478721876656	1478721876784	u	85
491871	5292999	A report Thursday showed wholesale prices fell 0.1 percent in April.	A report Thursday showed wholesales prices fell 0.1 percent in April	251241948	1478721876832	1478721876920	s	83
491871	5292999	A report Thursday showed wholesale prices fell 0.1 percent in April.	A report Thursday showed wholesales prices fell 0.1 percent in April	251241949	1478721877008	1478721877096	r	82
491871	5292999	A report Thursday showed wholesale prices fell 0.1 percent in April.	A report Thursday showed wholesales prices fell 0.1 percent in April	251241951	1478721877415	1478721877591	d	68
491871	5292999	A report Thursday showed wholesale prices fell 0.1 percent in April.	A report Thursday showed wholesales prices fell 0.1 percent in April	251241954	1478721877535	1478721877663	a	65
491871	5292999	A report Thursday showed wholesale prices fell 0.1 percent in April.	A report Thursday showed wholesales prices fell 0.1 percent in April	251241958	1478721877759	1478721877863	y	89
491871	5292999	A report Thursday showed wholesale prices fell 0.1 percent in April.	A report Thursday showed wholesales prices fell 0.1 percent in April	251242188	1478721877888	1478721877984	 	32
491871	5292999	A report Thursday showed wholesale prices fell 0.1 percent in April.	A report Thursday showed wholesales prices fell 0.1 percent in April	251242191	1478721878216	1478721878280	w	87
491871	5292999	A report Thursday showed wholesale prices fell 0.1 percent in April.	A report Thursday showed wholesales prices fell 0.1 percent in April	251242194	1478721878616	1478721878679	BKSP	8
491871	5292999	A report Thursday showed wholesale prices fell 0.1 percent in April.	A report Thursday showed wholesales prices fell 0.1 percent in April	251242196	1478721878800	1478721878888	BKSP	8
491871	5292999	A report Thursday showed wholesale prices fell 0.1 percent in April.	A report Thursday showed wholesales prices fell 0.1 percent in April	251242200	1478721878999	1478721879103	BKSP	8
491871	5292999	A report Thursday showed wholesale prices fell 0.1 percent in April.	A report Thursday showed wholesales prices fell 0.1 percent in April	251242205	1478721879199	1478721879279	BKSP	8
491871	5292999	A report Thursday showed wholesale prices fell 0.1 percent in April.	A report Thursday showed wholesales prices fell 0.1 percent in April	251242212	1478721881864	1478721882039	a	65
491871	5292999	A report Thursday showed wholesale prices fell 0.1 percent in April.	A report Thursday showed wholesales prices fell 0.1 percent in April	251242589	1478721882047	1478721882287	t	32
491871	5292999	A report Thursday showed wholesale prices fell 0.1 percent in April.	A report Thursday showed wholesales prices fell 0.1 percent in April	251242221	1478721882063	1478721882135	y	84
491871	5292999	A report Thursday showed wholesale prices fell 0.1 percent in April.	A report Thursday showed wholesales prices fell 0.1 percent in April	251242592	1478721882480	1478721882584	BKSP	8
491871	5292999	A report Thursday showed wholesale prices fell 0.1 percent in April.	A report Thursday showed wholesales prices fell 0.1 percent in April	251242596	1478721882648	1478721882752	BKSP	8
491871	5292999	A report Thursday showed wholesale prices fell 0.1 percent in April.	A report Thursday showed wholesales prices fell 0.1 percent in April	251242602	1478721883024	1478721883080	BKSP	8
491871	5292999	A report Thursday showed wholesale prices fell 0.1 percent in April.	A report Thursday showed wholesales prices fell 0.1 percent in April	251242608	1478721883167	1478721883359	y	32
491871	5292999	A report Thursday showed wholesale prices fell 0.1 percent in April.	A report Thursday showed wholesales prices fell 0.1 percent in April	251242614	1478721883735	1478721883815	BKSP	8
491871	5292999	A report Thursday showed wholesale prices fell 0.1 percent in April.	A report Thursday showed wholesales prices fell 0.1 percent in April	251242617	1478721883903	1478721883984	BKSP	8
491871	5292999	A report Thursday showed wholesale prices fell 0.1 percent in April.	A report Thursday showed wholesales prices fell 0.1 percent in April	251242622	1478721884064	1478721884192	y	89
491871	5292999	A report Thursday showed wholesale prices fell 0.1 percent in April.	A report Thursday showed wholesales prices fell 0.1 percent in April	251242628	1478721884200	1478721884280	 	32
491871	5292999	A report Thursday showed wholesale prices fell 0.1 percent in April.	A report Thursday showed wholesales prices fell 0.1 percent in April	251242632	1478721885824	1478721885880	BKSP	8
491871	5292999	A report Thursday showed wholesale prices fell 0.1 percent in April.	A report Thursday showed wholesales prices fell 0.1 percent in April	251242636	1478721885967	1478721886048	BKSP	8
491871	5292999	A report Thursday showed wholesale prices fell 0.1 percent in April.	A report Thursday showed wholesales prices fell 0.1 percent in April	251242641	1478721886135	1478721886215	BKSP	8
491871	5292999	A report Thursday showed wholesale prices fell 0.1 percent in April.	A report Thursday showed wholesales prices fell 0.1 percent in April	251242644	1478721886312	1478721886391	BKSP	8
491871	5292999	A report Thursday showed wholesale prices fell 0.1 percent in April.	A report Thursday showed wholesales prices fell 0.1 percent in April	251242646	1478721886479	1478721886551	BKSP	8
491871	5292999	A report Thursday showed wholesale prices fell 0.1 percent in April.	A report Thursday showed wholesales prices fell 0.1 percent in April	251242649	1478721886671	1478721886735	BKSP	8
491871	5292999	A report Thursday showed wholesale prices fell 0.1 percent in April.	A report Thursday showed wholesales prices fell 0.1 percent in April	251242651	1478721887368	1478721887536	r	82
491871	5292999	A report Thursday showed wholesale prices fell 0.1 percent in April.	A report Thursday showed wholesales prices fell 0.1 percent in April	251242703	1478721887512	1478721887631	s	83
491871	5292999	A report Thursday showed wholesale prices fell 0.1 percent in April.	A report Thursday showed wholesales prices fell 0.1 percent in April	251242709	1478721887816	1478721887991	d	68
491871	5292999	A report Thursday showed wholesale prices fell 0.1 percent in April.	A report Thursday showed wholesales prices fell 0.1 percent in April	251242715	1478721887919	1478721888063	a	65
491871	5292999	A report Thursday showed wholesale prices fell 0.1 percent in April.	A report Thursday showed wholesales prices fell 0.1 percent in April	251242718	1478721888127	1478721888207	y	89
491871	5292999	A report Thursday showed wholesale prices fell 0.1 percent in April.	A report Thursday showed wholesales prices fell 0.1 percent in April	251242721	1478721888215	1478721888351	 	32
491871	5292999	A report Thursday showed wholesale prices fell 0.1 percent in April.	A report Thursday showed wholesales prices fell 0.1 percent in April	251242724	1478721888688	1478721888784	s	83
491871	5292999	A report Thursday showed wholesale prices fell 0.1 percent in April.	A report Thursday showed wholesales prices fell 0.1 percent in April	251242765	1478721888944	1478721889032	h	72
491871	5292999	A report Thursday showed wholesale prices fell 0.1 percent in April.	A report Thursday showed wholesales prices fell 0.1 percent in April	251242770	1478721889160	1478721889223	o	79
491871	5292999	A report Thursday showed wholesale prices fell 0.1 percent in April.	A report Thursday showed wholesales prices fell 0.1 percent in April	251242775	1478721889312	1478721889439	w	87
491871	5292999	A report Thursday showed wholesale prices fell 0.1 percent in April.	A report Thursday showed wholesales prices fell 0.1 percent in April	251242781	1478721889407	1478721889527	e	69
491871	5292999	A report Thursday showed wholesale prices fell 0.1 percent in April.	A report Thursday showed wholesales prices fell 0.1 percent in April	251242785	1478721889631	1478721889703	d	68
491871	5292999	A report Thursday showed wholesale prices fell 0.1 percent in April.	A report Thursday showed wholesales prices fell 0.1 percent in April	251242876	1478721889751	1478721889839	 	32
491871	5292999	A report Thursday showed wholesale prices fell 0.1 percent in April.	A report Thursday showed wholesales prices fell 0.1 percent in April	251242881	1478721890223	1478721890303	w	87
491871	5292999	A report Thursday showed wholesale prices fell 0.1 percent in April.	A report Thursday showed wholesales prices fell 0.1 percent in April	251242885	1478721890632	1478721890703	h	72
491871	5292999	A report Thursday showed wholesale prices fell 0.1 percent in April.	A report Thursday showed wholesales prices fell 0.1 percent in April	251242890	1478721890855	1478721890903	o	79
491871	5292999	A report Thursday showed wholesale prices fell 0.1 percent in April.	A report Thursday showed wholesales prices fell 0.1 percent in April	251242897	1478721891031	1478721891087	l	76
491871	5292999	A report Thursday showed wholesale prices fell 0.1 percent in April.	A report Thursday showed wholesales prices fell 0.1 percent in April	251242963	1478721891222	1478721891327	e	69
491871	5292999	A report Thursday showed wholesale prices fell 0.1 percent in April.	A report Thursday showed wholesales prices fell 0.1 percent in April	251242968	1478721891391	1478721891480	s	83
491871	5292999	A report Thursday showed wholesale prices fell 0.1 percent in April.	A report Thursday showed wholesales prices fell 0.1 percent in April	251242973	1478721891856	1478721891983	a	65
491871	5292999	A report Thursday showed wholesale prices fell 0.1 percent in April.	A report Thursday showed wholesales prices fell 0.1 percent in April	251242982	1478721892176	1478721892255	l	76
491871	5292999	A report Thursday showed wholesale prices fell 0.1 percent in April.	A report Thursday showed wholesales prices fell 0.1 percent in April	251242986	1478721892327	1478721892407	e	69
491871	5292999	A report Thursday showed wholesale prices fell 0.1 percent in April.	A report Thursday showed wholesales prices fell 0.1 percent in April	251243055	1478721892567	1478721892647	s	83
491871	5292999	A report Thursday showed wholesale prices fell 0.1 percent in April.	A report Thursday showed wholesales prices fell 0.1 percent in April	251243060	1478721892727	1478721892791	 	32
491871	5292999	A report Thursday showed wholesale prices fell 0.1 percent in April.	A report Thursday showed wholesales prices fell 0.1 percent in April	251243064	1478721893272	1478721893336	p	80
491871	5292999	A report Thursday showed wholesale prices fell 0.1 percent in April.	A report Thursday showed wholesales prices fell 0.1 percent in April	251243068	1478721893512	1478721893576	r	82
491871	5292999	A report Thursday showed wholesale prices fell 0.1 percent in April.	A report Thursday showed wholesales prices fell 0.1 percent in April	251243075	1478721893711	1478721893791	i	73
491871	5292999	A report Thursday showed wholesale prices fell 0.1 percent in April.	A report Thursday showed wholesales prices fell 0.1 percent in April	251243163	1478721893975	1478721894215	c	67
491871	5292999	A report Thursday showed wholesale prices fell 0.1 percent in April.	A report Thursday showed wholesales prices fell 0.1 percent in April	251243168	1478721894151	1478721894279	e	69
491871	5292999	A report Thursday showed wholesale prices fell 0.1 percent in April.	A report Thursday showed wholesales prices fell 0.1 percent in April	251243176	1478721894478	1478721894568	s	83
491871	5292999	A report Thursday showed wholesale prices fell 0.1 percent in April.	A report Thursday showed wholesales prices fell 0.1 percent in April	251243183	1478721894608	1478721894704	 	32
491871	5292999	A report Thursday showed wholesale prices fell 0.1 percent in April.	A report Thursday showed wholesales prices fell 0.1 percent in April	251243195	1478721895183	1478721895303	f	70
491871	5292999	A report Thursday showed wholesale prices fell 0.1 percent in April.	A report Thursday showed wholesales prices fell 0.1 percent in April	251243255	1478721895367	1478721895463	e	69
491871	5292999	A report Thursday showed wholesale prices fell 0.1 percent in April.	A report Thursday showed wholesales prices fell 0.1 percent in April	251243261	1478721895591	1478721895647	l	76
491871	5292999	A report Thursday showed wholesale prices fell 0.1 percent in April.	A report Thursday showed wholesales prices fell 0.1 percent in April	251243269	1478721895743	1478721895807	l	76
491871	5292999	A report Thursday showed wholesale prices fell 0.1 percent in April.	A report Thursday showed wholesales prices fell 0.1 percent in April	251243275	1478721895999	1478721896080	 	32
491871	5292999	A report Thursday showed wholesale prices fell 0.1 percent in April.	A report Thursday showed wholesales prices fell 0.1 percent in April	251243284	1478721896231	1478721896296	0	48
491871	5292999	A report Thursday showed wholesale prices fell 0.1 percent in April.	A report Thursday showed wholesales prices fell 0.1 percent in April	251243366	1478721896496	1478721896551	.	190
491871	5292999	A report Thursday showed wholesale prices fell 0.1 percent in April.	A report Thursday showed wholesales prices fell 0.1 percent in April	251243369	1478721896687	1478721896752	1	49
491871	5292999	A report Thursday showed wholesale prices fell 0.1 percent in April.	A report Thursday showed wholesales prices fell 0.1 percent in April	251243372	1478721896855	1478721896927	 	32
491871	5292999	A report Thursday showed wholesale prices fell 0.1 percent in April.	A report Thursday showed wholesales prices fell 0.1 percent in April	251243374	1478721897495	1478721897568	p	80
491871	5292999	A report Thursday showed wholesale prices fell 0.1 percent in April.	A report Thursday showed wholesales prices fell 0.1 percent in April	251243377	1478721897784	1478721897943	e	69
491871	5292999	A report Thursday showed wholesale prices fell 0.1 percent in April.	A report Thursday showed wholesales prices fell 0.1 percent in April	251243423	1478721897920	1478721898048	r	82
491871	5292999	A report Thursday showed wholesale prices fell 0.1 percent in April.	A report Thursday showed wholesales prices fell 0.1 percent in April	251243427	1478721898407	1478721898503	c	67
491871	5292999	A report Thursday showed wholesale prices fell 0.1 percent in April.	A report Thursday showed wholesales prices fell 0.1 percent in April	251243435	1478721898639	1478721898719	e	69
491871	5292999	A report Thursday showed wholesale prices fell 0.1 percent in April.	A report Thursday showed wholesales prices fell 0.1 percent in April	251243441	1478721898759	1478721898839	n	78
491871	5292999	A report Thursday showed wholesale prices fell 0.1 percent in April.	A report Thursday showed wholesales prices fell 0.1 percent in April	251243446	1478721898943	1478721899015	t	84
491871	5292999	A report Thursday showed wholesale prices fell 0.1 percent in April.	A report Thursday showed wholesales prices fell 0.1 percent in April	251243452	1478721899039	1478721899160	 	32
491871	5292999	A report Thursday showed wholesale prices fell 0.1 percent in April.	A report Thursday showed wholesales prices fell 0.1 percent in April	251243548	1478721899320	1478721899487	i	73
491871	5292999	A report Thursday showed wholesale prices fell 0.1 percent in April.	A report Thursday showed wholesales prices fell 0.1 percent in April	251243551	1478721899471	1478721899575	n	78
491871	5292999	A report Thursday showed wholesale prices fell 0.1 percent in April.	A report Thursday showed wholesales prices fell 0.1 percent in April	251243557	1478721899568	1478721899663	 	32
491871	5292999	A report Thursday showed wholesale prices fell 0.1 percent in April.	A report Thursday showed wholesales prices fell 0.1 percent in April	251243563	1478721900056	1478721900143	CAPS_LOCK	20
491871	5292999	A report Thursday showed wholesale prices fell 0.1 percent in April.	A report Thursday showed wholesales prices fell 0.1 percent in April	251243569	1478721900592	1478721900680	A	65
491871	5292999	A report Thursday showed wholesale prices fell 0.1 percent in April.	A report Thursday showed wholesales prices fell 0.1 percent in April	251243576	1478721900744	1478721900848	CAPS_LOCK	20
491871	5292999	A report Thursday showed wholesale prices fell 0.1 percent in April.	A report Thursday showed wholesales prices fell 0.1 percent in April	251243582	1478721900959	1478721901055	p	80
491871	5292999	A report Thursday showed wholesale prices fell 0.1 percent in April.	A report Thursday showed wholesales prices fell 0.1 percent in April	251243611	1478721901311	1478721901431	r	82
491871	5292999	A report Thursday showed wholesale prices fell 0.1 percent in April.	A report Thursday showed wholesales prices fell 0.1 percent in April	251243616	1478721901463	1478721901559	i	73
491871	5292999	A report Thursday showed wholesale prices fell 0.1 percent in April.	A report Thursday showed wholesales prices fell 0.1 percent in April	251243621	1478721901671	1478721901751	l	76
491871	5293048	I think Citation should be good now.	I think Ciatation should be good know.	251243798	1478721903463	1478721903584	CAPS_LOCK	20
491871	5293048	I think Citation should be good now.	I think Ciatation should be good know.	251243806	1478721903616	1478721903704	I	73
491871	5293048	I think Citation should be good now.	I think Ciatation should be good know.	251243812	1478721903824	1478721903912	CAPS_LOCK	20
491871	5293048	I think Citation should be good now.	I think Ciatation should be good know.	251243818	1478721903991	1478721904079	 	32
491871	5293048	I think Citation should be good now.	I think Ciatation should be good know.	251243822	1478721904247	1478721904327	t	84
491871	5293048	I think Citation should be good now.	I think Ciatation should be good know.	251243824	1478721904399	1478721904599	h	72
491871	5293048	I think Citation should be good now.	I think Ciatation should be good know.	251243883	1478721904543	1478721904695	i	73
491871	5293048	I think Citation should be good now.	I think Ciatation should be good know.	251243888	1478721904759	1478721904959	n	78
491871	5293048	I think Citation should be good now.	I think Ciatation should be good know.	251243896	1478721904927	1478721905054	k	75
491871	5293048	I think Citation should be good now.	I think Ciatation should be good know.	251243905	1478721905047	1478721905144	 	32
491871	5293048	I think Citation should be good now.	I think Ciatation should be good know.	251243908	1478721905751	1478721905831	c	67
491871	5293048	I think Citation should be good now.	I think Ciatation should be good know.	251243911	1478721905959	1478721906023	i	73
491871	5293048	I think Citation should be good now.	I think Ciatation should be good know.	251244115	1478721906327	1478721906407	BKSP	8
491871	5293048	I think Citation should be good now.	I think Ciatation should be good know.	251244117	1478721906471	1478721906568	CAPS_LOCK	20
491871	5293048	I think Citation should be good now.	I think Ciatation should be good know.	251244119	1478721906584	1478721906696	I	73
491871	5293048	I think Citation should be good now.	I think Ciatation should be good know.	251244121	1478721906848	1478721906999	A	65
491871	5293048	I think Citation should be good now.	I think Ciatation should be good know.	251244124	1478721907199	1478721907279	BKSP	8
491871	5293048	I think Citation should be good now.	I think Ciatation should be good know.	251244128	1478721907359	1478721907455	BKSP	8
491871	5293048	I think Citation should be good now.	I think Ciatation should be good know.	251244133	1478721907679	1478721907767	BKSP	8
491871	5293048	I think Citation should be good now.	I think Ciatation should be good know.	251244137	1478721908039	1478721908096	C	67
491871	5293048	I think Citation should be good now.	I think Ciatation should be good know.	251244145	1478721908416	1478721908512	CAPS_LOCK	20
491871	5293048	I think Citation should be good now.	I think Ciatation should be good know.	251244150	1478721908623	1478721908719	i	73
491871	5293048	I think Citation should be good now.	I think Ciatation should be good know.	251244157	1478721908919	1478721909015	a	65
491871	5293048	I think Citation should be good now.	I think Ciatation should be good know.	251244211	1478721909600	1478721909680	t	84
491871	5293048	I think Citation should be good now.	I think Ciatation should be good know.	251244213	1478721909800	1478721909903	a	65
491871	5293048	I think Citation should be good now.	I think Ciatation should be good know.	251244214	1478721910007	1478721910087	t	84
491871	5293048	I think Citation should be good now.	I think Ciatation should be good know.	251244216	1478721910159	1478721910479	i	73
491871	5293048	I think Citation should be good now.	I think Ciatation should be good know.	251244279	1478721910303	1478721910487	o	79
491871	5293048	I think Citation should be good now.	I think Ciatation should be good know.	251244282	1478721910431	1478721910567	n	78
491871	5293048	I think Citation should be good now.	I think Ciatation should be good know.	251244287	1478721910647	1478721910711	 	32
491871	5293048	I think Citation should be good now.	I think Ciatation should be good know.	251244291	1478721911087	1478721911176	s	83
491871	5293048	I think Citation should be good now.	I think Ciatation should be good know.	251244296	1478721911400	1478721911559	h	72
491871	5293048	I think Citation should be good now.	I think Ciatation should be good know.	251244301	1478721911512	1478721911719	o	79
491871	5293048	I think Citation should be good now.	I think Ciatation should be good know.	251244348	1478721911711	1478721911839	u	85
491871	5293048	I think Citation should be good now.	I think Ciatation should be good know.	251244350	1478721911879	1478721911999	l	76
491871	5293048	I think Citation should be good now.	I think Ciatation should be good know.	251244352	1478721912063	1478721912135	d	68
491871	5293048	I think Citation should be good now.	I think Ciatation should be good know.	251244356	1478721912151	1478721912263	 	32
491871	5293048	I think Citation should be good now.	I think Ciatation should be good know.	251244360	1478721912383	1478721912447	b	66
491871	5293048	I think Citation should be good now.	I think Ciatation should be good know.	251244363	1478721912495	1478721912575	e	69
491871	5293048	I think Citation should be good now.	I think Ciatation should be good know.	251244398	1478721912608	1478721912720	 	32
491871	5293048	I think Citation should be good now.	I think Ciatation should be good know.	251244401	1478721912895	1478721912983	g	71
491871	5293048	I think Citation should be good now.	I think Ciatation should be good know.	251244404	1478721913095	1478721913143	o	79
491871	5293048	I think Citation should be good now.	I think Ciatation should be good know.	251244407	1478721913247	1478721913303	o	79
491871	5293048	I think Citation should be good now.	I think Ciatation should be good know.	251244410	1478721913391	1478721913439	d	68
491871	5293048	I think Citation should be good now.	I think Ciatation should be good know.	251244444	1478721913503	1478721913599	 	32
491871	5293048	I think Citation should be good now.	I think Ciatation should be good know.	251244447	1478721913735	1478721913887	k	75
491871	5293048	I think Citation should be good now.	I think Ciatation should be good know.	251244449	1478721913871	1478721914071	n	78
491871	5293048	I think Citation should be good now.	I think Ciatation should be good know.	251244453	1478721914030	1478721914143	o	79
491871	5293048	I think Citation should be good now.	I think Ciatation should be good know.	251244458	1478721914175	1478721914280	w	87
491871	5293048	I think Citation should be good now.	I think Ciatation should be good know.	251244495	1478721914488	1478721914567	.	190
491871	5293068	Ava, do we need to worry about this?	Ava, do we need to worry about this?	251244789	1478721916783	1478721916887	CAPS_LOCK	20
491871	5293068	Ava, do we need to worry about this?	Ava, do we need to worry about this?	251244795	1478721917231	1478721917367	A	65
491871	5293068	Ava, do we need to worry about this?	Ava, do we need to worry about this?	251244801	1478721917448	1478721917567	CAPS_LOCK	20
491871	5293068	Ava, do we need to worry about this?	Ava, do we need to worry about this?	251244807	1478721917655	1478721917767	v	86
491871	5293068	Ava, do we need to worry about this?	Ava, do we need to worry about this?	251244814	1478721917935	1478721918039	a	65
491871	5293068	Ava, do we need to worry about this?	Ava, do we need to worry about this?	251244823	1478721918111	1478721918199	 	32
491871	5293068	Ava, do we need to worry about this?	Ava, do we need to worry about this?	251244832	1478721918487	1478721918575	BKSP	8
491871	5293068	Ava, do we need to worry about this?	Ava, do we need to worry about this?	251244840	1478721919239	1478721919327	,	188
491871	5293068	Ava, do we need to worry about this?	Ava, do we need to worry about this?	251244857	1478721919375	1478721919455	 	32
491871	5293068	Ava, do we need to worry about this?	Ava, do we need to worry about this?	251244858	1478721919663	1478721919727	d	68
491871	5293068	Ava, do we need to worry about this?	Ava, do we need to worry about this?	251244859	1478721919743	1478721919815	o	79
491871	5293068	Ava, do we need to worry about this?	Ava, do we need to worry about this?	251244860	1478721919919	1478721919983	 	32
491871	5293068	Ava, do we need to worry about this?	Ava, do we need to worry about this?	251244861	1478721920087	1478721920232	w	87
491871	5293068	Ava, do we need to worry about this?	Ava, do we need to worry about this?	251244933	1478721920184	1478721920303	e	69
491871	5293068	Ava, do we need to worry about this?	Ava, do we need to worry about this?	251244938	1478721920423	1478721920503	 	32
491871	5293068	Ava, do we need to worry about this?	Ava, do we need to worry about this?	251244941	1478721920583	1478721920655	n	78
491871	5293068	Ava, do we need to worry about this?	Ava, do we need to worry about this?	251244947	1478721920687	1478721920791	e	69
491871	5293068	Ava, do we need to worry about this?	Ava, do we need to worry about this?	251244952	1478721920879	1478721920959	e	69
491871	5293068	Ava, do we need to worry about this?	Ava, do we need to worry about this?	251244954	1478721921071	1478721921151	d	68
491871	5293068	Ava, do we need to worry about this?	Ava, do we need to worry about this?	251245019	1478721921159	1478721921255	 	32
491871	5293068	Ava, do we need to worry about this?	Ava, do we need to worry about this?	251245021	1478721921327	1478721921439	t	84
491871	5293068	Ava, do we need to worry about this?	Ava, do we need to worry about this?	251245026	1478721921535	1478721921615	o	79
491871	5293068	Ava, do we need to worry about this?	Ava, do we need to worry about this?	251245029	1478721921687	1478721921775	 	32
491871	5293068	Ava, do we need to worry about this?	Ava, do we need to worry about this?	251245034	1478721922255	1478721922383	w	87
491871	5293068	Ava, do we need to worry about this?	Ava, do we need to worry about this?	251245059	1478721922439	1478721922527	o	79
491871	5293068	Ava, do we need to worry about this?	Ava, do we need to worry about this?	251245063	1478721922599	1478721922687	r	82
491871	5293068	Ava, do we need to worry about this?	Ava, do we need to worry about this?	251245068	1478721922766	1478721922863	r	82
491871	5293068	Ava, do we need to worry about this?	Ava, do we need to worry about this?	251245073	1478721922895	1478721922983	y	89
491871	5293068	Ava, do we need to worry about this?	Ava, do we need to worry about this?	251245077	1478721923006	1478721923079	 	32
491871	5293068	Ava, do we need to worry about this?	Ava, do we need to worry about this?	251245121	1478721923296	1478721923375	a	65
491871	5293068	Ava, do we need to worry about this?	Ava, do we need to worry about this?	251245125	1478721923423	1478721923495	b	66
491871	5293068	Ava, do we need to worry about this?	Ava, do we need to worry about this?	251245131	1478721923680	1478721923831	o	79
491871	5293068	Ava, do we need to worry about this?	Ava, do we need to worry about this?	251245136	1478721923775	1478721923887	u	85
491871	5293068	Ava, do we need to worry about this?	Ava, do we need to worry about this?	251245138	1478721923911	1478721924007	t	84
491871	5293068	Ava, do we need to worry about this?	Ava, do we need to worry about this?	251245171	1478721924055	1478721924151	 	32
491871	5293068	Ava, do we need to worry about this?	Ava, do we need to worry about this?	251245175	1478721924191	1478721924263	t	84
491871	5293068	Ava, do we need to worry about this?	Ava, do we need to worry about this?	251245179	1478721924383	1478721924567	h	72
491871	5293068	Ava, do we need to worry about this?	Ava, do we need to worry about this?	251245183	1478721924511	1478721924630	i	73
491871	5293068	Ava, do we need to worry about this?	Ava, do we need to worry about this?	251245186	1478721924720	1478721924831	s	83
491871	5293068	Ava, do we need to worry about this?	Ava, do we need to worry about this?	251245204	1478721925007	1478721925183	SHIFT	16
491871	5293068	Ava, do we need to worry about this?	Ava, do we need to worry about this?	251245208	1478721925127	1478721925223	?	191
