PARTICIPANT_ID	TEST_SECTION_ID	SENTENCE	USER_INPUT	KEYSTROKE_ID	PRESS_TIME	RELEASE_TIME	LETTER	KEYCODE
492979	5304731	on Friday, October 26th.	on Friday, October 26tg,	251794377	1478731883007	1478731883063	o	79
492979	5304731	on Friday, October 26th.	on Friday, October 26tg,	251794379	1478731883285	1478731883348	 	32
492979	5304731	on Friday, October 26th.	on Friday, October 26tg,	251794381	1478731883841	1478731883899	BKSP	8
492979	5304731	on Friday, October 26th.	on Friday, October 26tg,	251794383	1478731884039	1478731884105	n	78
492979	5304731	on Friday, October 26th.	on Friday, October 26tg,	251794385	1478731884186	1478731884264	 	32
492979	5304731	on Friday, October 26th.	on Friday, October 26tg,	251794456	1478731884306	1478731884500	SHIFT	16
492979	5304731	on Friday, October 26th.	on Friday, October 26tg,	251794387	1478731884392	1478731884449	F	70
492979	5304731	on Friday, October 26th.	on Friday, October 26tg,	251794460	1478731884524	1478731884585	r	82
492979	5304731	on Friday, October 26th.	on Friday, October 26tg,	251794463	1478731884718	1478731884742	u	85
492979	5304731	on Friday, October 26th.	on Friday, October 26tg,	251794468	1478731884809	1478731884966	d	68
492979	5304731	on Friday, October 26th.	on Friday, October 26tg,	251794473	1478731885361	1478731885409	BKSP	8
492979	5304731	on Friday, October 26th.	on Friday, October 26tg,	251794477	1478731885490	1478731885534	BKSP	8
492979	5304731	on Friday, October 26th.	on Friday, October 26tg,	251794482	1478731885862	1478731885923	i	73
492979	5304731	on Friday, October 26th.	on Friday, October 26tg,	251794487	1478731886010	1478731886215	a	65
492979	5304731	on Friday, October 26th.	on Friday, October 26tg,	251794584	1478731886147	1478731886221	t	84
492979	5304731	on Friday, October 26th.	on Friday, October 26tg,	251794587	1478731886791	1478731886852	BKSP	8
492979	5304731	on Friday, October 26th.	on Friday, October 26tg,	251794590	1478731886928	1478731886994	BKSP	8
492979	5304731	on Friday, October 26th.	on Friday, October 26tg,	251794593	1478731887143	1478731887359	a	65
492979	5304731	on Friday, October 26th.	on Friday, October 26tg,	251794596	1478731887792	1478731887846	BKSP	8
492979	5304731	on Friday, October 26th.	on Friday, October 26tg,	251794599	1478731888244	1478731888344	d	68
492979	5304731	on Friday, October 26th.	on Friday, October 26tg,	251794602	1478731888391	1478731888574	a	65
492979	5304731	on Friday, October 26th.	on Friday, October 26tg,	251794607	1478731888493	1478731888574	y	89
492979	5304731	on Friday, October 26th.	on Friday, October 26tg,	251794613	1478731888714	1478731888769	m	77
492979	5304731	on Friday, October 26th.	on Friday, October 26tg,	251794775	1478731888861	1478731888942	 	32
492979	5304731	on Friday, October 26th.	on Friday, October 26tg,	251794778	1478731889392	1478731889443	BKSP	8
492979	5304731	on Friday, October 26th.	on Friday, October 26tg,	251794781	1478731889530	1478731889615	BKSP	8
492979	5304731	on Friday, October 26th.	on Friday, October 26tg,	251794784	1478731891417	1478731891488	,	188
492979	5304731	on Friday, October 26th.	on Friday, October 26tg,	251794789	1478731891580	1478731891657	 	32
492979	5304731	on Friday, October 26th.	on Friday, October 26tg,	251794793	1478731891848	1478731892013	SHIFT	16
492979	5304731	on Friday, October 26th.	on Friday, October 26tg,	251794796	1478731891964	1478731892053	O	79
492979	5304731	on Friday, October 26th.	on Friday, October 26tg,	251794801	1478731892069	1478731892169	c	67
492979	5304731	on Friday, October 26th.	on Friday, October 26tg,	251794841	1478731892518	1478731892655	t	84
492979	5304731	on Friday, October 26th.	on Friday, October 26tg,	251794837	1478731892572	1478731892623	o	79
492979	5304731	on Friday, October 26th.	on Friday, October 26tg,	251794847	1478731892719	1478731892805	b	66
492979	5304731	on Friday, October 26th.	on Friday, October 26tg,	251794850	1478731892789	1478731892963	e	69
492979	5304731	on Friday, October 26th.	on Friday, October 26tg,	251794936	1478731892856	1478731893019	r	82
492979	5304731	on Friday, October 26th.	on Friday, October 26tg,	251794940	1478731892939	1478731893035	 	32
492979	5304731	on Friday, October 26th.	on Friday, October 26tg,	251794943	1478731893318	1478731893467	2	50
492979	5304731	on Friday, October 26th.	on Friday, October 26tg,	251794947	1478731893751	1478731893821	6	54
492979	5304731	on Friday, October 26th.	on Friday, October 26tg,	251794950	1478731893899	1478731893973	t	84
492979	5304731	on Friday, October 26th.	on Friday, October 26tg,	251794952	1478731894020	1478731894063	g	71
492979	5304731	on Friday, October 26th.	on Friday, October 26tg,	251794954	1478731894400	1478731894621	,	188
492979	5304731	on Friday, October 26th.	on Friday, October 26tg,	251795001	1478731894584	1478731894642	PG_DOWN	34
492979	5304749	Ed Terry is in there twice.	Ed Terry is in tgere twuce.	251795199	1478731898843	1478731899043	SHIFT	16
492979	5304749	Ed Terry is in there twice.	Ed Terry is in tgere twuce.	251795195	1478731898927	1478731899026	E	69
492979	5304749	Ed Terry is in there twice.	Ed Terry is in tgere twuce.	251795202	1478731899074	1478731899147	d	68
492979	5304749	Ed Terry is in there twice.	Ed Terry is in tgere twuce.	251795205	1478731899243	1478731899343	 	32
492979	5304749	Ed Terry is in there twice.	Ed Terry is in tgere twuce.	251795207	1478731899544	1478731899681	SHIFT	16
492979	5304749	Ed Terry is in there twice.	Ed Terry is in tgere twuce.	251795209	1478731899644	1478731899728	R	82
492979	5304749	Ed Terry is in there twice.	Ed Terry is in tgere twuce.	251795210	1478731899795	1478731899944	e	69
492979	5304749	Ed Terry is in there twice.	Ed Terry is in tgere twuce.	251795286	1478731900275	1478731900327	BKSP	8
492979	5304749	Ed Terry is in there twice.	Ed Terry is in tgere twuce.	251795288	1478731900396	1478731900465	BKSP	8
492979	5304749	Ed Terry is in there twice.	Ed Terry is in tgere twuce.	251795290	1478731900529	1478731900765	SHIFT	16
492979	5304749	Ed Terry is in there twice.	Ed Terry is in tgere twuce.	251795291	1478731900707	1478731900765	R	82
492979	5304749	Ed Terry is in there twice.	Ed Terry is in tgere twuce.	251795292	1478731901092	1478731901142	BKSP	8
492979	5304749	Ed Terry is in there twice.	Ed Terry is in tgere twuce.	251795294	1478731901208	1478731901361	SHIFT	16
492979	5304749	Ed Terry is in there twice.	Ed Terry is in tgere twuce.	251795297	1478731901297	1478731901361	T	84
492979	5304749	Ed Terry is in there twice.	Ed Terry is in tgere twuce.	251795300	1478731901476	1478731901629	e	69
492979	5304749	Ed Terry is in there twice.	Ed Terry is in tgere twuce.	251795304	1478731901862	1478731901916	r	82
492979	5304749	Ed Terry is in there twice.	Ed Terry is in tgere twuce.	251795310	1478731901962	1478731902046	r	82
492979	5304749	Ed Terry is in there twice.	Ed Terry is in tgere twuce.	251795313	1478731902046	1478731902108	y	89
492979	5304749	Ed Terry is in there twice.	Ed Terry is in tgere twuce.	251795316	1478731902162	1478731902246	 	32
492979	5304749	Ed Terry is in there twice.	Ed Terry is in tgere twuce.	251795319	1478731902308	1478731902389	i	73
492979	5304749	Ed Terry is in there twice.	Ed Terry is in tgere twuce.	251795323	1478731902378	1478731902494	s	83
492979	5304749	Ed Terry is in there twice.	Ed Terry is in tgere twuce.	251795370	1478731902462	1478731902599	 	32
492979	5304749	Ed Terry is in there twice.	Ed Terry is in tgere twuce.	251795372	1478731902631	1478731902696	i	73
492979	5304749	Ed Terry is in there twice.	Ed Terry is in tgere twuce.	251795376	1478731902778	1478731902823	n	78
492979	5304749	Ed Terry is in there twice.	Ed Terry is in tgere twuce.	251795379	1478731902899	1478731902963	 	32
492979	5304749	Ed Terry is in there twice.	Ed Terry is in tgere twuce.	251795383	1478731903078	1478731903105	t	84
492979	5304749	Ed Terry is in there twice.	Ed Terry is in tgere twuce.	251795387	1478731903479	1478731903532	g	71
492979	5304749	Ed Terry is in there twice.	Ed Terry is in tgere twuce.	251795442	1478731903554	1478731903660	e	69
492979	5304749	Ed Terry is in there twice.	Ed Terry is in tgere twuce.	251795445	1478731903606	1478731903760	r	82
492979	5304749	Ed Terry is in there twice.	Ed Terry is in tgere twuce.	251795450	1478731903707	1478731903848	e	69
492979	5304749	Ed Terry is in there twice.	Ed Terry is in tgere twuce.	251795455	1478731904210	1478731904321	 	32
492979	5304749	Ed Terry is in there twice.	Ed Terry is in tgere twuce.	251795458	1478731904327	1478731904439	t	84
492979	5304749	Ed Terry is in there twice.	Ed Terry is in tgere twuce.	251795520	1478731904589	1478731904752	w	87
492979	5304749	Ed Terry is in there twice.	Ed Terry is in tgere twuce.	251795522	1478731904752	1478731904782	u	85
492979	5304749	Ed Terry is in there twice.	Ed Terry is in tgere twuce.	251795523	1478731904841	1478731904990	c	67
492979	5304749	Ed Terry is in there twice.	Ed Terry is in tgere twuce.	251795526	1478731905021	1478731905145	e	69
492979	5304749	Ed Terry is in there twice.	Ed Terry is in tgere twuce.	251795529	1478731905419	1478731905468	.	190
492979	5304761	He said Telecom was still in a position of substantial protection.	He saud Telecom was still in a position of substanial protection.	251795684	1478731907240	1478731907489	SHIFT	16
492979	5304761	He said Telecom was still in a position of substantial protection.	He saud Telecom was still in a position of substanial protection.	251795686	1478731907473	1478731907541	H	72
492979	5304761	He said Telecom was still in a position of substantial protection.	He saud Telecom was still in a position of substanial protection.	251795688	1478731907556	1478731907641	e	69
492979	5304761	He said Telecom was still in a position of substantial protection.	He saud Telecom was still in a position of substanial protection.	251795690	1478731907657	1478731907793	 	32
492979	5304761	He said Telecom was still in a position of substantial protection.	He saud Telecom was still in a position of substanial protection.	251795695	1478731908426	1478731908591	s	83
492979	5304761	He said Telecom was still in a position of substantial protection.	He saud Telecom was still in a position of substanial protection.	251795735	1478731908522	1478731908723	a	65
492979	5304761	He said Telecom was still in a position of substantial protection.	He saud Telecom was still in a position of substanial protection.	251795738	1478731908656	1478731908744	u	85
492979	5304761	He said Telecom was still in a position of substantial protection.	He saud Telecom was still in a position of substanial protection.	251795741	1478731908739	1478731908854	d	68
492979	5304761	He said Telecom was still in a position of substantial protection.	He saud Telecom was still in a position of substanial protection.	251795744	1478731908854	1478731908955	 	32
492979	5304761	He said Telecom was still in a position of substantial protection.	He saud Telecom was still in a position of substanial protection.	251795750	1478731909042	1478731909255	SHIFT	16
492979	5304761	He said Telecom was still in a position of substantial protection.	He saud Telecom was still in a position of substanial protection.	251795747	1478731909142	1478731909223	T	84
492979	5304761	He said Telecom was still in a position of substantial protection.	He saud Telecom was still in a position of substanial protection.	251795753	1478731909358	1478731909480	e	69
492979	5304761	He said Telecom was still in a position of substantial protection.	He saud Telecom was still in a position of substanial protection.	251795781	1478731909456	1478731909579	l	76
492979	5304761	He said Telecom was still in a position of substantial protection.	He saud Telecom was still in a position of substanial protection.	251795784	1478731909596	1478731909696	e	69
492979	5304761	He said Telecom was still in a position of substantial protection.	He saud Telecom was still in a position of substanial protection.	251795789	1478731909797	1478731909911	c	67
492979	5304761	He said Telecom was still in a position of substantial protection.	He saud Telecom was still in a position of substanial protection.	251795794	1478731909881	1478731909935	o	79
492979	5304761	He said Telecom was still in a position of substantial protection.	He saud Telecom was still in a position of substanial protection.	251795799	1478731910013	1478731910081	m	77
492979	5304761	He said Telecom was still in a position of substantial protection.	He saud Telecom was still in a position of substanial protection.	251795802	1478731910144	1478731910310	 	32
492979	5304761	He said Telecom was still in a position of substantial protection.	He saud Telecom was still in a position of substanial protection.	251795834	1478731910297	1478731910318	w	87
492979	5304761	He said Telecom was still in a position of substantial protection.	He saud Telecom was still in a position of substanial protection.	251795838	1478731910582	1478731910713	a	65
492979	5304761	He said Telecom was still in a position of substantial protection.	He saud Telecom was still in a position of substanial protection.	251795844	1478731910682	1478731910818	s	83
492979	5304761	He said Telecom was still in a position of substantial protection.	He saud Telecom was still in a position of substanial protection.	251795850	1478731910777	1478731910898	 	32
492979	5304761	He said Telecom was still in a position of substantial protection.	He saud Telecom was still in a position of substanial protection.	251795856	1478731911098	1478731911230	s	83
492979	5304761	He said Telecom was still in a position of substantial protection.	He saud Telecom was still in a position of substanial protection.	251795858	1478731911363	1478731911419	t	84
492979	5304761	He said Telecom was still in a position of substantial protection.	He saud Telecom was still in a position of substanial protection.	251795918	1478731911448	1478731911519	i	73
492979	5304761	He said Telecom was still in a position of substantial protection.	He saud Telecom was still in a position of substanial protection.	251795920	1478731911746	1478731911782	l	76
492979	5304761	He said Telecom was still in a position of substantial protection.	He saud Telecom was still in a position of substanial protection.	251795923	1478731911916	1478731911984	l	76
492979	5304761	He said Telecom was still in a position of substantial protection.	He saud Telecom was still in a position of substanial protection.	251795930	1478731912300	1478731912371	 	32
492979	5304761	He said Telecom was still in a position of substantial protection.	He saud Telecom was still in a position of substanial protection.	251795935	1478731912463	1478731912522	i	73
492979	5304761	He said Telecom was still in a position of substantial protection.	He saud Telecom was still in a position of substanial protection.	251795967	1478731912601	1478731912667	n	78
492979	5304761	He said Telecom was still in a position of substantial protection.	He saud Telecom was still in a position of substanial protection.	251795969	1478731912748	1478731912818	 	32
492979	5304761	He said Telecom was still in a position of substantial protection.	He saud Telecom was still in a position of substanial protection.	251795977	1478731912834	1478731912953	a	65
492979	5304761	He said Telecom was still in a position of substantial protection.	He saud Telecom was still in a position of substanial protection.	251795984	1478731912887	1478731912987	 	32
492979	5304761	He said Telecom was still in a position of substantial protection.	He saud Telecom was still in a position of substanial protection.	251795990	1478731913087	1478731913141	o	79
492979	5304761	He said Telecom was still in a position of substantial protection.	He saud Telecom was still in a position of substanial protection.	251796053	1478731913249	1478731913303	o	79
492979	5304761	He said Telecom was still in a position of substantial protection.	He saud Telecom was still in a position of substanial protection.	251796058	1478731913334	1478731913449	s	83
492979	5304761	He said Telecom was still in a position of substantial protection.	He saud Telecom was still in a position of substanial protection.	251796065	1478731913565	1478731913619	BKSP	8
492979	5304761	He said Telecom was still in a position of substantial protection.	He saud Telecom was still in a position of substanial protection.	251796072	1478731913703	1478731913765	BKSP	8
492979	5304761	He said Telecom was still in a position of substantial protection.	He saud Telecom was still in a position of substanial protection.	251796078	1478731913843	1478731913911	BKSP	8
492979	5304761	He said Telecom was still in a position of substantial protection.	He saud Telecom was still in a position of substanial protection.	251796087	1478731913987	1478731914067	p	80
492979	5304761	He said Telecom was still in a position of substantial protection.	He saud Telecom was still in a position of substanial protection.	251796093	1478731914188	1478731914260	o	79
492979	5304761	He said Telecom was still in a position of substantial protection.	He saud Telecom was still in a position of substanial protection.	251796149	1478731914250	1478731914316	s	83
492979	5304761	He said Telecom was still in a position of substantial protection.	He saud Telecom was still in a position of substanial protection.	251796150	1478731914636	1478731914725	i	73
492979	5304761	He said Telecom was still in a position of substantial protection.	He saud Telecom was still in a position of substanial protection.	251796151	1478731914772	1478731914893	t	84
492979	5304761	He said Telecom was still in a position of substantial protection.	He saud Telecom was still in a position of substanial protection.	251796152	1478731914848	1478731914916	i	73
492979	5304761	He said Telecom was still in a position of substantial protection.	He saud Telecom was still in a position of substanial protection.	251796154	1478731915020	1478731915089	o	79
492979	5304761	He said Telecom was still in a position of substantial protection.	He saud Telecom was still in a position of substanial protection.	251796156	1478731915236	1478731915289	n	78
492979	5304761	He said Telecom was still in a position of substantial protection.	He saud Telecom was still in a position of substanial protection.	251796186	1478731915381	1478731915429	 	32
492979	5304761	He said Telecom was still in a position of substantial protection.	He saud Telecom was still in a position of substanial protection.	251796190	1478731915552	1478731915597	o	79
492979	5304761	He said Telecom was still in a position of substantial protection.	He saud Telecom was still in a position of substanial protection.	251796194	1478731915586	1478731915664	f	70
492979	5304761	He said Telecom was still in a position of substantial protection.	He saud Telecom was still in a position of substanial protection.	251796200	1478731915689	1478731915765	 	32
492979	5304761	He said Telecom was still in a position of substantial protection.	He saud Telecom was still in a position of substanial protection.	251796205	1478731915789	1478731915940	s	83
492979	5304761	He said Telecom was still in a position of substantial protection.	He saud Telecom was still in a position of substanial protection.	251796272	1478731915905	1478731915956	u	85
492979	5304761	He said Telecom was still in a position of substantial protection.	He saud Telecom was still in a position of substanial protection.	251796275	1478731916067	1478731916137	b	66
492979	5304761	He said Telecom was still in a position of substantial protection.	He saud Telecom was still in a position of substanial protection.	251796279	1478731916421	1478731916572	s	83
492979	5304761	He said Telecom was still in a position of substantial protection.	He saud Telecom was still in a position of substanial protection.	251796282	1478731916537	1478731916598	t	84
492979	5304761	He said Telecom was still in a position of substantial protection.	He saud Telecom was still in a position of substanial protection.	251796323	1478731916886	1478731917041	a	65
492979	5304761	He said Telecom was still in a position of substantial protection.	He saud Telecom was still in a position of substanial protection.	251796284	1478731916962	1478731917031	n	78
492979	5304761	He said Telecom was still in a position of substantial protection.	He saud Telecom was still in a position of substanial protection.	251796325	1478731917154	1478731917231	i	73
492979	5304761	He said Telecom was still in a position of substantial protection.	He saud Telecom was still in a position of substanial protection.	251796331	1478731917554	1478731917723	a	65
492979	5304761	He said Telecom was still in a position of substantial protection.	He saud Telecom was still in a position of substanial protection.	251796328	1478731917616	1478731917666	l	76
492979	5304761	He said Telecom was still in a position of substantial protection.	He saud Telecom was still in a position of substanial protection.	251796336	1478731917754	1478731917820	 	32
492979	5304761	He said Telecom was still in a position of substantial protection.	He saud Telecom was still in a position of substanial protection.	251796341	1478731918092	1478731918193	p	80
492979	5304761	He said Telecom was still in a position of substantial protection.	He saud Telecom was still in a position of substanial protection.	251796368	1478731918227	1478731918377	r	82
492979	5304761	He said Telecom was still in a position of substantial protection.	He saud Telecom was still in a position of substanial protection.	251796372	1478731918308	1478731918391	o	79
492979	5304761	He said Telecom was still in a position of substantial protection.	He saud Telecom was still in a position of substanial protection.	251796375	1478731918509	1478731918565	t	84
492979	5304761	He said Telecom was still in a position of substantial protection.	He saud Telecom was still in a position of substanial protection.	251796378	1478731918586	1478731918661	e	69
492979	5304761	He said Telecom was still in a position of substantial protection.	He saud Telecom was still in a position of substanial protection.	251796407	1478731918725	1478731918891	c	67
492979	5304761	He said Telecom was still in a position of substantial protection.	He saud Telecom was still in a position of substanial protection.	251796384	1478731918813	1478731918865	t	84
492979	5304761	He said Telecom was still in a position of substantial protection.	He saud Telecom was still in a position of substanial protection.	251796412	1478731919040	1478731919098	i	73
492979	5304761	He said Telecom was still in a position of substantial protection.	He saud Telecom was still in a position of substanial protection.	251796416	1478731919193	1478731919263	o	79
492979	5304761	He said Telecom was still in a position of substantial protection.	He saud Telecom was still in a position of substanial protection.	251796423	1478731919341	1478731919398	n	78
492979	5304761	He said Telecom was still in a position of substantial protection.	He saud Telecom was still in a position of substanial protection.	251796428	1478731919526	1478731919583	.	190
492979	5304783	But he vows to support any drivers who support the Pacers.	But her vowz to support any drivers who support the Pacers.	251796575	1478731921396	1478731921728	SHIFT	16
492979	5304783	But he vows to support any drivers who support the Pacers.	But her vowz to support any drivers who support the Pacers.	251796572	1478731921612	1478731921677	B	66
492979	5304783	But he vows to support any drivers who support the Pacers.	But her vowz to support any drivers who support the Pacers.	251796580	1478731921775	1478731921817	u	85
492979	5304783	But he vows to support any drivers who support the Pacers.	But her vowz to support any drivers who support the Pacers.	251796585	1478731921928	1478731921979	t	84
492979	5304783	But he vows to support any drivers who support the Pacers.	But her vowz to support any drivers who support the Pacers.	251796591	1478731922092	1478731922150	 	32
492979	5304783	But he vows to support any drivers who support the Pacers.	But her vowz to support any drivers who support the Pacers.	251796596	1478731922260	1478731922346	h	72
492979	5304783	But he vows to support any drivers who support the Pacers.	But her vowz to support any drivers who support the Pacers.	251796637	1478731922322	1478731922426	e	69
492979	5304783	But he vows to support any drivers who support the Pacers.	But her vowz to support any drivers who support the Pacers.	251796639	1478731922366	1478731922502	r	82
492979	5304783	But he vows to support any drivers who support the Pacers.	But her vowz to support any drivers who support the Pacers.	251796641	1478731922473	1478731922558	 	32
492979	5304783	But he vows to support any drivers who support the Pacers.	But her vowz to support any drivers who support the Pacers.	251796643	1478731923014	1478731923099	v	86
492979	5304783	But he vows to support any drivers who support the Pacers.	But her vowz to support any drivers who support the Pacers.	251796646	1478731923177	1478731923258	o	79
492979	5304783	But he vows to support any drivers who support the Pacers.	But her vowz to support any drivers who support the Pacers.	251796649	1478731923299	1478731923390	w	87
492979	5304783	But he vows to support any drivers who support the Pacers.	But her vowz to support any drivers who support the Pacers.	251796678	1478731923482	1478731923559	z	90
492979	5304783	But he vows to support any drivers who support the Pacers.	But her vowz to support any drivers who support the Pacers.	251796680	1478731923575	1478731923659	 	32
492979	5304783	But he vows to support any drivers who support the Pacers.	But her vowz to support any drivers who support the Pacers.	251796686	1478731923748	1478731923835	t	84
492979	5304783	But he vows to support any drivers who support the Pacers.	But her vowz to support any drivers who support the Pacers.	251796692	1478731923803	1478731923855	o	79
492979	5304783	But he vows to support any drivers who support the Pacers.	But her vowz to support any drivers who support the Pacers.	251796699	1478731923915	1478731924041	 	32
492979	5304783	But he vows to support any drivers who support the Pacers.	But her vowz to support any drivers who support the Pacers.	251796780	1478731924031	1478731924149	s	83
492979	5304783	But he vows to support any drivers who support the Pacers.	But her vowz to support any drivers who support the Pacers.	251796784	1478731924131	1478731924178	y	89
492979	5304783	But he vows to support any drivers who support the Pacers.	But her vowz to support any drivers who support the Pacers.	251796786	1478731924832	1478731924883	BKSP	8
492979	5304783	But he vows to support any drivers who support the Pacers.	But her vowz to support any drivers who support the Pacers.	251796788	1478731925001	1478731925051	u	85
492979	5304783	But he vows to support any drivers who support the Pacers.	But her vowz to support any drivers who support the Pacers.	251796790	1478731925248	1478731925301	p	80
492979	5304783	But he vows to support any drivers who support the Pacers.	But her vowz to support any drivers who support the Pacers.	251796792	1478731925383	1478731925441	p	80
492979	5304783	But he vows to support any drivers who support the Pacers.	But her vowz to support any drivers who support the Pacers.	251796795	1478731925533	1478731925636	o	79
492979	5304783	But he vows to support any drivers who support the Pacers.	But her vowz to support any drivers who support the Pacers.	251796813	1478731925601	1478731925738	r	82
492979	5304783	But he vows to support any drivers who support the Pacers.	But her vowz to support any drivers who support the Pacers.	251796818	1478731925696	1478731925802	t	84
492979	5304783	But he vows to support any drivers who support the Pacers.	But her vowz to support any drivers who support the Pacers.	251796824	1478731925833	1478731925969	 	32
492979	5304783	But he vows to support any drivers who support the Pacers.	But her vowz to support any drivers who support the Pacers.	251796829	1478731926002	1478731926167	a	65
492979	5304783	But he vows to support any drivers who support the Pacers.	But her vowz to support any drivers who support the Pacers.	251796836	1478731926059	1478731926207	n	78
492979	5304783	But he vows to support any drivers who support the Pacers.	But her vowz to support any drivers who support the Pacers.	251796952	1478731926182	1478731926323	d	68
492979	5304783	But he vows to support any drivers who support the Pacers.	But her vowz to support any drivers who support the Pacers.	251796959	1478731926256	1478731926338	 	32
492979	5304783	But he vows to support any drivers who support the Pacers.	But her vowz to support any drivers who support the Pacers.	251796964	1478731926603	1478731926672	BKSP	8
492979	5304783	But he vows to support any drivers who support the Pacers.	But her vowz to support any drivers who support the Pacers.	251796971	1478731926834	1478731926901	BKSP	8
492979	5304783	But he vows to support any drivers who support the Pacers.	But her vowz to support any drivers who support the Pacers.	251796976	1478731927219	1478731927271	y	89
492979	5304783	But he vows to support any drivers who support the Pacers.	But her vowz to support any drivers who support the Pacers.	251796980	1478731927381	1478731927501	 	32
492979	5304783	But he vows to support any drivers who support the Pacers.	But her vowz to support any drivers who support the Pacers.	251796984	1478731927471	1478731927555	d	68
492979	5304783	But he vows to support any drivers who support the Pacers.	But her vowz to support any drivers who support the Pacers.	251796987	1478731927835	1478731927952	r	82
492979	5304783	But he vows to support any drivers who support the Pacers.	But her vowz to support any drivers who support the Pacers.	251797003	1478731927903	1478731927964	i	73
492979	5304783	But he vows to support any drivers who support the Pacers.	But her vowz to support any drivers who support the Pacers.	251797009	1478731928066	1478731928120	v	86
492979	5304783	But he vows to support any drivers who support the Pacers.	But her vowz to support any drivers who support the Pacers.	251797017	1478731928151	1478731928270	e	69
492979	5304783	But he vows to support any drivers who support the Pacers.	But her vowz to support any drivers who support the Pacers.	251797025	1478731928204	1478731928336	r	82
492979	5304783	But he vows to support any drivers who support the Pacers.	But her vowz to support any drivers who support the Pacers.	251797030	1478731928404	1478731928553	s	83
492979	5304783	But he vows to support any drivers who support the Pacers.	But her vowz to support any drivers who support the Pacers.	251797050	1478731928520	1478731928605	 	32
492979	5304783	But he vows to support any drivers who support the Pacers.	But her vowz to support any drivers who support the Pacers.	251797062	1478731928667	1478731928804	w	87
492979	5304783	But he vows to support any drivers who support the Pacers.	But her vowz to support any drivers who support the Pacers.	251797056	1478731928737	1478731928784	h	72
492979	5304783	But he vows to support any drivers who support the Pacers.	But her vowz to support any drivers who support the Pacers.	251797066	1478731928904	1478731928947	o	79
492979	5304783	But he vows to support any drivers who support the Pacers.	But her vowz to support any drivers who support the Pacers.	251797071	1478731929005	1478731929086	 	32
492979	5304783	But he vows to support any drivers who support the Pacers.	But her vowz to support any drivers who support the Pacers.	251797074	1478731929105	1478731929221	s	83
492979	5304783	But he vows to support any drivers who support the Pacers.	But her vowz to support any drivers who support the Pacers.	251797131	1478731929235	1478731929279	u	85
492979	5304783	But he vows to support any drivers who support the Pacers.	But her vowz to support any drivers who support the Pacers.	251797137	1478731929421	1478731929487	p	80
492979	5304783	But he vows to support any drivers who support the Pacers.	But her vowz to support any drivers who support the Pacers.	251797143	1478731929557	1478731929618	p	80
492979	5304783	But he vows to support any drivers who support the Pacers.	But her vowz to support any drivers who support the Pacers.	251797148	1478731929706	1478731929762	o	79
492979	5304783	But he vows to support any drivers who support the Pacers.	But her vowz to support any drivers who support the Pacers.	251797150	1478731930295	1478731930506	r	82
492979	5304783	But he vows to support any drivers who support the Pacers.	But her vowz to support any drivers who support the Pacers.	251797160	1478731930486	1478731930608	t	84
492979	5304783	But he vows to support any drivers who support the Pacers.	But her vowz to support any drivers who support the Pacers.	251797165	1478731930670	1478731930752	 	32
492979	5304783	But he vows to support any drivers who support the Pacers.	But her vowz to support any drivers who support the Pacers.	251797170	1478731930839	1478731930889	t	84
492979	5304783	But he vows to support any drivers who support the Pacers.	But her vowz to support any drivers who support the Pacers.	251797175	1478731930960	1478731931040	h	72
492979	5304783	But he vows to support any drivers who support the Pacers.	But her vowz to support any drivers who support the Pacers.	251797179	1478731931021	1478731931155	e	69
492979	5304783	But he vows to support any drivers who support the Pacers.	But her vowz to support any drivers who support the Pacers.	251797230	1478731931108	1478731931187	 	32
492979	5304783	But he vows to support any drivers who support the Pacers.	But her vowz to support any drivers who support the Pacers.	251797236	1478731931308	1478731931375	p	80
492979	5304783	But he vows to support any drivers who support the Pacers.	But her vowz to support any drivers who support the Pacers.	251797240	1478731931355	1478731931455	a	65
492979	5304783	But he vows to support any drivers who support the Pacers.	But her vowz to support any drivers who support the Pacers.	251797242	1478731931584	1478731931632	BKSP	8
492979	5304783	But he vows to support any drivers who support the Pacers.	But her vowz to support any drivers who support the Pacers.	251797244	1478731931708	1478731931758	BKSP	8
492979	5304783	But he vows to support any drivers who support the Pacers.	But her vowz to support any drivers who support the Pacers.	251797251	1478731931786	1478731931940	SHIFT	16
492979	5304783	But he vows to support any drivers who support the Pacers.	But her vowz to support any drivers who support the Pacers.	251797247	1478731931861	1478731931909	P	80
492979	5304783	But he vows to support any drivers who support the Pacers.	But her vowz to support any drivers who support the Pacers.	251797253	1478731931987	1478731932142	a	65
492979	5304783	But he vows to support any drivers who support the Pacers.	But her vowz to support any drivers who support the Pacers.	251797294	1478731932085	1478731932154	c	67
492979	5304783	But he vows to support any drivers who support the Pacers.	But her vowz to support any drivers who support the Pacers.	251797297	1478731932246	1478731932385	e	69
492979	5304783	But he vows to support any drivers who support the Pacers.	But her vowz to support any drivers who support the Pacers.	251797300	1478731932325	1478731932441	r	82
492979	5304783	But he vows to support any drivers who support the Pacers.	But her vowz to support any drivers who support the Pacers.	251797304	1478731932526	1478731932673	s	83
492979	5304783	But he vows to support any drivers who support the Pacers.	But her vowz to support any drivers who support the Pacers.	251797307	1478731932841	1478731932905	.	190
492979	5304800	She has the game tomorrow.	She has the game tommorow.	251797447	1478731934782	1478731935047	SHIFT	16
492979	5304800	She has the game tomorrow.	She has the game tommorow.	251797452	1478731935012	1478731935166	S	83
492979	5304800	She has the game tomorrow.	She has the game tommorow.	251797454	1478731935143	1478731935243	h	72
492979	5304800	She has the game tomorrow.	She has the game tommorow.	251797456	1478731935259	1478731935390	e	69
492979	5304800	She has the game tomorrow.	She has the game tommorow.	251797457	1478731935332	1478731935428	 	32
492979	5304800	She has the game tomorrow.	She has the game tommorow.	251797458	1478731935512	1478731935580	h	72
492979	5304800	She has the game tomorrow.	She has the game tommorow.	251797471	1478731935536	1478731935695	a	65
492979	5304800	She has the game tomorrow.	She has the game tommorow.	251797474	1478731935667	1478731935801	s	83
492979	5304800	She has the game tomorrow.	She has the game tommorow.	251797478	1478731935750	1478731935832	 	32
492979	5304800	She has the game tomorrow.	She has the game tommorow.	251797481	1478731935928	1478731935997	t	84
492979	5304800	She has the game tomorrow.	She has the game tommorow.	251797482	1478731936060	1478731936112	h	72
492979	5304800	She has the game tomorrow.	She has the game tommorow.	251797509	1478731936088	1478731936189	e	69
492979	5304800	She has the game tomorrow.	She has the game tommorow.	251797510	1478731936160	1478731936264	 	32
492979	5304800	She has the game tomorrow.	She has the game tommorow.	251797511	1478731936344	1478731936407	g	71
492979	5304800	She has the game tomorrow.	She has the game tommorow.	251797512	1478731936389	1478731936511	a	65
492979	5304800	She has the game tomorrow.	She has the game tommorow.	251797513	1478731936596	1478731936696	m	77
492979	5304800	She has the game tomorrow.	She has the game tommorow.	251797516	1478731936696	1478731936847	e	69
492979	5304800	She has the game tomorrow.	She has the game tommorow.	251797563	1478731936829	1478731936937	 	32
492979	5304800	She has the game tomorrow.	She has the game tommorow.	251797560	1478731936872	1478731936922	t	84
492979	5304800	She has the game tomorrow.	She has the game tommorow.	251797567	1478731937385	1478731937441	o	79
492979	5304800	She has the game tomorrow.	She has the game tommorow.	251797572	1478731937513	1478731937583	m	77
492979	5304800	She has the game tomorrow.	She has the game tommorow.	251797576	1478731937629	1478731937695	m	77
492979	5304800	She has the game tomorrow.	She has the game tommorow.	251797579	1478731937829	1478731937977	w	87
492979	5304800	She has the game tomorrow.	She has the game tommorow.	251797667	1478731938261	1478731938322	BKSP	8
492979	5304800	She has the game tomorrow.	She has the game tommorow.	251797673	1478731938414	1478731938494	o	79
492979	5304800	She has the game tomorrow.	She has the game tommorow.	251797679	1478731938530	1478731938681	w	87
492979	5304800	She has the game tomorrow.	She has the game tommorow.	251797684	1478731938646	1478731938755	o	79
492979	5304800	She has the game tomorrow.	She has the game tommorow.	251797689	1478731938730	1478731938830	r	82
492979	5304800	She has the game tomorrow.	She has the game tommorow.	251797694	1478731938962	1478731939015	BKSP	8
492979	5304800	She has the game tomorrow.	She has the game tommorow.	251797699	1478731939095	1478731939147	BKSP	8
492979	5304800	She has the game tomorrow.	She has the game tommorow.	251797704	1478731939377	1478731939443	BKSP	8
492979	5304800	She has the game tomorrow.	She has the game tommorow.	251797710	1478731939459	1478731939575	e	69
492979	5304800	She has the game tomorrow.	She has the game tommorow.	251797773	1478731939575	1478731939644	o	79
492979	5304800	She has the game tomorrow.	She has the game tommorow.	251797777	1478731939948	1478731940006	BKSP	8
492979	5304800	She has the game tomorrow.	She has the game tommorow.	251797780	1478731940095	1478731940156	BKSP	8
492979	5304800	She has the game tomorrow.	She has the game tommorow.	251797784	1478731940191	1478731940316	r	82
492979	5304800	She has the game tomorrow.	She has the game tommorow.	251797789	1478731940332	1478731940416	o	79
492979	5304800	She has the game tomorrow.	She has the game tommorow.	251797797	1478731940489	1478731940633	w	87
492979	5304800	She has the game tomorrow.	She has the game tommorow.	251797799	1478731940576	1478731940641	.	190
492979	5304813	Sounds good to me.	Sounds good to me.	251797982	1478731942486	1478731942976	SHIFT	16
492979	5304813	Sounds good to me.	Sounds good to me.	251797983	1478731942917	1478731943031	S	83
492979	5304813	Sounds good to me.	Sounds good to me.	251797984	1478731942992	1478731943071	o	79
492979	5304813	Sounds good to me.	Sounds good to me.	251797985	1478731943282	1478731943420	n	78
492979	5304813	Sounds good to me.	Sounds good to me.	251797986	1478731943582	1478731943632	BKSP	8
492979	5304813	Sounds good to me.	Sounds good to me.	251797987	1478731943719	1478731943782	u	85
492979	5304813	Sounds good to me.	Sounds good to me.	251797988	1478731943851	1478731943968	n	78
492979	5304813	Sounds good to me.	Sounds good to me.	251798009	1478731943919	1478731944041	d	68
492979	5304813	Sounds good to me.	Sounds good to me.	251798013	1478731943980	1478731944156	s	83
492979	5304813	Sounds good to me.	Sounds good to me.	251798017	1478731944057	1478731944156	 	32
492979	5304813	Sounds good to me.	Sounds good to me.	251798022	1478731944236	1478731944347	f	70
492979	5304813	Sounds good to me.	Sounds good to me.	251798027	1478731944336	1478731944387	o	79
492979	5304813	Sounds good to me.	Sounds good to me.	251798032	1478731944452	1478731944547	o	79
492979	5304813	Sounds good to me.	Sounds good to me.	251798092	1478731944526	1478731944668	d	68
492979	5304813	Sounds good to me.	Sounds good to me.	251798095	1478731944784	1478731944829	BKSP	8
492979	5304813	Sounds good to me.	Sounds good to me.	251798098	1478731944918	1478731944965	BKSP	8
492979	5304813	Sounds good to me.	Sounds good to me.	251798102	1478731945053	1478731945112	BKSP	8
492979	5304813	Sounds good to me.	Sounds good to me.	251798106	1478731945300	1478731945401	BKSP	8
492979	5304813	Sounds good to me.	Sounds good to me.	251798109	1478731945622	1478731945688	g	71
492979	5304813	Sounds good to me.	Sounds good to me.	251798113	1478731945738	1478731945789	o	79
492979	5304813	Sounds good to me.	Sounds good to me.	251798116	1478731945853	1478731945926	o	79
492979	5304813	Sounds good to me.	Sounds good to me.	251798119	1478731945896	1478731946021	d	68
492979	5304813	Sounds good to me.	Sounds good to me.	251798121	1478731946022	1478731946073	 	32
492979	5304813	Sounds good to me.	Sounds good to me.	251798147	1478731946323	1478731946430	t	84
492979	5304813	Sounds good to me.	Sounds good to me.	251798142	1478731946385	1478731946427	o	79
492979	5304813	Sounds good to me.	Sounds good to me.	251798151	1478731946493	1478731946553	 	32
492979	5304813	Sounds good to me.	Sounds good to me.	251798157	1478731946639	1478731946705	m	77
492979	5304813	Sounds good to me.	Sounds good to me.	251798163	1478731946705	1478731946824	e	69
492979	5304813	Sounds good to me.	Sounds good to me.	251798167	1478731946824	1478731946855	.	190
492979	5304823	I am now officially a Blackberry addict.	I am now offfficially a blackberry addict.	251798305	1478731948524	1478731948885	SHIFT	16
492979	5304823	I am now officially a Blackberry addict.	I am now offfficially a blackberry addict.	251798303	1478731948803	1478731948861	I	73
492979	5304823	I am now officially a Blackberry addict.	I am now offfficially a blackberry addict.	251798310	1478731948941	1478731949053	 	32
492979	5304823	I am now officially a Blackberry addict.	I am now offfficially a blackberry addict.	251798315	1478731949025	1478731949129	a	65
492979	5304823	I am now officially a Blackberry addict.	I am now offfficially a blackberry addict.	251798320	1478731949101	1478731949166	m	77
492979	5304823	I am now officially a Blackberry addict.	I am now offfficially a blackberry addict.	251798325	1478731949225	1478731949373	 	32
492979	5304823	I am now officially a Blackberry addict.	I am now offfficially a blackberry addict.	251798493	1478731950088	1478731950132	n	78
492979	5304823	I am now officially a Blackberry addict.	I am now offfficially a blackberry addict.	251798499	1478731951258	1478731951327	o	79
492979	5304823	I am now officially a Blackberry addict.	I am now offfficially a blackberry addict.	251798505	1478731951425	1478731951523	w	32
492979	5304823	I am now officially a Blackberry addict.	I am now offfficially a blackberry addict.	251798510	1478731952027	1478731952082	BKSP	8
492979	5304823	I am now officially a Blackberry addict.	I am now offfficially a blackberry addict.	251798515	1478731952143	1478731952259	BKSP	8
492979	5304823	I am now officially a Blackberry addict.	I am now offfficially a blackberry addict.	251798519	1478731952390	1478731952564	w	87
492979	5304823	I am now officially a Blackberry addict.	I am now offfficially a blackberry addict.	251798566	1478731952480	1478731952581	 	32
492979	5304823	I am now officially a Blackberry addict.	I am now offfficially a blackberry addict.	251798569	1478731952691	1478731952736	o	79
492979	5304823	I am now officially a Blackberry addict.	I am now offfficially a blackberry addict.	251798575	1478731952891	1478731952912	f	70
492979	5304823	I am now officially a Blackberry addict.	I am now offfficially a blackberry addict.	251798581	1478731952919	1478731952953	f	70
492979	5304823	I am now officially a Blackberry addict.	I am now offfficially a blackberry addict.	251798585	1478731952957	1478731953029	f	70
492979	5304823	I am now officially a Blackberry addict.	I am now offfficially a blackberry addict.	251798589	1478731953577	1478731953649	f	70
492979	5304823	I am now officially a Blackberry addict.	I am now offfficially a blackberry addict.	251798627	1478731953689	1478731953803	i	73
492979	5304823	I am now officially a Blackberry addict.	I am now offfficially a blackberry addict.	251798630	1478731953778	1478731953894	c	67
492979	5304823	I am now officially a Blackberry addict.	I am now offfficially a blackberry addict.	251798632	1478731954108	1478731954194	i	73
492979	5304823	I am now officially a Blackberry addict.	I am now offfficially a blackberry addict.	251798634	1478731954261	1478731954398	a	65
492979	5304823	I am now officially a Blackberry addict.	I am now offfficially a blackberry addict.	251798661	1478731954346	1478731954414	l	76
492979	5304823	I am now officially a Blackberry addict.	I am now offfficially a blackberry addict.	251798664	1478731954461	1478731954530	l	76
492979	5304823	I am now officially a Blackberry addict.	I am now offfficially a blackberry addict.	251798668	1478731954630	1478731954686	y	89
492979	5304823	I am now officially a Blackberry addict.	I am now offfficially a blackberry addict.	251798669	1478731954762	1478731954863	 	32
492979	5304823	I am now officially a Blackberry addict.	I am now offfficially a blackberry addict.	251798672	1478731954894	1478731955046	a	65
492979	5304823	I am now officially a Blackberry addict.	I am now offfficially a blackberry addict.	251798698	1478731954947	1478731955062	 	32
492979	5304823	I am now officially a Blackberry addict.	I am now offfficially a blackberry addict.	251798701	1478731955109	1478731955179	b	66
492979	5304823	I am now officially a Blackberry addict.	I am now offfficially a blackberry addict.	251798706	1478731955309	1478731955359	l	76
492979	5304823	I am now officially a Blackberry addict.	I am now offfficially a blackberry addict.	251798712	1478731955351	1478731955463	a	65
492979	5304823	I am now officially a Blackberry addict.	I am now offfficially a blackberry addict.	251798717	1478731955510	1478731955631	c	67
492979	5304823	I am now officially a Blackberry addict.	I am now offfficially a blackberry addict.	251798761	1478731955596	1478731955644	k	75
492979	5304823	I am now officially a Blackberry addict.	I am now offfficially a blackberry addict.	251798764	1478731955763	1478731955805	b	66
492979	5304823	I am now officially a Blackberry addict.	I am now offfficially a blackberry addict.	251798769	1478731955884	1478731956079	e	69
492979	5304823	I am now officially a Blackberry addict.	I am now offfficially a blackberry addict.	251798773	1478731956048	1478731956148	r	82
492979	5304823	I am now officially a Blackberry addict.	I am now offfficially a blackberry addict.	251798778	1478731956210	1478731956308	r	82
492979	5304823	I am now officially a Blackberry addict.	I am now offfficially a blackberry addict.	251798832	1478731956260	1478731956312	y	89
492979	5304823	I am now officially a Blackberry addict.	I am now offfficially a blackberry addict.	251798835	1478731956379	1478731956461	 	32
492979	5304823	I am now officially a Blackberry addict.	I am now offfficially a blackberry addict.	251798839	1478731956476	1478731956649	a	65
492979	5304823	I am now officially a Blackberry addict.	I am now offfficially a blackberry addict.	251798843	1478731956964	1478731957033	d	68
492979	5304823	I am now officially a Blackberry addict.	I am now offfficially a blackberry addict.	251798846	1478731957111	1478731957182	d	68
492979	5304823	I am now officially a Blackberry addict.	I am now offfficially a blackberry addict.	251798890	1478731957158	1478731957234	i	73
492979	5304823	I am now officially a Blackberry addict.	I am now offfficially a blackberry addict.	251798893	1478731957296	1478731957406	c	67
492979	5304823	I am now officially a Blackberry addict.	I am now offfficially a blackberry addict.	251798896	1478731957797	1478731957927	t	84
492979	5304823	I am now officially a Blackberry addict.	I am now offfficially a blackberry addict.	251798899	1478731958034	1478731958095	.	190
492979	5304839	Megan, try this for Phillips.	Megan, tr this for Pghilips/	251799165	1478731959699	1478731960001	SHIFT	16
492979	5304839	Megan, try this for Phillips.	Megan, tr this for Pghilips/	251799166	1478731959952	1478731960068	M	77
492979	5304839	Megan, try this for Phillips.	Megan, tr this for Pghilips/	251799168	1478731960252	1478731960335	g	71
492979	5304839	Megan, try this for Phillips.	Megan, tr this for Pghilips/	251799175	1478731960537	1478731960652	a	65
492979	5304839	Megan, try this for Phillips.	Megan, tr this for Pghilips/	251799181	1478731961238	1478731961291	HOME	36
492979	5304839	Megan, try this for Phillips.	Megan, tr this for Pghilips/	251799187	1478731961385	1478731961443	BKSP	8
492979	5304839	Megan, try this for Phillips.	Megan, tr this for Pghilips/	251799192	1478731963803	1478731964055	SHIFT	16
492979	5304839	Megan, try this for Phillips.	Megan, tr this for Pghilips/	251799195	1478731964010	1478731964103	M	77
492979	5304839	Megan, try this for Phillips.	Megan, tr this for Pghilips/	251799198	1478731964186	1478731964271	e	69
492979	5304839	Megan, try this for Phillips.	Megan, tr this for Pghilips/	251799208	1478731964279	1478731964339	g	71
492979	5304839	Megan, try this for Phillips.	Megan, tr this for Pghilips/	251799211	1478731964386	1478731964518	a	65
492979	5304839	Megan, try this for Phillips.	Megan, tr this for Pghilips/	251799215	1478731964467	1478731964535	n	78
492979	5304839	Megan, try this for Phillips.	Megan, tr this for Pghilips/	251799218	1478731964702	1478731964763	,	188
492979	5304839	Megan, try this for Phillips.	Megan, tr this for Pghilips/	251799222	1478731964886	1478731964968	 	32
492979	5304839	Megan, try this for Phillips.	Megan, tr this for Pghilips/	251799245	1478731965071	1478731965238	t	84
492979	5304839	Megan, try this for Phillips.	Megan, tr this for Pghilips/	251799249	1478731965202	1478731965355	r	82
492979	5304839	Megan, try this for Phillips.	Megan, tr this for Pghilips/	251799253	1478731965418	1478731965520	 	32
492979	5304839	Megan, try this for Phillips.	Megan, tr this for Pghilips/	251799256	1478731965480	1478731965571	t	84
492979	5304839	Megan, try this for Phillips.	Megan, tr this for Pghilips/	251799259	1478731965587	1478731965653	h	72
492979	5304839	Megan, try this for Phillips.	Megan, tr this for Pghilips/	251799277	1478731965740	1478731965813	i	73
492979	5304839	Megan, try this for Phillips.	Megan, tr this for Pghilips/	251799278	1478731965802	1478731965939	s	83
492979	5304839	Megan, try this for Phillips.	Megan, tr this for Pghilips/	251799279	1478731965885	1478731965985	 	32
492979	5304839	Megan, try this for Phillips.	Megan, tr this for Pghilips/	251799280	1478731966016	1478731966194	f	70
492979	5304839	Megan, try this for Phillips.	Megan, tr this for Pghilips/	251799378	1478731966102	1478731966198	o	79
492979	5304839	Megan, try this for Phillips.	Megan, tr this for Pghilips/	251799382	1478731966154	1478731966293	r	82
492979	5304839	Megan, try this for Phillips.	Megan, tr this for Pghilips/	251799386	1478731966273	1478731966357	 	32
492979	5304839	Megan, try this for Phillips.	Megan, tr this for Pghilips/	251799394	1478731966473	1478731966674	SHIFT	16
492979	5304839	Megan, try this for Phillips.	Megan, tr this for Pghilips/	251799390	1478731966520	1478731966582	P	80
492979	5304839	Megan, try this for Phillips.	Megan, tr this for Pghilips/	251799396	1478731966720	1478731966742	g	71
492979	5304839	Megan, try this for Phillips.	Megan, tr this for Pghilips/	251799399	1478731967221	1478731967283	h	72
492979	5304839	Megan, try this for Phillips.	Megan, tr this for Pghilips/	251799404	1478731967389	1478731967451	i	73
492979	5304839	Megan, try this for Phillips.	Megan, tr this for Pghilips/	251799502	1478731967574	1478731967581	l	76
492979	5304839	Megan, try this for Phillips.	Megan, tr this for Pghilips/	251799505	1478731967674	1478731967705	l	76
492979	5304839	Megan, try this for Phillips.	Megan, tr this for Pghilips/	251799510	1478731967890	1478731967935	BKSP	8
492979	5304839	Megan, try this for Phillips.	Megan, tr this for Pghilips/	251799515	1478731968819	1478731968880	i	73
492979	5304839	Megan, try this for Phillips.	Megan, tr this for Pghilips/	251799519	1478731968944	1478731969005	p	80
492979	5304839	Megan, try this for Phillips.	Megan, tr this for Pghilips/	251799526	1478731969044	1478731969160	s	83
492979	5304839	Megan, try this for Phillips.	Megan, tr this for Pghilips/	251799524	1478731969131	1478731969176	/	191
492979	5304853	Between 0 and 4 are allowed.	Between 0 and 4 are aloowed.	251799700	1478731971478	1478731971811	SHIFT	16
492979	5304853	Between 0 and 4 are allowed.	Between 0 and 4 are aloowed.	251799704	1478731971778	1478731971894	B	66
492979	5304853	Between 0 and 4 are allowed.	Between 0 and 4 are aloowed.	251799711	1478731971909	1478731972010	e	69
492979	5304853	Between 0 and 4 are allowed.	Between 0 and 4 are aloowed.	251799717	1478731972026	1478731972096	t	84
492979	5304853	Between 0 and 4 are allowed.	Between 0 and 4 are aloowed.	251799723	1478731972147	1478731972327	w	87
492979	5304853	Between 0 and 4 are allowed.	Between 0 and 4 are aloowed.	251799851	1478731972226	1478731972347	e	69
492979	5304853	Between 0 and 4 are allowed.	Between 0 and 4 are aloowed.	251799855	1478731972447	1478731972527	e	69
492979	5304853	Between 0 and 4 are allowed.	Between 0 and 4 are aloowed.	251799862	1478731973079	1478731973160	 	32
492979	5304853	Between 0 and 4 are allowed.	Between 0 and 4 are aloowed.	251799868	1478731973380	1478731973443	BKSP	8
492979	5304853	Between 0 and 4 are allowed.	Between 0 and 4 are aloowed.	251799870	1478731973748	1478731973792	n	78
492979	5304853	Between 0 and 4 are allowed.	Between 0 and 4 are aloowed.	251799872	1478731973864	1478731973948	 	32
492979	5304853	Between 0 and 4 are allowed.	Between 0 and 4 are aloowed.	251799875	1478731974080	1478731974149	0	48
492979	5304853	Between 0 and 4 are allowed.	Between 0 and 4 are aloowed.	251799883	1478731974249	1478731974325	 	32
492979	5304853	Between 0 and 4 are allowed.	Between 0 and 4 are aloowed.	251799886	1478731974342	1478731974477	a	65
492979	5304853	Between 0 and 4 are allowed.	Between 0 and 4 are aloowed.	251799892	1478731974394	1478731974477	n	78
492979	5304853	Between 0 and 4 are allowed.	Between 0 and 4 are aloowed.	251799900	1478731974477	1478731974625	d	68
492979	5304853	Between 0 and 4 are allowed.	Between 0 and 4 are aloowed.	251799989	1478731974543	1478731974649	 	32
492979	5304853	Between 0 and 4 are allowed.	Between 0 and 4 are aloowed.	251799994	1478731975009	1478731975074	4	52
492979	5304853	Between 0 and 4 are allowed.	Between 0 and 4 are aloowed.	251799998	1478731975089	1478731975205	 	32
492979	5304853	Between 0 and 4 are allowed.	Between 0 and 4 are aloowed.	251800001	1478731975350	1478731975528	a	65
492979	5304853	Between 0 and 4 are allowed.	Between 0 and 4 are aloowed.	251800004	1478731975750	1478731976050	e	69
492979	5304853	Between 0 and 4 are allowed.	Between 0 and 4 are aloowed.	251800007	1478731976282	1478731976346	BKSP	8
492979	5304853	Between 0 and 4 are allowed.	Between 0 and 4 are aloowed.	251800010	1478731976398	1478731976545	r	82
492979	5304853	Between 0 and 4 are allowed.	Between 0 and 4 are aloowed.	251800040	1478731976475	1478731976595	e	69
492979	5304853	Between 0 and 4 are allowed.	Between 0 and 4 are aloowed.	251800045	1478731976575	1478731976667	 	32
492979	5304853	Between 0 and 4 are allowed.	Between 0 and 4 are aloowed.	251800055	1478731976714	1478731976880	a	65
492979	5304853	Between 0 and 4 are allowed.	Between 0 and 4 are aloowed.	251800061	1478731976819	1478731976890	l	76
492979	5304853	Between 0 and 4 are allowed.	Between 0 and 4 are aloowed.	251800067	1478731977052	1478731977118	o	79
492979	5304853	Between 0 and 4 are allowed.	Between 0 and 4 are aloowed.	251800069	1478731977183	1478731977289	o	79
492979	5304853	Between 0 and 4 are allowed.	Between 0 and 4 are aloowed.	251800124	1478731977252	1478731977383	w	87
492979	5304853	Between 0 and 4 are allowed.	Between 0 and 4 are aloowed.	251800127	1478731977352	1478731977442	e	69
492979	5304853	Between 0 and 4 are allowed.	Between 0 and 4 are aloowed.	251800129	1478731977499	1478731977620	d	68
492979	5304853	Between 0 and 4 are allowed.	Between 0 and 4 are aloowed.	251800131	1478731978453	1478731978505	.	190
492979	5304870	This is not a good situation to be in without a contract.	This is not a good situation to be in without a contract.	251800206	1478731980403	1478731980672	SHIFT	16
492979	5304870	This is not a good situation to be in without a contract.	This is not a good situation to be in without a contract.	251800205	1478731980587	1478731980656	T	84
492979	5304870	This is not a good situation to be in without a contract.	This is not a good situation to be in without a contract.	251800207	1478731980734	1478731980820	h	72
492979	5304870	This is not a good situation to be in without a contract.	This is not a good situation to be in without a contract.	251800208	1478731980903	1478731980969	i	73
492979	5304870	This is not a good situation to be in without a contract.	This is not a good situation to be in without a contract.	251800209	1478731980956	1478731981052	s	83
492979	5304870	This is not a good situation to be in without a contract.	This is not a good situation to be in without a contract.	251800210	1478731981053	1478731981132	 	32
492979	5304870	This is not a good situation to be in without a contract.	This is not a good situation to be in without a contract.	251800269	1478731981203	1478731981285	i	73
492979	5304870	This is not a good situation to be in without a contract.	This is not a good situation to be in without a contract.	251800274	1478731981285	1478731981352	s	83
492979	5304870	This is not a good situation to be in without a contract.	This is not a good situation to be in without a contract.	251800279	1478731981357	1478731981438	 	32
492979	5304870	This is not a good situation to be in without a contract.	This is not a good situation to be in without a contract.	251800285	1478731981504	1478731981532	b	66
492979	5304870	This is not a good situation to be in without a contract.	This is not a good situation to be in without a contract.	251800288	1478731982024	1478731982082	BKSP	8
492979	5304870	This is not a good situation to be in without a contract.	This is not a good situation to be in without a contract.	251800291	1478731982252	1478731982290	n	78
492979	5304870	This is not a good situation to be in without a contract.	This is not a good situation to be in without a contract.	251800314	1478731982452	1478731982503	o	79
492979	5304870	This is not a good situation to be in without a contract.	This is not a good situation to be in without a contract.	251800317	1478731982653	1478731982698	t	84
492979	5304870	This is not a good situation to be in without a contract.	This is not a good situation to be in without a contract.	251800323	1478731982789	1478731982874	 	32
492979	5304870	This is not a good situation to be in without a contract.	This is not a good situation to be in without a contract.	251800329	1478731982974	1478731983117	a	65
492979	5304870	This is not a good situation to be in without a contract.	This is not a good situation to be in without a contract.	251800390	1478731983058	1478731983208	s	83
492979	5304870	This is not a good situation to be in without a contract.	This is not a good situation to be in without a contract.	251800396	1478731983174	1478731983306	 	32
492979	5304870	This is not a good situation to be in without a contract.	This is not a good situation to be in without a contract.	251800402	1478731983735	1478731983799	BKSP	8
492979	5304870	This is not a good situation to be in without a contract.	This is not a good situation to be in without a contract.	251800407	1478731983875	1478731983954	BKSP	8
492979	5304870	This is not a good situation to be in without a contract.	This is not a good situation to be in without a contract.	251800411	1478731984191	1478731984269	 	32
492979	5304870	This is not a good situation to be in without a contract.	This is not a good situation to be in without a contract.	251800415	1478731984300	1478731984412	g	71
492979	5304870	This is not a good situation to be in without a contract.	This is not a good situation to be in without a contract.	251800418	1478731984428	1478731984485	o	79
492979	5304870	This is not a good situation to be in without a contract.	This is not a good situation to be in without a contract.	251800423	1478731984561	1478731984631	o	79
492979	5304870	This is not a good situation to be in without a contract.	This is not a good situation to be in without a contract.	251800473	1478731984643	1478731984774	d	68
492979	5304870	This is not a good situation to be in without a contract.	This is not a good situation to be in without a contract.	251800478	1478731984754	1478731984818	 	32
492979	5304870	This is not a good situation to be in without a contract.	This is not a good situation to be in without a contract.	251800484	1478731985062	1478731985207	s	83
492979	5304870	This is not a good situation to be in without a contract.	This is not a good situation to be in without a contract.	251800492	1478731985162	1478731985223	t	84
492979	5304870	This is not a good situation to be in without a contract.	This is not a good situation to be in without a contract.	251800501	1478731985509	1478731985560	BKSP	8
492979	5304870	This is not a good situation to be in without a contract.	This is not a good situation to be in without a contract.	251800507	1478731985763	1478731985832	i	73
492979	5304870	This is not a good situation to be in without a contract.	This is not a good situation to be in without a contract.	251800534	1478731985863	1478731985979	t	84
492979	5304870	This is not a good situation to be in without a contract.	This is not a good situation to be in without a contract.	251800536	1478731986047	1478731986116	u	85
492979	5304870	This is not a good situation to be in without a contract.	This is not a good situation to be in without a contract.	251800545	1478731986195	1478731986350	a	65
492979	5304870	This is not a good situation to be in without a contract.	This is not a good situation to be in without a contract.	251800543	1478731986295	1478731986341	r	82
492979	5304870	This is not a good situation to be in without a contract.	This is not a good situation to be in without a contract.	251800548	1478731986542	1478731986612	i	73
492979	5304870	This is not a good situation to be in without a contract.	This is not a good situation to be in without a contract.	251800607	1478731986843	1478731986909	BKSP	8
492979	5304870	This is not a good situation to be in without a contract.	This is not a good situation to be in without a contract.	251800613	1478731986996	1478731987065	BKSP	8
492979	5304870	This is not a good situation to be in without a contract.	This is not a good situation to be in without a contract.	251800617	1478731987120	1478731987239	t	84
492979	5304870	This is not a good situation to be in without a contract.	This is not a good situation to be in without a contract.	251800620	1478731987197	1478731987265	i	73
492979	5304870	This is not a good situation to be in without a contract.	This is not a good situation to be in without a contract.	251800626	1478731987365	1478731987430	o	79
492979	5304870	This is not a good situation to be in without a contract.	This is not a good situation to be in without a contract.	251800632	1478731987528	1478731987595	n	78
492979	5304870	This is not a good situation to be in without a contract.	This is not a good situation to be in without a contract.	251800637	1478731987666	1478731987745	 	32
492979	5304870	This is not a good situation to be in without a contract.	This is not a good situation to be in without a contract.	251800663	1478731987945	1478731988044	t	84
492979	5304870	This is not a good situation to be in without a contract.	This is not a good situation to be in without a contract.	251800657	1478731988015	1478731988036	o	79
492979	5304870	This is not a good situation to be in without a contract.	This is not a good situation to be in without a contract.	251800671	1478731988126	1478731988195	 	32
492979	5304870	This is not a good situation to be in without a contract.	This is not a good situation to be in without a contract.	251800675	1478731988267	1478731988353	b	66
492979	5304870	This is not a good situation to be in without a contract.	This is not a good situation to be in without a contract.	251800720	1478731988331	1478731988427	e	69
492979	5304870	This is not a good situation to be in without a contract.	This is not a good situation to be in without a contract.	251800724	1478731988443	1478731988512	 	32
492979	5304870	This is not a good situation to be in without a contract.	This is not a good situation to be in without a contract.	251800728	1478731988630	1478731988672	i	73
492979	5304870	This is not a good situation to be in without a contract.	This is not a good situation to be in without a contract.	251800732	1478731988783	1478731988844	n	78
492979	5304870	This is not a good situation to be in without a contract.	This is not a good situation to be in without a contract.	251800736	1478731988899	1478731988983	 	32
492979	5304870	This is not a good situation to be in without a contract.	This is not a good situation to be in without a contract.	251800741	1478731988999	1478731989120	w	87
492979	5304870	This is not a good situation to be in without a contract.	This is not a good situation to be in without a contract.	251800794	1478731989099	1478731989168	i	73
492979	5304870	This is not a good situation to be in without a contract.	This is not a good situation to be in without a contract.	251800801	1478731989246	1478731989350	t	84
492979	5304870	This is not a good situation to be in without a contract.	This is not a good situation to be in without a contract.	251800810	1478731989309	1478731989377	h	72
492979	5304870	This is not a good situation to be in without a contract.	This is not a good situation to be in without a contract.	251800812	1478731989468	1478731989526	o	79
492979	5304870	This is not a good situation to be in without a contract.	This is not a good situation to be in without a contract.	251800817	1478731989616	1478731989692	u	85
492979	5304870	This is not a good situation to be in without a contract.	This is not a good situation to be in without a contract.	251800825	1478731989724	1478731989859	t	84
492979	5304870	This is not a good situation to be in without a contract.	This is not a good situation to be in without a contract.	251800863	1478731989817	1478731989924	 	32
492979	5304870	This is not a good situation to be in without a contract.	This is not a good situation to be in without a contract.	251800866	1478731989985	1478731990128	a	65
492979	5304870	This is not a good situation to be in without a contract.	This is not a good situation to be in without a contract.	251800868	1478731990069	1478731990169	 	32
492979	5304870	This is not a good situation to be in without a contract.	This is not a good situation to be in without a contract.	251800869	1478731990232	1478731990345	c	67
492979	5304870	This is not a good situation to be in without a contract.	This is not a good situation to be in without a contract.	251800871	1478731990345	1478731990409	o	79
492979	5304870	This is not a good situation to be in without a contract.	This is not a good situation to be in without a contract.	251800873	1478731990547	1478731990614	n	78
492979	5304870	This is not a good situation to be in without a contract.	This is not a good situation to be in without a contract.	251800960	1478731991332	1478731991394	t	84
492979	5304870	This is not a good situation to be in without a contract.	This is not a good situation to be in without a contract.	251800964	1478731991457	1478731991507	r	82
492979	5304870	This is not a good situation to be in without a contract.	This is not a good situation to be in without a contract.	251800968	1478731991522	1478731991626	a	65
492979	5304870	This is not a good situation to be in without a contract.	This is not a good situation to be in without a contract.	251800971	1478731991606	1478731991662	c	67
492979	5304870	This is not a good situation to be in without a contract.	This is not a good situation to be in without a contract.	251800977	1478731991749	1478731991807	t	84
492979	5304870	This is not a good situation to be in without a contract.	This is not a good situation to be in without a contract.	251801098	1478731993187	1478731993302	,	188
492979	5304870	This is not a good situation to be in without a contract.	This is not a good situation to be in without a contract.	251801103	1478731993550	1478731993604	BKSP	8
492979	5304891	We will address tomorrow with Stan.	we will adress timmoworw with Stan	251801310	1478731995720	1478731995953	SHIFT	16
492979	5304891	We will address tomorrow with Stan.	we will adress timmoworw with Stan	251801315	1478731995973	1478731996087	w	87
492979	5304891	We will address tomorrow with Stan.	we will adress timmoworw with Stan	251801321	1478731996073	1478731996205	e	69
492979	5304891	We will address tomorrow with Stan.	we will adress timmoworw with Stan	251801326	1478731996252	1478731996373	 	32
492979	5304891	We will address tomorrow with Stan.	we will adress timmoworw with Stan	251801358	1478731996521	1478731996637	w	87
492979	5304891	We will address tomorrow with Stan.	we will adress timmoworw with Stan	251801329	1478731996574	1478731996619	i	73
492979	5304891	We will address tomorrow with Stan.	we will adress timmoworw with Stan	251801363	1478731996737	1478731996803	l	76
492979	5304891	We will address tomorrow with Stan.	we will adress timmoworw with Stan	251801368	1478731996874	1478731996927	l	76
492979	5304891	We will address tomorrow with Stan.	we will adress timmoworw with Stan	251801373	1478731997022	1478731997111	 	32
492979	5304891	We will address tomorrow with Stan.	we will adress timmoworw with Stan	251801377	1478731997107	1478731997267	a	65
492979	5304891	We will address tomorrow with Stan.	we will adress timmoworw with Stan	251801398	1478731997222	1478731997291	d	68
492979	5304891	We will address tomorrow with Stan.	we will adress timmoworw with Stan	251801403	1478731997375	1478731997454	r	82
492979	5304891	We will address tomorrow with Stan.	we will adress timmoworw with Stan	251801406	1478731997507	1478731997592	e	69
492979	5304891	We will address tomorrow with Stan.	we will adress timmoworw with Stan	251801409	1478731997723	1478731997776	s	83
492979	5304891	We will address tomorrow with Stan.	we will adress timmoworw with Stan	251801412	1478731997854	1478731997973	s	83
492979	5304891	We will address tomorrow with Stan.	we will adress timmoworw with Stan	251801576	1478731997917	1478731998001	 	32
492979	5304891	We will address tomorrow with Stan.	we will adress timmoworw with Stan	251801582	1478731998108	1478731998240	t	84
492979	5304891	We will address tomorrow with Stan.	we will adress timmoworw with Stan	251801589	1478731998433	1478731998463	m	77
492979	5304891	We will address tomorrow with Stan.	we will adress timmoworw with Stan	251801596	1478731998793	1478731998850	BKSP	8
492979	5304891	We will address tomorrow with Stan.	we will adress timmoworw with Stan	251801603	1478731998955	1478731999017	i	73
492979	5304891	We will address tomorrow with Stan.	we will adress timmoworw with Stan	251801607	1478731999956	1478732000019	m	77
492979	5304891	We will address tomorrow with Stan.	we will adress timmoworw with Stan	251801613	1478732000126	1478732000184	m	77
492979	5304891	We will address tomorrow with Stan.	we will adress timmoworw with Stan	251801687	1478732000358	1478732000447	o	79
492979	5304891	We will address tomorrow with Stan.	we will adress timmoworw with Stan	251801689	1478732000627	1478732000763	w	87
492979	5304891	We will address tomorrow with Stan.	we will adress timmoworw with Stan	251801692	1478732001280	1478732001361	o	79
492979	5304891	We will address tomorrow with Stan.	we will adress timmoworw with Stan	251801695	1478732001347	1478732001445	r	82
492979	5304891	We will address tomorrow with Stan.	we will adress timmoworw with Stan	251801698	1478732001497	1478732001667	w	87
492979	5304891	We will address tomorrow with Stan.	we will adress timmoworw with Stan	251801766	1478732001612	1478732001697	 	32
492979	5304891	We will address tomorrow with Stan.	we will adress timmoworw with Stan	251801771	1478732002198	1478732002334	w	87
492979	5304891	We will address tomorrow with Stan.	we will adress timmoworw with Stan	251801775	1478732002282	1478732002365	i	73
492979	5304891	We will address tomorrow with Stan.	we will adress timmoworw with Stan	251801778	1478732002398	1478732002532	t	84
492979	5304891	We will address tomorrow with Stan.	we will adress timmoworw with Stan	251801779	1478732002482	1478732002564	h	72
492979	5304891	We will address tomorrow with Stan.	we will adress timmoworw with Stan	251801781	1478732002613	1478732002782	 	32
492979	5304891	We will address tomorrow with Stan.	we will adress timmoworw with Stan	251801817	1478732002761	1478732002957	SHIFT	16
492979	5304891	We will address tomorrow with Stan.	we will adress timmoworw with Stan	251801822	1478732002914	1478732003049	S	83
492979	5304891	We will address tomorrow with Stan.	we will adress timmoworw with Stan	251801827	1478732002982	1478732003064	t	84
492979	5304891	We will address tomorrow with Stan.	we will adress timmoworw with Stan	251801832	1478732003082	1478732003133	a	65
492979	5304891	We will address tomorrow with Stan.	we will adress timmoworw with Stan	251801835	1478732003182	1478732003245	n	78
492979	5304905	I was a bit rusty but I didn't want to miss the elections back home.	I was a bit rusty but I didn't want to miss the elections back home.	251801963	1478732005400	1478732005760	SHIFT	16
492979	5304905	I was a bit rusty but I didn't want to miss the elections back home.	I was a bit rusty but I didn't want to miss the elections back home.	251801966	1478732005684	1478732005777	I	73
492979	5304905	I was a bit rusty but I didn't want to miss the elections back home.	I was a bit rusty but I didn't want to miss the elections back home.	251801971	1478732005847	1478732005994	 	32
492979	5304905	I was a bit rusty but I didn't want to miss the elections back home.	I was a bit rusty but I didn't want to miss the elections back home.	251801976	1478732005944	1478732006041	w	87
492979	5304905	I was a bit rusty but I didn't want to miss the elections back home.	I was a bit rusty but I didn't want to miss the elections back home.	251801982	1478732006148	1478732006252	a	65
492979	5304905	I was a bit rusty but I didn't want to miss the elections back home.	I was a bit rusty but I didn't want to miss the elections back home.	251802059	1478732006210	1478732006402	s	83
492979	5304905	I was a bit rusty but I didn't want to miss the elections back home.	I was a bit rusty but I didn't want to miss the elections back home.	251802061	1478732006517	1478732006638	 	32
492979	5304905	I was a bit rusty but I didn't want to miss the elections back home.	I was a bit rusty but I didn't want to miss the elections back home.	251802064	1478732006633	1478732006781	a	65
492979	5304905	I was a bit rusty but I didn't want to miss the elections back home.	I was a bit rusty but I didn't want to miss the elections back home.	251802067	1478732006698	1478732006786	 	32
492979	5304905	I was a bit rusty but I didn't want to miss the elections back home.	I was a bit rusty but I didn't want to miss the elections back home.	251802070	1478732006886	1478732006942	b	66
492979	5304905	I was a bit rusty but I didn't want to miss the elections back home.	I was a bit rusty but I didn't want to miss the elections back home.	251802074	1478732007649	1478732007707	i	73
492979	5304905	I was a bit rusty but I didn't want to miss the elections back home.	I was a bit rusty but I didn't want to miss the elections back home.	251802095	1478732007834	1478732007886	t	84
492979	5304905	I was a bit rusty but I didn't want to miss the elections back home.	I was a bit rusty but I didn't want to miss the elections back home.	251802102	1478732007969	1478732008044	 	32
492979	5304905	I was a bit rusty but I didn't want to miss the elections back home.	I was a bit rusty but I didn't want to miss the elections back home.	251802107	1478732008039	1478732008107	r	82
492979	5304905	I was a bit rusty but I didn't want to miss the elections back home.	I was a bit rusty but I didn't want to miss the elections back home.	251802112	1478732008138	1478732008231	u	85
492979	5304905	I was a bit rusty but I didn't want to miss the elections back home.	I was a bit rusty but I didn't want to miss the elections back home.	251802156	1478732008212	1478732008334	s	83
492979	5304905	I was a bit rusty but I didn't want to miss the elections back home.	I was a bit rusty but I didn't want to miss the elections back home.	251802161	1478732008334	1478732008392	t	84
492979	5304905	I was a bit rusty but I didn't want to miss the elections back home.	I was a bit rusty but I didn't want to miss the elections back home.	251802166	1478732008488	1478732008557	y	89
492979	5304905	I was a bit rusty but I didn't want to miss the elections back home.	I was a bit rusty but I didn't want to miss the elections back home.	251802170	1478732008704	1478732008784	 	32
492979	5304905	I was a bit rusty but I didn't want to miss the elections back home.	I was a bit rusty but I didn't want to miss the elections back home.	251802174	1478732008920	1478732008988	b	66
492979	5304905	I was a bit rusty but I didn't want to miss the elections back home.	I was a bit rusty but I didn't want to miss the elections back home.	251802180	1478732009136	1478732009213	u	85
492979	5304905	I was a bit rusty but I didn't want to miss the elections back home.	I was a bit rusty but I didn't want to miss the elections back home.	251802230	1478732009171	1478732009340	t	84
492979	5304905	I was a bit rusty but I didn't want to miss the elections back home.	I was a bit rusty but I didn't want to miss the elections back home.	251802236	1478732009321	1478732009410	 	32
492979	5304905	I was a bit rusty but I didn't want to miss the elections back home.	I was a bit rusty but I didn't want to miss the elections back home.	251802251	1478732009537	1478732009710	SHIFT	16
492979	5304905	I was a bit rusty but I didn't want to miss the elections back home.	I was a bit rusty but I didn't want to miss the elections back home.	251802243	1478732009621	1478732009669	I	73
492979	5304905	I was a bit rusty but I didn't want to miss the elections back home.	I was a bit rusty but I didn't want to miss the elections back home.	251802257	1478732009757	1478732009853	 	32
492979	5304905	I was a bit rusty but I didn't want to miss the elections back home.	I was a bit rusty but I didn't want to miss the elections back home.	251802262	1478732009853	1478732009938	d	68
492979	5304905	I was a bit rusty but I didn't want to miss the elections back home.	I was a bit rusty but I didn't want to miss the elections back home.	251802267	1478732010253	1478732010339	i	73
492979	5304905	I was a bit rusty but I didn't want to miss the elections back home.	I was a bit rusty but I didn't want to miss the elections back home.	251802283	1478732010362	1478732010477	d	68
492979	5304905	I was a bit rusty but I didn't want to miss the elections back home.	I was a bit rusty but I didn't want to miss the elections back home.	251802286	1478732010455	1478732010523	n	78
492979	5304905	I was a bit rusty but I didn't want to miss the elections back home.	I was a bit rusty but I didn't want to miss the elections back home.	251802289	1478732010654	1478732010715	;	186
492979	5304905	I was a bit rusty but I didn't want to miss the elections back home.	I was a bit rusty but I didn't want to miss the elections back home.	251802292	1478732010822	1478732010857	y	89
492979	5304905	I was a bit rusty but I didn't want to miss the elections back home.	I was a bit rusty but I didn't want to miss the elections back home.	251802297	1478732010873	1478732010956	 	32
492979	5304905	I was a bit rusty but I didn't want to miss the elections back home.	I was a bit rusty but I didn't want to miss the elections back home.	251802395	1478732011123	1478732011186	BKSP	8
492979	5304905	I was a bit rusty but I didn't want to miss the elections back home.	I was a bit rusty but I didn't want to miss the elections back home.	251802398	1478732011270	1478732011336	BKSP	8
492979	5304905	I was a bit rusty but I didn't want to miss the elections back home.	I was a bit rusty but I didn't want to miss the elections back home.	251802404	1478732011439	1478732011571	BKSP	8
492979	5304905	I was a bit rusty but I didn't want to miss the elections back home.	I was a bit rusty but I didn't want to miss the elections back home.	251802408	1478732011991	1478732012054	'	222
492979	5304905	I was a bit rusty but I didn't want to miss the elections back home.	I was a bit rusty but I didn't want to miss the elections back home.	251802412	1478732012090	1478732012169	t	84
492979	5304905	I was a bit rusty but I didn't want to miss the elections back home.	I was a bit rusty but I didn't want to miss the elections back home.	251802418	1478732012193	1478732012309	 	32
492979	5304905	I was a bit rusty but I didn't want to miss the elections back home.	I was a bit rusty but I didn't want to miss the elections back home.	251802424	1478732012325	1478732012494	w	87
492979	5304905	I was a bit rusty but I didn't want to miss the elections back home.	I was a bit rusty but I didn't want to miss the elections back home.	251802429	1478732012694	1478732012825	a	65
492979	5304905	I was a bit rusty but I didn't want to miss the elections back home.	I was a bit rusty but I didn't want to miss the elections back home.	251802453	1478732012842	1478732012953	n	78
492979	5304905	I was a bit rusty but I didn't want to miss the elections back home.	I was a bit rusty but I didn't want to miss the elections back home.	251802461	1478732012969	1478732013086	t	84
492979	5304905	I was a bit rusty but I didn't want to miss the elections back home.	I was a bit rusty but I didn't want to miss the elections back home.	251802469	1478732013070	1478732013183	 	32
492979	5304905	I was a bit rusty but I didn't want to miss the elections back home.	I was a bit rusty but I didn't want to miss the elections back home.	251802475	1478732013187	1478732013271	t	84
492979	5304905	I was a bit rusty but I didn't want to miss the elections back home.	I was a bit rusty but I didn't want to miss the elections back home.	251802481	1478732013287	1478732013335	o	79
492979	5304905	I was a bit rusty but I didn't want to miss the elections back home.	I was a bit rusty but I didn't want to miss the elections back home.	251802520	1478732013426	1478732013482	 	32
492979	5304905	I was a bit rusty but I didn't want to miss the elections back home.	I was a bit rusty but I didn't want to miss the elections back home.	251802524	1478732013573	1478732013637	m	77
492979	5304905	I was a bit rusty but I didn't want to miss the elections back home.	I was a bit rusty but I didn't want to miss the elections back home.	251802529	1478732013758	1478732013807	i	73
492979	5304905	I was a bit rusty but I didn't want to miss the elections back home.	I was a bit rusty but I didn't want to miss the elections back home.	251802532	1478732013840	1478732013893	s	83
492979	5304905	I was a bit rusty but I didn't want to miss the elections back home.	I was a bit rusty but I didn't want to miss the elections back home.	251802534	1478732013966	1478732014067	s	83
492979	5304905	I was a bit rusty but I didn't want to miss the elections back home.	I was a bit rusty but I didn't want to miss the elections back home.	251802571	1478732014111	1478732014193	 	32
492979	5304905	I was a bit rusty but I didn't want to miss the elections back home.	I was a bit rusty but I didn't want to miss the elections back home.	251802574	1478732014274	1478732014337	t	84
492979	5304905	I was a bit rusty but I didn't want to miss the elections back home.	I was a bit rusty but I didn't want to miss the elections back home.	251802576	1478732014412	1478732014546	e	69
492979	5304905	I was a bit rusty but I didn't want to miss the elections back home.	I was a bit rusty but I didn't want to miss the elections back home.	251802578	1478732014527	1478732014603	 	32
492979	5304905	I was a bit rusty but I didn't want to miss the elections back home.	I was a bit rusty but I didn't want to miss the elections back home.	251802581	1478732014796	1478732014848	BKSP	8
492979	5304905	I was a bit rusty but I didn't want to miss the elections back home.	I was a bit rusty but I didn't want to miss the elections back home.	251802584	1478732014928	1478732014997	BKSP	8
492979	5304905	I was a bit rusty but I didn't want to miss the elections back home.	I was a bit rusty but I didn't want to miss the elections back home.	251802587	1478732015128	1478732015191	h	72
492979	5304905	I was a bit rusty but I didn't want to miss the elections back home.	I was a bit rusty but I didn't want to miss the elections back home.	251802616	1478732015221	1478732015318	e	69
492979	5304905	I was a bit rusty but I didn't want to miss the elections back home.	I was a bit rusty but I didn't want to miss the elections back home.	251802619	1478732015271	1478732015349	 	32
492979	5304905	I was a bit rusty but I didn't want to miss the elections back home.	I was a bit rusty but I didn't want to miss the elections back home.	251802622	1478732015414	1478732015595	e	69
492979	5304905	I was a bit rusty but I didn't want to miss the elections back home.	I was a bit rusty but I didn't want to miss the elections back home.	251802626	1478732015761	1478732015874	l	76
492979	5304905	I was a bit rusty but I didn't want to miss the elections back home.	I was a bit rusty but I didn't want to miss the elections back home.	251802692	1478732015865	1478732015981	c	67
492979	5304905	I was a bit rusty but I didn't want to miss the elections back home.	I was a bit rusty but I didn't want to miss the elections back home.	251802696	1478732016198	1478732016269	BKSP	8
492979	5304905	I was a bit rusty but I didn't want to miss the elections back home.	I was a bit rusty but I didn't want to miss the elections back home.	251802703	1478732016266	1478732016381	e	69
492979	5304905	I was a bit rusty but I didn't want to miss the elections back home.	I was a bit rusty but I didn't want to miss the elections back home.	251802711	1478732016915	1478732017062	c	67
492979	5304905	I was a bit rusty but I didn't want to miss the elections back home.	I was a bit rusty but I didn't want to miss the elections back home.	251802720	1478732017198	1478732017273	t	84
492979	5304905	I was a bit rusty but I didn't want to miss the elections back home.	I was a bit rusty but I didn't want to miss the elections back home.	251802728	1478732017245	1478732017305	i	73
492979	5304905	I was a bit rusty but I didn't want to miss the elections back home.	I was a bit rusty but I didn't want to miss the elections back home.	251802735	1478732017400	1478732017427	o	79
492979	5304905	I was a bit rusty but I didn't want to miss the elections back home.	I was a bit rusty but I didn't want to miss the elections back home.	251802743	1478732017483	1478732017582	n	78
492979	5304905	I was a bit rusty but I didn't want to miss the elections back home.	I was a bit rusty but I didn't want to miss the elections back home.	251802747	1478732017564	1478732017691	s	83
492979	5304905	I was a bit rusty but I didn't want to miss the elections back home.	I was a bit rusty but I didn't want to miss the elections back home.	251802753	1478732017648	1478732017724	 	32
492979	5304905	I was a bit rusty but I didn't want to miss the elections back home.	I was a bit rusty but I didn't want to miss the elections back home.	251802759	1478732017780	1478732017866	b	66
492979	5304905	I was a bit rusty but I didn't want to miss the elections back home.	I was a bit rusty but I didn't want to miss the elections back home.	251802814	1478732017813	1478732017900	a	65
492979	5304905	I was a bit rusty but I didn't want to miss the elections back home.	I was a bit rusty but I didn't want to miss the elections back home.	251802821	1478732017980	1478732018082	c	67
492979	5304905	I was a bit rusty but I didn't want to miss the elections back home.	I was a bit rusty but I didn't want to miss the elections back home.	251802818	1478732018028	1478732018082	k	75
492979	5304905	I was a bit rusty but I didn't want to miss the elections back home.	I was a bit rusty but I didn't want to miss the elections back home.	251802827	1478732018141	1478732018216	 	32
492979	5304905	I was a bit rusty but I didn't want to miss the elections back home.	I was a bit rusty but I didn't want to miss the elections back home.	251802834	1478732018833	1478732018881	h	72
492979	5304905	I was a bit rusty but I didn't want to miss the elections back home.	I was a bit rusty but I didn't want to miss the elections back home.	251802840	1478732018979	1478732019038	o	79
492979	5304905	I was a bit rusty but I didn't want to miss the elections back home.	I was a bit rusty but I didn't want to miss the elections back home.	251802866	1478732019164	1478732019229	m	77
492979	5304905	I was a bit rusty but I didn't want to miss the elections back home.	I was a bit rusty but I didn't want to miss the elections back home.	251802869	1478732019245	1478732019333	e	69
492979	5304930	A bad thing has been turned into a good thing.	A bad thing has been turned into a good thing.	251803081	1478732021703	1478732022329	SHIFT	16
492979	5304930	A bad thing has been turned into a good thing.	A bad thing has been turned into a good thing.	251803083	1478732022276	1478732022400	A	65
492979	5304930	A bad thing has been turned into a good thing.	A bad thing has been turned into a good thing.	251803088	1478732022361	1478732022445	 	32
492979	5304930	A bad thing has been turned into a good thing.	A bad thing has been turned into a good thing.	251803094	1478732022505	1478732022625	b	66
492979	5304930	A bad thing has been turned into a good thing.	A bad thing has been turned into a good thing.	251803100	1478732022594	1478732022736	a	65
492979	5304930	A bad thing has been turned into a good thing.	A bad thing has been turned into a good thing.	251803106	1478732022803	1478732022922	d	68
492979	5304930	A bad thing has been turned into a good thing.	A bad thing has been turned into a good thing.	251803198	1478732022902	1478732023043	 	32
492979	5304930	A bad thing has been turned into a good thing.	A bad thing has been turned into a good thing.	251803202	1478732023036	1478732023140	t	84
492979	5304930	A bad thing has been turned into a good thing.	A bad thing has been turned into a good thing.	251803206	1478732023121	1478732023195	g	71
492979	5304930	A bad thing has been turned into a good thing.	A bad thing has been turned into a good thing.	251803211	1478732023283	1478732023358	u	85
492979	5304930	A bad thing has been turned into a good thing.	A bad thing has been turned into a good thing.	251803217	1478732023458	1478732023526	b	66
492979	5304930	A bad thing has been turned into a good thing.	A bad thing has been turned into a good thing.	251803222	1478732023706	1478732023759	BKSP	8
492979	5304930	A bad thing has been turned into a good thing.	A bad thing has been turned into a good thing.	251803226	1478732023838	1478732023907	BKSP	8
492979	5304930	A bad thing has been turned into a good thing.	A bad thing has been turned into a good thing.	251803230	1478732023987	1478732024060	BKSP	8
492979	5304930	A bad thing has been turned into a good thing.	A bad thing has been turned into a good thing.	251803234	1478732024093	1478732024200	h	72
492979	5304930	A bad thing has been turned into a good thing.	A bad thing has been turned into a good thing.	251803307	1478732024190	1478732024252	u	85
492979	5304930	A bad thing has been turned into a good thing.	A bad thing has been turned into a good thing.	251803310	1478732024324	1478732024424	n	78
492979	5304930	A bad thing has been turned into a good thing.	A bad thing has been turned into a good thing.	251803315	1478732024424	1478732024555	g	71
492979	5304930	A bad thing has been turned into a good thing.	A bad thing has been turned into a good thing.	251803321	1478732024555	1478732024640	 	32
492979	5304930	A bad thing has been turned into a good thing.	A bad thing has been turned into a good thing.	251803327	1478732024940	1478732025001	BKSP	8
492979	5304930	A bad thing has been turned into a good thing.	A bad thing has been turned into a good thing.	251803333	1478732025072	1478732025138	BKSP	8
492979	5304930	A bad thing has been turned into a good thing.	A bad thing has been turned into a good thing.	251803336	1478732025225	1478732025290	BKSP	8
492979	5304930	A bad thing has been turned into a good thing.	A bad thing has been turned into a good thing.	251803340	1478732025387	1478732025458	BKSP	8
492979	5304930	A bad thing has been turned into a good thing.	A bad thing has been turned into a good thing.	251803344	1478732025710	1478732025752	i	73
492979	5304930	A bad thing has been turned into a good thing.	A bad thing has been turned into a good thing.	251803349	1478732025826	1478732025906	n	78
492979	5304930	A bad thing has been turned into a good thing.	A bad thing has been turned into a good thing.	251803343	1478732025893	1478732025959	g	71
492979	5304930	A bad thing has been turned into a good thing.	A bad thing has been turned into a good thing.	251803346	1478732025975	1478732026042	 	32
492979	5304930	A bad thing has been turned into a good thing.	A bad thing has been turned into a good thing.	251803350	1478732026110	1478732026194	h	72
492979	5304930	A bad thing has been turned into a good thing.	A bad thing has been turned into a good thing.	251803352	1478732026146	1478732026326	a	65
492979	5304930	A bad thing has been turned into a good thing.	A bad thing has been turned into a good thing.	251803355	1478732026225	1478732026404	s	83
492979	5304930	A bad thing has been turned into a good thing.	A bad thing has been turned into a good thing.	251803405	1478732026326	1478732026410	 	32
492979	5304930	A bad thing has been turned into a good thing.	A bad thing has been turned into a good thing.	251803407	1478732026481	1478732026542	b	66
492979	5304930	A bad thing has been turned into a good thing.	A bad thing has been turned into a good thing.	251803410	1478732026522	1478732026590	e	69
492979	5304930	A bad thing has been turned into a good thing.	A bad thing has been turned into a good thing.	251803413	1478732027102	1478732027203	e	69
492979	5304930	A bad thing has been turned into a good thing.	A bad thing has been turned into a good thing.	251803416	1478732027243	1478732027327	n	78
492979	5304930	A bad thing has been turned into a good thing.	A bad thing has been turned into a good thing.	251803421	1478732027390	1478732027487	 	32
492979	5304930	A bad thing has been turned into a good thing.	A bad thing has been turned into a good thing.	251803493	1478732027728	1478732027812	t	84
492979	5304930	A bad thing has been turned into a good thing.	A bad thing has been turned into a good thing.	251803498	1478732027812	1478732027872	u	85
492979	5304930	A bad thing has been turned into a good thing.	A bad thing has been turned into a good thing.	251803504	1478732027904	1478732027957	e	69
492979	5304930	A bad thing has been turned into a good thing.	A bad thing has been turned into a good thing.	251803510	1478732027972	1478732028112	r	82
492979	5304930	A bad thing has been turned into a good thing.	A bad thing has been turned into a good thing.	251803515	1478732028391	1478732028454	BKSP	8
492979	5304930	A bad thing has been turned into a good thing.	A bad thing has been turned into a good thing.	251803521	1478732028544	1478732028644	BKSP	8
492979	5304930	A bad thing has been turned into a good thing.	A bad thing has been turned into a good thing.	251803525	1478732028713	1478732028813	r	82
492979	5304930	A bad thing has been turned into a good thing.	A bad thing has been turned into a good thing.	251803536	1478732028821	1478732028913	n	78
492979	5304930	A bad thing has been turned into a good thing.	A bad thing has been turned into a good thing.	251803539	1478732028929	1478732029070	e	69
492979	5304930	A bad thing has been turned into a good thing.	A bad thing has been turned into a good thing.	251803543	1478732029013	1478732029191	d	68
492979	5304930	A bad thing has been turned into a good thing.	A bad thing has been turned into a good thing.	251803545	1478732029129	1478732029213	 	32
492979	5304930	A bad thing has been turned into a good thing.	A bad thing has been turned into a good thing.	251803549	1478732029297	1478732029354	i	73
492979	5304930	A bad thing has been turned into a good thing.	A bad thing has been turned into a good thing.	251803567	1478732029430	1478732029526	n	78
492979	5304930	A bad thing has been turned into a good thing.	A bad thing has been turned into a good thing.	251803571	1478732029511	1478732029586	t	84
492979	5304930	A bad thing has been turned into a good thing.	A bad thing has been turned into a good thing.	251803574	1478732029614	1478732029667	o	79
492979	5304930	A bad thing has been turned into a good thing.	A bad thing has been turned into a good thing.	251803577	1478732029730	1478732029814	 	32
492979	5304930	A bad thing has been turned into a good thing.	A bad thing has been turned into a good thing.	251803579	1478732029814	1478732029955	a	65
492979	5304930	A bad thing has been turned into a good thing.	A bad thing has been turned into a good thing.	251803650	1478732029887	1478732029964	 	32
492979	5304930	A bad thing has been turned into a good thing.	A bad thing has been turned into a good thing.	251803652	1478732030046	1478732030130	f	70
492979	5304930	A bad thing has been turned into a good thing.	A bad thing has been turned into a good thing.	251803656	1478732030161	1478732030221	o	79
492979	5304930	A bad thing has been turned into a good thing.	A bad thing has been turned into a good thing.	251803662	1478732030283	1478732030352	o	79
492979	5304930	A bad thing has been turned into a good thing.	A bad thing has been turned into a good thing.	251803673	1478732030352	1478732030467	d	68
492979	5304930	A bad thing has been turned into a good thing.	A bad thing has been turned into a good thing.	251803678	1478732030631	1478732030683	BKSP	8
492979	5304930	A bad thing has been turned into a good thing.	A bad thing has been turned into a good thing.	251803685	1478732030762	1478732030836	BKSP	8
492979	5304930	A bad thing has been turned into a good thing.	A bad thing has been turned into a good thing.	251803693	1478732030915	1478732030986	BKSP	8
492979	5304930	A bad thing has been turned into a good thing.	A bad thing has been turned into a good thing.	251803699	1478732031063	1478732031177	BKSP	8
492979	5304930	A bad thing has been turned into a good thing.	A bad thing has been turned into a good thing.	251803713	1478732031168	1478732031267	g	71
492979	5304930	A bad thing has been turned into a good thing.	A bad thing has been turned into a good thing.	251803718	1478732031267	1478732031324	o	79
492979	5304930	A bad thing has been turned into a good thing.	A bad thing has been turned into a good thing.	251803724	1478732031400	1478732031485	o	79
492979	5304930	A bad thing has been turned into a good thing.	A bad thing has been turned into a good thing.	251803733	1478732031500	1478732031569	d	68
492979	5304930	A bad thing has been turned into a good thing.	A bad thing has been turned into a good thing.	251803740	1478732031600	1478732031685	 	32
492979	5304930	A bad thing has been turned into a good thing.	A bad thing has been turned into a good thing.	251803746	1478732031795	1478732031934	t	84
492979	5304930	A bad thing has been turned into a good thing.	A bad thing has been turned into a good thing.	251803790	1478732032295	1478732032349	h	72
492979	5304930	A bad thing has been turned into a good thing.	A bad thing has been turned into a good thing.	251803793	1478732032448	1478732032504	i	73
492979	5304930	A bad thing has been turned into a good thing.	A bad thing has been turned into a good thing.	251803795	1478732032580	1478732032622	n	78
492979	5304930	A bad thing has been turned into a good thing.	A bad thing has been turned into a good thing.	251803799	1478732032634	1478732032718	g	71
492979	5304930	A bad thing has been turned into a good thing.	A bad thing has been turned into a good thing.	251803803	1478732032765	1478732032799	.	190
492979	5304942	I'm pleased with my speeds.	I'm pleased with my speeds.	251803953	1478732034951	1478732035315	SHIFT	16
492979	5304942	I'm pleased with my speeds.	I'm pleased with my speeds.	251803955	1478732035266	1478732035348	I	73
492979	5304942	I'm pleased with my speeds.	I'm pleased with my speeds.	251803959	1478732035683	1478732035749	'	222
492979	5304942	I'm pleased with my speeds.	I'm pleased with my speeds.	251803964	1478732035852	1478732035920	m	77
492979	5304942	I'm pleased with my speeds.	I'm pleased with my speeds.	251803969	1478732035967	1478732036033	 	32
492979	5304942	I'm pleased with my speeds.	I'm pleased with my speeds.	251803974	1478732036152	1478732036220	p	80
492979	5304942	I'm pleased with my speeds.	I'm pleased with my speeds.	251803993	1478732036269	1478732036357	l	76
492979	5304942	I'm pleased with my speeds.	I'm pleased with my speeds.	251803997	1478732036315	1478732036396	e	69
492979	5304942	I'm pleased with my speeds.	I'm pleased with my speeds.	251804002	1478732036499	1478732036665	a	65
492979	5304942	I'm pleased with my speeds.	I'm pleased with my speeds.	251804007	1478732036636	1478732036768	s	83
492979	5304942	I'm pleased with my speeds.	I'm pleased with my speeds.	251804011	1478732036821	1478732036896	e	69
492979	5304942	I'm pleased with my speeds.	I'm pleased with my speeds.	251804052	1478732036988	1478732037065	s	83
492979	5304942	I'm pleased with my speeds.	I'm pleased with my speeds.	251804056	1478732037421	1478732037481	BKSP	8
492979	5304942	I'm pleased with my speeds.	I'm pleased with my speeds.	251804059	1478732037497	1478732037593	d	68
492979	5304942	I'm pleased with my speeds.	I'm pleased with my speeds.	251804062	1478732037593	1478732037678	 	32
492979	5304942	I'm pleased with my speeds.	I'm pleased with my speeds.	251804066	1478732037693	1478732037854	w	87
492979	5304942	I'm pleased with my speeds.	I'm pleased with my speeds.	251804122	1478732037794	1478732037866	i	73
492979	5304942	I'm pleased with my speeds.	I'm pleased with my speeds.	251804127	1478732037969	1478732038031	t	84
492979	5304942	I'm pleased with my speeds.	I'm pleased with my speeds.	251804133	1478732038105	1478732038163	h	72
492979	5304942	I'm pleased with my speeds.	I'm pleased with my speeds.	251804137	1478732038238	1478732038321	 	32
492979	5304942	I'm pleased with my speeds.	I'm pleased with my speeds.	251804142	1478732038438	1478732038519	m	77
492979	5304942	I'm pleased with my speeds.	I'm pleased with my speeds.	251804148	1478732038523	1478732038644	y	89
492979	5304942	I'm pleased with my speeds.	I'm pleased with my speeds.	251804200	1478732038655	1478732038722	 	32
492979	5304942	I'm pleased with my speeds.	I'm pleased with my speeds.	251804204	1478732038870	1478732038974	s	83
492979	5304942	I'm pleased with my speeds.	I'm pleased with my speeds.	251804210	1478732039086	1478732039144	p	80
492979	5304942	I'm pleased with my speeds.	I'm pleased with my speeds.	251804217	1478732039206	1478732039291	e	69
492979	5304942	I'm pleased with my speeds.	I'm pleased with my speeds.	251804224	1478732039401	1478732039524	e	69
492979	5304942	I'm pleased with my speeds.	I'm pleased with my speeds.	251804254	1478732039507	1478732039670	d	68
492979	5304942	I'm pleased with my speeds.	I'm pleased with my speeds.	251804256	1478732039655	1478732039806	s	83
492979	5304942	I'm pleased with my speeds.	I'm pleased with my speeds.	251804260	1478732039771	1478732039823	.	190
492979	5304953	I will be checking up with Lisa.	I will be checking up with Lisa.	251804449	1478732041674	1478732042047	SHIFT	16
492979	5304953	I will be checking up with Lisa.	I will be checking up with Lisa.	251804454	1478732041989	1478732042075	I	73
492979	5304953	I will be checking up with Lisa.	I will be checking up with Lisa.	251804459	1478732042142	1478732042259	 	32
492979	5304953	I will be checking up with Lisa.	I will be checking up with Lisa.	251804463	1478732042242	1478732042371	w	87
492979	5304953	I will be checking up with Lisa.	I will be checking up with Lisa.	251804467	1478732042342	1478732042408	i	73
492979	5304953	I will be checking up with Lisa.	I will be checking up with Lisa.	251804472	1478732042489	1478732042546	l	76
492979	5304953	I will be checking up with Lisa.	I will be checking up with Lisa.	251804497	1478732042626	1478732042677	l	76
492979	5304953	I will be checking up with Lisa.	I will be checking up with Lisa.	251804499	1478732042789	1478732042803	 	32
492979	5304953	I will be checking up with Lisa.	I will be checking up with Lisa.	251804502	1478732042927	1478732042992	b	66
492979	5304953	I will be checking up with Lisa.	I will be checking up with Lisa.	251804505	1478732043459	1478732043528	e	69
492979	5304953	I will be checking up with Lisa.	I will be checking up with Lisa.	251804508	1478732043528	1478732043628	 	32
492979	5304953	I will be checking up with Lisa.	I will be checking up with Lisa.	251804523	1478732043682	1478732043799	c	67
492979	5304953	I will be checking up with Lisa.	I will be checking up with Lisa.	251804525	1478732043772	1478732043828	h	72
492979	5304953	I will be checking up with Lisa.	I will be checking up with Lisa.	251804527	1478732043875	1478732044010	e	69
492979	5304953	I will be checking up with Lisa.	I will be checking up with Lisa.	251804529	1478732044003	1478732044120	c	67
492979	5304953	I will be checking up with Lisa.	I will be checking up with Lisa.	251804568	1478732044089	1478732044141	k	75
492979	5304953	I will be checking up with Lisa.	I will be checking up with Lisa.	251804569	1478732044360	1478732044429	n	78
492979	5304953	I will be checking up with Lisa.	I will be checking up with Lisa.	251804571	1478732044461	1478732044582	g	71
492979	5304953	I will be checking up with Lisa.	I will be checking up with Lisa.	251804574	1478732044518	1478732044590	 	32
492979	5304953	I will be checking up with Lisa.	I will be checking up with Lisa.	251804576	1478732044708	1478732044734	u	85
492979	5304953	I will be checking up with Lisa.	I will be checking up with Lisa.	251804580	1478732044925	1478732044978	BKSP	8
492979	5304953	I will be checking up with Lisa.	I will be checking up with Lisa.	251804583	1478732045046	1478732045104	BKSP	8
492979	5304953	I will be checking up with Lisa.	I will be checking up with Lisa.	251804586	1478732045193	1478732045259	BKSP	8
492979	5304953	I will be checking up with Lisa.	I will be checking up with Lisa.	251804589	1478732045362	1478732045431	BKSP	8
492979	5304953	I will be checking up with Lisa.	I will be checking up with Lisa.	251804592	1478732045562	1478732045604	i	73
492979	5304953	I will be checking up with Lisa.	I will be checking up with Lisa.	251804643	1478732045662	1478732045771	g	71
492979	5304953	I will be checking up with Lisa.	I will be checking up with Lisa.	251804641	1478732045683	1478732045743	n	78
492979	5304953	I will be checking up with Lisa.	I will be checking up with Lisa.	251804647	1478732045802	1478732045872	 	32
492979	5304953	I will be checking up with Lisa.	I will be checking up with Lisa.	251804649	1478732045931	1478732046031	y	89
492979	5304953	I will be checking up with Lisa.	I will be checking up with Lisa.	251804651	1478732046247	1478732046296	BKSP	8
492979	5304953	I will be checking up with Lisa.	I will be checking up with Lisa.	251804653	1478732046378	1478732046442	BKSP	8
492979	5304953	I will be checking up with Lisa.	I will be checking up with Lisa.	251804656	1478732046530	1478732046604	BKSP	8
492979	5304953	I will be checking up with Lisa.	I will be checking up with Lisa.	251804660	1478732046678	1478732046726	BKSP	8
492979	5304953	I will be checking up with Lisa.	I will be checking up with Lisa.	251804665	1478732046894	1478732047012	g	71
492979	5304953	I will be checking up with Lisa.	I will be checking up with Lisa.	251804726	1478732046956	1478732047036	 	32
492979	5304953	I will be checking up with Lisa.	I will be checking up with Lisa.	251804727	1478732047395	1478732047449	BKSP	8
492979	5304953	I will be checking up with Lisa.	I will be checking up with Lisa.	251804728	1478732047533	1478732047580	BKSP	8
492979	5304953	I will be checking up with Lisa.	I will be checking up with Lisa.	251804729	1478732047680	1478732047754	n	78
492979	5304953	I will be checking up with Lisa.	I will be checking up with Lisa.	251804730	1478732047738	1478732047849	g	71
492979	5304953	I will be checking up with Lisa.	I will be checking up with Lisa.	251804732	1478732047818	1478732047916	 	32
492979	5304953	I will be checking up with Lisa.	I will be checking up with Lisa.	251804737	1478732048132	1478732048217	u	85
492979	5304953	I will be checking up with Lisa.	I will be checking up with Lisa.	251804759	1478732048187	1478732048241	p	80
492979	5304953	I will be checking up with Lisa.	I will be checking up with Lisa.	251804765	1478732048327	1478732048386	 	32
492979	5304953	I will be checking up with Lisa.	I will be checking up with Lisa.	251804770	1478732048550	1478732048664	w	87
492979	5304953	I will be checking up with Lisa.	I will be checking up with Lisa.	251804776	1478732048634	1478732048709	i	73
492979	5304953	I will be checking up with Lisa.	I will be checking up with Lisa.	251804782	1478732048774	1478732048867	t	84
492979	5304953	I will be checking up with Lisa.	I will be checking up with Lisa.	251804809	1478732048816	1478732048885	h	72
492979	5304953	I will be checking up with Lisa.	I will be checking up with Lisa.	251804811	1478732048950	1478732049034	 	32
492979	5304953	I will be checking up with Lisa.	I will be checking up with Lisa.	251804821	1478732049081	1478732049250	SHIFT	16
492979	5304953	I will be checking up with Lisa.	I will be checking up with Lisa.	251804816	1478732049134	1478732049200	L	76
492979	5304953	I will be checking up with Lisa.	I will be checking up with Lisa.	251804825	1478732049297	1478732049371	i	73
492979	5304953	I will be checking up with Lisa.	I will be checking up with Lisa.	251804830	1478732049347	1478732049501	s	83
492979	5304953	I will be checking up with Lisa.	I will be checking up with Lisa.	251804839	1478732049434	1478732049602	a	65
492979	5304953	I will be checking up with Lisa.	I will be checking up with Lisa.	251804843	1478732049535	1478732049602	.	190
