PARTICIPANT_ID	TEST_SECTION_ID	SENTENCE	USER_INPUT	KEYSTROKE_ID	PRESS_TIME	RELEASE_TIME	LETTER	KEYCODE
494782	5324041	He is listed as day to day.	He is listed as day to day.	252713669	1478754291968	1478754292247	SHIFT	16
494782	5324041	He is listed as day to day.	He is listed as day to day.	252713667	1478754292058	1478754292214	H	72
494782	5324041	He is listed as day to day.	He is listed as day to day.	252713671	1478754293194	1478754293290	e	69
494782	5324041	He is listed as day to day.	He is listed as day to day.	252713675	1478754293321	1478754293447	 	32
494782	5324041	He is listed as day to day.	He is listed as day to day.	252713678	1478754293537	1478754293663	i	73
494782	5324041	He is listed as day to day.	He is listed as day to day.	252713682	1478754293692	1478754293758	s	83
494782	5324041	He is listed as day to day.	He is listed as day to day.	252713727	1478754293789	1478754293886	 	32
494782	5324041	He is listed as day to day.	He is listed as day to day.	252713729	1478754294498	1478754294594	l	76
494782	5324041	He is listed as day to day.	He is listed as day to day.	252713731	1478754294684	1478754294780	i	73
494782	5324041	He is listed as day to day.	He is listed as day to day.	252713733	1478754294810	1478754294906	s	83
494782	5324041	He is listed as day to day.	He is listed as day to day.	252713735	1478754295548	1478754295673	t	84
494782	5324041	He is listed as day to day.	He is listed as day to day.	252713763	1478754295706	1478754295896	e	69
494782	5324041	He is listed as day to day.	He is listed as day to day.	252713765	1478754295829	1478754295960	d	68
494782	5324041	He is listed as day to day.	He is listed as day to day.	252713767	1478754295962	1478754296056	 	32
494782	5324041	He is listed as day to day.	He is listed as day to day.	252713770	1478754296481	1478754296700	a	65
494782	5324041	He is listed as day to day.	He is listed as day to day.	252713799	1478754296665	1478754296826	s	83
494782	5324041	He is listed as day to day.	He is listed as day to day.	252713801	1478754296792	1478754296889	 	32
494782	5324041	He is listed as day to day.	He is listed as day to day.	252713803	1478754297132	1478754297291	d	68
494782	5324041	He is listed as day to day.	He is listed as day to day.	252713805	1478754297257	1478754297355	a	65
494782	5324041	He is listed as day to day.	He is listed as day to day.	252713807	1478754297477	1478754297605	y	89
494782	5324041	He is listed as day to day.	He is listed as day to day.	252713894	1478754297570	1478754297671	 	32
494782	5324041	He is listed as day to day.	He is listed as day to day.	252713896	1478754298740	1478754298897	t	84
494782	5324041	He is listed as day to day.	He is listed as day to day.	252713897	1478754298831	1478754298976	o	79
494782	5324041	He is listed as day to day.	He is listed as day to day.	252713900	1478754298979	1478754299103	 	32
494782	5324041	He is listed as day to day.	He is listed as day to day.	252713901	1478754299222	1478754299442	d	68
494782	5324041	He is listed as day to day.	He is listed as day to day.	252713952	1478754299347	1478754299478	a	65
494782	5324041	He is listed as day to day.	He is listed as day to day.	252713957	1478754299874	1478754299938	y	89
494782	5324041	He is listed as day to day.	He is listed as day to day.	252713966	1478754300212	1478754300308	.	190
494782	5324056	Liverpool always had a knack of bringing people down to earth.	Liverpool always had a knack of bringing people down to earth.	252714245	1478754304961	1478754305147	SHIFT	16
494782	5324056	Liverpool always had a knack of bringing people down to earth.	Liverpool always had a knack of bringing people down to earth.	252714248	1478754305052	1478754305180	L	76
494782	5324056	Liverpool always had a knack of bringing people down to earth.	Liverpool always had a knack of bringing people down to earth.	252714251	1478754305270	1478754305397	i	73
494782	5324056	Liverpool always had a knack of bringing people down to earth.	Liverpool always had a knack of bringing people down to earth.	252714253	1478754305641	1478754305768	v	86
494782	5324056	Liverpool always had a knack of bringing people down to earth.	Liverpool always had a knack of bringing people down to earth.	252714255	1478754305979	1478754306136	e	69
494782	5324056	Liverpool always had a knack of bringing people down to earth.	Liverpool always had a knack of bringing people down to earth.	252714258	1478754306257	1478754306354	r	82
494782	5324056	Liverpool always had a knack of bringing people down to earth.	Liverpool always had a knack of bringing people down to earth.	252714321	1478754307608	1478754307703	p	80
494782	5324056	Liverpool always had a knack of bringing people down to earth.	Liverpool always had a knack of bringing people down to earth.	252714322	1478754307977	1478754308041	o	79
494782	5324056	Liverpool always had a knack of bringing people down to earth.	Liverpool always had a knack of bringing people down to earth.	252714323	1478754308101	1478754308199	o	79
494782	5324056	Liverpool always had a knack of bringing people down to earth.	Liverpool always had a knack of bringing people down to earth.	252714324	1478754308349	1478754308445	l	76
494782	5324056	Liverpool always had a knack of bringing people down to earth.	Liverpool always had a knack of bringing people down to earth.	252714325	1478754308506	1478754308633	 	32
494782	5324056	Liverpool always had a knack of bringing people down to earth.	Liverpool always had a knack of bringing people down to earth.	252714381	1478754309122	1478754309248	a	65
494782	5324056	Liverpool always had a knack of bringing people down to earth.	Liverpool always had a knack of bringing people down to earth.	252714386	1478754309277	1478754309403	l	76
494782	5324056	Liverpool always had a knack of bringing people down to earth.	Liverpool always had a knack of bringing people down to earth.	252714390	1478754309800	1478754309989	w	87
494782	5324056	Liverpool always had a knack of bringing people down to earth.	Liverpool always had a knack of bringing people down to earth.	252714393	1478754309954	1478754310113	a	65
494782	5324056	Liverpool always had a knack of bringing people down to earth.	Liverpool always had a knack of bringing people down to earth.	252714396	1478754310386	1478754310487	y	89
494782	5324056	Liverpool always had a knack of bringing people down to earth.	Liverpool always had a knack of bringing people down to earth.	252714448	1478754310480	1478754310580	s	83
494782	5324056	Liverpool always had a knack of bringing people down to earth.	Liverpool always had a knack of bringing people down to earth.	252714449	1478754310638	1478754310736	 	32
494782	5324056	Liverpool always had a knack of bringing people down to earth.	Liverpool always had a knack of bringing people down to earth.	252714451	1478754311285	1478754311350	h	72
494782	5324056	Liverpool always had a knack of bringing people down to earth.	Liverpool always had a knack of bringing people down to earth.	252714453	1478754311380	1478754311507	a	65
494782	5324056	Liverpool always had a knack of bringing people down to earth.	Liverpool always had a knack of bringing people down to earth.	252714455	1478754311905	1478754312032	d	68
494782	5324056	Liverpool always had a knack of bringing people down to earth.	Liverpool always had a knack of bringing people down to earth.	252714457	1478754312034	1478754312128	 	32
494782	5324056	Liverpool always had a knack of bringing people down to earth.	Liverpool always had a knack of bringing people down to earth.	252714579	1478754312401	1478754312512	a	65
494782	5324056	Liverpool always had a knack of bringing people down to earth.	Liverpool always had a knack of bringing people down to earth.	252714581	1478754312514	1478754312637	 	32
494782	5324056	Liverpool always had a knack of bringing people down to earth.	Liverpool always had a knack of bringing people down to earth.	252714583	1478754313036	1478754313102	SHIFT	16
494782	5324056	Liverpool always had a knack of bringing people down to earth.	Liverpool always had a knack of bringing people down to earth.	252714586	1478754313132	1478754313286	SHIFT	16
494782	5324056	Liverpool always had a knack of bringing people down to earth.	Liverpool always had a knack of bringing people down to earth.	252714591	1478754313775	1478754313902	k	75
494782	5324056	Liverpool always had a knack of bringing people down to earth.	Liverpool always had a knack of bringing people down to earth.	252714595	1478754314630	1478754314727	n	78
494782	5324056	Liverpool always had a knack of bringing people down to earth.	Liverpool always had a knack of bringing people down to earth.	252714599	1478754314878	1478754315004	a	65
494782	5324056	Liverpool always had a knack of bringing people down to earth.	Liverpool always had a knack of bringing people down to earth.	252714699	1478754315277	1478754315403	c	67
494782	5324056	Liverpool always had a knack of bringing people down to earth.	Liverpool always had a knack of bringing people down to earth.	252714701	1478754316562	1478754316659	k	75
494782	5324056	Liverpool always had a knack of bringing people down to earth.	Liverpool always had a knack of bringing people down to earth.	252714703	1478754316689	1478754316846	 	32
494782	5324056	Liverpool always had a knack of bringing people down to earth.	Liverpool always had a knack of bringing people down to earth.	252714705	1478754317667	1478754317733	o	79
494782	5324056	Liverpool always had a knack of bringing people down to earth.	Liverpool always had a knack of bringing people down to earth.	252714707	1478754317794	1478754317889	f	70
494782	5324056	Liverpool always had a knack of bringing people down to earth.	Liverpool always had a knack of bringing people down to earth.	252714785	1478754317923	1478754318017	 	32
494782	5324056	Liverpool always had a knack of bringing people down to earth.	Liverpool always had a knack of bringing people down to earth.	252714786	1478754318658	1478754318755	b	66
494782	5324056	Liverpool always had a knack of bringing people down to earth.	Liverpool always had a knack of bringing people down to earth.	252714787	1478754318997	1478754319092	r	82
494782	5324056	Liverpool always had a knack of bringing people down to earth.	Liverpool always had a knack of bringing people down to earth.	252714788	1478754319214	1478754319309	i	73
494782	5324056	Liverpool always had a knack of bringing people down to earth.	Liverpool always had a knack of bringing people down to earth.	252714789	1478754320164	1478754320229	n	78
494782	5324056	Liverpool always had a knack of bringing people down to earth.	Liverpool always had a knack of bringing people down to earth.	252714800	1478754320624	1478754320721	g	71
494782	5324056	Liverpool always had a knack of bringing people down to earth.	Liverpool always had a knack of bringing people down to earth.	252714802	1478754320782	1478754320878	i	73
494782	5324056	Liverpool always had a knack of bringing people down to earth.	Liverpool always had a knack of bringing people down to earth.	252714805	1478754320999	1478754321126	n	78
494782	5324056	Liverpool always had a knack of bringing people down to earth.	Liverpool always had a knack of bringing people down to earth.	252714808	1478754321315	1478754321381	g	71
494782	5324056	Liverpool always had a knack of bringing people down to earth.	Liverpool always had a knack of bringing people down to earth.	252714810	1478754321470	1478754321596	 	32
494782	5324056	Liverpool always had a knack of bringing people down to earth.	Liverpool always had a knack of bringing people down to earth.	252714888	1478754322910	1478754323036	p	80
494782	5324056	Liverpool always had a knack of bringing people down to earth.	Liverpool always had a knack of bringing people down to earth.	252714893	1478754323493	1478754323619	e	69
494782	5324056	Liverpool always had a knack of bringing people down to earth.	Liverpool always had a knack of bringing people down to earth.	252714897	1478754323710	1478754323803	o	79
494782	5324056	Liverpool always had a knack of bringing people down to earth.	Liverpool always had a knack of bringing people down to earth.	252714902	1478754323938	1478754324066	p	80
494782	5324056	Liverpool always had a knack of bringing people down to earth.	Liverpool always had a knack of bringing people down to earth.	252714905	1478754324230	1478754324367	l	76
494782	5324056	Liverpool always had a knack of bringing people down to earth.	Liverpool always had a knack of bringing people down to earth.	252714972	1478754324523	1478754324618	e	69
494782	5324056	Liverpool always had a knack of bringing people down to earth.	Liverpool always had a knack of bringing people down to earth.	252714978	1478754325136	1478754325232	 	32
494782	5324056	Liverpool always had a knack of bringing people down to earth.	Liverpool always had a knack of bringing people down to earth.	252714983	1478754325657	1478754325784	d	68
494782	5324056	Liverpool always had a knack of bringing people down to earth.	Liverpool always had a knack of bringing people down to earth.	252714987	1478754325905	1478754325939	o	79
494782	5324056	Liverpool always had a knack of bringing people down to earth.	Liverpool always had a knack of bringing people down to earth.	252714991	1478754327041	1478754327168	w	87
494782	5324056	Liverpool always had a knack of bringing people down to earth.	Liverpool always had a knack of bringing people down to earth.	252715046	1478754327320	1478754327393	n	78
494782	5324056	Liverpool always had a knack of bringing people down to earth.	Liverpool always had a knack of bringing people down to earth.	252715049	1478754327454	1478754327582	 	32
494782	5324056	Liverpool always had a knack of bringing people down to earth.	Liverpool always had a knack of bringing people down to earth.	252715051	1478754328435	1478754328561	t	84
494782	5324056	Liverpool always had a knack of bringing people down to earth.	Liverpool always had a knack of bringing people down to earth.	252715053	1478754328591	1478754328687	o	79
494782	5324056	Liverpool always had a knack of bringing people down to earth.	Liverpool always had a knack of bringing people down to earth.	252715055	1478754328870	1478754329027	 	32
494782	5324056	Liverpool always had a knack of bringing people down to earth.	Liverpool always had a knack of bringing people down to earth.	252715106	1478754329425	1478754329641	e	69
494782	5324056	Liverpool always had a knack of bringing people down to earth.	Liverpool always had a knack of bringing people down to earth.	252715107	1478754329577	1478754329704	a	65
494782	5324056	Liverpool always had a knack of bringing people down to earth.	Liverpool always had a knack of bringing people down to earth.	252715108	1478754330009	1478754330106	r	82
494782	5324056	Liverpool always had a knack of bringing people down to earth.	Liverpool always had a knack of bringing people down to earth.	252715109	1478754330226	1478754330323	t	84
494782	5324056	Liverpool always had a knack of bringing people down to earth.	Liverpool always had a knack of bringing people down to earth.	252715110	1478754330444	1478754330600	h	72
494782	5324056	Liverpool always had a knack of bringing people down to earth.	Liverpool always had a knack of bringing people down to earth.	252715124	1478754330999	1478754331094	.	190
494782	5324077	Mike got himself a bamboo needle.	Mike got himself a bamboo needle.	252715281	1478754333669	1478754333953	SHIFT	16
494782	5324077	Mike got himself a bamboo needle.	Mike got himself a bamboo needle.	252715280	1478754333794	1478754333920	M	77
494782	5324077	Mike got himself a bamboo needle.	Mike got himself a bamboo needle.	252715283	1478754334043	1478754334171	i	73
494782	5324077	Mike got himself a bamboo needle.	Mike got himself a bamboo needle.	252715285	1478754334719	1478754334846	k	75
494782	5324077	Mike got himself a bamboo needle.	Mike got himself a bamboo needle.	252715287	1478754334938	1478754334972	w	87
494782	5324077	Mike got himself a bamboo needle.	Mike got himself a bamboo needle.	252715289	1478754335978	1478754336073	BKSP	8
494782	5324077	Mike got himself a bamboo needle.	Mike got himself a bamboo needle.	252715291	1478754336225	1478754336352	e	69
494782	5324077	Mike got himself a bamboo needle.	Mike got himself a bamboo needle.	252715339	1478754336356	1478754336447	 	32
494782	5324077	Mike got himself a bamboo needle.	Mike got himself a bamboo needle.	252715342	1478754337362	1478754337552	g	71
494782	5324077	Mike got himself a bamboo needle.	Mike got himself a bamboo needle.	252715345	1478754337516	1478754337644	o	79
494782	5324077	Mike got himself a bamboo needle.	Mike got himself a bamboo needle.	252715348	1478754337767	1478754337863	t	84
494782	5324077	Mike got himself a bamboo needle.	Mike got himself a bamboo needle.	252715351	1478754337922	1478754337987	 	32
494782	5324077	Mike got himself a bamboo needle.	Mike got himself a bamboo needle.	252715405	1478754338567	1478754338725	h	72
494782	5324077	Mike got himself a bamboo needle.	Mike got himself a bamboo needle.	252715407	1478754338691	1478754338788	i	73
494782	5324077	Mike got himself a bamboo needle.	Mike got himself a bamboo needle.	252715410	1478754339304	1478754339400	m	77
494782	5324077	Mike got himself a bamboo needle.	Mike got himself a bamboo needle.	252715413	1478754339582	1478754339708	s	83
494782	5324077	Mike got himself a bamboo needle.	Mike got himself a bamboo needle.	252715414	1478754339892	1478754340018	e	69
494782	5324077	Mike got himself a bamboo needle.	Mike got himself a bamboo needle.	252715433	1478754340141	1478754340236	l	76
494782	5324077	Mike got himself a bamboo needle.	Mike got himself a bamboo needle.	252715435	1478754340479	1478754340606	f	70
494782	5324077	Mike got himself a bamboo needle.	Mike got himself a bamboo needle.	252715437	1478754340608	1478754340672	 	32
494782	5324077	Mike got himself a bamboo needle.	Mike got himself a bamboo needle.	252715441	1478754341222	1478754341349	a	65
494782	5324077	Mike got himself a bamboo needle.	Mike got himself a bamboo needle.	252715446	1478754341379	1478754341444	 	32
494782	5324077	Mike got himself a bamboo needle.	Mike got himself a bamboo needle.	252715527	1478754342488	1478754342584	b	66
494782	5324077	Mike got himself a bamboo needle.	Mike got himself a bamboo needle.	252715528	1478754342644	1478754342742	a	65
494782	5324077	Mike got himself a bamboo needle.	Mike got himself a bamboo needle.	252715529	1478754343320	1478754343416	m	77
494782	5324077	Mike got himself a bamboo needle.	Mike got himself a bamboo needle.	252715531	1478754343873	1478754343998	b	66
494782	5324077	Mike got himself a bamboo needle.	Mike got himself a bamboo needle.	252715532	1478754344119	1478754344184	o	79
494782	5324077	Mike got himself a bamboo needle.	Mike got himself a bamboo needle.	252715604	1478754344276	1478754344372	o	79
494782	5324077	Mike got himself a bamboo needle.	Mike got himself a bamboo needle.	252715607	1478754344646	1478754344758	 	32
494782	5324077	Mike got himself a bamboo needle.	Mike got himself a bamboo needle.	252715609	1478754345427	1478754345494	n	78
494782	5324077	Mike got himself a bamboo needle.	Mike got himself a bamboo needle.	252715611	1478754345554	1478754345681	e	69
494782	5324077	Mike got himself a bamboo needle.	Mike got himself a bamboo needle.	252715613	1478754346596	1478754346722	e	69
494782	5324077	Mike got himself a bamboo needle.	Mike got himself a bamboo needle.	252715697	1478754347151	1478754347305	d	68
494782	5324077	Mike got himself a bamboo needle.	Mike got himself a bamboo needle.	252715701	1478754347548	1478754347645	l	76
494782	5324077	Mike got himself a bamboo needle.	Mike got himself a bamboo needle.	252715704	1478754347675	1478754347801	e	69
494782	5324077	Mike got himself a bamboo needle.	Mike got himself a bamboo needle.	252715706	1478754348287	1478754348383	.	190
494782	5324090	He is recovering from a left knee injury.	He is recovering from a left knee injury.	252715811	1478754351025	1478754351863	SHIFT	16
494782	5324090	He is recovering from a left knee injury.	He is recovering from a left knee injury.	252715814	1478754351766	1478754351894	H	72
494782	5324090	He is recovering from a left knee injury.	He is recovering from a left knee injury.	252715819	1478754352045	1478754352171	e	69
494782	5324090	He is recovering from a left knee injury.	He is recovering from a left knee injury.	252715824	1478754352175	1478754352267	 	32
494782	5324090	He is recovering from a left knee injury.	He is recovering from a left knee injury.	252715828	1478754353027	1478754353154	i	73
494782	5324090	He is recovering from a left knee injury.	He is recovering from a left knee injury.	252715832	1478754353183	1478754353310	s	83
494782	5324090	He is recovering from a left knee injury.	He is recovering from a left knee injury.	252715845	1478754353343	1478754353468	 	32
494782	5324090	He is recovering from a left knee injury.	He is recovering from a left knee injury.	252715847	1478754353864	1478754353960	r	82
494782	5324090	He is recovering from a left knee injury.	He is recovering from a left knee injury.	252715848	1478754353989	1478754354149	e	69
494782	5324090	He is recovering from a left knee injury.	He is recovering from a left knee injury.	252715849	1478754354114	1478754354303	c	67
494782	5324090	He is recovering from a left knee injury.	He is recovering from a left knee injury.	252715850	1478754354425	1478754354552	o	79
494782	5324090	He is recovering from a left knee injury.	He is recovering from a left knee injury.	252715922	1478754355774	1478754355870	v	86
494782	5324090	He is recovering from a left knee injury.	He is recovering from a left knee injury.	252715926	1478754355901	1478754355967	e	69
494782	5324090	He is recovering from a left knee injury.	He is recovering from a left knee injury.	252715929	1478754356209	1478754356336	r	82
494782	5324090	He is recovering from a left knee injury.	He is recovering from a left knee injury.	252715931	1478754356396	1478754356493	i	73
494782	5324090	He is recovering from a left knee injury.	He is recovering from a left knee injury.	252715933	1478754356583	1478754356738	n	78
494782	5324090	He is recovering from a left knee injury.	He is recovering from a left knee injury.	252715976	1478754356832	1478754356959	g	71
494782	5324090	He is recovering from a left knee injury.	He is recovering from a left knee injury.	252715980	1478754357017	1478754357083	 	32
494782	5324090	He is recovering from a left knee injury.	He is recovering from a left knee injury.	252715987	1478754357908	1478754358098	f	70
494782	5324090	He is recovering from a left knee injury.	He is recovering from a left knee injury.	252715990	1478754358063	1478754358222	r	82
494782	5324090	He is recovering from a left knee injury.	He is recovering from a left knee injury.	252715994	1478754358254	1478754358349	o	79
494782	5324090	He is recovering from a left knee injury.	He is recovering from a left knee injury.	252716061	1478754358962	1478754359088	m	77
494782	5324090	He is recovering from a left knee injury.	He is recovering from a left knee injury.	252716064	1478754359090	1478754359197	 	32
494782	5324090	He is recovering from a left knee injury.	He is recovering from a left knee injury.	252716067	1478754359564	1478754359694	a	65
494782	5324090	He is recovering from a left knee injury.	He is recovering from a left knee injury.	252716070	1478754359659	1478754359821	 	32
494782	5324090	He is recovering from a left knee injury.	He is recovering from a left knee injury.	252716072	1478754360155	1478754360282	l	76
494782	5324090	He is recovering from a left knee injury.	He is recovering from a left knee injury.	252716121	1478754360604	1478754360730	k	75
494782	5324090	He is recovering from a left knee injury.	He is recovering from a left knee injury.	252716117	1478754360771	1478754360866	e	69
494782	5324090	He is recovering from a left knee injury.	He is recovering from a left knee injury.	252716161	1478754360914	1478754361009	n	78
494782	5324090	He is recovering from a left knee injury.	He is recovering from a left knee injury.	252716118	1478754361101	1478754361230	f	70
494782	5324090	He is recovering from a left knee injury.	He is recovering from a left knee injury.	252716164	1478754361101	1478754361168	e	69
494782	5324090	He is recovering from a left knee injury.	He is recovering from a left knee injury.	252716119	1478754361196	1478754361324	t	84
494782	5324090	He is recovering from a left knee injury.	He is recovering from a left knee injury.	252716167	1478754361228	1478754361343	e	69
494782	5324090	He is recovering from a left knee injury.	He is recovering from a left knee injury.	252716120	1478754361326	1478754361463	 	32
494782	5324090	He is recovering from a left knee injury.	He is recovering from a left knee injury.	252716173	1478754361345	1478754361470	 	32
494782	5324090	He is recovering from a left knee injury.	He is recovering from a left knee injury.	252716176	1478754362175	1478754362250	i	73
494782	5324090	He is recovering from a left knee injury.	He is recovering from a left knee injury.	252716258	1478754362341	1478754362496	n	78
494782	5324090	He is recovering from a left knee injury.	He is recovering from a left knee injury.	252716260	1478754362833	1478754362959	j	74
494782	5324090	He is recovering from a left knee injury.	He is recovering from a left knee injury.	252716263	1478754363078	1478754363175	u	85
494782	5324090	He is recovering from a left knee injury.	He is recovering from a left knee injury.	252716265	1478754364583	1478754364680	r	82
494782	5324090	He is recovering from a left knee injury.	He is recovering from a left knee injury.	252716276	1478754364644	1478754364751	y	89
494782	5324090	He is recovering from a left knee injury.	He is recovering from a left knee injury.	252716278	1478754365331	1478754365425	.	190
494782	5324105	John this message concerns me.	John this message concerns me.	252716630	1478754373387	1478754373642	SHIFT	16
494782	5324105	John this message concerns me.	John this message concerns me.	252716626	1478754373573	1478754373638	J	74
494782	5324105	John this message concerns me.	John this message concerns me.	252716634	1478754374677	1478754374772	o	79
494782	5324105	John this message concerns me.	John this message concerns me.	252716637	1478754374991	1478754375088	h	72
494782	5324105	John this message concerns me.	John this message concerns me.	252716642	1478754375238	1478754375334	n	78
494782	5324105	John this message concerns me.	John this message concerns me.	252716645	1478754375338	1478754375461	 	32
494782	5324105	John this message concerns me.	John this message concerns me.	252716674	1478754376136	1478754376203	t	84
494782	5324105	John this message concerns me.	John this message concerns me.	252716675	1478754376422	1478754376580	h	72
494782	5324105	John this message concerns me.	John this message concerns me.	252716676	1478754376546	1478754376643	i	73
494782	5324105	John this message concerns me.	John this message concerns me.	252716677	1478754376675	1478754376772	s	83
494782	5324105	John this message concerns me.	John this message concerns me.	252716678	1478754376802	1478754376928	 	32
494782	5324105	John this message concerns me.	John this message concerns me.	252716744	1478754377540	1478754377667	m	77
494782	5324105	John this message concerns me.	John this message concerns me.	252716746	1478754377728	1478754377855	e	69
494782	5324105	John this message concerns me.	John this message concerns me.	252716749	1478754378006	1478754378102	s	83
494782	5324105	John this message concerns me.	John this message concerns me.	252716754	1478754378223	1478754378290	s	83
494782	5324105	John this message concerns me.	John this message concerns me.	252716760	1478754378471	1478754378600	a	65
494782	5324105	John this message concerns me.	John this message concerns me.	252716830	1478754378786	1478754378913	g	71
494782	5324105	John this message concerns me.	John this message concerns me.	252716831	1478754379064	1478754379219	e	69
494782	5324105	John this message concerns me.	John this message concerns me.	252716832	1478754379223	1478754379347	 	32
494782	5324105	John this message concerns me.	John this message concerns me.	252716833	1478754380113	1478754380238	c	67
494782	5324105	John this message concerns me.	John this message concerns me.	252716834	1478754380300	1478754380398	o	79
494782	5324105	John this message concerns me.	John this message concerns me.	252716944	1478754380582	1478754380710	n	78
494782	5324105	John this message concerns me.	John this message concerns me.	252716949	1478754380923	1478754381050	c	67
494782	5324105	John this message concerns me.	John this message concerns me.	252716952	1478754381598	1478754381696	e	69
494782	5324105	John this message concerns me.	John this message concerns me.	252716954	1478754381909	1478754382005	r	82
494782	5324105	John this message concerns me.	John this message concerns me.	252716956	1478754382797	1478754382862	n	78
494782	5324105	John this message concerns me.	John this message concerns me.	252716982	1478754382925	1478754383024	s	83
494782	5324105	John this message concerns me.	John this message concerns me.	252716986	1478754383053	1478754383179	 	32
494782	5324105	John this message concerns me.	John this message concerns me.	252716989	1478754383700	1478754383772	m	77
494782	5324105	John this message concerns me.	John this message concerns me.	252716993	1478754383862	1478754383959	e	69
494782	5324105	John this message concerns me.	John this message concerns me.	252716997	1478754384199	1478754384266	.	190
494782	5324105	John this message concerns me.	John this message concerns me.	252717029	1478754384421	1478754384514	SHIFT	16
494782	5324121	We are proceeding with a great reception so far.	We are proceeding with a great reception so far.	252717243	1478754388749	1478754389062	SHIFT	16
494782	5324121	We are proceeding with a great reception so far.	We are proceeding with a great reception so far.	252717240	1478754388930	1478754389058	W	87
494782	5324121	We are proceeding with a great reception so far.	We are proceeding with a great reception so far.	252717247	1478754389488	1478754389583	r	82
494782	5324121	We are proceeding with a great reception so far.	We are proceeding with a great reception so far.	252717251	1478754390131	1478754390258	BKSP	8
494782	5324121	We are proceeding with a great reception so far.	We are proceeding with a great reception so far.	252717256	1478754390318	1478754390383	e	69
494782	5324121	We are proceeding with a great reception so far.	We are proceeding with a great reception so far.	252717259	1478754390444	1478754390600	 	32
494782	5324121	We are proceeding with a great reception so far.	We are proceeding with a great reception so far.	252717265	1478754391028	1478754391185	a	65
494782	5324121	We are proceeding with a great reception so far.	We are proceeding with a great reception so far.	252717318	1478754391338	1478754391403	r	82
494782	5324121	We are proceeding with a great reception so far.	We are proceeding with a great reception so far.	252717321	1478754391432	1478754391559	e	69
494782	5324121	We are proceeding with a great reception so far.	We are proceeding with a great reception so far.	252717323	1478754391620	1478754391717	 	32
494782	5324121	We are proceeding with a great reception so far.	We are proceeding with a great reception so far.	252717326	1478754392601	1478754392698	p	80
494782	5324121	We are proceeding with a great reception so far.	We are proceeding with a great reception so far.	252717330	1478754392728	1478754392853	r	82
494782	5324121	We are proceeding with a great reception so far.	We are proceeding with a great reception so far.	252717469	1478754393554	1478754393650	o	79
494782	5324121	We are proceeding with a great reception so far.	We are proceeding with a great reception so far.	252717471	1478754393773	1478754393931	c	67
494782	5324121	We are proceeding with a great reception so far.	We are proceeding with a great reception so far.	252717475	1478754394050	1478754394177	e	69
494782	5324121	We are proceeding with a great reception so far.	We are proceeding with a great reception so far.	252717478	1478754396475	1478754396602	e	69
494782	5324121	We are proceeding with a great reception so far.	We are proceeding with a great reception so far.	252717481	1478754397090	1478754397184	d	68
494782	5324121	We are proceeding with a great reception so far.	We are proceeding with a great reception so far.	252717525	1478754397309	1478754397404	i	73
494782	5324121	We are proceeding with a great reception so far.	We are proceeding with a great reception so far.	252717527	1478754397556	1478754397622	n	78
494782	5324121	We are proceeding with a great reception so far.	We are proceeding with a great reception so far.	252717533	1478754397743	1478754397839	g	71
494782	5324121	We are proceeding with a great reception so far.	We are proceeding with a great reception so far.	252717539	1478754397842	1478754397996	 	32
494782	5324121	We are proceeding with a great reception so far.	We are proceeding with a great reception so far.	252717547	1478754398573	1478754398730	w	87
494782	5324121	We are proceeding with a great reception so far.	We are proceeding with a great reception so far.	252717571	1478754398821	1478754398947	i	73
494782	5324121	We are proceeding with a great reception so far.	We are proceeding with a great reception so far.	252717575	1478754399129	1478754399223	t	84
494782	5324121	We are proceeding with a great reception so far.	We are proceeding with a great reception so far.	252717579	1478754399313	1478754399420	h	72
494782	5324121	We are proceeding with a great reception so far.	We are proceeding with a great reception so far.	252717584	1478754399422	1478754399547	 	32
494782	5324121	We are proceeding with a great reception so far.	We are proceeding with a great reception so far.	252717588	1478754399700	1478754399856	a	65
494782	5324121	We are proceeding with a great reception so far.	We are proceeding with a great reception so far.	252717664	1478754400452	1478754400548	 	32
494782	5324121	We are proceeding with a great reception so far.	We are proceeding with a great reception so far.	252717669	1478754401067	1478754401162	g	71
494782	5324121	We are proceeding with a great reception so far.	We are proceeding with a great reception so far.	252717673	1478754401496	1478754401562	r	82
494782	5324121	We are proceeding with a great reception so far.	We are proceeding with a great reception so far.	252717678	1478754401655	1478754401813	e	69
494782	5324121	We are proceeding with a great reception so far.	We are proceeding with a great reception so far.	252717773	1478754401779	1478754401906	a	65
494782	5324121	We are proceeding with a great reception so far.	We are proceeding with a great reception so far.	252717775	1478754402027	1478754402093	t	84
494782	5324121	We are proceeding with a great reception so far.	We are proceeding with a great reception so far.	252717781	1478754402244	1478754402372	 	32
494782	5324121	We are proceeding with a great reception so far.	We are proceeding with a great reception so far.	252717786	1478754403440	1478754403540	r	82
494782	5324121	We are proceeding with a great reception so far.	We are proceeding with a great reception so far.	252717791	1478754403533	1478754403631	e	69
494782	5324121	We are proceeding with a great reception so far.	We are proceeding with a great reception so far.	252717793	1478754404272	1478754404492	c	67
494782	5324121	We are proceeding with a great reception so far.	We are proceeding with a great reception so far.	252717904	1478754404428	1478754404558	e	69
494782	5324121	We are proceeding with a great reception so far.	We are proceeding with a great reception so far.	252717906	1478754405874	1478754405969	p	80
494782	5324121	We are proceeding with a great reception so far.	We are proceeding with a great reception so far.	252717909	1478754406301	1478754406405	t	84
494782	5324121	We are proceeding with a great reception so far.	We are proceeding with a great reception so far.	252717911	1478754406528	1478754406625	i	73
494782	5324121	We are proceeding with a great reception so far.	We are proceeding with a great reception so far.	252717913	1478754406745	1478754406841	o	79
494782	5324121	We are proceeding with a great reception so far.	We are proceeding with a great reception so far.	252717915	1478754407020	1478754407147	n	78
494782	5324121	We are proceeding with a great reception so far.	We are proceeding with a great reception so far.	252718004	1478754407210	1478754407336	 	32
494782	5324121	We are proceeding with a great reception so far.	We are proceeding with a great reception so far.	252718006	1478754408495	1478754408654	s	83
494782	5324121	We are proceeding with a great reception so far.	We are proceeding with a great reception so far.	252718009	1478754408620	1478754408717	o	79
494782	5324121	We are proceeding with a great reception so far.	We are proceeding with a great reception so far.	252718012	1478754408780	1478754408904	 	32
494782	5324121	We are proceeding with a great reception so far.	We are proceeding with a great reception so far.	252718015	1478754409424	1478754409519	f	70
494782	5324121	We are proceeding with a great reception so far.	We are proceeding with a great reception so far.	252718040	1478754409552	1478754409679	a	65
494782	5324121	We are proceeding with a great reception so far.	We are proceeding with a great reception so far.	252718042	1478754409897	1478754410055	r	82
494782	5324121	We are proceeding with a great reception so far.	We are proceeding with a great reception so far.	252718043	1478754410268	1478754410344	.	190
494782	5324143	Just in case we haven't invited any of them.	Just in case we haven't invited any of them.	252718210	1478754414147	1478754415295	SHIFT	16
494782	5324143	Just in case we haven't invited any of them.	Just in case we haven't invited any of them.	252718207	1478754415167	1478754415263	J	74
494782	5324143	Just in case we haven't invited any of them.	Just in case we haven't invited any of them.	252718212	1478754415416	1478754415543	u	85
494782	5324143	Just in case we haven't invited any of them.	Just in case we haven't invited any of them.	252718217	1478754415603	1478754415730	s	83
494782	5324143	Just in case we haven't invited any of them.	Just in case we haven't invited any of them.	252718220	1478754415821	1478754415918	t	84
494782	5324143	Just in case we haven't invited any of them.	Just in case we haven't invited any of them.	252718257	1478754415854	1478754416013	 	32
494782	5324143	Just in case we haven't invited any of them.	Just in case we haven't invited any of them.	252718258	1478754416747	1478754416872	i	73
494782	5324143	Just in case we haven't invited any of them.	Just in case we haven't invited any of them.	252718259	1478754416962	1478754417088	n	78
494782	5324143	Just in case we haven't invited any of them.	Just in case we haven't invited any of them.	252718260	1478754417090	1478754417215	 	32
494782	5324143	Just in case we haven't invited any of them.	Just in case we haven't invited any of them.	252718261	1478754417644	1478754417801	c	67
494782	5324143	Just in case we haven't invited any of them.	Just in case we haven't invited any of them.	252718323	1478754417706	1478754417897	a	65
494782	5324143	Just in case we haven't invited any of them.	Just in case we haven't invited any of them.	252718325	1478754418231	1478754418267	s	83
494782	5324143	Just in case we haven't invited any of them.	Just in case we haven't invited any of them.	252718328	1478754418297	1478754418424	e	69
494782	5324143	Just in case we haven't invited any of them.	Just in case we haven't invited any of them.	252718335	1478754418941	1478754419068	 	32
494782	5324143	Just in case we haven't invited any of them.	Just in case we haven't invited any of them.	252718340	1478754419369	1478754419528	w	87
494782	5324143	Just in case we haven't invited any of them.	Just in case we haven't invited any of them.	252718342	1478754419618	1478754419747	e	69
494782	5324143	Just in case we haven't invited any of them.	Just in case we haven't invited any of them.	252718411	1478754419711	1478754419839	 	32
494782	5324143	Just in case we haven't invited any of them.	Just in case we haven't invited any of them.	252718412	1478754420482	1478754420586	h	72
494782	5324143	Just in case we haven't invited any of them.	Just in case we haven't invited any of them.	252718413	1478754420548	1478754420675	a	65
494782	5324143	Just in case we haven't invited any of them.	Just in case we haven't invited any of them.	252718415	1478754420737	1478754420808	v	86
494782	5324143	Just in case we haven't invited any of them.	Just in case we haven't invited any of them.	252718417	1478754420898	1478754421024	e	69
494782	5324143	Just in case we haven't invited any of them.	Just in case we haven't invited any of them.	252718419	1478754421635	1478754421790	n	78
494782	5324143	Just in case we haven't invited any of them.	Just in case we haven't invited any of them.	252718499	1478754422124	1478754422283	'	222
494782	5324143	Just in case we haven't invited any of them.	Just in case we haven't invited any of them.	252718501	1478754422464	1478754422561	t	84
494782	5324143	Just in case we haven't invited any of them.	Just in case we haven't invited any of them.	252718503	1478754422590	1478754422718	 	32
494782	5324143	Just in case we haven't invited any of them.	Just in case we haven't invited any of them.	252718504	1478754423600	1478754423728	i	73
494782	5324143	Just in case we haven't invited any of them.	Just in case we haven't invited any of them.	252718505	1478754423878	1478754423976	n	78
494782	5324143	Just in case we haven't invited any of them.	Just in case we haven't invited any of them.	252718646	1478754425198	1478754425324	v	86
494782	5324143	Just in case we haven't invited any of them.	Just in case we haven't invited any of them.	252718649	1478754425445	1478754425540	i	73
494782	5324143	Just in case we haven't invited any of them.	Just in case we haven't invited any of them.	252718652	1478754426028	1478754426125	d	68
494782	5324143	Just in case we haven't invited any of them.	Just in case we haven't invited any of them.	252718655	1478754426547	1478754426645	BKSP	8
494782	5324143	Just in case we haven't invited any of them.	Just in case we haven't invited any of them.	252718659	1478754426949	1478754427044	t	84
494782	5324143	Just in case we haven't invited any of them.	Just in case we haven't invited any of them.	252718664	1478754427134	1478754427293	e	69
494782	5324143	Just in case we haven't invited any of them.	Just in case we haven't invited any of them.	252718747	1478754427259	1478754427420	d	68
494782	5324143	Just in case we haven't invited any of them.	Just in case we haven't invited any of them.	252718753	1478754427384	1478754427468	 	32
494782	5324143	Just in case we haven't invited any of them.	Just in case we haven't invited any of them.	252718757	1478754428110	1478754428236	a	65
494782	5324143	Just in case we haven't invited any of them.	Just in case we haven't invited any of them.	252718759	1478754428455	1478754428553	n	78
494782	5324143	Just in case we haven't invited any of them.	Just in case we haven't invited any of them.	252718762	1478754428767	1478754428863	y	89
494782	5324143	Just in case we haven't invited any of them.	Just in case we haven't invited any of them.	252718764	1478754428894	1478754429021	 	32
494782	5324143	Just in case we haven't invited any of them.	Just in case we haven't invited any of them.	252718825	1478754429630	1478754429728	o	79
494782	5324143	Just in case we haven't invited any of them.	Just in case we haven't invited any of them.	252718827	1478754429939	1478754430067	f	70
494782	5324143	Just in case we haven't invited any of them.	Just in case we haven't invited any of them.	252718829	1478754430032	1478754430131	 	32
494782	5324143	Just in case we haven't invited any of them.	Just in case we haven't invited any of them.	252718831	1478754430679	1478754430744	t	84
494782	5324143	Just in case we haven't invited any of them.	Just in case we haven't invited any of them.	252718833	1478754430866	1478754430961	h	72
494782	5324143	Just in case we haven't invited any of them.	Just in case we haven't invited any of them.	252718866	1478754431175	1478754431301	e	69
494782	5324143	Just in case we haven't invited any of them.	Just in case we haven't invited any of them.	252718867	1478754431584	1478754431681	m	77
494782	5324143	Just in case we haven't invited any of them.	Just in case we haven't invited any of them.	252718869	1478754431875	1478754431970	.	190
494782	5324160	Talk to you later.	Talk to you later.	252718978	1478754434422	1478754434704	SHIFT	16
494782	5324160	Talk to you later.	Talk to you later.	252718977	1478754434576	1478754434672	T	84
494782	5324160	Talk to you later.	Talk to you later.	252718980	1478754435038	1478754435135	a	65
494782	5324160	Talk to you later.	Talk to you later.	252718982	1478754435467	1478754435595	l	76
494782	5324160	Talk to you later.	Talk to you later.	252718984	1478754435630	1478754435750	k	75
494782	5324160	Talk to you later.	Talk to you later.	252718986	1478754435752	1478754435877	 	32
494782	5324160	Talk to you later.	Talk to you later.	252719025	1478754436521	1478754436679	t	84
494782	5324160	Talk to you later.	Talk to you later.	252719027	1478754436709	1478754436805	o	79
494782	5324160	Talk to you later.	Talk to you later.	252719029	1478754436809	1478754436903	 	32
494782	5324160	Talk to you later.	Talk to you later.	252719032	1478754437484	1478754437642	y	89
494782	5324160	Talk to you later.	Talk to you later.	252719074	1478754437606	1478754437772	o	79
494782	5324160	Talk to you later.	Talk to you later.	252719080	1478754437765	1478754437863	u	85
494782	5324160	Talk to you later.	Talk to you later.	252719082	1478754437892	1478754438020	 	32
494782	5324160	Talk to you later.	Talk to you later.	252719084	1478754438507	1478754438645	l	76
494782	5324160	Talk to you later.	Talk to you later.	252719087	1478754438675	1478754438771	a	65
494782	5324160	Talk to you later.	Talk to you later.	252719090	1478754438892	1478754438987	t	84
494782	5324160	Talk to you later.	Talk to you later.	252719097	1478754439078	1478754439176	e	69
494782	5324160	Talk to you later.	Talk to you later.	252719099	1478754439267	1478754439363	r	82
494782	5324160	Talk to you later.	Talk to you later.	252719100	1478754439788	1478754439886	.	190
494782	5324166	The others raise their eyebrows.	The other raise their eyebrows.	252719254	1478754442430	1478754442773	SHIFT	16
494782	5324166	The others raise their eyebrows.	The other raise their eyebrows.	252719249	1478754442582	1478754442679	T	84
494782	5324166	The others raise their eyebrows.	The other raise their eyebrows.	252719258	1478754442863	1478754442959	h	72
494782	5324166	The others raise their eyebrows.	The other raise their eyebrows.	252719263	1478754443049	1478754443175	e	69
494782	5324166	The others raise their eyebrows.	The other raise their eyebrows.	252719266	1478754443177	1478754443271	 	32
494782	5324166	The others raise their eyebrows.	The other raise their eyebrows.	252719270	1478754444129	1478754444256	o	79
494782	5324166	The others raise their eyebrows.	The other raise their eyebrows.	252719344	1478754444620	1478754444718	t	84
494782	5324166	The others raise their eyebrows.	The other raise their eyebrows.	252719345	1478754444900	1478754445027	h	72
494782	5324166	The others raise their eyebrows.	The other raise their eyebrows.	252719346	1478754445117	1478754445212	e	69
494782	5324166	The others raise their eyebrows.	The other raise their eyebrows.	252719348	1478754445365	1478754445399	r	82
494782	5324166	The others raise their eyebrows.	The other raise their eyebrows.	252719350	1478754445672	1478754445799	 	32
494782	5324166	The others raise their eyebrows.	The other raise their eyebrows.	252719450	1478754446506	1478754446570	r	82
494782	5324166	The others raise their eyebrows.	The other raise their eyebrows.	252719452	1478754446630	1478754446757	a	65
494782	5324166	The others raise their eyebrows.	The other raise their eyebrows.	252719455	1478754446910	1478754447004	i	73
494782	5324166	The others raise their eyebrows.	The other raise their eyebrows.	252719458	1478754447308	1478754447464	s	83
494782	5324166	The others raise their eyebrows.	The other raise their eyebrows.	252719461	1478754447953	1478754448051	e	69
494782	5324166	The others raise their eyebrows.	The other raise their eyebrows.	252719574	1478754448144	1478754448240	 	32
494782	5324166	The others raise their eyebrows.	The other raise their eyebrows.	252719575	1478754448998	1478754449094	t	84
494782	5324166	The others raise their eyebrows.	The other raise their eyebrows.	252719576	1478754449703	1478754449797	h	72
494782	5324166	The others raise their eyebrows.	The other raise their eyebrows.	252719577	1478754450496	1478754450594	e	69
494782	5324166	The others raise their eyebrows.	The other raise their eyebrows.	252719579	1478754450898	1478754450994	i	73
494782	5324166	The others raise their eyebrows.	The other raise their eyebrows.	252719688	1478754451297	1478754451392	r	82
494782	5324166	The others raise their eyebrows.	The other raise their eyebrows.	252719689	1478754451620	1478754451747	 	32
494782	5324166	The others raise their eyebrows.	The other raise their eyebrows.	252719690	1478754452295	1478754452392	e	69
494782	5324166	The others raise their eyebrows.	The other raise their eyebrows.	252719692	1478754453334	1478754453460	y	89
494782	5324166	The others raise their eyebrows.	The other raise their eyebrows.	252719694	1478754453581	1478754453678	e	69
494782	5324166	The others raise their eyebrows.	The other raise their eyebrows.	252719810	1478754454630	1478754454757	b	66
494782	5324166	The others raise their eyebrows.	The other raise their eyebrows.	252719814	1478754455031	1478754455189	r	82
494782	5324166	The others raise their eyebrows.	The other raise their eyebrows.	252719816	1478754455860	1478754455957	o	79
494782	5324166	The others raise their eyebrows.	The other raise their eyebrows.	252719818	1478754456596	1478754456752	w	87
494782	5324166	The others raise their eyebrows.	The other raise their eyebrows.	252719820	1478754457393	1478754457551	s	83
494782	5324166	The others raise their eyebrows.	The other raise their eyebrows.	252719839	1478754458069	1478754458135	.	190
494782	5324179	If it needs to be paid, we will need to add the day to the deal.	If it needs to be paid, we will need to add the day to the deal.	252720056	1478754460804	1478754463189	SHIFT	16
494782	5324179	If it needs to be paid, we will need to add the day to the deal.	If it needs to be paid, we will need to add the day to the deal.	252720053	1478754463051	1478754463158	I	73
494782	5324179	If it needs to be paid, we will need to add the day to the deal.	If it needs to be paid, we will need to add the day to the deal.	252720058	1478754463707	1478754463802	f	70
494782	5324179	If it needs to be paid, we will need to add the day to the deal.	If it needs to be paid, we will need to add the day to the deal.	252720060	1478754463831	1478754463958	 	32
494782	5324179	If it needs to be paid, we will need to add the day to the deal.	If it needs to be paid, we will need to add the day to the deal.	252720062	1478754464477	1478754464572	i	73
494782	5324179	If it needs to be paid, we will need to add the day to the deal.	If it needs to be paid, we will need to add the day to the deal.	252720066	1478754464996	1478754465091	t	84
494782	5324179	If it needs to be paid, we will need to add the day to the deal.	If it needs to be paid, we will need to add the day to the deal.	252720123	1478754465275	1478754465401	 	32
494782	5324179	If it needs to be paid, we will need to add the day to the deal.	If it needs to be paid, we will need to add the day to the deal.	252720125	1478754466102	1478754466200	n	78
494782	5324179	If it needs to be paid, we will need to add the day to the deal.	If it needs to be paid, we will need to add the day to the deal.	252720127	1478754466350	1478754466415	e	69
494782	5324179	If it needs to be paid, we will need to add the day to the deal.	If it needs to be paid, we will need to add the day to the deal.	252720128	1478754466536	1478754466602	e	69
494782	5324179	If it needs to be paid, we will need to add the day to the deal.	If it needs to be paid, we will need to add the day to the deal.	252720130	1478754466693	1478754466788	d	68
494782	5324179	If it needs to be paid, we will need to add the day to the deal.	If it needs to be paid, we will need to add the day to the deal.	252720180	1478754467306	1478754467463	s	83
494782	5324179	If it needs to be paid, we will need to add the day to the deal.	If it needs to be paid, we will need to add the day to the deal.	252720181	1478754467494	1478754467620	 	32
494782	5324179	If it needs to be paid, we will need to add the day to the deal.	If it needs to be paid, we will need to add the day to the deal.	252720184	1478754468174	1478754468332	t	84
494782	5324179	If it needs to be paid, we will need to add the day to the deal.	If it needs to be paid, we will need to add the day to the deal.	252720187	1478754468297	1478754468397	o	79
494782	5324179	If it needs to be paid, we will need to add the day to the deal.	If it needs to be paid, we will need to add the day to the deal.	252720190	1478754468399	1478754468524	 	32
494782	5324179	If it needs to be paid, we will need to add the day to the deal.	If it needs to be paid, we will need to add the day to the deal.	252720219	1478754468644	1478754468771	b	66
494782	5324179	If it needs to be paid, we will need to add the day to the deal.	If it needs to be paid, we will need to add the day to the deal.	252720224	1478754468833	1478754468928	e	69
494782	5324179	If it needs to be paid, we will need to add the day to the deal.	If it needs to be paid, we will need to add the day to the deal.	252720231	1478754468958	1478754469056	 	32
494782	5324179	If it needs to be paid, we will need to add the day to the deal.	If it needs to be paid, we will need to add the day to the deal.	252720237	1478754469790	1478754469916	p	80
494782	5324179	If it needs to be paid, we will need to add the day to the deal.	If it needs to be paid, we will need to add the day to the deal.	252720243	1478754469946	1478754470072	a	65
494782	5324179	If it needs to be paid, we will need to add the day to the deal.	If it needs to be paid, we will need to add the day to the deal.	252720321	1478754470163	1478754470271	i	73
494782	5324179	If it needs to be paid, we will need to add the day to the deal.	If it needs to be paid, we will need to add the day to the deal.	252720322	1478754470939	1478754471065	d	68
494782	5324179	If it needs to be paid, we will need to add the day to the deal.	If it needs to be paid, we will need to add the day to the deal.	252720323	1478754471428	1478754471494	,	188
494782	5324179	If it needs to be paid, we will need to add the day to the deal.	If it needs to be paid, we will need to add the day to the deal.	252720324	1478754471524	1478754471651	 	32
494782	5324179	If it needs to be paid, we will need to add the day to the deal.	If it needs to be paid, we will need to add the day to the deal.	252720325	1478754472262	1478754472388	w	87
494782	5324179	If it needs to be paid, we will need to add the day to the deal.	If it needs to be paid, we will need to add the day to the deal.	252720395	1478754472540	1478754472606	e	69
494782	5324179	If it needs to be paid, we will need to add the day to the deal.	If it needs to be paid, we will need to add the day to the deal.	252720398	1478754472635	1478754472702	 	32
494782	5324179	If it needs to be paid, we will need to add the day to the deal.	If it needs to be paid, we will need to add the day to the deal.	252720401	1478754473283	1478754473409	w	87
494782	5324179	If it needs to be paid, we will need to add the day to the deal.	If it needs to be paid, we will need to add the day to the deal.	252720403	1478754473469	1478754473535	i	73
494782	5324179	If it needs to be paid, we will need to add the day to the deal.	If it needs to be paid, we will need to add the day to the deal.	252720405	1478754473717	1478754473782	l	76
494782	5324179	If it needs to be paid, we will need to add the day to the deal.	If it needs to be paid, we will need to add the day to the deal.	252720451	1478754473874	1478754473941	l	76
494782	5324179	If it needs to be paid, we will need to add the day to the deal.	If it needs to be paid, we will need to add the day to the deal.	252720453	1478754473970	1478754474096	 	32
494782	5324179	If it needs to be paid, we will need to add the day to the deal.	If it needs to be paid, we will need to add the day to the deal.	252720455	1478754474674	1478754474739	n	78
494782	5324179	If it needs to be paid, we will need to add the day to the deal.	If it needs to be paid, we will need to add the day to the deal.	252720457	1478754474890	1478754474959	e	69
494782	5324179	If it needs to be paid, we will need to add the day to the deal.	If it needs to be paid, we will need to add the day to the deal.	252720459	1478754475112	1478754475177	e	69
494782	5324179	If it needs to be paid, we will need to add the day to the deal.	If it needs to be paid, we will need to add the day to the deal.	252720492	1478754475240	1478754475367	d	68
494782	5324179	If it needs to be paid, we will need to add the day to the deal.	If it needs to be paid, we will need to add the day to the deal.	252720494	1478754475458	1478754475553	 	32
494782	5324179	If it needs to be paid, we will need to add the day to the deal.	If it needs to be paid, we will need to add the day to the deal.	252720496	1478754476227	1478754476385	t	84
494782	5324179	If it needs to be paid, we will need to add the day to the deal.	If it needs to be paid, we will need to add the day to the deal.	252720498	1478754476320	1478754476464	o	79
494782	5324179	If it needs to be paid, we will need to add the day to the deal.	If it needs to be paid, we will need to add the day to the deal.	252720500	1478754476466	1478754476559	 	32
494782	5324179	If it needs to be paid, we will need to add the day to the deal.	If it needs to be paid, we will need to add the day to the deal.	252720606	1478754476711	1478754476868	a	65
494782	5324179	If it needs to be paid, we will need to add the day to the deal.	If it needs to be paid, we will need to add the day to the deal.	252720609	1478754477142	1478754477238	d	68
494782	5324179	If it needs to be paid, we will need to add the day to the deal.	If it needs to be paid, we will need to add the day to the deal.	252720615	1478754477328	1478754477394	d	68
494782	5324179	If it needs to be paid, we will need to add the day to the deal.	If it needs to be paid, we will need to add the day to the deal.	252720622	1478754477425	1478754477520	 	32
494782	5324179	If it needs to be paid, we will need to add the day to the deal.	If it needs to be paid, we will need to add the day to the deal.	252720629	1478754478928	1478754479024	t	84
494782	5324179	If it needs to be paid, we will need to add the day to the deal.	If it needs to be paid, we will need to add the day to the deal.	252720652	1478754479057	1478754479223	h	72
494782	5324179	If it needs to be paid, we will need to add the day to the deal.	If it needs to be paid, we will need to add the day to the deal.	252720654	1478754479217	1478754479315	e	69
494782	5324179	If it needs to be paid, we will need to add the day to the deal.	If it needs to be paid, we will need to add the day to the deal.	252720656	1478754479405	1478754479471	 	32
494782	5324179	If it needs to be paid, we will need to add the day to the deal.	If it needs to be paid, we will need to add the day to the deal.	252720657	1478754479532	1478754479723	d	68
494782	5324179	If it needs to be paid, we will need to add the day to the deal.	If it needs to be paid, we will need to add the day to the deal.	252720744	1478754479659	1478754479789	a	65
494782	5324179	If it needs to be paid, we will need to add the day to the deal.	If it needs to be paid, we will need to add the day to the deal.	252720748	1478754479848	1478754479947	y	89
494782	5324179	If it needs to be paid, we will need to add the day to the deal.	If it needs to be paid, we will need to add the day to the deal.	252720751	1478754479976	1478754480088	 	32
494782	5324179	If it needs to be paid, we will need to add the day to the deal.	If it needs to be paid, we will need to add the day to the deal.	252720757	1478754480466	1478754480625	t	84
494782	5324179	If it needs to be paid, we will need to add the day to the deal.	If it needs to be paid, we will need to add the day to the deal.	252720760	1478754480590	1478754480720	o	79
494782	5324179	If it needs to be paid, we will need to add the day to the deal.	If it needs to be paid, we will need to add the day to the deal.	252720857	1478754480685	1478754480784	 	32
494782	5324179	If it needs to be paid, we will need to add the day to the deal.	If it needs to be paid, we will need to add the day to the deal.	252720859	1478754481575	1478754481669	t	84
494782	5324179	If it needs to be paid, we will need to add the day to the deal.	If it needs to be paid, we will need to add the day to the deal.	252720862	1478754481824	1478754481919	h	72
494782	5324179	If it needs to be paid, we will need to add the day to the deal.	If it needs to be paid, we will need to add the day to the deal.	252720865	1478754482101	1478754482199	e	69
494782	5324179	If it needs to be paid, we will need to add the day to the deal.	If it needs to be paid, we will need to add the day to the deal.	252720868	1478754482201	1478754482292	 	32
494782	5324179	If it needs to be paid, we will need to add the day to the deal.	If it needs to be paid, we will need to add the day to the deal.	252720871	1478754482931	1478754483121	d	68
494782	5324179	If it needs to be paid, we will need to add the day to the deal.	If it needs to be paid, we will need to add the day to the deal.	252720931	1478754483086	1478754483215	e	69
494782	5324179	If it needs to be paid, we will need to add the day to the deal.	If it needs to be paid, we will need to add the day to the deal.	252720933	1478754483276	1478754483403	a	65
494782	5324179	If it needs to be paid, we will need to add the day to the deal.	If it needs to be paid, we will need to add the day to the deal.	252720935	1478754483983	1478754484048	l	76
494782	5324179	If it needs to be paid, we will need to add the day to the deal.	If it needs to be paid, we will need to add the day to the deal.	252720938	1478754484201	1478754484264	.	190
494782	5324208	This is very sensitive.	This is very sensitive.	252721182	1478754488035	1478754488561	SHIFT	16
494782	5324208	This is very sensitive.	This is very sensitive.	252721180	1478754488461	1478754488528	T	84
494782	5324208	This is very sensitive.	This is very sensitive.	252721184	1478754488833	1478754488992	h	72
494782	5324208	This is very sensitive.	This is very sensitive.	252721188	1478754488957	1478754489085	i	73
494782	5324208	This is very sensitive.	This is very sensitive.	252721190	1478754489115	1478754489213	s	83
494782	5324208	This is very sensitive.	This is very sensitive.	252721196	1478754489243	1478754489308	 	32
494782	5324208	This is very sensitive.	This is very sensitive.	252721238	1478754489522	1478754489620	i	73
494782	5324208	This is very sensitive.	This is very sensitive.	252721242	1478754489680	1478754489776	s	83
494782	5324208	This is very sensitive.	This is very sensitive.	252721245	1478754489778	1478754489842	 	32
494782	5324208	This is very sensitive.	This is very sensitive.	252721249	1478754490329	1478754490423	v	86
494782	5324208	This is very sensitive.	This is very sensitive.	252721254	1478754490574	1478754490646	e	69
494782	5324208	This is very sensitive.	This is very sensitive.	252721356	1478754491441	1478754491536	r	82
494782	5324208	This is very sensitive.	This is very sensitive.	252721360	1478754491540	1478754491648	y	89
494782	5324208	This is very sensitive.	This is very sensitive.	252721364	1478754491650	1478754491787	 	32
494782	5324208	This is very sensitive.	This is very sensitive.	252721367	1478754492033	1478754492159	s	83
494782	5324208	This is very sensitive.	This is very sensitive.	252721371	1478754492283	1478754492438	e	69
494782	5324208	This is very sensitive.	This is very sensitive.	252721480	1478754492713	1478754492809	n	78
494782	5324208	This is very sensitive.	This is very sensitive.	252721482	1478754493845	1478754493972	s	83
494782	5324208	This is very sensitive.	This is very sensitive.	252721488	1478754494214	1478754494309	i	73
494782	5324208	This is very sensitive.	This is very sensitive.	252721491	1478754494551	1478754494646	t	84
494782	5324208	This is very sensitive.	This is very sensitive.	252721494	1478754494768	1478754494874	i	73
494782	5324208	This is very sensitive.	This is very sensitive.	252721516	1478754495150	1478754495247	v	86
494782	5324208	This is very sensitive.	This is very sensitive.	252721518	1478754495398	1478754495496	e	69
494782	5324208	This is very sensitive.	This is very sensitive.	252721521	1478754495800	1478754495866	.	190
494782	5324220	Many earlier ceasefire accords have been broken.	Many earlier ceasefire accords have been broken.	252721846	1478754500037	1478754500686	SHIFT	16
494782	5324220	Many earlier ceasefire accords have been broken.	Many earlier ceasefire accords have been broken.	252721844	1478754500558	1478754500624	M	77
494782	5324220	Many earlier ceasefire accords have been broken.	Many earlier ceasefire accords have been broken.	252721847	1478754501111	1478754501266	a	65
494782	5324220	Many earlier ceasefire accords have been broken.	Many earlier ceasefire accords have been broken.	252721848	1478754501327	1478754501454	n	78
494782	5324220	Many earlier ceasefire accords have been broken.	Many earlier ceasefire accords have been broken.	252721850	1478754501543	1478754501672	i	73
494782	5324220	Many earlier ceasefire accords have been broken.	Many earlier ceasefire accords have been broken.	252721852	1478754502128	1478754502255	BKSP	8
494782	5324220	Many earlier ceasefire accords have been broken.	Many earlier ceasefire accords have been broken.	252721854	1478754502377	1478754502502	y	89
494782	5324220	Many earlier ceasefire accords have been broken.	Many earlier ceasefire accords have been broken.	252721952	1478754502536	1478754502630	 	32
494782	5324220	Many earlier ceasefire accords have been broken.	Many earlier ceasefire accords have been broken.	252721956	1478754503456	1478754503674	e	69
494782	5324220	Many earlier ceasefire accords have been broken.	Many earlier ceasefire accords have been broken.	252721961	1478754503638	1478754503769	a	65
494782	5324220	Many earlier ceasefire accords have been broken.	Many earlier ceasefire accords have been broken.	252721970	1478754503949	1478754504045	r	82
494782	5324220	Many earlier ceasefire accords have been broken.	Many earlier ceasefire accords have been broken.	252721974	1478754504503	1478754504628	l	76
494782	5324220	Many earlier ceasefire accords have been broken.	Many earlier ceasefire accords have been broken.	252722066	1478754504691	1478754504788	i	73
494782	5324220	Many earlier ceasefire accords have been broken.	Many earlier ceasefire accords have been broken.	252722070	1478754505247	1478754505339	e	69
494782	5324220	Many earlier ceasefire accords have been broken.	Many earlier ceasefire accords have been broken.	252722075	1478754505343	1478754505436	r	82
494782	5324220	Many earlier ceasefire accords have been broken.	Many earlier ceasefire accords have been broken.	252722080	1478754505557	1478754505654	 	32
494782	5324220	Many earlier ceasefire accords have been broken.	Many earlier ceasefire accords have been broken.	252722085	1478754506359	1478754506485	c	67
494782	5324220	Many earlier ceasefire accords have been broken.	Many earlier ceasefire accords have been broken.	252722243	1478754507433	1478754507592	e	69
494782	5324220	Many earlier ceasefire accords have been broken.	Many earlier ceasefire accords have been broken.	252722245	1478754508201	1478754508356	a	65
494782	5324220	Many earlier ceasefire accords have been broken.	Many earlier ceasefire accords have been broken.	252722249	1478754508657	1478754508815	s	83
494782	5324220	Many earlier ceasefire accords have been broken.	Many earlier ceasefire accords have been broken.	252722252	1478754509240	1478754509365	e	69
494782	5324220	Many earlier ceasefire accords have been broken.	Many earlier ceasefire accords have been broken.	252722254	1478754509881	1478754510006	g	71
494782	5324220	Many earlier ceasefire accords have been broken.	Many earlier ceasefire accords have been broken.	252722356	1478754510435	1478754510560	BKSP	8
494782	5324220	Many earlier ceasefire accords have been broken.	Many earlier ceasefire accords have been broken.	252722360	1478754510742	1478754510868	f	70
494782	5324220	Many earlier ceasefire accords have been broken.	Many earlier ceasefire accords have been broken.	252722363	1478754511029	1478754511156	i	73
494782	5324220	Many earlier ceasefire accords have been broken.	Many earlier ceasefire accords have been broken.	252722367	1478754511549	1478754511646	r	82
494782	5324220	Many earlier ceasefire accords have been broken.	Many earlier ceasefire accords have been broken.	252722369	1478754511707	1478754511802	e	69
494782	5324220	Many earlier ceasefire accords have been broken.	Many earlier ceasefire accords have been broken.	252722373	1478754511984	1478754512079	 	32
494782	5324220	Many earlier ceasefire accords have been broken.	Many earlier ceasefire accords have been broken.	252722454	1478754512476	1478754512631	a	65
494782	5324220	Many earlier ceasefire accords have been broken.	Many earlier ceasefire accords have been broken.	252722457	1478754512782	1478754512847	c	67
494782	5324220	Many earlier ceasefire accords have been broken.	Many earlier ceasefire accords have been broken.	252722461	1478754512939	1478754513036	c	67
494782	5324220	Many earlier ceasefire accords have been broken.	Many earlier ceasefire accords have been broken.	252722463	1478754513554	1478754513681	o	79
494782	5324220	Many earlier ceasefire accords have been broken.	Many earlier ceasefire accords have been broken.	252722465	1478754513892	1478754513958	r	82
494782	5324220	Many earlier ceasefire accords have been broken.	Many earlier ceasefire accords have been broken.	252722537	1478754514383	1478754514542	d	68
494782	5324220	Many earlier ceasefire accords have been broken.	Many earlier ceasefire accords have been broken.	252722540	1478754514844	1478754514971	s	83
494782	5324220	Many earlier ceasefire accords have been broken.	Many earlier ceasefire accords have been broken.	252722542	1478754514973	1478754515096	 	32
494782	5324220	Many earlier ceasefire accords have been broken.	Many earlier ceasefire accords have been broken.	252722544	1478754515402	1478754515500	h	72
494782	5324220	Many earlier ceasefire accords have been broken.	Many earlier ceasefire accords have been broken.	252722546	1478754515561	1478754515657	a	65
494782	5324220	Many earlier ceasefire accords have been broken.	Many earlier ceasefire accords have been broken.	252722635	1478754515688	1478754515785	v	86
494782	5324220	Many earlier ceasefire accords have been broken.	Many earlier ceasefire accords have been broken.	252722640	1478754515904	1478754515945	e	69
494782	5324220	Many earlier ceasefire accords have been broken.	Many earlier ceasefire accords have been broken.	252722644	1478754516005	1478754516072	 	32
494782	5324220	Many earlier ceasefire accords have been broken.	Many earlier ceasefire accords have been broken.	252722647	1478754516925	1478754517023	b	66
494782	5324220	Many earlier ceasefire accords have been broken.	Many earlier ceasefire accords have been broken.	252722650	1478754517113	1478754517178	e	69
494782	5324220	Many earlier ceasefire accords have been broken.	Many earlier ceasefire accords have been broken.	252722813	1478754517272	1478754517367	e	69
494782	5324220	Many earlier ceasefire accords have been broken.	Many earlier ceasefire accords have been broken.	252722820	1478754517517	1478754517583	n	78
494782	5324220	Many earlier ceasefire accords have been broken.	Many earlier ceasefire accords have been broken.	252722824	1478754517612	1478754517739	 	32
494782	5324220	Many earlier ceasefire accords have been broken.	Many earlier ceasefire accords have been broken.	252722830	1478754518623	1478754518658	v	86
494782	5324220	Many earlier ceasefire accords have been broken.	Many earlier ceasefire accords have been broken.	252722836	1478754519402	1478754519500	BKSP	8
494782	5324220	Many earlier ceasefire accords have been broken.	Many earlier ceasefire accords have been broken.	252722839	1478754520108	1478754520206	b	66
494782	5324220	Many earlier ceasefire accords have been broken.	Many earlier ceasefire accords have been broken.	252722953	1478754520451	1478754520576	r	82
494782	5324220	Many earlier ceasefire accords have been broken.	Many earlier ceasefire accords have been broken.	252722955	1478754520730	1478754520826	o	79
494782	5324220	Many earlier ceasefire accords have been broken.	Many earlier ceasefire accords have been broken.	252722959	1478754521649	1478754521745	k	75
494782	5324220	Many earlier ceasefire accords have been broken.	Many earlier ceasefire accords have been broken.	252722962	1478754521866	1478754521993	e	69
494782	5324220	Many earlier ceasefire accords have been broken.	Many earlier ceasefire accords have been broken.	252722965	1478754522297	1478754522364	n	78
494782	5324220	Many earlier ceasefire accords have been broken.	Many earlier ceasefire accords have been broken.	252722989	1478754522647	1478754522745	.	190
494782	5324281	See you next week.	See you next week.	252724842	1478754559335	1478754559552	SHIFT	16
494782	5324281	See you next week.	See you next week.	252724844	1478754559542	1478754559641	S	83
494782	5324281	See you next week.	See you next week.	252724846	1478754559733	1478754559767	e	69
494782	5324281	See you next week.	See you next week.	252724851	1478754559857	1478754559923	e	69
494782	5324281	See you next week.	See you next week.	252724855	1478754560012	1478754560172	 	32
494782	5324281	See you next week.	See you next week.	252724860	1478754560753	1478754560881	y	89
494782	5324281	See you next week.	See you next week.	252724944	1478754560845	1478754560973	o	79
494782	5324281	See you next week.	See you next week.	252724948	1478754561003	1478754561129	u	85
494782	5324281	See you next week.	See you next week.	252724951	1478754561160	1478754561289	 	32
494782	5324281	See you next week.	See you next week.	252724954	1478754561561	1478754561687	s	83
494782	5324281	See you next week.	See you next week.	252724958	1478754562051	1478754562147	BKSP	8
494782	5324281	See you next week.	See you next week.	252724963	1478754562571	1478754562698	n	78
494782	5324281	See you next week.	See you next week.	252724968	1478754562727	1478754562823	e	69
494782	5324281	See you next week.	See you next week.	252725027	1478754563342	1478754563441	x	88
494782	5324281	See you next week.	See you next week.	252725029	1478754563594	1478754563660	t	84
494782	5324281	See you next week.	See you next week.	252725031	1478754563662	1478754563787	 	32
494782	5324281	See you next week.	See you next week.	252725034	1478754563998	1478754564095	w	87
494782	5324281	See you next week.	See you next week.	252725037	1478754564246	1478754564344	e	69
494782	5324281	See you next week.	See you next week.	252725079	1478754564434	1478754564529	e	69
494782	5324281	See you next week.	See you next week.	252725080	1478754564955	1478754565020	k	75
494782	5324281	See you next week.	See you next week.	252725081	1478754565262	1478754565360	.	190
494782	5324293	Give it some time.	Give it some time.	252725283	1478754568363	1478754569374	SHIFT	16
494782	5324293	Give it some time.	Give it some time.	252725280	1478754568790	1478754568885	G	71
494782	5324293	Give it some time.	Give it some time.	252725287	1478754569526	1478754569621	i	73
494782	5324293	Give it some time.	Give it some time.	252725290	1478754570322	1478754570419	v	86
494782	5324293	Give it some time.	Give it some time.	252725293	1478754570448	1478754570545	e	69
494782	5324293	Give it some time.	Give it some time.	252725295	1478754570547	1478754570640	 	32
494782	5324293	Give it some time.	Give it some time.	252725366	1478754571649	1478754571775	i	73
494782	5324293	Give it some time.	Give it some time.	252725370	1478754571867	1478754571964	t	84
494782	5324293	Give it some time.	Give it some time.	252725377	1478754571993	1478754572120	 	32
494782	5324293	Give it some time.	Give it some time.	252725383	1478754572607	1478754572772	t	84
494782	5324293	Give it some time.	Give it some time.	252725389	1478754572834	1478754572868	o	79
494782	5324293	Give it some time.	Give it some time.	252725494	1478754573325	1478754573391	BKSP	8
494782	5324293	Give it some time.	Give it some time.	252725498	1478754573481	1478754573579	BKSP	8
494782	5324293	Give it some time.	Give it some time.	252725501	1478754574098	1478754574258	s	83
494782	5324293	Give it some time.	Give it some time.	252725505	1478754574160	1478754574261	o	79
494782	5324293	Give it some time.	Give it some time.	252725507	1478754574441	1478754574568	m	77
494782	5324293	Give it some time.	Give it some time.	252725509	1478754574629	1478754574754	e	69
494782	5324293	Give it some time.	Give it some time.	252725510	1478754574816	1478754574912	 	32
494782	5324293	Give it some time.	Give it some time.	252725577	1478754575554	1478754575650	t	84
494782	5324293	Give it some time.	Give it some time.	252725579	1478754575771	1478754575867	i	73
494782	5324293	Give it some time.	Give it some time.	252725580	1478754576049	1478754576146	m	77
494782	5324293	Give it some time.	Give it some time.	252725582	1478754576265	1478754576362	e	69
494782	5324293	Give it some time.	Give it some time.	252725585	1478754576574	1478754576670	.	190
