PARTICIPANT_ID	TEST_SECTION_ID	SENTENCE	USER_INPUT	KEYSTROKE_ID	PRESS_TIME	RELEASE_TIME	LETTER	KEYCODE
499259	5370627	I can return earlier.	I can return earlier. 	254924663	1478805473120	1478805473276	SHIFT	16
499259	5370627	I can return earlier.	I can return earlier. 	254924667	1478805473212	1478805473332	NA	73
499259	5370627	I can return earlier.	I can return earlier. 	254924670	1478805473300	1478805473388	NA	32
499259	5370627	I can return earlier.	I can return earlier. 	254924674	1478805473404	1478805473525	NA	67
499259	5370627	I can return earlier.	I can return earlier. 	254924678	1478805473620	1478805473732	NA	65
499259	5370627	I can return earlier.	I can return earlier. 	254924698	1478805473676	1478805473796	NA	78
499259	5370627	I can return earlier.	I can return earlier. 	254924702	1478805473764	1478805473860	NA	32
499259	5370627	I can return earlier.	I can return earlier. 	254924705	1478805473861	1478805473948	NA	82
499259	5370627	I can return earlier.	I can return earlier. 	254924710	1478805474012	1478805474092	NA	69
499259	5370627	I can return earlier.	I can return earlier. 	254924714	1478805474188	1478805474284	NA	84
499259	5370627	I can return earlier.	I can return earlier. 	254924740	1478805474268	1478805474348	NA	85
499259	5370627	I can return earlier.	I can return earlier. 	254924744	1478805474381	1478805474500	NA	82
499259	5370627	I can return earlier.	I can return earlier. 	254924749	1478805474476	1478805474596	NA	78
499259	5370627	I can return earlier.	I can return earlier. 	254924754	1478805474572	1478805474692	NA	32
499259	5370627	I can return earlier.	I can return earlier. 	254924757	1478805474693	1478805474796	NA	69
499259	5370627	I can return earlier.	I can return earlier. 	254924759	1478805474900	1478805474996	NA	65
499259	5370627	I can return earlier.	I can return earlier. 	254924798	1478805475092	1478805475204	NA	82
499259	5370627	I can return earlier.	I can return earlier. 	254924800	1478805475182	1478805475268	NA	76
499259	5370627	I can return earlier.	I can return earlier. 	254924801	1478805475337	1478805475436	NA	73
499259	5370627	I can return earlier.	I can return earlier. 	254924802	1478805475436	1478805475524	NA	69
499259	5370627	I can return earlier.	I can return earlier. 	254924803	1478805475580	1478805475692	NA	82
499259	5370627	I can return earlier.	I can return earlier. 	254924810	1478805475653	1478805475788	NA	190
499259	5370627	I can return earlier.	I can return earlier. 	254924812	1478805475820	1478805475892	NA	32
499259	5370635	Neil has been asking around.	Neil has been asking around.	254925014	1478805478356	1478805478556	SHIFT	16
499259	5370635	Neil has been asking around.	Neil has been asking around.	254925008	1478805478461	1478805478540	NA	77
499259	5370635	Neil has been asking around.	Neil has been asking around.	254925019	1478805478860	1478805478989		8
499259	5370635	Neil has been asking around.	Neil has been asking around.	254925025	1478805479116	1478805479356	SHIFT	16
499259	5370635	Neil has been asking around.	Neil has been asking around.	254925029	1478805479316	1478805479412		8
499259	5370635	Neil has been asking around.	Neil has been asking around.	254925059	1478805479508	1478805479716	SHIFT	16
499259	5370635	Neil has been asking around.	Neil has been asking around.	254925032	1478805479596	1478805479700	NA	78
499259	5370635	Neil has been asking around.	Neil has been asking around.	254925063	1478805479860	1478805479983	NA	69
499259	5370635	Neil has been asking around.	Neil has been asking around.	254925066	1478805479967	1478805480068	NA	73
499259	5370635	Neil has been asking around.	Neil has been asking around.	254925069	1478805480149	1478805480292	NA	76
499259	5370635	Neil has been asking around.	Neil has been asking around.	254925073	1478805480236	1478805480324	NA	32
499259	5370635	Neil has been asking around.	Neil has been asking around.	254925077	1478805480420	1478805480516	NA	72
499259	5370635	Neil has been asking around.	Neil has been asking around.	254925128	1478805480468	1478805480556	NA	65
499259	5370635	Neil has been asking around.	Neil has been asking around.	254925130	1478805480628	1478805480756	NA	83
499259	5370635	Neil has been asking around.	Neil has been asking around.	254925133	1478805480684	1478805480780	NA	32
499259	5370635	Neil has been asking around.	Neil has been asking around.	254925137	1478805480876	1478805480964	NA	65
499259	5370635	Neil has been asking around.	Neil has been asking around.	254925139	1478805481044	1478805481156	NA	83
499259	5370635	Neil has been asking around.	Neil has been asking around.	254925142	1478805481428	1478805481522		8
499259	5370635	Neil has been asking around.	Neil has been asking around.	254925163	1478805481629	1478805481724	NA	66
499259	5370635	Neil has been asking around.	Neil has been asking around.	254925164	1478805481908	1478805481988		8
499259	5370635	Neil has been asking around.	Neil has been asking around.	254925165	1478805482068	1478805482140		8
499259	5370635	Neil has been asking around.	Neil has been asking around.	254925166	1478805482268	1478805482356	NA	66
499259	5370635	Neil has been asking around.	Neil has been asking around.	254925168	1478805482356	1478805482436	NA	69
499259	5370635	Neil has been asking around.	Neil has been asking around.	254925196	1478805482546	1478805482612	NA	69
499259	5370635	Neil has been asking around.	Neil has been asking around.	254925199	1478805482612	1478805482748	NA	78
499259	5370635	Neil has been asking around.	Neil has been asking around.	254925204	1478805482716	1478805482812	NA	32
499259	5370635	Neil has been asking around.	Neil has been asking around.	254925209	1478805482828	1478805482940	NA	65
499259	5370635	Neil has been asking around.	Neil has been asking around.	254925215	1478805483004	1478805483114	NA	83
499259	5370635	Neil has been asking around.	Neil has been asking around.	254925234	1478805483068	1478805483132	NA	75
499259	5370635	Neil has been asking around.	Neil has been asking around.	254925236	1478805483212	1478805483260	NA	73
499259	5370635	Neil has been asking around.	Neil has been asking around.	254925238	1478805483347	1478805483444	NA	78
499259	5370635	Neil has been asking around.	Neil has been asking around.	254925241	1478805483374	1478805483484	NA	71
499259	5370635	Neil has been asking around.	Neil has been asking around.	254925248	1478805483588	1478805483644	NA	32
499259	5370635	Neil has been asking around.	Neil has been asking around.	254925253	1478805483645	1478805483780	NA	65
499259	5370635	Neil has been asking around.	Neil has been asking around.	254925283	1478805483927	1478805483956	NA	82
499259	5370635	Neil has been asking around.	Neil has been asking around.	254925286	1478805484277	1478805484462		8
499259	5370635	Neil has been asking around.	Neil has been asking around.	254925293	1478805484463	1478805484492		8
499259	5370635	Neil has been asking around.	Neil has been asking around.	254925329	1478805484565	1478805484636		8
499259	5370635	Neil has been asking around.	Neil has been asking around.	254925330	1478805484844	1478805484956	NA	82
499259	5370635	Neil has been asking around.	Neil has been asking around.	254925332	1478805485173	1478805485251	NA	79
499259	5370635	Neil has been asking around.	Neil has been asking around.	254925335	1478805485372	1478805485412	NA	85
499259	5370635	Neil has been asking around.	Neil has been asking around.	254925341	1478805485558	1478805485652	NA	78
499259	5370635	Neil has been asking around.	Neil has been asking around.	254925369	1478805485660	1478805485748	NA	68
499259	5370635	Neil has been asking around.	Neil has been asking around.	254925371	1478805485860	1478805485948	NA	190
499259	5370646	Below is the intended version.	Below is the intended version.	254925482	1478805488012	1478805488116	SHIFT	16
499259	5370646	Below is the intended version.	Below is the intended version.	254925486	1478805488044	1478805488140	NA	66
499259	5370646	Below is the intended version.	Below is the intended version.	254925491	1478805488268	1478805488372	NA	69
499259	5370646	Below is the intended version.	Below is the intended version.	254925497	1478805488373	1478805488443	NA	76
499259	5370646	Below is the intended version.	Below is the intended version.	254925501	1478805488532	1478805488628	NA	79
499259	5370646	Below is the intended version.	Below is the intended version.	254925505	1478805488660	1478805488780	NA	87
499259	5370646	Below is the intended version.	Below is the intended version.	254925519	1478805488876	1478805488964	NA	32
499259	5370646	Below is the intended version.	Below is the intended version.	254925522	1478805488988	1478805489092	NA	73
499259	5370646	Below is the intended version.	Below is the intended version.	254925526	1478805489052	1478805489164	NA	83
499259	5370646	Below is the intended version.	Below is the intended version.	254925530	1478805489172	1478805489228	NA	32
499259	5370646	Below is the intended version.	Below is the intended version.	254925535	1478805489284	1478805489396	NA	84
499259	5370646	Below is the intended version.	Below is the intended version.	254925546	1478805489401	1478805489476	NA	72
499259	5370646	Below is the intended version.	Below is the intended version.	254925549	1478805489508	1478805489620	NA	69
499259	5370646	Below is the intended version.	Below is the intended version.	254925553	1478805489580	1478805489684	NA	32
499259	5370646	Below is the intended version.	Below is the intended version.	254925558	1478805489685	1478805489756	NA	73
499259	5370646	Below is the intended version.	Below is the intended version.	254925562	1478805489788	1478805489892	NA	78
499259	5370646	Below is the intended version.	Below is the intended version.	254925588	1478805489916	1478805490012	NA	68
499259	5370646	Below is the intended version.	Below is the intended version.	254925590	1478805490380	1478805490476	NA	84
499259	5370646	Below is the intended version.	Below is the intended version.	254925592	1478805490644	1478805490716		8
499259	5370646	Below is the intended version.	Below is the intended version.	254925596	1478805490780	1478805490876		8
499259	5370646	Below is the intended version.	Below is the intended version.	254925625	1478805490828	1478805490917	NA	84
499259	5370646	Below is the intended version.	Below is the intended version.	254925628	1478805491028	1478805491108	NA	69
499259	5370646	Below is the intended version.	Below is the intended version.	254925633	1478805491109	1478805491188	NA	78
499259	5370646	Below is the intended version.	Below is the intended version.	254925639	1478805491244	1478805491316	NA	68
499259	5370646	Below is the intended version.	Below is the intended version.	254925642	1478805491396	1478805491460	NA	69
499259	5370646	Below is the intended version.	Below is the intended version.	254925646	1478805491548	1478805491636	NA	68
499259	5370646	Below is the intended version.	Below is the intended version.	254925651	1478805491627	1478805491684	NA	32
499259	5370646	Below is the intended version.	Below is the intended version.	254925653	1478805491780	1478805491892	NA	86
499259	5370646	Below is the intended version.	Below is the intended version.	254925655	1478805491868	1478805491940	NA	69
499259	5370646	Below is the intended version.	Below is the intended version.	254925657	1478805492028	1478805492116	NA	82
499259	5370646	Below is the intended version.	Below is the intended version.	254925661	1478805492228	1478805492316	NA	83
499259	5370646	Below is the intended version.	Below is the intended version.	254925724	1478805492300	1478805492380	NA	73
499259	5370646	Below is the intended version.	Below is the intended version.	254925729	1478805492436	1478805492524	NA	79
499259	5370646	Below is the intended version.	Below is the intended version.	254925731	1478805492620	1478805492724	NA	78
499259	5370646	Below is the intended version.	Below is the intended version.	254925737	1478805492916	1478805492956	NA	188
499259	5370646	Below is the intended version.	Below is the intended version.	254925745	1478805493380	1478805493452		8
499259	5370646	Below is the intended version.	Below is the intended version.	254925758	1478805493515	1478805493628		8
499259	5370646	Below is the intended version.	Below is the intended version.	254925762	1478805493724	1478805493852	NA	190
499259	5370659	No obligation to pay.	No obligation to pay.	254925921	1478805496252	1478805496397	SHIFT	16
499259	5370659	No obligation to pay.	No obligation to pay.	254925923	1478805496332	1478805496397	NA	78
499259	5370659	No obligation to pay.	No obligation to pay.	254925926	1478805496580	1478805496684	NA	79
499259	5370659	No obligation to pay.	No obligation to pay.	254925929	1478805496652	1478805496716	NA	32
499259	5370659	No obligation to pay.	No obligation to pay.	254925935	1478805496764	1478805496877	NA	79
499259	5370659	No obligation to pay.	No obligation to pay.	254925979	1478805496852	1478805496988	NA	66
499259	5370659	No obligation to pay.	No obligation to pay.	254925983	1478805497164	1478805497244	NA	76
499259	5370659	No obligation to pay.	No obligation to pay.	254925991	1478805497340	1478805497396	NA	79
499259	5370659	No obligation to pay.	No obligation to pay.	254925998	1478805497596	1478805497692		8
499259	5370659	No obligation to pay.	No obligation to pay.	254926003	1478805497788	1478805497812	NA	85
499259	5370659	No obligation to pay.	No obligation to pay.	254926062	1478805497883	1478805497988	NA	71
499259	5370659	No obligation to pay.	No obligation to pay.	254926067	1478805498212	1478805498292		8
499259	5370659	No obligation to pay.	No obligation to pay.	254926074	1478805498364	1478805498420		8
499259	5370659	No obligation to pay.	No obligation to pay.	254926078	1478805498510	1478805498579		8
499259	5370659	No obligation to pay.	No obligation to pay.	254926082	1478805498644	1478805498739	NA	73
499259	5370659	No obligation to pay.	No obligation to pay.	254926125	1478805498716	1478805498812	NA	71
499259	5370659	No obligation to pay.	No obligation to pay.	254926127	1478805498996	1478805499100	NA	65
499259	5370659	No obligation to pay.	No obligation to pay.	254926131	1478805499252	1478805499357	NA	84
499259	5370659	No obligation to pay.	No obligation to pay.	254926136	1478805499309	1478805499380	NA	73
499259	5370659	No obligation to pay.	No obligation to pay.	254926143	1478805499460	1478805499523	NA	79
499259	5370659	No obligation to pay.	No obligation to pay.	254926149	1478805499636	1478805499733	NA	78
499259	5370659	No obligation to pay.	No obligation to pay.	254926161	1478805499748	1478805499852	NA	32
499259	5370659	No obligation to pay.	No obligation to pay.	254926165	1478805499868	1478805499956	NA	84
499259	5370659	No obligation to pay.	No obligation to pay.	254926169	1478805499956	1478805500075	NA	79
499259	5370659	No obligation to pay.	No obligation to pay.	254926174	1478805500043	1478805500131	NA	32
499259	5370659	No obligation to pay.	No obligation to pay.	254926178	1478805500155	1478805500267	NA	80
499259	5370659	No obligation to pay.	No obligation to pay.	254926203	1478805500292	1478805500387	NA	65
499259	5370659	No obligation to pay.	No obligation to pay.	254926208	1478805500404	1478805500556	NA	89
499259	5370659	No obligation to pay.	No obligation to pay.	254926212	1478805500758	1478805500900	NA	190
499259	5370671	Zou, I hope you had a good flight back to Texas.	Zoi, i hope you had a good flight back to Texas.	254926401	1478805503196	1478805503252	SHIFT	16
499259	5370671	Zou, I hope you had a good flight back to Texas.	Zoi, i hope you had a good flight back to Texas.	254926403	1478805503197	1478805503252	CAPS_LOCK	20
499259	5370671	Zou, I hope you had a good flight back to Texas.	Zoi, i hope you had a good flight back to Texas.	254926408	1478805503468	1478805503588	NA	90
499259	5370671	Zou, I hope you had a good flight back to Texas.	Zoi, i hope you had a good flight back to Texas.	254926411	1478805503764	1478805503867	CAPS_LOCK	20
499259	5370671	Zou, I hope you had a good flight back to Texas.	Zoi, i hope you had a good flight back to Texas.	254926414	1478805503948	1478805504036	NA	79
499259	5370671	Zou, I hope you had a good flight back to Texas.	Zoi, i hope you had a good flight back to Texas.	254926420	1478805504140	1478805504243	NA	73
499259	5370671	Zou, I hope you had a good flight back to Texas.	Zoi, i hope you had a good flight back to Texas.	254926426	1478805504365	1478805504532	NA	188
499259	5370671	Zou, I hope you had a good flight back to Texas.	Zoi, i hope you had a good flight back to Texas.	254926470	1478805504492	1478805504596	NA	32
499259	5370671	Zou, I hope you had a good flight back to Texas.	Zoi, i hope you had a good flight back to Texas.	254926476	1478805504740	1478805504886	NA	73
499259	5370671	Zou, I hope you had a good flight back to Texas.	Zoi, i hope you had a good flight back to Texas.	254926472	1478805504756	1478805504883	SHIFT	16
499259	5370671	Zou, I hope you had a good flight back to Texas.	Zoi, i hope you had a good flight back to Texas.	254926479	1478805504884	1478805504902	NA	32
499259	5370671	Zou, I hope you had a good flight back to Texas.	Zoi, i hope you had a good flight back to Texas.	254926483	1478805504956	1478805505067	NA	72
499259	5370671	Zou, I hope you had a good flight back to Texas.	Zoi, i hope you had a good flight back to Texas.	254926488	1478805505203	1478805505307	NA	79
499259	5370671	Zou, I hope you had a good flight back to Texas.	Zoi, i hope you had a good flight back to Texas.	254926492	1478805505412	1478805505524	NA	80
499259	5370671	Zou, I hope you had a good flight back to Texas.	Zoi, i hope you had a good flight back to Texas.	254926507	1478805505527	1478805505619	NA	69
499259	5370671	Zou, I hope you had a good flight back to Texas.	Zoi, i hope you had a good flight back to Texas.	254926511	1478805505652	1478805505715	NA	32
499259	5370671	Zou, I hope you had a good flight back to Texas.	Zoi, i hope you had a good flight back to Texas.	254926513	1478805505804	1478805505947	NA	89
499259	5370671	Zou, I hope you had a good flight back to Texas.	Zoi, i hope you had a good flight back to Texas.	254926516	1478805505932	1478805506044	NA	79
499259	5370671	Zou, I hope you had a good flight back to Texas.	Zoi, i hope you had a good flight back to Texas.	254926521	1478805506044	1478805506108	NA	85
499259	5370671	Zou, I hope you had a good flight back to Texas.	Zoi, i hope you had a good flight back to Texas.	254926545	1478805506132	1478805506187	NA	32
499259	5370671	Zou, I hope you had a good flight back to Texas.	Zoi, i hope you had a good flight back to Texas.	254926548	1478805506244	1478805506356	NA	72
499259	5370671	Zou, I hope you had a good flight back to Texas.	Zoi, i hope you had a good flight back to Texas.	254926551	1478805506357	1478805506459	NA	65
499259	5370671	Zou, I hope you had a good flight back to Texas.	Zoi, i hope you had a good flight back to Texas.	254926554	1478805506547	1478805506652	NA	68
499259	5370671	Zou, I hope you had a good flight back to Texas.	Zoi, i hope you had a good flight back to Texas.	254926558	1478805506652	1478805506716	NA	32
499259	5370671	Zou, I hope you had a good flight back to Texas.	Zoi, i hope you had a good flight back to Texas.	254926586	1478805506739	1478805506844	NA	65
499259	5370671	Zou, I hope you had a good flight back to Texas.	Zoi, i hope you had a good flight back to Texas.	254926593	1478805506844	1478805506916	NA	32
499259	5370671	Zou, I hope you had a good flight back to Texas.	Zoi, i hope you had a good flight back to Texas.	254926599	1478805506996	1478805507076	NA	71
499259	5370671	Zou, I hope you had a good flight back to Texas.	Zoi, i hope you had a good flight back to Texas.	254926604	1478805507077	1478805507139	NA	79
499259	5370671	Zou, I hope you had a good flight back to Texas.	Zoi, i hope you had a good flight back to Texas.	254926607	1478805507235	1478805507324	NA	79
499259	5370671	Zou, I hope you had a good flight back to Texas.	Zoi, i hope you had a good flight back to Texas.	254926638	1478805507308	1478805507420	NA	68
499259	5370671	Zou, I hope you had a good flight back to Texas.	Zoi, i hope you had a good flight back to Texas.	254926643	1478805507421	1478805507500	NA	32
499259	5370671	Zou, I hope you had a good flight back to Texas.	Zoi, i hope you had a good flight back to Texas.	254926649	1478805507516	1478805507660	NA	70
499259	5370671	Zou, I hope you had a good flight back to Texas.	Zoi, i hope you had a good flight back to Texas.	254926653	1478805507603	1478805507699	NA	76
499259	5370671	Zou, I hope you had a good flight back to Texas.	Zoi, i hope you had a good flight back to Texas.	254926662	1478805507796	1478805507884	NA	73
499259	5370671	Zou, I hope you had a good flight back to Texas.	Zoi, i hope you had a good flight back to Texas.	254926669	1478805507884	1478805508004	NA	71
499259	5370671	Zou, I hope you had a good flight back to Texas.	Zoi, i hope you had a good flight back to Texas.	254926696	1478805508007	1478805508100	NA	72
499259	5370671	Zou, I hope you had a good flight back to Texas.	Zoi, i hope you had a good flight back to Texas.	254926701	1478805508124	1478805508227	NA	84
499259	5370671	Zou, I hope you had a good flight back to Texas.	Zoi, i hope you had a good flight back to Texas.	254926708	1478805508212	1478805508299	NA	32
499259	5370671	Zou, I hope you had a good flight back to Texas.	Zoi, i hope you had a good flight back to Texas.	254926718	1478805508348	1478805508452	NA	66
499259	5370671	Zou, I hope you had a good flight back to Texas.	Zoi, i hope you had a good flight back to Texas.	254926726	1478805508452	1478805508532	NA	65
499259	5370671	Zou, I hope you had a good flight back to Texas.	Zoi, i hope you had a good flight back to Texas.	254926779	1478805508731	1478805508837	NA	75
499259	5370671	Zou, I hope you had a good flight back to Texas.	Zoi, i hope you had a good flight back to Texas.	254926781	1478805508988	1478805509083		8
499259	5370671	Zou, I hope you had a good flight back to Texas.	Zoi, i hope you had a good flight back to Texas.	254926783	1478805509140	1478805509212	NA	67
499259	5370671	Zou, I hope you had a good flight back to Texas.	Zoi, i hope you had a good flight back to Texas.	254926786	1478805509212	1478805509316	NA	75
499259	5370671	Zou, I hope you had a good flight back to Texas.	Zoi, i hope you had a good flight back to Texas.	254926789	1478805509412	1478805509492	NA	32
499259	5370671	Zou, I hope you had a good flight back to Texas.	Zoi, i hope you had a good flight back to Texas.	254926856	1478805509556	1478805509651	NA	84
499259	5370671	Zou, I hope you had a good flight back to Texas.	Zoi, i hope you had a good flight back to Texas.	254926859	1478805509595	1478805509764	NA	79
499259	5370671	Zou, I hope you had a good flight back to Texas.	Zoi, i hope you had a good flight back to Texas.	254926862	1478805509684	1478805509788	NA	32
499259	5370671	Zou, I hope you had a good flight back to Texas.	Zoi, i hope you had a good flight back to Texas.	254926865	1478805510147	1478805510299	SHIFT	16
499259	5370671	Zou, I hope you had a good flight back to Texas.	Zoi, i hope you had a good flight back to Texas.	254926867	1478805510235	1478805510316	NA	84
499259	5370671	Zou, I hope you had a good flight back to Texas.	Zoi, i hope you had a good flight back to Texas.	254926869	1478805510436	1478805510540	NA	69
499259	5370671	Zou, I hope you had a good flight back to Texas.	Zoi, i hope you had a good flight back to Texas.	254926933	1478805510636	1478805510731	NA	88
499259	5370671	Zou, I hope you had a good flight back to Texas.	Zoi, i hope you had a good flight back to Texas.	254926938	1478805510827	1478805510939	NA	65
499259	5370671	Zou, I hope you had a good flight back to Texas.	Zoi, i hope you had a good flight back to Texas.	254926942	1478805511132	1478805511243	NA	83
499259	5370671	Zou, I hope you had a good flight back to Texas.	Zoi, i hope you had a good flight back to Texas.	254926944	1478805511340	1478805511476	NA	190
499259	5370685	He also suggested it would send a conflicting message to Geneva.	He also suggested it would send a conflicting message to Geneva.	254927132	1478805513340	1478805513484	SHIFT	16
499259	5370685	He also suggested it would send a conflicting message to Geneva.	He also suggested it would send a conflicting message to Geneva.	254927139	1478805513428	1478805513516	NA	72
499259	5370685	He also suggested it would send a conflicting message to Geneva.	He also suggested it would send a conflicting message to Geneva.	254927146	1478805513620	1478805513723	NA	69
499259	5370685	He also suggested it would send a conflicting message to Geneva.	He also suggested it would send a conflicting message to Geneva.	254927152	1478805513739	1478805513812	NA	32
499259	5370685	He also suggested it would send a conflicting message to Geneva.	He also suggested it would send a conflicting message to Geneva.	254927158	1478805513859	1478805513972	NA	65
499259	5370685	He also suggested it would send a conflicting message to Geneva.	He also suggested it would send a conflicting message to Geneva.	254927198	1478805513948	1478805514027	NA	76
499259	5370685	He also suggested it would send a conflicting message to Geneva.	He also suggested it would send a conflicting message to Geneva.	254927202	1478805514116	1478805514212	NA	79
499259	5370685	He also suggested it would send a conflicting message to Geneva.	He also suggested it would send a conflicting message to Geneva.	254927208	1478805514235	1478805514332	NA	83
499259	5370685	He also suggested it would send a conflicting message to Geneva.	He also suggested it would send a conflicting message to Geneva.	254927215	1478805514659	1478805514715		8
499259	5370685	He also suggested it would send a conflicting message to Geneva.	He also suggested it would send a conflicting message to Geneva.	254927221	1478805514780	1478805514907		8
499259	5370685	He also suggested it would send a conflicting message to Geneva.	He also suggested it would send a conflicting message to Geneva.	254927294	1478805514852	1478805514979	NA	83
499259	5370685	He also suggested it would send a conflicting message to Geneva.	He also suggested it would send a conflicting message to Geneva.	254927301	1478805515092	1478805515195	NA	79
499259	5370685	He also suggested it would send a conflicting message to Geneva.	He also suggested it would send a conflicting message to Geneva.	254927308	1478805515259	1478805515348	NA	32
499259	5370685	He also suggested it would send a conflicting message to Geneva.	He also suggested it would send a conflicting message to Geneva.	254927316	1478805515564	1478805515691	NA	83
499259	5370685	He also suggested it would send a conflicting message to Geneva.	He also suggested it would send a conflicting message to Geneva.	254927322	1478805515651	1478805515731	NA	85
499259	5370685	He also suggested it would send a conflicting message to Geneva.	He also suggested it would send a conflicting message to Geneva.	254927326	1478805515884	1478805515963	NA	71
499259	5370685	He also suggested it would send a conflicting message to Geneva.	He also suggested it would send a conflicting message to Geneva.	254927405	1478805516043	1478805516131	NA	71
499259	5370685	He also suggested it would send a conflicting message to Geneva.	He also suggested it would send a conflicting message to Geneva.	254927408	1478805516252	1478805516339	NA	69
499259	5370685	He also suggested it would send a conflicting message to Geneva.	He also suggested it would send a conflicting message to Geneva.	254927412	1478805516411	1478805516507	NA	83
499259	5370685	He also suggested it would send a conflicting message to Geneva.	He also suggested it would send a conflicting message to Geneva.	254927418	1478805516627	1478805516739	NA	84
499259	5370685	He also suggested it would send a conflicting message to Geneva.	He also suggested it would send a conflicting message to Geneva.	254927423	1478805516971	1478805517084	NA	69
499259	5370685	He also suggested it would send a conflicting message to Geneva.	He also suggested it would send a conflicting message to Geneva.	254927452	1478805517164	1478805517283	NA	68
499259	5370685	He also suggested it would send a conflicting message to Geneva.	He also suggested it would send a conflicting message to Geneva.	254927455	1478805517268	1478805517355	NA	32
499259	5370685	He also suggested it would send a conflicting message to Geneva.	He also suggested it would send a conflicting message to Geneva.	254927460	1478805517380	1478805517476	NA	73
499259	5370685	He also suggested it would send a conflicting message to Geneva.	He also suggested it would send a conflicting message to Geneva.	254927468	1478805517476	1478805517572	NA	84
499259	5370685	He also suggested it would send a conflicting message to Geneva.	He also suggested it would send a conflicting message to Geneva.	254927474	1478805517572	1478805517619	NA	32
499259	5370685	He also suggested it would send a conflicting message to Geneva.	He also suggested it would send a conflicting message to Geneva.	254927507	1478805517716	1478805517820	NA	87
499259	5370685	He also suggested it would send a conflicting message to Geneva.	He also suggested it would send a conflicting message to Geneva.	254927511	1478805517756	1478805517843	NA	79
499259	5370685	He also suggested it would send a conflicting message to Geneva.	He also suggested it would send a conflicting message to Geneva.	254927516	1478805517936	1478805518020	NA	85
499259	5370685	He also suggested it would send a conflicting message to Geneva.	He also suggested it would send a conflicting message to Geneva.	254927521	1478805518124	1478805518236	NA	76
499259	5370685	He also suggested it would send a conflicting message to Geneva.	He also suggested it would send a conflicting message to Geneva.	254927593	1478805518204	1478805518340	NA	68
499259	5370685	He also suggested it would send a conflicting message to Geneva.	He also suggested it would send a conflicting message to Geneva.	254927597	1478805518307	1478805518396	NA	32
499259	5370685	He also suggested it would send a conflicting message to Geneva.	He also suggested it would send a conflicting message to Geneva.	254927600	1478805518436	1478805518531	NA	83
499259	5370685	He also suggested it would send a conflicting message to Geneva.	He also suggested it would send a conflicting message to Geneva.	254927602	1478805518635	1478805518740	NA	69
499259	5370685	He also suggested it would send a conflicting message to Geneva.	He also suggested it would send a conflicting message to Geneva.	254927604	1478805518741	1478805518836	NA	78
499259	5370685	He also suggested it would send a conflicting message to Geneva.	He also suggested it would send a conflicting message to Geneva.	254927610	1478805518859	1478805518979	NA	68
499259	5370685	He also suggested it would send a conflicting message to Geneva.	He also suggested it would send a conflicting message to Geneva.	254927626	1478805518982	1478805519051	NA	32
499259	5370685	He also suggested it would send a conflicting message to Geneva.	He also suggested it would send a conflicting message to Geneva.	254927630	1478805519076	1478805519204	NA	65
499259	5370685	He also suggested it would send a conflicting message to Geneva.	He also suggested it would send a conflicting message to Geneva.	254927633	1478805519180	1478805519243	NA	32
499259	5370685	He also suggested it would send a conflicting message to Geneva.	He also suggested it would send a conflicting message to Geneva.	254927639	1478805519316	1478805519411	NA	67
499259	5370685	He also suggested it would send a conflicting message to Geneva.	He also suggested it would send a conflicting message to Geneva.	254927710	1478805519356	1478805519436	NA	79
499259	5370685	He also suggested it would send a conflicting message to Geneva.	He also suggested it would send a conflicting message to Geneva.	254927712	1478805519539	1478805519627	NA	78
499259	5370685	He also suggested it would send a conflicting message to Geneva.	He also suggested it would send a conflicting message to Geneva.	254927720	1478805519651	1478805519763	NA	70
499259	5370685	He also suggested it would send a conflicting message to Geneva.	He also suggested it would send a conflicting message to Geneva.	254927730	1478805519827	1478805519955	NA	76
499259	5370685	He also suggested it would send a conflicting message to Geneva.	He also suggested it would send a conflicting message to Geneva.	254927736	1478805520027	1478805520139	NA	73
499259	5370685	He also suggested it would send a conflicting message to Geneva.	He also suggested it would send a conflicting message to Geneva.	254927747	1478805520140	1478805520235	NA	67
499259	5370685	He also suggested it would send a conflicting message to Geneva.	He also suggested it would send a conflicting message to Geneva.	254927792	1478805520347	1478805520436	NA	84
499259	5370685	He also suggested it would send a conflicting message to Geneva.	He also suggested it would send a conflicting message to Geneva.	254927799	1478805520436	1478805520499	NA	73
499259	5370685	He also suggested it would send a conflicting message to Geneva.	He also suggested it would send a conflicting message to Geneva.	254927807	1478805520603	1478805520699	NA	78
499259	5370685	He also suggested it would send a conflicting message to Geneva.	He also suggested it would send a conflicting message to Geneva.	254927813	1478805520715	1478805520831	NA	71
499259	5370685	He also suggested it would send a conflicting message to Geneva.	He also suggested it would send a conflicting message to Geneva.	254927838	1478805520811	1478805520932	NA	32
499259	5370685	He also suggested it would send a conflicting message to Geneva.	He also suggested it would send a conflicting message to Geneva.	254927844	1478805520932	1478805521044	NA	77
499259	5370685	He also suggested it would send a conflicting message to Geneva.	He also suggested it would send a conflicting message to Geneva.	254927853	1478805521011	1478805521131	NA	69
499259	5370685	He also suggested it would send a conflicting message to Geneva.	He also suggested it would send a conflicting message to Geneva.	254927860	1478805521227	1478805521291	NA	83
499259	5370685	He also suggested it would send a conflicting message to Geneva.	He also suggested it would send a conflicting message to Geneva.	254927867	1478805521355	1478805521459	NA	83
499259	5370685	He also suggested it would send a conflicting message to Geneva.	He also suggested it would send a conflicting message to Geneva.	254927877	1478805521539	1478805521652	NA	65
499259	5370685	He also suggested it would send a conflicting message to Geneva.	He also suggested it would send a conflicting message to Geneva.	254927911	1478805521655	1478805521723	NA	71
499259	5370685	He also suggested it would send a conflicting message to Geneva.	He also suggested it would send a conflicting message to Geneva.	254927916	1478805521772	1478805521883	NA	69
499259	5370685	He also suggested it would send a conflicting message to Geneva.	He also suggested it would send a conflicting message to Geneva.	254927921	1478805521867	1478805521940	NA	32
499259	5370685	He also suggested it would send a conflicting message to Geneva.	He also suggested it would send a conflicting message to Geneva.	254927927	1478805522019	1478805522131	NA	84
499259	5370685	He also suggested it would send a conflicting message to Geneva.	He also suggested it would send a conflicting message to Geneva.	254927989	1478805522075	1478805522228	NA	79
499259	5370685	He also suggested it would send a conflicting message to Geneva.	He also suggested it would send a conflicting message to Geneva.	254927993	1478805522179	1478805522275	NA	32
499259	5370685	He also suggested it would send a conflicting message to Geneva.	He also suggested it would send a conflicting message to Geneva.	254927996	1478805522395	1478805522564	SHIFT	16
499259	5370685	He also suggested it would send a conflicting message to Geneva.	He also suggested it would send a conflicting message to Geneva.	254927999	1478805522483	1478805522579	NA	71
499259	5370685	He also suggested it would send a conflicting message to Geneva.	He also suggested it would send a conflicting message to Geneva.	254928002	1478805522708	1478805522828	NA	69
499259	5370685	He also suggested it would send a conflicting message to Geneva.	He also suggested it would send a conflicting message to Geneva.	254928008	1478805522828	1478805522923	NA	78
499259	5370685	He also suggested it would send a conflicting message to Geneva.	He also suggested it would send a conflicting message to Geneva.	254928011	1478805522947	1478805523067	NA	69
499259	5370685	He also suggested it would send a conflicting message to Geneva.	He also suggested it would send a conflicting message to Geneva.	254928049	1478805523236	1478805523315	NA	86
499259	5370685	He also suggested it would send a conflicting message to Geneva.	He also suggested it would send a conflicting message to Geneva.	254928055	1478805523388	1478805523507	NA	65
499259	5370703	Kay Mann is going to take the lead on this.	Kay Mann is going to take the lead on this.	254928232	1478805525532	1478805525756	SHIFT	16
499259	5370703	Kay Mann is going to take the lead on this.	Kay Mann is going to take the lead on this.	254928237	1478805525668	1478805525756	NA	75
499259	5370703	Kay Mann is going to take the lead on this.	Kay Mann is going to take the lead on this.	254928243	1478805525859	1478805525956	NA	65
499259	5370703	Kay Mann is going to take the lead on this.	Kay Mann is going to take the lead on this.	254928248	1478805526259	1478805526395	NA	32
499259	5370703	Kay Mann is going to take the lead on this.	Kay Mann is going to take the lead on this.	254928251	1478805526571	1478805526651		8
499259	5370703	Kay Mann is going to take the lead on this.	Kay Mann is going to take the lead on this.	254928253	1478805526763	1478805526883	NA	89
499259	5370703	Kay Mann is going to take the lead on this.	Kay Mann is going to take the lead on this.	254928308	1478805526924	1478805527003	NA	32
499259	5370703	Kay Mann is going to take the lead on this.	Kay Mann is going to take the lead on this.	254928311	1478805527139	1478805527307	SHIFT	16
499259	5370703	Kay Mann is going to take the lead on this.	Kay Mann is going to take the lead on this.	254928314	1478805527251	1478805527339	NA	77
499259	5370703	Kay Mann is going to take the lead on this.	Kay Mann is going to take the lead on this.	254928319	1478805527451	1478805527532	NA	65
499259	5370703	Kay Mann is going to take the lead on this.	Kay Mann is going to take the lead on this.	254928322	1478805527533	1478805527611	NA	78
499259	5370703	Kay Mann is going to take the lead on this.	Kay Mann is going to take the lead on this.	254928327	1478805527684	1478805527779	NA	78
499259	5370703	Kay Mann is going to take the lead on this.	Kay Mann is going to take the lead on this.	254928338	1478805527795	1478805527867	NA	32
499259	5370703	Kay Mann is going to take the lead on this.	Kay Mann is going to take the lead on this.	254928342	1478805527907	1478805527996	NA	73
499259	5370703	Kay Mann is going to take the lead on this.	Kay Mann is going to take the lead on this.	254928346	1478805527996	1478805528083	NA	83
499259	5370703	Kay Mann is going to take the lead on this.	Kay Mann is going to take the lead on this.	254928349	1478805528099	1478805528163	NA	32
499259	5370703	Kay Mann is going to take the lead on this.	Kay Mann is going to take the lead on this.	254928352	1478805528211	1478805528307	NA	71
499259	5370703	Kay Mann is going to take the lead on this.	Kay Mann is going to take the lead on this.	254928385	1478805528283	1478805528363	NA	79
499259	5370703	Kay Mann is going to take the lead on this.	Kay Mann is going to take the lead on this.	254928387	1478805528435	1478805528507	NA	73
499259	5370703	Kay Mann is going to take the lead on this.	Kay Mann is going to take the lead on this.	254928392	1478805528604	1478805528675	NA	78
499259	5370703	Kay Mann is going to take the lead on this.	Kay Mann is going to take the lead on this.	254928397	1478805528659	1478805528779	NA	71
499259	5370703	Kay Mann is going to take the lead on this.	Kay Mann is going to take the lead on this.	254928401	1478805528787	1478805528859	NA	32
499259	5370703	Kay Mann is going to take the lead on this.	Kay Mann is going to take the lead on this.	254928404	1478805528907	1478805529003	NA	84
499259	5370703	Kay Mann is going to take the lead on this.	Kay Mann is going to take the lead on this.	254928444	1478805528948	1478805529108	NA	79
499259	5370703	Kay Mann is going to take the lead on this.	Kay Mann is going to take the lead on this.	254928452	1478805529051	1478805529140	NA	32
499259	5370703	Kay Mann is going to take the lead on this.	Kay Mann is going to take the lead on this.	254928458	1478805529140	1478805529203	NA	84
499259	5370703	Kay Mann is going to take the lead on this.	Kay Mann is going to take the lead on this.	254928466	1478805529420	1478805529507	NA	65
499259	5370703	Kay Mann is going to take the lead on this.	Kay Mann is going to take the lead on this.	254928473	1478805529532	1478805529611	NA	75
499259	5370703	Kay Mann is going to take the lead on this.	Kay Mann is going to take the lead on this.	254928481	1478805529635	1478805529748	NA	69
499259	5370703	Kay Mann is going to take the lead on this.	Kay Mann is going to take the lead on this.	254928509	1478805529750	1478805529819	NA	32
499259	5370703	Kay Mann is going to take the lead on this.	Kay Mann is going to take the lead on this.	254928514	1478805529851	1478805529955	NA	84
499259	5370703	Kay Mann is going to take the lead on this.	Kay Mann is going to take the lead on this.	254928520	1478805529915	1478805530011	NA	72
499259	5370703	Kay Mann is going to take the lead on this.	Kay Mann is going to take the lead on this.	254928524	1478805530075	1478805530179	NA	69
499259	5370703	Kay Mann is going to take the lead on this.	Kay Mann is going to take the lead on this.	254928528	1478805530203	1478805530275	NA	32
499259	5370703	Kay Mann is going to take the lead on this.	Kay Mann is going to take the lead on this.	254928559	1478805530299	1478805530419	NA	76
499259	5370703	Kay Mann is going to take the lead on this.	Kay Mann is going to take the lead on this.	254928564	1478805530363	1478805530443	NA	69
499259	5370703	Kay Mann is going to take the lead on this.	Kay Mann is going to take the lead on this.	254928573	1478805530563	1478805530659	NA	65
499259	5370703	Kay Mann is going to take the lead on this.	Kay Mann is going to take the lead on this.	254928580	1478805530763	1478805530859	NA	68
499259	5370703	Kay Mann is going to take the lead on this.	Kay Mann is going to take the lead on this.	254928619	1478805530843	1478805530932	NA	32
499259	5370703	Kay Mann is going to take the lead on this.	Kay Mann is going to take the lead on this.	254928622	1478805530933	1478805531020	NA	79
499259	5370703	Kay Mann is going to take the lead on this.	Kay Mann is going to take the lead on this.	254928629	1478805531131	1478805531268	NA	78
499259	5370703	Kay Mann is going to take the lead on this.	Kay Mann is going to take the lead on this.	254928635	1478805531268	1478805531371	NA	32
499259	5370703	Kay Mann is going to take the lead on this.	Kay Mann is going to take the lead on this.	254928640	1478805531411	1478805531523	NA	84
499259	5370703	Kay Mann is going to take the lead on this.	Kay Mann is going to take the lead on this.	254928658	1478805531467	1478805531643	NA	72
499259	5370703	Kay Mann is going to take the lead on this.	Kay Mann is going to take the lead on this.	254928665	1478805531611	1478805531723	NA	73
499259	5370703	Kay Mann is going to take the lead on this.	Kay Mann is going to take the lead on this.	254928672	1478805531747	1478805531859	NA	83
499259	5370720	Have you done any deals yet?	Have you done any deals yet?	254928879	1478805533763	1478805534188	SHIFT	16
499259	5370720	Have you done any deals yet?	Have you done any deals yet?	254928883	1478805534051	1478805534188	NA	86
499259	5370720	Have you done any deals yet?	Have you done any deals yet?	254928885	1478805534283	1478805534403	NA	65
499259	5370720	Have you done any deals yet?	Have you done any deals yet?	254928889	1478805534428	1478805534500	NA	32
499259	5370720	Have you done any deals yet?	Have you done any deals yet?	254928891	1478805534907	1478805534979		8
499259	5370720	Have you done any deals yet?	Have you done any deals yet?	254928928	1478805535059	1478805535123		8
499259	5370720	Have you done any deals yet?	Have you done any deals yet?	254928931	1478805535195	1478805535251		8
499259	5370720	Have you done any deals yet?	Have you done any deals yet?	254928935	1478805535323	1478805535387		8
499259	5370720	Have you done any deals yet?	Have you done any deals yet?	254928937	1478805535459	1478805535491		8
499259	5370720	Have you done any deals yet?	Have you done any deals yet?	254928944	1478805535531	1478805535724	SHIFT	16
499259	5370720	Have you done any deals yet?	Have you done any deals yet?	254928995	1478805535611	1478805535727	NA	72
499259	5370720	Have you done any deals yet?	Have you done any deals yet?	254928999	1478805535811	1478805535923	NA	65
499259	5370720	Have you done any deals yet?	Have you done any deals yet?	254929005	1478805535899	1478805536003	NA	86
499259	5370720	Have you done any deals yet?	Have you done any deals yet?	254929012	1478805536035	1478805536147	NA	69
499259	5370720	Have you done any deals yet?	Have you done any deals yet?	254929018	1478805536147	1478805536227	NA	32
499259	5370720	Have you done any deals yet?	Have you done any deals yet?	254929025	1478805536411	1478805536483	NA	79
499259	5370720	Have you done any deals yet?	Have you done any deals yet?	254929066	1478805536779	1478805536835		8
499259	5370720	Have you done any deals yet?	Have you done any deals yet?	254929069	1478805536915	1478805537027		8
499259	5370720	Have you done any deals yet?	Have you done any deals yet?	254929072	1478805537003	1478805537083	NA	89
499259	5370720	Have you done any deals yet?	Have you done any deals yet?	254929076	1478805537099	1478805537188	NA	79
499259	5370720	Have you done any deals yet?	Have you done any deals yet?	254929078	1478805537188	1478805537259	NA	85
499259	5370720	Have you done any deals yet?	Have you done any deals yet?	254929125	1478805537315	1478805537371	NA	32
499259	5370720	Have you done any deals yet?	Have you done any deals yet?	254929131	1478805537491	1478805537579	NA	68
499259	5370720	Have you done any deals yet?	Have you done any deals yet?	254929137	1478805537547	1478805537627	NA	79
499259	5370720	Have you done any deals yet?	Have you done any deals yet?	254929141	1478805537779	1478805537851	NA	78
499259	5370720	Have you done any deals yet?	Have you done any deals yet?	254929146	1478805537940	1478805538019	NA	69
499259	5370720	Have you done any deals yet?	Have you done any deals yet?	254929189	1478805538083	1478805538187	NA	32
499259	5370720	Have you done any deals yet?	Have you done any deals yet?	254929192	1478805538219	1478805538331	NA	65
499259	5370720	Have you done any deals yet?	Have you done any deals yet?	254929197	1478805538275	1478805538379	NA	78
499259	5370720	Have you done any deals yet?	Have you done any deals yet?	254929199	1478805538499	1478805538619	NA	89
499259	5370720	Have you done any deals yet?	Have you done any deals yet?	254929222	1478805538603	1478805538692	NA	32
499259	5370720	Have you done any deals yet?	Have you done any deals yet?	254929225	1478805538667	1478805538763	NA	68
499259	5370720	Have you done any deals yet?	Have you done any deals yet?	254929230	1478805538835	1478805538915	NA	69
499259	5370720	Have you done any deals yet?	Have you done any deals yet?	254929237	1478805539035	1478805539147	NA	65
499259	5370720	Have you done any deals yet?	Have you done any deals yet?	254929245	1478805539099	1478805539195	NA	76
499259	5370720	Have you done any deals yet?	Have you done any deals yet?	254929250	1478805539243	1478805539347	NA	83
499259	5370720	Have you done any deals yet?	Have you done any deals yet?	254929300	1478805539349	1478805539411	NA	32
499259	5370720	Have you done any deals yet?	Have you done any deals yet?	254929310	1478805539467	1478805539587	NA	89
499259	5370720	Have you done any deals yet?	Have you done any deals yet?	254929313	1478805539563	1478805539651	NA	69
499259	5370720	Have you done any deals yet?	Have you done any deals yet?	254929319	1478805539739	1478805539835	NA	84
499259	5370720	Have you done any deals yet?	Have you done any deals yet?	254929328	1478805539859	1478805539979	SHIFT	16
499259	5370720	Have you done any deals yet?	Have you done any deals yet?	254929322	1478805539923	1478805540035	NA	191
499259	5370734	The rest is a byproduct of slapshot.	The rest is a byproduct of slapshot.	254929549	1478805541844	1478805542067	SHIFT	16
499259	5370734	The rest is a byproduct of slapshot.	The rest is a byproduct of slapshot.	254929547	1478805541947	1478805542043	NA	82
499259	5370734	The rest is a byproduct of slapshot.	The rest is a byproduct of slapshot.	254929555	1478805542259	1478805542331	NA	71
499259	5370734	The rest is a byproduct of slapshot.	The rest is a byproduct of slapshot.	254929563	1478805542511	1478805542571		8
499259	5370734	The rest is a byproduct of slapshot.	The rest is a byproduct of slapshot.	254929568	1478805542644	1478805542732		8
499259	5370734	The rest is a byproduct of slapshot.	The rest is a byproduct of slapshot.	254929657	1478805542779	1478805543028	SHIFT	16
499259	5370734	The rest is a byproduct of slapshot.	The rest is a byproduct of slapshot.	254929574	1478805542875	1478805542965	NA	84
499259	5370734	The rest is a byproduct of slapshot.	The rest is a byproduct of slapshot.	254929662	1478805543392	1478805543491		8
499259	5370734	The rest is a byproduct of slapshot.	The rest is a byproduct of slapshot.	254929664	1478805543621	1478805543716	NA	72
499259	5370734	The rest is a byproduct of slapshot.	The rest is a byproduct of slapshot.	254929668	1478805543716	1478805543843	NA	69
499259	5370734	The rest is a byproduct of slapshot.	The rest is a byproduct of slapshot.	254929673	1478805543811	1478805543883	NA	32
499259	5370734	The rest is a byproduct of slapshot.	The rest is a byproduct of slapshot.	254929679	1478805543963	1478805544043	NA	82
499259	5370734	The rest is a byproduct of slapshot.	The rest is a byproduct of slapshot.	254929716	1478805544115	1478805544203	NA	69
499259	5370734	The rest is a byproduct of slapshot.	The rest is a byproduct of slapshot.	254929723	1478805544275	1478805544387	NA	83
499259	5370734	The rest is a byproduct of slapshot.	The rest is a byproduct of slapshot.	254929729	1478805544491	1478805544588	NA	84
499259	5370734	The rest is a byproduct of slapshot.	The rest is a byproduct of slapshot.	254929736	1478805544579	1478805544667	NA	32
499259	5370734	The rest is a byproduct of slapshot.	The rest is a byproduct of slapshot.	254929740	1478805544668	1478805544763	NA	73
499259	5370734	The rest is a byproduct of slapshot.	The rest is a byproduct of slapshot.	254929766	1478805544768	1478805544884	NA	83
499259	5370734	The rest is a byproduct of slapshot.	The rest is a byproduct of slapshot.	254929771	1478805544884	1478805544939	NA	32
499259	5370734	The rest is a byproduct of slapshot.	The rest is a byproduct of slapshot.	254929775	1478805544987	1478805545092	NA	65
499259	5370734	The rest is a byproduct of slapshot.	The rest is a byproduct of slapshot.	254929777	1478805545094	1478805545264	NA	32
499259	5370734	The rest is a byproduct of slapshot.	The rest is a byproduct of slapshot.	254929779	1478805545275	1478805545372	NA	86
499259	5370734	The rest is a byproduct of slapshot.	The rest is a byproduct of slapshot.	254929840	1478805545523	1478805545636	NA	89
499259	5370734	The rest is a byproduct of slapshot.	The rest is a byproduct of slapshot.	254929843	1478805545788	1478805545883		8
499259	5370734	The rest is a byproduct of slapshot.	The rest is a byproduct of slapshot.	254929847	1478805545963	1478805546059		8
499259	5370734	The rest is a byproduct of slapshot.	The rest is a byproduct of slapshot.	254929850	1478805546180	1478805546284	NA	66
499259	5370734	The rest is a byproduct of slapshot.	The rest is a byproduct of slapshot.	254929856	1478805546284	1478805546371	NA	89
499259	5370734	The rest is a byproduct of slapshot.	The rest is a byproduct of slapshot.	254929892	1478805546508	1478805546619	NA	80
499259	5370734	The rest is a byproduct of slapshot.	The rest is a byproduct of slapshot.	254929898	1478805546643	1478805546748	NA	82
499259	5370734	The rest is a byproduct of slapshot.	The rest is a byproduct of slapshot.	254929902	1478805546748	1478805546835	NA	79
499259	5370734	The rest is a byproduct of slapshot.	The rest is a byproduct of slapshot.	254929907	1478805546876	1478805547004	NA	68
499259	5370734	The rest is a byproduct of slapshot.	The rest is a byproduct of slapshot.	254929909	1478805547004	1478805547115	NA	85
499259	5370734	The rest is a byproduct of slapshot.	The rest is a byproduct of slapshot.	254929925	1478805547123	1478805547219	NA	67
499259	5370734	The rest is a byproduct of slapshot.	The rest is a byproduct of slapshot.	254929933	1478805547324	1478805547452	NA	84
499259	5370734	The rest is a byproduct of slapshot.	The rest is a byproduct of slapshot.	254929939	1478805547427	1478805547515	NA	32
499259	5370734	The rest is a byproduct of slapshot.	The rest is a byproduct of slapshot.	254929947	1478805547555	1478805547659	NA	79
499259	5370734	The rest is a byproduct of slapshot.	The rest is a byproduct of slapshot.	254929982	1478805547627	1478805547773	NA	70
499259	5370734	The rest is a byproduct of slapshot.	The rest is a byproduct of slapshot.	254929984	1478805547774	1478805547843	NA	32
499259	5370734	The rest is a byproduct of slapshot.	The rest is a byproduct of slapshot.	254929991	1478805547875	1478805548011	NA	83
499259	5370734	The rest is a byproduct of slapshot.	The rest is a byproduct of slapshot.	254929996	1478805547955	1478805548059	NA	76
499259	5370734	The rest is a byproduct of slapshot.	The rest is a byproduct of slapshot.	254930002	1478805548115	1478805548218	NA	65
499259	5370734	The rest is a byproduct of slapshot.	The rest is a byproduct of slapshot.	254930060	1478805548171	1478805548267	NA	80
499259	5370734	The rest is a byproduct of slapshot.	The rest is a byproduct of slapshot.	254930064	1478805548363	1478805548476	NA	83
499259	5370734	The rest is a byproduct of slapshot.	The rest is a byproduct of slapshot.	254930068	1478805548476	1478805548563	NA	72
499259	5370734	The rest is a byproduct of slapshot.	The rest is a byproduct of slapshot.	254930072	1478805548707	1478805548779	NA	79
499259	5370734	The rest is a byproduct of slapshot.	The rest is a byproduct of slapshot.	254930081	1478805548827	1478805548932	NA	84
499259	5370747	She has a web address.	She has a web address.	254930290	1478805551347	1478805551571	SHIFT	16
499259	5370747	She has a web address.	She has a web address.	254930286	1478805551379	1478805551460	NA	68
499259	5370747	She has a web address.	She has a web address.	254930296	1478805551850	1478805551924		8
499259	5370747	She has a web address.	She has a web address.	254930307	1478805552076	1478805552339	SHIFT	16
499259	5370747	She has a web address.	She has a web address.	254930302	1478805552212	1478805552315	NA	83
499259	5370747	She has a web address.	She has a web address.	254930309	1478805552563	1478805552667	NA	72
499259	5370747	She has a web address.	She has a web address.	254930315	1478805552668	1478805552772	NA	69
499259	5370747	She has a web address.	She has a web address.	254930325	1478805552763	1478805552859	NA	32
499259	5370747	She has a web address.	She has a web address.	254930327	1478805552883	1478805553003	NA	72
499259	5370747	She has a web address.	She has a web address.	254930330	1478805552971	1478805553059	NA	65
499259	5370747	She has a web address.	She has a web address.	254930336	1478805553147	1478805553275	NA	83
499259	5370747	She has a web address.	She has a web address.	254930340	1478805553243	1478805553332	NA	32
499259	5370747	She has a web address.	She has a web address.	254930346	1478805553347	1478805553459	NA	65
499259	5370747	She has a web address.	She has a web address.	254930410	1478805553435	1478805553531	NA	32
499259	5370747	She has a web address.	She has a web address.	254930414	1478805553563	1478805553643	NA	87
499259	5370747	She has a web address.	She has a web address.	254930415	1478805553715	1478805553835	NA	69
499259	5370747	She has a web address.	She has a web address.	254930417	1478805553803	1478805553907	NA	66
499259	5370747	She has a web address.	She has a web address.	254930419	1478805553948	1478805554051	NA	32
499259	5370747	She has a web address.	She has a web address.	254930421	1478805554271	1478805554371	NA	65
499259	5370747	She has a web address.	She has a web address.	254930499	1478805554476	1478805554755	NA	68
499259	5370747	She has a web address.	She has a web address.	254930502	1478805554997	1478805555123	NA	82
499259	5370747	She has a web address.	She has a web address.	254930506	1478805555219	1478805555323	NA	69
499259	5370747	She has a web address.	She has a web address.	254930511	1478805555507	1478805555595		8
499259	5370747	She has a web address.	She has a web address.	254930515	1478805555659	1478805555763		8
499259	5370747	She has a web address.	She has a web address.	254930565	1478805555739	1478805555835	NA	68
499259	5370747	She has a web address.	She has a web address.	254930569	1478805555931	1478805556027	NA	82
499259	5370747	She has a web address.	She has a web address.	254930574	1478805556107	1478805556195	NA	69
499259	5370747	She has a web address.	She has a web address.	254930579	1478805556299	1478805556347	NA	83
499259	5370747	She has a web address.	She has a web address.	254930584	1478805556419	1478805556515	NA	83
499259	5370758	Mixed signals from Washington had convinced China.	Mixed signals from Washington had convinced China.	254930737	1478805558587	1478805558755	SHIFT	16
499259	5370758	Mixed signals from Washington had convinced China.	Mixed signals from Washington had convinced China.	254930741	1478805558677	1478805558779	NA	77
499259	5370758	Mixed signals from Washington had convinced China.	Mixed signals from Washington had convinced China.	254930752	1478805558780	1478805558875	NA	73
499259	5370758	Mixed signals from Washington had convinced China.	Mixed signals from Washington had convinced China.	254930757	1478805558931	1478805559083	NA	88
499259	5370758	Mixed signals from Washington had convinced China.	Mixed signals from Washington had convinced China.	254930765	1478805559211	1478805559307	NA	69
499259	5370758	Mixed signals from Washington had convinced China.	Mixed signals from Washington had convinced China.	254930771	1478805559387	1478805559499	NA	68
499259	5370758	Mixed signals from Washington had convinced China.	Mixed signals from Washington had convinced China.	254930789	1478805559491	1478805559595	NA	32
499259	5370758	Mixed signals from Washington had convinced China.	Mixed signals from Washington had convinced China.	254930792	1478805559596	1478805559707	NA	83
499259	5370758	Mixed signals from Washington had convinced China.	Mixed signals from Washington had convinced China.	254930796	1478805559667	1478805559763	NA	73
499259	5370758	Mixed signals from Washington had convinced China.	Mixed signals from Washington had convinced China.	254930805	1478805559811	1478805559915	NA	71
499259	5370758	Mixed signals from Washington had convinced China.	Mixed signals from Washington had convinced China.	254930812	1478805559915	1478805560003	NA	78
499259	5370758	Mixed signals from Washington had convinced China.	Mixed signals from Washington had convinced China.	254930819	1478805560091	1478805560211	NA	65
499259	5370758	Mixed signals from Washington had convinced China.	Mixed signals from Washington had convinced China.	254930857	1478805560179	1478805560283	NA	76
499259	5370758	Mixed signals from Washington had convinced China.	Mixed signals from Washington had convinced China.	254930864	1478805560315	1478805560411	NA	83
499259	5370758	Mixed signals from Washington had convinced China.	Mixed signals from Washington had convinced China.	254930870	1478805560435	1478805560499	NA	32
499259	5370758	Mixed signals from Washington had convinced China.	Mixed signals from Washington had convinced China.	254930873	1478805560540	1478805560643	NA	70
499259	5370758	Mixed signals from Washington had convinced China.	Mixed signals from Washington had convinced China.	254930877	1478805560723	1478805560835	NA	82
499259	5370758	Mixed signals from Washington had convinced China.	Mixed signals from Washington had convinced China.	254930942	1478805560771	1478805560851	NA	79
499259	5370758	Mixed signals from Washington had convinced China.	Mixed signals from Washington had convinced China.	254930946	1478805560955	1478805561075	NA	77
499259	5370758	Mixed signals from Washington had convinced China.	Mixed signals from Washington had convinced China.	254930951	1478805561076	1478805561140	NA	32
499259	5370758	Mixed signals from Washington had convinced China.	Mixed signals from Washington had convinced China.	254930956	1478805561141	1478805561235	CAPS_LOCK	20
499259	5370758	Mixed signals from Washington had convinced China.	Mixed signals from Washington had convinced China.	254930960	1478805561331	1478805561435	NA	87
499259	5370758	Mixed signals from Washington had convinced China.	Mixed signals from Washington had convinced China.	254930964	1478805561547	1478805561635	CAPS_LOCK	20
499259	5370758	Mixed signals from Washington had convinced China.	Mixed signals from Washington had convinced China.	254930972	1478805561739	1478805561811	NA	65
499259	5370758	Mixed signals from Washington had convinced China.	Mixed signals from Washington had convinced China.	254930980	1478805561883	1478805561987	NA	83
499259	5370758	Mixed signals from Washington had convinced China.	Mixed signals from Washington had convinced China.	254931025	1478805561990	1478805562115	NA	72
499259	5370758	Mixed signals from Washington had convinced China.	Mixed signals from Washington had convinced China.	254931033	1478805562131	1478805562235	NA	73
499259	5370758	Mixed signals from Washington had convinced China.	Mixed signals from Washington had convinced China.	254931043	1478805562267	1478805562403	NA	78
499259	5370758	Mixed signals from Washington had convinced China.	Mixed signals from Washington had convinced China.	254931049	1478805562427	1478805562547	NA	71
499259	5370758	Mixed signals from Washington had convinced China.	Mixed signals from Washington had convinced China.	254931054	1478805562843	1478805562931	NA	84
499259	5370758	Mixed signals from Washington had convinced China.	Mixed signals from Washington had convinced China.	254931074	1478805562933	1478805562995	NA	79
499259	5370758	Mixed signals from Washington had convinced China.	Mixed signals from Washington had convinced China.	254931077	1478805563107	1478805563243	NA	78
499259	5370758	Mixed signals from Washington had convinced China.	Mixed signals from Washington had convinced China.	254931082	1478805563244	1478805563299	NA	32
499259	5370758	Mixed signals from Washington had convinced China.	Mixed signals from Washington had convinced China.	254931086	1478805563379	1478805563515	NA	72
499259	5370758	Mixed signals from Washington had convinced China.	Mixed signals from Washington had convinced China.	254931122	1478805563475	1478805563571	NA	65
499259	5370758	Mixed signals from Washington had convinced China.	Mixed signals from Washington had convinced China.	254931126	1478805563707	1478805563819	NA	68
499259	5370758	Mixed signals from Washington had convinced China.	Mixed signals from Washington had convinced China.	254931130	1478805563859	1478805563947	NA	32
499259	5370758	Mixed signals from Washington had convinced China.	Mixed signals from Washington had convinced China.	254931138	1478805563971	1478805564075	NA	67
499259	5370758	Mixed signals from Washington had convinced China.	Mixed signals from Washington had convinced China.	254931145	1478805564148	1478805564227	NA	79
499259	5370758	Mixed signals from Washington had convinced China.	Mixed signals from Washington had convinced China.	254931152	1478805564347	1478805564444	NA	78
499259	5370758	Mixed signals from Washington had convinced China.	Mixed signals from Washington had convinced China.	254931190	1478805564484	1478805564659	NA	86
499259	5370758	Mixed signals from Washington had convinced China.	Mixed signals from Washington had convinced China.	254931192	1478805564691	1478805564739	NA	73
499259	5370758	Mixed signals from Washington had convinced China.	Mixed signals from Washington had convinced China.	254931195	1478805564851	1478805564972	NA	78
499259	5370758	Mixed signals from Washington had convinced China.	Mixed signals from Washington had convinced China.	254931200	1478805564987	1478805565082	NA	67
499259	5370758	Mixed signals from Washington had convinced China.	Mixed signals from Washington had convinced China.	254931204	1478805565195	1478805565308	NA	69
499259	5370758	Mixed signals from Washington had convinced China.	Mixed signals from Washington had convinced China.	254931297	1478805565386	1478805565492	NA	68
499259	5370758	Mixed signals from Washington had convinced China.	Mixed signals from Washington had convinced China.	254931301	1478805565492	1478805565595	NA	32
499259	5370758	Mixed signals from Washington had convinced China.	Mixed signals from Washington had convinced China.	254931304	1478805565795	1478805565938	CAPS_LOCK	20
499259	5370758	Mixed signals from Washington had convinced China.	Mixed signals from Washington had convinced China.	254931309	1478805565915	1478805566003	NA	67
499259	5370758	Mixed signals from Washington had convinced China.	Mixed signals from Washington had convinced China.	254931312	1478805566035	1478805566155	CAPS_LOCK	20
499259	5370758	Mixed signals from Washington had convinced China.	Mixed signals from Washington had convinced China.	254931316	1478805566251	1478805566363	NA	72
499259	5370758	Mixed signals from Washington had convinced China.	Mixed signals from Washington had convinced China.	254931320	1478805566659	1478805566739	NA	73
499259	5370758	Mixed signals from Washington had convinced China.	Mixed signals from Washington had convinced China.	254931339	1478805566835	1478805566955	NA	78
499259	5370758	Mixed signals from Washington had convinced China.	Mixed signals from Washington had convinced China.	254931345	1478805566956	1478805567059	NA	65
499259	5370779	Please let me know if there is any way that I can help you.	Please let me know if there is any way that I can help you.	254931662	1478805570547	1478805570675	SHIFT	16
499259	5370779	Please let me know if there is any way that I can help you.	Please let me know if there is any way that I can help you.	254931667	1478805570595	1478805570691	NA	80
499259	5370779	Please let me know if there is any way that I can help you.	Please let me know if there is any way that I can help you.	254931672	1478805570779	1478805570891	NA	76
499259	5370779	Please let me know if there is any way that I can help you.	Please let me know if there is any way that I can help you.	254931675	1478805570891	1478805570995	NA	69
499259	5370779	Please let me know if there is any way that I can help you.	Please let me know if there is any way that I can help you.	254931684	1478805571090	1478805571171	NA	65
499259	5370779	Please let me know if there is any way that I can help you.	Please let me know if there is any way that I can help you.	254931689	1478805571251	1478805571307	NA	83
499259	5370779	Please let me know if there is any way that I can help you.	Please let me know if there is any way that I can help you.	254931717	1478805571379	1478805571491	NA	69
499259	5370779	Please let me know if there is any way that I can help you.	Please let me know if there is any way that I can help you.	254931722	1478805571492	1478805571587	NA	32
499259	5370779	Please let me know if there is any way that I can help you.	Please let me know if there is any way that I can help you.	254931728	1478805571587	1478805571699	NA	76
499259	5370779	Please let me know if there is any way that I can help you.	Please let me know if there is any way that I can help you.	254931735	1478805571675	1478805571747	NA	69
499259	5370779	Please let me know if there is any way that I can help you.	Please let me know if there is any way that I can help you.	254931739	1478805571843	1478805571930	NA	84
499259	5370779	Please let me know if there is any way that I can help you.	Please let me know if there is any way that I can help you.	254931758	1478805571915	1478805572019	NA	32
499259	5370779	Please let me know if there is any way that I can help you.	Please let me know if there is any way that I can help you.	254931761	1478805572058	1478805572163	NA	77
499259	5370779	Please let me know if there is any way that I can help you.	Please let me know if there is any way that I can help you.	254931765	1478805572106	1478805572227	NA	69
499259	5370779	Please let me know if there is any way that I can help you.	Please let me know if there is any way that I can help you.	254931769	1478805572228	1478805572347	NA	32
499259	5370779	Please let me know if there is any way that I can help you.	Please let me know if there is any way that I can help you.	254931773	1478805572347	1478805572525	NA	75
499259	5370779	Please let me know if there is any way that I can help you.	Please let me know if there is any way that I can help you.	254931813	1478805572443	1478805572554	NA	78
499259	5370779	Please let me know if there is any way that I can help you.	Please let me know if there is any way that I can help you.	254931815	1478805572595	1478805572688	NA	79
499259	5370779	Please let me know if there is any way that I can help you.	Please let me know if there is any way that I can help you.	254931817	1478805572667	1478805572795	NA	87
499259	5370779	Please let me know if there is any way that I can help you.	Please let me know if there is any way that I can help you.	254931820	1478805572771	1478805572866	NA	32
499259	5370779	Please let me know if there is any way that I can help you.	Please let me know if there is any way that I can help you.	254931825	1478805572930	1478805573026	NA	73
499259	5370779	Please let me know if there is any way that I can help you.	Please let me know if there is any way that I can help you.	254931832	1478805573027	1478805573131	NA	70
499259	5370779	Please let me know if there is any way that I can help you.	Please let me know if there is any way that I can help you.	254931852	1478805573133	1478805573203	NA	32
499259	5370779	Please let me know if there is any way that I can help you.	Please let me know if there is any way that I can help you.	254931856	1478805573243	1478805573339	NA	84
499259	5370779	Please let me know if there is any way that I can help you.	Please let me know if there is any way that I can help you.	254931858	1478805573299	1478805573402	NA	72
499259	5370779	Please let me know if there is any way that I can help you.	Please let me know if there is any way that I can help you.	254931861	1478805573475	1478805573531	NA	69
499259	5370779	Please let me know if there is any way that I can help you.	Please let me know if there is any way that I can help you.	254931864	1478805573595	1478805573691	NA	82
499259	5370779	Please let me know if there is any way that I can help you.	Please let me know if there is any way that I can help you.	254931875	1478805573762	1478805573883	NA	69
499259	5370779	Please let me know if there is any way that I can help you.	Please let me know if there is any way that I can help you.	254931880	1478805573891	1478805573995	NA	32
499259	5370779	Please let me know if there is any way that I can help you.	Please let me know if there is any way that I can help you.	254931884	1478805573995	1478805574106	NA	73
499259	5370779	Please let me know if there is any way that I can help you.	Please let me know if there is any way that I can help you.	254931887	1478805574091	1478805574203	NA	83
499259	5370779	Please let me know if there is any way that I can help you.	Please let me know if there is any way that I can help you.	254931890	1478805574203	1478805574282	NA	32
499259	5370779	Please let me know if there is any way that I can help you.	Please let me know if there is any way that I can help you.	254931913	1478805574323	1478805574435	NA	65
499259	5370779	Please let me know if there is any way that I can help you.	Please let me know if there is any way that I can help you.	254931917	1478805574395	1478805574483	NA	78
499259	5370779	Please let me know if there is any way that I can help you.	Please let me know if there is any way that I can help you.	254931920	1478805574595	1478805574723	NA	89
499259	5370779	Please let me know if there is any way that I can help you.	Please let me know if there is any way that I can help you.	254931924	1478805574699	1478805574811	NA	32
499259	5370779	Please let me know if there is any way that I can help you.	Please let me know if there is any way that I can help you.	254931926	1478805574812	1478805574883	NA	87
499259	5370779	Please let me know if there is any way that I can help you.	Please let me know if there is any way that I can help you.	254931932	1478805574963	1478805575106	NA	65
499259	5370779	Please let me know if there is any way that I can help you.	Please let me know if there is any way that I can help you.	254931933	1478805575059	1478805575186	NA	89
499259	5370779	Please let me know if there is any way that I can help you.	Please let me know if there is any way that I can help you.	254931935	1478805575138	1478805575258	NA	32
499259	5370779	Please let me know if there is any way that I can help you.	Please let me know if there is any way that I can help you.	254931937	1478805575314	1478805575451	NA	84
499259	5370779	Please let me know if there is any way that I can help you.	Please let me know if there is any way that I can help you.	254931939	1478805575452	1478805575531	NA	72
499259	5370779	Please let me know if there is any way that I can help you.	Please let me know if there is any way that I can help you.	254931969	1478805575611	1478805575755	NA	65
499259	5370779	Please let me know if there is any way that I can help you.	Please let me know if there is any way that I can help you.	254931973	1478805575723	1478805575827	NA	84
499259	5370779	Please let me know if there is any way that I can help you.	Please let me know if there is any way that I can help you.	254931977	1478805575803	1478805575899	NA	32
499259	5370779	Please let me know if there is any way that I can help you.	Please let me know if there is any way that I can help you.	254931983	1478805575900	1478805576172	SHIFT	16
499259	5370779	Please let me know if there is any way that I can help you.	Please let me know if there is any way that I can help you.	254932040	1478805576020	1478805576174	NA	73
499259	5370779	Please let me know if there is any way that I can help you.	Please let me know if there is any way that I can help you.	254932044	1478805576115	1478805576227	NA	32
499259	5370779	Please let me know if there is any way that I can help you.	Please let me know if there is any way that I can help you.	254932048	1478805576251	1478805576362	NA	67
499259	5370779	Please let me know if there is any way that I can help you.	Please let me know if there is any way that I can help you.	254932053	1478805576490	1478805576836	NA	65
499259	5370779	Please let me know if there is any way that I can help you.	Please let me know if there is any way that I can help you.	254932058	1478805576546	1478805576837	NA	78
499259	5370779	Please let me know if there is any way that I can help you.	Please let me know if there is any way that I can help you.	254932065	1478805576836	1478805576838	NA	32
499259	5370779	Please let me know if there is any way that I can help you.	Please let me know if there is any way that I can help you.	254932068	1478805576838	1478805576842	NA	72
499259	5370779	Please let me know if there is any way that I can help you.	Please let me know if there is any way that I can help you.	254932096	1478805576915	1478805577053	NA	69
499259	5370779	Please let me know if there is any way that I can help you.	Please let me know if there is any way that I can help you.	254932099	1478805577053	1478805577114	NA	76
499259	5370779	Please let me know if there is any way that I can help you.	Please let me know if there is any way that I can help you.	254932106	1478805577211	1478805577339	NA	80
499259	5370779	Please let me know if there is any way that I can help you.	Please let me know if there is any way that I can help you.	254932114	1478805577307	1478805577411	NA	32
499259	5370779	Please let me know if there is any way that I can help you.	Please let me know if there is any way that I can help you.	254932128	1478805577395	1478805577515	NA	89
499259	5370779	Please let me know if there is any way that I can help you.	Please let me know if there is any way that I can help you.	254932134	1478805577515	1478805577628	NA	79
499259	5370779	Please let me know if there is any way that I can help you.	Please let me know if there is any way that I can help you.	254932141	1478805577628	1478805577739	NA	85
499259	5370799	Have not added Westport on yet.	Have not added Westport on yet.	254932326	1478805579699	1478805579867	SHIFT	16
499259	5370799	Have not added Westport on yet.	Have not added Westport on yet.	254932329	1478805579771	1478805579867	NA	72
499259	5370799	Have not added Westport on yet.	Have not added Westport on yet.	254932331	1478805579963	1478805580083	NA	65
499259	5370799	Have not added Westport on yet.	Have not added Westport on yet.	254932333	1478805580059	1478805580138	NA	86
499259	5370799	Have not added Westport on yet.	Have not added Westport on yet.	254932338	1478805580194	1478805580306	NA	69
499259	5370799	Have not added Westport on yet.	Have not added Westport on yet.	254932341	1478805580307	1478805580427	NA	32
499259	5370799	Have not added Westport on yet.	Have not added Westport on yet.	254932374	1478805580450	1478805580563	NA	78
499259	5370799	Have not added Westport on yet.	Have not added Westport on yet.	254932378	1478805580643	1478805580731	NA	79
499259	5370799	Have not added Westport on yet.	Have not added Westport on yet.	254932380	1478805580731	1478805580826	NA	84
499259	5370799	Have not added Westport on yet.	Have not added Westport on yet.	254932382	1478805580923	1478805581003	NA	32
499259	5370799	Have not added Westport on yet.	Have not added Westport on yet.	254932388	1478805581003	1478805581115	NA	65
499259	5370799	Have not added Westport on yet.	Have not added Westport on yet.	254932430	1478805581227	1478805581290	NA	68
499259	5370799	Have not added Westport on yet.	Have not added Westport on yet.	254932433	1478805581371	1478805581451	NA	68
499259	5370799	Have not added Westport on yet.	Have not added Westport on yet.	254932436	1478805581538	1478805581602	NA	69
499259	5370799	Have not added Westport on yet.	Have not added Westport on yet.	254932438	1478805581690	1478805581803	NA	68
499259	5370799	Have not added Westport on yet.	Have not added Westport on yet.	254932439	1478805581851	1478805581923	NA	32
499259	5370799	Have not added Westport on yet.	Have not added Westport on yet.	254932513	1478805582003	1478805582099	CAPS_LOCK	20
499259	5370799	Have not added Westport on yet.	Have not added Westport on yet.	254932519	1478805582210	1478805582307	NA	87
499259	5370799	Have not added Westport on yet.	Have not added Westport on yet.	254932524	1478805582434	1478805582507	NA	69
499259	5370799	Have not added Westport on yet.	Have not added Westport on yet.	254932533	1478805582699	1478805582803	CAPS_LOCK	20
499259	5370799	Have not added Westport on yet.	Have not added Westport on yet.	254932540	1478805582804	1478805582891		8
499259	5370799	Have not added Westport on yet.	Have not added Westport on yet.	254932546	1478805582963	1478805583043	NA	82
499259	5370799	Have not added Westport on yet.	Have not added Westport on yet.	254932638	1478805583458	1478805583522		8
499259	5370799	Have not added Westport on yet.	Have not added Westport on yet.	254932641	1478805583723	1478805583811		8
499259	5370799	Have not added Westport on yet.	Have not added Westport on yet.	254932644	1478805583835	1478805583930	NA	69
499259	5370799	Have not added Westport on yet.	Have not added Westport on yet.	254932646	1478805584043	1478805584138	NA	84
499259	5370799	Have not added Westport on yet.	Have not added Westport on yet.	254932648	1478805584515	1478805584619		8
499259	5370799	Have not added Westport on yet.	Have not added Westport on yet.	254932673	1478805584623	1478805584714	NA	83
499259	5370799	Have not added Westport on yet.	Have not added Westport on yet.	254932677	1478805584843	1478805584930	NA	84
499259	5370799	Have not added Westport on yet.	Have not added Westport on yet.	254932681	1478805584955	1478805585042	NA	80
499259	5370799	Have not added Westport on yet.	Have not added Westport on yet.	254932683	1478805585131	1478805585234	NA	79
499259	5370799	Have not added Westport on yet.	Have not added Westport on yet.	254932688	1478805585235	1478805585298	NA	82
499259	5370799	Have not added Westport on yet.	Have not added Westport on yet.	254932710	1478805585378	1478805585483	NA	84
499259	5370799	Have not added Westport on yet.	Have not added Westport on yet.	254932712	1478805585483	1478805585547	NA	32
499259	5370799	Have not added Westport on yet.	Have not added Westport on yet.	254932715	1478805585635	1478805585730	NA	79
499259	5370799	Have not added Westport on yet.	Have not added Westport on yet.	254932721	1478805585827	1478805585955	NA	78
499259	5370799	Have not added Westport on yet.	Have not added Westport on yet.	254932771	1478805585931	1478805586003	NA	32
499259	5370799	Have not added Westport on yet.	Have not added Westport on yet.	254932774	1478805586075	1478805586195	NA	89
499259	5370799	Have not added Westport on yet.	Have not added Westport on yet.	254932777	1478805586162	1478805586251	NA	69
499259	5370799	Have not added Westport on yet.	Have not added Westport on yet.	254932782	1478805586346	1478805586467	NA	84
499259	5370813	I don't have the distraction of taking care of Mimi.	I don't have the distraction of taking care of Mimi.	254932914	1478805588483	1478805588586	NA	73
499259	5370813	I don't have the distraction of taking care of Mimi.	I don't have the distraction of taking care of Mimi.	254932916	1478805588760	1478805588867		8
499259	5370813	I don't have the distraction of taking care of Mimi.	I don't have the distraction of taking care of Mimi.	254932919	1478805588915	1478805589123	SHIFT	16
499259	5370813	I don't have the distraction of taking care of Mimi.	I don't have the distraction of taking care of Mimi.	254932921	1478805588994	1478805589123	NA	73
499259	5370813	I don't have the distraction of taking care of Mimi.	I don't have the distraction of taking care of Mimi.	254932923	1478805589123	1478805589195	NA	32
499259	5370813	I don't have the distraction of taking care of Mimi.	I don't have the distraction of taking care of Mimi.	254932925	1478805589267	1478805589402	NA	83
499259	5370813	I don't have the distraction of taking care of Mimi.	I don't have the distraction of taking care of Mimi.	254932957	1478805589346	1478805589435	NA	79
499259	5370813	I don't have the distraction of taking care of Mimi.	I don't have the distraction of taking care of Mimi.	254932958	1478805589602	1478805589698		8
499259	5370813	I don't have the distraction of taking care of Mimi.	I don't have the distraction of taking care of Mimi.	254932960	1478805589810	1478805589914		8
499259	5370813	I don't have the distraction of taking care of Mimi.	I don't have the distraction of taking care of Mimi.	254932964	1478805589938	1478805590051	NA	68
499259	5370813	I don't have the distraction of taking care of Mimi.	I don't have the distraction of taking care of Mimi.	254932968	1478805590035	1478805590122	NA	79
499259	5370813	I don't have the distraction of taking care of Mimi.	I don't have the distraction of taking care of Mimi.	254932973	1478805590251	1478805590338	NA	78
499259	5370813	I don't have the distraction of taking care of Mimi.	I don't have the distraction of taking care of Mimi.	254933005	1478805590507	1478805590611	NA	222
499259	5370813	I don't have the distraction of taking care of Mimi.	I don't have the distraction of taking care of Mimi.	254933006	1478805590611	1478805590706	NA	84
499259	5370813	I don't have the distraction of taking care of Mimi.	I don't have the distraction of taking care of Mimi.	254933008	1478805590747	1478805590842	NA	32
499259	5370813	I don't have the distraction of taking care of Mimi.	I don't have the distraction of taking care of Mimi.	254933009	1478805590923	1478805591026	NA	72
499259	5370813	I don't have the distraction of taking care of Mimi.	I don't have the distraction of taking care of Mimi.	254933031	1478805591187	1478805591299	NA	86
499259	5370813	I don't have the distraction of taking care of Mimi.	I don't have the distraction of taking care of Mimi.	254933032	1478805591379	1478805591474	NA	69
499259	5370813	I don't have the distraction of taking care of Mimi.	I don't have the distraction of taking care of Mimi.	254933033	1478805591515	1478805591595	NA	32
499259	5370813	I don't have the distraction of taking care of Mimi.	I don't have the distraction of taking care of Mimi.	254933034	1478805591634	1478805591755	NA	84
499259	5370813	I don't have the distraction of taking care of Mimi.	I don't have the distraction of taking care of Mimi.	254933035	1478805591755	1478805591835	NA	72
499259	5370813	I don't have the distraction of taking care of Mimi.	I don't have the distraction of taking care of Mimi.	254933059	1478805591866	1478805591979	NA	69
499259	5370813	I don't have the distraction of taking care of Mimi.	I don't have the distraction of taking care of Mimi.	254933064	1478805591946	1478805592026	NA	32
499259	5370813	I don't have the distraction of taking care of Mimi.	I don't have the distraction of taking care of Mimi.	254933071	1478805592075	1478805592186	NA	68
499259	5370813	I don't have the distraction of taking care of Mimi.	I don't have the distraction of taking care of Mimi.	254933078	1478805592131	1478805592242	NA	73
499259	5370813	I don't have the distraction of taking care of Mimi.	I don't have the distraction of taking care of Mimi.	254933084	1478805592266	1478805592354	NA	83
499259	5370813	I don't have the distraction of taking care of Mimi.	I don't have the distraction of taking care of Mimi.	254933124	1478805592466	1478805592547	NA	84
499259	5370813	I don't have the distraction of taking care of Mimi.	I don't have the distraction of taking care of Mimi.	254933127	1478805592643	1478805592714	NA	82
499259	5370813	I don't have the distraction of taking care of Mimi.	I don't have the distraction of taking care of Mimi.	254933130	1478805592675	1478805592730	NA	69
499259	5370813	I don't have the distraction of taking care of Mimi.	I don't have the distraction of taking care of Mimi.	254933133	1478805592931	1478805593011	NA	65
499259	5370813	I don't have the distraction of taking care of Mimi.	I don't have the distraction of taking care of Mimi.	254933135	1478805593155	1478805593226		8
499259	5370813	I don't have the distraction of taking care of Mimi.	I don't have the distraction of taking care of Mimi.	254933153	1478805593307	1478805593418		8
499259	5370813	I don't have the distraction of taking care of Mimi.	I don't have the distraction of taking care of Mimi.	254933155	1478805593354	1478805593459	NA	65
499259	5370813	I don't have the distraction of taking care of Mimi.	I don't have the distraction of taking care of Mimi.	254933158	1478805593619	1478805593658	NA	67
499259	5370813	I don't have the distraction of taking care of Mimi.	I don't have the distraction of taking care of Mimi.	254933162	1478805593787	1478805593899	NA	84
499259	5370813	I don't have the distraction of taking care of Mimi.	I don't have the distraction of taking care of Mimi.	254933167	1478805593899	1478805593946	NA	73
499259	5370813	I don't have the distraction of taking care of Mimi.	I don't have the distraction of taking care of Mimi.	254933202	1478805594034	1478805594098	NA	79
499259	5370813	I don't have the distraction of taking care of Mimi.	I don't have the distraction of taking care of Mimi.	254933204	1478805594218	1478805594323	NA	78
499259	5370813	I don't have the distraction of taking care of Mimi.	I don't have the distraction of taking care of Mimi.	254933208	1478805594338	1478805594434	NA	32
499259	5370813	I don't have the distraction of taking care of Mimi.	I don't have the distraction of taking care of Mimi.	254933210	1478805594474	1478805594578	NA	79
499259	5370813	I don't have the distraction of taking care of Mimi.	I don't have the distraction of taking care of Mimi.	254933252	1478805594555	1478805594651	NA	70
499259	5370813	I don't have the distraction of taking care of Mimi.	I don't have the distraction of taking care of Mimi.	254933258	1478805594651	1478805594731	NA	32
499259	5370813	I don't have the distraction of taking care of Mimi.	I don't have the distraction of taking care of Mimi.	254933267	1478805594780	1478805594866	NA	84
499259	5370813	I don't have the distraction of taking care of Mimi.	I don't have the distraction of taking care of Mimi.	254933276	1478805595026	1478805595146	NA	65
499259	5370813	I don't have the distraction of taking care of Mimi.	I don't have the distraction of taking care of Mimi.	254933280	1478805595123	1478805595202	NA	75
499259	5370813	I don't have the distraction of taking care of Mimi.	I don't have the distraction of taking care of Mimi.	254933286	1478805595290	1478805595354	NA	73
499259	5370813	I don't have the distraction of taking care of Mimi.	I don't have the distraction of taking care of Mimi.	254933319	1478805595467	1478805595562	NA	78
499259	5370813	I don't have the distraction of taking care of Mimi.	I don't have the distraction of taking care of Mimi.	254933324	1478805595539	1478805595634	NA	71
499259	5370813	I don't have the distraction of taking care of Mimi.	I don't have the distraction of taking care of Mimi.	254933330	1478805595691	1478805595875	NA	32
499259	5370813	I don't have the distraction of taking care of Mimi.	I don't have the distraction of taking care of Mimi.	254933337	1478805596067	1478805596194	NA	67
499259	5370813	I don't have the distraction of taking care of Mimi.	I don't have the distraction of taking care of Mimi.	254933341	1478805596307	1478805596402	NA	65
499259	5370813	I don't have the distraction of taking care of Mimi.	I don't have the distraction of taking care of Mimi.	254933364	1478805596530	1478805596626	NA	82
499259	5370813	I don't have the distraction of taking care of Mimi.	I don't have the distraction of taking care of Mimi.	254933369	1478805596706	1478805596819	NA	69
499259	5370813	I don't have the distraction of taking care of Mimi.	I don't have the distraction of taking care of Mimi.	254933375	1478805596819	1478805596882	NA	32
499259	5370813	I don't have the distraction of taking care of Mimi.	I don't have the distraction of taking care of Mimi.	254933381	1478805596907	1478805597010	NA	79
499259	5370813	I don't have the distraction of taking care of Mimi.	I don't have the distraction of taking care of Mimi.	254933431	1478805596963	1478805597099	NA	70
499259	5370813	I don't have the distraction of taking care of Mimi.	I don't have the distraction of taking care of Mimi.	254933434	1478805597099	1478805597195	NA	32
499259	5370813	I don't have the distraction of taking care of Mimi.	I don't have the distraction of taking care of Mimi.	254933438	1478805597283	1478805597467	SHIFT	16
499259	5370813	I don't have the distraction of taking care of Mimi.	I don't have the distraction of taking care of Mimi.	254933443	1478805597363	1478805597467	NA	77
499259	5370813	I don't have the distraction of taking care of Mimi.	I don't have the distraction of taking care of Mimi.	254933447	1478805597531	1478805597619	NA	73
499259	5370813	I don't have the distraction of taking care of Mimi.	I don't have the distraction of taking care of Mimi.	254933451	1478805597771	1478805597930	NA	77
499259	5370813	I don't have the distraction of taking care of Mimi.	I don't have the distraction of taking care of Mimi.	254933456	1478805597890	1478805598002	NA	73
499259	5370828	But I hope to see you at Kari's house.	But I hope to see you at Kari's house.	254933731	1478805602139	1478805602339	SHIFT	16
499259	5370828	But I hope to see you at Kari's house.	But I hope to see you at Kari's house.	254933735	1478805602242	1478805602362	NA	66
499259	5370828	But I hope to see you at Kari's house.	But I hope to see you at Kari's house.	254933739	1478805602386	1478805602458	NA	85
499259	5370828	But I hope to see you at Kari's house.	But I hope to see you at Kari's house.	254933743	1478805602539	1478805602634	NA	84
499259	5370828	But I hope to see you at Kari's house.	But I hope to see you at Kari's house.	254933746	1478805602562	1478805602706	NA	32
499259	5370828	But I hope to see you at Kari's house.	But I hope to see you at Kari's house.	254933750	1478805602850	1478805602995	SHIFT	16
499259	5370828	But I hope to see you at Kari's house.	But I hope to see you at Kari's house.	254933767	1478805602930	1478805603034	NA	73
499259	5370828	But I hope to see you at Kari's house.	But I hope to see you at Kari's house.	254933775	1478805602998	1478805603090	NA	32
499259	5370828	But I hope to see you at Kari's house.	But I hope to see you at Kari's house.	254933783	1478805603146	1478805603258	NA	72
499259	5370828	But I hope to see you at Kari's house.	But I hope to see you at Kari's house.	254933789	1478805603379	1478805603482	NA	79
499259	5370828	But I hope to see you at Kari's house.	But I hope to see you at Kari's house.	254933798	1478805603555	1478805603666	NA	80
499259	5370828	But I hope to see you at Kari's house.	But I hope to see you at Kari's house.	254933825	1478805603642	1478805603731	NA	69
499259	5370828	But I hope to see you at Kari's house.	But I hope to see you at Kari's house.	254933827	1478805603731	1478805603818	NA	32
499259	5370828	But I hope to see you at Kari's house.	But I hope to see you at Kari's house.	254933829	1478805603850	1478805603963	NA	84
499259	5370828	But I hope to see you at Kari's house.	But I hope to see you at Kari's house.	254933834	1478805603907	1478805604050	NA	79
499259	5370828	But I hope to see you at Kari's house.	But I hope to see you at Kari's house.	254933839	1478805603987	1478805604074	NA	32
499259	5370828	But I hope to see you at Kari's house.	But I hope to see you at Kari's house.	254933846	1478805604107	1478805604219	NA	83
499259	5370828	But I hope to see you at Kari's house.	But I hope to see you at Kari's house.	254933887	1478805604307	1478805604362	NA	69
499259	5370828	But I hope to see you at Kari's house.	But I hope to see you at Kari's house.	254933892	1478805604427	1478805604530	NA	69
499259	5370828	But I hope to see you at Kari's house.	But I hope to see you at Kari's house.	254933896	1478805604475	1478805604578	NA	32
499259	5370828	But I hope to see you at Kari's house.	But I hope to see you at Kari's house.	254933900	1478805604626	1478805604754	NA	89
499259	5370828	But I hope to see you at Kari's house.	But I hope to see you at Kari's house.	254933906	1478805604882	1478805604979	NA	79
499259	5370828	But I hope to see you at Kari's house.	But I hope to see you at Kari's house.	254933969	1478805605074	1478805605210	NA	85
499259	5370828	But I hope to see you at Kari's house.	But I hope to see you at Kari's house.	254933972	1478805605195	1478805605306	NA	32
499259	5370828	But I hope to see you at Kari's house.	But I hope to see you at Kari's house.	254933976	1478805605330	1478805605434	NA	65
499259	5370828	But I hope to see you at Kari's house.	But I hope to see you at Kari's house.	254933979	1478805605571	1478805605658	NA	84
499259	5370828	But I hope to see you at Kari's house.	But I hope to see you at Kari's house.	254933981	1478805605690	1478805605795	NA	32
499259	5370828	But I hope to see you at Kari's house.	But I hope to see you at Kari's house.	254934049	1478805605930	1478805606043	SHIFT	16
499259	5370828	But I hope to see you at Kari's house.	But I hope to see you at Kari's house.	254934053	1478805605987	1478805606074	NA	75
499259	5370828	But I hope to see you at Kari's house.	But I hope to see you at Kari's house.	254934058	1478805606155	1478805606258	NA	65
499259	5370828	But I hope to see you at Kari's house.	But I hope to see you at Kari's house.	254934063	1478805606379	1478805606466	NA	82
499259	5370828	But I hope to see you at Kari's house.	But I hope to see you at Kari's house.	254934068	1478805606514	1478805606611	NA	73
499259	5370828	But I hope to see you at Kari's house.	But I hope to see you at Kari's house.	254934074	1478805606779	1478805606899	NA	222
499259	5370828	But I hope to see you at Kari's house.	But I hope to see you at Kari's house.	254934116	1478805606902	1478805607002	NA	83
499259	5370828	But I hope to see you at Kari's house.	But I hope to see you at Kari's house.	254934119	1478805607082	1478805607196	NA	32
499259	5370828	But I hope to see you at Kari's house.	But I hope to see you at Kari's house.	254934125	1478805607306	1478805607402	NA	72
499259	5370828	But I hope to see you at Kari's house.	But I hope to see you at Kari's house.	254934129	1478805607466	1478805607546	NA	79
499259	5370828	But I hope to see you at Kari's house.	But I hope to see you at Kari's house.	254934134	1478805607586	1478805607706	NA	85
499259	5370828	But I hope to see you at Kari's house.	But I hope to see you at Kari's house.	254934145	1478805607674	1478805607762	NA	83
499259	5370828	But I hope to see you at Kari's house.	But I hope to see you at Kari's house.	254934150	1478805607834	1478805607946	NA	69
