PARTICIPANT_ID	TEST_SECTION_ID	SENTENCE	USER_INPUT	KEYSTROKE_ID	PRESS_TIME	RELEASE_TIME	LETTER	KEYCODE
503583	5418480	A bad thing has been turned into a good thing and.	A bad thing has been turned into a good thing and.	257193619	1478861002147	1478861002370	SHIFT	16
503583	5418480	A bad thing has been turned into a good thing and.	A bad thing has been turned into a good thing and.	257193620	1478861002338	1478861002450	A	65
503583	5418480	A bad thing has been turned into a good thing and.	A bad thing has been turned into a good thing and.	257193621	1478861002474	1478861002618	 	32
503583	5418480	A bad thing has been turned into a good thing and.	A bad thing has been turned into a good thing and.	257193622	1478861002602	1478861002690	b	66
503583	5418480	A bad thing has been turned into a good thing and.	A bad thing has been turned into a good thing and.	257193623	1478861002666	1478861002769	a	65
503583	5418480	A bad thing has been turned into a good thing and.	A bad thing has been turned into a good thing and.	257193624	1478861002722	1478861002818	d	68
503583	5418480	A bad thing has been turned into a good thing and.	A bad thing has been turned into a good thing and.	257193625	1478861002802	1478861002898	 	32
503583	5418480	A bad thing has been turned into a good thing and.	A bad thing has been turned into a good thing and.	257193626	1478861002945	1478861003034	t	84
503583	5418480	A bad thing has been turned into a good thing and.	A bad thing has been turned into a good thing and.	257193627	1478861003010	1478861003049	h	72
503583	5418480	A bad thing has been turned into a good thing and.	A bad thing has been turned into a good thing and.	257193628	1478861003138	1478861003209	i	73
503583	5418480	A bad thing has been turned into a good thing and.	A bad thing has been turned into a good thing and.	257193629	1478861003290	1478861003362	n	78
503583	5418480	A bad thing has been turned into a good thing and.	A bad thing has been turned into a good thing and.	257193634	1478861003338	1478861003418	g	71
503583	5418480	A bad thing has been turned into a good thing and.	A bad thing has been turned into a good thing and.	257193636	1478861003385	1478861003481	 	32
503583	5418480	A bad thing has been turned into a good thing and.	A bad thing has been turned into a good thing and.	257193640	1478861003442	1478861003530	h	72
503583	5418480	A bad thing has been turned into a good thing and.	A bad thing has been turned into a good thing and.	257193642	1478861003497	1478861003634	a	65
503583	5418480	A bad thing has been turned into a good thing and.	A bad thing has been turned into a good thing and.	257193645	1478861003570	1478861003665	s	83
503583	5418480	A bad thing has been turned into a good thing and.	A bad thing has been turned into a good thing and.	257193652	1478861003634	1478861003729	 	32
503583	5418480	A bad thing has been turned into a good thing and.	A bad thing has been turned into a good thing and.	257193653	1478861003674	1478861003769	b	66
503583	5418480	A bad thing has been turned into a good thing and.	A bad thing has been turned into a good thing and.	257193654	1478861003770	1478861003849	e	69
503583	5418480	A bad thing has been turned into a good thing and.	A bad thing has been turned into a good thing and.	257193655	1478861003930	1478861004025	e	69
503583	5418480	A bad thing has been turned into a good thing and.	A bad thing has been turned into a good thing and.	257193656	1478861003986	1478861004081	n	78
503583	5418480	A bad thing has been turned into a good thing and.	A bad thing has been turned into a good thing and.	257193658	1478861004097	1478861004201	 	32
503583	5418480	A bad thing has been turned into a good thing and.	A bad thing has been turned into a good thing and.	257193677	1478861004162	1478861004249	t	84
503583	5418480	A bad thing has been turned into a good thing and.	A bad thing has been turned into a good thing and.	257193679	1478861004250	1478861004338	u	85
503583	5418480	A bad thing has been turned into a good thing and.	A bad thing has been turned into a good thing and.	257193682	1478861004338	1478861004441	r	82
503583	5418480	A bad thing has been turned into a good thing and.	A bad thing has been turned into a good thing and.	257193684	1478861004442	1478861004530	n	78
503583	5418480	A bad thing has been turned into a good thing and.	A bad thing has been turned into a good thing and.	257193685	1478861004498	1478861004577	e	69
503583	5418480	A bad thing has been turned into a good thing and.	A bad thing has been turned into a good thing and.	257193687	1478861004634	1478861004730	d	68
503583	5418480	A bad thing has been turned into a good thing and.	A bad thing has been turned into a good thing and.	257193690	1478861004731	1478861004865	 	32
503583	5418480	A bad thing has been turned into a good thing and.	A bad thing has been turned into a good thing and.	257193691	1478861004762	1478861004866	i	73
503583	5418480	A bad thing has been turned into a good thing and.	A bad thing has been turned into a good thing and.	257193692	1478861004929	1478861005009	n	78
503583	5418480	A bad thing has been turned into a good thing and.	A bad thing has been turned into a good thing and.	257193693	1478861005010	1478861005106	t	84
503583	5418480	A bad thing has been turned into a good thing and.	A bad thing has been turned into a good thing and.	257193728	1478861005098	1478861005170	o	79
503583	5418480	A bad thing has been turned into a good thing and.	A bad thing has been turned into a good thing and.	257193730	1478861005170	1478861005273	 	32
503583	5418480	A bad thing has been turned into a good thing and.	A bad thing has been turned into a good thing and.	257193733	1478861005209	1478861005321	a	65
503583	5418480	A bad thing has been turned into a good thing and.	A bad thing has been turned into a good thing and.	257193736	1478861005353	1478861005433	 	32
503583	5418480	A bad thing has been turned into a good thing and.	A bad thing has been turned into a good thing and.	257193738	1478861005393	1478861005505	g	71
503583	5418480	A bad thing has been turned into a good thing and.	A bad thing has been turned into a good thing and.	257193740	1478861005506	1478861005569	o	79
503583	5418480	A bad thing has been turned into a good thing and.	A bad thing has been turned into a good thing and.	257193720	1478861005633	1478861005698	o	79
503583	5418480	A bad thing has been turned into a good thing and.	A bad thing has been turned into a good thing and.	257193721	1478861005698	1478861005761	d	68
503583	5418480	A bad thing has been turned into a good thing and.	A bad thing has been turned into a good thing and.	257193722	1478861005745	1478861005873	 	32
503583	5418480	A bad thing has been turned into a good thing and.	A bad thing has been turned into a good thing and.	257193723	1478861005874	1478861005945	t	84
503583	5418480	A bad thing has been turned into a good thing and.	A bad thing has been turned into a good thing and.	257193737	1478861005897	1478861005977	h	72
503583	5418480	A bad thing has been turned into a good thing and.	A bad thing has been turned into a good thing and.	257193739	1478861006049	1478861006113	i	73
503583	5418480	A bad thing has been turned into a good thing and.	A bad thing has been turned into a good thing and.	257193741	1478861006186	1478861006273	n	78
503583	5418480	A bad thing has been turned into a good thing and.	A bad thing has been turned into a good thing and.	257193743	1478861006241	1478861006305	g	71
503583	5418480	A bad thing has been turned into a good thing and.	A bad thing has been turned into a good thing and.	257193745	1478861006305	1478861006393	 	32
503583	5418480	A bad thing has been turned into a good thing and.	A bad thing has been turned into a good thing and.	257193749	1478861006345	1478861006481	a	65
503583	5418480	A bad thing has been turned into a good thing and.	A bad thing has been turned into a good thing and.	257193750	1478861006433	1478861006505	n	78
503583	5418480	A bad thing has been turned into a good thing and.	A bad thing has been turned into a good thing and.	257193752	1478861006521	1478861006641	d	68
503583	5418480	A bad thing has been turned into a good thing and.	A bad thing has been turned into a good thing and.	257193755	1478861006642	1478861006713	.	190
503583	5418483	He was replaced by Kent Graham.	He was replaced by Kent Graham.	257193832	1478861009378	1478861009466	CAPS_LOCK	20
503583	5418483	He was replaced by Kent Graham.	He was replaced by Kent Graham.	257193833	1478861009467	1478861009562	H	72
503583	5418483	He was replaced by Kent Graham.	He was replaced by Kent Graham.	257193834	1478861009563	1478861009634	CAPS_LOCK	20
503583	5418483	He was replaced by Kent Graham.	He was replaced by Kent Graham.	257193836	1478861009610	1478861009707	e	69
503583	5418483	He was replaced by Kent Graham.	He was replaced by Kent Graham.	257193838	1478861009658	1478861009802	 	32
503583	5418483	He was replaced by Kent Graham.	He was replaced by Kent Graham.	257193840	1478861009791	1478861009882	w	87
503583	5418483	He was replaced by Kent Graham.	He was replaced by Kent Graham.	257193842	1478861009882	1478861010034	a	65
503583	5418483	He was replaced by Kent Graham.	He was replaced by Kent Graham.	257193848	1478861009986	1478861010074	s	83
503583	5418483	He was replaced by Kent Graham.	He was replaced by Kent Graham.	257193851	1478861010036	1478861010138	 	32
503583	5418483	He was replaced by Kent Graham.	He was replaced by Kent Graham.	257193855	1478861010138	1478861010250	r	82
503583	5418483	He was replaced by Kent Graham.	He was replaced by Kent Graham.	257193858	1478861010202	1478861010314	e	69
503583	5418483	He was replaced by Kent Graham.	He was replaced by Kent Graham.	257193862	1478861010250	1478861010314	p	80
503583	5418483	He was replaced by Kent Graham.	He was replaced by Kent Graham.	257193865	1478861010410	1478861010482	l	76
503583	5418483	He was replaced by Kent Graham.	He was replaced by Kent Graham.	257193875	1478861010483	1478861010602	a	65
503583	5418483	He was replaced by Kent Graham.	He was replaced by Kent Graham.	257193877	1478861010546	1478861010634	c	67
503583	5418483	He was replaced by Kent Graham.	He was replaced by Kent Graham.	257193879	1478861010722	1478861010778	e	69
503583	5418483	He was replaced by Kent Graham.	He was replaced by Kent Graham.	257193883	1478861010866	1478861010986	d	68
503583	5418483	He was replaced by Kent Graham.	He was replaced by Kent Graham.	257193894	1478861010914	1478861011042	 	32
503583	5418483	He was replaced by Kent Graham.	He was replaced by Kent Graham.	257193896	1478861010987	1478861011050	b	66
503583	5418483	He was replaced by Kent Graham.	He was replaced by Kent Graham.	257193897	1478861011130	1478861011202	y	89
503583	5418483	He was replaced by Kent Graham.	He was replaced by Kent Graham.	257193898	1478861011202	1478861011290	 	32
503583	5418483	He was replaced by Kent Graham.	He was replaced by Kent Graham.	257193899	1478861011242	1478861011330	CAPS_LOCK	20
503583	5418483	He was replaced by Kent Graham.	He was replaced by Kent Graham.	257193900	1478861011330	1478861011402	K	75
503583	5418483	He was replaced by Kent Graham.	He was replaced by Kent Graham.	257193901	1478861011402	1478861011514	CAPS_LOCK	20
503583	5418483	He was replaced by Kent Graham.	He was replaced by Kent Graham.	257193918	1478861011490	1478861011562	e	82
503583	5418483	He was replaced by Kent Graham.	He was replaced by Kent Graham.	257193920	1478861011515	1478861011594	n	78
503583	5418483	He was replaced by Kent Graham.	He was replaced by Kent Graham.	257193922	1478861011914	1478861011994	BKSP	8
503583	5418483	He was replaced by Kent Graham.	He was replaced by Kent Graham.	257193924	1478861012066	1478861012122	BKSP	8
503583	5418483	He was replaced by Kent Graham.	He was replaced by Kent Graham.	257193926	1478861012198	1478861012266	BKSP	8
503583	5418483	He was replaced by Kent Graham.	He was replaced by Kent Graham.	257193928	1478861012266	1478861012370	e	69
503583	5418483	He was replaced by Kent Graham.	He was replaced by Kent Graham.	257193931	1478861012386	1478861012458	n	78
503583	5418483	He was replaced by Kent Graham.	He was replaced by Kent Graham.	257193934	1478861012458	1478861012522	t	84
503583	5418483	He was replaced by Kent Graham.	He was replaced by Kent Graham.	257193937	1478861012522	1478861012618	 	32
503583	5418483	He was replaced by Kent Graham.	He was replaced by Kent Graham.	257193946	1478861012578	1478861012690	CAPS_LOCK	20
503583	5418483	He was replaced by Kent Graham.	He was replaced by Kent Graham.	257193947	1478861012730	1478861012810	G	71
503583	5418483	He was replaced by Kent Graham.	He was replaced by Kent Graham.	257193948	1478861012810	1478861012890	CAPS_LOCK	20
503583	5418483	He was replaced by Kent Graham.	He was replaced by Kent Graham.	257193949	1478861012890	1478861013002	r	82
503583	5418483	He was replaced by Kent Graham.	He was replaced by Kent Graham.	257193951	1478861012978	1478861013090	a	65
503583	5418483	He was replaced by Kent Graham.	He was replaced by Kent Graham.	257193953	1478861013058	1478861013122	h	72
503583	5418483	He was replaced by Kent Graham.	He was replaced by Kent Graham.	257193955	1478861013178	1478861013298	a	65
503583	5418483	He was replaced by Kent Graham.	He was replaced by Kent Graham.	257193965	1478861013234	1478861013299	m	77
503583	5418483	He was replaced by Kent Graham.	He was replaced by Kent Graham.	257193966	1478861013402	1478861013490	.	190
503583	5418483	He was replaced by Kent Graham.	He was replaced by Kent Graham.	257193967	1478861013666	1478861013786	 	32
503583	5418483	He was replaced by Kent Graham.	He was replaced by Kent Graham.	257193968	1478861013986	1478861014066	BKSP	8
503583	5418487	Here's your Gas Daily pricing.	Here's your Gas Daily pricing.	257194018	1478861016434	1478861016538	CAPS_LOCK	20
503583	5418487	Here's your Gas Daily pricing.	Here's your Gas Daily pricing.	257194019	1478861016538	1478861016634	H	72
503583	5418487	Here's your Gas Daily pricing.	Here's your Gas Daily pricing.	257194020	1478861016602	1478861016690	CAPS_LOCK	20
503583	5418487	Here's your Gas Daily pricing.	Here's your Gas Daily pricing.	257194021	1478861016778	1478861016866	e	69
503583	5418487	Here's your Gas Daily pricing.	Here's your Gas Daily pricing.	257194022	1478861016834	1478861016954	r	82
503583	5418487	Here's your Gas Daily pricing.	Here's your Gas Daily pricing.	257194023	1478861016930	1478861017010	e	69
503583	5418487	Here's your Gas Daily pricing.	Here's your Gas Daily pricing.	257194024	1478861017050	1478861017146	'	222
503583	5418487	Here's your Gas Daily pricing.	Here's your Gas Daily pricing.	257194035	1478861017122	1478861017226	s	83
503583	5418487	Here's your Gas Daily pricing.	Here's your Gas Daily pricing.	257194036	1478861017194	1478861017290	 	32
503583	5418487	Here's your Gas Daily pricing.	Here's your Gas Daily pricing.	257194037	1478861017346	1478861017434	y	89
503583	5418487	Here's your Gas Daily pricing.	Here's your Gas Daily pricing.	257194038	1478861017394	1478861017490	o	79
503583	5418487	Here's your Gas Daily pricing.	Here's your Gas Daily pricing.	257194039	1478861017586	1478861017658	u	85
503583	5418487	Here's your Gas Daily pricing.	Here's your Gas Daily pricing.	257194040	1478861017658	1478861017698	 	82
503583	5418487	Here's your Gas Daily pricing.	Here's your Gas Daily pricing.	257194057	1478861017762	1478861017866	CAPS_LOCK	20
503583	5418487	Here's your Gas Daily pricing.	Here's your Gas Daily pricing.	257194058	1478861017866	1478861017953	G	71
503583	5418487	Here's your Gas Daily pricing.	Here's your Gas Daily pricing.	257194059	1478861017930	1478861018002	CAPS_LOCK	20
503583	5418487	Here's your Gas Daily pricing.	Here's your Gas Daily pricing.	257194060	1478861018098	1478861018218	a	65
503583	5418487	Here's your Gas Daily pricing.	Here's your Gas Daily pricing.	257194061	1478861018162	1478861018274	s	83
503583	5418487	Here's your Gas Daily pricing.	Here's your Gas Daily pricing.	257194062	1478861018274	1478861018386	 	32
503583	5418487	Here's your Gas Daily pricing.	Here's your Gas Daily pricing.	257194063	1478861018434	1478861018554	CAPS_LOCK	20
503583	5418487	Here's your Gas Daily pricing.	Here's your Gas Daily pricing.	257194070	1478861018530	1478861018625	D	68
503583	5418487	Here's your Gas Daily pricing.	Here's your Gas Daily pricing.	257194071	1478861018594	1478861018698	CAPS_LOCK	20
503583	5418487	Here's your Gas Daily pricing.	Here's your Gas Daily pricing.	257194072	1478861018810	1478861018946	a	65
503583	5418487	Here's your Gas Daily pricing.	Here's your Gas Daily pricing.	257194074	1478861018946	1478861019026	i	73
503583	5418487	Here's your Gas Daily pricing.	Here's your Gas Daily pricing.	257194076	1478861019098	1478861019194	l	76
503583	5418487	Here's your Gas Daily pricing.	Here's your Gas Daily pricing.	257194078	1478861019194	1478861019258	y	89
503583	5418487	Here's your Gas Daily pricing.	Here's your Gas Daily pricing.	257194080	1478861019258	1478861019362	 	32
503583	5418487	Here's your Gas Daily pricing.	Here's your Gas Daily pricing.	257194104	1478861019363	1478861019466	CAPS_LOCK	20
503583	5418487	Here's your Gas Daily pricing.	Here's your Gas Daily pricing.	257194106	1478861019466	1478861019546	P	80
503583	5418487	Here's your Gas Daily pricing.	Here's your Gas Daily pricing.	257194108	1478861019642	1478861019762	CAPS_LOCK	20
503583	5418487	Here's your Gas Daily pricing.	Here's your Gas Daily pricing.	257194110	1478861019762	1478861019850	BKSP	8
503583	5418487	Here's your Gas Daily pricing.	Here's your Gas Daily pricing.	257194112	1478861019986	1478861020082	p	80
503583	5418487	Here's your Gas Daily pricing.	Here's your Gas Daily pricing.	257194114	1478861020082	1478861020178	r	82
503583	5418487	Here's your Gas Daily pricing.	Here's your Gas Daily pricing.	257194115	1478861020178	1478861020250	i	73
503583	5418487	Here's your Gas Daily pricing.	Here's your Gas Daily pricing.	257194116	1478861020274	1478861020402	c	67
503583	5418487	Here's your Gas Daily pricing.	Here's your Gas Daily pricing.	257194117	1478861020330	1478861020403	i	73
503583	5418487	Here's your Gas Daily pricing.	Here's your Gas Daily pricing.	257194119	1478861020482	1478861020537	n	78
503583	5418487	Here's your Gas Daily pricing.	Here's your Gas Daily pricing.	257194122	1478861020553	1478861020650	g	71
503583	5418487	Here's your Gas Daily pricing.	Here's your Gas Daily pricing.	257194125	1478861020650	1478861020738	.	190
503583	5418490	I would love to help you guys with this imbalance.	I would love to help you guys with this imbalance.	257194195	1478861022937	1478861023017	CAPS_LOCK	20
503583	5418490	I would love to help you guys with this imbalance.	I would love to help you guys with this imbalance.	257194196	1478861023041	1478861023145	I	73
503583	5418490	I would love to help you guys with this imbalance.	I would love to help you guys with this imbalance.	257194197	1478861023105	1478861023201	CAPS_LOCK	20
503583	5418490	I would love to help you guys with this imbalance.	I would love to help you guys with this imbalance.	257194198	1478861023202	1478861023297	 	32
503583	5418490	I would love to help you guys with this imbalance.	I would love to help you guys with this imbalance.	257194200	1478861023273	1478861023417	w	87
503583	5418490	I would love to help you guys with this imbalance.	I would love to help you guys with this imbalance.	257194199	1478861023321	1478861023393	o	79
503583	5418490	I would love to help you guys with this imbalance.	I would love to help you guys with this imbalance.	257194201	1478861023473	1478861023529	u	85
503583	5418490	I would love to help you guys with this imbalance.	I would love to help you guys with this imbalance.	257194204	1478861023617	1478861023705	l	76
503583	5418490	I would love to help you guys with this imbalance.	I would love to help you guys with this imbalance.	257194207	1478861023657	1478861023746	d	68
503583	5418490	I would love to help you guys with this imbalance.	I would love to help you guys with this imbalance.	257194210	1478861023706	1478861023809	 	32
503583	5418490	I would love to help you guys with this imbalance.	I would love to help you guys with this imbalance.	257194214	1478861023769	1478861023849	l	76
503583	5418490	I would love to help you guys with this imbalance.	I would love to help you guys with this imbalance.	257194216	1478861023913	1478861023985	v	79
503583	5418490	I would love to help you guys with this imbalance.	I would love to help you guys with this imbalance.	257194231	1478861023986	1478861024081	e	69
503583	5418490	I would love to help you guys with this imbalance.	I would love to help you guys with this imbalance.	257194233	1478861024081	1478861024161	 	32
503583	5418490	I would love to help you guys with this imbalance.	I would love to help you guys with this imbalance.	257194234	1478861024137	1478861024241	t	84
503583	5418490	I would love to help you guys with this imbalance.	I would love to help you guys with this imbalance.	257194236	1478861024185	1478861024273	o	79
503583	5418490	I would love to help you guys with this imbalance.	I would love to help you guys with this imbalance.	257194237	1478861024297	1478861024425	 	32
503583	5418490	I would love to help you guys with this imbalance.	I would love to help you guys with this imbalance.	257194243	1478861024369	1478861024426	h	72
503583	5418490	I would love to help you guys with this imbalance.	I would love to help you guys with this imbalance.	257194245	1478861024426	1478861024561	e	69
503583	5418490	I would love to help you guys with this imbalance.	I would love to help you guys with this imbalance.	257194247	1478861024529	1478861024593	l	76
503583	5418490	I would love to help you guys with this imbalance.	I would love to help you guys with this imbalance.	257194250	1478861024665	1478861024745	p	80
503583	5418490	I would love to help you guys with this imbalance.	I would love to help you guys with this imbalance.	257194254	1478861024746	1478861024833	 	32
503583	5418490	I would love to help you guys with this imbalance.	I would love to help you guys with this imbalance.	257194256	1478861024834	1478861024905	y	89
503583	5418490	I would love to help you guys with this imbalance.	I would love to help you guys with this imbalance.	257194260	1478861024873	1478861024953	o	79
503583	5418490	I would love to help you guys with this imbalance.	I would love to help you guys with this imbalance.	257194261	1478861025041	1478861025121	u	85
503583	5418490	I would love to help you guys with this imbalance.	I would love to help you guys with this imbalance.	257194262	1478861025122	1478861025201	 	32
503583	5418490	I would love to help you guys with this imbalance.	I would love to help you guys with this imbalance.	257194263	1478861025177	1478861025257	g	71
503583	5418490	I would love to help you guys with this imbalance.	I would love to help you guys with this imbalance.	257194264	1478861025241	1478861025313	u	85
503583	5418490	I would love to help you guys with this imbalance.	I would love to help you guys with this imbalance.	257194265	1478861025393	1478861025473	y	89
503583	5418490	I would love to help you guys with this imbalance.	I would love to help you guys with this imbalance.	257194267	1478861025433	1478861025513	s	83
503583	5418490	I would love to help you guys with this imbalance.	I would love to help you guys with this imbalance.	257194269	1478861025497	1478861025609	 	32
503583	5418490	I would love to help you guys with this imbalance.	I would love to help you guys with this imbalance.	257194271	1478861025610	1478861025706	w	87
503583	5418490	I would love to help you guys with this imbalance.	I would love to help you guys with this imbalance.	257194273	1478861025665	1478861025754	i	73
503583	5418490	I would love to help you guys with this imbalance.	I would love to help you guys with this imbalance.	257194275	1478861025755	1478861025850	t	84
503583	5418490	I would love to help you guys with this imbalance.	I would love to help you guys with this imbalance.	257194277	1478861025850	1478861025922	h	72
503583	5418490	I would love to help you guys with this imbalance.	I would love to help you guys with this imbalance.	257194289	1478861026178	1478861026314	 	32
503583	5418490	I would love to help you guys with this imbalance.	I would love to help you guys with this imbalance.	257194290	1478861026314	1478861026434	t	84
503583	5418490	I would love to help you guys with this imbalance.	I would love to help you guys with this imbalance.	257194291	1478861026394	1478861026474	h	72
503583	5418490	I would love to help you guys with this imbalance.	I would love to help you guys with this imbalance.	257194292	1478861026546	1478861026642	i	73
503583	5418490	I would love to help you guys with this imbalance.	I would love to help you guys with this imbalance.	257194297	1478861026618	1478861026722	s	83
503583	5418490	I would love to help you guys with this imbalance.	I would love to help you guys with this imbalance.	257194298	1478861026658	1478861026778	 	32
503583	5418490	I would love to help you guys with this imbalance.	I would love to help you guys with this imbalance.	257194299	1478861026754	1478861026810	i	73
503583	5418490	I would love to help you guys with this imbalance.	I would love to help you guys with this imbalance.	257194301	1478861026906	1478861026970	m	77
503583	5418490	I would love to help you guys with this imbalance.	I would love to help you guys with this imbalance.	257194303	1478861027106	1478861027186	b	66
503583	5418490	I would love to help you guys with this imbalance.	I would love to help you guys with this imbalance.	257194305	1478861027226	1478861027346	a	65
503583	5418490	I would love to help you guys with this imbalance.	I would love to help you guys with this imbalance.	257194310	1478861027347	1478861027434	l	76
503583	5418490	I would love to help you guys with this imbalance.	I would love to help you guys with this imbalance.	257194311	1478861027418	1478861027554	a	65
503583	5418490	I would love to help you guys with this imbalance.	I would love to help you guys with this imbalance.	257194313	1478861027530	1478861027610	n	78
503583	5418490	I would love to help you guys with this imbalance.	I would love to help you guys with this imbalance.	257194315	1478861027794	1478861027930	c	67
503583	5418490	I would love to help you guys with this imbalance.	I would love to help you guys with this imbalance.	257194320	1478861027906	1478861028026	e	69
503583	5418490	I would love to help you guys with this imbalance.	I would love to help you guys with this imbalance.	257194321	1478861027978	1478861028074	.	190
503583	5418497	Let me know if you see any problems with this.	Let me know if you see any problems with this.	257194367	1478861029890	1478861030042	CAPS_LOCK	20
503583	5418497	Let me know if you see any problems with this.	Let me know if you see any problems with this.	257194369	1478861030346	1478861030458	L	76
503583	5418497	Let me know if you see any problems with this.	Let me know if you see any problems with this.	257194370	1478861030378	1478861030498	CAPS_LOCK	20
503583	5418497	Let me know if you see any problems with this.	Let me know if you see any problems with this.	257194371	1478861030458	1478861030570	e	69
503583	5418497	Let me know if you see any problems with this.	Let me know if you see any problems with this.	257194372	1478861030658	1478861030754	t	84
503583	5418497	Let me know if you see any problems with this.	Let me know if you see any problems with this.	257194373	1478861030730	1478861030826	 	32
503583	5418497	Let me know if you see any problems with this.	Let me know if you see any problems with this.	257194381	1478861030778	1478861030874	m	77
503583	5418497	Let me know if you see any problems with this.	Let me know if you see any problems with this.	257194383	1478861030858	1478861030962	e	69
503583	5418497	Let me know if you see any problems with this.	Let me know if you see any problems with this.	257194386	1478861030938	1478861031026	 	32
503583	5418497	Let me know if you see any problems with this.	Let me know if you see any problems with this.	257194389	1478861030986	1478861031066	k	75
503583	5418497	Let me know if you see any problems with this.	Let me know if you see any problems with this.	257194392	1478861031146	1478861031210	n	78
503583	5418497	Let me know if you see any problems with this.	Let me know if you see any problems with this.	257194394	1478861031290	1478861031354	o	79
503583	5418497	Let me know if you see any problems with this.	Let me know if you see any problems with this.	257194397	1478861031314	1478861031434	w	87
503583	5418497	Let me know if you see any problems with this.	Let me know if you see any problems with this.	257194398	1478861031394	1478861031514	 	32
503583	5418497	Let me know if you see any problems with this.	Let me know if you see any problems with this.	257194399	1478861031458	1478861031538	i	73
503583	5418497	Let me know if you see any problems with this.	Let me know if you see any problems with this.	257194400	1478861031538	1478861031658	f	70
503583	5418497	Let me know if you see any problems with this.	Let me know if you see any problems with this.	257194401	1478861031618	1478861031722	 	32
503583	5418497	Let me know if you see any problems with this.	Let me know if you see any problems with this.	257194412	1478861031690	1478861031755	y	89
503583	5418497	Let me know if you see any problems with this.	Let me know if you see any problems with this.	257194413	1478861031874	1478861031938	o	79
503583	5418497	Let me know if you see any problems with this.	Let me know if you see any problems with this.	257194414	1478861032018	1478861032098	u	85
503583	5418497	Let me know if you see any problems with this.	Let me know if you see any problems with this.	257194415	1478861032098	1478861032202	 	32
503583	5418497	Let me know if you see any problems with this.	Let me know if you see any problems with this.	257194416	1478861032138	1478861032238	s	83
503583	5418497	Let me know if you see any problems with this.	Let me know if you see any problems with this.	257194424	1478861032202	1478861032298	e	69
503583	5418497	Let me know if you see any problems with this.	Let me know if you see any problems with this.	257194426	1478861032370	1478861032466	e	69
503583	5418497	Let me know if you see any problems with this.	Let me know if you see any problems with this.	257194427	1478861032426	1478861032562	 	32
503583	5418497	Let me know if you see any problems with this.	Let me know if you see any problems with this.	257194428	1478861032490	1478861032642	a	65
503583	5418497	Let me know if you see any problems with this.	Let me know if you see any problems with this.	257194429	1478861032578	1478861032642	n	78
503583	5418497	Let me know if you see any problems with this.	Let me know if you see any problems with this.	257194430	1478861032722	1478861032794	y	89
503583	5418497	Let me know if you see any problems with this.	Let me know if you see any problems with this.	257194434	1478861032795	1478861032898	 	32
503583	5418497	Let me know if you see any problems with this.	Let me know if you see any problems with this.	257194436	1478861033018	1478861033122	r	82
503583	5418497	Let me know if you see any problems with this.	Let me know if you see any problems with this.	257194438	1478861033290	1478861033386	BKSP	8
503583	5418497	Let me know if you see any problems with this.	Let me know if you see any problems with this.	257194440	1478861033442	1478861033538	p	80
503583	5418497	Let me know if you see any problems with this.	Let me know if you see any problems with this.	257194443	1478861033514	1478861033594	r	82
503583	5418497	Let me know if you see any problems with this.	Let me know if you see any problems with this.	257194445	1478861033610	1478861033698	o	79
503583	5418497	Let me know if you see any problems with this.	Let me know if you see any problems with this.	257194452	1478861033699	1478861033770	b	66
503583	5418497	Let me know if you see any problems with this.	Let me know if you see any problems with this.	257194454	1478861033802	1478861033890	l	76
503583	5418497	Let me know if you see any problems with this.	Let me know if you see any problems with this.	257194456	1478861033890	1478861033986	e	69
503583	5418497	Let me know if you see any problems with this.	Let me know if you see any problems with this.	257194458	1478861034018	1478861034130	m	77
503583	5418497	Let me know if you see any problems with this.	Let me know if you see any problems with this.	257194460	1478861034210	1478861034306	s	83
503583	5418497	Let me know if you see any problems with this.	Let me know if you see any problems with this.	257194467	1478861034307	1478861034450	 	32
503583	5418497	Let me know if you see any problems with this.	Let me know if you see any problems with this.	257194469	1478861034418	1478861034530	w	87
503583	5418497	Let me know if you see any problems with this.	Let me know if you see any problems with this.	257194471	1478861034530	1478861034610	i	73
503583	5418497	Let me know if you see any problems with this.	Let me know if you see any problems with this.	257194472	1478861034610	1478861034714	t	84
503583	5418497	Let me know if you see any problems with this.	Let me know if you see any problems with this.	257194473	1478861034698	1478861034778	h	72
503583	5418497	Let me know if you see any problems with this.	Let me know if you see any problems with this.	257194474	1478861034778	1478861034882	 	32
503583	5418497	Let me know if you see any problems with this.	Let me know if you see any problems with this.	257194475	1478861034818	1478861034914	t	84
503583	5418497	Let me know if you see any problems with this.	Let me know if you see any problems with this.	257194476	1478861034866	1478861034937	h	72
503583	5418497	Let me know if you see any problems with this.	Let me know if you see any problems with this.	257194477	1478861035010	1478861035090	i	73
503583	5418497	Let me know if you see any problems with this.	Let me know if you see any problems with this.	257194478	1478861035090	1478861035178	s	83
503583	5418497	Let me know if you see any problems with this.	Let me know if you see any problems with this.	257194479	1478861035179	1478861035250	.	190
503583	5418501	The move was a further twist in the long-running dispute.	The move was a further twist in the long-running dispute.	257194505	1478861037226	1478861037354	CAPS_LOCK	20
503583	5418501	The move was a further twist in the long-running dispute.	The move was a further twist in the long-running dispute.	257194507	1478861037506	1478861037578	T	84
503583	5418501	The move was a further twist in the long-running dispute.	The move was a further twist in the long-running dispute.	257194510	1478861037618	1478861037754	CAPS_LOCK	20
503583	5418501	The move was a further twist in the long-running dispute.	The move was a further twist in the long-running dispute.	257194513	1478861037706	1478861037802	h	72
503583	5418501	The move was a further twist in the long-running dispute.	The move was a further twist in the long-running dispute.	257194517	1478861037802	1478861037922	e	69
503583	5418501	The move was a further twist in the long-running dispute.	The move was a further twist in the long-running dispute.	257194521	1478861037874	1478861037986	 	32
503583	5418501	The move was a further twist in the long-running dispute.	The move was a further twist in the long-running dispute.	257194526	1478861037922	1478861037986	m	77
503583	5418501	The move was a further twist in the long-running dispute.	The move was a further twist in the long-running dispute.	257194528	1478861038058	1478861038138	o	79
503583	5418501	The move was a further twist in the long-running dispute.	The move was a further twist in the long-running dispute.	257194530	1478861038098	1478861038177	v	86
503583	5418501	The move was a further twist in the long-running dispute.	The move was a further twist in the long-running dispute.	257194532	1478861038306	1478861038417	e	69
503583	5418501	The move was a further twist in the long-running dispute.	The move was a further twist in the long-running dispute.	257194534	1478861038402	1478861038514	 	32
503583	5418501	The move was a further twist in the long-running dispute.	The move was a further twist in the long-running dispute.	257194538	1478861038490	1478861038594	w	87
503583	5418501	The move was a further twist in the long-running dispute.	The move was a further twist in the long-running dispute.	257194541	1478861038594	1478861038754	a	65
503583	5418501	The move was a further twist in the long-running dispute.	The move was a further twist in the long-running dispute.	257194542	1478861038690	1478861038785	s	83
503583	5418501	The move was a further twist in the long-running dispute.	The move was a further twist in the long-running dispute.	257194543	1478861038754	1478861038873	 	32
503583	5418501	The move was a further twist in the long-running dispute.	The move was a further twist in the long-running dispute.	257194544	1478861038858	1478861038978	a	65
503583	5418501	The move was a further twist in the long-running dispute.	The move was a further twist in the long-running dispute.	257194545	1478861038978	1478861039049	 	32
503583	5418501	The move was a further twist in the long-running dispute.	The move was a further twist in the long-running dispute.	257194550	1478861039001	1478861039089	f	70
503583	5418501	The move was a further twist in the long-running dispute.	The move was a further twist in the long-running dispute.	257194552	1478861039138	1478861039226	u	85
503583	5418501	The move was a further twist in the long-running dispute.	The move was a further twist in the long-running dispute.	257194554	1478861039195	1478861039282	r	82
503583	5418501	The move was a further twist in the long-running dispute.	The move was a further twist in the long-running dispute.	257194555	1478861039355	1478861039458	t	84
503583	5418501	The move was a further twist in the long-running dispute.	The move was a further twist in the long-running dispute.	257194556	1478861039459	1478861039562	h	72
503583	5418501	The move was a further twist in the long-running dispute.	The move was a further twist in the long-running dispute.	257194557	1478861039563	1478861039666	e	69
503583	5418501	The move was a further twist in the long-running dispute.	The move was a further twist in the long-running dispute.	257194564	1478861039587	1478861039723	r	82
503583	5418501	The move was a further twist in the long-running dispute.	The move was a further twist in the long-running dispute.	257194566	1478861039723	1478861039858	 	32
503583	5418501	The move was a further twist in the long-running dispute.	The move was a further twist in the long-running dispute.	257194568	1478861039842	1478861039914	t	84
503583	5418501	The move was a further twist in the long-running dispute.	The move was a further twist in the long-running dispute.	257194570	1478861039962	1478861040058	w	87
503583	5418501	The move was a further twist in the long-running dispute.	The move was a further twist in the long-running dispute.	257194572	1478861040059	1478861040162	i	73
503583	5418501	The move was a further twist in the long-running dispute.	The move was a further twist in the long-running dispute.	257194574	1478861040163	1478861040242	s	83
503583	5418501	The move was a further twist in the long-running dispute.	The move was a further twist in the long-running dispute.	257194582	1478861040306	1478861040402	t	84
503583	5418501	The move was a further twist in the long-running dispute.	The move was a further twist in the long-running dispute.	257194584	1478861040403	1478861040490	i	32
503583	5418501	The move was a further twist in the long-running dispute.	The move was a further twist in the long-running dispute.	257194586	1478861040578	1478861040650	n	78
503583	5418501	The move was a further twist in the long-running dispute.	The move was a further twist in the long-running dispute.	257194588	1478861040722	1478861040898	 	32
503583	5418501	The move was a further twist in the long-running dispute.	The move was a further twist in the long-running dispute.	257194595	1478861040882	1478861040978	t	84
503583	5418501	The move was a further twist in the long-running dispute.	The move was a further twist in the long-running dispute.	257194596	1478861040954	1478861041066	h	72
503583	5418501	The move was a further twist in the long-running dispute.	The move was a further twist in the long-running dispute.	257194597	1478861041067	1478861041170	e	69
503583	5418501	The move was a further twist in the long-running dispute.	The move was a further twist in the long-running dispute.	257194598	1478861041138	1478861041258	 	32
503583	5418501	The move was a further twist in the long-running dispute.	The move was a further twist in the long-running dispute.	257194599	1478861041218	1478861041282	l	76
503583	5418501	The move was a further twist in the long-running dispute.	The move was a further twist in the long-running dispute.	257194600	1478861041354	1478861041426	o	79
503583	5418501	The move was a further twist in the long-running dispute.	The move was a further twist in the long-running dispute.	257194617	1478861041522	1478861041586	n	78
503583	5418501	The move was a further twist in the long-running dispute.	The move was a further twist in the long-running dispute.	257194619	1478861041610	1478861041682	g	71
503583	5418501	The move was a further twist in the long-running dispute.	The move was a further twist in the long-running dispute.	257194621	1478861041698	1478861041779	-	189
503583	5418501	The move was a further twist in the long-running dispute.	The move was a further twist in the long-running dispute.	257194623	1478861041818	1478861041946	r	82
503583	5418501	The move was a further twist in the long-running dispute.	The move was a further twist in the long-running dispute.	257194636	1478861041922	1478861041986	u	85
503583	5418501	The move was a further twist in the long-running dispute.	The move was a further twist in the long-running dispute.	257194638	1478861042090	1478861042154	n	78
503583	5418501	The move was a further twist in the long-running dispute.	The move was a further twist in the long-running dispute.	257194639	1478861042210	1478861042266	n	78
503583	5418501	The move was a further twist in the long-running dispute.	The move was a further twist in the long-running dispute.	257194641	1478861042338	1478861042402	i	73
503583	5418501	The move was a further twist in the long-running dispute.	The move was a further twist in the long-running dispute.	257194643	1478861042482	1478861042562	n	78
503583	5418501	The move was a further twist in the long-running dispute.	The move was a further twist in the long-running dispute.	257194669	1478861042546	1478861042618	g	71
503583	5418501	The move was a further twist in the long-running dispute.	The move was a further twist in the long-running dispute.	257194672	1478861042619	1478861042722	 	32
503583	5418501	The move was a further twist in the long-running dispute.	The move was a further twist in the long-running dispute.	257194675	1478861042723	1478861042826	d	68
503583	5418501	The move was a further twist in the long-running dispute.	The move was a further twist in the long-running dispute.	257194678	1478861042810	1478861042890	i	73
503583	5418501	The move was a further twist in the long-running dispute.	The move was a further twist in the long-running dispute.	257194680	1478861042891	1478861042962	s	83
503583	5418501	The move was a further twist in the long-running dispute.	The move was a further twist in the long-running dispute.	257194681	1478861043179	1478861043267	p	80
503583	5418501	The move was a further twist in the long-running dispute.	The move was a further twist in the long-running dispute.	257194670	1478861043363	1478861043427	u	85
503583	5418501	The move was a further twist in the long-running dispute.	The move was a further twist in the long-running dispute.	257194673	1478861043403	1478861043475	t	84
503583	5418501	The move was a further twist in the long-running dispute.	The move was a further twist in the long-running dispute.	257194676	1478861043467	1478861043531	e	69
503583	5418501	The move was a further twist in the long-running dispute.	The move was a further twist in the long-running dispute.	257194679	1478861043603	1478861043683	.	190
503583	5418507	No employment claims for gas or power.	No employment claims for gas or power.	257194728	1478861047307	1478861047395	N	78
503583	5418507	No employment claims for gas or power.	No employment claims for gas or power.	257194729	1478861047395	1478861047499	CAPS_LOCK	20
503583	5418507	No employment claims for gas or power.	No employment claims for gas or power.	257194730	1478861047651	1478861047779	 	32
503583	5418507	No employment claims for gas or power.	No employment claims for gas or power.	257194731	1478861047955	1478861048051	BKSP	8
503583	5418507	No employment claims for gas or power.	No employment claims for gas or power.	257194733	1478861048123	1478861048211	o	79
503583	5418507	No employment claims for gas or power.	No employment claims for gas or power.	257194735	1478861048227	1478861048339	 	32
503583	5418507	No employment claims for gas or power.	No employment claims for gas or power.	257194759	1478861048331	1478861048475	e	69
503583	5418507	No employment claims for gas or power.	No employment claims for gas or power.	257194760	1478861048427	1478861048499	m	77
503583	5418507	No employment claims for gas or power.	No employment claims for gas or power.	257194761	1478861048627	1478861048707	p	80
503583	5418507	No employment claims for gas or power.	No employment claims for gas or power.	257194763	1478861049067	1478861049147	l	76
503583	5418507	No employment claims for gas or power.	No employment claims for gas or power.	257194765	1478861049227	1478861049307	o	79
503583	5418507	No employment claims for gas or power.	No employment claims for gas or power.	257194766	1478861049403	1478861049499	y	89
503583	5418507	No employment claims for gas or power.	No employment claims for gas or power.	257194767	1478861049531	1478861049611	m	77
503583	5418507	No employment claims for gas or power.	No employment claims for gas or power.	257194768	1478861049611	1478861049747	e	69
503583	5418507	No employment claims for gas or power.	No employment claims for gas or power.	257194771	1478861049723	1478861049795	n	78
503583	5418507	No employment claims for gas or power.	No employment claims for gas or power.	257194773	1478861049795	1478861049907	t	84
503583	5418507	No employment claims for gas or power.	No employment claims for gas or power.	257194775	1478861049907	1478861049987	 	32
503583	5418507	No employment claims for gas or power.	No employment claims for gas or power.	257194785	1478861050051	1478861050195	c	67
503583	5418507	No employment claims for gas or power.	No employment claims for gas or power.	257194788	1478861050139	1478861050227	l	76
503583	5418507	No employment claims for gas or power.	No employment claims for gas or power.	257194791	1478861050259	1478861050379	a	65
503583	5418507	No employment claims for gas or power.	No employment claims for gas or power.	257194793	1478861050315	1478861050379	i	73
503583	5418507	No employment claims for gas or power.	No employment claims for gas or power.	257194795	1478861050459	1478861050539	m	77
503583	5418507	No employment claims for gas or power.	No employment claims for gas or power.	257194803	1478861050507	1478861050611	s	83
503583	5418507	No employment claims for gas or power.	No employment claims for gas or power.	257194804	1478861050571	1478861050675	 	32
503583	5418507	No employment claims for gas or power.	No employment claims for gas or power.	257194805	1478861050635	1478861050723	f	70
503583	5418507	No employment claims for gas or power.	No employment claims for gas or power.	257194806	1478861050691	1478861050779	o	79
503583	5418507	No employment claims for gas or power.	No employment claims for gas or power.	257194807	1478861050811	1478861050883	r	82
503583	5418507	No employment claims for gas or power.	No employment claims for gas or power.	257194808	1478861050883	1478861051003	 	32
503583	5418507	No employment claims for gas or power.	No employment claims for gas or power.	257194819	1478861050987	1478861051067	g	71
503583	5418507	No employment claims for gas or power.	No employment claims for gas or power.	257194821	1478861051067	1478861051211	a	65
503583	5418507	No employment claims for gas or power.	No employment claims for gas or power.	257194822	1478861051155	1478861051251	s	83
503583	5418507	No employment claims for gas or power.	No employment claims for gas or power.	257194823	1478861051211	1478861051323	 	32
503583	5418507	No employment claims for gas or power.	No employment claims for gas or power.	257194824	1478861051323	1478861051403	o	79
503583	5418507	No employment claims for gas or power.	No employment claims for gas or power.	257194825	1478861051403	1478861051507	r	82
503583	5418507	No employment claims for gas or power.	No employment claims for gas or power.	257194826	1478861051508	1478861051595	 	32
503583	5418507	No employment claims for gas or power.	No employment claims for gas or power.	257194828	1478861051547	1478861051627	p	80
503583	5418507	No employment claims for gas or power.	No employment claims for gas or power.	257194831	1478861051691	1478861051763	o	79
503583	5418507	No employment claims for gas or power.	No employment claims for gas or power.	257194837	1478861051723	1478861051805	w	87
503583	5418507	No employment claims for gas or power.	No employment claims for gas or power.	257194841	1478861051891	1478861051987	e	69
503583	5418507	No employment claims for gas or power.	No employment claims for gas or power.	257194835	1478861051939	1478861052043	r	82
503583	5418510	Give it some time.	Give it some time	257194902	1478861053667	1478861054595	SHIFT	16
503583	5418510	Give it some time.	Give it some time	257194904	1478861054562	1478861054683	G	71
503583	5418510	Give it some time.	Give it some time	257194906	1478861054739	1478861054851	i	73
503583	5418510	Give it some time.	Give it some time	257194908	1478861054803	1478861054923	v	86
503583	5418510	Give it some time.	Give it some time	257194910	1478861054907	1478861055011	e	69
503583	5418510	Give it some time.	Give it some time	257194918	1478861054971	1478861055099	 	32
503583	5418510	Give it some time.	Give it some time	257194920	1478861055051	1478861055130	i	73
503583	5418510	Give it some time.	Give it some time	257194922	1478861055154	1478861055251	t	84
503583	5418510	Give it some time.	Give it some time	257194926	1478861055251	1478861055371	 	32
503583	5418510	Give it some time.	Give it some time	257194928	1478861055371	1478861055483	s	83
503583	5418510	Give it some time.	Give it some time	257194932	1478861055427	1478861055484	o	79
503583	5418510	Give it some time.	Give it some time	257194934	1478861055571	1478861055643	m	77
503583	5418510	Give it some time.	Give it some time	257194936	1478861055611	1478861055706	e	69
503583	5418510	Give it some time.	Give it some time	257194938	1478861055674	1478861055778	 	32
503583	5418510	Give it some time.	Give it some time	257194940	1478861055722	1478861055834	t	84
503583	5418510	Give it some time.	Give it some time	257194939	1478861055755	1478861055811	i	73
503583	5418510	Give it some time.	Give it some time	257194942	1478861055899	1478861055963	m	77
503583	5418511	Thanks for your concern.	Thanks for your conern,	257195083	1478861055963	1478861060891	e	69
503583	5418511	Thanks for your concern.	Thanks for your conern,	257195012	1478861058291	1478861058378	CAPS_LOCK	20
503583	5418511	Thanks for your concern.	Thanks for your conern,	257195013	1478861058466	1478861058530	T	84
503583	5418511	Thanks for your concern.	Thanks for your conern,	257195014	1478861058562	1478861058650	CAPS_LOCK	20
503583	5418511	Thanks for your concern.	Thanks for your conern,	257195015	1478861058626	1478861058706	h	72
503583	5418511	Thanks for your concern.	Thanks for your conern,	257195016	1478861058746	1478861058866	a	65
503583	5418511	Thanks for your concern.	Thanks for your conern,	257195017	1478861058802	1478861058867	n	78
503583	5418511	Thanks for your concern.	Thanks for your conern,	257195018	1478861058946	1478861059018	k	75
503583	5418511	Thanks for your concern.	Thanks for your conern,	257195019	1478861058978	1478861059082	s	83
503583	5418511	Thanks for your concern.	Thanks for your conern,	257195020	1478861059042	1478861059146	 	32
503583	5418511	Thanks for your concern.	Thanks for your conern,	257195022	1478861059114	1478861059210	f	70
503583	5418511	Thanks for your concern.	Thanks for your conern,	257195024	1478861059194	1478861059298	o	79
503583	5418511	Thanks for your concern.	Thanks for your conern,	257195027	1478861059298	1478861059362	r	82
503583	5418511	Thanks for your concern.	Thanks for your conern,	257195056	1478861059346	1478861059442	 	32
503583	5418511	Thanks for your concern.	Thanks for your conern,	257195058	1478861059482	1478861059578	y	89
503583	5418511	Thanks for your concern.	Thanks for your conern,	257195062	1478861059530	1478861059602	o	79
503583	5418511	Thanks for your concern.	Thanks for your conern,	257195064	1478861059690	1478861059770	u	85
503583	5418511	Thanks for your concern.	Thanks for your conern,	257195065	1478861060010	1478861060123	r	82
503583	5418511	Thanks for your concern.	Thanks for your conern,	257195067	1478861060123	1478861060218	 	32
503583	5418511	Thanks for your concern.	Thanks for your conern,	257195077	1478861060282	1478861060426	c	67
503583	5418511	Thanks for your concern.	Thanks for your conern,	257195079	1478861060378	1478861060450	o	79
503583	5418511	Thanks for your concern.	Thanks for your conern,	257195081	1478861060578	1478861060651	n	78
503583	5418511	Thanks for your concern.	Thanks for your conern,	257195082	1478861060652	1478861060731	c	67
503583	5418511	Thanks for your concern.	Thanks for your conern,	257195088	1478861060843	1478861060947	r	82
503583	5418511	Thanks for your concern.	Thanks for your conern,	257195090	1478861060915	1478861060987	n	78
503583	5418511	Thanks for your concern.	Thanks for your conern,	257195091	1478861061099	1478861061180	,	188
503583	5418514	The earliest the Jets expect him to return is Dec.	The earliest the Jets expect him to return is Dec.	257195136	1478861063779	1478861063883	CAPS_LOCK	20
503583	5418514	The earliest the Jets expect him to return is Dec.	The earliest the Jets expect him to return is Dec.	257195138	1478861063955	1478861064027	T	84
503583	5418514	The earliest the Jets expect him to return is Dec.	The earliest the Jets expect him to return is Dec.	257195140	1478861064059	1478861064219	CAPS_LOCK	20
503583	5418514	The earliest the Jets expect him to return is Dec.	The earliest the Jets expect him to return is Dec.	257195142	1478861064131	1478861064219	h	72
503583	5418514	The earliest the Jets expect him to return is Dec.	The earliest the Jets expect him to return is Dec.	257195144	1478861064219	1478861064310	e	69
503583	5418514	The earliest the Jets expect him to return is Dec.	The earliest the Jets expect him to return is Dec.	257195146	1478861064291	1478861064403	 	32
503583	5418514	The earliest the Jets expect him to return is Dec.	The earliest the Jets expect him to return is Dec.	257195147	1478861064403	1478861064483	e	69
503583	5418514	The earliest the Jets expect him to return is Dec.	The earliest the Jets expect him to return is Dec.	257195150	1478861064651	1478861064813	a	65
503583	5418514	The earliest the Jets expect him to return is Dec.	The earliest the Jets expect him to return is Dec.	257195152	1478861064731	1478861064875	r	82
503583	5418514	The earliest the Jets expect him to return is Dec.	The earliest the Jets expect him to return is Dec.	257195153	1478861064835	1478861064931	l	76
503583	5418514	The earliest the Jets expect him to return is Dec.	The earliest the Jets expect him to return is Dec.	257195154	1478861065003	1478861065083	i	73
503583	5418514	The earliest the Jets expect him to return is Dec.	The earliest the Jets expect him to return is Dec.	257195155	1478861065131	1478861065243	e	69
503583	5418514	The earliest the Jets expect him to return is Dec.	The earliest the Jets expect him to return is Dec.	257195165	1478861065203	1478861065291	s	83
503583	5418514	The earliest the Jets expect him to return is Dec.	The earliest the Jets expect him to return is Dec.	257195168	1478861065363	1478861065451	t	84
503583	5418514	The earliest the Jets expect him to return is Dec.	The earliest the Jets expect him to return is Dec.	257195170	1478861065451	1478861065563	 	32
503583	5418514	The earliest the Jets expect him to return is Dec.	The earliest the Jets expect him to return is Dec.	257195173	1478861065547	1478861065651	t	84
503583	5418514	The earliest the Jets expect him to return is Dec.	The earliest the Jets expect him to return is Dec.	257195175	1478861065651	1478861065771	h	72
503583	5418514	The earliest the Jets expect him to return is Dec.	The earliest the Jets expect him to return is Dec.	257195177	1478861065739	1478861065843	e	69
503583	5418514	The earliest the Jets expect him to return is Dec.	The earliest the Jets expect him to return is Dec.	257195178	1478861065843	1478861065947	 	32
503583	5418514	The earliest the Jets expect him to return is Dec.	The earliest the Jets expect him to return is Dec.	257195179	1478861065923	1478861066011	CAPS_LOCK	20
503583	5418514	The earliest the Jets expect him to return is Dec.	The earliest the Jets expect him to return is Dec.	257195180	1478861066011	1478861066107	J	74
503583	5418514	The earliest the Jets expect him to return is Dec.	The earliest the Jets expect him to return is Dec.	257195181	1478861066067	1478861066195	CAPS_LOCK	20
503583	5418514	The earliest the Jets expect him to return is Dec.	The earliest the Jets expect him to return is Dec.	257195182	1478861066163	1478861066267	e	69
503583	5418514	The earliest the Jets expect him to return is Dec.	The earliest the Jets expect him to return is Dec.	257195183	1478861066363	1478861066435	t	84
503583	5418514	The earliest the Jets expect him to return is Dec.	The earliest the Jets expect him to return is Dec.	257195184	1478861066515	1478861066611	s	83
503583	5418514	The earliest the Jets expect him to return is Dec.	The earliest the Jets expect him to return is Dec.	257195191	1478861066587	1478861066739	 	32
503583	5418514	The earliest the Jets expect him to return is Dec.	The earliest the Jets expect him to return is Dec.	257195193	1478861066811	1478861066891	e	69
503583	5418514	The earliest the Jets expect him to return is Dec.	The earliest the Jets expect him to return is Dec.	257195195	1478861067003	1478861067139	x	88
503583	5418514	The earliest the Jets expect him to return is Dec.	The earliest the Jets expect him to return is Dec.	257195197	1478861067235	1478861067347	p	80
503583	5418514	The earliest the Jets expect him to return is Dec.	The earliest the Jets expect him to return is Dec.	257195199	1478861067347	1478861067435	e	69
503583	5418514	The earliest the Jets expect him to return is Dec.	The earliest the Jets expect him to return is Dec.	257195201	1478861067459	1478861067571	c	67
503583	5418514	The earliest the Jets expect him to return is Dec.	The earliest the Jets expect him to return is Dec.	257195209	1478861067667	1478861067747	t	84
503583	5418514	The earliest the Jets expect him to return is Dec.	The earliest the Jets expect him to return is Dec.	257195210	1478861067747	1478861067851	 	32
503583	5418514	The earliest the Jets expect him to return is Dec.	The earliest the Jets expect him to return is Dec.	257195211	1478861067851	1478861067907	h	72
503583	5418514	The earliest the Jets expect him to return is Dec.	The earliest the Jets expect him to return is Dec.	257195212	1478861067987	1478861068059	i	73
503583	5418514	The earliest the Jets expect him to return is Dec.	The earliest the Jets expect him to return is Dec.	257195213	1478861068139	1478861068287	m	77
503583	5418514	The earliest the Jets expect him to return is Dec.	The earliest the Jets expect him to return is Dec.	257195219	1478861068286	1478861068289	t	32
503583	5418514	The earliest the Jets expect him to return is Dec.	The earliest the Jets expect him to return is Dec.	257195220	1478861068288	1478861068331	o	84
503583	5418514	The earliest the Jets expect him to return is Dec.	The earliest the Jets expect him to return is Dec.	257195221	1478861068427	1478861068539	 	32
503583	5418514	The earliest the Jets expect him to return is Dec.	The earliest the Jets expect him to return is Dec.	257195223	1478861068515	1478861068635	r	82
503583	5418514	The earliest the Jets expect him to return is Dec.	The earliest the Jets expect him to return is Dec.	257195224	1478861068635	1478861068779	e	69
503583	5418514	The earliest the Jets expect him to return is Dec.	The earliest the Jets expect him to return is Dec.	257195236	1478861068755	1478861068851	t	84
503583	5418514	The earliest the Jets expect him to return is Dec.	The earliest the Jets expect him to return is Dec.	257195238	1478861068811	1478861068907	u	85
503583	5418514	The earliest the Jets expect him to return is Dec.	The earliest the Jets expect him to return is Dec.	257195239	1478861068947	1478861069051	r	82
503583	5418514	The earliest the Jets expect him to return is Dec.	The earliest the Jets expect him to return is Dec.	257195240	1478861069019	1478861069099	n	78
503583	5418514	The earliest the Jets expect him to return is Dec.	The earliest the Jets expect him to return is Dec.	257195241	1478861069100	1478861069219	 	32
503583	5418514	The earliest the Jets expect him to return is Dec.	The earliest the Jets expect him to return is Dec.	257195254	1478861069187	1478861069275	i	73
503583	5418514	The earliest the Jets expect him to return is Dec.	The earliest the Jets expect him to return is Dec.	257195256	1478861069275	1478861069355	s	83
503583	5418514	The earliest the Jets expect him to return is Dec.	The earliest the Jets expect him to return is Dec.	257195259	1478861069355	1478861069459	 	32
503583	5418514	The earliest the Jets expect him to return is Dec.	The earliest the Jets expect him to return is Dec.	257195262	1478861069403	1478861069507	CAPS_LOCK	20
503583	5418514	The earliest the Jets expect him to return is Dec.	The earliest the Jets expect him to return is Dec.	257195267	1478861069483	1478861069571	D	68
503583	5418514	The earliest the Jets expect him to return is Dec.	The earliest the Jets expect him to return is Dec.	257195271	1478861069563	1478861069691	CAPS_LOCK	20
503583	5418514	The earliest the Jets expect him to return is Dec.	The earliest the Jets expect him to return is Dec.	257195274	1478861069691	1478861069763	e	69
503583	5418514	The earliest the Jets expect him to return is Dec.	The earliest the Jets expect him to return is Dec.	257195275	1478861069891	1478861069995	c	67
503583	5418518	I just faxed copies of the invoices to you.	I just faxed copies of the invoices to you.	257195355	1478861072843	1478861072971	CAPS_LOCK	20
503583	5418518	I just faxed copies of the invoices to you.	I just faxed copies of the invoices to you.	257195356	1478861073010	1478861073106	I	73
503583	5418518	I just faxed copies of the invoices to you.	I just faxed copies of the invoices to you.	257195357	1478861073075	1478861073179	CAPS_LOCK	20
503583	5418518	I just faxed copies of the invoices to you.	I just faxed copies of the invoices to you.	257195358	1478861073179	1478861073298	 	32
503583	5418518	I just faxed copies of the invoices to you.	I just faxed copies of the invoices to you.	257195359	1478861073251	1478861073331	j	74
503583	5418518	I just faxed copies of the invoices to you.	I just faxed copies of the invoices to you.	257195360	1478861073403	1478861073482	u	85
503583	5418518	I just faxed copies of the invoices to you.	I just faxed copies of the invoices to you.	257195366	1478861073427	1478861073539	s	83
503583	5418518	I just faxed copies of the invoices to you.	I just faxed copies of the invoices to you.	257195368	1478861073539	1478861073635	t	84
503583	5418518	I just faxed copies of the invoices to you.	I just faxed copies of the invoices to you.	257195369	1478861073635	1478861073746	 	32
503583	5418518	I just faxed copies of the invoices to you.	I just faxed copies of the invoices to you.	257195370	1478861073731	1478861073839	f	70
503583	5418518	I just faxed copies of the invoices to you.	I just faxed copies of the invoices to you.	257195371	1478861073810	1478861073994	a	65
503583	5418518	I just faxed copies of the invoices to you.	I just faxed copies of the invoices to you.	257195392	1478861073979	1478861074066	c	67
503583	5418518	I just faxed copies of the invoices to you.	I just faxed copies of the invoices to you.	257195394	1478861074291	1478861074395	BKSP	8
503583	5418518	I just faxed copies of the invoices to you.	I just faxed copies of the invoices to you.	257195396	1478861074395	1478861074498	x	88
503583	5418518	I just faxed copies of the invoices to you.	I just faxed copies of the invoices to you.	257195398	1478861074499	1478861074594	e	69
503583	5418518	I just faxed copies of the invoices to you.	I just faxed copies of the invoices to you.	257195399	1478861074691	1478861074786	d	68
503583	5418518	I just faxed copies of the invoices to you.	I just faxed copies of the invoices to you.	257195400	1478861074763	1478861074898	 	32
503583	5418518	I just faxed copies of the invoices to you.	I just faxed copies of the invoices to you.	257195401	1478861074899	1478861075034	c	67
503583	5418518	I just faxed copies of the invoices to you.	I just faxed copies of the invoices to you.	257195406	1478861074954	1478861075036	o	79
503583	5418518	I just faxed copies of the invoices to you.	I just faxed copies of the invoices to you.	257195408	1478861075114	1478861075202	p	80
503583	5418518	I just faxed copies of the invoices to you.	I just faxed copies of the invoices to you.	257195411	1478861075218	1478861075290	e	69
503583	5418518	I just faxed copies of the invoices to you.	I just faxed copies of the invoices to you.	257195413	1478861075490	1478861075562	BKSP	8
503583	5418518	I just faxed copies of the invoices to you.	I just faxed copies of the invoices to you.	257195416	1478861075658	1478861075738	i	73
503583	5418518	I just faxed copies of the invoices to you.	I just faxed copies of the invoices to you.	257195419	1478861075698	1478861075802	e	69
503583	5418518	I just faxed copies of the invoices to you.	I just faxed copies of the invoices to you.	257195425	1478861075754	1478861075851	s	83
503583	5418518	I just faxed copies of the invoices to you.	I just faxed copies of the invoices to you.	257195426	1478861075818	1478861075946	 	32
503583	5418518	I just faxed copies of the invoices to you.	I just faxed copies of the invoices to you.	257195427	1478861075986	1478861076066	o	79
503583	5418518	I just faxed copies of the invoices to you.	I just faxed copies of the invoices to you.	257195428	1478861076067	1478861076138	f	70
503583	5418518	I just faxed copies of the invoices to you.	I just faxed copies of the invoices to you.	257195429	1478861076139	1478861076251	 	32
503583	5418518	I just faxed copies of the invoices to you.	I just faxed copies of the invoices to you.	257195433	1478861076235	1478861076318	t	84
503583	5418518	I just faxed copies of the invoices to you.	I just faxed copies of the invoices to you.	257195434	1478861076307	1478861076379	h	72
503583	5418518	I just faxed copies of the invoices to you.	I just faxed copies of the invoices to you.	257195435	1478861076383	1478861076474	e	69
503583	5418518	I just faxed copies of the invoices to you.	I just faxed copies of the invoices to you.	257195436	1478861076450	1478861076562	 	32
503583	5418518	I just faxed copies of the invoices to you.	I just faxed copies of the invoices to you.	257195437	1478861076538	1478861076610	i	73
503583	5418518	I just faxed copies of the invoices to you.	I just faxed copies of the invoices to you.	257195438	1478861076698	1478861076762	n	78
503583	5418518	I just faxed copies of the invoices to you.	I just faxed copies of the invoices to you.	257195443	1478861076765	1478861076834	v	86
503583	5418518	I just faxed copies of the invoices to you.	I just faxed copies of the invoices to you.	257195445	1478861076858	1478861076922	o	79
503583	5418518	I just faxed copies of the invoices to you.	I just faxed copies of the invoices to you.	257195446	1478861076994	1478861077082	i	73
503583	5418518	I just faxed copies of the invoices to you.	I just faxed copies of the invoices to you.	257195447	1478861077042	1478861077122	c	67
503583	5418518	I just faxed copies of the invoices to you.	I just faxed copies of the invoices to you.	257195448	1478861077210	1478861077314	e	69
503583	5418518	I just faxed copies of the invoices to you.	I just faxed copies of the invoices to you.	257195449	1478861077282	1478861077378	s	83
503583	5418518	I just faxed copies of the invoices to you.	I just faxed copies of the invoices to you.	257195450	1478861077354	1478861077482	 	32
503583	5418518	I just faxed copies of the invoices to you.	I just faxed copies of the invoices to you.	257195452	1478861077458	1478861077554	t	84
503583	5418518	I just faxed copies of the invoices to you.	I just faxed copies of the invoices to you.	257195454	1478861077506	1478861077586	o	79
503583	5418518	I just faxed copies of the invoices to you.	I just faxed copies of the invoices to you.	257195456	1478861077618	1478861077714	 	32
503583	5418518	I just faxed copies of the invoices to you.	I just faxed copies of the invoices to you.	257195458	1478861077715	1478861077839	y	89
503583	5418518	I just faxed copies of the invoices to you.	I just faxed copies of the invoices to you.	257195460	1478861077770	1478861077847	o	79
503583	5418518	I just faxed copies of the invoices to you.	I just faxed copies of the invoices to you.	257195461	1478861077931	1478861077986	u	85
503583	5418519	I hope you are feeling better.	I hope you are feeling better.	257195507	1478861080299	1478861080427	CAPS_LOCK	20
503583	5418519	I hope you are feeling better.	I hope you are feeling better.	257195508	1478861080507	1478861080611	I	73
503583	5418519	I hope you are feeling better.	I hope you are feeling better.	257195509	1478861080563	1478861080659	CAPS_LOCK	20
503583	5418519	I hope you are feeling better.	I hope you are feeling better.	257195510	1478861080635	1478861080699	 	32
503583	5418519	I hope you are feeling better.	I hope you are feeling better.	257195511	1478861080747	1478861080851	h	72
503583	5418519	I hope you are feeling better.	I hope you are feeling better.	257195512	1478861080811	1478861080875	o	79
503583	5418519	I hope you are feeling better.	I hope you are feeling better.	257195513	1478861080955	1478861081035	p	80
503583	5418519	I hope you are feeling better.	I hope you are feeling better.	257195523	1478861080995	1478861081099	e	69
503583	5418519	I hope you are feeling better.	I hope you are feeling better.	257195525	1478861081059	1478861081139	 	32
503583	5418519	I hope you are feeling better.	I hope you are feeling better.	257195527	1478861081195	1478861081291	y	89
503583	5418519	I hope you are feeling better.	I hope you are feeling better.	257195528	1478861081227	1478861081315	o	79
503583	5418519	I hope you are feeling better.	I hope you are feeling better.	257195529	1478861081395	1478861081475	u	85
503583	5418519	I hope you are feeling better.	I hope you are feeling better.	257195530	1478861081476	1478861081587	 	32
503583	5418519	I hope you are feeling better.	I hope you are feeling better.	257195535	1478861081547	1478861081635	a	65
503583	5418519	I hope you are feeling better.	I hope you are feeling better.	257195537	1478861081619	1478861081731	r	82
503583	5418519	I hope you are feeling better.	I hope you are feeling better.	257195538	1478861081691	1478861081787	e	69
503583	5418519	I hope you are feeling better.	I hope you are feeling better.	257195539	1478861081771	1478861081892	 	32
503583	5418519	I hope you are feeling better.	I hope you are feeling better.	257195540	1478861081870	1478861081963	f	70
503583	5418519	I hope you are feeling better.	I hope you are feeling better.	257195531	1478861081947	1478861082035	e	69
503583	5418519	I hope you are feeling better.	I hope you are feeling better.	257195532	1478861082107	1478861082227	e	69
503583	5418519	I hope you are feeling better.	I hope you are feeling better.	257195533	1478861082131	1478861082227	l	76
503583	5418519	I hope you are feeling better.	I hope you are feeling better.	257195534	1478861082291	1478861082355	i	73
503583	5418519	I hope you are feeling better.	I hope you are feeling better.	257195536	1478861082459	1478861082523	n	78
503583	5418519	I hope you are feeling better.	I hope you are feeling better.	257195541	1478861082515	1478861082603	g	71
503583	5418519	I hope you are feeling better.	I hope you are feeling better.	257195542	1478861082571	1478861082675	 	32
503583	5418519	I hope you are feeling better.	I hope you are feeling better.	257195543	1478861082635	1478861082715	b	66
503583	5418519	I hope you are feeling better.	I hope you are feeling better.	257195544	1478861082715	1478861082811	e	69
503583	5418519	I hope you are feeling better.	I hope you are feeling better.	257195545	1478861082755	1478861082851	t	84
503583	5418519	I hope you are feeling better.	I hope you are feeling better.	257195546	1478861082923	1478861082995	t	84
503583	5418519	I hope you are feeling better.	I hope you are feeling better.	257195547	1478861083035	1478861083131	e	69
503583	5418519	I hope you are feeling better.	I hope you are feeling better.	257195548	1478861083099	1478861083195	r	82
503583	5418524	Some members of the council refuse to recognize the progress.	Some members of the council refuse to recognize the progress.	257195581	1478861085107	1478861085219	CAPS_LOCK	20
503583	5418524	Some members of the council refuse to recognize the progress.	Some members of the council refuse to recognize the progress.	257195582	1478861085387	1478861085491	S	83
503583	5418524	Some members of the council refuse to recognize the progress.	Some members of the council refuse to recognize the progress.	257195583	1478861085443	1478861085579	CAPS_LOCK	20
503583	5418524	Some members of the council refuse to recognize the progress.	Some members of the council refuse to recognize the progress.	257195584	1478861085579	1478861085651	o	79
503583	5418524	Some members of the council refuse to recognize the progress.	Some members of the council refuse to recognize the progress.	257195585	1478861085739	1478861085819	m	77
503583	5418524	Some members of the council refuse to recognize the progress.	Some members of the council refuse to recognize the progress.	257195586	1478861085795	1478861085885	e	69
503583	5418524	Some members of the council refuse to recognize the progress.	Some members of the council refuse to recognize the progress.	257195587	1478861085868	1478861085995	 	32
503583	5418524	Some members of the council refuse to recognize the progress.	Some members of the council refuse to recognize the progress.	257195588	1478861085971	1478861086059	m	77
503583	5418524	Some members of the council refuse to recognize the progress.	Some members of the council refuse to recognize the progress.	257195589	1478861086059	1478861086163	e	69
503583	5418524	Some members of the council refuse to recognize the progress.	Some members of the council refuse to recognize the progress.	257195590	1478861086139	1478861086219	m	77
503583	5418524	Some members of the council refuse to recognize the progress.	Some members of the council refuse to recognize the progress.	257195591	1478861086307	1478861086371	b	66
503583	5418524	Some members of the council refuse to recognize the progress.	Some members of the council refuse to recognize the progress.	257195592	1478861086331	1478861086419	e	69
503583	5418524	Some members of the council refuse to recognize the progress.	Some members of the council refuse to recognize the progress.	257195593	1478861086372	1478861086459	r	82
503583	5418524	Some members of the council refuse to recognize the progress.	Some members of the council refuse to recognize the progress.	257195594	1478861086507	1478861086603	s	83
503583	5418524	Some members of the council refuse to recognize the progress.	Some members of the council refuse to recognize the progress.	257195595	1478861086587	1478861086731	 	32
503583	5418524	Some members of the council refuse to recognize the progress.	Some members of the council refuse to recognize the progress.	257195596	1478861086667	1478861086755	o	79
503583	5418524	Some members of the council refuse to recognize the progress.	Some members of the council refuse to recognize the progress.	257195602	1478861086731	1478861086827	f	70
503583	5418524	Some members of the council refuse to recognize the progress.	Some members of the council refuse to recognize the progress.	257195603	1478861086827	1478861086931	 	32
503583	5418524	Some members of the council refuse to recognize the progress.	Some members of the council refuse to recognize the progress.	257195604	1478861086907	1478861086987	t	84
503583	5418524	Some members of the council refuse to recognize the progress.	Some members of the council refuse to recognize the progress.	257195605	1478861086955	1478861087035	h	72
503583	5418524	Some members of the council refuse to recognize the progress.	Some members of the council refuse to recognize the progress.	257195606	1478861087035	1478861087123	e	69
503583	5418524	Some members of the council refuse to recognize the progress.	Some members of the council refuse to recognize the progress.	257195613	1478861087099	1478861087171	 	32
503583	5418524	Some members of the council refuse to recognize the progress.	Some members of the council refuse to recognize the progress.	257195619	1478861087203	1478861087347	c	67
503583	5418524	Some members of the council refuse to recognize the progress.	Some members of the council refuse to recognize the progress.	257195616	1478861087251	1478861087307	o	79
503583	5418524	Some members of the council refuse to recognize the progress.	Some members of the council refuse to recognize the progress.	257195622	1478861087419	1478861087459	u	85
503583	5418524	Some members of the council refuse to recognize the progress.	Some members of the council refuse to recognize the progress.	257195624	1478861087555	1478861087627	n	78
503583	5418524	Some members of the council refuse to recognize the progress.	Some members of the council refuse to recognize the progress.	257195629	1478861087611	1478861087747	c	67
503583	5418524	Some members of the council refuse to recognize the progress.	Some members of the council refuse to recognize the progress.	257195630	1478861087707	1478861087771	i	73
503583	5418524	Some members of the council refuse to recognize the progress.	Some members of the council refuse to recognize the progress.	257195631	1478861087851	1478861087923	l	76
503583	5418524	Some members of the council refuse to recognize the progress.	Some members of the council refuse to recognize the progress.	257195632	1478861087891	1478861087995	 	32
503583	5418524	Some members of the council refuse to recognize the progress.	Some members of the council refuse to recognize the progress.	257195633	1478861087971	1478861088075	r	82
503583	5418524	Some members of the council refuse to recognize the progress.	Some members of the council refuse to recognize the progress.	257195640	1478861088043	1478861088163	e	69
503583	5418524	Some members of the council refuse to recognize the progress.	Some members of the council refuse to recognize the progress.	257195641	1478861088163	1478861088275	f	70
503583	5418524	Some members of the council refuse to recognize the progress.	Some members of the council refuse to recognize the progress.	257195642	1478861088235	1478861088331	u	85
503583	5418524	Some members of the council refuse to recognize the progress.	Some members of the council refuse to recognize the progress.	257195643	1478861088346	1478861088451	s	83
503583	5418524	Some members of the council refuse to recognize the progress.	Some members of the council refuse to recognize the progress.	257195644	1478861088419	1478861088539	e	69
503583	5418524	Some members of the council refuse to recognize the progress.	Some members of the council refuse to recognize the progress.	257195645	1478861088539	1478861088667	 	32
503583	5418524	Some members of the council refuse to recognize the progress.	Some members of the council refuse to recognize the progress.	257195657	1478861088643	1478861088763	t	84
503583	5418524	Some members of the council refuse to recognize the progress.	Some members of the council refuse to recognize the progress.	257195660	1478861088707	1478861088810	o	79
503583	5418524	Some members of the council refuse to recognize the progress.	Some members of the council refuse to recognize the progress.	257195662	1478861088811	1478861088915	 	32
503583	5418524	Some members of the council refuse to recognize the progress.	Some members of the council refuse to recognize the progress.	257195666	1478861088891	1478861088995	r	82
503583	5418524	Some members of the council refuse to recognize the progress.	Some members of the council refuse to recognize the progress.	257195668	1478861088955	1478861089107	e	69
503583	5418524	Some members of the council refuse to recognize the progress.	Some members of the council refuse to recognize the progress.	257195671	1478861089387	1478861089515	c	67
503583	5418524	Some members of the council refuse to recognize the progress.	Some members of the council refuse to recognize the progress.	257195676	1478861089643	1478861089739	o	79
503583	5418524	Some members of the council refuse to recognize the progress.	Some members of the council refuse to recognize the progress.	257195678	1478861089754	1478861089835	g	71
503583	5418524	Some members of the council refuse to recognize the progress.	Some members of the council refuse to recognize the progress.	257195681	1478861089923	1478861089995	n	78
503583	5418524	Some members of the council refuse to recognize the progress.	Some members of the council refuse to recognize the progress.	257195684	1478861090067	1478861090163	i	73
503583	5418524	Some members of the council refuse to recognize the progress.	Some members of the council refuse to recognize the progress.	257195688	1478861090123	1478861090227	z	90
503583	5418524	Some members of the council refuse to recognize the progress.	Some members of the council refuse to recognize the progress.	257195689	1478861090242	1478861090347	e	69
503583	5418524	Some members of the council refuse to recognize the progress.	Some members of the council refuse to recognize the progress.	257195690	1478861090331	1478861090427	 	32
503583	5418524	Some members of the council refuse to recognize the progress.	Some members of the council refuse to recognize the progress.	257195691	1478861090458	1478861090539	t	84
503583	5418524	Some members of the council refuse to recognize the progress.	Some members of the council refuse to recognize the progress.	257195692	1478861090539	1478861090627	h	72
503583	5418524	Some members of the council refuse to recognize the progress.	Some members of the council refuse to recognize the progress.	257195693	1478861090627	1478861090714	e	69
503583	5418524	Some members of the council refuse to recognize the progress.	Some members of the council refuse to recognize the progress.	257195704	1478861090683	1478861090786	 	32
503583	5418524	Some members of the council refuse to recognize the progress.	Some members of the council refuse to recognize the progress.	257195705	1478861090763	1478861090835	p	80
503583	5418524	Some members of the council refuse to recognize the progress.	Some members of the council refuse to recognize the progress.	257195706	1478861090835	1478861090931	r	82
503583	5418524	Some members of the council refuse to recognize the progress.	Some members of the council refuse to recognize the progress.	257195707	1478861090931	1478861091011	o	79
503583	5418524	Some members of the council refuse to recognize the progress.	Some members of the council refuse to recognize the progress.	257195708	1478861091011	1478861091082	g	71
503583	5418524	Some members of the council refuse to recognize the progress.	Some members of the council refuse to recognize the progress.	257195709	1478861091211	1478861091322	e	82
503583	5418524	Some members of the council refuse to recognize the progress.	Some members of the council refuse to recognize the progress.	257195716	1478861091715	1478861091810	s	83
503583	5418524	Some members of the council refuse to recognize the progress.	Some members of the council refuse to recognize the progress.	257195720	1478861091876	1478861091970	s	83
503583	5418528	The contract is a bit complicated.	The contract is a bit complicated.	257195770	1478861094026	1478861094114	CAPS_LOCK	20
503583	5418528	The contract is a bit complicated.	The contract is a bit complicated.	257195772	1478861094210	1478861094266	T	84
503583	5418528	The contract is a bit complicated.	The contract is a bit complicated.	257195774	1478861094290	1478861094434	CAPS_LOCK	20
503583	5418528	The contract is a bit complicated.	The contract is a bit complicated.	257195775	1478861094435	1478861094506	e	72
503583	5418528	The contract is a bit complicated.	The contract is a bit complicated.	257195776	1478861094546	1478861094610	 	32
503583	5418528	The contract is a bit complicated.	The contract is a bit complicated.	257195777	1478861094658	1478861094770	c	67
503583	5418528	The contract is a bit complicated.	The contract is a bit complicated.	257195767	1478861094730	1478861094802	o	79
503583	5418528	The contract is a bit complicated.	The contract is a bit complicated.	257195768	1478861094890	1478861094970	n	78
503583	5418528	The contract is a bit complicated.	The contract is a bit complicated.	257195769	1478861094930	1478861095002	t	84
503583	5418528	The contract is a bit complicated.	The contract is a bit complicated.	257195771	1478861095074	1478861095162	r	82
503583	5418528	The contract is a bit complicated.	The contract is a bit complicated.	257195773	1478861095163	1478861095298	a	65
503583	5418528	The contract is a bit complicated.	The contract is a bit complicated.	257195845	1478861095274	1478861095386	c	67
503583	5418528	The contract is a bit complicated.	The contract is a bit complicated.	257195848	1478861095482	1478861095570	t	84
503583	5418528	The contract is a bit complicated.	The contract is a bit complicated.	257195849	1478861095571	1478861095651	 	32
503583	5418528	The contract is a bit complicated.	The contract is a bit complicated.	257195852	1478861095612	1478861095707	i	73
503583	5418528	The contract is a bit complicated.	The contract is a bit complicated.	257195855	1478861095691	1478861095795	s	83
503583	5418528	The contract is a bit complicated.	The contract is a bit complicated.	257195813	1478861095763	1478861095894	 	32
503583	5418528	The contract is a bit complicated.	The contract is a bit complicated.	257195817	1478861095867	1478861095979	a	65
503583	5418528	The contract is a bit complicated.	The contract is a bit complicated.	257195822	1478861095980	1478861096091	 	32
503583	5418528	The contract is a bit complicated.	The contract is a bit complicated.	257195828	1478861096092	1478861096163	b	66
503583	5418528	The contract is a bit complicated.	The contract is a bit complicated.	257195834	1478861096243	1478861096339	i	73
503583	5418528	The contract is a bit complicated.	The contract is a bit complicated.	257195789	1478861096299	1478861096379	t	84
503583	5418528	The contract is a bit complicated.	The contract is a bit complicated.	257195791	1478861096380	1478861096451	 	32
503583	5418528	The contract is a bit complicated.	The contract is a bit complicated.	257195795	1478861096491	1478861096651	c	67
503583	5418528	The contract is a bit complicated.	The contract is a bit complicated.	257195793	1478861096547	1478861096603	o	79
503583	5418528	The contract is a bit complicated.	The contract is a bit complicated.	257195797	1478861096707	1478861096779	m	77
503583	5418528	The contract is a bit complicated.	The contract is a bit complicated.	257195799	1478861096867	1478861096931	p	80
503583	5418528	The contract is a bit complicated.	The contract is a bit complicated.	257195800	1478861097019	1478861097091	l	76
503583	5418528	The contract is a bit complicated.	The contract is a bit complicated.	257195801	1478861097171	1478861097235	i	73
503583	5418528	The contract is a bit complicated.	The contract is a bit complicated.	257195802	1478861097203	1478861097291	c	67
503583	5418528	The contract is a bit complicated.	The contract is a bit complicated.	257195803	1478861097259	1478861097379	a	65
503583	5418528	The contract is a bit complicated.	The contract is a bit complicated.	257195804	1478861097395	1478861097491	t	84
503583	5418528	The contract is a bit complicated.	The contract is a bit complicated.	257195810	1478861097467	1478861097531	e	69
503583	5418528	The contract is a bit complicated.	The contract is a bit complicated.	257195814	1478861097587	1478861097707	d	68
503583	5418530	The law enforcement has responsibility for the safety of the public.	The law enforcement has responsibility for the safety of the public.	257195910	1478861100378	1478861100482	CAPS_LOCK	20
503583	5418530	The law enforcement has responsibility for the safety of the public.	The law enforcement has responsibility for the safety of the public.	257195912	1478861100562	1478861100634	T	84
503583	5418530	The law enforcement has responsibility for the safety of the public.	The law enforcement has responsibility for the safety of the public.	257195915	1478861100634	1478861100786	CAPS_LOCK	20
503583	5418530	The law enforcement has responsibility for the safety of the public.	The law enforcement has responsibility for the safety of the public.	257195918	1478861100738	1478861100826	h	72
503583	5418530	The law enforcement has responsibility for the safety of the public.	The law enforcement has responsibility for the safety of the public.	257195921	1478861100786	1478861100906	e	69
503583	5418530	The law enforcement has responsibility for the safety of the public.	The law enforcement has responsibility for the safety of the public.	257195922	1478861100866	1478861100994	 	32
503583	5418530	The law enforcement has responsibility for the safety of the public.	The law enforcement has responsibility for the safety of the public.	257195930	1478861100962	1478861101050	l	76
503583	5418530	The law enforcement has responsibility for the safety of the public.	The law enforcement has responsibility for the safety of the public.	257195932	1478861101050	1478861101178	a	65
503583	5418530	The law enforcement has responsibility for the safety of the public.	The law enforcement has responsibility for the safety of the public.	257195934	1478861101138	1478861101282	w	87
503583	5418530	The law enforcement has responsibility for the safety of the public.	The law enforcement has responsibility for the safety of the public.	257195936	1478861101258	1478861101394	 	32
503583	5418530	The law enforcement has responsibility for the safety of the public.	The law enforcement has responsibility for the safety of the public.	257195938	1478861101418	1478861101538	e	69
503583	5418530	The law enforcement has responsibility for the safety of the public.	The law enforcement has responsibility for the safety of the public.	257195949	1478861101514	1478861101602	n	78
503583	5418530	The law enforcement has responsibility for the safety of the public.	The law enforcement has responsibility for the safety of the public.	257195950	1478861101650	1478861101730	f	70
503583	5418530	The law enforcement has responsibility for the safety of the public.	The law enforcement has responsibility for the safety of the public.	257195951	1478861101730	1478861101802	o	79
503583	5418530	The law enforcement has responsibility for the safety of the public.	The law enforcement has responsibility for the safety of the public.	257195953	1478861101834	1478861101898	r	82
503583	5418530	The law enforcement has responsibility for the safety of the public.	The law enforcement has responsibility for the safety of the public.	257195955	1478861102018	1478861102162	c	67
503583	5418530	The law enforcement has responsibility for the safety of the public.	The law enforcement has responsibility for the safety of the public.	257195978	1478861102130	1478861102242	e	69
503583	5418530	The law enforcement has responsibility for the safety of the public.	The law enforcement has responsibility for the safety of the public.	257195979	1478861102210	1478861102330	m	77
503583	5418530	The law enforcement has responsibility for the safety of the public.	The law enforcement has responsibility for the safety of the public.	257195980	1478861102338	1478861102434	e	69
503583	5418530	The law enforcement has responsibility for the safety of the public.	The law enforcement has responsibility for the safety of the public.	257195981	1478861102418	1478861102514	n	78
503583	5418530	The law enforcement has responsibility for the safety of the public.	The law enforcement has responsibility for the safety of the public.	257195982	1478861102490	1478861102594	t	84
503583	5418530	The law enforcement has responsibility for the safety of the public.	The law enforcement has responsibility for the safety of the public.	257195983	1478861102594	1478861102698	 	32
503583	5418530	The law enforcement has responsibility for the safety of the public.	The law enforcement has responsibility for the safety of the public.	257195973	1478861102666	1478861102754	h	72
503583	5418530	The law enforcement has responsibility for the safety of the public.	The law enforcement has responsibility for the safety of the public.	257195974	1478861102722	1478861102858	a	65
503583	5418530	The law enforcement has responsibility for the safety of the public.	The law enforcement has responsibility for the safety of the public.	257195975	1478861102778	1478861102874	s	83
503583	5418530	The law enforcement has responsibility for the safety of the public.	The law enforcement has responsibility for the safety of the public.	257195976	1478861102858	1478861102970	 	32
503583	5418530	The law enforcement has responsibility for the safety of the public.	The law enforcement has responsibility for the safety of the public.	257195977	1478861102946	1478861103034	r	82
503583	5418530	The law enforcement has responsibility for the safety of the public.	The law enforcement has responsibility for the safety of the public.	257195993	1478861103010	1478861103122	e	69
503583	5418530	The law enforcement has responsibility for the safety of the public.	The law enforcement has responsibility for the safety of the public.	257195994	1478861103242	1478861103402	s	83
503583	5418530	The law enforcement has responsibility for the safety of the public.	The law enforcement has responsibility for the safety of the public.	257195995	1478861103378	1478861103458	p	80
503583	5418530	The law enforcement has responsibility for the safety of the public.	The law enforcement has responsibility for the safety of the public.	257195996	1478861103522	1478861103602	o	79
503583	5418530	The law enforcement has responsibility for the safety of the public.	The law enforcement has responsibility for the safety of the public.	257195997	1478861103746	1478861103802	n	78
503583	5418530	The law enforcement has responsibility for the safety of the public.	The law enforcement has responsibility for the safety of the public.	257195999	1478861103874	1478861103906	s	83
503583	5418530	The law enforcement has responsibility for the safety of the public.	The law enforcement has responsibility for the safety of the public.	257196032	1478861104482	1478861104578	i	73
503583	5418530	The law enforcement has responsibility for the safety of the public.	The law enforcement has responsibility for the safety of the public.	257196034	1478861104602	1478861104714	b	66
503583	5418530	The law enforcement has responsibility for the safety of the public.	The law enforcement has responsibility for the safety of the public.	257196036	1478861104962	1478861105050	i	73
503583	5418530	The law enforcement has responsibility for the safety of the public.	The law enforcement has responsibility for the safety of the public.	257196038	1478861105162	1478861105242	l	76
503583	5418530	The law enforcement has responsibility for the safety of the public.	The law enforcement has responsibility for the safety of the public.	257196040	1478861105306	1478861105394	i	73
503583	5418530	The law enforcement has responsibility for the safety of the public.	The law enforcement has responsibility for the safety of the public.	257196045	1478861105395	1478861105514	t	84
503583	5418530	The law enforcement has responsibility for the safety of the public.	The law enforcement has responsibility for the safety of the public.	257196047	1478861105514	1478861105586	y	89
503583	5418530	The law enforcement has responsibility for the safety of the public.	The law enforcement has responsibility for the safety of the public.	257196049	1478861105586	1478861105690	 	32
503583	5418530	The law enforcement has responsibility for the safety of the public.	The law enforcement has responsibility for the safety of the public.	257196051	1478861105650	1478861105738	f	70
503583	5418530	The law enforcement has responsibility for the safety of the public.	The law enforcement has responsibility for the safety of the public.	257196053	1478861105738	1478861105810	o	79
503583	5418530	The law enforcement has responsibility for the safety of the public.	The law enforcement has responsibility for the safety of the public.	257196055	1478861105811	1478861105899	r	82
503583	5418530	The law enforcement has responsibility for the safety of the public.	The law enforcement has responsibility for the safety of the public.	257196056	1478861105874	1478861106010	 	32
503583	5418530	The law enforcement has responsibility for the safety of the public.	The law enforcement has responsibility for the safety of the public.	257196057	1478861105986	1478861106066	t	84
503583	5418530	The law enforcement has responsibility for the safety of the public.	The law enforcement has responsibility for the safety of the public.	257196058	1478861106018	1478861106106	h	72
503583	5418530	The law enforcement has responsibility for the safety of the public.	The law enforcement has responsibility for the safety of the public.	257196075	1478861106082	1478861106186	e	69
503583	5418530	The law enforcement has responsibility for the safety of the public.	The law enforcement has responsibility for the safety of the public.	257196078	1478861106186	1478861106282	 	32
503583	5418530	The law enforcement has responsibility for the safety of the public.	The law enforcement has responsibility for the safety of the public.	257196081	1478861106266	1478861106362	s	83
503583	5418530	The law enforcement has responsibility for the safety of the public.	The law enforcement has responsibility for the safety of the public.	257196083	1478861106322	1478861106434	a	65
503583	5418530	The law enforcement has responsibility for the safety of the public.	The law enforcement has responsibility for the safety of the public.	257196084	1478861106434	1478861106522	f	70
503583	5418530	The law enforcement has responsibility for the safety of the public.	The law enforcement has responsibility for the safety of the public.	257196085	1478861106522	1478861106602	e	69
503583	5418530	The law enforcement has responsibility for the safety of the public.	The law enforcement has responsibility for the safety of the public.	257196088	1478861106626	1478861106770	t	84
503583	5418530	The law enforcement has responsibility for the safety of the public.	The law enforcement has responsibility for the safety of the public.	257196090	1478861106794	1478861106890	y	89
503583	5418530	The law enforcement has responsibility for the safety of the public.	The law enforcement has responsibility for the safety of the public.	257196095	1478861106922	1478861107042	 	32
503583	5418530	The law enforcement has responsibility for the safety of the public.	The law enforcement has responsibility for the safety of the public.	257196099	1478861107042	1478861107122	o	79
503583	5418530	The law enforcement has responsibility for the safety of the public.	The law enforcement has responsibility for the safety of the public.	257196109	1478861107098	1478861107186	f	70
503583	5418530	The law enforcement has responsibility for the safety of the public.	The law enforcement has responsibility for the safety of the public.	257196110	1478861107186	1478861107274	 	32
503583	5418530	The law enforcement has responsibility for the safety of the public.	The law enforcement has responsibility for the safety of the public.	257196111	1478861107266	1478861107361	t	84
503583	5418530	The law enforcement has responsibility for the safety of the public.	The law enforcement has responsibility for the safety of the public.	257196112	1478861107330	1478861107402	h	72
503583	5418530	The law enforcement has responsibility for the safety of the public.	The law enforcement has responsibility for the safety of the public.	257196113	1478861107402	1478861107522	e	69
503583	5418530	The law enforcement has responsibility for the safety of the public.	The law enforcement has responsibility for the safety of the public.	257196129	1478861107458	1478861107570	 	32
503583	5418530	The law enforcement has responsibility for the safety of the public.	The law enforcement has responsibility for the safety of the public.	257196131	1478861107538	1478861107610	p	80
503583	5418530	The law enforcement has responsibility for the safety of the public.	The law enforcement has responsibility for the safety of the public.	257196134	1478861107714	1478861107762	u	85
503583	5418530	The law enforcement has responsibility for the safety of the public.	The law enforcement has responsibility for the safety of the public.	257196137	1478861107746	1478861107842	b	66
503583	5418530	The law enforcement has responsibility for the safety of the public.	The law enforcement has responsibility for the safety of the public.	257196140	1478861107881	1478861107945	l	76
503583	5418530	The law enforcement has responsibility for the safety of the public.	The law enforcement has responsibility for the safety of the public.	257196141	1478861108018	1478861108073	i	73
503583	5418530	The law enforcement has responsibility for the safety of the public.	The law enforcement has responsibility for the safety of the public.	257196142	1478861108122	1478861108273	c	67
