PARTICIPANT_ID	TEST_SECTION_ID	SENTENCE	USER_INPUT	KEYSTROKE_ID	PRESS_TIME	RELEASE_TIME	LETTER	KEYCODE
503978	5422329	Wonder what next week will bring.	WOnder what next week will bring	257375855	1478869381772	1478869381948	SHIFT	16
503978	5422329	Wonder what next week will bring.	WOnder what next week will bring	257375857	1478869381877	1478869382005	W	87
503978	5422329	Wonder what next week will bring.	WOnder what next week will bring	257375858	1478869381931	1478869382019	O	79
503978	5422329	Wonder what next week will bring.	WOnder what next week will bring	257375859	1478869382111	1478869382202	n	78
503978	5422329	Wonder what next week will bring.	WOnder what next week will bring	257375860	1478869382202	1478869382281	d	68
503978	5422329	Wonder what next week will bring.	WOnder what next week will bring	257375861	1478869382372	1478869382447	e	69
503978	5422329	Wonder what next week will bring.	WOnder what next week will bring	257375867	1478869382530	1478869382618	r	82
503978	5422329	Wonder what next week will bring.	WOnder what next week will bring	257375868	1478869382618	1478869382831	 	32
503978	5422329	Wonder what next week will bring.	WOnder what next week will bring	257375869	1478869382716	1478869382884	w	87
503978	5422329	Wonder what next week will bring.	WOnder what next week will bring	257375870	1478869382831	1478869382917	h	72
503978	5422329	Wonder what next week will bring.	WOnder what next week will bring	257375888	1478869382884	1478869383006	a	65
503978	5422329	Wonder what next week will bring.	WOnder what next week will bring	257375890	1478869383045	1478869383128	t	84
503978	5422329	Wonder what next week will bring.	WOnder what next week will bring	257375895	1478869383079	1478869383256	 	32
503978	5422329	Wonder what next week will bring.	WOnder what next week will bring	257375893	1478869383167	1478869383256	n	78
503978	5422329	Wonder what next week will bring.	WOnder what next week will bring	257375897	1478869383256	1478869383340	e	69
503978	5422329	Wonder what next week will bring.	WOnder what next week will bring	257375899	1478869383439	1478869383510	x	88
503978	5422329	Wonder what next week will bring.	WOnder what next week will bring	257375905	1478869383597	1478869383710	t	84
503978	5422329	Wonder what next week will bring.	WOnder what next week will bring	257375907	1478869383696	1478869383915	 	32
503978	5422329	Wonder what next week will bring.	WOnder what next week will bring	257375910	1478869383831	1478869383960	w	87
503978	5422329	Wonder what next week will bring.	WOnder what next week will bring	257375915	1478869384187	1478869384255	e	69
503978	5422329	Wonder what next week will bring.	WOnder what next week will bring	257375919	1478869384341	1478869384465	e	69
503978	5422329	Wonder what next week will bring.	WOnder what next week will bring	257375926	1478869384466	1478869384553	k	75
503978	5422329	Wonder what next week will bring.	WOnder what next week will bring	257375930	1478869384495	1478869384690	 	32
503978	5422329	Wonder what next week will bring.	WOnder what next week will bring	257375934	1478869384611	1478869384759	w	87
503978	5422329	Wonder what next week will bring.	WOnder what next week will bring	257375932	1478869384665	1478869384738	i	73
503978	5422329	Wonder what next week will bring.	WOnder what next week will bring	257375936	1478869384816	1478869384898	l	76
503978	5422329	Wonder what next week will bring.	WOnder what next week will bring	257375947	1478869384963	1478869385063	l	76
503978	5422329	Wonder what next week will bring.	WOnder what next week will bring	257375952	1478869385013	1478869385225	 	32
503978	5422329	Wonder what next week will bring.	WOnder what next week will bring	257375949	1478869385111	1478869385190	b	66
503978	5422329	Wonder what next week will bring.	WOnder what next week will bring	257375957	1478869385297	1478869385428	r	82
503978	5422329	Wonder what next week will bring.	WOnder what next week will bring	257375960	1478869385355	1478869385429	i	73
503978	5422329	Wonder what next week will bring.	WOnder what next week will bring	257375963	1478869385498	1478869385591	n	78
503978	5422334	I would suggest you and Mark address this together.	I would suggest you and mark address this together	257376037	1478869385610	1478869388480	g	71
503978	5422334	I would suggest you and Mark address this together.	I would suggest you and mark address this together	257375994	1478869386917	1478869387093	SHIFT	16
503978	5422334	I would suggest you and Mark address this together.	I would suggest you and mark address this together	257375995	1478869387022	1478869387093	I	73
503978	5422334	I would suggest you and Mark address this together.	I would suggest you and mark address this together	257375996	1478869387107	1478869387297	 	32
503978	5422334	I would suggest you and Mark address this together.	I would suggest you and mark address this together	257375997	1478869387182	1478869387316	w	87
503978	5422334	I would suggest you and Mark address this together.	I would suggest you and mark address this together	257375998	1478869387253	1478869387332	o	79
503978	5422334	I would suggest you and Mark address this together.	I would suggest you and mark address this together	257375999	1478869387414	1478869387474	u	85
503978	5422334	I would suggest you and Mark address this together.	I would suggest you and mark address this together	257376017	1478869387651	1478869387738	l	76
503978	5422334	I would suggest you and Mark address this together.	I would suggest you and mark address this together	257376018	1478869387771	1478869387885	d	68
503978	5422334	I would suggest you and Mark address this together.	I would suggest you and mark address this together	257376020	1478869387857	1478869388028	 	32
503978	5422334	I would suggest you and Mark address this together.	I would suggest you and mark address this together	257376023	1478869388200	1478869388304	s	83
503978	5422334	I would suggest you and Mark address this together.	I would suggest you and mark address this together	257376036	1478869388282	1478869388367	u	85
503978	5422334	I would suggest you and Mark address this together.	I would suggest you and mark address this together	257376039	1478869388557	1478869388628	g	71
503978	5422334	I would suggest you and Mark address this together.	I would suggest you and mark address this together	257376041	1478869388722	1478869388809	e	69
503978	5422334	I would suggest you and Mark address this together.	I would suggest you and mark address this together	257376043	1478869388886	1478869388960	s	83
503978	5422334	I would suggest you and Mark address this together.	I would suggest you and mark address this together	257376045	1478869389080	1478869389180	t	84
503978	5422334	I would suggest you and Mark address this together.	I would suggest you and mark address this together	257376049	1478869389180	1478869389409	 	32
503978	5422334	I would suggest you and Mark address this together.	I would suggest you and mark address this together	257376060	1478869389285	1478869389410	y	89
503978	5422334	I would suggest you and Mark address this together.	I would suggest you and mark address this together	257376061	1478869389319	1478869389410	o	79
503978	5422334	I would suggest you and Mark address this together.	I would suggest you and mark address this together	257376062	1478869389505	1478869389569	u	85
503978	5422334	I would suggest you and Mark address this together.	I would suggest you and mark address this together	257376064	1478869389570	1478869389734	 	32
503978	5422334	I would suggest you and Mark address this together.	I would suggest you and mark address this together	257376067	1478869389648	1478869389790	a	65
503978	5422334	I would suggest you and Mark address this together.	I would suggest you and mark address this together	257376070	1478869389735	1478869389825	n	78
503978	5422334	I would suggest you and Mark address this together.	I would suggest you and mark address this together	257376074	1478869389825	1478869389984	d	68
503978	5422334	I would suggest you and Mark address this together.	I would suggest you and mark address this together	257376160	1478869389873	1478869390065	 	32
503978	5422334	I would suggest you and Mark address this together.	I would suggest you and mark address this together	257376159	1478869389963	1478869390056	m	77
503978	5422334	I would suggest you and Mark address this together.	I would suggest you and mark address this together	257376161	1478869390419	1478869390568	a	65
503978	5422334	I would suggest you and Mark address this together.	I would suggest you and mark address this together	257376162	1478869390524	1478869390569	k	75
503978	5422334	I would suggest you and Mark address this together.	I would suggest you and mark address this together	257376164	1478869390573	1478869390681	r	82
503978	5422334	I would suggest you and Mark address this together.	I would suggest you and mark address this together	257376163	1478869390615	1478869390660	e	69
503978	5422334	I would suggest you and Mark address this together.	I would suggest you and mark address this together	257376165	1478869391213	1478869391284	BKSP	8
503978	5422334	I would suggest you and Mark address this together.	I would suggest you and mark address this together	257376166	1478869391366	1478869391444	BKSP	8
503978	5422334	I would suggest you and Mark address this together.	I would suggest you and mark address this together	257376167	1478869391516	1478869392279	BKSP	8
503978	5422334	I would suggest you and Mark address this together.	I would suggest you and mark address this together	257376168	1478869392378	1478869392450	BKSP	8
503978	5422334	I would suggest you and Mark address this together.	I would suggest you and mark address this together	257376170	1478869392535	1478869392601	BKSP	8
503978	5422334	I would suggest you and Mark address this together.	I would suggest you and mark address this together	257376172	1478869392662	1478869392738	BKSP	8
503978	5422334	I would suggest you and Mark address this together.	I would suggest you and mark address this together	257376174	1478869392804	1478869392871	BKSP	8
503978	5422334	I would suggest you and Mark address this together.	I would suggest you and mark address this together	257376176	1478869392933	1478869392999	BKSP	8
503978	5422334	I would suggest you and Mark address this together.	I would suggest you and mark address this together	257376178	1478869393079	1478869393128	BKSP	8
503978	5422334	I would suggest you and Mark address this together.	I would suggest you and mark address this together	257376179	1478869393221	1478869393292	BKSP	8
503978	5422334	I would suggest you and Mark address this together.	I would suggest you and mark address this together	257376181	1478869393525	1478869393622	BKSP	8
503978	5422334	I would suggest you and Mark address this together.	I would suggest you and mark address this together	257376183	1478869393713	1478869393790	u	85
503978	5422334	I would suggest you and Mark address this together.	I would suggest you and mark address this together	257376191	1478869393938	1478869394003	g	71
503978	5422334	I would suggest you and Mark address this together.	I would suggest you and mark address this together	257376193	1478869394080	1478869394163	g	71
503978	5422334	I would suggest you and Mark address this together.	I would suggest you and mark address this together	257376195	1478869394181	1478869394261	e	69
503978	5422334	I would suggest you and Mark address this together.	I would suggest you and mark address this together	257376198	1478869394346	1478869394414	s	83
503978	5422334	I would suggest you and Mark address this together.	I would suggest you and mark address this together	257376202	1478869394506	1478869394592	t	84
503978	5422334	I would suggest you and Mark address this together.	I would suggest you and mark address this together	257376228	1478869394593	1478869394672	 	32
503978	5422334	I would suggest you and Mark address this together.	I would suggest you and mark address this together	257376230	1478869395404	1478869395523	y	89
503978	5422334	I would suggest you and Mark address this together.	I would suggest you and mark address this together	257376231	1478869395469	1478869395546	o	79
503978	5422334	I would suggest you and Mark address this together.	I would suggest you and mark address this together	257376232	1478869395614	1478869395696	u	85
503978	5422334	I would suggest you and Mark address this together.	I would suggest you and mark address this together	257376244	1478869395656	1478869395807	 	32
503978	5422334	I would suggest you and Mark address this together.	I would suggest you and mark address this together	257376245	1478869395751	1478869395846	a	65
503978	5422334	I would suggest you and Mark address this together.	I would suggest you and mark address this together	257376246	1478869395898	1478869395972	n	78
503978	5422334	I would suggest you and Mark address this together.	I would suggest you and mark address this together	257376248	1478869395986	1478869396113	d	68
503978	5422334	I would suggest you and Mark address this together.	I would suggest you and mark address this together	257376252	1478869396055	1478869396228	 	32
503978	5422334	I would suggest you and Mark address this together.	I would suggest you and mark address this together	257376270	1478869396172	1478869396254	m	77
503978	5422334	I would suggest you and Mark address this together.	I would suggest you and mark address this together	257376273	1478869396286	1478869396380	a	65
503978	5422334	I would suggest you and Mark address this together.	I would suggest you and mark address this together	257376277	1478869396420	1478869396546	r	82
503978	5422334	I would suggest you and Mark address this together.	I would suggest you and mark address this together	257376283	1478869396490	1478869396584	k	75
503978	5422334	I would suggest you and Mark address this together.	I would suggest you and mark address this together	257376287	1478869396546	1478869396754	 	32
503978	5422334	I would suggest you and Mark address this together.	I would suggest you and mark address this together	257376293	1478869396829	1478869396931	a	65
503978	5422334	I would suggest you and Mark address this together.	I would suggest you and mark address this together	257376308	1478869396980	1478869397065	d	68
503978	5422334	I would suggest you and Mark address this together.	I would suggest you and mark address this together	257376311	1478869397142	1478869397212	d	68
503978	5422334	I would suggest you and Mark address this together.	I would suggest you and mark address this together	257376314	1478869397319	1478869397395	r	82
503978	5422334	I would suggest you and Mark address this together.	I would suggest you and mark address this together	257376315	1478869397495	1478869397590	e	69
503978	5422334	I would suggest you and Mark address this together.	I would suggest you and mark address this together	257376317	1478869397662	1478869397731	s	83
503978	5422334	I would suggest you and Mark address this together.	I would suggest you and mark address this together	257376325	1478869397807	1478869397898	s	83
503978	5422334	I would suggest you and Mark address this together.	I would suggest you and mark address this together	257376326	1478869397898	1478869398093	 	32
503978	5422334	I would suggest you and Mark address this together.	I would suggest you and mark address this together	257376327	1478869397997	1478869398113	t	84
503978	5422334	I would suggest you and Mark address this together.	I would suggest you and mark address this together	257376328	1478869398093	1478869398142	h	72
503978	5422334	I would suggest you and Mark address this together.	I would suggest you and mark address this together	257376329	1478869398228	1478869398306	i	73
503978	5422334	I would suggest you and Mark address this together.	I would suggest you and mark address this together	257376335	1478869398280	1478869398371	s	83
503978	5422334	I would suggest you and Mark address this together.	I would suggest you and mark address this together	257376338	1478869398335	1478869398489	 	32
503978	5422334	I would suggest you and Mark address this together.	I would suggest you and mark address this together	257376342	1478869398577	1478869398686	t	84
503978	5422334	I would suggest you and Mark address this together.	I would suggest you and mark address this together	257376348	1478869398686	1478869398774	o	79
503978	5422334	I would suggest you and Mark address this together.	I would suggest you and mark address this together	257376355	1478869398774	1478869398852	g	71
503978	5422334	I would suggest you and Mark address this together.	I would suggest you and mark address this together	257376361	1478869398936	1478869399023	e	69
503978	5422334	I would suggest you and Mark address this together.	I would suggest you and mark address this together	257376376	1478869399104	1478869399178	t	84
503978	5422334	I would suggest you and Mark address this together.	I would suggest you and mark address this together	257376380	1478869399178	1478869399271	h	72
503978	5422334	I would suggest you and Mark address this together.	I would suggest you and mark address this together	257376382	1478869399271	1478869399348	e	69
503978	5422340	Treasa knows the details.	Tresa knows the details	257376470	1478869399419	1478869401649	r	82
503978	5422340	Treasa knows the details.	Tresa knows the details	257376452	1478869400561	1478869400763	SHIFT	16
503978	5422340	Treasa knows the details.	Tresa knows the details	257376455	1478869400681	1478869400788	T	84
503978	5422340	Treasa knows the details.	Tresa knows the details	257376461	1478869400939	1478869401032	e	69
503978	5422340	Treasa knows the details.	Tresa knows the details	257376465	1478869401498	1478869401597	BKSP	8
503978	5422340	Treasa knows the details.	Tresa knows the details	257376474	1478869402105	1478869402170	BKSP	8
503978	5422340	Treasa knows the details.	Tresa knows the details	257376476	1478869402228	1478869402401	SHIFT	16
503978	5422340	Treasa knows the details.	Tresa knows the details	257376479	1478869402321	1478869402420	T	84
503978	5422340	Treasa knows the details.	Tresa knows the details	257376482	1478869402508	1478869402605	r	82
503978	5422340	Treasa knows the details.	Tresa knows the details	257376484	1478869402690	1478869402786	e	69
503978	5422340	Treasa knows the details.	Tresa knows the details	257376486	1478869402980	1478869403151	s	83
503978	5422340	Treasa knows the details.	Tresa knows the details	257376487	1478869403104	1478869403224	a	65
503978	5422340	Treasa knows the details.	Tresa knows the details	257376490	1478869403254	1478869403343	 	32
503978	5422340	Treasa knows the details.	Tresa knows the details	257376493	1478869403645	1478869403719	k	75
503978	5422340	Treasa knows the details.	Tresa knows the details	257376496	1478869403805	1478869403872	n	78
503978	5422340	Treasa knows the details.	Tresa knows the details	257376506	1478869403969	1478869404042	o	79
503978	5422340	Treasa knows the details.	Tresa knows the details	257376507	1478869404032	1478869404118	w	87
503978	5422340	Treasa knows the details.	Tresa knows the details	257376508	1478869404197	1478869404287	s	83
503978	5422340	Treasa knows the details.	Tresa knows the details	257376509	1478869404287	1478869404462	 	32
503978	5422340	Treasa knows the details.	Tresa knows the details	257376535	1478869404398	1478869404483	t	84
503978	5422340	Treasa knows the details.	Tresa knows the details	257376537	1478869404438	1478869404520	h	72
503978	5422340	Treasa knows the details.	Tresa knows the details	257376538	1478869404564	1478869404658	e	69
503978	5422340	Treasa knows the details.	Tresa knows the details	257376540	1478869404631	1478869404820	 	32
503978	5422340	Treasa knows the details.	Tresa knows the details	257376539	1478869404735	1478869404806	d	68
503978	5422340	Treasa knows the details.	Tresa knows the details	257376541	1478869404882	1478869404974	e	69
503978	5422340	Treasa knows the details.	Tresa knows the details	257376543	1478869405066	1478869405234	t	84
503978	5422340	Treasa knows the details.	Tresa knows the details	257376548	1478869405234	1478869405386	a	65
503978	5422340	Treasa knows the details.	Tresa knows the details	257376549	1478869405386	1478869405463	i	73
503978	5422340	Treasa knows the details.	Tresa knows the details	257376550	1478869405554	1478869405641	l	76
503978	5422344	A bad thing has been turned into a good thing.	A bad thing hs been turned into a good thing	257376645	1478869405625	1478869408525	s	83
503978	5422344	A bad thing has been turned into a good thing.	A bad thing hs been turned into a good thing	257376591	1478869406796	1478869406980	SHIFT	16
503978	5422344	A bad thing has been turned into a good thing.	A bad thing hs been turned into a good thing	257376592	1478869406898	1478869407020	A	65
503978	5422344	A bad thing has been turned into a good thing.	A bad thing hs been turned into a good thing	257376593	1478869407063	1478869407141	 	32
503978	5422344	A bad thing has been turned into a good thing.	A bad thing hs been turned into a good thing	257376594	1478869407218	1478869407295	b	66
503978	5422344	A bad thing has been turned into a good thing.	A bad thing hs been turned into a good thing	257376595	1478869407296	1478869407419	a	65
503978	5422344	A bad thing has been turned into a good thing.	A bad thing hs been turned into a good thing	257376610	1478869407420	1478869407507	 	68
503978	5422344	A bad thing has been turned into a good thing.	A bad thing hs been turned into a good thing	257376612	1478869407636	1478869407745	t	84
503978	5422344	A bad thing has been turned into a good thing.	A bad thing hs been turned into a good thing	257376615	1478869407689	1478869407770	h	72
503978	5422344	A bad thing has been turned into a good thing.	A bad thing hs been turned into a good thing	257376618	1478869407848	1478869407927	i	73
503978	5422344	A bad thing has been turned into a good thing.	A bad thing hs been turned into a good thing	257376621	1478869407990	1478869408084	n	78
503978	5422344	A bad thing has been turned into a good thing.	A bad thing hs been turned into a good thing	257376631	1478869408051	1478869408174	g	71
503978	5422344	A bad thing has been turned into a good thing.	A bad thing hs been turned into a good thing	257376634	1478869408104	1478869408260	 	32
503978	5422344	A bad thing has been turned into a good thing.	A bad thing hs been turned into a good thing	257376638	1478869408208	1478869408310	h	72
503978	5422344	A bad thing has been turned into a good thing.	A bad thing hs been turned into a good thing	257376642	1478869408310	1478869408470	a	65
503978	5422344	A bad thing has been turned into a good thing.	A bad thing hs been turned into a good thing	257376647	1478869408470	1478869408549	 	32
503978	5422344	A bad thing has been turned into a good thing.	A bad thing hs been turned into a good thing	257376650	1478869408637	1478869408722	b	66
503978	5422344	A bad thing has been turned into a good thing.	A bad thing hs been turned into a good thing	257376660	1478869408723	1478869408787	e	69
503978	5422344	A bad thing has been turned into a good thing.	A bad thing hs been turned into a good thing	257376664	1478869408864	1478869408986	e	69
503978	5422344	A bad thing has been turned into a good thing.	A bad thing hs been turned into a good thing	257376666	1478869408928	1478869409014	n	78
503978	5422344	A bad thing has been turned into a good thing.	A bad thing hs been turned into a good thing	257376675	1478869409014	1478869409218	 	32
503978	5422344	A bad thing has been turned into a good thing.	A bad thing hs been turned into a good thing	257376669	1478869409109	1478869409195	t	84
503978	5422344	A bad thing has been turned into a good thing.	A bad thing hs been turned into a good thing	257376676	1478869409143	1478869409238	u	85
503978	5422344	A bad thing has been turned into a good thing.	A bad thing hs been turned into a good thing	257376677	1478869409289	1478869409379	r	82
503978	5422344	A bad thing has been turned into a good thing.	A bad thing hs been turned into a good thing	257376678	1478869409329	1478869409417	n	78
503978	5422344	A bad thing has been turned into a good thing.	A bad thing hs been turned into a good thing	257376679	1478869409456	1478869409550	e	69
503978	5422344	A bad thing has been turned into a good thing.	A bad thing hs been turned into a good thing	257376680	1478869409621	1478869409743	d	68
503978	5422344	A bad thing has been turned into a good thing.	A bad thing hs been turned into a good thing	257376693	1478869409651	1478869409861	 	32
503978	5422344	A bad thing has been turned into a good thing.	A bad thing hs been turned into a good thing	257376690	1478869409744	1478869409805	i	73
503978	5422344	A bad thing has been turned into a good thing.	A bad thing hs been turned into a good thing	257376696	1478869409887	1478869409939	n	78
503978	5422344	A bad thing has been turned into a good thing.	A bad thing hs been turned into a good thing	257376699	1478869409977	1478869410121	t	84
503978	5422344	A bad thing has been turned into a good thing.	A bad thing hs been turned into a good thing	257376702	1478869410047	1478869410121	o	79
503978	5422344	A bad thing has been turned into a good thing.	A bad thing hs been turned into a good thing	257376705	1478869410216	1478869410293	 	32
503978	5422344	A bad thing has been turned into a good thing.	A bad thing hs been turned into a good thing	257376708	1478869410309	1478869410425	a	65
503978	5422344	A bad thing has been turned into a good thing.	A bad thing hs been turned into a good thing	257376709	1478869410379	1478869410458	 	32
503978	5422344	A bad thing has been turned into a good thing.	A bad thing hs been turned into a good thing	257376711	1478869410489	1478869410603	g	71
503978	5422344	A bad thing has been turned into a good thing.	A bad thing hs been turned into a good thing	257376714	1478869410560	1478869410634	o	79
503978	5422344	A bad thing has been turned into a good thing.	A bad thing hs been turned into a good thing	257376718	1478869410699	1478869410809	o	79
503978	5422344	A bad thing has been turned into a good thing.	A bad thing hs been turned into a good thing	257376734	1478869410787	1478869410892	d	68
503978	5422344	A bad thing has been turned into a good thing.	A bad thing hs been turned into a good thing	257376736	1478869410892	1478869411087	 	32
503978	5422344	A bad thing has been turned into a good thing.	A bad thing hs been turned into a good thing	257376741	1478869410982	1478869411140	t	84
503978	5422344	A bad thing has been turned into a good thing.	A bad thing hs been turned into a good thing	257376738	1478869411041	1478869411115	h	72
503978	5422344	A bad thing has been turned into a good thing.	A bad thing hs been turned into a good thing	257376744	1478869411184	1478869411261	i	73
503978	5422344	A bad thing has been turned into a good thing.	A bad thing hs been turned into a good thing	257376745	1478869411346	1478869411414	n	78
503978	5422348	The meeting was very beneficial.	The meeting was very beneficial	257376791	1478869411415	1478869413891	g	71
503978	5422348	The meeting was very beneficial.	The meeting was very beneficial	257376764	1478869412353	1478869412688	SHIFT	16
503978	5422348	The meeting was very beneficial.	The meeting was very beneficial	257376765	1478869412616	1478869412737	T	84
503978	5422348	The meeting was very beneficial.	The meeting was very beneficial	257376767	1478869412767	1478869412830	h	72
503978	5422348	The meeting was very beneficial.	The meeting was very beneficial	257376769	1478869412863	1478869413008	e	69
503978	5422348	The meeting was very beneficial.	The meeting was very beneficial	257376771	1478869412945	1478869413026	 	32
503978	5422348	The meeting was very beneficial.	The meeting was very beneficial	257376773	1478869413116	1478869413189	m	77
503978	5422348	The meeting was very beneficial.	The meeting was very beneficial	257376776	1478869413159	1478869413236	e	69
503978	5422348	The meeting was very beneficial.	The meeting was very beneficial	257376777	1478869413298	1478869413398	e	69
503978	5422348	The meeting was very beneficial.	The meeting was very beneficial	257376782	1478869413481	1478869413606	t	84
503978	5422348	The meeting was very beneficial.	The meeting was very beneficial	257376785	1478869413548	1478869413639	i	73
503978	5422348	The meeting was very beneficial.	The meeting was very beneficial	257376788	1478869413712	1478869413792	n	78
503978	5422348	The meeting was very beneficial.	The meeting was very beneficial	257376794	1478869413891	1478869413993	 	32
503978	5422348	The meeting was very beneficial.	The meeting was very beneficial	257376797	1478869413994	1478869414092	w	87
503978	5422348	The meeting was very beneficial.	The meeting was very beneficial	257376793	1478869414041	1478869414070	s	83
503978	5422348	The meeting was very beneficial.	The meeting was very beneficial	257376799	1478869414092	1478869414245	a	65
503978	5422348	The meeting was very beneficial.	The meeting was very beneficial	257376801	1478869414206	1478869414333	s	83
503978	5422348	The meeting was very beneficial.	The meeting was very beneficial	257376842	1478869414264	1478869414366	 	32
503978	5422348	The meeting was very beneficial.	The meeting was very beneficial	257376845	1478869414551	1478869414619	BKSP	8
503978	5422348	The meeting was very beneficial.	The meeting was very beneficial	257376847	1478869414716	1478869414784	BKSP	8
503978	5422348	The meeting was very beneficial.	The meeting was very beneficial	257376850	1478869414839	1478869414929	BKSP	8
503978	5422348	The meeting was very beneficial.	The meeting was very beneficial	257376854	1478869414989	1478869415050	BKSP	8
503978	5422348	The meeting was very beneficial.	The meeting was very beneficial	257376859	1478869415118	1478869415202	BKSP	8
503978	5422348	The meeting was very beneficial.	The meeting was very beneficial	257376863	1478869415276	1478869415339	BKSP	8
503978	5422348	The meeting was very beneficial.	The meeting was very beneficial	257376866	1478869415397	1478869415504	BKSP	8
503978	5422348	The meeting was very beneficial.	The meeting was very beneficial	257376867	1478869415590	1478869415669	n	78
503978	5422348	The meeting was very beneficial.	The meeting was very beneficial	257376869	1478869415669	1478869415761	g	71
503978	5422348	The meeting was very beneficial.	The meeting was very beneficial	257376870	1478869415785	1478869415888	 	32
503978	5422348	The meeting was very beneficial.	The meeting was very beneficial	257376871	1478869415906	1478869416043	w	87
503978	5422348	The meeting was very beneficial.	The meeting was very beneficial	257376885	1478869416023	1478869416176	a	65
503978	5422348	The meeting was very beneficial.	The meeting was very beneficial	257376887	1478869416128	1478869416249	s	83
503978	5422348	The meeting was very beneficial.	The meeting was very beneficial	257376889	1478869416209	1478869416310	 	32
503978	5422348	The meeting was very beneficial.	The meeting was very beneficial	257376890	1478869416366	1478869416440	v	86
503978	5422348	The meeting was very beneficial.	The meeting was very beneficial	257376891	1478869416542	1478869416621	e	69
503978	5422348	The meeting was very beneficial.	The meeting was very beneficial	257376892	1478869416690	1478869416815	r	82
503978	5422348	The meeting was very beneficial.	The meeting was very beneficial	257376897	1478869416754	1478869416815	y	89
503978	5422348	The meeting was very beneficial.	The meeting was very beneficial	257376900	1478869416830	1478869416989	 	32
503978	5422348	The meeting was very beneficial.	The meeting was very beneficial	257376903	1478869416952	1478869417029	b	66
503978	5422348	The meeting was very beneficial.	The meeting was very beneficial	257376905	1478869417062	1478869417151	e	69
503978	5422348	The meeting was very beneficial.	The meeting was very beneficial	257376908	1478869417184	1478869417263	n	78
503978	5422348	The meeting was very beneficial.	The meeting was very beneficial	257376924	1478869417244	1478869417347	e	69
503978	5422348	The meeting was very beneficial.	The meeting was very beneficial	257376926	1478869417439	1478869417556	f	70
503978	5422348	The meeting was very beneficial.	The meeting was very beneficial	257376930	1478869417556	1478869417642	i	73
503978	5422348	The meeting was very beneficial.	The meeting was very beneficial	257376934	1478869417666	1478869417785	c	67
503978	5422348	The meeting was very beneficial.	The meeting was very beneficial	257376936	1478869417717	1478869417829	i	73
503978	5422348	The meeting was very beneficial.	The meeting was very beneficial	257376940	1478869417875	1478869418000	a	65
503978	5422348	The meeting was very beneficial.	The meeting was very beneficial	257376931	1478869417984	1478869418087	l	76
503978	5422354	Looking for some gift hints from you.	Looking for some gift hints from you.	257377000	1478869419101	1478869419237	SHIFT	16
503978	5422354	Looking for some gift hints from you.	Looking for some gift hints from you.	257377001	1478869419181	1478869419252	L	76
503978	5422354	Looking for some gift hints from you.	Looking for some gift hints from you.	257377002	1478869419344	1478869419406	o	79
503978	5422354	Looking for some gift hints from you.	Looking for some gift hints from you.	257377003	1478869419471	1478869419557	o	79
503978	5422354	Looking for some gift hints from you.	Looking for some gift hints from you.	257377004	1478869419630	1478869419690	k	75
503978	5422354	Looking for some gift hints from you.	Looking for some gift hints from you.	257377006	1478869419752	1478869419822	i	73
503978	5422354	Looking for some gift hints from you.	Looking for some gift hints from you.	257377020	1478869419901	1478869419994	n	78
503978	5422354	Looking for some gift hints from you.	Looking for some gift hints from you.	257377021	1478869420052	1478869420181	g	71
503978	5422354	Looking for some gift hints from you.	Looking for some gift hints from you.	257377023	1478869420181	1478869420377	 	32
503978	5422354	Looking for some gift hints from you.	Looking for some gift hints from you.	257377026	1478869420300	1478869420405	f	70
503978	5422354	Looking for some gift hints from you.	Looking for some gift hints from you.	257377029	1478869420416	1478869420518	o	79
503978	5422354	Looking for some gift hints from you.	Looking for some gift hints from you.	257377039	1478869420518	1478869420618	r	82
503978	5422354	Looking for some gift hints from you.	Looking for some gift hints from you.	257377043	1478869420596	1478869420796	 	32
503978	5422354	Looking for some gift hints from you.	Looking for some gift hints from you.	257377046	1478869420720	1478869420850	s	83
503978	5422354	Looking for some gift hints from you.	Looking for some gift hints from you.	257377050	1478869420796	1478869420867	o	79
503978	5422354	Looking for some gift hints from you.	Looking for some gift hints from you.	257377053	1478869420940	1478869421040	m	77
503978	5422354	Looking for some gift hints from you.	Looking for some gift hints from you.	257377070	1478869420996	1478869421084	e	69
503978	5422354	Looking for some gift hints from you.	Looking for some gift hints from you.	257377076	1478869421084	1478869421329	 	32
503978	5422354	Looking for some gift hints from you.	Looking for some gift hints from you.	257377072	1478869421191	1478869421292	g	71
503978	5422354	Looking for some gift hints from you.	Looking for some gift hints from you.	257377079	1478869421271	1478869421353	i	73
503978	5422354	Looking for some gift hints from you.	Looking for some gift hints from you.	257377081	1478869421383	1478869421473	f	70
503978	5422354	Looking for some gift hints from you.	Looking for some gift hints from you.	257377082	1478869421544	1478869421676	t	84
503978	5422354	Looking for some gift hints from you.	Looking for some gift hints from you.	257377102	1478869421640	1478869421817	 	32
503978	5422354	Looking for some gift hints from you.	Looking for some gift hints from you.	257377100	1478869421727	1478869421808	h	72
503978	5422354	Looking for some gift hints from you.	Looking for some gift hints from you.	257377105	1478869421914	1478869421995	i	73
503978	5422354	Looking for some gift hints from you.	Looking for some gift hints from you.	257377107	1478869422064	1478869422155	n	78
503978	5422354	Looking for some gift hints from you.	Looking for some gift hints from you.	257377109	1478869422116	1478869422214	t	84
503978	5422354	Looking for some gift hints from you.	Looking for some gift hints from you.	257377112	1478869422315	1478869422397	s	83
503978	5422354	Looking for some gift hints from you.	Looking for some gift hints from you.	257377131	1478869422398	1478869422572	 	32
503978	5422354	Looking for some gift hints from you.	Looking for some gift hints from you.	257377132	1478869422506	1478869422611	f	70
503978	5422354	Looking for some gift hints from you.	Looking for some gift hints from you.	257377134	1478869422705	1478869422856	r	82
503978	5422354	Looking for some gift hints from you.	Looking for some gift hints from you.	257377133	1478869422768	1478869422841	o	79
503978	5422354	Looking for some gift hints from you.	Looking for some gift hints from you.	257377136	1478869422940	1478869423005	m	77
503978	5422354	Looking for some gift hints from you.	Looking for some gift hints from you.	257377139	1478869423006	1478869423213	 	32
503978	5422354	Looking for some gift hints from you.	Looking for some gift hints from you.	257377137	1478869423061	1478869423212	y	89
503978	5422354	Looking for some gift hints from you.	Looking for some gift hints from you.	257377141	1478869423114	1478869423213	o	79
503978	5422354	Looking for some gift hints from you.	Looking for some gift hints from you.	257377143	1478869423270	1478869423316	u	85
503978	5422357	These factors dictate clear limits to the concept of safe areas.	These factors dictate clear limits to the concept of safe areas.	257377484	1478869423448	1478869433338	.	190
503978	5422357	These factors dictate clear limits to the concept of safe areas.	These factors dictate clear limits to the concept of safe areas.	257377187	1478869424576	1478869424730	SHIFT	16
503978	5422357	These factors dictate clear limits to the concept of safe areas.	These factors dictate clear limits to the concept of safe areas.	257377188	1478869424661	1478869424769	T	84
503978	5422357	These factors dictate clear limits to the concept of safe areas.	These factors dictate clear limits to the concept of safe areas.	257377189	1478869424769	1478869424829	h	72
503978	5422357	These factors dictate clear limits to the concept of safe areas.	These factors dictate clear limits to the concept of safe areas.	257377190	1478869424851	1478869424939	e	69
503978	5422357	These factors dictate clear limits to the concept of safe areas.	These factors dictate clear limits to the concept of safe areas.	257377191	1478869425021	1478869425087	r	82
503978	5422357	These factors dictate clear limits to the concept of safe areas.	These factors dictate clear limits to the concept of safe areas.	257377192	1478869425374	1478869425457	BKSP	8
503978	5422357	These factors dictate clear limits to the concept of safe areas.	These factors dictate clear limits to the concept of safe areas.	257377221	1478869425436	1478869425521	s	83
503978	5422357	These factors dictate clear limits to the concept of safe areas.	These factors dictate clear limits to the concept of safe areas.	257377223	1478869425604	1478869425701	e	69
503978	5422357	These factors dictate clear limits to the concept of safe areas.	These factors dictate clear limits to the concept of safe areas.	257377224	1478869425675	1478869425773	 	32
503978	5422357	These factors dictate clear limits to the concept of safe areas.	These factors dictate clear limits to the concept of safe areas.	257377225	1478869425960	1478869426088	f	70
503978	5422357	These factors dictate clear limits to the concept of safe areas.	These factors dictate clear limits to the concept of safe areas.	257377226	1478869426115	1478869426238	a	65
503978	5422357	These factors dictate clear limits to the concept of safe areas.	These factors dictate clear limits to the concept of safe areas.	257377227	1478869426238	1478869426307	c	67
503978	5422357	These factors dictate clear limits to the concept of safe areas.	These factors dictate clear limits to the concept of safe areas.	257377240	1478869426410	1478869426509	t	84
503978	5422357	These factors dictate clear limits to the concept of safe areas.	These factors dictate clear limits to the concept of safe areas.	257377241	1478869426491	1478869426571	o	79
503978	5422357	These factors dictate clear limits to the concept of safe areas.	These factors dictate clear limits to the concept of safe areas.	257377242	1478869426571	1478869426674	r	82
503978	5422357	These factors dictate clear limits to the concept of safe areas.	These factors dictate clear limits to the concept of safe areas.	257377243	1478869426758	1478869426853	s	83
503978	5422357	These factors dictate clear limits to the concept of safe areas.	These factors dictate clear limits to the concept of safe areas.	257377270	1478869426834	1478869426922	 	32
503978	5422357	These factors dictate clear limits to the concept of safe areas.	These factors dictate clear limits to the concept of safe areas.	257377271	1478869427265	1478869427382	d	68
503978	5422357	These factors dictate clear limits to the concept of safe areas.	These factors dictate clear limits to the concept of safe areas.	257377272	1478869427382	1478869427472	i	73
503978	5422357	These factors dictate clear limits to the concept of safe areas.	These factors dictate clear limits to the concept of safe areas.	257377273	1478869427499	1478869427598	c	67
503978	5422357	These factors dictate clear limits to the concept of safe areas.	These factors dictate clear limits to the concept of safe areas.	257377274	1478869427730	1478869427862	t	84
503978	5422357	These factors dictate clear limits to the concept of safe areas.	These factors dictate clear limits to the concept of safe areas.	257377275	1478869427862	1478869427978	a	65
503978	5422357	These factors dictate clear limits to the concept of safe areas.	These factors dictate clear limits to the concept of safe areas.	257377282	1478869427957	1478869428065	t	84
503978	5422357	These factors dictate clear limits to the concept of safe areas.	These factors dictate clear limits to the concept of safe areas.	257377283	1478869428141	1478869428244	e	69
503978	5422357	These factors dictate clear limits to the concept of safe areas.	These factors dictate clear limits to the concept of safe areas.	257377284	1478869428244	1478869428313	 	32
503978	5422357	These factors dictate clear limits to the concept of safe areas.	These factors dictate clear limits to the concept of safe areas.	257377285	1478869428333	1478869428423	c	67
503978	5422357	These factors dictate clear limits to the concept of safe areas.	These factors dictate clear limits to the concept of safe areas.	257377286	1478869428451	1478869428534	l	76
503978	5422357	These factors dictate clear limits to the concept of safe areas.	These factors dictate clear limits to the concept of safe areas.	257377287	1478869428534	1478869428649	e	69
503978	5422357	These factors dictate clear limits to the concept of safe areas.	These factors dictate clear limits to the concept of safe areas.	257377319	1478869428630	1478869428769	a	65
503978	5422357	These factors dictate clear limits to the concept of safe areas.	These factors dictate clear limits to the concept of safe areas.	257377321	1478869428748	1478869428893	r	82
503978	5422357	These factors dictate clear limits to the concept of safe areas.	These factors dictate clear limits to the concept of safe areas.	257377326	1478869428988	1478869429153	 	32
503978	5422357	These factors dictate clear limits to the concept of safe areas.	These factors dictate clear limits to the concept of safe areas.	257377330	1478869429116	1478869429183	l	76
503978	5422357	These factors dictate clear limits to the concept of safe areas.	These factors dictate clear limits to the concept of safe areas.	257377332	1478869429278	1478869429344	i	73
503978	5422357	These factors dictate clear limits to the concept of safe areas.	These factors dictate clear limits to the concept of safe areas.	257377334	1478869429426	1478869429470	m	77
503978	5422357	These factors dictate clear limits to the concept of safe areas.	These factors dictate clear limits to the concept of safe areas.	257377337	1478869429568	1478869429656	i	73
503978	5422357	These factors dictate clear limits to the concept of safe areas.	These factors dictate clear limits to the concept of safe areas.	257377339	1478869429605	1478869429696	t	84
503978	5422357	These factors dictate clear limits to the concept of safe areas.	These factors dictate clear limits to the concept of safe areas.	257377342	1478869429816	1478869429893	s	83
503978	5422357	These factors dictate clear limits to the concept of safe areas.	These factors dictate clear limits to the concept of safe areas.	257377346	1478869429893	1478869430069	 	32
503978	5422357	These factors dictate clear limits to the concept of safe areas.	These factors dictate clear limits to the concept of safe areas.	257377360	1478869430011	1478869430116	t	84
503978	5422357	These factors dictate clear limits to the concept of safe areas.	These factors dictate clear limits to the concept of safe areas.	257377363	1478869430070	1478869430152	o	79
503978	5422357	These factors dictate clear limits to the concept of safe areas.	These factors dictate clear limits to the concept of safe areas.	257377365	1478869430182	1478869430368	 	32
503978	5422357	These factors dictate clear limits to the concept of safe areas.	These factors dictate clear limits to the concept of safe areas.	257377369	1478869430346	1478869430460	t	84
503978	5422357	These factors dictate clear limits to the concept of safe areas.	These factors dictate clear limits to the concept of safe areas.	257377372	1478869430480	1478869430565	h	72
503978	5422357	These factors dictate clear limits to the concept of safe areas.	These factors dictate clear limits to the concept of safe areas.	257377374	1478869430565	1478869430673	e	69
503978	5422357	These factors dictate clear limits to the concept of safe areas.	These factors dictate clear limits to the concept of safe areas.	257377382	1478869430648	1478869430905	 	32
503978	5422357	These factors dictate clear limits to the concept of safe areas.	These factors dictate clear limits to the concept of safe areas.	257377384	1478869430773	1478869430905	c	67
503978	5422357	These factors dictate clear limits to the concept of safe areas.	These factors dictate clear limits to the concept of safe areas.	257377386	1478869430840	1478869430905	o	79
503978	5422357	These factors dictate clear limits to the concept of safe areas.	These factors dictate clear limits to the concept of safe areas.	257377388	1478869431007	1478869431078	n	78
503978	5422357	These factors dictate clear limits to the concept of safe areas.	These factors dictate clear limits to the concept of safe areas.	257377389	1478869431078	1478869431160	c	67
503978	5422357	These factors dictate clear limits to the concept of safe areas.	These factors dictate clear limits to the concept of safe areas.	257377390	1478869431256	1478869431352	e	69
503978	5422357	These factors dictate clear limits to the concept of safe areas.	These factors dictate clear limits to the concept of safe areas.	257377394	1478869431353	1478869431435	p	80
503978	5422357	These factors dictate clear limits to the concept of safe areas.	These factors dictate clear limits to the concept of safe areas.	257377397	1478869431450	1478869431561	t	84
503978	5422357	These factors dictate clear limits to the concept of safe areas.	These factors dictate clear limits to the concept of safe areas.	257377400	1478869431533	1478869431672	 	32
503978	5422357	These factors dictate clear limits to the concept of safe areas.	These factors dictate clear limits to the concept of safe areas.	257377402	1478869431611	1478869431677	o	79
503978	5422357	These factors dictate clear limits to the concept of safe areas.	These factors dictate clear limits to the concept of safe areas.	257377406	1478869431706	1478869431828	f	70
503978	5422357	These factors dictate clear limits to the concept of safe areas.	These factors dictate clear limits to the concept of safe areas.	257377424	1478869431908	1478869431996	 	32
503978	5422357	These factors dictate clear limits to the concept of safe areas.	These factors dictate clear limits to the concept of safe areas.	257377427	1478869432018	1478869432160	s	83
503978	5422357	These factors dictate clear limits to the concept of safe areas.	These factors dictate clear limits to the concept of safe areas.	257377431	1478869432128	1478869432245	a	65
503978	5422357	These factors dictate clear limits to the concept of safe areas.	These factors dictate clear limits to the concept of safe areas.	257377434	1478869432315	1478869432435	f	70
503978	5422357	These factors dictate clear limits to the concept of safe areas.	These factors dictate clear limits to the concept of safe areas.	257377467	1478869432376	1478869432487	e	69
503978	5422357	These factors dictate clear limits to the concept of safe areas.	These factors dictate clear limits to the concept of safe areas.	257377468	1478869432435	1478869432523	 	32
503978	5422357	These factors dictate clear limits to the concept of safe areas.	These factors dictate clear limits to the concept of safe areas.	257377469	1478869432603	1478869432715	a	65
503978	5422357	These factors dictate clear limits to the concept of safe areas.	These factors dictate clear limits to the concept of safe areas.	257377470	1478869432792	1478869432880	r	82
503978	5422357	These factors dictate clear limits to the concept of safe areas.	These factors dictate clear limits to the concept of safe areas.	257377471	1478869432957	1478869433093	e	69
503978	5422357	These factors dictate clear limits to the concept of safe areas.	These factors dictate clear limits to the concept of safe areas.	257377476	1478869433058	1478869433223	a	65
503978	5422357	These factors dictate clear limits to the concept of safe areas.	These factors dictate clear limits to the concept of safe areas.	257377479	1478869433181	1478869433301	s	83
503978	5422362	Marisa sent the invoices.	Marisa sent the invoices.	257377524	1478869434458	1478869434794	SHIFT	16
503978	5422362	Marisa sent the invoices.	Marisa sent the invoices.	257377523	1478869434680	1478869434760	M	77
503978	5422362	Marisa sent the invoices.	Marisa sent the invoices.	257377526	1478869434948	1478869435036	a	65
503978	5422362	Marisa sent the invoices.	Marisa sent the invoices.	257377529	1478869435083	1478869435173	r	82
503978	5422362	Marisa sent the invoices.	Marisa sent the invoices.	257377532	1478869435158	1478869435241	i	73
503978	5422362	Marisa sent the invoices.	Marisa sent the invoices.	257377536	1478869435281	1478869435435	s	83
503978	5422362	Marisa sent the invoices.	Marisa sent the invoices.	257377557	1478869435378	1478869435520	a	65
503978	5422362	Marisa sent the invoices.	Marisa sent the invoices.	257377558	1478869435482	1478869435560	 	32
503978	5422362	Marisa sent the invoices.	Marisa sent the invoices.	257377559	1478869435620	1478869435683	s	83
503978	5422362	Marisa sent the invoices.	Marisa sent the invoices.	257377560	1478869435785	1478869435889	e	69
503978	5422362	Marisa sent the invoices.	Marisa sent the invoices.	257377561	1478869435889	1478869435966	n	78
503978	5422362	Marisa sent the invoices.	Marisa sent the invoices.	257377563	1478869435981	1478869436073	t	84
503978	5422362	Marisa sent the invoices.	Marisa sent the invoices.	257377567	1478869436073	1478869436144	 	32
503978	5422362	Marisa sent the invoices.	Marisa sent the invoices.	257377568	1478869436144	1478869436248	t	84
503978	5422362	Marisa sent the invoices.	Marisa sent the invoices.	257377569	1478869436249	1478869436319	h	72
503978	5422362	Marisa sent the invoices.	Marisa sent the invoices.	257377570	1478869436320	1478869436455	e	69
503978	5422362	Marisa sent the invoices.	Marisa sent the invoices.	257377586	1478869436418	1478869436580	 	32
503978	5422362	Marisa sent the invoices.	Marisa sent the invoices.	257377583	1478869436501	1478869436565	i	73
503978	5422362	Marisa sent the invoices.	Marisa sent the invoices.	257377589	1478869436648	1478869436727	n	78
503978	5422362	Marisa sent the invoices.	Marisa sent the invoices.	257377592	1478869436750	1478869436860	v	86
503978	5422362	Marisa sent the invoices.	Marisa sent the invoices.	257377596	1478869436845	1478869436907	o	79
503978	5422362	Marisa sent the invoices.	Marisa sent the invoices.	257377600	1478869436989	1478869437072	i	73
503978	5422362	Marisa sent the invoices.	Marisa sent the invoices.	257377608	1478869437054	1478869437130	c	67
503978	5422362	Marisa sent the invoices.	Marisa sent the invoices.	257377610	1478869437213	1478869437314	e	69
503978	5422362	Marisa sent the invoices.	Marisa sent the invoices.	257377611	1478869437389	1478869437513	s	83
503978	5422367	Jason Brookins will start at running back if Allen is inactive.	Jason brookins will start at running back if Allen is inactive.	257377934	1478869437425	1478869449553	.	190
503978	5422367	Jason Brookins will start at running back if Allen is inactive.	Jason brookins will start at running back if Allen is inactive.	257377662	1478869438875	1478869439273	SHIFT	16
503978	5422367	Jason Brookins will start at running back if Allen is inactive.	Jason brookins will start at running back if Allen is inactive.	257377660	1478869439168	1478869439247	J	74
503978	5422367	Jason Brookins will start at running back if Allen is inactive.	Jason brookins will start at running back if Allen is inactive.	257377666	1478869439310	1478869439444	a	65
503978	5422367	Jason Brookins will start at running back if Allen is inactive.	Jason brookins will start at running back if Allen is inactive.	257377674	1478869439399	1478869439572	s	83
503978	5422367	Jason Brookins will start at running back if Allen is inactive.	Jason brookins will start at running back if Allen is inactive.	257377670	1478869439488	1478869439572	o	79
503978	5422367	Jason Brookins will start at running back if Allen is inactive.	Jason brookins will start at running back if Allen is inactive.	257377678	1478869439671	1478869439732	n	78
503978	5422367	Jason Brookins will start at running back if Allen is inactive.	Jason brookins will start at running back if Allen is inactive.	257377704	1478869439713	1478869439949	 	32
503978	5422367	Jason Brookins will start at running back if Allen is inactive.	Jason brookins will start at running back if Allen is inactive.	257377702	1478869439847	1478869439949	b	66
503978	5422367	Jason Brookins will start at running back if Allen is inactive.	Jason brookins will start at running back if Allen is inactive.	257377706	1478869440045	1478869440163	r	82
503978	5422367	Jason Brookins will start at running back if Allen is inactive.	Jason brookins will start at running back if Allen is inactive.	257377707	1478869440117	1478869440215	o	79
503978	5422367	Jason Brookins will start at running back if Allen is inactive.	Jason brookins will start at running back if Allen is inactive.	257377708	1478869440284	1478869440371	o	79
503978	5422367	Jason Brookins will start at running back if Allen is inactive.	Jason brookins will start at running back if Allen is inactive.	257377709	1478869440451	1478869440504	k	75
503978	5422367	Jason Brookins will start at running back if Allen is inactive.	Jason brookins will start at running back if Allen is inactive.	257377719	1478869440593	1478869440659	i	73
503978	5422367	Jason Brookins will start at running back if Allen is inactive.	Jason brookins will start at running back if Allen is inactive.	257377721	1478869440737	1478869440796	n	78
503978	5422367	Jason Brookins will start at running back if Allen is inactive.	Jason brookins will start at running back if Allen is inactive.	257377723	1478869440869	1478869440984	s	83
503978	5422367	Jason Brookins will start at running back if Allen is inactive.	Jason brookins will start at running back if Allen is inactive.	257377725	1478869441013	1478869441185	 	32
503978	5422367	Jason Brookins will start at running back if Allen is inactive.	Jason brookins will start at running back if Allen is inactive.	257377726	1478869441142	1478869441287	w	87
503978	5422367	Jason Brookins will start at running back if Allen is inactive.	Jason brookins will start at running back if Allen is inactive.	257377727	1478869441395	1478869441455	i	73
503978	5422367	Jason Brookins will start at running back if Allen is inactive.	Jason brookins will start at running back if Allen is inactive.	257377728	1478869441558	1478869441620	l	76
503978	5422367	Jason Brookins will start at running back if Allen is inactive.	Jason brookins will start at running back if Allen is inactive.	257377729	1478869441689	1478869441765	l	76
503978	5422367	Jason Brookins will start at running back if Allen is inactive.	Jason brookins will start at running back if Allen is inactive.	257377741	1478869441741	1478869441895	 	32
503978	5422367	Jason Brookins will start at running back if Allen is inactive.	Jason brookins will start at running back if Allen is inactive.	257377730	1478869441791	1478869441879	s	83
503978	5422367	Jason Brookins will start at running back if Allen is inactive.	Jason brookins will start at running back if Allen is inactive.	257377742	1478869441969	1478869442068	t	84
503978	5422367	Jason Brookins will start at running back if Allen is inactive.	Jason brookins will start at running back if Allen is inactive.	257377743	1478869442089	1478869442206	a	65
503978	5422367	Jason Brookins will start at running back if Allen is inactive.	Jason brookins will start at running back if Allen is inactive.	257377744	1478869442164	1478869442261	r	82
503978	5422367	Jason Brookins will start at running back if Allen is inactive.	Jason brookins will start at running back if Allen is inactive.	257377745	1478869442339	1478869442435	t	84
503978	5422367	Jason Brookins will start at running back if Allen is inactive.	Jason brookins will start at running back if Allen is inactive.	257377778	1478869442407	1478869442634	 	32
503978	5422367	Jason Brookins will start at running back if Allen is inactive.	Jason brookins will start at running back if Allen is inactive.	257377779	1478869442531	1478869442655	r	82
503978	5422367	Jason Brookins will start at running back if Allen is inactive.	Jason brookins will start at running back if Allen is inactive.	257377780	1478869443048	1478869443178	BKSP	8
503978	5422367	Jason Brookins will start at running back if Allen is inactive.	Jason brookins will start at running back if Allen is inactive.	257377781	1478869443219	1478869443327	a	65
503978	5422367	Jason Brookins will start at running back if Allen is inactive.	Jason brookins will start at running back if Allen is inactive.	257377782	1478869443362	1478869443465	t	84
503978	5422367	Jason Brookins will start at running back if Allen is inactive.	Jason brookins will start at running back if Allen is inactive.	257377783	1478869443482	1478869443644	 	32
503978	5422367	Jason Brookins will start at running back if Allen is inactive.	Jason brookins will start at running back if Allen is inactive.	257377784	1478869443774	1478869443919	r	82
503978	5422367	Jason Brookins will start at running back if Allen is inactive.	Jason brookins will start at running back if Allen is inactive.	257377801	1478869444192	1478869444274	u	85
503978	5422367	Jason Brookins will start at running back if Allen is inactive.	Jason brookins will start at running back if Allen is inactive.	257377803	1478869444357	1478869444444	n	78
503978	5422367	Jason Brookins will start at running back if Allen is inactive.	Jason brookins will start at running back if Allen is inactive.	257377804	1478869444505	1478869444609	n	78
503978	5422367	Jason Brookins will start at running back if Allen is inactive.	Jason brookins will start at running back if Allen is inactive.	257377805	1478869444697	1478869444771	i	73
503978	5422367	Jason Brookins will start at running back if Allen is inactive.	Jason brookins will start at running back if Allen is inactive.	257377806	1478869444835	1478869444932	n	78
503978	5422367	Jason Brookins will start at running back if Allen is inactive.	Jason brookins will start at running back if Allen is inactive.	257377812	1478869444933	1478869445049	g	71
503978	5422367	Jason Brookins will start at running back if Allen is inactive.	Jason brookins will start at running back if Allen is inactive.	257377819	1478869444987	1478869445183	 	32
503978	5422367	Jason Brookins will start at running back if Allen is inactive.	Jason brookins will start at running back if Allen is inactive.	257377815	1478869445049	1478869445150	b	66
503978	5422367	Jason Brookins will start at running back if Allen is inactive.	Jason brookins will start at running back if Allen is inactive.	257377822	1478869445150	1478869445275	a	65
503978	5422367	Jason Brookins will start at running back if Allen is inactive.	Jason brookins will start at running back if Allen is inactive.	257377846	1478869445223	1478869445336	c	67
503978	5422367	Jason Brookins will start at running back if Allen is inactive.	Jason brookins will start at running back if Allen is inactive.	257377844	1478869445276	1478869445303	v	86
503978	5422367	Jason Brookins will start at running back if Allen is inactive.	Jason brookins will start at running back if Allen is inactive.	257377848	1478869445303	1478869445377	k	75
503978	5422367	Jason Brookins will start at running back if Allen is inactive.	Jason brookins will start at running back if Allen is inactive.	257377850	1478869445411	1478869445518	 	32
503978	5422367	Jason Brookins will start at running back if Allen is inactive.	Jason brookins will start at running back if Allen is inactive.	257377852	1478869445456	1478869445553	i	73
503978	5422367	Jason Brookins will start at running back if Allen is inactive.	Jason brookins will start at running back if Allen is inactive.	257377856	1478869445737	1478869445801	BKSP	8
503978	5422367	Jason Brookins will start at running back if Allen is inactive.	Jason brookins will start at running back if Allen is inactive.	257377858	1478869445891	1478869445968	BKSP	8
503978	5422367	Jason Brookins will start at running back if Allen is inactive.	Jason brookins will start at running back if Allen is inactive.	257377861	1478869446031	1478869446104	BKSP	8
503978	5422367	Jason Brookins will start at running back if Allen is inactive.	Jason brookins will start at running back if Allen is inactive.	257377864	1478869446162	1478869446232	BKSP	8
503978	5422367	Jason Brookins will start at running back if Allen is inactive.	Jason brookins will start at running back if Allen is inactive.	257377867	1478869446436	1478869446526	k	75
503978	5422367	Jason Brookins will start at running back if Allen is inactive.	Jason brookins will start at running back if Allen is inactive.	257377875	1478869446546	1478869446733	 	32
503978	5422367	Jason Brookins will start at running back if Allen is inactive.	Jason brookins will start at running back if Allen is inactive.	257377876	1478869446674	1478869446762	i	73
503978	5422367	Jason Brookins will start at running back if Allen is inactive.	Jason brookins will start at running back if Allen is inactive.	257377877	1478869446815	1478869446951	f	70
503978	5422367	Jason Brookins will start at running back if Allen is inactive.	Jason brookins will start at running back if Allen is inactive.	257377878	1478869446909	1478869447134	 	32
503978	5422367	Jason Brookins will start at running back if Allen is inactive.	Jason brookins will start at running back if Allen is inactive.	257377880	1478869447294	1478869447482	SHIFT	16
503978	5422367	Jason Brookins will start at running back if Allen is inactive.	Jason brookins will start at running back if Allen is inactive.	257377895	1478869447411	1478869447536	A	65
503978	5422367	Jason Brookins will start at running back if Allen is inactive.	Jason brookins will start at running back if Allen is inactive.	257377897	1478869447562	1478869447617	l	76
503978	5422367	Jason Brookins will start at running back if Allen is inactive.	Jason brookins will start at running back if Allen is inactive.	257377898	1478869447707	1478869447807	l	76
503978	5422367	Jason Brookins will start at running back if Allen is inactive.	Jason brookins will start at running back if Allen is inactive.	257377899	1478869447807	1478869447944	e	69
503978	5422367	Jason Brookins will start at running back if Allen is inactive.	Jason brookins will start at running back if Allen is inactive.	257377901	1478869447914	1478869447986	n	78
503978	5422367	Jason Brookins will start at running back if Allen is inactive.	Jason brookins will start at running back if Allen is inactive.	257377903	1478869447986	1478869448167	 	32
503978	5422367	Jason Brookins will start at running back if Allen is inactive.	Jason brookins will start at running back if Allen is inactive.	257377904	1478869448116	1478869448199	i	73
503978	5422367	Jason Brookins will start at running back if Allen is inactive.	Jason brookins will start at running back if Allen is inactive.	257377905	1478869448199	1478869448325	s	83
503978	5422367	Jason Brookins will start at running back if Allen is inactive.	Jason brookins will start at running back if Allen is inactive.	257377907	1478869448303	1478869448514	 	32
503978	5422367	Jason Brookins will start at running back if Allen is inactive.	Jason brookins will start at running back if Allen is inactive.	257377909	1478869448472	1478869448527	i	73
503978	5422367	Jason Brookins will start at running back if Allen is inactive.	Jason brookins will start at running back if Allen is inactive.	257377911	1478869448631	1478869448696	n	78
503978	5422367	Jason Brookins will start at running back if Allen is inactive.	Jason brookins will start at running back if Allen is inactive.	257377915	1478869448757	1478869448862	a	65
503978	5422367	Jason Brookins will start at running back if Allen is inactive.	Jason brookins will start at running back if Allen is inactive.	257377925	1478869448923	1478869449002	c	67
503978	5422367	Jason Brookins will start at running back if Allen is inactive.	Jason brookins will start at running back if Allen is inactive.	257377927	1478869449099	1478869449204	t	84
503978	5422367	Jason Brookins will start at running back if Allen is inactive.	Jason brookins will start at running back if Allen is inactive.	257377929	1478869449204	1478869449280	i	73
503978	5422367	Jason Brookins will start at running back if Allen is inactive.	Jason brookins will start at running back if Allen is inactive.	257377932	1478869449327	1478869449455	v	86
503978	5422367	Jason Brookins will start at running back if Allen is inactive.	Jason brookins will start at running back if Allen is inactive.	257377931	1478869449389	1478869449497	e	69
503978	5422374	I might have something at the office.	I might have something at the office.	257377969	1478869450525	1478869450815	SHIFT	16
503978	5422374	I might have something at the office.	I might have something at the office.	257377966	1478869450696	1478869450762	I	73
503978	5422374	I might have something at the office.	I might have something at the office.	257377975	1478869450799	1478869451039	 	32
503978	5422374	I might have something at the office.	I might have something at the office.	257377972	1478869450918	1478869450992	m	77
503978	5422374	I might have something at the office.	I might have something at the office.	257377979	1478869451083	1478869451165	i	73
503978	5422374	I might have something at the office.	I might have something at the office.	257378021	1478869451107	1478869451165	u	85
503978	5422374	I might have something at the office.	I might have something at the office.	257378022	1478869451165	1478869451277	g	71
503978	5422374	I might have something at the office.	I might have something at the office.	257378023	1478869451277	1478869451379	h	72
503978	5422374	I might have something at the office.	I might have something at the office.	257378024	1478869451410	1478869451535	t	84
503978	5422374	I might have something at the office.	I might have something at the office.	257378025	1478869451829	1478869451893	BKSP	8
503978	5422374	I might have something at the office.	I might have something at the office.	257378026	1478869451974	1478869452041	BKSP	8
503978	5422374	I might have something at the office.	I might have something at the office.	257378027	1478869452112	1478869452166	BKSP	8
503978	5422374	I might have something at the office.	I might have something at the office.	257378030	1478869452238	1478869452299	BKSP	8
503978	5422374	I might have something at the office.	I might have something at the office.	257378033	1478869452329	1478869452457	g	71
503978	5422374	I might have something at the office.	I might have something at the office.	257378036	1478869452473	1478869452554	h	72
503978	5422374	I might have something at the office.	I might have something at the office.	257378048	1478869452716	1478869452848	t	84
503978	5422374	I might have something at the office.	I might have something at the office.	257378052	1478869452812	1478869452985	 	32
503978	5422374	I might have something at the office.	I might have something at the office.	257378055	1478869452912	1478869453011	h	72
503978	5422374	I might have something at the office.	I might have something at the office.	257378058	1478869453032	1478869453151	a	65
503978	5422374	I might have something at the office.	I might have something at the office.	257378070	1478869453108	1478869453182	v	86
503978	5422374	I might have something at the office.	I might have something at the office.	257378073	1478869453203	1478869453305	e	69
503978	5422374	I might have something at the office.	I might have something at the office.	257378075	1478869453261	1478869453457	 	32
503978	5422374	I might have something at the office.	I might have something at the office.	257378080	1478869453390	1478869453544	s	83
503978	5422374	I might have something at the office.	I might have something at the office.	257378078	1478869453431	1478869453518	o	79
503978	5422374	I might have something at the office.	I might have something at the office.	257378082	1478869453599	1478869453700	m	77
503978	5422374	I might have something at the office.	I might have something at the office.	257378092	1478869453701	1478869453762	e	69
503978	5422374	I might have something at the office.	I might have something at the office.	257378094	1478869453867	1478869453991	t	84
503978	5422374	I might have something at the office.	I might have something at the office.	257378093	1478869453891	1478869453975	h	72
503978	5422374	I might have something at the office.	I might have something at the office.	257378095	1478869454070	1478869454135	i	73
503978	5422374	I might have something at the office.	I might have something at the office.	257378097	1478869454225	1478869454291	n	78
503978	5422374	I might have something at the office.	I might have something at the office.	257378116	1478869454249	1478869454370	g	71
503978	5422374	I might have something at the office.	I might have something at the office.	257378118	1478869454322	1478869454501	 	32
503978	5422374	I might have something at the office.	I might have something at the office.	257378122	1478869454405	1478869454502	a	65
503978	5422374	I might have something at the office.	I might have something at the office.	257378125	1478869454502	1478869454595	t	84
503978	5422374	I might have something at the office.	I might have something at the office.	257378128	1478869454643	1478869454805	 	32
503978	5422374	I might have something at the office.	I might have something at the office.	257378132	1478869454671	1478869454806	t	84
503978	5422374	I might have something at the office.	I might have something at the office.	257378134	1478869454806	1478869454871	h	72
503978	5422374	I might have something at the office.	I might have something at the office.	257378137	1478869454890	1478869455023	e	69
503978	5422374	I might have something at the office.	I might have something at the office.	257378145	1478869454962	1478869455140	 	32
503978	5422374	I might have something at the office.	I might have something at the office.	257378141	1478869455065	1478869455140	o	79
503978	5422374	I might have something at the office.	I might have something at the office.	257378148	1478869455331	1478869455408	f	70
503978	5422374	I might have something at the office.	I might have something at the office.	257378156	1478869455479	1478869455588	f	70
503978	5422374	I might have something at the office.	I might have something at the office.	257378158	1478869455588	1478869455674	i	73
503978	5422374	I might have something at the office.	I might have something at the office.	257378161	1478869455698	1478869455842	c	67
503978	5422374	I might have something at the office.	I might have something at the office.	257378166	1478869455764	1478869455865	e	69
503978	5422374	I might have something at the office.	I might have something at the office.	257378167	1478869455842	1478869455945	.	190
503978	5422376	It was great to finally meet you.	It was great to finally meet you.	257378196	1478869456940	1478869457145	SHIFT	16
503978	5422376	It was great to finally meet you.	It was great to finally meet you.	257378198	1478869457076	1478869457145	I	73
503978	5422376	It was great to finally meet you.	It was great to finally meet you.	257378200	1478869457186	1478869457289	t	84
503978	5422376	It was great to finally meet you.	It was great to finally meet you.	257378202	1478869457289	1478869457387	 	32
503978	5422376	It was great to finally meet you.	It was great to finally meet you.	257378205	1478869457387	1478869457506	w	87
503978	5422376	It was great to finally meet you.	It was great to finally meet you.	257378218	1478869457492	1478869457642	a	65
503978	5422376	It was great to finally meet you.	It was great to finally meet you.	257378220	1478869457586	1478869457705	s	83
503978	5422376	It was great to finally meet you.	It was great to finally meet you.	257378224	1478869457667	1478869457767	 	32
503978	5422376	It was great to finally meet you.	It was great to finally meet you.	257378228	1478869457812	1478869457906	g	71
503978	5422376	It was great to finally meet you.	It was great to finally meet you.	257378231	1478869457990	1478869458090	r	82
503978	5422376	It was great to finally meet you.	It was great to finally meet you.	257378234	1478869458161	1478869458286	e	69
503978	5422376	It was great to finally meet you.	It was great to finally meet you.	257378239	1478869458240	1478869458362	a	65
503978	5422376	It was great to finally meet you.	It was great to finally meet you.	257378241	1478869458395	1478869458480	t	84
503978	5422376	It was great to finally meet you.	It was great to finally meet you.	257378243	1478869458461	1478869458635	 	32
503978	5422376	It was great to finally meet you.	It was great to finally meet you.	257378245	1478869458574	1478869458682	t	84
503978	5422376	It was great to finally meet you.	It was great to finally meet you.	257378247	1478869458664	1478869458760	o	79
503978	5422376	It was great to finally meet you.	It was great to finally meet you.	257378248	1478869458761	1478869458938	 	32
503978	5422376	It was great to finally meet you.	It was great to finally meet you.	257378251	1478869458798	1478869458966	f	70
503978	5422376	It was great to finally meet you.	It was great to finally meet you.	257378253	1478869458879	1478869458966	i	73
503978	5422376	It was great to finally meet you.	It was great to finally meet you.	257378256	1478869459038	1478869459112	n	78
503978	5422376	It was great to finally meet you.	It was great to finally meet you.	257378259	1478869459181	1478869459305	a	65
503978	5422376	It was great to finally meet you.	It was great to finally meet you.	257378261	1478869459275	1478869459343	l	76
503978	5422376	It was great to finally meet you.	It was great to finally meet you.	257378266	1478869459426	1478869459498	l	76
503978	5422376	It was great to finally meet you.	It was great to finally meet you.	257378290	1478869459476	1478869459598	y	89
503978	5422376	It was great to finally meet you.	It was great to finally meet you.	257378294	1478869459544	1478869459735	 	32
503978	5422376	It was great to finally meet you.	It was great to finally meet you.	257378292	1478869459630	1478869459707	m	77
503978	5422376	It was great to finally meet you.	It was great to finally meet you.	257378296	1478869459735	1478869459788	e	69
503978	5422376	It was great to finally meet you.	It was great to finally meet you.	257378298	1478869459870	1478869459964	e	69
503978	5422376	It was great to finally meet you.	It was great to finally meet you.	257378300	1478869460059	1478869460170	t	84
503978	5422376	It was great to finally meet you.	It was great to finally meet you.	257378310	1478869460171	1478869460412	 	32
503978	5422376	It was great to finally meet you.	It was great to finally meet you.	257378312	1478869460281	1478869460412	y	89
503978	5422376	It was great to finally meet you.	It was great to finally meet you.	257378314	1478869460303	1478869460412	o	79
503978	5422376	It was great to finally meet you.	It was great to finally meet you.	257378316	1478869460472	1478869460537	u	85
503978	5422381	Do you need it today?	Do you need it today?	257378347	1478869461857	1478869462170	SHIFT	16
503978	5422381	Do you need it today?	Do you need it today?	257378350	1478869462047	1478869462212	D	68
503978	5422381	Do you need it today?	Do you need it today?	257378353	1478869462212	1478869462287	o	79
503978	5422381	Do you need it today?	Do you need it today?	257378355	1478869462287	1478869462511	 	32
503978	5422381	Do you need it today?	Do you need it today?	257378369	1478869462397	1478869462541	y	89
503978	5422381	Do you need it today?	Do you need it today?	257378370	1478869462447	1478869462541	o	79
503978	5422381	Do you need it today?	Do you need it today?	257378371	1478869462614	1478869462685	u	85
503978	5422381	Do you need it today?	Do you need it today?	257378375	1478869462685	1478869462865	 	32
503978	5422381	Do you need it today?	Do you need it today?	257378373	1478869462776	1478869462865	n	78
503978	5422381	Do you need it today?	Do you need it today?	257378379	1478869462865	1478869462925	e	69
503978	5422381	Do you need it today?	Do you need it today?	257378383	1478869462991	1478869463079	e	69
503978	5422381	Do you need it today?	Do you need it today?	257378390	1478869463156	1478869463266	d	68
503978	5422381	Do you need it today?	Do you need it today?	257378391	1478869463197	1478869463359	 	32
503978	5422381	Do you need it today?	Do you need it today?	257378392	1478869463325	1478869463402	i	73
503978	5422381	Do you need it today?	Do you need it today?	257378393	1478869463402	1478869463480	t	84
503978	5422381	Do you need it today?	Do you need it today?	257378394	1478869463495	1478869463611	 	32
503978	5422381	Do you need it today?	Do you need it today?	257378395	1478869463544	1478869463685	t	84
503978	5422381	Do you need it today?	Do you need it today?	257378396	1478869463685	1478869463750	o	79
503978	5422381	Do you need it today?	Do you need it today?	257378397	1478869463801	1478869463969	d	68
503978	5422381	Do you need it today?	Do you need it today?	257378401	1478869463917	1478869464068	a	65
503978	5422381	Do you need it today?	Do you need it today?	257378399	1478869463951	1478869464047	y	89
503978	5422381	Do you need it today?	Do you need it today?	257378405	1478869464231	1478869464304	?	16
503978	5422382	Watch for more details, coming soon.	Watch for more details, coming soon.	257378479	1478869465393	1478869465680	SHIFT	16
503978	5422382	Watch for more details, coming soon.	Watch for more details, coming soon.	257378481	1478869465610	1478869465732	W	87
503978	5422382	Watch for more details, coming soon.	Watch for more details, coming soon.	257378484	1478869465916	1478869465984	h	72
503978	5422382	Watch for more details, coming soon.	Watch for more details, coming soon.	257378487	1478869466232	1478869466342	BKSP	8
503978	5422382	Watch for more details, coming soon.	Watch for more details, coming soon.	257378490	1478869466318	1478869466389	a	65
503978	5422382	Watch for more details, coming soon.	Watch for more details, coming soon.	257378494	1478869466441	1478869466541	t	84
503978	5422382	Watch for more details, coming soon.	Watch for more details, coming soon.	257378499	1478869466620	1478869466723	c	67
503978	5422382	Watch for more details, coming soon.	Watch for more details, coming soon.	257378505	1478869466698	1478869466762	h	72
503978	5422382	Watch for more details, coming soon.	Watch for more details, coming soon.	257378508	1478869466758	1478869466909	 	32
503978	5422382	Watch for more details, coming soon.	Watch for more details, coming soon.	257378511	1478869466828	1478869466929	f	70
503978	5422382	Watch for more details, coming soon.	Watch for more details, coming soon.	257378516	1478869466929	1478869467007	o	79
503978	5422382	Watch for more details, coming soon.	Watch for more details, coming soon.	257378519	1478869467007	1478869467136	r	82
503978	5422382	Watch for more details, coming soon.	Watch for more details, coming soon.	257378529	1478869467070	1478869467220	 	32
503978	5422382	Watch for more details, coming soon.	Watch for more details, coming soon.	257378526	1478869467137	1478869467208	m	77
503978	5422382	Watch for more details, coming soon.	Watch for more details, coming soon.	257378532	1478869467272	1478869467374	o	79
503978	5422382	Watch for more details, coming soon.	Watch for more details, coming soon.	257378534	1478869467323	1478869467429	r	82
503978	5422382	Watch for more details, coming soon.	Watch for more details, coming soon.	257378536	1478869467374	1478869467481	e	69
503978	5422382	Watch for more details, coming soon.	Watch for more details, coming soon.	257378542	1478869467451	1478869467649	 	32
503978	5422382	Watch for more details, coming soon.	Watch for more details, coming soon.	257378544	1478869467573	1478869467650	d	68
503978	5422382	Watch for more details, coming soon.	Watch for more details, coming soon.	257378547	1478869467743	1478869467771	e	87
503978	5422382	Watch for more details, coming soon.	Watch for more details, coming soon.	257378550	1478869467897	1478869468008	t	84
503978	5422382	Watch for more details, coming soon.	Watch for more details, coming soon.	257378555	1478869468023	1478869468135	a	65
503978	5422382	Watch for more details, coming soon.	Watch for more details, coming soon.	257378592	1478869468306	1478869468358	BKSP	8
503978	5422382	Watch for more details, coming soon.	Watch for more details, coming soon.	257378594	1478869468441	1478869468517	BKSP	8
503978	5422382	Watch for more details, coming soon.	Watch for more details, coming soon.	257378596	1478869468600	1478869468671	BKSP	8
503978	5422382	Watch for more details, coming soon.	Watch for more details, coming soon.	257378598	1478869468743	1478869468819	BKSP	8
503978	5422382	Watch for more details, coming soon.	Watch for more details, coming soon.	257378600	1478869468790	1478869468872	e	69
503978	5422382	Watch for more details, coming soon.	Watch for more details, coming soon.	257378601	1478869468961	1478869469076	t	84
503978	5422382	Watch for more details, coming soon.	Watch for more details, coming soon.	257378603	1478869469051	1478869469200	a	65
503978	5422382	Watch for more details, coming soon.	Watch for more details, coming soon.	257378602	1478869469119	1478869469199	i	73
503978	5422382	Watch for more details, coming soon.	Watch for more details, coming soon.	257378604	1478869469288	1478869469373	l	76
503978	5422382	Watch for more details, coming soon.	Watch for more details, coming soon.	257378612	1478869469374	1478869469498	s	83
503978	5422382	Watch for more details, coming soon.	Watch for more details, coming soon.	257378616	1478869469461	1478869469546	,	188
503978	5422382	Watch for more details, coming soon.	Watch for more details, coming soon.	257378619	1478869469547	1478869469750	 	32
503978	5422382	Watch for more details, coming soon.	Watch for more details, coming soon.	257378622	1478869469631	1478869469807	SHIFT	16
503978	5422382	Watch for more details, coming soon.	Watch for more details, coming soon.	257378623	1478869469751	1478869469863	C	67
503978	5422382	Watch for more details, coming soon.	Watch for more details, coming soon.	257378625	1478869470047	1478869470109	BKSP	8
503978	5422382	Watch for more details, coming soon.	Watch for more details, coming soon.	257378626	1478869470241	1478869470361	c	67
503978	5422382	Watch for more details, coming soon.	Watch for more details, coming soon.	257378641	1478869470294	1478869470377	o	79
503978	5422382	Watch for more details, coming soon.	Watch for more details, coming soon.	257378646	1478869470465	1478869470521	m	77
503978	5422382	Watch for more details, coming soon.	Watch for more details, coming soon.	257378651	1478869470588	1478869470675	i	73
503978	5422382	Watch for more details, coming soon.	Watch for more details, coming soon.	257378654	1478869470757	1478869470842	n	78
503978	5422382	Watch for more details, coming soon.	Watch for more details, coming soon.	257378658	1478869470805	1478869470897	g	71
503978	5422382	Watch for more details, coming soon.	Watch for more details, coming soon.	257378673	1478869470896	1478869471092	 	32
503978	5422382	Watch for more details, coming soon.	Watch for more details, coming soon.	257378677	1478869471020	1478869471148	s	83
503978	5422382	Watch for more details, coming soon.	Watch for more details, coming soon.	257378675	1478869471062	1478869471131	o	79
503978	5422382	Watch for more details, coming soon.	Watch for more details, coming soon.	257378680	1478869471199	1478869471281	o	79
503978	5422382	Watch for more details, coming soon.	Watch for more details, coming soon.	257378683	1478869471356	1478869471437	n	78
503978	5422384	We tried to copy it and it worked for us.	We tried to copy it and it worked for us.,	257378713	1478869473075	1478869473278	SHIFT	16
503978	5422384	We tried to copy it and it worked for us.	We tried to copy it and it worked for us.,	257378714	1478869473204	1478869473295	W	87
503978	5422384	We tried to copy it and it worked for us.	We tried to copy it and it worked for us.,	257378715	1478869473364	1478869473476	e	69
503978	5422384	We tried to copy it and it worked for us.	We tried to copy it and it worked for us.,	257378716	1478869473476	1478869473578	 	32
503978	5422384	We tried to copy it and it worked for us.	We tried to copy it and it worked for us.,	257378717	1478869473578	1478869473660	t	84
503978	5422384	We tried to copy it and it worked for us.	We tried to copy it and it worked for us.,	257378718	1478869473734	1478869473825	r	82
503978	5422384	We tried to copy it and it worked for us.	We tried to copy it and it worked for us.,	257378724	1478869473841	1478869473918	i	73
503978	5422384	We tried to copy it and it worked for us.	We tried to copy it and it worked for us.,	257378725	1478869473901	1478869474001	e	69
503978	5422384	We tried to copy it and it worked for us.	We tried to copy it and it worked for us.,	257378726	1478869474055	1478869474147	d	68
503978	5422384	We tried to copy it and it worked for us.	We tried to copy it and it worked for us.,	257378727	1478869474147	1478869474289	 	32
503978	5422384	We tried to copy it and it worked for us.	We tried to copy it and it worked for us.,	257378728	1478869474241	1478869474346	t	84
503978	5422384	We tried to copy it and it worked for us.	We tried to copy it and it worked for us.,	257378731	1478869474305	1478869474398	o	79
503978	5422384	We tried to copy it and it worked for us.	We tried to copy it and it worked for us.,	257378734	1478869474398	1478869474568	 	32
503978	5422384	We tried to copy it and it worked for us.	We tried to copy it and it worked for us.,	257378737	1478869474465	1478869474590	c	67
503978	5422384	We tried to copy it and it worked for us.	We tried to copy it and it worked for us.,	257378740	1478869474553	1478869474653	o	79
503978	5422384	We tried to copy it and it worked for us.	We tried to copy it and it worked for us.,	257378743	1478869474603	1478869474716	p	80
503978	5422384	We tried to copy it and it worked for us.	We tried to copy it and it worked for us.,	257378744	1478869474748	1478869474851	y	89
503978	5422384	We tried to copy it and it worked for us.	We tried to copy it and it worked for us.,	257378745	1478869474844	1478869475009	 	32
503978	5422384	We tried to copy it and it worked for us.	We tried to copy it and it worked for us.,	257378746	1478869474993	1478869475073	i	73
503978	5422384	We tried to copy it and it worked for us.	We tried to copy it and it worked for us.,	257378747	1478869475091	1478869475202	t	84
503978	5422384	We tried to copy it and it worked for us.	We tried to copy it and it worked for us.,	257378748	1478869475168	1478869475379	 	32
503978	5422384	We tried to copy it and it worked for us.	We tried to copy it and it worked for us.,	257378750	1478869475334	1478869475454	a	65
503978	5422384	We tried to copy it and it worked for us.	We tried to copy it and it worked for us.,	257378752	1478869475423	1478869475510	n	78
503978	5422384	We tried to copy it and it worked for us.	We tried to copy it and it worked for us.,	257378754	1478869475493	1478869475600	d	68
503978	5422384	We tried to copy it and it worked for us.	We tried to copy it and it worked for us.,	257378756	1478869475578	1478869475718	 	32
503978	5422384	We tried to copy it and it worked for us.	We tried to copy it and it worked for us.,	257378768	1478869475673	1478869475755	i	73
503978	5422384	We tried to copy it and it worked for us.	We tried to copy it and it worked for us.,	257378770	1478869475755	1478869475834	t	84
503978	5422384	We tried to copy it and it worked for us.	We tried to copy it and it worked for us.,	257378772	1478869475834	1478869476049	 	32
503978	5422384	We tried to copy it and it worked for us.	We tried to copy it and it worked for us.,	257378774	1478869475949	1478869476049	w	87
503978	5422384	We tried to copy it and it worked for us.	We tried to copy it and it worked for us.,	257378775	1478869476049	1478869476128	o	79
503978	5422384	We tried to copy it and it worked for us.	We tried to copy it and it worked for us.,	257378776	1478869476128	1478869476224	r	82
503978	5422384	We tried to copy it and it worked for us.	We tried to copy it and it worked for us.,	257378782	1478869476225	1478869476291	k	75
503978	5422384	We tried to copy it and it worked for us.	We tried to copy it and it worked for us.,	257378783	1478869476285	1478869476373	e	69
503978	5422384	We tried to copy it and it worked for us.	We tried to copy it and it worked for us.,	257378784	1478869476436	1478869476544	d	68
503978	5422384	We tried to copy it and it worked for us.	We tried to copy it and it worked for us.,	257378786	1478869476525	1478869476733	 	32
503978	5422384	We tried to copy it and it worked for us.	We tried to copy it and it worked for us.,	257378788	1478869476834	1478869476931	f	70
503978	5422384	We tried to copy it and it worked for us.	We tried to copy it and it worked for us.,	257378792	1478869476950	1478869477030	o	79
503978	5422384	We tried to copy it and it worked for us.	We tried to copy it and it worked for us.,	257378794	1478869477030	1478869477136	r	82
503978	5422384	We tried to copy it and it worked for us.	We tried to copy it and it worked for us.,	257378796	1478869477117	1478869477288	 	32
503978	5422384	We tried to copy it and it worked for us.	We tried to copy it and it worked for us.,	257378799	1478869477198	1478869477288	u	85
503978	5422384	We tried to copy it and it worked for us.	We tried to copy it and it worked for us.,	257378802	1478869477334	1478869477454	s	83
503978	5422384	We tried to copy it and it worked for us.	We tried to copy it and it worked for us.,	257378800	1478869477426	1478869477498	.	190
503978	5422384	We tried to copy it and it worked for us.	We tried to copy it and it worked for us.,	257378797	1478869477455	1478869477496	,	188
503978	5422388	I wonder if RBS is another institution which could move quickly.	I wonder if RBS is another institutionm which could move quickly.	257378845	1478869479191	1478869479342	SHIFT	16
503978	5422388	I wonder if RBS is another institution which could move quickly.	I wonder if RBS is another institutionm which could move quickly.	257378846	1478869479256	1478869479342	I	73
503978	5422388	I wonder if RBS is another institution which could move quickly.	I wonder if RBS is another institutionm which could move quickly.	257378848	1478869479342	1478869479558	 	32
503978	5422388	I wonder if RBS is another institution which could move quickly.	I wonder if RBS is another institutionm which could move quickly.	257378847	1478869479425	1478869479558	w	87
503978	5422388	I wonder if RBS is another institution which could move quickly.	I wonder if RBS is another institutionm which could move quickly.	257378849	1478869479936	1478869479982	i	73
503978	5422388	I wonder if RBS is another institution which could move quickly.	I wonder if RBS is another institutionm which could move quickly.	257378850	1478869480191	1478869480294	BKSP	8
503978	5422388	I wonder if RBS is another institution which could move quickly.	I wonder if RBS is another institutionm which could move quickly.	257378862	1478869480255	1478869480347	o	79
503978	5422388	I wonder if RBS is another institution which could move quickly.	I wonder if RBS is another institutionm which could move quickly.	257378863	1478869480451	1478869480525	n	78
503978	5422388	I wonder if RBS is another institution which could move quickly.	I wonder if RBS is another institutionm which could move quickly.	257378864	1478869480525	1478869480597	d	68
503978	5422388	I wonder if RBS is another institution which could move quickly.	I wonder if RBS is another institutionm which could move quickly.	257378866	1478869480682	1478869480771	e	69
503978	5422388	I wonder if RBS is another institution which could move quickly.	I wonder if RBS is another institutionm which could move quickly.	257378868	1478869480856	1478869480959	r	82
503978	5422388	I wonder if RBS is another institution which could move quickly.	I wonder if RBS is another institutionm which could move quickly.	257378872	1478869480925	1478869481076	 	32
503978	5422388	I wonder if RBS is another institution which could move quickly.	I wonder if RBS is another institutionm which could move quickly.	257378873	1478869481018	1478869481122	i	73
503978	5422388	I wonder if RBS is another institution which could move quickly.	I wonder if RBS is another institutionm which could move quickly.	257378874	1478869481108	1478869481252	f	70
503978	5422388	I wonder if RBS is another institution which could move quickly.	I wonder if RBS is another institutionm which could move quickly.	257378875	1478869481237	1478869481387	 	32
503978	5422388	I wonder if RBS is another institution which could move quickly.	I wonder if RBS is another institutionm which could move quickly.	257378918	1478869481293	1478869481910	SHIFT	16
503978	5422388	I wonder if RBS is another institution which could move quickly.	I wonder if RBS is another institutionm which could move quickly.	257378877	1478869481402	1478869481528	R	82
503978	5422388	I wonder if RBS is another institution which could move quickly.	I wonder if RBS is another institutionm which could move quickly.	257378914	1478869481486	1478869481577	B	66
503978	5422388	I wonder if RBS is another institution which could move quickly.	I wonder if RBS is another institutionm which could move quickly.	257378916	1478869481743	1478869481888	S	83
503978	5422388	I wonder if RBS is another institution which could move quickly.	I wonder if RBS is another institutionm which could move quickly.	257378919	1478869482137	1478869482311	 	32
503978	5422388	I wonder if RBS is another institution which could move quickly.	I wonder if RBS is another institutionm which could move quickly.	257378920	1478869482297	1478869482380	i	73
503978	5422388	I wonder if RBS is another institution which could move quickly.	I wonder if RBS is another institutionm which could move quickly.	257378922	1478869482412	1478869482571	s	83
503978	5422388	I wonder if RBS is another institution which could move quickly.	I wonder if RBS is another institutionm which could move quickly.	257378939	1478869482527	1478869482709	 	32
503978	5422388	I wonder if RBS is another institution which could move quickly.	I wonder if RBS is another institutionm which could move quickly.	257378944	1478869482954	1478869483090	a	65
503978	5422388	I wonder if RBS is another institution which could move quickly.	I wonder if RBS is another institutionm which could move quickly.	257378949	1478869483045	1478869483109	n	78
503978	5422388	I wonder if RBS is another institution which could move quickly.	I wonder if RBS is another institutionm which could move quickly.	257378953	1478869483205	1478869483292	o	79
503978	5422388	I wonder if RBS is another institution which could move quickly.	I wonder if RBS is another institutionm which could move quickly.	257378955	1478869483293	1478869483392	t	84
503978	5422388	I wonder if RBS is another institution which could move quickly.	I wonder if RBS is another institutionm which could move quickly.	257378958	1478869483392	1478869483457	h	72
503978	5422388	I wonder if RBS is another institution which could move quickly.	I wonder if RBS is another institutionm which could move quickly.	257378961	1478869483469	1478869483551	e	69
503978	5422388	I wonder if RBS is another institution which could move quickly.	I wonder if RBS is another institutionm which could move quickly.	257378962	1478869483612	1478869483726	r	82
503978	5422388	I wonder if RBS is another institution which could move quickly.	I wonder if RBS is another institutionm which could move quickly.	257378963	1478869483670	1478869483860	 	32
503978	5422388	I wonder if RBS is another institution which could move quickly.	I wonder if RBS is another institutionm which could move quickly.	257378964	1478869483889	1478869483969	i	73
503978	5422388	I wonder if RBS is another institution which could move quickly.	I wonder if RBS is another institutionm which could move quickly.	257378966	1478869484103	1478869484165	n	78
503978	5422388	I wonder if RBS is another institution which could move quickly.	I wonder if RBS is another institutionm which could move quickly.	257379001	1478869484211	1478869484319	s	83
503978	5422388	I wonder if RBS is another institution which could move quickly.	I wonder if RBS is another institutionm which could move quickly.	257379002	1478869484482	1478869484599	t	84
503978	5422388	I wonder if RBS is another institution which could move quickly.	I wonder if RBS is another institutionm which could move quickly.	257379003	1478869484853	1478869484937	i	73
503978	5422388	I wonder if RBS is another institution which could move quickly.	I wonder if RBS is another institutionm which could move quickly.	257379004	1478869484969	1478869485080	t	84
503978	5422388	I wonder if RBS is another institution which could move quickly.	I wonder if RBS is another institutionm which could move quickly.	257379005	1478869485257	1478869485362	u	85
503978	5422388	I wonder if RBS is another institution which could move quickly.	I wonder if RBS is another institutionm which could move quickly.	257379014	1478869485523	1478869485614	t	84
503978	5422388	I wonder if RBS is another institution which could move quickly.	I wonder if RBS is another institutionm which could move quickly.	257379016	1478869486208	1478869486322	i	73
503978	5422388	I wonder if RBS is another institution which could move quickly.	I wonder if RBS is another institutionm which could move quickly.	257379018	1478869486297	1478869486363	o	79
503978	5422388	I wonder if RBS is another institution which could move quickly.	I wonder if RBS is another institutionm which could move quickly.	257379020	1478869486431	1478869486509	m	78
503978	5422388	I wonder if RBS is another institution which could move quickly.	I wonder if RBS is another institutionm which could move quickly.	257379041	1478869486580	1478869486752	 	32
503978	5422388	I wonder if RBS is another institution which could move quickly.	I wonder if RBS is another institutionm which could move quickly.	257379042	1478869486752	1478869486866	w	87
503978	5422388	I wonder if RBS is another institution which could move quickly.	I wonder if RBS is another institutionm which could move quickly.	257379043	1478869486840	1478869486916	h	72
503978	5422388	I wonder if RBS is another institution which could move quickly.	I wonder if RBS is another institutionm which could move quickly.	257379044	1478869487017	1478869487108	i	73
503978	5422388	I wonder if RBS is another institution which could move quickly.	I wonder if RBS is another institutionm which could move quickly.	257379045	1478869487108	1478869487222	c	67
503978	5422388	I wonder if RBS is another institution which could move quickly.	I wonder if RBS is another institutionm which could move quickly.	257379051	1478869487183	1478869487265	h	72
503978	5422388	I wonder if RBS is another institution which could move quickly.	I wonder if RBS is another institutionm which could move quickly.	257379052	1478869487266	1478869487483	 	32
503978	5422388	I wonder if RBS is another institution which could move quickly.	I wonder if RBS is another institutionm which could move quickly.	257379054	1478869487342	1478869487483	c	67
503978	5422388	I wonder if RBS is another institution which could move quickly.	I wonder if RBS is another institutionm which could move quickly.	257379057	1478869487406	1478869487484	o	79
503978	5422388	I wonder if RBS is another institution which could move quickly.	I wonder if RBS is another institutionm which could move quickly.	257379060	1478869487579	1478869487633	u	85
503978	5422388	I wonder if RBS is another institution which could move quickly.	I wonder if RBS is another institutionm which could move quickly.	257379063	1478869487739	1478869487827	l	76
503978	5422388	I wonder if RBS is another institution which could move quickly.	I wonder if RBS is another institutionm which could move quickly.	257379074	1478869487805	1478869487921	d	68
503978	5422388	I wonder if RBS is another institution which could move quickly.	I wonder if RBS is another institutionm which could move quickly.	257379075	1478869487869	1478869488056	 	32
503978	5422388	I wonder if RBS is another institution which could move quickly.	I wonder if RBS is another institutionm which could move quickly.	257379077	1478869487960	1478869488056	m	77
503978	5422388	I wonder if RBS is another institution which could move quickly.	I wonder if RBS is another institutionm which could move quickly.	257379079	1478869488149	1478869488232	o	79
503978	5422388	I wonder if RBS is another institution which could move quickly.	I wonder if RBS is another institutionm which could move quickly.	257379082	1478869488233	1478869488360	v	86
503978	5422388	I wonder if RBS is another institution which could move quickly.	I wonder if RBS is another institutionm which could move quickly.	257379107	1478869488277	1478869488391	e	69
503978	5422388	I wonder if RBS is another institution which could move quickly.	I wonder if RBS is another institutionm which could move quickly.	257379109	1478869488361	1478869488514	 	32
503978	5422388	I wonder if RBS is another institution which could move quickly.	I wonder if RBS is another institutionm which could move quickly.	257379112	1478869488544	1478869488662	q	81
503978	5422388	I wonder if RBS is another institution which could move quickly.	I wonder if RBS is another institutionm which could move quickly.	257379116	1478869488594	1478869488662	u	85
503978	5422388	I wonder if RBS is another institution which could move quickly.	I wonder if RBS is another institutionm which could move quickly.	257379119	1478869488734	1478869488825	i	73
503978	5422388	I wonder if RBS is another institution which could move quickly.	I wonder if RBS is another institutionm which could move quickly.	257379121	1478869488887	1478869488969	j	74
503978	5422388	I wonder if RBS is another institution which could move quickly.	I wonder if RBS is another institutionm which could move quickly.	257379143	1478869488970	1478869489099	c	67
503978	5422388	I wonder if RBS is another institution which could move quickly.	I wonder if RBS is another institutionm which could move quickly.	257379144	1478869489071	1478869489181	l	76
503978	5422388	I wonder if RBS is another institution which could move quickly.	I wonder if RBS is another institutionm which could move quickly.	257379145	1478869489292	1478869489354	.	190
503978	5422388	I wonder if RBS is another institution which could move quickly.	I wonder if RBS is another institutionm which could move quickly.	257379146	1478869489559	1478869489640	BKSP	8
503978	5422388	I wonder if RBS is another institution which could move quickly.	I wonder if RBS is another institutionm which could move quickly.	257379148	1478869489726	1478869489794	BKSP	8
503978	5422388	I wonder if RBS is another institution which could move quickly.	I wonder if RBS is another institutionm which could move quickly.	257379151	1478869489852	1478869489939	BKSP	8
503978	5422388	I wonder if RBS is another institution which could move quickly.	I wonder if RBS is another institutionm which could move quickly.	257379154	1478869490001	1478869490099	BKSP	8
503978	5422388	I wonder if RBS is another institution which could move quickly.	I wonder if RBS is another institutionm which could move quickly.	257379159	1478869490297	1478869490434	c	67
503978	5422388	I wonder if RBS is another institution which could move quickly.	I wonder if RBS is another institutionm which could move quickly.	257379174	1478869490401	1478869490484	k	75
503978	5422388	I wonder if RBS is another institution which could move quickly.	I wonder if RBS is another institutionm which could move quickly.	257379176	1478869490606	1478869490691	l	76
503978	5422388	I wonder if RBS is another institution which could move quickly.	I wonder if RBS is another institutionm which could move quickly.	257379178	1478869490741	1478869490883	y	89
