PARTICIPANT_ID	TEST_SECTION_ID	SENTENCE	USER_INPUT	KEYSTROKE_ID	PRESS_TIME	RELEASE_TIME	LETTER	KEYCODE
50713	554430	Two-thirds of our tickets have been sold in the United States.	Two-thirds of our tickets have been sold in the United States.	26378788	1472595902817	1472595903084	SHIFT	16
50713	554430	Two-thirds of our tickets have been sold in the United States.	Two-thirds of our tickets have been sold in the United States.	26378790	1472595903024	1472595903124	T	84
50713	554430	Two-thirds of our tickets have been sold in the United States.	Two-thirds of our tickets have been sold in the United States.	26378792	1472595903204	1472595903314	w	87
50713	554430	Two-thirds of our tickets have been sold in the United States.	Two-thirds of our tickets have been sold in the United States.	26378794	1472595903334	1472595903424	o	79
50713	554430	Two-thirds of our tickets have been sold in the United States.	Two-thirds of our tickets have been sold in the United States.	26378796	1472595904154	1472595904224	-	189
50713	554430	Two-thirds of our tickets have been sold in the United States.	Two-thirds of our tickets have been sold in the United States.	26378798	1472595904784	1472595904864	t	84
50713	554430	Two-thirds of our tickets have been sold in the United States.	Two-thirds of our tickets have been sold in the United States.	26378838	1472595904854	1472595904934	h	72
50713	554430	Two-thirds of our tickets have been sold in the United States.	Two-thirds of our tickets have been sold in the United States.	26378840	1472595905194	1472595905274	i	73
50713	554430	Two-thirds of our tickets have been sold in the United States.	Two-thirds of our tickets have been sold in the United States.	26378844	1472595905394	1472595905484	r	82
50713	554430	Two-thirds of our tickets have been sold in the United States.	Two-thirds of our tickets have been sold in the United States.	26378846	1472595905734	1472595905834	d	68
50713	554430	Two-thirds of our tickets have been sold in the United States.	Two-thirds of our tickets have been sold in the United States.	26378851	1472595905914	1472595906024	a	65
50713	554430	Two-thirds of our tickets have been sold in the United States.	Two-thirds of our tickets have been sold in the United States.	26378855	1472595906584	1472595906684	 	32
50713	554430	Two-thirds of our tickets have been sold in the United States.	Two-thirds of our tickets have been sold in the United States.	26378912	1472595907104	1472595907164	BKSP	8
50713	554430	Two-thirds of our tickets have been sold in the United States.	Two-thirds of our tickets have been sold in the United States.	26378914	1472595907253	1472595907343	BKSP	8
50713	554430	Two-thirds of our tickets have been sold in the United States.	Two-thirds of our tickets have been sold in the United States.	26378915	1472595907494	1472595907584	s	83
50713	554430	Two-thirds of our tickets have been sold in the United States.	Two-thirds of our tickets have been sold in the United States.	26378916	1472595907664	1472595907814	 	32
50713	554430	Two-thirds of our tickets have been sold in the United States.	Two-thirds of our tickets have been sold in the United States.	26378917	1472595907985	1472595908064	o	79
50713	554430	Two-thirds of our tickets have been sold in the United States.	Two-thirds of our tickets have been sold in the United States.	26378919	1472595908095	1472595908184	f	70
50713	554430	Two-thirds of our tickets have been sold in the United States.	Two-thirds of our tickets have been sold in the United States.	26378921	1472595908264	1472595908364	 	32
50713	554430	Two-thirds of our tickets have been sold in the United States.	Two-thirds of our tickets have been sold in the United States.	26378941	1472595908534	1472595908634	o	79
50713	554430	Two-thirds of our tickets have been sold in the United States.	Two-thirds of our tickets have been sold in the United States.	26378943	1472595908684	1472595908764	u	85
50713	554430	Two-thirds of our tickets have been sold in the United States.	Two-thirds of our tickets have been sold in the United States.	26378945	1472595908914	1472595909004	r	82
50713	554430	Two-thirds of our tickets have been sold in the United States.	Two-thirds of our tickets have been sold in the United States.	26378947	1472595909096	1472595909224	 	32
50713	554430	Two-thirds of our tickets have been sold in the United States.	Two-thirds of our tickets have been sold in the United States.	26378949	1472595909384	1472595909444	t	84
50713	554430	Two-thirds of our tickets have been sold in the United States.	Two-thirds of our tickets have been sold in the United States.	26379000	1472595909594	1472595909684	i	73
50713	554430	Two-thirds of our tickets have been sold in the United States.	Two-thirds of our tickets have been sold in the United States.	26379004	1472595909883	1472595909974	c	67
50713	554430	Two-thirds of our tickets have been sold in the United States.	Two-thirds of our tickets have been sold in the United States.	26379007	1472595910034	1472595910104	h	72
50713	554430	Two-thirds of our tickets have been sold in the United States.	Two-thirds of our tickets have been sold in the United States.	26379011	1472595910523	1472595910594	BKSP	8
50713	554430	Two-thirds of our tickets have been sold in the United States.	Two-thirds of our tickets have been sold in the United States.	26379015	1472595910965	1472595911044	k	75
50713	554430	Two-thirds of our tickets have been sold in the United States.	Two-thirds of our tickets have been sold in the United States.	26379019	1472595911114	1472595911184	e	69
50713	554430	Two-thirds of our tickets have been sold in the United States.	Two-thirds of our tickets have been sold in the United States.	26379035	1472595911314	1472595911394	t	84
50713	554430	Two-thirds of our tickets have been sold in the United States.	Two-thirds of our tickets have been sold in the United States.	26379037	1472595911484	1472595911604	s	83
50713	554430	Two-thirds of our tickets have been sold in the United States.	Two-thirds of our tickets have been sold in the United States.	26379040	1472595911734	1472595911864	 	32
50713	554430	Two-thirds of our tickets have been sold in the United States.	Two-thirds of our tickets have been sold in the United States.	26379043	1472595911914	1472595911994	h	72
50713	554430	Two-thirds of our tickets have been sold in the United States.	Two-thirds of our tickets have been sold in the United States.	26379045	1472595912024	1472595912134	a	65
50713	554430	Two-thirds of our tickets have been sold in the United States.	Two-thirds of our tickets have been sold in the United States.	26379084	1472595912214	1472595912293	v	86
50713	554430	Two-thirds of our tickets have been sold in the United States.	Two-thirds of our tickets have been sold in the United States.	26379086	1472595912384	1472595912464	e	69
50713	554430	Two-thirds of our tickets have been sold in the United States.	Two-thirds of our tickets have been sold in the United States.	26379090	1472595912564	1472595912643	 	32
50713	554430	Two-thirds of our tickets have been sold in the United States.	Two-thirds of our tickets have been sold in the United States.	26379092	1472595912744	1472595912834	b	66
50713	554430	Two-thirds of our tickets have been sold in the United States.	Two-thirds of our tickets have been sold in the United States.	26379094	1472595913054	1472595913134	e	69
50713	554430	Two-thirds of our tickets have been sold in the United States.	Two-thirds of our tickets have been sold in the United States.	26379115	1472595913233	1472595913294	e	69
50713	554430	Two-thirds of our tickets have been sold in the United States.	Two-thirds of our tickets have been sold in the United States.	26379119	1472595913334	1472595913404	n	78
50713	554430	Two-thirds of our tickets have been sold in the United States.	Two-thirds of our tickets have been sold in the United States.	26379122	1472595913444	1472595913524	 	32
50713	554430	Two-thirds of our tickets have been sold in the United States.	Two-thirds of our tickets have been sold in the United States.	26379124	1472595913624	1472595913704	s	83
50713	554430	Two-thirds of our tickets have been sold in the United States.	Two-thirds of our tickets have been sold in the United States.	26379127	1472595913715	1472595913784	o	79
50713	554430	Two-thirds of our tickets have been sold in the United States.	Two-thirds of our tickets have been sold in the United States.	26379156	1472595913904	1472595913984	l	76
50713	554430	Two-thirds of our tickets have been sold in the United States.	Two-thirds of our tickets have been sold in the United States.	26379161	1472595914044	1472595914124	d	68
50713	554430	Two-thirds of our tickets have been sold in the United States.	Two-thirds of our tickets have been sold in the United States.	26379165	1472595914243	1472595914324	 	32
50713	554430	Two-thirds of our tickets have been sold in the United States.	Two-thirds of our tickets have been sold in the United States.	26379168	1472595914374	1472595914454	i	73
50713	554430	Two-thirds of our tickets have been sold in the United States.	Two-thirds of our tickets have been sold in the United States.	26379170	1472595914544	1472595914604	n	78
50713	554430	Two-thirds of our tickets have been sold in the United States.	Two-thirds of our tickets have been sold in the United States.	26379195	1472595914656	1472595914734	 	32
50713	554430	Two-thirds of our tickets have been sold in the United States.	Two-thirds of our tickets have been sold in the United States.	26379196	1472595914824	1472595914894	t	84
50713	554430	Two-thirds of our tickets have been sold in the United States.	Two-thirds of our tickets have been sold in the United States.	26379197	1472595914914	1472595914974	h	72
50713	554430	Two-thirds of our tickets have been sold in the United States.	Two-thirds of our tickets have been sold in the United States.	26379198	1472595915024	1472595915114	e	69
50713	554430	Two-thirds of our tickets have been sold in the United States.	Two-thirds of our tickets have been sold in the United States.	26379199	1472595915184	1472595915284	 	32
50713	554430	Two-thirds of our tickets have been sold in the United States.	Two-thirds of our tickets have been sold in the United States.	26379259	1472595915334	1472595915513	SHIFT	16
50713	554430	Two-thirds of our tickets have been sold in the United States.	Two-thirds of our tickets have been sold in the United States.	26379257	1472595915425	1472595915484	U	85
50713	554430	Two-thirds of our tickets have been sold in the United States.	Two-thirds of our tickets have been sold in the United States.	26379262	1472595915824	1472595915934	n	78
50713	554430	Two-thirds of our tickets have been sold in the United States.	Two-thirds of our tickets have been sold in the United States.	26379265	1472595916014	1472595916094	i	73
50713	554430	Two-thirds of our tickets have been sold in the United States.	Two-thirds of our tickets have been sold in the United States.	26379268	1472595916444	1472595916534	t	84
50713	554430	Two-thirds of our tickets have been sold in the United States.	Two-thirds of our tickets have been sold in the United States.	26379270	1472595916634	1472595916744	e	69
50713	554430	Two-thirds of our tickets have been sold in the United States.	Two-thirds of our tickets have been sold in the United States.	26379320	1472595916864	1472595916954	d	68
50713	554430	Two-thirds of our tickets have been sold in the United States.	Two-thirds of our tickets have been sold in the United States.	26379323	1472595917464	1472595917574	 	32
50713	554430	Two-thirds of our tickets have been sold in the United States.	Two-thirds of our tickets have been sold in the United States.	26379326	1472595917664	1472595917874	SHIFT	16
50713	554430	Two-thirds of our tickets have been sold in the United States.	Two-thirds of our tickets have been sold in the United States.	26379328	1472595917804	1472595917904	S	83
50713	554430	Two-thirds of our tickets have been sold in the United States.	Two-thirds of our tickets have been sold in the United States.	26379332	1472595918074	1472595918154	t	84
50713	554430	Two-thirds of our tickets have been sold in the United States.	Two-thirds of our tickets have been sold in the United States.	26379335	1472595918224	1472595918324	a	65
50713	554430	Two-thirds of our tickets have been sold in the United States.	Two-thirds of our tickets have been sold in the United States.	26379432	1472595918414	1472595918494	t	84
50713	554430	Two-thirds of our tickets have been sold in the United States.	Two-thirds of our tickets have been sold in the United States.	26379436	1472595918584	1472595918654	e	69
50713	554430	Two-thirds of our tickets have been sold in the United States.	Two-thirds of our tickets have been sold in the United States.	26379439	1472595918784	1472595918874	s	83
50713	554430	Two-thirds of our tickets have been sold in the United States.	Two-thirds of our tickets have been sold in the United States.	26379441	1472595919144	1472595919233	.	190
50713	554449	We can discuss options early next week.	We can discuss options early next wekk.	26379813	1472595929842	1472595930131	SHIFT	16
50713	554449	We can discuss options early next week.	We can discuss options early next wekk.	26379812	1472595929982	1472595930102	W	87
50713	554449	We can discuss options early next week.	We can discuss options early next wekk.	26379814	1472595930471	1472595930582	e	69
50713	554449	We can discuss options early next week.	We can discuss options early next wekk.	26379816	1472595930662	1472595930742	 	32
50713	554449	We can discuss options early next week.	We can discuss options early next wekk.	26379818	1472595930842	1472595930922	c	67
50713	554449	We can discuss options early next week.	We can discuss options early next wekk.	26379820	1472595931002	1472595931102	a	65
50713	554449	We can discuss options early next week.	We can discuss options early next wekk.	26379845	1472595931131	1472595931202	n	78
50713	554449	We can discuss options early next week.	We can discuss options early next wekk.	26379849	1472595931242	1472595931371	 	32
50713	554449	We can discuss options early next week.	We can discuss options early next wekk.	26379853	1472595932051	1472595932122	d	68
50713	554449	We can discuss options early next week.	We can discuss options early next wekk.	26379855	1472595932222	1472595932291	i	73
50713	554449	We can discuss options early next week.	We can discuss options early next wekk.	26379857	1472595932362	1472595932442	s	83
50713	554449	We can discuss options early next week.	We can discuss options early next wekk.	26379911	1472595932622	1472595932702	c	67
50713	554449	We can discuss options early next week.	We can discuss options early next wekk.	26379913	1472595932732	1472595932812	u	85
50713	554449	We can discuss options early next week.	We can discuss options early next wekk.	26379919	1472595933062	1472595933162	s	83
50713	554449	We can discuss options early next week.	We can discuss options early next wekk.	26379923	1472595933242	1472595933341	s	83
50713	554449	We can discuss options early next week.	We can discuss options early next wekk.	26379927	1472595933562	1472595933691	 	32
50713	554449	We can discuss options early next week.	We can discuss options early next wekk.	26379989	1472595934031	1472595934111	o	79
50713	554449	We can discuss options early next week.	We can discuss options early next wekk.	26379991	1472595934362	1472595934462	p	80
50713	554449	We can discuss options early next week.	We can discuss options early next wekk.	26379995	1472595934612	1472595934691	t	84
50713	554449	We can discuss options early next week.	We can discuss options early next wekk.	26380000	1472595934721	1472595934802	i	73
50713	554449	We can discuss options early next week.	We can discuss options early next wekk.	26380004	1472595934892	1472595934972	o	79
50713	554449	We can discuss options early next week.	We can discuss options early next wekk.	26380042	1472595935041	1472595935132	n	78
50713	554449	We can discuss options early next week.	We can discuss options early next wekk.	26380048	1472595935202	1472595935282	s	83
50713	554449	We can discuss options early next week.	We can discuss options early next wekk.	26380053	1472595935371	1472595935482	 	32
50713	554449	We can discuss options early next week.	We can discuss options early next wekk.	26380060	1472595935722	1472595935811	e	69
50713	554449	We can discuss options early next week.	We can discuss options early next wekk.	26380065	1472595935902	1472595935991	a	65
50713	554449	We can discuss options early next week.	We can discuss options early next wekk.	26380087	1472595936122	1472595936211	r	82
50713	554449	We can discuss options early next week.	We can discuss options early next wekk.	26380095	1472595936402	1472595936481	l	76
50713	554449	We can discuss options early next week.	We can discuss options early next wekk.	26380100	1472595936602	1472595936702	y	89
50713	554449	We can discuss options early next week.	We can discuss options early next wekk.	26380106	1472595936752	1472595936842	 	32
50713	554449	We can discuss options early next week.	We can discuss options early next wekk.	26380112	1472595936931	1472595937002	n	78
50713	554449	We can discuss options early next week.	We can discuss options early next wekk.	26380194	1472595937084	1472595937191	e	69
50713	554449	We can discuss options early next week.	We can discuss options early next wekk.	26380195	1472595937402	1472595937491	s	83
50713	554449	We can discuss options early next week.	We can discuss options early next wekk.	26380196	1472595937630	1472595937711	t	84
50713	554449	We can discuss options early next week.	We can discuss options early next wekk.	26380197	1472595937991	1472595938071	BKSP	8
50713	554449	We can discuss options early next week.	We can discuss options early next wekk.	26380198	1472595938162	1472595938251	BKSP	8
50713	554449	We can discuss options early next week.	We can discuss options early next wekk.	26380199	1472595938331	1472595938411	x	88
50713	554449	We can discuss options early next week.	We can discuss options early next wekk.	26380201	1472595938651	1472595938722	t	84
50713	554449	We can discuss options early next week.	We can discuss options early next wekk.	26380254	1472595938962	1472595939063	 	32
50713	554449	We can discuss options early next week.	We can discuss options early next wekk.	26380259	1472595939162	1472595939262	w	87
50713	554449	We can discuss options early next week.	We can discuss options early next wekk.	26380264	1472595939351	1472595939432	e	69
50713	554449	We can discuss options early next week.	We can discuss options early next wekk.	26380266	1472595939751	1472595939822	k	75
50713	554449	We can discuss options early next week.	We can discuss options early next wekk.	26380268	1472595939912	1472595939971	k	75
50713	554449	We can discuss options early next week.	We can discuss options early next wekk.	26380280	1472595940191	1472595940271	.	190
50713	554467	Soldiers would be in their barracks throughout the weekend.	Soldiers would be in their barracks throughout the weekend.	26380436	1472595942472	1472595942742	SHIFT	16
50713	554467	Soldiers would be in their barracks throughout the weekend.	Soldiers would be in their barracks throughout the weekend.	26380433	1472595942632	1472595942742	S	83
50713	554467	Soldiers would be in their barracks throughout the weekend.	Soldiers would be in their barracks throughout the weekend.	26380439	1472595943232	1472595943291	o	79
50713	554467	Soldiers would be in their barracks throughout the weekend.	Soldiers would be in their barracks throughout the weekend.	26380442	1472595943412	1472595943491	l	76
50713	554467	Soldiers would be in their barracks throughout the weekend.	Soldiers would be in their barracks throughout the weekend.	26380445	1472595943592	1472595943691	d	68
50713	554467	Soldiers would be in their barracks throughout the weekend.	Soldiers would be in their barracks throughout the weekend.	26380449	1472595943742	1472595943802	i	73
50713	554467	Soldiers would be in their barracks throughout the weekend.	Soldiers would be in their barracks throughout the weekend.	26380538	1472595943892	1472595943961	e	69
50713	554467	Soldiers would be in their barracks throughout the weekend.	Soldiers would be in their barracks throughout the weekend.	26380540	1472595944081	1472595944171	r	82
50713	554467	Soldiers would be in their barracks throughout the weekend.	Soldiers would be in their barracks throughout the weekend.	26380542	1472595944352	1472595944452	s	83
50713	554467	Soldiers would be in their barracks throughout the weekend.	Soldiers would be in their barracks throughout the weekend.	26380543	1472595944732	1472595944831	 	32
50713	554467	Soldiers would be in their barracks throughout the weekend.	Soldiers would be in their barracks throughout the weekend.	26380544	1472595945322	1472595945402	w	87
50713	554467	Soldiers would be in their barracks throughout the weekend.	Soldiers would be in their barracks throughout the weekend.	26380575	1472595945421	1472595945502	o	79
50713	554467	Soldiers would be in their barracks throughout the weekend.	Soldiers would be in their barracks throughout the weekend.	26380578	1472595945581	1472595945651	u	85
50713	554467	Soldiers would be in their barracks throughout the weekend.	Soldiers would be in their barracks throughout the weekend.	26380583	1472595945762	1472595945871	l	76
50713	554467	Soldiers would be in their barracks throughout the weekend.	Soldiers would be in their barracks throughout the weekend.	26380591	1472595945912	1472595946001	d	68
50713	554467	Soldiers would be in their barracks throughout the weekend.	Soldiers would be in their barracks throughout the weekend.	26380595	1472595946092	1472595946182	 	32
50713	554467	Soldiers would be in their barracks throughout the weekend.	Soldiers would be in their barracks throughout the weekend.	26380630	1472595946282	1472595946382	b	66
50713	554467	Soldiers would be in their barracks throughout the weekend.	Soldiers would be in their barracks throughout the weekend.	26380634	1472595946472	1472595946562	e	69
50713	554467	Soldiers would be in their barracks throughout the weekend.	Soldiers would be in their barracks throughout the weekend.	26380636	1472595946652	1472595946742	 	32
50713	554467	Soldiers would be in their barracks throughout the weekend.	Soldiers would be in their barracks throughout the weekend.	26380641	1472595946822	1472595946902	i	73
50713	554467	Soldiers would be in their barracks throughout the weekend.	Soldiers would be in their barracks throughout the weekend.	26380647	1472595946982	1472595947062	n	78
50713	554467	Soldiers would be in their barracks throughout the weekend.	Soldiers would be in their barracks throughout the weekend.	26380676	1472595947092	1472595947182	 	32
50713	554467	Soldiers would be in their barracks throughout the weekend.	Soldiers would be in their barracks throughout the weekend.	26380679	1472595947262	1472595947352	t	84
50713	554467	Soldiers would be in their barracks throughout the weekend.	Soldiers would be in their barracks throughout the weekend.	26380682	1472595947382	1472595947451	h	72
50713	554467	Soldiers would be in their barracks throughout the weekend.	Soldiers would be in their barracks throughout the weekend.	26380685	1472595947472	1472595947551	e	69
50713	554467	Soldiers would be in their barracks throughout the weekend.	Soldiers would be in their barracks throughout the weekend.	26380688	1472595947842	1472595947911	i	73
50713	554467	Soldiers would be in their barracks throughout the weekend.	Soldiers would be in their barracks throughout the weekend.	26380752	1472595948312	1472595948392	r	82
50713	554467	Soldiers would be in their barracks throughout the weekend.	Soldiers would be in their barracks throughout the weekend.	26380758	1472595948552	1472595948642	 	32
50713	554467	Soldiers would be in their barracks throughout the weekend.	Soldiers would be in their barracks throughout the weekend.	26380761	1472595948792	1472595948882	b	66
50713	554467	Soldiers would be in their barracks throughout the weekend.	Soldiers would be in their barracks throughout the weekend.	26380771	1472595948962	1472595949051	a	65
50713	554467	Soldiers would be in their barracks throughout the weekend.	Soldiers would be in their barracks throughout the weekend.	26380774	1472595949242	1472595949322	r	82
50713	554467	Soldiers would be in their barracks throughout the weekend.	Soldiers would be in their barracks throughout the weekend.	26380835	1472595949402	1472595949471	r	82
50713	554467	Soldiers would be in their barracks throughout the weekend.	Soldiers would be in their barracks throughout the weekend.	26380836	1472595949532	1472595949622	a	65
50713	554467	Soldiers would be in their barracks throughout the weekend.	Soldiers would be in their barracks throughout the weekend.	26380837	1472595949742	1472595949832	c	67
50713	554467	Soldiers would be in their barracks throughout the weekend.	Soldiers would be in their barracks throughout the weekend.	26380838	1472595950932	1472595951002	k	75
50713	554467	Soldiers would be in their barracks throughout the weekend.	Soldiers would be in their barracks throughout the weekend.	26380839	1472595951051	1472595951122	s	83
50713	554467	Soldiers would be in their barracks throughout the weekend.	Soldiers would be in their barracks throughout the weekend.	26380878	1472595951362	1472595951472	 	32
50713	554467	Soldiers would be in their barracks throughout the weekend.	Soldiers would be in their barracks throughout the weekend.	26380879	1472595951612	1472595951682	t	84
50713	554467	Soldiers would be in their barracks throughout the weekend.	Soldiers would be in their barracks throughout the weekend.	26380880	1472595951732	1472595951812	h	72
50713	554467	Soldiers would be in their barracks throughout the weekend.	Soldiers would be in their barracks throughout the weekend.	26380881	1472595951991	1472595952072	r	82
50713	554467	Soldiers would be in their barracks throughout the weekend.	Soldiers would be in their barracks throughout the weekend.	26380882	1472595952122	1472595952222	o	79
50713	554467	Soldiers would be in their barracks throughout the weekend.	Soldiers would be in their barracks throughout the weekend.	26380921	1472595952282	1472595952382	u	85
50713	554467	Soldiers would be in their barracks throughout the weekend.	Soldiers would be in their barracks throughout the weekend.	26380923	1472595952511	1472595952614	g	71
50713	554467	Soldiers would be in their barracks throughout the weekend.	Soldiers would be in their barracks throughout the weekend.	26380925	1472595952692	1472595952772	h	72
50713	554467	Soldiers would be in their barracks throughout the weekend.	Soldiers would be in their barracks throughout the weekend.	26380927	1472595953052	1472595953152	o	79
50713	554467	Soldiers would be in their barracks throughout the weekend.	Soldiers would be in their barracks throughout the weekend.	26380930	1472595953242	1472595953332	u	85
50713	554467	Soldiers would be in their barracks throughout the weekend.	Soldiers would be in their barracks throughout the weekend.	26380953	1472595953461	1472595953532	t	84
50713	554467	Soldiers would be in their barracks throughout the weekend.	Soldiers would be in their barracks throughout the weekend.	26380954	1472595953682	1472595953762	 	32
50713	554467	Soldiers would be in their barracks throughout the weekend.	Soldiers would be in their barracks throughout the weekend.	26380955	1472595953852	1472595953932	t	84
50713	554467	Soldiers would be in their barracks throughout the weekend.	Soldiers would be in their barracks throughout the weekend.	26380956	1472595953952	1472595954032	h	72
50713	554467	Soldiers would be in their barracks throughout the weekend.	Soldiers would be in their barracks throughout the weekend.	26380957	1472595954052	1472595954162	e	69
50713	554467	Soldiers would be in their barracks throughout the weekend.	Soldiers would be in their barracks throughout the weekend.	26380986	1472595954232	1472595954322	 	32
50713	554467	Soldiers would be in their barracks throughout the weekend.	Soldiers would be in their barracks throughout the weekend.	26380990	1472595954432	1472595954522	w	87
50713	554467	Soldiers would be in their barracks throughout the weekend.	Soldiers would be in their barracks throughout the weekend.	26380994	1472595954702	1472595954782	e	69
50713	554467	Soldiers would be in their barracks throughout the weekend.	Soldiers would be in their barracks throughout the weekend.	26380997	1472595954861	1472595954942	e	69
50713	554467	Soldiers would be in their barracks throughout the weekend.	Soldiers would be in their barracks throughout the weekend.	26380999	1472595955031	1472595955102	k	75
50713	554467	Soldiers would be in their barracks throughout the weekend.	Soldiers would be in their barracks throughout the weekend.	26381033	1472595955152	1472595955231	e	69
50713	554467	Soldiers would be in their barracks throughout the weekend.	Soldiers would be in their barracks throughout the weekend.	26381036	1472595955292	1472595955382	n	78
50713	554467	Soldiers would be in their barracks throughout the weekend.	Soldiers would be in their barracks throughout the weekend.	26381039	1472595955672	1472595955752	d	68
50713	554467	Soldiers would be in their barracks throughout the weekend.	Soldiers would be in their barracks throughout the weekend.	26381042	1472595956012	1472595956112	.	190
50713	554484	Surely we can cover this from within Virgo's team?	Surely we can cover this from withing Virgo's team?	26381180	1472595959032	1472595959242	SHIFT	16
50713	554484	Surely we can cover this from within Virgo's team?	Surely we can cover this from withing Virgo's team?	26381181	1472595959172	1472595959262	S	83
50713	554484	Surely we can cover this from within Virgo's team?	Surely we can cover this from withing Virgo's team?	26381182	1472595959422	1472595959502	u	85
50713	554484	Surely we can cover this from within Virgo's team?	Surely we can cover this from withing Virgo's team?	26381183	1472595959672	1472595959762	r	82
50713	554484	Surely we can cover this from within Virgo's team?	Surely we can cover this from withing Virgo's team?	26381184	1472595959841	1472595959912	e	69
50713	554484	Surely we can cover this from within Virgo's team?	Surely we can cover this from withing Virgo's team?	26381186	1472595959981	1472595960092	l	76
50713	554484	Surely we can cover this from within Virgo's team?	Surely we can cover this from withing Virgo's team?	26381382	1472595964082	1472595964232	 	32
50713	554484	Surely we can cover this from within Virgo's team?	Surely we can cover this from withing Virgo's team?	26381387	1472595964912	1472595965002	w	87
50713	554484	Surely we can cover this from within Virgo's team?	Surely we can cover this from withing Virgo's team?	26381394	1472595965062	1472595965142	e	69
50713	554484	Surely we can cover this from within Virgo's team?	Surely we can cover this from withing Virgo's team?	26381400	1472595965232	1472595965332	 	32
50713	554484	Surely we can cover this from within Virgo's team?	Surely we can cover this from withing Virgo's team?	26381418	1472595965442	1472595965512	c	67
50713	554484	Surely we can cover this from within Virgo's team?	Surely we can cover this from withing Virgo's team?	26381419	1472595965612	1472595965692	a	65
50713	554484	Surely we can cover this from within Virgo's team?	Surely we can cover this from withing Virgo's team?	26381422	1472595965722	1472595965792	n	78
50713	554484	Surely we can cover this from within Virgo's team?	Surely we can cover this from withing Virgo's team?	26381426	1472595965822	1472595965932	 	32
50713	554484	Surely we can cover this from within Virgo's team?	Surely we can cover this from withing Virgo's team?	26381430	1472595966072	1472595966152	c	67
50713	554484	Surely we can cover this from within Virgo's team?	Surely we can cover this from withing Virgo's team?	26381452	1472595966182	1472595966272	o	79
50713	554484	Surely we can cover this from within Virgo's team?	Surely we can cover this from withing Virgo's team?	26381457	1472595966472	1472595966572	v	86
50713	554484	Surely we can cover this from within Virgo's team?	Surely we can cover this from withing Virgo's team?	26381462	1472595966681	1472595966782	e	69
50713	554484	Surely we can cover this from within Virgo's team?	Surely we can cover this from withing Virgo's team?	26381465	1472595966852	1472595966972	r	82
50713	554484	Surely we can cover this from within Virgo's team?	Surely we can cover this from withing Virgo's team?	26381468	1472595967032	1472595967142	 	32
50713	554484	Surely we can cover this from within Virgo's team?	Surely we can cover this from withing Virgo's team?	26381479	1472595967192	1472595967282	t	84
50713	554484	Surely we can cover this from within Virgo's team?	Surely we can cover this from withing Virgo's team?	26381480	1472595967302	1472595967392	h	72
50713	554484	Surely we can cover this from within Virgo's team?	Surely we can cover this from withing Virgo's team?	26381481	1472595967452	1472595967542	i	73
50713	554484	Surely we can cover this from within Virgo's team?	Surely we can cover this from withing Virgo's team?	26381482	1472595967592	1472595967672	s	83
50713	554484	Surely we can cover this from within Virgo's team?	Surely we can cover this from withing Virgo's team?	26381484	1472595967742	1472595967842	 	32
50713	554484	Surely we can cover this from within Virgo's team?	Surely we can cover this from withing Virgo's team?	26381494	1472595967982	1472595968102	f	70
50713	554484	Surely we can cover this from within Virgo's team?	Surely we can cover this from withing Virgo's team?	26381496	1472595968222	1472595968301	r	82
50713	554484	Surely we can cover this from within Virgo's team?	Surely we can cover this from withing Virgo's team?	26381498	1472595968332	1472595968421	o	79
50713	554484	Surely we can cover this from within Virgo's team?	Surely we can cover this from withing Virgo's team?	26381501	1472595968512	1472595968592	m	77
50713	554484	Surely we can cover this from within Virgo's team?	Surely we can cover this from withing Virgo's team?	26381504	1472595968652	1472595968772	 	32
50713	554484	Surely we can cover this from within Virgo's team?	Surely we can cover this from withing Virgo's team?	26381538	1472595969242	1472595969332	w	87
50713	554484	Surely we can cover this from within Virgo's team?	Surely we can cover this from withing Virgo's team?	26381540	1472595969363	1472595969432	i	73
50713	554484	Surely we can cover this from within Virgo's team?	Surely we can cover this from withing Virgo's team?	26381541	1472595969562	1472595969642	t	84
50713	554484	Surely we can cover this from within Virgo's team?	Surely we can cover this from withing Virgo's team?	26381543	1472595969692	1472595969772	h	72
50713	554484	Surely we can cover this from within Virgo's team?	Surely we can cover this from withing Virgo's team?	26381544	1472595969872	1472595969972	i	73
50713	554484	Surely we can cover this from within Virgo's team?	Surely we can cover this from withing Virgo's team?	26381593	1472595970012	1472595970112	n	78
50713	554484	Surely we can cover this from within Virgo's team?	Surely we can cover this from withing Virgo's team?	26381594	1472595970162	1472595970265	g	71
50713	554484	Surely we can cover this from within Virgo's team?	Surely we can cover this from withing Virgo's team?	26381596	1472595970352	1472595970442	 	32
50713	554484	Surely we can cover this from within Virgo's team?	Surely we can cover this from withing Virgo's team?	26381600	1472595970642	1472595970942	SHIFT	16
50713	554484	Surely we can cover this from within Virgo's team?	Surely we can cover this from withing Virgo's team?	26381603	1472595970822	1472595970952	V	86
50713	554484	Surely we can cover this from within Virgo's team?	Surely we can cover this from withing Virgo's team?	26381606	1472595971141	1472595971212	i	73
50713	554484	Surely we can cover this from within Virgo's team?	Surely we can cover this from withing Virgo's team?	26381662	1472595971283	1472595971362	r	82
50713	554484	Surely we can cover this from within Virgo's team?	Surely we can cover this from withing Virgo's team?	26381666	1472595971562	1472595971652	g	71
50713	554484	Surely we can cover this from within Virgo's team?	Surely we can cover this from withing Virgo's team?	26381670	1472595971712	1472595971812	o	79
50713	554484	Surely we can cover this from within Virgo's team?	Surely we can cover this from withing Virgo's team?	26381674	1472595972123	1472595972232	'	222
50713	554484	Surely we can cover this from within Virgo's team?	Surely we can cover this from withing Virgo's team?	26381678	1472595972572	1472595972642	s	83
50713	554484	Surely we can cover this from within Virgo's team?	Surely we can cover this from withing Virgo's team?	26381748	1472595973142	1472595973252	 	32
50713	554484	Surely we can cover this from within Virgo's team?	Surely we can cover this from withing Virgo's team?	26381749	1472595973351	1472595973432	t	84
50713	554484	Surely we can cover this from within Virgo's team?	Surely we can cover this from withing Virgo's team?	26381750	1472595973512	1472595973582	e	69
50713	554484	Surely we can cover this from within Virgo's team?	Surely we can cover this from withing Virgo's team?	26381751	1472595974142	1472595974231	a	65
50713	554484	Surely we can cover this from within Virgo's team?	Surely we can cover this from withing Virgo's team?	26381752	1472595974272	1472595974341	m	77
50713	554484	Surely we can cover this from within Virgo's team?	Surely we can cover this from withing Virgo's team?	26381835	1472595974952	1472595975142	SHIFT	16
50713	554484	Surely we can cover this from within Virgo's team?	Surely we can cover this from withing Virgo's team?	26381836	1472595975092	1472595975181	?	191
50713	554497	Did you not read my first email?	Did you not read my first email?	26381898	1472595977832	1472595978082	SHIFT	16
50713	554497	Did you not read my first email?	Did you not read my first email?	26381900	1472595978012	1472595978092	D	68
50713	554497	Did you not read my first email?	Did you not read my first email?	26381901	1472595978202	1472595978272	i	73
50713	554497	Did you not read my first email?	Did you not read my first email?	26381902	1472595978353	1472595978432	d	68
50713	554497	Did you not read my first email?	Did you not read my first email?	26381903	1472595978662	1472595978762	 	32
50713	554497	Did you not read my first email?	Did you not read my first email?	26381905	1472595978961	1472595979072	o	79
50713	554497	Did you not read my first email?	Did you not read my first email?	26381921	1472595979082	1472595979172	u	85
50713	554497	Did you not read my first email?	Did you not read my first email?	26381923	1472595979222	1472595979312	 	32
50713	554497	Did you not read my first email?	Did you not read my first email?	26381925	1472595979472	1472595979572	n	78
50713	554497	Did you not read my first email?	Did you not read my first email?	26381928	1472595979662	1472595979742	o	79
50713	554497	Did you not read my first email?	Did you not read my first email?	26381931	1472595979832	1472595979902	t	84
50713	554497	Did you not read my first email?	Did you not read my first email?	26382009	1472595980001	1472595980072	 	32
50713	554497	Did you not read my first email?	Did you not read my first email?	26382012	1472595980282	1472595981302	BKSP	8
50713	554497	Did you not read my first email?	Did you not read my first email?	26382015	1472595981412	1472595981682	SHIFT	16
50713	554497	Did you not read my first email?	Did you not read my first email?	26382016	1472595981592	1472595981712	D	68
50713	554497	Did you not read my first email?	Did you not read my first email?	26382017	1472595981872	1472595981952	i	73
50713	554497	Did you not read my first email?	Did you not read my first email?	26382018	1472595982022	1472595982112	d	68
50713	554497	Did you not read my first email?	Did you not read my first email?	26382020	1472595982212	1472595982332	 	32
50713	554497	Did you not read my first email?	Did you not read my first email?	26382087	1472595982804	1472595982883	y	89
50713	554497	Did you not read my first email?	Did you not read my first email?	26382091	1472595983092	1472595983232	o	79
50713	554497	Did you not read my first email?	Did you not read my first email?	26382095	1472595983282	1472595983372	u	85
50713	554497	Did you not read my first email?	Did you not read my first email?	26382097	1472595983652	1472595983732	 	32
50713	554497	Did you not read my first email?	Did you not read my first email?	26382099	1472595983822	1472595983912	n	78
50713	554497	Did you not read my first email?	Did you not read my first email?	26382106	1472595983992	1472595984061	o	79
50713	554497	Did you not read my first email?	Did you not read my first email?	26382110	1472595984132	1472595984212	t	84
50713	554497	Did you not read my first email?	Did you not read my first email?	26382118	1472595984292	1472595984412	 	32
50713	554497	Did you not read my first email?	Did you not read my first email?	26382167	1472595984622	1472595984712	e	82
50713	554497	Did you not read my first email?	Did you not read my first email?	26382168	1472595984832	1472595984922	e	69
50713	554497	Did you not read my first email?	Did you not read my first email?	26382169	1472595985312	1472595985382	BKSP	8
50713	554497	Did you not read my first email?	Did you not read my first email?	26382171	1472595985782	1472595985882	a	65
50713	554497	Did you not read my first email?	Did you not read my first email?	26382174	1472595985992	1472595986102	d	68
50713	554497	Did you not read my first email?	Did you not read my first email?	26382178	1472595986312	1472595986421	 	32
50713	554497	Did you not read my first email?	Did you not read my first email?	26382182	1472595986472	1472595986532	m	77
50713	554497	Did you not read my first email?	Did you not read my first email?	26382204	1472595986632	1472595986722	y	89
50713	554497	Did you not read my first email?	Did you not read my first email?	26382208	1472595986762	1472595986862	 	32
50713	554497	Did you not read my first email?	Did you not read my first email?	26382210	1472595987422	1472595987492	f	70
50713	554497	Did you not read my first email?	Did you not read my first email?	26382212	1472595987562	1472595987632	i	73
50713	554497	Did you not read my first email?	Did you not read my first email?	26382213	1472595987702	1472595987782	r	82
50713	554497	Did you not read my first email?	Did you not read my first email?	26382243	1472595988012	1472595988092	s	83
50713	554497	Did you not read my first email?	Did you not read my first email?	26382245	1472595988181	1472595988264	t	84
50713	554497	Did you not read my first email?	Did you not read my first email?	26382246	1472595988362	1472595988452	 	32
50713	554497	Did you not read my first email?	Did you not read my first email?	26382247	1472595988642	1472595988732	e	69
50713	554497	Did you not read my first email?	Did you not read my first email?	26382248	1472595988791	1472595988862	m	77
50713	554497	Did you not read my first email?	Did you not read my first email?	26382283	1472595988902	1472595988982	a	65
50713	554497	Did you not read my first email?	Did you not read my first email?	26382285	1472595989052	1472595989132	i	73
50713	554497	Did you not read my first email?	Did you not read my first email?	26382288	1472595989262	1472595989362	l	76
50713	554497	Did you not read my first email?	Did you not read my first email?	26382293	1472595989982	1472595990171	SHIFT	16
50713	554497	Did you not read my first email?	Did you not read my first email?	26382297	1472595990112	1472595990202	?	191
50713	554510	I wonder if RBS is another institution which could move quickly.	I wonder if RBS is another institution which could move quickly.	26382397	1472595992612	1472595992792	SHIFT	16
50713	554510	I wonder if RBS is another institution which could move quickly.	I wonder if RBS is another institution which could move quickly.	26382395	1472595992712	1472595992772	I	73
50713	554510	I wonder if RBS is another institution which could move quickly.	I wonder if RBS is another institution which could move quickly.	26382400	1472595992812	1472595992942	 	32
50713	554510	I wonder if RBS is another institution which could move quickly.	I wonder if RBS is another institution which could move quickly.	26382403	1472595993352	1472595993431	w	87
50713	554510	I wonder if RBS is another institution which could move quickly.	I wonder if RBS is another institution which could move quickly.	26382406	1472595993442	1472595993502	o	79
50713	554510	I wonder if RBS is another institution which could move quickly.	I wonder if RBS is another institution which could move quickly.	26382407	1472595993752	1472595993832	n	78
50713	554510	I wonder if RBS is another institution which could move quickly.	I wonder if RBS is another institution which could move quickly.	26382436	1472595994042	1472595994112	d	68
50713	554510	I wonder if RBS is another institution which could move quickly.	I wonder if RBS is another institution which could move quickly.	26382438	1472595994212	1472595994312	e	69
50713	554510	I wonder if RBS is another institution which could move quickly.	I wonder if RBS is another institution which could move quickly.	26382440	1472595994402	1472595994483	r	82
50713	554510	I wonder if RBS is another institution which could move quickly.	I wonder if RBS is another institution which could move quickly.	26382443	1472595995162	1472595995282	 	32
50713	554510	I wonder if RBS is another institution which could move quickly.	I wonder if RBS is another institution which could move quickly.	26382448	1472595995402	1472595995493	i	73
50713	554510	I wonder if RBS is another institution which could move quickly.	I wonder if RBS is another institution which could move quickly.	26382497	1472595995562	1472595995662	f	70
50713	554510	I wonder if RBS is another institution which could move quickly.	I wonder if RBS is another institution which could move quickly.	26382499	1472595995752	1472595995852	 	32
50713	554510	I wonder if RBS is another institution which could move quickly.	I wonder if RBS is another institution which could move quickly.	26382598	1472595995982	1472595997912	SHIFT	16
50713	554510	I wonder if RBS is another institution which could move quickly.	I wonder if RBS is another institution which could move quickly.	26382500	1472595996162	1472595996252	R	82
50713	554510	I wonder if RBS is another institution which could move quickly.	I wonder if RBS is another institution which could move quickly.	26382501	1472595997252	1472595997342	B	66
50713	554510	I wonder if RBS is another institution which could move quickly.	I wonder if RBS is another institution which could move quickly.	26382502	1472595997492	1472595997652	A	65
50713	554510	I wonder if RBS is another institution which could move quickly.	I wonder if RBS is another institution which could move quickly.	26382599	1472595998401	1472595998471	BKSP	8
50713	554510	I wonder if RBS is another institution which could move quickly.	I wonder if RBS is another institution which could move quickly.	26382600	1472595998702	1472595998801	s	83
50713	554510	I wonder if RBS is another institution which could move quickly.	I wonder if RBS is another institution which could move quickly.	26382601	1472595999092	1472595999182	BKSP	8
50713	554510	I wonder if RBS is another institution which could move quickly.	I wonder if RBS is another institution which could move quickly.	26382603	1472595999242	1472595999602	SHIFT	16
50713	554510	I wonder if RBS is another institution which could move quickly.	I wonder if RBS is another institution which could move quickly.	26382602	1472595999412	1472595999502	S	83
50713	554510	I wonder if RBS is another institution which could move quickly.	I wonder if RBS is another institution which could move quickly.	26382604	1472595999821	1472595999932	 	32
50713	554510	I wonder if RBS is another institution which could move quickly.	I wonder if RBS is another institution which could move quickly.	26382605	1472596000042	1472596000133	i	73
50713	554510	I wonder if RBS is another institution which could move quickly.	I wonder if RBS is another institution which could move quickly.	26382622	1472596000122	1472596000202	s	83
50713	554510	I wonder if RBS is another institution which could move quickly.	I wonder if RBS is another institution which could move quickly.	26382624	1472596000282	1472596000362	 	32
50713	554510	I wonder if RBS is another institution which could move quickly.	I wonder if RBS is another institution which could move quickly.	26382625	1472596000542	1472596000632	a	65
50713	554510	I wonder if RBS is another institution which could move quickly.	I wonder if RBS is another institution which could move quickly.	26382626	1472596000641	1472596000722	n	78
50713	554510	I wonder if RBS is another institution which could move quickly.	I wonder if RBS is another institution which could move quickly.	26382627	1472596000792	1472596000872	o	79
50713	554510	I wonder if RBS is another institution which could move quickly.	I wonder if RBS is another institution which could move quickly.	26382628	1472596000972	1472596001021	t	84
50713	554510	I wonder if RBS is another institution which could move quickly.	I wonder if RBS is another institution which could move quickly.	26382641	1472596001052	1472596001142	h	72
50713	554510	I wonder if RBS is another institution which could move quickly.	I wonder if RBS is another institution which could move quickly.	26382643	1472596001211	1472596001292	e	69
50713	554510	I wonder if RBS is another institution which could move quickly.	I wonder if RBS is another institution which could move quickly.	26382645	1472596001411	1472596001482	r	82
50713	554510	I wonder if RBS is another institution which could move quickly.	I wonder if RBS is another institution which could move quickly.	26382647	1472596001572	1472596001662	 	32
50713	554510	I wonder if RBS is another institution which could move quickly.	I wonder if RBS is another institution which could move quickly.	26382648	1472596001702	1472596001802	i	73
50713	554510	I wonder if RBS is another institution which could move quickly.	I wonder if RBS is another institution which could move quickly.	26382676	1472596001852	1472596001932	n	78
50713	554510	I wonder if RBS is another institution which could move quickly.	I wonder if RBS is another institution which could move quickly.	26382677	1472596002062	1472596002172	s	83
50713	554510	I wonder if RBS is another institution which could move quickly.	I wonder if RBS is another institution which could move quickly.	26382678	1472596002382	1472596002451	t	84
50713	554510	I wonder if RBS is another institution which could move quickly.	I wonder if RBS is another institution which could move quickly.	26382679	1472596002582	1472596002651	i	73
50713	554510	I wonder if RBS is another institution which could move quickly.	I wonder if RBS is another institution which could move quickly.	26382680	1472596002742	1472596002812	t	84
50713	554510	I wonder if RBS is another institution which could move quickly.	I wonder if RBS is another institution which could move quickly.	26382723	1472596002882	1472596002962	u	85
50713	554510	I wonder if RBS is another institution which could move quickly.	I wonder if RBS is another institution which could move quickly.	26382724	1472596003092	1472596003181	t	84
50713	554510	I wonder if RBS is another institution which could move quickly.	I wonder if RBS is another institution which could move quickly.	26382727	1472596003232	1472596003342	i	73
50713	554510	I wonder if RBS is another institution which could move quickly.	I wonder if RBS is another institution which could move quickly.	26382730	1472596003472	1472596003592	o	79
50713	554510	I wonder if RBS is another institution which could move quickly.	I wonder if RBS is another institution which could move quickly.	26382734	1472596003672	1472596003751	n	78
50713	554510	I wonder if RBS is another institution which could move quickly.	I wonder if RBS is another institution which could move quickly.	26382808	1472596003861	1472596003952	 	32
50713	554510	I wonder if RBS is another institution which could move quickly.	I wonder if RBS is another institution which could move quickly.	26382813	1472596004592	1472596004672	w	87
50713	554510	I wonder if RBS is another institution which could move quickly.	I wonder if RBS is another institution which could move quickly.	26382818	1472596004681	1472596004752	h	72
50713	554510	I wonder if RBS is another institution which could move quickly.	I wonder if RBS is another institution which could move quickly.	26382822	1472596004842	1472596004922	i	73
50713	554510	I wonder if RBS is another institution which could move quickly.	I wonder if RBS is another institution which could move quickly.	26382825	1472596005022	1472596005101	c	67
50713	554510	I wonder if RBS is another institution which could move quickly.	I wonder if RBS is another institution which could move quickly.	26382846	1472596005162	1472596005232	h	72
50713	554510	I wonder if RBS is another institution which could move quickly.	I wonder if RBS is another institution which could move quickly.	26382849	1472596005312	1472596005392	 	32
50713	554510	I wonder if RBS is another institution which could move quickly.	I wonder if RBS is another institution which could move quickly.	26382852	1472596005652	1472596005731	c	67
50713	554510	I wonder if RBS is another institution which could move quickly.	I wonder if RBS is another institution which could move quickly.	26382855	1472596005802	1472596005892	o	79
50713	554510	I wonder if RBS is another institution which could move quickly.	I wonder if RBS is another institution which could move quickly.	26382883	1472596005862	1472596005946	a	65
50713	554510	I wonder if RBS is another institution which could move quickly.	I wonder if RBS is another institution which could move quickly.	26382886	1472596005953	1472596006011	u	85
50713	554510	I wonder if RBS is another institution which could move quickly.	I wonder if RBS is another institution which could move quickly.	26382889	1472596006132	1472596006252	l	76
50713	554510	I wonder if RBS is another institution which could move quickly.	I wonder if RBS is another institution which could move quickly.	26382893	1472596006262	1472596006352	d	68
50713	554510	I wonder if RBS is another institution which could move quickly.	I wonder if RBS is another institution which could move quickly.	26382897	1472596006442	1472596006542	 	32
50713	554510	I wonder if RBS is another institution which could move quickly.	I wonder if RBS is another institution which could move quickly.	26382904	1472596006722	1472596006792	m	77
50713	554510	I wonder if RBS is another institution which could move quickly.	I wonder if RBS is another institution which could move quickly.	26383072	1472596006892	1472596006982	o	79
50713	554510	I wonder if RBS is another institution which could move quickly.	I wonder if RBS is another institution which could move quickly.	26383073	1472596007172	1472596007252	v	86
50713	554510	I wonder if RBS is another institution which could move quickly.	I wonder if RBS is another institution which could move quickly.	26383074	1472596007352	1472596007432	e	69
50713	554510	I wonder if RBS is another institution which could move quickly.	I wonder if RBS is another institution which could move quickly.	26383075	1472596008402	1472596009142	BKSP	8
50713	554510	I wonder if RBS is another institution which could move quickly.	I wonder if RBS is another institution which could move quickly.	26383076	1472596010002	1472596010082	u	85
50713	554510	I wonder if RBS is another institution which could move quickly.	I wonder if RBS is another institution which could move quickly.	26383077	1472596010232	1472596010322	l	76
50713	554510	I wonder if RBS is another institution which could move quickly.	I wonder if RBS is another institution which could move quickly.	26383101	1472596010452	1472596010532	d	68
50713	554510	I wonder if RBS is another institution which could move quickly.	I wonder if RBS is another institution which could move quickly.	26383102	1472596010662	1472596010761	 	32
50713	554510	I wonder if RBS is another institution which could move quickly.	I wonder if RBS is another institution which could move quickly.	26383103	1472596010941	1472596011031	m	77
50713	554510	I wonder if RBS is another institution which could move quickly.	I wonder if RBS is another institution which could move quickly.	26383104	1472596011102	1472596011182	o	79
50713	554510	I wonder if RBS is another institution which could move quickly.	I wonder if RBS is another institution which could move quickly.	26383106	1472596011262	1472596011342	v	86
50713	554510	I wonder if RBS is another institution which could move quickly.	I wonder if RBS is another institution which could move quickly.	26383131	1472596011452	1472596011521	e	69
50713	554510	I wonder if RBS is another institution which could move quickly.	I wonder if RBS is another institution which could move quickly.	26383133	1472596011622	1472596011712	 	32
50713	554510	I wonder if RBS is another institution which could move quickly.	I wonder if RBS is another institution which could move quickly.	26383135	1472596011832	1472596011912	q	81
50713	554510	I wonder if RBS is another institution which could move quickly.	I wonder if RBS is another institution which could move quickly.	26383137	1472596011942	1472596012023	u	85
50713	554510	I wonder if RBS is another institution which could move quickly.	I wonder if RBS is another institution which could move quickly.	26383139	1472596012122	1472596012242	i	73
50713	554510	I wonder if RBS is another institution which could move quickly.	I wonder if RBS is another institution which could move quickly.	26383165	1472596012402	1472596012482	c	67
50713	554510	I wonder if RBS is another institution which could move quickly.	I wonder if RBS is another institution which could move quickly.	26383167	1472596012542	1472596012622	k	75
50713	554510	I wonder if RBS is another institution which could move quickly.	I wonder if RBS is another institution which could move quickly.	26383169	1472596012893	1472596013002	l	76
50713	554510	I wonder if RBS is another institution which could move quickly.	I wonder if RBS is another institution which could move quickly.	26383172	1472596013122	1472596013192	y	89
50713	554510	I wonder if RBS is another institution which could move quickly.	I wonder if RBS is another institution which could move quickly.	26383175	1472596013832	1472596013922	.	190
50713	554533	He is pretty tapped into it all.	He is pretty tapped into it all.	26383246	1472596015621	1472596015812	SHIFT	16
50713	554533	He is pretty tapped into it all.	He is pretty tapped into it all.	26383248	1472596015751	1472596015822	H	72
50713	554533	He is pretty tapped into it all.	He is pretty tapped into it all.	26383251	1472596015892	1472596015972	e	69
50713	554533	He is pretty tapped into it all.	He is pretty tapped into it all.	26383255	1472596016052	1472596016142	 	32
50713	554533	He is pretty tapped into it all.	He is pretty tapped into it all.	26383258	1472596016202	1472596016262	i	73
50713	554533	He is pretty tapped into it all.	He is pretty tapped into it all.	26383262	1472596016272	1472596016362	s	83
50713	554533	He is pretty tapped into it all.	He is pretty tapped into it all.	26383290	1472596016452	1472596016542	 	32
50713	554533	He is pretty tapped into it all.	He is pretty tapped into it all.	26383293	1472596016623	1472596016722	p	80
50713	554533	He is pretty tapped into it all.	He is pretty tapped into it all.	26383298	1472596016801	1472596016902	r	82
50713	554533	He is pretty tapped into it all.	He is pretty tapped into it all.	26383301	1472596016972	1472596017052	e	69
50713	554533	He is pretty tapped into it all.	He is pretty tapped into it all.	26383304	1472596017222	1472596017292	t	84
50713	554533	He is pretty tapped into it all.	He is pretty tapped into it all.	26383324	1472596017392	1472596017452	t	84
50713	554533	He is pretty tapped into it all.	He is pretty tapped into it all.	26383328	1472596017482	1472596017572	y	89
50713	554533	He is pretty tapped into it all.	He is pretty tapped into it all.	26383332	1472596017612	1472596017722	 	32
50713	554533	He is pretty tapped into it all.	He is pretty tapped into it all.	26383337	1472596017852	1472596017942	t	84
50713	554533	He is pretty tapped into it all.	He is pretty tapped into it all.	26383341	1472596017992	1472596018092	a	65
50713	554533	He is pretty tapped into it all.	He is pretty tapped into it all.	26383376	1472596018192	1472596018292	p	80
50713	554533	He is pretty tapped into it all.	He is pretty tapped into it all.	26383379	1472596018382	1472596018462	p	80
50713	554533	He is pretty tapped into it all.	He is pretty tapped into it all.	26383383	1472596018492	1472596018572	e	69
50713	554533	He is pretty tapped into it all.	He is pretty tapped into it all.	26383387	1472596018711	1472596018822	d	68
50713	554533	He is pretty tapped into it all.	He is pretty tapped into it all.	26383389	1472596018932	1472596019042	 	32
50713	554533	He is pretty tapped into it all.	He is pretty tapped into it all.	26383428	1472596019092	1472596019192	i	73
50713	554533	He is pretty tapped into it all.	He is pretty tapped into it all.	26383432	1472596019262	1472596019352	n	78
50713	554533	He is pretty tapped into it all.	He is pretty tapped into it all.	26383435	1472596019792	1472596019861	t	84
50713	554533	He is pretty tapped into it all.	He is pretty tapped into it all.	26383439	1472596019942	1472596020001	o	79
50713	554533	He is pretty tapped into it all.	He is pretty tapped into it all.	26383442	1472596020042	1472596020152	 	32
50713	554533	He is pretty tapped into it all.	He is pretty tapped into it all.	26383489	1472596020482	1472596020541	i	73
50713	554533	He is pretty tapped into it all.	He is pretty tapped into it all.	26383491	1472596020622	1472596020692	t	84
50713	554533	He is pretty tapped into it all.	He is pretty tapped into it all.	26383496	1472596020782	1472596020862	 	32
50713	554533	He is pretty tapped into it all.	He is pretty tapped into it all.	26383502	1472596020992	1472596021092	a	65
50713	554533	He is pretty tapped into it all.	He is pretty tapped into it all.	26383508	1472596021292	1472596021342	l	76
50713	554533	He is pretty tapped into it all.	He is pretty tapped into it all.	26383531	1472596021432	1472596021492	l	76
50713	554533	He is pretty tapped into it all.	He is pretty tapped into it all.	26383534	1472596021672	1472596021741	.	190
50713	554540	Please accept my apology.	Please accept my apology.	26383612	1472596023732	1472596023941	SHIFT	16
50713	554540	Please accept my apology.	Please accept my apology.	26383610	1472596023842	1472596023922	P	80
50713	554540	Please accept my apology.	Please accept my apology.	26383615	1472596024022	1472596024082	l	76
50713	554540	Please accept my apology.	Please accept my apology.	26383618	1472596024102	1472596024182	e	69
50713	554540	Please accept my apology.	Please accept my apology.	26383620	1472596024282	1472596024392	a	65
50713	554540	Please accept my apology.	Please accept my apology.	26383623	1472596024462	1472596024552	s	83
50713	554540	Please accept my apology.	Please accept my apology.	26383653	1472596024612	1472596024732	e	69
50713	554540	Please accept my apology.	Please accept my apology.	26383656	1472596024821	1472596024931	 	32
50713	554540	Please accept my apology.	Please accept my apology.	26383657	1472596025022	1472596025102	a	65
50713	554540	Please accept my apology.	Please accept my apology.	26383658	1472596025282	1472596025371	c	67
50713	554540	Please accept my apology.	Please accept my apology.	26383659	1472596025461	1472596025541	c	67
50713	554540	Please accept my apology.	Please accept my apology.	26383710	1472596025682	1472596025772	e	69
50713	554540	Please accept my apology.	Please accept my apology.	26383714	1472596025891	1472596025991	p	80
50713	554540	Please accept my apology.	Please accept my apology.	26383717	1472596026102	1472596026182	t	84
50713	554540	Please accept my apology.	Please accept my apology.	26383719	1472596026291	1472596026382	 	32
50713	554540	Please accept my apology.	Please accept my apology.	26383722	1472596026502	1472596026582	m	77
50713	554540	Please accept my apology.	Please accept my apology.	26383801	1472596026703	1472596026802	y	89
50713	554540	Please accept my apology.	Please accept my apology.	26383804	1472596026852	1472596026932	 	32
50713	554540	Please accept my apology.	Please accept my apology.	26383807	1472596027262	1472596027352	a	65
50713	554540	Please accept my apology.	Please accept my apology.	26383810	1472596027441	1472596027541	p	80
50713	554540	Please accept my apology.	Please accept my apology.	26383812	1472596028642	1472596028732	o	79
50713	554540	Please accept my apology.	Please accept my apology.	26383837	1472596028852	1472596028912	l	76
50713	554540	Please accept my apology.	Please accept my apology.	26383842	1472596029052	1472596029112	o	79
50713	554540	Please accept my apology.	Please accept my apology.	26383847	1472596029182	1472596029252	g	71
50713	554540	Please accept my apology.	Please accept my apology.	26383852	1472596029352	1472596029442	y	89
50713	554540	Please accept my apology.	Please accept my apology.	26383858	1472596029682	1472596029771	.	190
50713	554545	We will forward it to you as soon as we get it.	We will forward it to you as soon as we get it.	26383962	1472596031572	1472596031802	SHIFT	16
50713	554545	We will forward it to you as soon as we get it.	We will forward it to you as soon as we get it.	26383967	1472596031722	1472596031832	W	87
50713	554545	We will forward it to you as soon as we get it.	We will forward it to you as soon as we get it.	26383969	1472596032202	1472596032312	e	69
50713	554545	We will forward it to you as soon as we get it.	We will forward it to you as soon as we get it.	26383972	1472596032402	1472596032502	 	32
50713	554545	We will forward it to you as soon as we get it.	We will forward it to you as soon as we get it.	26383974	1472596032932	1472596033042	w	87
50713	554545	We will forward it to you as soon as we get it.	We will forward it to you as soon as we get it.	26383975	1472596033122	1472596033192	i	73
50713	554545	We will forward it to you as soon as we get it.	We will forward it to you as soon as we get it.	26384000	1472596033402	1472596033462	l	76
50713	554545	We will forward it to you as soon as we get it.	We will forward it to you as soon as we get it.	26384003	1472596033532	1472596033642	l	76
50713	554545	We will forward it to you as soon as we get it.	We will forward it to you as soon as we get it.	26384005	1472596033652	1472596033722	 	32
50713	554545	We will forward it to you as soon as we get it.	We will forward it to you as soon as we get it.	26384008	1472596033822	1472596033911	f	70
50713	554545	We will forward it to you as soon as we get it.	We will forward it to you as soon as we get it.	26384012	1472596033972	1472596034042	o	79
50713	554545	We will forward it to you as soon as we get it.	We will forward it to you as soon as we get it.	26384036	1472596034081	1472596034152	r	82
50713	554545	We will forward it to you as soon as we get it.	We will forward it to you as soon as we get it.	26384038	1472596034552	1472596034652	w	87
50713	554545	We will forward it to you as soon as we get it.	We will forward it to you as soon as we get it.	26384040	1472596034752	1472596034852	a	65
50713	554545	We will forward it to you as soon as we get it.	We will forward it to you as soon as we get it.	26384041	1472596034932	1472596035022	r	82
50713	554545	We will forward it to you as soon as we get it.	We will forward it to you as soon as we get it.	26384042	1472596035202	1472596035292	d	68
50713	554545	We will forward it to you as soon as we get it.	We will forward it to you as soon as we get it.	26384056	1472596035431	1472596035552	 	32
50713	554545	We will forward it to you as soon as we get it.	We will forward it to you as soon as we get it.	26384058	1472596035622	1472596035702	i	73
50713	554545	We will forward it to you as soon as we get it.	We will forward it to you as soon as we get it.	26384060	1472596035761	1472596035842	t	84
50713	554545	We will forward it to you as soon as we get it.	We will forward it to you as soon as we get it.	26384062	1472596035932	1472596036011	 	32
50713	554545	We will forward it to you as soon as we get it.	We will forward it to you as soon as we get it.	26384065	1472596036142	1472596036222	t	84
50713	554545	We will forward it to you as soon as we get it.	We will forward it to you as soon as we get it.	26384104	1472596036242	1472596036324	o	79
50713	554545	We will forward it to you as soon as we get it.	We will forward it to you as soon as we get it.	26384109	1472596036382	1472596036492	 	32
50713	554545	We will forward it to you as soon as we get it.	We will forward it to you as soon as we get it.	26384115	1472596036702	1472596036792	y	89
50713	554545	We will forward it to you as soon as we get it.	We will forward it to you as soon as we get it.	26384119	1472596036902	1472596037001	o	79
50713	554545	We will forward it to you as soon as we get it.	We will forward it to you as soon as we get it.	26384123	1472596037032	1472596037111	u	85
50713	554545	We will forward it to you as soon as we get it.	We will forward it to you as soon as we get it.	26384144	1472596037252	1472596037342	 	32
50713	554545	We will forward it to you as soon as we get it.	We will forward it to you as soon as we get it.	26384145	1472596037412	1472596037542	a	65
50713	554545	We will forward it to you as soon as we get it.	We will forward it to you as soon as we get it.	26384146	1472596037602	1472596037682	s	83
50713	554545	We will forward it to you as soon as we get it.	We will forward it to you as soon as we get it.	26384147	1472596037781	1472596037882	 	32
50713	554545	We will forward it to you as soon as we get it.	We will forward it to you as soon as we get it.	26384151	1472596037981	1472596038062	s	83
50713	554545	We will forward it to you as soon as we get it.	We will forward it to you as soon as we get it.	26384177	1472596038252	1472596038352	o	79
50713	554545	We will forward it to you as soon as we get it.	We will forward it to you as soon as we get it.	26384179	1472596038441	1472596038532	o	79
50713	554545	We will forward it to you as soon as we get it.	We will forward it to you as soon as we get it.	26384182	1472596038622	1472596038722	n	78
50713	554545	We will forward it to you as soon as we get it.	We will forward it to you as soon as we get it.	26384184	1472596038772	1472596038852	 	32
50713	554545	We will forward it to you as soon as we get it.	We will forward it to you as soon as we get it.	26384186	1472596038922	1472596039042	a	65
50713	554545	We will forward it to you as soon as we get it.	We will forward it to you as soon as we get it.	26384219	1472596039091	1472596039212	s	83
50713	554545	We will forward it to you as soon as we get it.	We will forward it to you as soon as we get it.	26384221	1472596039262	1472596039372	 	32
50713	554545	We will forward it to you as soon as we get it.	We will forward it to you as soon as we get it.	26384223	1472596039462	1472596039582	w	87
50713	554545	We will forward it to you as soon as we get it.	We will forward it to you as soon as we get it.	26384225	1472596039632	1472596039742	e	69
50713	554545	We will forward it to you as soon as we get it.	We will forward it to you as soon as we get it.	26384226	1472596039842	1472596039942	 	32
50713	554545	We will forward it to you as soon as we get it.	We will forward it to you as soon as we get it.	26384267	1472596040012	1472596040112	g	71
50713	554545	We will forward it to you as soon as we get it.	We will forward it to you as soon as we get it.	26384270	1472596040212	1472596040282	e	69
50713	554545	We will forward it to you as soon as we get it.	We will forward it to you as soon as we get it.	26384273	1472596040402	1472596040482	t	84
50713	554545	We will forward it to you as soon as we get it.	We will forward it to you as soon as we get it.	26384276	1472596040582	1472596040692	 	32
50713	554545	We will forward it to you as soon as we get it.	We will forward it to you as soon as we get it.	26384278	1472596040802	1472596040882	i	73
50713	554545	We will forward it to you as soon as we get it.	We will forward it to you as soon as we get it.	26384292	1472596040972	1472596041052	t	84
50713	554545	We will forward it to you as soon as we get it.	We will forward it to you as soon as we get it.	26384293	1472596041352	1472596041432	.	190
50713	554558	What's your phone number?	What's your phone number?	26384552	1472596043632	1472596043711	w	87
50713	554558	What's your phone number?	What's your phone number?	26384555	1472596043761	1472596043822	h	72
50713	554558	What's your phone number?	What's your phone number?	26384557	1472596043862	1472596043952	a	65
50713	554558	What's your phone number?	What's your phone number?	26384559	1472596044032	1472596044142	t	84
50713	554558	What's your phone number?	What's your phone number?	26384562	1472596044992	1472596045092	BKSP	8
50713	554558	What's your phone number?	What's your phone number?	26384566	1472596045192	1472596045252	BKSP	8
50713	554558	What's your phone number?	What's your phone number?	26384569	1472596045352	1472596045402	BKSP	8
50713	554558	What's your phone number?	What's your phone number?	26384572	1472596045491	1472596045552	BKSP	8
50713	554558	What's your phone number?	What's your phone number?	26384575	1472596045622	1472596045672	BKSP	8
50713	554558	What's your phone number?	What's your phone number?	26384640	1472596045692	1472596046072	SHIFT	16
50713	554558	What's your phone number?	What's your phone number?	26384579	1472596045892	1472596045992	W	87
50713	554558	What's your phone number?	What's your phone number?	26384642	1472596046581	1472596046662	h	72
50713	554558	What's your phone number?	What's your phone number?	26384645	1472596046701	1472596046782	a	65
50713	554558	What's your phone number?	What's your phone number?	26384648	1472596046862	1472596046942	t	84
50713	554558	What's your phone number?	What's your phone number?	26384650	1472596047532	1472596047711	'	222
50713	554558	What's your phone number?	What's your phone number?	26384652	1472596048202	1472596048282	s	83
50713	554558	What's your phone number?	What's your phone number?	26384818	1472596048442	1472596048552	 	32
50713	554558	What's your phone number?	What's your phone number?	26384820	1472596051772	1472596051851	y	89
50713	554558	What's your phone number?	What's your phone number?	26384829	1472596051941	1472596052032	o	79
50713	554558	What's your phone number?	What's your phone number?	26384833	1472596052052	1472596052121	u	85
50713	554558	What's your phone number?	What's your phone number?	26384839	1472596052171	1472596052252	r	82
50713	554558	What's your phone number?	What's your phone number?	26384956	1472596052392	1472596052532	 	32
50713	554558	What's your phone number?	What's your phone number?	26384959	1472596052732	1472596052832	p	80
50713	554558	What's your phone number?	What's your phone number?	26384966	1472596053062	1472596053151	o	79
50713	554558	What's your phone number?	What's your phone number?	26384970	1472596053632	1472596053702	BKSP	8
50713	554558	What's your phone number?	What's your phone number?	26384976	1472596054202	1472596054302	o	79
50713	554558	What's your phone number?	What's your phone number?	26384978	1472596054352	1472596054442	n	78
50713	554558	What's your phone number?	What's your phone number?	26385087	1472596054862	1472596054932	BKSP	8
50713	554558	What's your phone number?	What's your phone number?	26385093	1472596055022	1472596055092	BKSP	8
50713	554558	What's your phone number?	What's your phone number?	26385097	1472596055163	1472596055231	BKSP	8
50713	554558	What's your phone number?	What's your phone number?	26385100	1472596055682	1472596055772	p	80
50713	554558	What's your phone number?	What's your phone number?	26385103	1472596055872	1472596055971	h	72
50713	554558	What's your phone number?	What's your phone number?	26385106	1472596056032	1472596056114	o	79
50713	554558	What's your phone number?	What's your phone number?	26385107	1472596056212	1472596056302	n	78
50713	554558	What's your phone number?	What's your phone number?	26385110	1472596056392	1472596056472	e	69
50713	554558	What's your phone number?	What's your phone number?	26385146	1472596056572	1472596056672	 	32
50713	554558	What's your phone number?	What's your phone number?	26385149	1472596056751	1472596056822	n	78
50713	554558	What's your phone number?	What's your phone number?	26385151	1472596056902	1472596056982	u	85
50713	554558	What's your phone number?	What's your phone number?	26385152	1472596057102	1472596057172	m	77
50713	554558	What's your phone number?	What's your phone number?	26385153	1472596057202	1472596057292	b	66
50713	554558	What's your phone number?	What's your phone number?	26385221	1472596057422	1472596057482	e	69
50713	554558	What's your phone number?	What's your phone number?	26385226	1472596057582	1472596057662	r	82
50713	554558	What's your phone number?	What's your phone number?	26385228	1472596058342	1472596058582	SHIFT	16
50713	554558	What's your phone number?	What's your phone number?	26385231	1472596058522	1472596058621	?	191
50713	554580	But I believe answer will be yes.	But I believe answer will be yes.	26385349	1472596060821	1472596061062	SHIFT	16
50713	554580	But I believe answer will be yes.	But I believe answer will be yes.	26385352	1472596060971	1472596061072	B	66
50713	554580	But I believe answer will be yes.	But I believe answer will be yes.	26385354	1472596061142	1472596061212	u	85
50713	554580	But I believe answer will be yes.	But I believe answer will be yes.	26385356	1472596061301	1472596061402	t	84
50713	554580	But I believe answer will be yes.	But I believe answer will be yes.	26385358	1472596061502	1472596061592	 	32
50713	554580	But I believe answer will be yes.	But I believe answer will be yes.	26385393	1472596061742	1472596061952	SHIFT	16
50713	554580	But I believe answer will be yes.	But I believe answer will be yes.	26385359	1472596061881	1472596061941	I	73
50713	554580	But I believe answer will be yes.	But I believe answer will be yes.	26385395	1472596061983	1472596062102	 	32
50713	554580	But I believe answer will be yes.	But I believe answer will be yes.	26385399	1472596062472	1472596062552	b	66
50713	554580	But I believe answer will be yes.	But I believe answer will be yes.	26385401	1472596062652	1472596062732	e	69
50713	554580	But I believe answer will be yes.	But I believe answer will be yes.	26385403	1472596062771	1472596062852	l	76
50713	554580	But I believe answer will be yes.	But I believe answer will be yes.	26385405	1472596062912	1472596062982	e	69
50713	554580	But I believe answer will be yes.	But I believe answer will be yes.	26385507	1472596063822	1472596063892	BKSP	8
50713	554580	But I believe answer will be yes.	But I believe answer will be yes.	26385512	1472596064432	1472596064492	i	73
50713	554580	But I believe answer will be yes.	But I believe answer will be yes.	26385518	1472596064552	1472596064632	e	69
50713	554580	But I believe answer will be yes.	But I believe answer will be yes.	26385525	1472596064732	1472596064822	v	86
50713	554580	But I believe answer will be yes.	But I believe answer will be yes.	26385533	1472596064902	1472596064982	e	69
50713	554580	But I believe answer will be yes.	But I believe answer will be yes.	26385537	1472596065061	1472596065161	 	32
50713	554580	But I believe answer will be yes.	But I believe answer will be yes.	26385586	1472596065241	1472596065342	a	65
50713	554580	But I believe answer will be yes.	But I believe answer will be yes.	26385592	1472596065371	1472596065442	n	78
50713	554580	But I believe answer will be yes.	But I believe answer will be yes.	26385595	1472596065601	1472596065682	s	83
50713	554580	But I believe answer will be yes.	But I believe answer will be yes.	26385601	1472596065892	1472596066002	w	87
50713	554580	But I believe answer will be yes.	But I believe answer will be yes.	26385604	1472596066122	1472596066222	e	69
50713	554580	But I believe answer will be yes.	But I believe answer will be yes.	26385658	1472596066472	1472596066562	r	82
50713	554580	But I believe answer will be yes.	But I believe answer will be yes.	26385662	1472596066702	1472596066802	 	32
50713	554580	But I believe answer will be yes.	But I believe answer will be yes.	26385667	1472596066982	1472596067072	w	87
50713	554580	But I believe answer will be yes.	But I believe answer will be yes.	26385671	1472596067122	1472596067192	i	73
50713	554580	But I believe answer will be yes.	But I believe answer will be yes.	26385675	1472596067422	1472596067482	l	76
50713	554580	But I believe answer will be yes.	But I believe answer will be yes.	26385690	1472596067571	1472596067652	l	76
50713	554580	But I believe answer will be yes.	But I believe answer will be yes.	26385691	1472596067682	1472596067781	 	32
50713	554580	But I believe answer will be yes.	But I believe answer will be yes.	26385692	1472596067882	1472596067982	b	66
50713	554580	But I believe answer will be yes.	But I believe answer will be yes.	26385693	1472596068082	1472596068162	e	69
50713	554580	But I believe answer will be yes.	But I believe answer will be yes.	26385695	1472596068252	1472596068352	 	32
50713	554580	But I believe answer will be yes.	But I believe answer will be yes.	26385760	1472596068512	1472596068601	y	89
50713	554580	But I believe answer will be yes.	But I believe answer will be yes.	26385762	1472596068682	1472596068772	e	69
50713	554580	But I believe answer will be yes.	But I believe answer will be yes.	26385764	1472596069223	1472596069302	s	83
50713	554580	But I believe answer will be yes.	But I believe answer will be yes.	26385770	1472596069451	1472596069532	.	190
50713	554589	Just in case we haven't invited any of them.	Just in case we haven't invited any of them.	26385861	1472596071942	1472596072141	SHIFT	16
50713	554589	Just in case we haven't invited any of them.	Just in case we haven't invited any of them.	26385860	1472596072041	1472596072102	J	74
50713	554589	Just in case we haven't invited any of them.	Just in case we haven't invited any of them.	26385862	1472596072181	1472596072252	u	85
50713	554589	Just in case we haven't invited any of them.	Just in case we haven't invited any of them.	26385863	1472596072271	1472596072362	s	83
50713	554589	Just in case we haven't invited any of them.	Just in case we haven't invited any of them.	26385865	1472596072472	1472596072552	t	84
50713	554589	Just in case we haven't invited any of them.	Just in case we haven't invited any of them.	26385867	1472596072652	1472596072751	 	32
50713	554589	Just in case we haven't invited any of them.	Just in case we haven't invited any of them.	26385896	1472596072872	1472596072962	i	73
50713	554589	Just in case we haven't invited any of them.	Just in case we haven't invited any of them.	26385898	1472596073052	1472596073142	n	78
50713	554589	Just in case we haven't invited any of them.	Just in case we haven't invited any of them.	26385902	1472596073132	1472596073232	 	32
50713	554589	Just in case we haven't invited any of them.	Just in case we haven't invited any of them.	26385905	1472596073342	1472596073432	c	67
50713	554589	Just in case we haven't invited any of them.	Just in case we haven't invited any of them.	26385909	1472596073511	1472596073621	a	65
50713	554589	Just in case we haven't invited any of them.	Just in case we haven't invited any of them.	26385945	1472596073682	1472596073801	s	83
50713	554589	Just in case we haven't invited any of them.	Just in case we haven't invited any of them.	26385948	1472596073892	1472596073982	e	69
50713	554589	Just in case we haven't invited any of them.	Just in case we haven't invited any of them.	26385949	1472596074102	1472596074212	 	32
50713	554589	Just in case we haven't invited any of them.	Just in case we haven't invited any of them.	26385951	1472596074261	1472596074362	w	87
50713	554589	Just in case we haven't invited any of them.	Just in case we haven't invited any of them.	26385953	1472596074442	1472596074561	e	69
50713	554589	Just in case we haven't invited any of them.	Just in case we haven't invited any of them.	26385970	1472596074663	1472596074762	 	32
50713	554589	Just in case we haven't invited any of them.	Just in case we haven't invited any of them.	26385974	1472596074962	1472596075042	h	72
50713	554589	Just in case we haven't invited any of them.	Just in case we haven't invited any of them.	26385978	1472596075062	1472596075162	a	65
50713	554589	Just in case we haven't invited any of them.	Just in case we haven't invited any of them.	26385982	1472596075242	1472596075331	v	86
50713	554589	Just in case we haven't invited any of them.	Just in case we haven't invited any of them.	26385985	1472596075432	1472596075501	e	69
50713	554589	Just in case we haven't invited any of them.	Just in case we haven't invited any of them.	26386296	1472596076301	1472596076382	n	78
50713	554589	Just in case we haven't invited any of them.	Just in case we haven't invited any of them.	26386298	1472596076812	1472596076922	SHIFT	16
50713	554589	Just in case we haven't invited any of them.	Just in case we haven't invited any of them.	26386299	1472596077172	1472596077242	t	84
50713	554589	Just in case we haven't invited any of them.	Just in case we haven't invited any of them.	26386300	1472596077842	1472596077922	\	220
50713	554589	Just in case we haven't invited any of them.	Just in case we haven't invited any of them.	26386301	1472596077853	1472596077933	BKSP	8
50713	554589	Just in case we haven't invited any of them.	Just in case we haven't invited any of them.	26386302	1472596078822	1472596078902	BKSP	8
50713	554589	Just in case we haven't invited any of them.	Just in case we haven't invited any of them.	26386303	1472596081051	1472596081132	'	222
50713	554589	Just in case we haven't invited any of them.	Just in case we haven't invited any of them.	26386304	1472596082162	1472596082242	t	84
50713	554589	Just in case we haven't invited any of them.	Just in case we haven't invited any of them.	26386356	1472596082432	1472596082541	 	32
50713	554589	Just in case we haven't invited any of them.	Just in case we haven't invited any of them.	26386358	1472596082982	1472596083062	i	73
50713	554589	Just in case we haven't invited any of them.	Just in case we haven't invited any of them.	26386362	1472596083131	1472596083202	n	78
50713	554589	Just in case we haven't invited any of them.	Just in case we haven't invited any of them.	26386366	1472596083502	1472596083582	v	86
50713	554589	Just in case we haven't invited any of them.	Just in case we haven't invited any of them.	26386369	1472596083643	1472596083712	i	73
50713	554589	Just in case we haven't invited any of them.	Just in case we haven't invited any of them.	26386408	1472596083992	1472596084082	t	84
50713	554589	Just in case we haven't invited any of them.	Just in case we haven't invited any of them.	26386411	1472596084171	1472596084252	e	69
50713	554589	Just in case we haven't invited any of them.	Just in case we haven't invited any of them.	26386416	1472596084392	1472596084502	d	68
50713	554589	Just in case we haven't invited any of them.	Just in case we haven't invited any of them.	26386421	1472596084611	1472596084721	 	32
50713	554589	Just in case we haven't invited any of them.	Just in case we haven't invited any of them.	26386426	1472596084862	1472596084962	a	65
50713	554589	Just in case we haven't invited any of them.	Just in case we haven't invited any of them.	26386457	1472596085002	1472596085082	n	78
50713	554589	Just in case we haven't invited any of them.	Just in case we haven't invited any of them.	26386459	1472596085191	1472596085301	y	89
50713	554589	Just in case we haven't invited any of them.	Just in case we haven't invited any of them.	26386464	1472596085362	1472596085482	 	32
50713	554589	Just in case we haven't invited any of them.	Just in case we haven't invited any of them.	26386469	1472596085632	1472596085702	o	79
50713	554589	Just in case we haven't invited any of them.	Just in case we haven't invited any of them.	26386476	1472596085782	1472596085862	f	70
50713	554589	Just in case we haven't invited any of them.	Just in case we haven't invited any of them.	26386500	1472596085962	1472596086032	 	32
50713	554589	Just in case we haven't invited any of them.	Just in case we haven't invited any of them.	26386502	1472596086152	1472596086222	t	84
50713	554589	Just in case we haven't invited any of them.	Just in case we haven't invited any of them.	26386504	1472596086262	1472596086341	h	72
50713	554589	Just in case we haven't invited any of them.	Just in case we haven't invited any of them.	26386507	1472596086372	1472596086462	e	69
50713	554589	Just in case we haven't invited any of them.	Just in case we haven't invited any of them.	26386512	1472596086522	1472596086592	m	77
50713	554589	Just in case we haven't invited any of them.	Just in case we haven't invited any of them.	26386540	1472596087141	1472596087212	.	190
50713	554604	World Cup fans at Stanford Stadium are almost certain to be fenced in.	World Cup fans at Stanford Stadium are almost certain to be fenced in.	26386668	1472596089181	1472596089432	SHIFT	16
50713	554604	World Cup fans at Stanford Stadium are almost certain to be fenced in.	World Cup fans at Stanford Stadium are almost certain to be fenced in.	26386670	1472596089331	1472596089451	W	87
50713	554604	World Cup fans at Stanford Stadium are almost certain to be fenced in.	World Cup fans at Stanford Stadium are almost certain to be fenced in.	26386673	1472596089552	1472596089612	o	79
50713	554604	World Cup fans at Stanford Stadium are almost certain to be fenced in.	World Cup fans at Stanford Stadium are almost certain to be fenced in.	26386676	1472596089702	1472596089812	r	82
50713	554604	World Cup fans at Stanford Stadium are almost certain to be fenced in.	World Cup fans at Stanford Stadium are almost certain to be fenced in.	26386679	1472596089922	1472596090002	l	76
50713	554604	World Cup fans at Stanford Stadium are almost certain to be fenced in.	World Cup fans at Stanford Stadium are almost certain to be fenced in.	26386681	1472596090122	1472596090212	d	68
50713	554604	World Cup fans at Stanford Stadium are almost certain to be fenced in.	World Cup fans at Stanford Stadium are almost certain to be fenced in.	26386727	1472596090402	1472596090492	 	32
50713	554604	World Cup fans at Stanford Stadium are almost certain to be fenced in.	World Cup fans at Stanford Stadium are almost certain to be fenced in.	26386731	1472596090932	1472596091151	SHIFT	16
50713	554604	World Cup fans at Stanford Stadium are almost certain to be fenced in.	World Cup fans at Stanford Stadium are almost certain to be fenced in.	26386734	1472596091071	1472596091172	C	67
50713	554604	World Cup fans at Stanford Stadium are almost certain to be fenced in.	World Cup fans at Stanford Stadium are almost certain to be fenced in.	26386736	1472596091232	1472596091292	u	85
50713	554604	World Cup fans at Stanford Stadium are almost certain to be fenced in.	World Cup fans at Stanford Stadium are almost certain to be fenced in.	26386738	1472596091452	1472596091572	p	80
50713	554604	World Cup fans at Stanford Stadium are almost certain to be fenced in.	World Cup fans at Stanford Stadium are almost certain to be fenced in.	26386740	1472596091701	1472596091802	 	32
50713	554604	World Cup fans at Stanford Stadium are almost certain to be fenced in.	World Cup fans at Stanford Stadium are almost certain to be fenced in.	26386761	1472596092061	1472596092132	f	70
50713	554604	World Cup fans at Stanford Stadium are almost certain to be fenced in.	World Cup fans at Stanford Stadium are almost certain to be fenced in.	26386762	1472596092202	1472596092291	a	65
50713	554604	World Cup fans at Stanford Stadium are almost certain to be fenced in.	World Cup fans at Stanford Stadium are almost certain to be fenced in.	26386763	1472596092292	1472596092372	n	78
50713	554604	World Cup fans at Stanford Stadium are almost certain to be fenced in.	World Cup fans at Stanford Stadium are almost certain to be fenced in.	26386764	1472596092462	1472596092532	s	83
50713	554604	World Cup fans at Stanford Stadium are almost certain to be fenced in.	World Cup fans at Stanford Stadium are almost certain to be fenced in.	26386765	1472596092641	1472596092742	 	32
50713	554604	World Cup fans at Stanford Stadium are almost certain to be fenced in.	World Cup fans at Stanford Stadium are almost certain to be fenced in.	26386815	1472596092824	1472596092911	a	65
50713	554604	World Cup fans at Stanford Stadium are almost certain to be fenced in.	World Cup fans at Stanford Stadium are almost certain to be fenced in.	26386816	1472596093272	1472596093351	t	84
50713	554604	World Cup fans at Stanford Stadium are almost certain to be fenced in.	World Cup fans at Stanford Stadium are almost certain to be fenced in.	26386818	1472596093462	1472596093541	 	32
50713	554604	World Cup fans at Stanford Stadium are almost certain to be fenced in.	World Cup fans at Stanford Stadium are almost certain to be fenced in.	26386821	1472596094023	1472596094301	SHIFT	16
50713	554604	World Cup fans at Stanford Stadium are almost certain to be fenced in.	World Cup fans at Stanford Stadium are almost certain to be fenced in.	26386819	1472596094201	1472596094292	S	83
50713	554604	World Cup fans at Stanford Stadium are almost certain to be fenced in.	World Cup fans at Stanford Stadium are almost certain to be fenced in.	26386822	1472596094432	1472596094462	f	70
50713	554604	World Cup fans at Stanford Stadium are almost certain to be fenced in.	World Cup fans at Stanford Stadium are almost certain to be fenced in.	26386915	1472596094692	1472596094772	t	84
50713	554604	World Cup fans at Stanford Stadium are almost certain to be fenced in.	World Cup fans at Stanford Stadium are almost certain to be fenced in.	26386919	1472596094872	1472596094902	a	65
50713	554604	World Cup fans at Stanford Stadium are almost certain to be fenced in.	World Cup fans at Stanford Stadium are almost certain to be fenced in.	26386921	1472596095111	1472596095182	BKSP	8
50713	554604	World Cup fans at Stanford Stadium are almost certain to be fenced in.	World Cup fans at Stanford Stadium are almost certain to be fenced in.	26386926	1472596095261	1472596095341	BKSP	8
50713	554604	World Cup fans at Stanford Stadium are almost certain to be fenced in.	World Cup fans at Stanford Stadium are almost certain to be fenced in.	26386931	1472596095862	1472596095932	BKSP	8
50713	554604	World Cup fans at Stanford Stadium are almost certain to be fenced in.	World Cup fans at Stanford Stadium are almost certain to be fenced in.	26386935	1472596096361	1472596096442	t	84
50713	554604	World Cup fans at Stanford Stadium are almost certain to be fenced in.	World Cup fans at Stanford Stadium are almost certain to be fenced in.	26386937	1472596096512	1472596096591	a	65
50713	554604	World Cup fans at Stanford Stadium are almost certain to be fenced in.	World Cup fans at Stanford Stadium are almost certain to be fenced in.	26386942	1472596096632	1472596096701	n	78
50713	554604	World Cup fans at Stanford Stadium are almost certain to be fenced in.	World Cup fans at Stanford Stadium are almost certain to be fenced in.	26386976	1472596096852	1472596096922	f	70
50713	554604	World Cup fans at Stanford Stadium are almost certain to be fenced in.	World Cup fans at Stanford Stadium are almost certain to be fenced in.	26386981	1472596097012	1472596097112	o	79
50713	554604	World Cup fans at Stanford Stadium are almost certain to be fenced in.	World Cup fans at Stanford Stadium are almost certain to be fenced in.	26386986	1472596097152	1472596097241	r	82
50713	554604	World Cup fans at Stanford Stadium are almost certain to be fenced in.	World Cup fans at Stanford Stadium are almost certain to be fenced in.	26386991	1472596097372	1472596097481	d	68
50713	554604	World Cup fans at Stanford Stadium are almost certain to be fenced in.	World Cup fans at Stanford Stadium are almost certain to be fenced in.	26386995	1472596097602	1472596097732	 	32
50713	554604	World Cup fans at Stanford Stadium are almost certain to be fenced in.	World Cup fans at Stanford Stadium are almost certain to be fenced in.	26387030	1472596097932	1472596098171	SHIFT	16
50713	554604	World Cup fans at Stanford Stadium are almost certain to be fenced in.	World Cup fans at Stanford Stadium are almost certain to be fenced in.	26387032	1472596098082	1472596098182	S	83
50713	554604	World Cup fans at Stanford Stadium are almost certain to be fenced in.	World Cup fans at Stanford Stadium are almost certain to be fenced in.	26387036	1472596098381	1472596098472	t	84
50713	554604	World Cup fans at Stanford Stadium are almost certain to be fenced in.	World Cup fans at Stanford Stadium are almost certain to be fenced in.	26387039	1472596098551	1472596098632	a	65
50713	554604	World Cup fans at Stanford Stadium are almost certain to be fenced in.	World Cup fans at Stanford Stadium are almost certain to be fenced in.	26387042	1472596098822	1472596098912	d	68
50713	554604	World Cup fans at Stanford Stadium are almost certain to be fenced in.	World Cup fans at Stanford Stadium are almost certain to be fenced in.	26387045	1472596098972	1472596099042	i	73
50713	554604	World Cup fans at Stanford Stadium are almost certain to be fenced in.	World Cup fans at Stanford Stadium are almost certain to be fenced in.	26387147	1472596099402	1472596099472	u	85
50713	554604	World Cup fans at Stanford Stadium are almost certain to be fenced in.	World Cup fans at Stanford Stadium are almost certain to be fenced in.	26387150	1472596100032	1472596100112	m	77
50713	554604	World Cup fans at Stanford Stadium are almost certain to be fenced in.	World Cup fans at Stanford Stadium are almost certain to be fenced in.	26387155	1472596100872	1472596100962	 	32
50713	554604	World Cup fans at Stanford Stadium are almost certain to be fenced in.	World Cup fans at Stanford Stadium are almost certain to be fenced in.	26387158	1472596101371	1472596101481	a	65
50713	554604	World Cup fans at Stanford Stadium are almost certain to be fenced in.	World Cup fans at Stanford Stadium are almost certain to be fenced in.	26387160	1472596101541	1472596101642	r	82
50713	554604	World Cup fans at Stanford Stadium are almost certain to be fenced in.	World Cup fans at Stanford Stadium are almost certain to be fenced in.	26387222	1472596101722	1472596101812	e	69
50713	554604	World Cup fans at Stanford Stadium are almost certain to be fenced in.	World Cup fans at Stanford Stadium are almost certain to be fenced in.	26387224	1472596102262	1472596102372	 	32
50713	554604	World Cup fans at Stanford Stadium are almost certain to be fenced in.	World Cup fans at Stanford Stadium are almost certain to be fenced in.	26387227	1472596102622	1472596102712	a	65
50713	554604	World Cup fans at Stanford Stadium are almost certain to be fenced in.	World Cup fans at Stanford Stadium are almost certain to be fenced in.	26387231	1472596102771	1472596102842	l	76
50713	554604	World Cup fans at Stanford Stadium are almost certain to be fenced in.	World Cup fans at Stanford Stadium are almost certain to be fenced in.	26387234	1472596102961	1472596103052	m	77
50713	554604	World Cup fans at Stanford Stadium are almost certain to be fenced in.	World Cup fans at Stanford Stadium are almost certain to be fenced in.	26387268	1472596103131	1472596103202	o	79
50713	554604	World Cup fans at Stanford Stadium are almost certain to be fenced in.	World Cup fans at Stanford Stadium are almost certain to be fenced in.	26387270	1472596103281	1472596103351	s	83
50713	554604	World Cup fans at Stanford Stadium are almost certain to be fenced in.	World Cup fans at Stanford Stadium are almost certain to be fenced in.	26387273	1472596103452	1472596103531	t	84
50713	554604	World Cup fans at Stanford Stadium are almost certain to be fenced in.	World Cup fans at Stanford Stadium are almost certain to be fenced in.	26387277	1472596103631	1472596103722	 	32
50713	554604	World Cup fans at Stanford Stadium are almost certain to be fenced in.	World Cup fans at Stanford Stadium are almost certain to be fenced in.	26387282	1472596104042	1472596104142	c	67
50713	554604	World Cup fans at Stanford Stadium are almost certain to be fenced in.	World Cup fans at Stanford Stadium are almost certain to be fenced in.	26387321	1472596104272	1472596104351	e	69
50713	554604	World Cup fans at Stanford Stadium are almost certain to be fenced in.	World Cup fans at Stanford Stadium are almost certain to be fenced in.	26387325	1472596104442	1472596104531	r	82
50713	554604	World Cup fans at Stanford Stadium are almost certain to be fenced in.	World Cup fans at Stanford Stadium are almost certain to be fenced in.	26387328	1472596104732	1472596104821	t	84
50713	554604	World Cup fans at Stanford Stadium are almost certain to be fenced in.	World Cup fans at Stanford Stadium are almost certain to be fenced in.	26387332	1472596104902	1472596105002	a	65
50713	554604	World Cup fans at Stanford Stadium are almost certain to be fenced in.	World Cup fans at Stanford Stadium are almost certain to be fenced in.	26387336	1472596105112	1472596105201	i	73
50713	554604	World Cup fans at Stanford Stadium are almost certain to be fenced in.	World Cup fans at Stanford Stadium are almost certain to be fenced in.	26387362	1472596105302	1472596105404	n	78
50713	554604	World Cup fans at Stanford Stadium are almost certain to be fenced in.	World Cup fans at Stanford Stadium are almost certain to be fenced in.	26387365	1472596105462	1472596105573	 	32
50713	554604	World Cup fans at Stanford Stadium are almost certain to be fenced in.	World Cup fans at Stanford Stadium are almost certain to be fenced in.	26387367	1472596105692	1472596105772	t	84
50713	554604	World Cup fans at Stanford Stadium are almost certain to be fenced in.	World Cup fans at Stanford Stadium are almost certain to be fenced in.	26387371	1472596105822	1472596105892	o	79
50713	554604	World Cup fans at Stanford Stadium are almost certain to be fenced in.	World Cup fans at Stanford Stadium are almost certain to be fenced in.	26387375	1472596105942	1472596106031	 	32
50713	554604	World Cup fans at Stanford Stadium are almost certain to be fenced in.	World Cup fans at Stanford Stadium are almost certain to be fenced in.	26387469	1472596106172	1472596106292	b	66
50713	554604	World Cup fans at Stanford Stadium are almost certain to be fenced in.	World Cup fans at Stanford Stadium are almost certain to be fenced in.	26387472	1472596106412	1472596106512	e	69
50713	554604	World Cup fans at Stanford Stadium are almost certain to be fenced in.	World Cup fans at Stanford Stadium are almost certain to be fenced in.	26387477	1472596106592	1472596106702	 	32
50713	554604	World Cup fans at Stanford Stadium are almost certain to be fenced in.	World Cup fans at Stanford Stadium are almost certain to be fenced in.	26387482	1472596107923	1472596108002	f	70
50713	554604	World Cup fans at Stanford Stadium are almost certain to be fenced in.	World Cup fans at Stanford Stadium are almost certain to be fenced in.	26387485	1472596108102	1472596108192	e	69
50713	554604	World Cup fans at Stanford Stadium are almost certain to be fenced in.	World Cup fans at Stanford Stadium are almost certain to be fenced in.	26387542	1472596108282	1472596108352	n	78
50713	554604	World Cup fans at Stanford Stadium are almost certain to be fenced in.	World Cup fans at Stanford Stadium are almost certain to be fenced in.	26387543	1472596108522	1472596108612	c	67
50713	554604	World Cup fans at Stanford Stadium are almost certain to be fenced in.	World Cup fans at Stanford Stadium are almost certain to be fenced in.	26387545	1472596108732	1472596108821	e	69
50713	554604	World Cup fans at Stanford Stadium are almost certain to be fenced in.	World Cup fans at Stanford Stadium are almost certain to be fenced in.	26387548	1472596108932	1472596109012	s	83
50713	554604	World Cup fans at Stanford Stadium are almost certain to be fenced in.	World Cup fans at Stanford Stadium are almost certain to be fenced in.	26387551	1472596109372	1472596109442	BKSP	8
50713	554604	World Cup fans at Stanford Stadium are almost certain to be fenced in.	World Cup fans at Stanford Stadium are almost certain to be fenced in.	26387555	1472596109532	1472596109612	d	68
50713	554604	World Cup fans at Stanford Stadium are almost certain to be fenced in.	World Cup fans at Stanford Stadium are almost certain to be fenced in.	26387611	1472596109782	1472596109891	 	32
50713	554604	World Cup fans at Stanford Stadium are almost certain to be fenced in.	World Cup fans at Stanford Stadium are almost certain to be fenced in.	26387616	1472596110112	1472596110191	i	73
50713	554604	World Cup fans at Stanford Stadium are almost certain to be fenced in.	World Cup fans at Stanford Stadium are almost certain to be fenced in.	26387619	1472596110281	1472596110362	n	78
50713	554604	World Cup fans at Stanford Stadium are almost certain to be fenced in.	World Cup fans at Stanford Stadium are almost certain to be fenced in.	26387622	1472596110543	1472596110632	.	190
50713	554625	Go for the dollars.	Go for the dollars.	26387710	1472596112812	1472596113002	SHIFT	16
50713	554625	Go for the dollars.	Go for the dollars.	26387712	1472596112931	1472596113022	G	71
50713	554625	Go for the dollars.	Go for the dollars.	26387716	1472596113092	1472596113152	o	79
50713	554625	Go for the dollars.	Go for the dollars.	26387718	1472596113212	1472596113302	 	32
50713	554625	Go for the dollars.	Go for the dollars.	26387722	1472596113402	1472596113472	f	70
50713	554625	Go for the dollars.	Go for the dollars.	26387725	1472596113541	1472596113621	o	79
50713	554625	Go for the dollars.	Go for the dollars.	26387763	1472596113654	1472596113732	r	82
50713	554625	Go for the dollars.	Go for the dollars.	26387766	1472596113842	1472596113951	 	32
50713	554625	Go for the dollars.	Go for the dollars.	26387770	1472596114582	1472596114652	t	84
50713	554625	Go for the dollars.	Go for the dollars.	26387774	1472596114681	1472596114752	h	72
50713	554625	Go for the dollars.	Go for the dollars.	26387779	1472596114802	1472596114881	e	69
50713	554625	Go for the dollars.	Go for the dollars.	26387894	1472596115072	1472596115152	 	32
50713	554625	Go for the dollars.	Go for the dollars.	26387896	1472596116152	1472596116223	d	68
50713	554625	Go for the dollars.	Go for the dollars.	26387897	1472596116371	1472596116422	o	79
50713	554625	Go for the dollars.	Go for the dollars.	26387898	1472596116561	1472596116622	o	79
50713	554625	Go for the dollars.	Go for the dollars.	26387899	1472596117132	1472596117191	BKSP	8
50713	554625	Go for the dollars.	Go for the dollars.	26387900	1472596117732	1472596117772	l	76
50713	554625	Go for the dollars.	Go for the dollars.	26387972	1472596117862	1472596117931	l	76
50713	554625	Go for the dollars.	Go for the dollars.	26387975	1472596117922	1472596118002	a	65
50713	554625	Go for the dollars.	Go for the dollars.	26387979	1472596118091	1472596118172	r	82
50713	554625	Go for the dollars.	Go for the dollars.	26387983	1472596118931	1472596118981	s	83
50713	554625	Go for the dollars.	Go for the dollars.	26387987	1472596119152	1472596119222	.	190
50713	554633	But we should pay them the 4500.	But we Should pay them the 4500.	26388137	1472596121122	1472596121422	SHIFT	16
50713	554633	But we should pay them the 4500.	But we Should pay them the 4500.	26388139	1472596121312	1472596121452	B	66
50713	554633	But we should pay them the 4500.	But we Should pay them the 4500.	26388144	1472596121572	1472596121652	u	85
50713	554633	But we should pay them the 4500.	But we Should pay them the 4500.	26388147	1472596121701	1472596121792	t	84
50713	554633	But we should pay them the 4500.	But we Should pay them the 4500.	26388151	1472596121882	1472596121981	 	32
50713	554633	But we should pay them the 4500.	But we Should pay them the 4500.	26388155	1472596122472	1472596122561	w	87
50713	554633	But we should pay them the 4500.	But we Should pay them the 4500.	26388193	1472596122632	1472596122742	e	69
50713	554633	But we should pay them the 4500.	But we Should pay them the 4500.	26388196	1472596122852	1472596122932	 	32
50713	554633	But we should pay them the 4500.	But we Should pay them the 4500.	26388201	1472596123042	1472596123142	s	83
50713	554633	But we should pay them the 4500.	But we Should pay them the 4500.	26388207	1472596123191	1472596123282	h	72
50713	554633	But we should pay them the 4500.	But we Should pay them the 4500.	26388212	1472596123371	1472596123492	o	79
50713	554633	But we should pay them the 4500.	But we Should pay them the 4500.	26388443	1472596123542	1472596123632	u	85
50713	554633	But we should pay them the 4500.	But we Should pay them the 4500.	26388444	1472596123932	1472596124022	d	68
50713	554633	But we should pay them the 4500.	But we Should pay them the 4500.	26388445	1472596124862	1472596124951	BKSP	8
50713	554633	But we should pay them the 4500.	But we Should pay them the 4500.	26388447	1472596125052	1472596125102	BKSP	8
50713	554633	But we should pay them the 4500.	But we Should pay them the 4500.	26388448	1472596125212	1472596125321	BKSP	8
50713	554633	But we should pay them the 4500.	But we Should pay them the 4500.	26388450	1472596125432	1472596125531	BKSP	8
50713	554633	But we should pay them the 4500.	But we Should pay them the 4500.	26388451	1472596125822	1472596125902	BKSP	8
50713	554633	But we should pay them the 4500.	But we Should pay them the 4500.	26388453	1472596126121	1472596126242	 	32
50713	554633	But we should pay them the 4500.	But we Should pay them the 4500.	26388456	1472596126751	1472596126812	BKSP	8
50713	554633	But we should pay them the 4500.	But we Should pay them the 4500.	26388461	1472596127352	1472596127581	SHIFT	16
50713	554633	But we should pay them the 4500.	But we Should pay them the 4500.	26388466	1472596127492	1472596127602	S	83
50713	554633	But we should pay them the 4500.	But we Should pay them the 4500.	26388470	1472596128711	1472596128792	h	72
50713	554633	But we should pay them the 4500.	But we Should pay them the 4500.	26388507	1472596128872	1472596128982	o	79
50713	554633	But we should pay them the 4500.	But we Should pay them the 4500.	26388514	1472596129031	1472596129122	u	85
50713	554633	But we should pay them the 4500.	But we Should pay them the 4500.	26388520	1472596129571	1472596129651	l	76
50713	554633	But we should pay them the 4500.	But we Should pay them the 4500.	26388527	1472596129801	1472596129872	d	68
50713	554633	But we should pay them the 4500.	But we Should pay them the 4500.	26388531	1472596130072	1472596130182	 	32
50713	554633	But we should pay them the 4500.	But we Should pay them the 4500.	26388768	1472596130292	1472596130392	p	80
50713	554633	But we should pay them the 4500.	But we Should pay them the 4500.	26388772	1472596130422	1472596130511	a	65
50713	554633	But we should pay them the 4500.	But we Should pay them the 4500.	26388776	1472596133812	1472596133911	 	32
50713	554633	But we should pay them the 4500.	But we Should pay them the 4500.	26388777	1472596134212	1472596134292	t	84
50713	554633	But we should pay them the 4500.	But we Should pay them the 4500.	26388808	1472596134302	1472596134362	h	72
50713	554633	But we should pay them the 4500.	But we Should pay them the 4500.	26388810	1472596134392	1472596134462	e	69
50713	554633	But we should pay them the 4500.	But we Should pay them the 4500.	26388815	1472596134502	1472596134582	m	77
50713	554633	But we should pay them the 4500.	But we Should pay them the 4500.	26388819	1472596134642	1472596134731	 	32
50713	554633	But we should pay them the 4500.	But we Should pay them the 4500.	26388824	1472596135022	1472596135102	t	84
50713	554633	But we should pay them the 4500.	But we Should pay them the 4500.	26388870	1472596135111	1472596135182	h	72
50713	554633	But we should pay them the 4500.	But we Should pay them the 4500.	26388873	1472596135202	1472596135281	e	69
50713	554633	But we should pay them the 4500.	But we Should pay them the 4500.	26388878	1472596135372	1472596135462	 	32
50713	554633	But we should pay them the 4500.	But we Should pay them the 4500.	26388880	1472596136292	1472596136372	4	52
50713	554633	But we should pay them the 4500.	But we Should pay them the 4500.	26388884	1472596136462	1472596136542	5	53
50713	554633	But we should pay them the 4500.	But we Should pay them the 4500.	26388945	1472596136891	1472596136972	0	48
50713	554633	But we should pay them the 4500.	But we Should pay them the 4500.	26388948	1472596137042	1472596137122	0	48
50713	554633	But we should pay them the 4500.	But we Should pay them the 4500.	26388950	1472596137642	1472596137702	.	190
