PARTICIPANT_ID	TEST_SECTION_ID	SENTENCE	USER_INPUT	KEYSTROKE_ID	PRESS_TIME	RELEASE_TIME	LETTER	KEYCODE
507643	5462234	Every Enron employee has an internet email address.	every Enron employee has an intrnet email address.	259253386	1478911155716	1478911155809	e	69
507643	5462234	Every Enron employee has an internet email address.	every Enron employee has an intrnet email address.	259253389	1478911156048	1478911156154	v	86
507643	5462234	Every Enron employee has an internet email address.	every Enron employee has an intrnet email address.	259253391	1478911156267	1478911156391	e	69
507643	5462234	Every Enron employee has an internet email address.	every Enron employee has an intrnet email address.	259253393	1478911156437	1478911156575	r	82
507643	5462234	Every Enron employee has an internet email address.	every Enron employee has an intrnet email address.	259253396	1478911156633	1478911156730	y	89
507643	5462234	Every Enron employee has an internet email address.	every Enron employee has an intrnet email address.	259253449	1478911156996	1478911157080	 	32
507643	5462234	Every Enron employee has an internet email address.	every Enron employee has an intrnet email address.	259253451	1478911157824	1478911158099	SHIFT	16
507643	5462234	Every Enron employee has an internet email address.	every Enron employee has an intrnet email address.	259253452	1478911158033	1478911158149	E	69
507643	5462234	Every Enron employee has an internet email address.	every Enron employee has an intrnet email address.	259253454	1478911158354	1478911158434	n	78
507643	5462234	Every Enron employee has an internet email address.	every Enron employee has an intrnet email address.	259253457	1478911158686	1478911158787	r	82
507643	5462234	Every Enron employee has an internet email address.	every Enron employee has an intrnet email address.	259253458	1478911159315	1478911159403	o	79
507643	5462234	Every Enron employee has an internet email address.	every Enron employee has an intrnet email address.	259253481	1478911159552	1478911159631	n	78
507643	5462234	Every Enron employee has an internet email address.	every Enron employee has an intrnet email address.	259253483	1478911159779	1478911159861	 	32
507643	5462234	Every Enron employee has an internet email address.	every Enron employee has an intrnet email address.	259253485	1478911160353	1478911160473	e	69
507643	5462234	Every Enron employee has an internet email address.	every Enron employee has an intrnet email address.	259253487	1478911160486	1478911160545	m	77
507643	5462234	Every Enron employee has an internet email address.	every Enron employee has an intrnet email address.	259253490	1478911160719	1478911160806	p	80
507643	5462234	Every Enron employee has an internet email address.	every Enron employee has an intrnet email address.	259253516	1478911160998	1478911161071	l	76
507643	5462234	Every Enron employee has an internet email address.	every Enron employee has an intrnet email address.	259253518	1478911161230	1478911161305	o	79
507643	5462234	Every Enron employee has an internet email address.	every Enron employee has an intrnet email address.	259253520	1478911161584	1478911161664	y	89
507643	5462234	Every Enron employee has an internet email address.	every Enron employee has an intrnet email address.	259253522	1478911161832	1478911161919	e	69
507643	5462234	Every Enron employee has an internet email address.	every Enron employee has an intrnet email address.	259253523	1478911162053	1478911162150	e	69
507643	5462234	Every Enron employee has an internet email address.	every Enron employee has an intrnet email address.	259253547	1478911162323	1478911162393	 	32
507643	5462234	Every Enron employee has an internet email address.	every Enron employee has an intrnet email address.	259253549	1478911162732	1478911162821	h	72
507643	5462234	Every Enron employee has an internet email address.	every Enron employee has an intrnet email address.	259253551	1478911162850	1478911162983	a	65
507643	5462234	Every Enron employee has an internet email address.	every Enron employee has an intrnet email address.	259253553	1478911163087	1478911163248	s	83
507643	5462234	Every Enron employee has an internet email address.	every Enron employee has an intrnet email address.	259253597	1478911163215	1478911163307	 	32
507643	5462234	Every Enron employee has an internet email address.	every Enron employee has an intrnet email address.	259253602	1478911163449	1478911163623	a	65
507643	5462234	Every Enron employee has an internet email address.	every Enron employee has an intrnet email address.	259253608	1478911163698	1478911163772	n	78
507643	5462234	Every Enron employee has an internet email address.	every Enron employee has an intrnet email address.	259253611	1478911163923	1478911164001	 	32
507643	5462234	Every Enron employee has an internet email address.	every Enron employee has an intrnet email address.	259253613	1478911164293	1478911164370	i	73
507643	5462234	Every Enron employee has an internet email address.	every Enron employee has an intrnet email address.	259253616	1478911164497	1478911164578	n	78
507643	5462234	Every Enron employee has an internet email address.	every Enron employee has an intrnet email address.	259253651	1478911164699	1478911164814	t	84
507643	5462234	Every Enron employee has an internet email address.	every Enron employee has an intrnet email address.	259253655	1478911165044	1478911165200	r	82
507643	5462234	Every Enron employee has an internet email address.	every Enron employee has an intrnet email address.	259253659	1478911165206	1478911165273	n	78
507643	5462234	Every Enron employee has an internet email address.	every Enron employee has an intrnet email address.	259253661	1478911165442	1478911165561	e	69
507643	5462234	Every Enron employee has an internet email address.	every Enron employee has an intrnet email address.	259253663	1478911165735	1478911165860	t	84
507643	5462234	Every Enron employee has an internet email address.	every Enron employee has an intrnet email address.	259253695	1478911166020	1478911166112	 	32
507643	5462234	Every Enron employee has an internet email address.	every Enron employee has an intrnet email address.	259253698	1478911166476	1478911166586	e	69
507643	5462234	Every Enron employee has an internet email address.	every Enron employee has an intrnet email address.	259253701	1478911166694	1478911166765	m	77
507643	5462234	Every Enron employee has an internet email address.	every Enron employee has an intrnet email address.	259253704	1478911166840	1478911167010	a	65
507643	5462234	Every Enron employee has an internet email address.	every Enron employee has an intrnet email address.	259253731	1478911166953	1478911167016	i	73
507643	5462234	Every Enron employee has an internet email address.	every Enron employee has an intrnet email address.	259253734	1478911167189	1478911167270	l	76
507643	5462234	Every Enron employee has an internet email address.	every Enron employee has an intrnet email address.	259253737	1478911167452	1478911167535	 	32
507643	5462234	Every Enron employee has an internet email address.	every Enron employee has an intrnet email address.	259253741	1478911167652	1478911167795	a	65
507643	5462234	Every Enron employee has an internet email address.	every Enron employee has an intrnet email address.	259253745	1478911167918	1478911167983	d	68
507643	5462234	Every Enron employee has an internet email address.	every Enron employee has an intrnet email address.	259253749	1478911168066	1478911168169	d	68
507643	5462234	Every Enron employee has an internet email address.	every Enron employee has an intrnet email address.	259253793	1478911168340	1478911168454	r	82
507643	5462234	Every Enron employee has an internet email address.	every Enron employee has an intrnet email address.	259253796	1478911168574	1478911168699	e	69
507643	5462234	Every Enron employee has an internet email address.	every Enron employee has an intrnet email address.	259253798	1478911169167	1478911169286	s	83
507643	5462234	Every Enron employee has an internet email address.	every Enron employee has an intrnet email address.	259253802	1478911169402	1478911169516	s	83
507643	5462234	Every Enron employee has an internet email address.	every Enron employee has an intrnet email address.	259253806	1478911169794	1478911169865	.	190
507643	5462247	If he'll sign no issues with Barclays.	If he'll sign no issues with Barclays.	259253979	1478911175713	1478911175928	SHIFT	16
507643	5462247	If he'll sign no issues with Barclays.	If he'll sign no issues with Barclays.	259253982	1478911175853	1478911175945	I	73
507643	5462247	If he'll sign no issues with Barclays.	If he'll sign no issues with Barclays.	259253984	1478911176187	1478911176298	f	70
507643	5462247	If he'll sign no issues with Barclays.	If he'll sign no issues with Barclays.	259253987	1478911176324	1478911176430	 	32
507643	5462247	If he'll sign no issues with Barclays.	If he'll sign no issues with Barclays.	259253990	1478911177019	1478911177103	h	72
507643	5462247	If he'll sign no issues with Barclays.	If he'll sign no issues with Barclays.	259253994	1478911177266	1478911177376	e	69
507643	5462247	If he'll sign no issues with Barclays.	If he'll sign no issues with Barclays.	259254033	1478911177816	1478911177886	'	222
507643	5462247	If he'll sign no issues with Barclays.	If he'll sign no issues with Barclays.	259254035	1478911178120	1478911178180	l	76
507643	5462247	If he'll sign no issues with Barclays.	If he'll sign no issues with Barclays.	259254037	1478911178266	1478911178349	l	76
507643	5462247	If he'll sign no issues with Barclays.	If he'll sign no issues with Barclays.	259254040	1478911178526	1478911178610	 	32
507643	5462247	If he'll sign no issues with Barclays.	If he'll sign no issues with Barclays.	259254042	1478911178783	1478911178939	s	83
507643	5462247	If he'll sign no issues with Barclays.	If he'll sign no issues with Barclays.	259254082	1478911178970	1478911179044	i	73
507643	5462247	If he'll sign no issues with Barclays.	If he'll sign no issues with Barclays.	259254085	1478911179173	1478911179301	g	71
507643	5462247	If he'll sign no issues with Barclays.	If he'll sign no issues with Barclays.	259254087	1478911179337	1478911179417	n	78
507643	5462247	If he'll sign no issues with Barclays.	If he'll sign no issues with Barclays.	259254089	1478911179660	1478911179743	 	32
507643	5462247	If he'll sign no issues with Barclays.	If he'll sign no issues with Barclays.	259254092	1478911180005	1478911180080	n	78
507643	5462247	If he'll sign no issues with Barclays.	If he'll sign no issues with Barclays.	259254131	1478911180217	1478911180273	o	79
507643	5462247	If he'll sign no issues with Barclays.	If he'll sign no issues with Barclays.	259254133	1478911180466	1478911180544	 	32
507643	5462247	If he'll sign no issues with Barclays.	If he'll sign no issues with Barclays.	259254138	1478911181364	1478911181440	i	73
507643	5462247	If he'll sign no issues with Barclays.	If he'll sign no issues with Barclays.	259254141	1478911181518	1478911181615	s	83
507643	5462247	If he'll sign no issues with Barclays.	If he'll sign no issues with Barclays.	259254144	1478911181689	1478911181800	s	83
507643	5462247	If he'll sign no issues with Barclays.	If he'll sign no issues with Barclays.	259254236	1478911181871	1478911181942	u	85
507643	5462247	If he'll sign no issues with Barclays.	If he'll sign no issues with Barclays.	259254238	1478911182422	1478911182529	e	69
507643	5462247	If he'll sign no issues with Barclays.	If he'll sign no issues with Barclays.	259254240	1478911182749	1478911182901	s	83
507643	5462247	If he'll sign no issues with Barclays.	If he'll sign no issues with Barclays.	259254242	1478911183083	1478911183154	 	32
507643	5462247	If he'll sign no issues with Barclays.	If he'll sign no issues with Barclays.	259254244	1478911184136	1478911184277	w	87
507643	5462247	If he'll sign no issues with Barclays.	If he'll sign no issues with Barclays.	259254293	1478911184281	1478911184359	i	73
507643	5462247	If he'll sign no issues with Barclays.	If he'll sign no issues with Barclays.	259254294	1478911184452	1478911184564	t	84
507643	5462247	If he'll sign no issues with Barclays.	If he'll sign no issues with Barclays.	259254295	1478911184590	1478911184681	h	72
507643	5462247	If he'll sign no issues with Barclays.	If he'll sign no issues with Barclays.	259254296	1478911184850	1478911184937	 	32
507643	5462247	If he'll sign no issues with Barclays.	If he'll sign no issues with Barclays.	259254297	1478911185408	1478911185655	SHIFT	16
507643	5462247	If he'll sign no issues with Barclays.	If he'll sign no issues with Barclays.	259254385	1478911185548	1478911185658	B	66
507643	5462247	If he'll sign no issues with Barclays.	If he'll sign no issues with Barclays.	259254388	1478911186385	1478911186559	a	65
507643	5462247	If he'll sign no issues with Barclays.	If he'll sign no issues with Barclays.	259254393	1478911186887	1478911187012	r	82
507643	5462247	If he'll sign no issues with Barclays.	If he'll sign no issues with Barclays.	259254398	1478911187534	1478911187654	c	67
507643	5462247	If he'll sign no issues with Barclays.	If he'll sign no issues with Barclays.	259254402	1478911187732	1478911187815	l	76
507643	5462247	If he'll sign no issues with Barclays.	If he'll sign no issues with Barclays.	259254407	1478911187871	1478911187996	a	65
507643	5462247	If he'll sign no issues with Barclays.	If he'll sign no issues with Barclays.	259254450	1478911188050	1478911188119	y	89
507643	5462247	If he'll sign no issues with Barclays.	If he'll sign no issues with Barclays.	259254453	1478911188198	1478911188346	s	83
507643	5462247	If he'll sign no issues with Barclays.	If he'll sign no issues with Barclays.	259254459	1478911188896	1478911188981	.	190
507643	5462261	Lynn checked with Fran and she told her coordinator.	Lynn checked with Fran and she told her coordinator.	259254607	1478911191208	1478911191401	SHIFT	16
507643	5462261	Lynn checked with Fran and she told her coordinator.	Lynn checked with Fran and she told her coordinator.	259254609	1478911191335	1478911191414	L	76
507643	5462261	Lynn checked with Fran and she told her coordinator.	Lynn checked with Fran and she told her coordinator.	259254613	1478911191909	1478911192010	y	89
507643	5462261	Lynn checked with Fran and she told her coordinator.	Lynn checked with Fran and she told her coordinator.	259254616	1478911192544	1478911192621	n	78
507643	5462261	Lynn checked with Fran and she told her coordinator.	Lynn checked with Fran and she told her coordinator.	259254618	1478911192786	1478911192860	n	78
507643	5462261	Lynn checked with Fran and she told her coordinator.	Lynn checked with Fran and she told her coordinator.	259254620	1478911193029	1478911193122	 	32
507643	5462261	Lynn checked with Fran and she told her coordinator.	Lynn checked with Fran and she told her coordinator.	259254661	1478911193233	1478911193331	c	67
507643	5462261	Lynn checked with Fran and she told her coordinator.	Lynn checked with Fran and she told her coordinator.	259254665	1478911193378	1478911193447	h	72
507643	5462261	Lynn checked with Fran and she told her coordinator.	Lynn checked with Fran and she told her coordinator.	259254668	1478911193611	1478911193700	e	69
507643	5462261	Lynn checked with Fran and she told her coordinator.	Lynn checked with Fran and she told her coordinator.	259254671	1478911193933	1478911194062	c	67
507643	5462261	Lynn checked with Fran and she told her coordinator.	Lynn checked with Fran and she told her coordinator.	259254676	1478911194699	1478911194772	k	75
507643	5462261	Lynn checked with Fran and she told her coordinator.	Lynn checked with Fran and she told her coordinator.	259254720	1478911194845	1478911194947	e	69
507643	5462261	Lynn checked with Fran and she told her coordinator.	Lynn checked with Fran and she told her coordinator.	259254722	1478911195098	1478911195223	d	68
507643	5462261	Lynn checked with Fran and she told her coordinator.	Lynn checked with Fran and she told her coordinator.	259254724	1478911195288	1478911195377	 	32
507643	5462261	Lynn checked with Fran and she told her coordinator.	Lynn checked with Fran and she told her coordinator.	259254726	1478911195863	1478911196006	w	87
507643	5462261	Lynn checked with Fran and she told her coordinator.	Lynn checked with Fran and she told her coordinator.	259254728	1478911196075	1478911196153	i	73
507643	5462261	Lynn checked with Fran and she told her coordinator.	Lynn checked with Fran and she told her coordinator.	259254821	1478911196228	1478911196339	t	84
507643	5462261	Lynn checked with Fran and she told her coordinator.	Lynn checked with Fran and she told her coordinator.	259254824	1478911196357	1478911196431	h	72
507643	5462261	Lynn checked with Fran and she told her coordinator.	Lynn checked with Fran and she told her coordinator.	259254827	1478911196693	1478911196767	 	32
507643	5462261	Lynn checked with Fran and she told her coordinator.	Lynn checked with Fran and she told her coordinator.	259254832	1478911197606	1478911198168	SHIFT	16
507643	5462261	Lynn checked with Fran and she told her coordinator.	Lynn checked with Fran and she told her coordinator.	259254830	1478911198021	1478911198123	F	70
507643	5462261	Lynn checked with Fran and she told her coordinator.	Lynn checked with Fran and she told her coordinator.	259254834	1478911198285	1478911198387	r	82
507643	5462261	Lynn checked with Fran and she told her coordinator.	Lynn checked with Fran and she told her coordinator.	259254863	1478911198707	1478911198850	a	65
507643	5462261	Lynn checked with Fran and she told her coordinator.	Lynn checked with Fran and she told her coordinator.	259254865	1478911198888	1478911198962	n	78
507643	5462261	Lynn checked with Fran and she told her coordinator.	Lynn checked with Fran and she told her coordinator.	259254867	1478911199101	1478911199193	 	32
507643	5462261	Lynn checked with Fran and she told her coordinator.	Lynn checked with Fran and she told her coordinator.	259254870	1478911199284	1478911199459	a	65
507643	5462261	Lynn checked with Fran and she told her coordinator.	Lynn checked with Fran and she told her coordinator.	259254875	1478911199619	1478911199701	n	78
507643	5462261	Lynn checked with Fran and she told her coordinator.	Lynn checked with Fran and she told her coordinator.	259254920	1478911199816	1478911199950	d	68
507643	5462261	Lynn checked with Fran and she told her coordinator.	Lynn checked with Fran and she told her coordinator.	259254922	1478911200100	1478911200219	 	32
507643	5462261	Lynn checked with Fran and she told her coordinator.	Lynn checked with Fran and she told her coordinator.	259254924	1478911200699	1478911200837	s	83
507643	5462261	Lynn checked with Fran and she told her coordinator.	Lynn checked with Fran and she told her coordinator.	259254926	1478911200904	1478911200996	h	72
507643	5462261	Lynn checked with Fran and she told her coordinator.	Lynn checked with Fran and she told her coordinator.	259254927	1478911201052	1478911201183	e	69
507643	5462261	Lynn checked with Fran and she told her coordinator.	Lynn checked with Fran and she told her coordinator.	259254960	1478911201222	1478911201301	 	32
507643	5462261	Lynn checked with Fran and she told her coordinator.	Lynn checked with Fran and she told her coordinator.	259254962	1478911201816	1478911201930	t	84
507643	5462261	Lynn checked with Fran and she told her coordinator.	Lynn checked with Fran and she told her coordinator.	259254965	1478911201939	1478911202013	o	79
507643	5462261	Lynn checked with Fran and she told her coordinator.	Lynn checked with Fran and she told her coordinator.	259254968	1478911202166	1478911202263	l	76
507643	5462261	Lynn checked with Fran and she told her coordinator.	Lynn checked with Fran and she told her coordinator.	259254970	1478911202297	1478911202463	d	68
507643	5462261	Lynn checked with Fran and she told her coordinator.	Lynn checked with Fran and she told her coordinator.	259255154	1478911202485	1478911205275	 	32
507643	5462261	Lynn checked with Fran and she told her coordinator.	Lynn checked with Fran and she told her coordinator.	259255067	1478911202921	1478911203036	t	84
507643	5462261	Lynn checked with Fran and she told her coordinator.	Lynn checked with Fran and she told her coordinator.	259255070	1478911203040	1478911203128	h	72
507643	5462261	Lynn checked with Fran and she told her coordinator.	Lynn checked with Fran and she told her coordinator.	259255075	1478911203784	1478911203863	BKSP	8
507643	5462261	Lynn checked with Fran and she told her coordinator.	Lynn checked with Fran and she told her coordinator.	259255080	1478911204090	1478911204183	BKSP	8
507643	5462261	Lynn checked with Fran and she told her coordinator.	Lynn checked with Fran and she told her coordinator.	259255085	1478911204713	1478911204797	h	72
507643	5462261	Lynn checked with Fran and she told her coordinator.	Lynn checked with Fran and she told her coordinator.	259255089	1478911204854	1478911205034	e	69
507643	5462261	Lynn checked with Fran and she told her coordinator.	Lynn checked with Fran and she told her coordinator.	259255152	1478911205045	1478911205188	r	82
507643	5462261	Lynn checked with Fran and she told her coordinator.	Lynn checked with Fran and she told her coordinator.	259255156	1478911205700	1478911205824	c	67
507643	5462261	Lynn checked with Fran and she told her coordinator.	Lynn checked with Fran and she told her coordinator.	259255158	1478911205934	1478911205991	o	79
507643	5462261	Lynn checked with Fran and she told her coordinator.	Lynn checked with Fran and she told her coordinator.	259255160	1478911206089	1478911206167	o	79
507643	5462261	Lynn checked with Fran and she told her coordinator.	Lynn checked with Fran and she told her coordinator.	259255163	1478911206300	1478911206411	r	82
507643	5462261	Lynn checked with Fran and she told her coordinator.	Lynn checked with Fran and she told her coordinator.	259255205	1478911206661	1478911206822	d	68
507643	5462261	Lynn checked with Fran and she told her coordinator.	Lynn checked with Fran and she told her coordinator.	259255206	1478911206830	1478911206914	i	73
507643	5462261	Lynn checked with Fran and she told her coordinator.	Lynn checked with Fran and she told her coordinator.	259255207	1478911207077	1478911207142	n	78
507643	5462261	Lynn checked with Fran and she told her coordinator.	Lynn checked with Fran and she told her coordinator.	259255208	1478911207194	1478911207304	a	65
507643	5462261	Lynn checked with Fran and she told her coordinator.	Lynn checked with Fran and she told her coordinator.	259255209	1478911207435	1478911207564	t	84
507643	5462261	Lynn checked with Fran and she told her coordinator.	Lynn checked with Fran and she told her coordinator.	259255235	1478911207712	1478911207776	o	79
507643	5462261	Lynn checked with Fran and she told her coordinator.	Lynn checked with Fran and she told her coordinator.	259255237	1478911209024	1478911209134	r	82
507643	5462261	Lynn checked with Fran and she told her coordinator.	Lynn checked with Fran and she told her coordinator.	259255241	1478911209392	1478911209498	.	190
507643	5462278	Many earlier ceasefire accords have been broken.	Many earlier ceasefire accords have been broken.	259255363	1478911211802	1478911212062	SHIFT	16
507643	5462278	Many earlier ceasefire accords have been broken.	Many earlier ceasefire accords have been broken.	259255365	1478911212016	1478911212112	M	77
507643	5462278	Many earlier ceasefire accords have been broken.	Many earlier ceasefire accords have been broken.	259255366	1478911212315	1478911212508	a	65
507643	5462278	Many earlier ceasefire accords have been broken.	Many earlier ceasefire accords have been broken.	259255367	1478911212543	1478911212643	n	78
507643	5462278	Many earlier ceasefire accords have been broken.	Many earlier ceasefire accords have been broken.	259255368	1478911212770	1478911212844	y	89
507643	5462278	Many earlier ceasefire accords have been broken.	Many earlier ceasefire accords have been broken.	259255369	1478911213088	1478911213176	 	32
507643	5462278	Many earlier ceasefire accords have been broken.	Many earlier ceasefire accords have been broken.	259255400	1478911213752	1478911213844	e	69
507643	5462278	Many earlier ceasefire accords have been broken.	Many earlier ceasefire accords have been broken.	259255401	1478911213993	1478911214128	a	65
507643	5462278	Many earlier ceasefire accords have been broken.	Many earlier ceasefire accords have been broken.	259255402	1478911214224	1478911214360	r	82
507643	5462278	Many earlier ceasefire accords have been broken.	Many earlier ceasefire accords have been broken.	259255403	1478911214367	1478911214449	l	76
507643	5462278	Many earlier ceasefire accords have been broken.	Many earlier ceasefire accords have been broken.	259255405	1478911214600	1478911214670	i	73
507643	5462278	Many earlier ceasefire accords have been broken.	Many earlier ceasefire accords have been broken.	259255526	1478911216445	1478911216608	e	69
507643	5462278	Many earlier ceasefire accords have been broken.	Many earlier ceasefire accords have been broken.	259255529	1478911216591	1478911216747	r	82
507643	5462278	Many earlier ceasefire accords have been broken.	Many earlier ceasefire accords have been broken.	259255531	1478911216888	1478911216970	 	32
507643	5462278	Many earlier ceasefire accords have been broken.	Many earlier ceasefire accords have been broken.	259255533	1478911217466	1478911217591	c	67
507643	5462278	Many earlier ceasefire accords have been broken.	Many earlier ceasefire accords have been broken.	259255538	1478911217775	1478911217904	e	69
507643	5462278	Many earlier ceasefire accords have been broken.	Many earlier ceasefire accords have been broken.	259255570	1478911218016	1478911218133	a	65
507643	5462278	Many earlier ceasefire accords have been broken.	Many earlier ceasefire accords have been broken.	259255573	1478911218283	1478911218424	s	83
507643	5462278	Many earlier ceasefire accords have been broken.	Many earlier ceasefire accords have been broken.	259255575	1478911218516	1478911218631	e	69
507643	5462278	Many earlier ceasefire accords have been broken.	Many earlier ceasefire accords have been broken.	259255578	1478911218934	1478911219053	f	70
507643	5462278	Many earlier ceasefire accords have been broken.	Many earlier ceasefire accords have been broken.	259255583	1478911219096	1478911219181	i	73
507643	5462278	Many earlier ceasefire accords have been broken.	Many earlier ceasefire accords have been broken.	259255626	1478911219289	1478911219385	r	82
507643	5462278	Many earlier ceasefire accords have been broken.	Many earlier ceasefire accords have been broken.	259255628	1478911219487	1478911219625	e	69
507643	5462278	Many earlier ceasefire accords have been broken.	Many earlier ceasefire accords have been broken.	259255629	1478911219644	1478911219740	 	32
507643	5462278	Many earlier ceasefire accords have been broken.	Many earlier ceasefire accords have been broken.	259255630	1478911219878	1478911220029	a	65
507643	5462278	Many earlier ceasefire accords have been broken.	Many earlier ceasefire accords have been broken.	259255631	1478911220174	1478911220257	c	67
507643	5462278	Many earlier ceasefire accords have been broken.	Many earlier ceasefire accords have been broken.	259255664	1478911220322	1478911220438	c	67
507643	5462278	Many earlier ceasefire accords have been broken.	Many earlier ceasefire accords have been broken.	259255667	1478911220491	1478911220574	o	79
507643	5462278	Many earlier ceasefire accords have been broken.	Many earlier ceasefire accords have been broken.	259255669	1478911220679	1478911220785	r	82
507643	5462278	Many earlier ceasefire accords have been broken.	Many earlier ceasefire accords have been broken.	259255672	1478911220933	1478911221048	d	68
507643	5462278	Many earlier ceasefire accords have been broken.	Many earlier ceasefire accords have been broken.	259255676	1478911221233	1478911221416	s	83
507643	5462278	Many earlier ceasefire accords have been broken.	Many earlier ceasefire accords have been broken.	259255717	1478911221445	1478911221532	 	32
507643	5462278	Many earlier ceasefire accords have been broken.	Many earlier ceasefire accords have been broken.	259255718	1478911221826	1478911221900	h	72
507643	5462278	Many earlier ceasefire accords have been broken.	Many earlier ceasefire accords have been broken.	259255722	1478911221908	1478911222070	a	65
507643	5462278	Many earlier ceasefire accords have been broken.	Many earlier ceasefire accords have been broken.	259255726	1478911222159	1478911222264	v	86
507643	5462278	Many earlier ceasefire accords have been broken.	Many earlier ceasefire accords have been broken.	259255731	1478911222385	1478911222546	e	69
507643	5462278	Many earlier ceasefire accords have been broken.	Many earlier ceasefire accords have been broken.	259255771	1478911222552	1478911222629	 	32
507643	5462278	Many earlier ceasefire accords have been broken.	Many earlier ceasefire accords have been broken.	259255775	1478911222894	1478911223005	b	66
507643	5462278	Many earlier ceasefire accords have been broken.	Many earlier ceasefire accords have been broken.	259255776	1478911223150	1478911223261	e	69
507643	5462278	Many earlier ceasefire accords have been broken.	Many earlier ceasefire accords have been broken.	259255779	1478911223343	1478911223454	e	69
507643	5462278	Many earlier ceasefire accords have been broken.	Many earlier ceasefire accords have been broken.	259255780	1478911223495	1478911223588	n	78
507643	5462278	Many earlier ceasefire accords have been broken.	Many earlier ceasefire accords have been broken.	259255855	1478911223741	1478911223825	 	32
507643	5462278	Many earlier ceasefire accords have been broken.	Many earlier ceasefire accords have been broken.	259255857	1478911224064	1478911224157	b	66
507643	5462278	Many earlier ceasefire accords have been broken.	Many earlier ceasefire accords have been broken.	259255859	1478911224315	1478911224462	r	82
507643	5462278	Many earlier ceasefire accords have been broken.	Many earlier ceasefire accords have been broken.	259255861	1478911224456	1478911224527	o	79
507643	5462278	Many earlier ceasefire accords have been broken.	Many earlier ceasefire accords have been broken.	259255862	1478911225377	1478911225452	k	75
507643	5462278	Many earlier ceasefire accords have been broken.	Many earlier ceasefire accords have been broken.	259255900	1478911225595	1478911225736	e	69
507643	5462278	Many earlier ceasefire accords have been broken.	Many earlier ceasefire accords have been broken.	259255901	1478911225731	1478911225810	n	78
507643	5462278	Many earlier ceasefire accords have been broken.	Many earlier ceasefire accords have been broken.	259255902	1478911226589	1478911226686	.	190
507643	5462291	But the Chiefs might depend on the run, so his numbers may be limited.	But the Chiefs might depend on the run, so his number may be limited.	259255990	1478911228882	1478911229135	SHIFT	16
507643	5462291	But the Chiefs might depend on the run, so his numbers may be limited.	But the Chiefs might depend on the run, so his number may be limited.	259255992	1478911229056	1478911229170	B	66
507643	5462291	But the Chiefs might depend on the run, so his numbers may be limited.	But the Chiefs might depend on the run, so his number may be limited.	259255994	1478911229417	1478911229505	u	85
507643	5462291	But the Chiefs might depend on the run, so his numbers may be limited.	But the Chiefs might depend on the run, so his number may be limited.	259255996	1478911229539	1478911229663	t	84
507643	5462291	But the Chiefs might depend on the run, so his numbers may be limited.	But the Chiefs might depend on the run, so his number may be limited.	259255999	1478911229744	1478911229832	 	32
507643	5462291	But the Chiefs might depend on the run, so his numbers may be limited.	But the Chiefs might depend on the run, so his number may be limited.	259256002	1478911230134	1478911230258	t	84
507643	5462291	But the Chiefs might depend on the run, so his numbers may be limited.	But the Chiefs might depend on the run, so his number may be limited.	259256042	1478911230242	1478911230335	h	72
507643	5462291	But the Chiefs might depend on the run, so his numbers may be limited.	But the Chiefs might depend on the run, so his number may be limited.	259256044	1478911230418	1478911230561	e	69
507643	5462291	But the Chiefs might depend on the run, so his numbers may be limited.	But the Chiefs might depend on the run, so his number may be limited.	259256047	1478911230536	1478911230634	 	32
507643	5462291	But the Chiefs might depend on the run, so his numbers may be limited.	But the Chiefs might depend on the run, so his number may be limited.	259256050	1478911231107	1478911231373	SHIFT	16
507643	5462291	But the Chiefs might depend on the run, so his numbers may be limited.	But the Chiefs might depend on the run, so his number may be limited.	259256053	1478911231266	1478911231436	C	67
507643	5462291	But the Chiefs might depend on the run, so his numbers may be limited.	But the Chiefs might depend on the run, so his number may be limited.	259256055	1478911231571	1478911231651	h	72
507643	5462291	But the Chiefs might depend on the run, so his numbers may be limited.	But the Chiefs might depend on the run, so his number may be limited.	259256058	1478911231756	1478911231838	i	73
507643	5462291	But the Chiefs might depend on the run, so his numbers may be limited.	But the Chiefs might depend on the run, so his number may be limited.	259256133	1478911231976	1478911232087	e	69
507643	5462291	But the Chiefs might depend on the run, so his numbers may be limited.	But the Chiefs might depend on the run, so his number may be limited.	259256134	1478911232924	1478911233038	t	84
507643	5462291	But the Chiefs might depend on the run, so his numbers may be limited.	But the Chiefs might depend on the run, so his number may be limited.	259256136	1478911233428	1478911233498	BKSP	8
507643	5462291	But the Chiefs might depend on the run, so his numbers may be limited.	But the Chiefs might depend on the run, so his number may be limited.	259256138	1478911233858	1478911233947	f	70
507643	5462291	But the Chiefs might depend on the run, so his numbers may be limited.	But the Chiefs might depend on the run, so his number may be limited.	259256143	1478911234048	1478911234223	s	83
507643	5462291	But the Chiefs might depend on the run, so his numbers may be limited.	But the Chiefs might depend on the run, so his number may be limited.	259256146	1478911234286	1478911234365	 	32
507643	5462291	But the Chiefs might depend on the run, so his numbers may be limited.	But the Chiefs might depend on the run, so his number may be limited.	259256200	1478911235273	1478911235356	m	77
507643	5462291	But the Chiefs might depend on the run, so his numbers may be limited.	But the Chiefs might depend on the run, so his number may be limited.	259256203	1478911235448	1478911235526	i	73
507643	5462291	But the Chiefs might depend on the run, so his numbers may be limited.	But the Chiefs might depend on the run, so his number may be limited.	259256206	1478911235565	1478911235685	g	71
507643	5462291	But the Chiefs might depend on the run, so his numbers may be limited.	But the Chiefs might depend on the run, so his number may be limited.	259256209	1478911236260	1478911236345	h	72
507643	5462291	But the Chiefs might depend on the run, so his numbers may be limited.	But the Chiefs might depend on the run, so his number may be limited.	259256211	1478911236413	1478911236547	t	84
507643	5462291	But the Chiefs might depend on the run, so his numbers may be limited.	But the Chiefs might depend on the run, so his number may be limited.	259256249	1478911236623	1478911236706	 	32
507643	5462291	But the Chiefs might depend on the run, so his numbers may be limited.	But the Chiefs might depend on the run, so his number may be limited.	259256251	1478911237113	1478911237223	d	68
507643	5462291	But the Chiefs might depend on the run, so his numbers may be limited.	But the Chiefs might depend on the run, so his number may be limited.	259256253	1478911237373	1478911237485	e	69
507643	5462291	But the Chiefs might depend on the run, so his numbers may be limited.	But the Chiefs might depend on the run, so his number may be limited.	259256255	1478911237501	1478911237574	p	80
507643	5462291	But the Chiefs might depend on the run, so his numbers may be limited.	But the Chiefs might depend on the run, so his number may be limited.	259256257	1478911237641	1478911237715	e	69
507643	5462291	But the Chiefs might depend on the run, so his numbers may be limited.	But the Chiefs might depend on the run, so his number may be limited.	259256293	1478911237793	1478911237853	n	78
507643	5462291	But the Chiefs might depend on the run, so his numbers may be limited.	But the Chiefs might depend on the run, so his number may be limited.	259256294	1478911237957	1478911238073	d	68
507643	5462291	But the Chiefs might depend on the run, so his numbers may be limited.	But the Chiefs might depend on the run, so his number may be limited.	259256296	1478911238170	1478911238245	 	32
507643	5462291	But the Chiefs might depend on the run, so his numbers may be limited.	But the Chiefs might depend on the run, so his number may be limited.	259256298	1478911238649	1478911238724	o	79
507643	5462291	But the Chiefs might depend on the run, so his numbers may be limited.	But the Chiefs might depend on the run, so his number may be limited.	259256300	1478911238851	1478911238926	n	78
507643	5462291	But the Chiefs might depend on the run, so his numbers may be limited.	But the Chiefs might depend on the run, so his number may be limited.	259256320	1478911239053	1478911239132	 	32
507643	5462291	But the Chiefs might depend on the run, so his numbers may be limited.	But the Chiefs might depend on the run, so his number may be limited.	259256325	1478911239200	1478911239324	t	84
507643	5462291	But the Chiefs might depend on the run, so his numbers may be limited.	But the Chiefs might depend on the run, so his number may be limited.	259256329	1478911239328	1478911239410	h	72
507643	5462291	But the Chiefs might depend on the run, so his numbers may be limited.	But the Chiefs might depend on the run, so his number may be limited.	259256333	1478911239483	1478911239624	e	69
507643	5462291	But the Chiefs might depend on the run, so his numbers may be limited.	But the Chiefs might depend on the run, so his number may be limited.	259256408	1478911239617	1478911239701	 	32
507643	5462291	But the Chiefs might depend on the run, so his numbers may be limited.	But the Chiefs might depend on the run, so his number may be limited.	259256411	1478911240373	1478911240508	r	82
507643	5462291	But the Chiefs might depend on the run, so his numbers may be limited.	But the Chiefs might depend on the run, so his number may be limited.	259256415	1478911240563	1478911240629	u	85
507643	5462291	But the Chiefs might depend on the run, so his numbers may be limited.	But the Chiefs might depend on the run, so his number may be limited.	259256421	1478911240820	1478911240889	n	78
507643	5462291	But the Chiefs might depend on the run, so his numbers may be limited.	But the Chiefs might depend on the run, so his number may be limited.	259256425	1478911241449	1478911241518	,	188
507643	5462291	But the Chiefs might depend on the run, so his numbers may be limited.	But the Chiefs might depend on the run, so his number may be limited.	259256431	1478911241653	1478911241732	 	32
507643	5462291	But the Chiefs might depend on the run, so his numbers may be limited.	But the Chiefs might depend on the run, so his number may be limited.	259256463	1478911241885	1478911242052	s	83
507643	5462291	But the Chiefs might depend on the run, so his numbers may be limited.	But the Chiefs might depend on the run, so his number may be limited.	259256466	1478911242082	1478911242147	o	79
507643	5462291	But the Chiefs might depend on the run, so his numbers may be limited.	But the Chiefs might depend on the run, so his number may be limited.	259256468	1478911242304	1478911242388	 	32
507643	5462291	But the Chiefs might depend on the run, so his numbers may be limited.	But the Chiefs might depend on the run, so his number may be limited.	259256470	1478911242720	1478911242786	h	72
507643	5462291	But the Chiefs might depend on the run, so his numbers may be limited.	But the Chiefs might depend on the run, so his number may be limited.	259256471	1478911242910	1478911243006	i	73
507643	5462291	But the Chiefs might depend on the run, so his numbers may be limited.	But the Chiefs might depend on the run, so his number may be limited.	259256496	1478911243063	1478911243262	s	83
507643	5462291	But the Chiefs might depend on the run, so his numbers may be limited.	But the Chiefs might depend on the run, so his number may be limited.	259256501	1478911243188	1478911243278	 	32
507643	5462291	But the Chiefs might depend on the run, so his numbers may be limited.	But the Chiefs might depend on the run, so his number may be limited.	259256505	1478911243602	1478911243690	n	78
507643	5462291	But the Chiefs might depend on the run, so his numbers may be limited.	But the Chiefs might depend on the run, so his number may be limited.	259256509	1478911243769	1478911243825	u	85
507643	5462291	But the Chiefs might depend on the run, so his numbers may be limited.	But the Chiefs might depend on the run, so his number may be limited.	259256514	1478911244006	1478911244089	m	77
507643	5462291	But the Chiefs might depend on the run, so his numbers may be limited.	But the Chiefs might depend on the run, so his number may be limited.	259256570	1478911244137	1478911244253	b	66
507643	5462291	But the Chiefs might depend on the run, so his numbers may be limited.	But the Chiefs might depend on the run, so his number may be limited.	259256571	1478911244420	1478911244558	e	69
507643	5462291	But the Chiefs might depend on the run, so his numbers may be limited.	But the Chiefs might depend on the run, so his number may be limited.	259256573	1478911244542	1478911244677	r	82
507643	5462291	But the Chiefs might depend on the run, so his numbers may be limited.	But the Chiefs might depend on the run, so his number may be limited.	259256575	1478911244744	1478911244818	 	32
507643	5462291	But the Chiefs might depend on the run, so his numbers may be limited.	But the Chiefs might depend on the run, so his number may be limited.	259256578	1478911245309	1478911245375	m	77
507643	5462291	But the Chiefs might depend on the run, so his numbers may be limited.	But the Chiefs might depend on the run, so his number may be limited.	259256620	1478911245547	1478911245722	a	65
507643	5462291	But the Chiefs might depend on the run, so his numbers may be limited.	But the Chiefs might depend on the run, so his number may be limited.	259256622	1478911245716	1478911245798	y	89
507643	5462291	But the Chiefs might depend on the run, so his numbers may be limited.	But the Chiefs might depend on the run, so his number may be limited.	259256624	1478911246064	1478911246148	 	32
507643	5462291	But the Chiefs might depend on the run, so his numbers may be limited.	But the Chiefs might depend on the run, so his number may be limited.	259256626	1478911246414	1478911246528	b	66
507643	5462291	But the Chiefs might depend on the run, so his numbers may be limited.	But the Chiefs might depend on the run, so his number may be limited.	259256628	1478911246656	1478911246834	e	69
507643	5462291	But the Chiefs might depend on the run, so his numbers may be limited.	But the Chiefs might depend on the run, so his number may be limited.	259256687	1478911246801	1478911246880	 	32
507643	5462291	But the Chiefs might depend on the run, so his numbers may be limited.	But the Chiefs might depend on the run, so his number may be limited.	259256689	1478911247230	1478911247283	l	76
507643	5462291	But the Chiefs might depend on the run, so his numbers may be limited.	But the Chiefs might depend on the run, so his number may be limited.	259256690	1478911247433	1478911247487	i	73
507643	5462291	But the Chiefs might depend on the run, so his numbers may be limited.	But the Chiefs might depend on the run, so his number may be limited.	259256692	1478911247631	1478911247709	m	77
507643	5462291	But the Chiefs might depend on the run, so his numbers may be limited.	But the Chiefs might depend on the run, so his number may be limited.	259256693	1478911247824	1478911247875	i	73
507643	5462291	But the Chiefs might depend on the run, so his numbers may be limited.	But the Chiefs might depend on the run, so his number may be limited.	259256695	1478911248137	1478911248244	t	84
507643	5462291	But the Chiefs might depend on the run, so his numbers may be limited.	But the Chiefs might depend on the run, so his number may be limited.	259256741	1478911248373	1478911248492	e	69
507643	5462291	But the Chiefs might depend on the run, so his numbers may be limited.	But the Chiefs might depend on the run, so his number may be limited.	259256744	1478911248597	1478911248732	d	68
507643	5462291	But the Chiefs might depend on the run, so his numbers may be limited.	But the Chiefs might depend on the run, so his number may be limited.	259256749	1478911249052	1478911249145	.	190
507643	5462307	I'll probably page you.	I'll probably page you.	259257007	1478911251338	1478911251596	SHIFT	16
507643	5462307	I'll probably page you.	I'll probably page you.	259257006	1478911251492	1478911251557	I	73
507643	5462307	I'll probably page you.	I'll probably page you.	259257009	1478911251986	1478911252066	;	186
507643	5462307	I'll probably page you.	I'll probably page you.	259257010	1478911252294	1478911252323	k	75
507643	5462307	I'll probably page you.	I'll probably page you.	259257011	1478911253013	1478911253079	BKSP	8
507643	5462307	I'll probably page you.	I'll probably page you.	259257012	1478911253362	1478911253423	l	76
507643	5462307	I'll probably page you.	I'll probably page you.	259257013	1478911254128	1478911254188	BKSP	8
507643	5462307	I'll probably page you.	I'll probably page you.	259257014	1478911254280	1478911254358	BKSP	8
507643	5462307	I'll probably page you.	I'll probably page you.	259257015	1478911255166	1478911255227	'	222
507643	5462307	I'll probably page you.	I'll probably page you.	259257072	1478911255948	1478911256000	l	76
507643	5462307	I'll probably page you.	I'll probably page you.	259257076	1478911256077	1478911256166	l	76
507643	5462307	I'll probably page you.	I'll probably page you.	259257080	1478911256350	1478911256429	 	32
507643	5462307	I'll probably page you.	I'll probably page you.	259257083	1478911256837	1478911256898	p	80
507643	5462307	I'll probably page you.	I'll probably page you.	259257087	1478911257093	1478911257199	r	82
507643	5462307	I'll probably page you.	I'll probably page you.	259257133	1478911257267	1478911257323	o	79
507643	5462307	I'll probably page you.	I'll probably page you.	259257135	1478911257489	1478911257607	b	66
507643	5462307	I'll probably page you.	I'll probably page you.	259257137	1478911258636	1478911258797	a	65
507643	5462307	I'll probably page you.	I'll probably page you.	259257139	1478911258969	1478911259085	b	66
507643	5462307	I'll probably page you.	I'll probably page you.	259257142	1478911259123	1478911259213	l	76
507643	5462307	I'll probably page you.	I'll probably page you.	259257198	1478911259439	1478911259509	y	89
507643	5462307	I'll probably page you.	I'll probably page you.	259257200	1478911259812	1478911259891	 	32
507643	5462307	I'll probably page you.	I'll probably page you.	259257203	1478911260229	1478911260322	p	80
507643	5462307	I'll probably page you.	I'll probably page you.	259257206	1478911260349	1478911260491	a	65
507643	5462307	I'll probably page you.	I'll probably page you.	259257208	1478911260521	1478911260668	g	71
507643	5462307	I'll probably page you.	I'll probably page you.	259257231	1478911260759	1478911260879	e	69
507643	5462307	I'll probably page you.	I'll probably page you.	259257233	1478911260855	1478911260944	 	32
507643	5462307	I'll probably page you.	I'll probably page you.	259257234	1478911261283	1478911261349	y	89
507643	5462307	I'll probably page you.	I'll probably page you.	259257235	1478911261514	1478911261615	o	79
507643	5462307	I'll probably page you.	I'll probably page you.	259257236	1478911261703	1478911261768	u	85
507643	5462307	I'll probably page you.	I'll probably page you.	259257253	1478911262304	1478911262392	.	190
507643	5462316	I'll call you when I get to the office.	I'll call you when I get to the office.	259257359	1478911264602	1478911264868	SHIFT	16
507643	5462316	I'll call you when I get to the office.	I'll call you when I get to the office.	259257356	1478911264771	1478911264827	I	73
507643	5462316	I'll call you when I get to the office.	I'll call you when I get to the office.	259257363	1478911265450	1478911265529	'	222
507643	5462316	I'll call you when I get to the office.	I'll call you when I get to the office.	259257366	1478911265787	1478911265833	l	76
507643	5462316	I'll call you when I get to the office.	I'll call you when I get to the office.	259257368	1478911265923	1478911266007	l	76
507643	5462316	I'll call you when I get to the office.	I'll call you when I get to the office.	259257370	1478911266197	1478911266271	 	32
507643	5462316	I'll call you when I get to the office.	I'll call you when I get to the office.	259257390	1478911266420	1478911266567	c	67
507643	5462316	I'll call you when I get to the office.	I'll call you when I get to the office.	259257393	1478911266648	1478911266804	a	65
507643	5462316	I'll call you when I get to the office.	I'll call you when I get to the office.	259257395	1478911266785	1478911266849	l	76
507643	5462316	I'll call you when I get to the office.	I'll call you when I get to the office.	259257397	1478911266947	1478911267027	l	76
507643	5462316	I'll call you when I get to the office.	I'll call you when I get to the office.	259257399	1478911267162	1478911267241	 	32
507643	5462316	I'll call you when I get to the office.	I'll call you when I get to the office.	259257468	1478911267489	1478911267558	y	89
507643	5462316	I'll call you when I get to the office.	I'll call you when I get to the office.	259257469	1478911267744	1478911267846	o	79
507643	5462316	I'll call you when I get to the office.	I'll call you when I get to the office.	259257470	1478911267940	1478911268001	u	85
507643	5462316	I'll call you when I get to the office.	I'll call you when I get to the office.	259257471	1478911268226	1478911268300	 	32
507643	5462316	I'll call you when I get to the office.	I'll call you when I get to the office.	259257472	1478911269030	1478911269145	w	87
507643	5462316	I'll call you when I get to the office.	I'll call you when I get to the office.	259257550	1478911269541	1478911269615	h	72
507643	5462316	I'll call you when I get to the office.	I'll call you when I get to the office.	259257551	1478911269766	1478911269877	e	69
507643	5462316	I'll call you when I get to the office.	I'll call you when I get to the office.	259257552	1478911269914	1478911269974	n	78
507643	5462316	I'll call you when I get to the office.	I'll call you when I get to the office.	259257555	1478911270499	1478911270574	 	32
507643	5462316	I'll call you when I get to the office.	I'll call you when I get to the office.	259257596	1478911271164	1478911271440	SHIFT	16
507643	5462316	I'll call you when I get to the office.	I'll call you when I get to the office.	259257556	1478911271300	1478911271375	I	73
507643	5462316	I'll call you when I get to the office.	I'll call you when I get to the office.	259257598	1478911271621	1478911271708	 	32
507643	5462316	I'll call you when I get to the office.	I'll call you when I get to the office.	259257600	1478911271838	1478911271976	g	71
507643	5462316	I'll call you when I get to the office.	I'll call you when I get to the office.	259257602	1478911272066	1478911272178	e	69
507643	5462316	I'll call you when I get to the office.	I'll call you when I get to the office.	259257606	1478911272194	1478911272342	t	84
507643	5462316	I'll call you when I get to the office.	I'll call you when I get to the office.	259257610	1478911272384	1478911272454	 	32
507643	5462316	I'll call you when I get to the office.	I'll call you when I get to the office.	259257647	1478911272914	1478911273056	t	84
507643	5462316	I'll call you when I get to the office.	I'll call you when I get to the office.	259257648	1478911273105	1478911273161	o	79
507643	5462316	I'll call you when I get to the office.	I'll call you when I get to the office.	259257649	1478911273316	1478911273399	 	32
507643	5462316	I'll call you when I get to the office.	I'll call you when I get to the office.	259257650	1478911273500	1478911273633	t	84
507643	5462316	I'll call you when I get to the office.	I'll call you when I get to the office.	259257706	1478911273610	1478911273684	h	72
507643	5462316	I'll call you when I get to the office.	I'll call you when I get to the office.	259257708	1478911273787	1478911273884	e	69
507643	5462316	I'll call you when I get to the office.	I'll call you when I get to the office.	259257710	1478911273896	1478911273980	 	32
507643	5462316	I'll call you when I get to the office.	I'll call you when I get to the office.	259257712	1478911274296	1478911274366	o	79
507643	5462316	I'll call you when I get to the office.	I'll call you when I get to the office.	259257714	1478911274491	1478911274579	f	70
507643	5462316	I'll call you when I get to the office.	I'll call you when I get to the office.	259257717	1478911274689	1478911274750	f	70
507643	5462316	I'll call you when I get to the office.	I'll call you when I get to the office.	259257803	1478911274802	1478911274880	i	73
507643	5462316	I'll call you when I get to the office.	I'll call you when I get to the office.	259257809	1478911275015	1478911275097	v	86
507643	5462316	I'll call you when I get to the office.	I'll call you when I get to the office.	259257805	1478911275060	1478911275090	c	67
507643	5462316	I'll call you when I get to the office.	I'll call you when I get to the office.	259257812	1478911275538	1478911275621	BKSP	8
507643	5462316	I'll call you when I get to the office.	I'll call you when I get to the office.	259257814	1478911275792	1478911275943	c	67
507643	5462316	I'll call you when I get to the office.	I'll call you when I get to the office.	259257816	1478911276490	1478911276550	BKSP	8
507643	5462316	I'll call you when I get to the office.	I'll call you when I get to the office.	259257818	1478911276801	1478911276875	BKSP	8
507643	5462316	I'll call you when I get to the office.	I'll call you when I get to the office.	259257819	1478911277251	1478911277385	c	67
507643	5462316	I'll call you when I get to the office.	I'll call you when I get to the office.	259257858	1478911277481	1478911277642	e	69
507643	5462316	I'll call you when I get to the office.	I'll call you when I get to the office.	259257860	1478911278188	1478911278276	.	190
507643	5462334	It doesn't match your spreadsheet.	It doesn't match your spreadsheet.	259257960	1478911280608	1478911280843	SHIFT	16
507643	5462334	It doesn't match your spreadsheet.	It doesn't match your spreadsheet.	259257958	1478911280749	1478911280820	I	73
507643	5462334	It doesn't match your spreadsheet.	It doesn't match your spreadsheet.	259257961	1478911281047	1478911281152	t	84
507643	5462334	It doesn't match your spreadsheet.	It doesn't match your spreadsheet.	259257962	1478911281251	1478911281329	 	32
507643	5462334	It doesn't match your spreadsheet.	It doesn't match your spreadsheet.	259257963	1478911281936	1478911282065	d	68
507643	5462334	It doesn't match your spreadsheet.	It doesn't match your spreadsheet.	259257965	1478911282175	1478911282241	o	79
507643	5462334	It doesn't match your spreadsheet.	It doesn't match your spreadsheet.	259258083	1478911282308	1478911282415	e	69
507643	5462334	It doesn't match your spreadsheet.	It doesn't match your spreadsheet.	259258086	1478911282598	1478911282713	s	83
507643	5462334	It doesn't match your spreadsheet.	It doesn't match your spreadsheet.	259258090	1478911283551	1478911283615	n	78
507643	5462334	It doesn't match your spreadsheet.	It doesn't match your spreadsheet.	259258093	1478911284253	1478911284327	'	222
507643	5462334	It doesn't match your spreadsheet.	It doesn't match your spreadsheet.	259258095	1478911285282	1478911285389	t	84
507643	5462334	It doesn't match your spreadsheet.	It doesn't match your spreadsheet.	259258154	1478911285456	1478911285529	 	32
507643	5462334	It doesn't match your spreadsheet.	It doesn't match your spreadsheet.	259258155	1478911285914	1478911285993	m	77
507643	5462334	It doesn't match your spreadsheet.	It doesn't match your spreadsheet.	259258156	1478911285978	1478911286149	a	65
507643	5462334	It doesn't match your spreadsheet.	It doesn't match your spreadsheet.	259258157	1478911286174	1478911286280	t	84
507643	5462334	It doesn't match your spreadsheet.	It doesn't match your spreadsheet.	259258158	1478911286588	1478911286741	c	67
507643	5462334	It doesn't match your spreadsheet.	It doesn't match your spreadsheet.	259258204	1478911286716	1478911286799	h	72
507643	5462334	It doesn't match your spreadsheet.	It doesn't match your spreadsheet.	259258205	1478911286993	1478911287090	 	32
507643	5462334	It doesn't match your spreadsheet.	It doesn't match your spreadsheet.	259258206	1478911287411	1478911287485	y	89
507643	5462334	It doesn't match your spreadsheet.	It doesn't match your spreadsheet.	259258208	1478911287654	1478911287757	o	79
507643	5462334	It doesn't match your spreadsheet.	It doesn't match your spreadsheet.	259258212	1478911287875	1478911287944	u	85
507643	5462334	It doesn't match your spreadsheet.	It doesn't match your spreadsheet.	259258217	1478911288030	1478911288145	r	82
507643	5462334	It doesn't match your spreadsheet.	It doesn't match your spreadsheet.	259258280	1478911288258	1478911288333	 	32
507643	5462334	It doesn't match your spreadsheet.	It doesn't match your spreadsheet.	259258281	1478911288897	1478911289018	s	83
507643	5462334	It doesn't match your spreadsheet.	It doesn't match your spreadsheet.	259258282	1478911289238	1478911289317	p	80
507643	5462334	It doesn't match your spreadsheet.	It doesn't match your spreadsheet.	259258284	1478911289449	1478911289555	r	82
507643	5462334	It doesn't match your spreadsheet.	It doesn't match your spreadsheet.	259258286	1478911289673	1478911289766	e	69
507643	5462334	It doesn't match your spreadsheet.	It doesn't match your spreadsheet.	259258356	1478911290141	1478911290271	a	65
507643	5462334	It doesn't match your spreadsheet.	It doesn't match your spreadsheet.	259258361	1478911290438	1478911290549	d	68
507643	5462334	It doesn't match your spreadsheet.	It doesn't match your spreadsheet.	259258364	1478911291084	1478911291235	s	83
507643	5462334	It doesn't match your spreadsheet.	It doesn't match your spreadsheet.	259258370	1478911291315	1478911291384	h	72
507643	5462334	It doesn't match your spreadsheet.	It doesn't match your spreadsheet.	259258375	1478911291563	1478911291659	e	69
507643	5462334	It doesn't match your spreadsheet.	It doesn't match your spreadsheet.	259258445	1478911291722	1478911291837	e	69
507643	5462334	It doesn't match your spreadsheet.	It doesn't match your spreadsheet.	259258451	1478911292354	1478911292469	t	84
507643	5462334	It doesn't match your spreadsheet.	It doesn't match your spreadsheet.	259258460	1478911293175	1478911293263	.	190
507643	5462344	What do you show as the storage schedule?	Whay do you show as the storage sahcedule?	259258600	1478911295532	1478911295871	SHIFT	16
507643	5462344	What do you show as the storage schedule?	Whay do you show as the storage sahcedule?	259258603	1478911295805	1478911295913	W	87
507643	5462344	What do you show as the storage schedule?	Whay do you show as the storage sahcedule?	259258607	1478911296149	1478911296241	h	72
507643	5462344	What do you show as the storage schedule?	Whay do you show as the storage sahcedule?	259258611	1478911296263	1478911296392	a	65
507643	5462344	What do you show as the storage schedule?	Whay do you show as the storage sahcedule?	259258615	1478911296463	1478911296579	y	89
507643	5462344	What do you show as the storage schedule?	Whay do you show as the storage sahcedule?	259258621	1478911296826	1478911296923	 	32
507643	5462344	What do you show as the storage schedule?	Whay do you show as the storage sahcedule?	259258655	1478911297035	1478911297201	d	68
507643	5462344	What do you show as the storage schedule?	Whay do you show as the storage sahcedule?	259258658	1478911297219	1478911297287	o	79
507643	5462344	What do you show as the storage schedule?	Whay do you show as the storage sahcedule?	259258661	1478911297456	1478911297547	 	32
507643	5462344	What do you show as the storage schedule?	Whay do you show as the storage sahcedule?	259258665	1478911297748	1478911297817	y	89
507643	5462344	What do you show as the storage schedule?	Whay do you show as the storage sahcedule?	259258668	1478911297953	1478911298059	o	79
507643	5462344	What do you show as the storage schedule?	Whay do you show as the storage sahcedule?	259258691	1478911298146	1478911298230	u	85
507643	5462344	What do you show as the storage schedule?	Whay do you show as the storage sahcedule?	259258693	1478911298442	1478911298531	 	32
507643	5462344	What do you show as the storage schedule?	Whay do you show as the storage sahcedule?	259258696	1478911298734	1478911298872	s	83
507643	5462344	What do you show as the storage schedule?	Whay do you show as the storage sahcedule?	259258699	1478911298890	1478911298953	h	72
507643	5462344	What do you show as the storage schedule?	Whay do you show as the storage sahcedule?	259258702	1478911299101	1478911299191	o	79
507643	5462344	What do you show as the storage schedule?	Whay do you show as the storage sahcedule?	259258734	1478911299501	1478911299663	w	87
507643	5462344	What do you show as the storage schedule?	Whay do you show as the storage sahcedule?	259258736	1478911299680	1478911299758	 	32
507643	5462344	What do you show as the storage schedule?	Whay do you show as the storage sahcedule?	259258741	1478911299984	1478911300121	a	65
507643	5462344	What do you show as the storage schedule?	Whay do you show as the storage sahcedule?	259258744	1478911300247	1478911300440	s	83
507643	5462344	What do you show as the storage schedule?	Whay do you show as the storage sahcedule?	259258779	1478911300384	1478911300473	 	32
507643	5462344	What do you show as the storage schedule?	Whay do you show as the storage sahcedule?	259258783	1478911300845	1478911300978	t	84
507643	5462344	What do you show as the storage schedule?	Whay do you show as the storage sahcedule?	259258786	1478911300981	1478911301055	h	72
507643	5462344	What do you show as the storage schedule?	Whay do you show as the storage sahcedule?	259258795	1478911301125	1478911301246	e	69
507643	5462344	What do you show as the storage schedule?	Whay do you show as the storage sahcedule?	259258799	1478911301278	1478911301367	 	32
507643	5462344	What do you show as the storage schedule?	Whay do you show as the storage sahcedule?	259258802	1478911301521	1478911301664	s	83
507643	5462344	What do you show as the storage schedule?	Whay do you show as the storage sahcedule?	259258837	1478911301767	1478911301901	t	84
507643	5462344	What do you show as the storage schedule?	Whay do you show as the storage sahcedule?	259258840	1478911301909	1478911301973	o	79
507643	5462344	What do you show as the storage schedule?	Whay do you show as the storage sahcedule?	259258843	1478911302347	1478911302449	r	82
507643	5462344	What do you show as the storage schedule?	Whay do you show as the storage sahcedule?	259258847	1478911302606	1478911302780	a	65
507643	5462344	What do you show as the storage schedule?	Whay do you show as the storage sahcedule?	259258854	1478911302933	1478911303047	g	71
507643	5462344	What do you show as the storage schedule?	Whay do you show as the storage sahcedule?	259258901	1478911303151	1478911303292	e	69
507643	5462344	What do you show as the storage schedule?	Whay do you show as the storage sahcedule?	259258902	1478911303273	1478911303358	 	32
507643	5462344	What do you show as the storage schedule?	Whay do you show as the storage sahcedule?	259258903	1478911303590	1478911303734	s	83
507643	5462344	What do you show as the storage schedule?	Whay do you show as the storage sahcedule?	259258904	1478911303796	1478911303922	a	65
507643	5462344	What do you show as the storage schedule?	Whay do you show as the storage sahcedule?	259258905	1478911303979	1478911304045	h	72
507643	5462344	What do you show as the storage schedule?	Whay do you show as the storage sahcedule?	259258936	1478911304097	1478911304204	c	67
507643	5462344	What do you show as the storage schedule?	Whay do you show as the storage sahcedule?	259258940	1478911304337	1478911304427	e	69
507643	5462344	What do you show as the storage schedule?	Whay do you show as the storage sahcedule?	259258944	1478911304629	1478911304713	d	68
507643	5462344	What do you show as the storage schedule?	Whay do you show as the storage sahcedule?	259258948	1478911304734	1478911304795	u	85
507643	5462344	What do you show as the storage schedule?	Whay do you show as the storage sahcedule?	259258950	1478911304989	1478911305048	l	76
507643	5462344	What do you show as the storage schedule?	Whay do you show as the storage sahcedule?	259259017	1478911305112	1478911305222	e	69
507643	5462344	What do you show as the storage schedule?	Whay do you show as the storage sahcedule?	259259020	1478911305557	1478911306348	SHIFT	16
507643	5462344	What do you show as the storage schedule?	Whay do you show as the storage sahcedule?	259259019	1478911306094	1478911306232	?	191
507643	5462359	Opposition leaders have urged him to call off the visit.	Opposition leaders have urged him to call off the visit.	259259197	1478911308378	1478911308703	SHIFT	16
507643	5462359	Opposition leaders have urged him to call off the visit.	Opposition leaders have urged him to call off the visit.	259259194	1478911308611	1478911308680	O	79
507643	5462359	Opposition leaders have urged him to call off the visit.	Opposition leaders have urged him to call off the visit.	259259200	1478911308925	1478911308973	p	80
507643	5462359	Opposition leaders have urged him to call off the visit.	Opposition leaders have urged him to call off the visit.	259259203	1478911309058	1478911309128	p	80
507643	5462359	Opposition leaders have urged him to call off the visit.	Opposition leaders have urged him to call off the visit.	259259206	1478911309575	1478911309641	o	79
507643	5462359	Opposition leaders have urged him to call off the visit.	Opposition leaders have urged him to call off the visit.	259259209	1478911309845	1478911310023	s	83
507643	5462359	Opposition leaders have urged him to call off the visit.	Opposition leaders have urged him to call off the visit.	259259236	1478911310013	1478911310082	i	73
507643	5462359	Opposition leaders have urged him to call off the visit.	Opposition leaders have urged him to call off the visit.	259259239	1478911310179	1478911310304	t	84
507643	5462359	Opposition leaders have urged him to call off the visit.	Opposition leaders have urged him to call off the visit.	259259241	1478911310284	1478911310340	i	73
507643	5462359	Opposition leaders have urged him to call off the visit.	Opposition leaders have urged him to call off the visit.	259259244	1478911310471	1478911310545	o	79
507643	5462359	Opposition leaders have urged him to call off the visit.	Opposition leaders have urged him to call off the visit.	259259247	1478911310664	1478911310737	n	78
507643	5462359	Opposition leaders have urged him to call off the visit.	Opposition leaders have urged him to call off the visit.	259259251	1478911310896	1478911310975	 	32
507643	5462359	Opposition leaders have urged him to call off the visit.	Opposition leaders have urged him to call off the visit.	259259307	1478911311233	1478911311303	l	76
507643	5462359	Opposition leaders have urged him to call off the visit.	Opposition leaders have urged him to call off the visit.	259259308	1478911311367	1478911311472	e	69
507643	5462359	Opposition leaders have urged him to call off the visit.	Opposition leaders have urged him to call off the visit.	259259309	1478911311577	1478911311678	a	65
507643	5462359	Opposition leaders have urged him to call off the visit.	Opposition leaders have urged him to call off the visit.	259259310	1478911311993	1478911312099	d	68
507643	5462359	Opposition leaders have urged him to call off the visit.	Opposition leaders have urged him to call off the visit.	259259311	1478911312405	1478911312547	e	69
507643	5462359	Opposition leaders have urged him to call off the visit.	Opposition leaders have urged him to call off the visit.	259259355	1478911312557	1478911312675	r	82
507643	5462359	Opposition leaders have urged him to call off the visit.	Opposition leaders have urged him to call off the visit.	259259357	1478911313265	1478911313400	s	83
507643	5462359	Opposition leaders have urged him to call off the visit.	Opposition leaders have urged him to call off the visit.	259259359	1478911313499	1478911313569	 	32
507643	5462359	Opposition leaders have urged him to call off the visit.	Opposition leaders have urged him to call off the visit.	259259361	1478911313987	1478911314058	h	72
507643	5462359	Opposition leaders have urged him to call off the visit.	Opposition leaders have urged him to call off the visit.	259259362	1478911314061	1478911314245	a	65
507643	5462359	Opposition leaders have urged him to call off the visit.	Opposition leaders have urged him to call off the visit.	259259400	1478911314280	1478911314433	v	86
507643	5462359	Opposition leaders have urged him to call off the visit.	Opposition leaders have urged him to call off the visit.	259259403	1478911314530	1478911314678	e	69
507643	5462359	Opposition leaders have urged him to call off the visit.	Opposition leaders have urged him to call off the visit.	259259406	1478911314609	1478911314691	 	32
507643	5462359	Opposition leaders have urged him to call off the visit.	Opposition leaders have urged him to call off the visit.	259259409	1478911315079	1478911315144	u	85
507643	5462359	Opposition leaders have urged him to call off the visit.	Opposition leaders have urged him to call off the visit.	259259413	1478911315221	1478911315331	r	82
507643	5462359	Opposition leaders have urged him to call off the visit.	Opposition leaders have urged him to call off the visit.	259259438	1478911315467	1478911315577	g	71
507643	5462359	Opposition leaders have urged him to call off the visit.	Opposition leaders have urged him to call off the visit.	259259441	1478911315663	1478911315832	e	69
507643	5462359	Opposition leaders have urged him to call off the visit.	Opposition leaders have urged him to call off the visit.	259259444	1478911315785	1478911315887	 	32
507643	5462359	Opposition leaders have urged him to call off the visit.	Opposition leaders have urged him to call off the visit.	259259448	1478911316143	1478911316211	h	72
507643	5462359	Opposition leaders have urged him to call off the visit.	Opposition leaders have urged him to call off the visit.	259259601	1478911316331	1478911316389	o	73
507643	5462359	Opposition leaders have urged him to call off the visit.	Opposition leaders have urged him to call off the visit.	259259603	1478911316576	1478911316655	m	77
507643	5462359	Opposition leaders have urged him to call off the visit.	Opposition leaders have urged him to call off the visit.	259259605	1478911317174	1478911317202	BKSP	8
507643	5462359	Opposition leaders have urged him to call off the visit.	Opposition leaders have urged him to call off the visit.	259259606	1478911317340	1478911317384	BKSP	8
507643	5462359	Opposition leaders have urged him to call off the visit.	Opposition leaders have urged him to call off the visit.	259259607	1478911317504	1478911317578	BKSP	8
507643	5462359	Opposition leaders have urged him to call off the visit.	Opposition leaders have urged him to call off the visit.	259259609	1478911317981	1478911318055	BKSP	8
507643	5462359	Opposition leaders have urged him to call off the visit.	Opposition leaders have urged him to call off the visit.	259259611	1478911319046	1478911319139	BKSP	8
507643	5462359	Opposition leaders have urged him to call off the visit.	Opposition leaders have urged him to call off the visit.	259259613	1478911319498	1478911319596	d	68
507643	5462359	Opposition leaders have urged him to call off the visit.	Opposition leaders have urged him to call off the visit.	259259616	1478911319756	1478911319836	 	32
507643	5462359	Opposition leaders have urged him to call off the visit.	Opposition leaders have urged him to call off the visit.	259259619	1478911320414	1478911320492	h	72
507643	5462359	Opposition leaders have urged him to call off the visit.	Opposition leaders have urged him to call off the visit.	259259622	1478911320579	1478911320643	i	73
507643	5462359	Opposition leaders have urged him to call off the visit.	Opposition leaders have urged him to call off the visit.	259259645	1478911320783	1478911320868	m	77
507643	5462359	Opposition leaders have urged him to call off the visit.	Opposition leaders have urged him to call off the visit.	259259647	1478911321005	1478911321094	 	32
507643	5462359	Opposition leaders have urged him to call off the visit.	Opposition leaders have urged him to call off the visit.	259259651	1478911321258	1478911321400	t	84
507643	5462359	Opposition leaders have urged him to call off the visit.	Opposition leaders have urged him to call off the visit.	259259658	1478911321390	1478911321455	o	79
507643	5462359	Opposition leaders have urged him to call off the visit.	Opposition leaders have urged him to call off the visit.	259259665	1478911321614	1478911321697	 	32
507643	5462359	Opposition leaders have urged him to call off the visit.	Opposition leaders have urged him to call off the visit.	259259730	1478911321807	1478911321954	c	67
507643	5462359	Opposition leaders have urged him to call off the visit.	Opposition leaders have urged him to call off the visit.	259259733	1478911322053	1478911322168	a	65
507643	5462359	Opposition leaders have urged him to call off the visit.	Opposition leaders have urged him to call off the visit.	259259736	1478911322148	1478911322209	l	76
507643	5462359	Opposition leaders have urged him to call off the visit.	Opposition leaders have urged him to call off the visit.	259259739	1478911322288	1478911322372	l	76
507643	5462359	Opposition leaders have urged him to call off the visit.	Opposition leaders have urged him to call off the visit.	259259742	1478911322856	1478911322938	o	79
507643	5462359	Opposition leaders have urged him to call off the visit.	Opposition leaders have urged him to call off the visit.	259259795	1478911323047	1478911323126	f	70
507643	5462359	Opposition leaders have urged him to call off the visit.	Opposition leaders have urged him to call off the visit.	259259796	1478911323214	1478911323329	f	70
507643	5462359	Opposition leaders have urged him to call off the visit.	Opposition leaders have urged him to call off the visit.	259259797	1478911323438	1478911323515	 	32
507643	5462359	Opposition leaders have urged him to call off the visit.	Opposition leaders have urged him to call off the visit.	259259798	1478911323928	1478911324026	t	84
507643	5462359	Opposition leaders have urged him to call off the visit.	Opposition leaders have urged him to call off the visit.	259259799	1478911324059	1478911324119	h	72
507643	5462359	Opposition leaders have urged him to call off the visit.	Opposition leaders have urged him to call off the visit.	259259946	1478911324195	1478911324333	e	69
507643	5462359	Opposition leaders have urged him to call off the visit.	Opposition leaders have urged him to call off the visit.	259259947	1478911324354	1478911324424	 	32
507643	5462359	Opposition leaders have urged him to call off the visit.	Opposition leaders have urged him to call off the visit.	259259948	1478911325109	1478911325162	BKSP	8
507643	5462359	Opposition leaders have urged him to call off the visit.	Opposition leaders have urged him to call off the visit.	259259949	1478911325267	1478911325333	BKSP	8
507643	5462359	Opposition leaders have urged him to call off the visit.	Opposition leaders have urged him to call off the visit.	259259950	1478911325430	1478911325490	BKSP	8
507643	5462359	Opposition leaders have urged him to call off the visit.	Opposition leaders have urged him to call off the visit.	259259953	1478911325576	1478911325646	BKSP	8
507643	5462359	Opposition leaders have urged him to call off the visit.	Opposition leaders have urged him to call off the visit.	259259957	1478911325722	1478911325791	BKSP	8
507643	5462359	Opposition leaders have urged him to call off the visit.	Opposition leaders have urged him to call off the visit.	259259960	1478911325867	1478911325946	BKSP	8
507643	5462359	Opposition leaders have urged him to call off the visit.	Opposition leaders have urged him to call off the visit.	259259963	1478911326024	1478911326117	BKSP	8
507643	5462359	Opposition leaders have urged him to call off the visit.	Opposition leaders have urged him to call off the visit.	259259966	1478911326295	1478911326406	BKSP	8
507643	5462359	Opposition leaders have urged him to call off the visit.	Opposition leaders have urged him to call off the visit.	259259971	1478911326834	1478911326927	 	32
507643	5462359	Opposition leaders have urged him to call off the visit.	Opposition leaders have urged him to call off the visit.	259259975	1478911327368	1478911327434	o	79
507643	5462359	Opposition leaders have urged him to call off the visit.	Opposition leaders have urged him to call off the visit.	259259978	1478911327618	1478911327697	f	70
507643	5462359	Opposition leaders have urged him to call off the visit.	Opposition leaders have urged him to call off the visit.	259260005	1478911327778	1478911327872	f	70
507643	5462359	Opposition leaders have urged him to call off the visit.	Opposition leaders have urged him to call off the visit.	259260009	1478911328090	1478911328179	 	32
507643	5462359	Opposition leaders have urged him to call off the visit.	Opposition leaders have urged him to call off the visit.	259260016	1478911328454	1478911328570	t	84
507643	5462359	Opposition leaders have urged him to call off the visit.	Opposition leaders have urged him to call off the visit.	259260023	1478911328587	1478911328657	h	72
507643	5462359	Opposition leaders have urged him to call off the visit.	Opposition leaders have urged him to call off the visit.	259260030	1478911328713	1478911328833	e	69
507643	5462359	Opposition leaders have urged him to call off the visit.	Opposition leaders have urged him to call off the visit.	259260055	1478911328854	1478911328924	 	32
507643	5462359	Opposition leaders have urged him to call off the visit.	Opposition leaders have urged him to call off the visit.	259260057	1478911329248	1478911329358	v	86
507643	5462359	Opposition leaders have urged him to call off the visit.	Opposition leaders have urged him to call off the visit.	259260059	1478911329423	1478911329484	i	73
507643	5462359	Opposition leaders have urged him to call off the visit.	Opposition leaders have urged him to call off the visit.	259260061	1478911329549	1478911329697	s	83
507643	5462359	Opposition leaders have urged him to call off the visit.	Opposition leaders have urged him to call off the visit.	259260091	1478911329672	1478911329743	i	73
507643	5462359	Opposition leaders have urged him to call off the visit.	Opposition leaders have urged him to call off the visit.	259260094	1478911329820	1478911329939	t	84
507643	5462359	Opposition leaders have urged him to call off the visit.	Opposition leaders have urged him to call off the visit.	259260097	1478911330454	1478911330541	.	190
507643	5462380	I see some volume reversing in the system.	I see come voluem reversing in the system.	259260276	1478911332633	1478911332890	SHIFT	16
507643	5462380	I see some volume reversing in the system.	I see come voluem reversing in the system.	259260272	1478911332802	1478911332858	O	79
507643	5462380	I see some volume reversing in the system.	I see come voluem reversing in the system.	259260282	1478911333399	1478911333473	BKSP	8
507643	5462380	I see some volume reversing in the system.	I see come voluem reversing in the system.	259260289	1478911333608	1478911333906	SHIFT	16
507643	5462380	I see some volume reversing in the system.	I see come voluem reversing in the system.	259260285	1478911333800	1478911333868	I	73
507643	5462380	I see some volume reversing in the system.	I see come voluem reversing in the system.	259260292	1478911334120	1478911334194	 	32
507643	5462380	I see some volume reversing in the system.	I see come voluem reversing in the system.	259260293	1478911334345	1478911334477	s	83
507643	5462380	I see some volume reversing in the system.	I see come voluem reversing in the system.	259260296	1478911334631	1478911334715	e	69
507643	5462380	I see some volume reversing in the system.	I see come voluem reversing in the system.	259260340	1478911334776	1478911334896	e	69
507643	5462380	I see some volume reversing in the system.	I see come voluem reversing in the system.	259260343	1478911335033	1478911335148	 	32
507643	5462380	I see some volume reversing in the system.	I see come voluem reversing in the system.	259260346	1478911335695	1478911335799	c	67
507643	5462380	I see some volume reversing in the system.	I see come voluem reversing in the system.	259260349	1478911335821	1478911335891	o	79
507643	5462380	I see some volume reversing in the system.	I see come voluem reversing in the system.	259260352	1478911336031	1478911336100	m	77
507643	5462380	I see some volume reversing in the system.	I see come voluem reversing in the system.	259260408	1478911336156	1478911336298	e	69
507643	5462380	I see some volume reversing in the system.	I see come voluem reversing in the system.	259260410	1478911336301	1478911336376	 	32
507643	5462380	I see some volume reversing in the system.	I see come voluem reversing in the system.	259260416	1478911336993	1478911337112	v	86
507643	5462380	I see some volume reversing in the system.	I see come voluem reversing in the system.	259260423	1478911337175	1478911337236	o	79
507643	5462380	I see some volume reversing in the system.	I see come voluem reversing in the system.	259260430	1478911337393	1478911337425	u	85
507643	5462380	I see some volume reversing in the system.	I see come voluem reversing in the system.	259260542	1478911338123	1478911338189	BKSP	8
507643	5462380	I see some volume reversing in the system.	I see come voluem reversing in the system.	259260547	1478911338679	1478911338744	l	76
507643	5462380	I see some volume reversing in the system.	I see come voluem reversing in the system.	259260551	1478911338900	1478911338965	u	85
507643	5462380	I see some volume reversing in the system.	I see come voluem reversing in the system.	259260555	1478911339200	1478911339321	e	69
507643	5462380	I see some volume reversing in the system.	I see come voluem reversing in the system.	259260557	1478911339316	1478911339386	m	77
507643	5462380	I see some volume reversing in the system.	I see come voluem reversing in the system.	259260559	1478911339766	1478911339826	 	32
507643	5462380	I see some volume reversing in the system.	I see come voluem reversing in the system.	259260579	1478911340246	1478911340361	r	82
507643	5462380	I see some volume reversing in the system.	I see come voluem reversing in the system.	259260580	1478911340438	1478911340517	e	69
507643	5462380	I see some volume reversing in the system.	I see come voluem reversing in the system.	259260582	1478911340667	1478911340775	v	86
507643	5462380	I see some volume reversing in the system.	I see come voluem reversing in the system.	259260586	1478911340875	1478911341016	e	69
507643	5462380	I see some volume reversing in the system.	I see come voluem reversing in the system.	259260691	1478911341011	1478911341126	r	82
507643	5462380	I see some volume reversing in the system.	I see come voluem reversing in the system.	259260694	1478911341747	1478911341926	s	83
507643	5462380	I see some volume reversing in the system.	I see come voluem reversing in the system.	259260698	1478911342069	1478911342141	i	73
507643	5462380	I see some volume reversing in the system.	I see come voluem reversing in the system.	259260701	1478911342915	1478911342986	n	78
507643	5462380	I see some volume reversing in the system.	I see come voluem reversing in the system.	259260704	1478911342989	1478911343130	g	71
507643	5462380	I see some volume reversing in the system.	I see come voluem reversing in the system.	259260707	1478911343299	1478911343378	 	32
507643	5462380	I see some volume reversing in the system.	I see come voluem reversing in the system.	259260770	1478911343863	1478911343938	i	73
507643	5462380	I see some volume reversing in the system.	I see come voluem reversing in the system.	259260773	1478911344061	1478911344142	n	78
507643	5462380	I see some volume reversing in the system.	I see come voluem reversing in the system.	259260776	1478911344265	1478911344358	 	32
507643	5462380	I see some volume reversing in the system.	I see come voluem reversing in the system.	259260780	1478911344683	1478911344839	t	84
507643	5462380	I see some volume reversing in the system.	I see come voluem reversing in the system.	259260819	1478911344791	1478911344857	h	72
507643	5462380	I see some volume reversing in the system.	I see come voluem reversing in the system.	259260822	1478911344980	1478911345106	e	69
507643	5462380	I see some volume reversing in the system.	I see come voluem reversing in the system.	259260825	1478911345073	1478911345161	 	32
507643	5462380	I see some volume reversing in the system.	I see come voluem reversing in the system.	259260828	1478911345421	1478911345583	s	83
507643	5462380	I see some volume reversing in the system.	I see come voluem reversing in the system.	259260832	1478911345604	1478911345669	y	89
507643	5462380	I see some volume reversing in the system.	I see come voluem reversing in the system.	259260837	1478911345883	1478911346026	s	83
507643	5462380	I see some volume reversing in the system.	I see come voluem reversing in the system.	259260879	1478911346102	1478911346217	t	84
507643	5462380	I see some volume reversing in the system.	I see come voluem reversing in the system.	259260883	1478911346316	1478911346454	e	69
507643	5462380	I see some volume reversing in the system.	I see come voluem reversing in the system.	259260885	1478911346427	1478911346519	m	77
507643	5462380	I see some volume reversing in the system.	I see come voluem reversing in the system.	259260888	1478911347023	1478911347111	.	190
507643	5462395	It is not surprising.	It is not surprising.	259261044	1478911349206	1478911349504	SHIFT	16
507643	5462395	It is not surprising.	It is not surprising.	259261041	1478911349402	1478911349476	I	73
507643	5462395	It is not surprising.	It is not surprising.	259261047	1478911349661	1478911349800	t	84
507643	5462395	It is not surprising.	It is not surprising.	259261051	1478911350028	1478911350111	 	32
507643	5462395	It is not surprising.	It is not surprising.	259261055	1478911350310	1478911350389	i	73
507643	5462395	It is not surprising.	It is not surprising.	259261060	1478911350406	1478911350572	s	83
507643	5462395	It is not surprising.	It is not surprising.	259261106	1478911350578	1478911350658	 	32
507643	5462395	It is not surprising.	It is not surprising.	259261108	1478911350961	1478911351026	n	78
507643	5462395	It is not surprising.	It is not surprising.	259261112	1478911351155	1478911351240	o	79
507643	5462395	It is not surprising.	It is not surprising.	259261115	1478911351294	1478911351419	t	84
507643	5462395	It is not surprising.	It is not surprising.	259261118	1478911351869	1478911352048	s	83
507643	5462395	It is not surprising.	It is not surprising.	259261169	1478911352074	1478911352134	u	85
507643	5462395	It is not surprising.	It is not surprising.	259261171	1478911352295	1478911352434	r	82
507643	5462395	It is not surprising.	It is not surprising.	259261173	1478911353046	1478911353112	p	80
507643	5462395	It is not surprising.	It is not surprising.	259261177	1478911353239	1478911353346	r	82
507643	5462395	It is not surprising.	It is not surprising.	259261180	1478911353399	1478911353468	i	73
507643	5462395	It is not surprising.	It is not surprising.	259261236	1478911353716	1478911353881	s	83
507643	5462395	It is not surprising.	It is not surprising.	259261238	1478911353876	1478911353946	i	73
507643	5462395	It is not surprising.	It is not surprising.	259261242	1478911354421	1478911354481	n	78
507643	5462395	It is not surprising.	It is not surprising.	259261245	1478911354612	1478911354768	g	71
507643	5462395	It is not surprising.	It is not surprising.	259261248	1478911355654	1478911355727	.	190
507643	5462403	I guess the next time I'll see you is for Superbowl.	I guess the next time I'll see you is for Superbowl.	259261395	1478911358525	1478911358809	SHIFT	16
507643	5462403	I guess the next time I'll see you is for Superbowl.	I guess the next time I'll see you is for Superbowl.	259261392	1478911358689	1478911358764	I	73
507643	5462403	I guess the next time I'll see you is for Superbowl.	I guess the next time I'll see you is for Superbowl.	259261401	1478911359269	1478911359399	g	71
507643	5462403	I guess the next time I'll see you is for Superbowl.	I guess the next time I'll see you is for Superbowl.	259261404	1478911359444	1478911359506	u	85
507643	5462403	I guess the next time I'll see you is for Superbowl.	I guess the next time I'll see you is for Superbowl.	259261407	1478911359717	1478911359820	e	69
507643	5462403	I guess the next time I'll see you is for Superbowl.	I guess the next time I'll see you is for Superbowl.	259261409	1478911360028	1478911360112	s	83
507643	5462403	I guess the next time I'll see you is for Superbowl.	I guess the next time I'll see you is for Superbowl.	259261423	1478911360221	1478911360347	s	83
507643	5462403	I guess the next time I'll see you is for Superbowl.	I guess the next time I'll see you is for Superbowl.	259261425	1478911360391	1478911360462	 	32
507643	5462403	I guess the next time I'll see you is for Superbowl.	I guess the next time I'll see you is for Superbowl.	259261427	1478911360629	1478911360745	t	84
507643	5462403	I guess the next time I'll see you is for Superbowl.	I guess the next time I'll see you is for Superbowl.	259261434	1478911360739	1478911360814	h	72
507643	5462403	I guess the next time I'll see you is for Superbowl.	I guess the next time I'll see you is for Superbowl.	259261440	1478911360884	1478911361032	e	69
507643	5462403	I guess the next time I'll see you is for Superbowl.	I guess the next time I'll see you is for Superbowl.	259261491	1478911361017	1478911361100	 	32
507643	5462403	I guess the next time I'll see you is for Superbowl.	I guess the next time I'll see you is for Superbowl.	259261494	1478911361335	1478911361399	n	78
507643	5462403	I guess the next time I'll see you is for Superbowl.	I guess the next time I'll see you is for Superbowl.	259261497	1478911361492	1478911361584	e	69
507643	5462403	I guess the next time I'll see you is for Superbowl.	I guess the next time I'll see you is for Superbowl.	259261499	1478911361870	1478911362013	x	88
507643	5462403	I guess the next time I'll see you is for Superbowl.	I guess the next time I'll see you is for Superbowl.	259261500	1478911362152	1478911362295	t	84
507643	5462403	I guess the next time I'll see you is for Superbowl.	I guess the next time I'll see you is for Superbowl.	259261502	1478911362345	1478911362415	 	32
507643	5462403	I guess the next time I'll see you is for Superbowl.	I guess the next time I'll see you is for Superbowl.	259261628	1478911363120	1478911363254	t	84
507643	5462403	I guess the next time I'll see you is for Superbowl.	I guess the next time I'll see you is for Superbowl.	259261631	1478911363599	1478911363664	m	77
507643	5462403	I guess the next time I'll see you is for Superbowl.	I guess the next time I'll see you is for Superbowl.	259261633	1478911363718	1478911363834	e	69
507643	5462403	I guess the next time I'll see you is for Superbowl.	I guess the next time I'll see you is for Superbowl.	259261635	1478911364305	1478911364933	SHIFT	16
507643	5462403	I guess the next time I'll see you is for Superbowl.	I guess the next time I'll see you is for Superbowl.	259261637	1478911365160	1478911365271	 	32
507643	5462403	I guess the next time I'll see you is for Superbowl.	I guess the next time I'll see you is for Superbowl.	259261639	1478911365631	1478911365684	BKSP	8
507643	5462403	I guess the next time I'll see you is for Superbowl.	I guess the next time I'll see you is for Superbowl.	259261641	1478911365803	1478911365860	BKSP	8
507643	5462403	I guess the next time I'll see you is for Superbowl.	I guess the next time I'll see you is for Superbowl.	259261643	1478911365953	1478911366022	BKSP	8
507643	5462403	I guess the next time I'll see you is for Superbowl.	I guess the next time I'll see you is for Superbowl.	259261645	1478911366613	1478911366682	i	73
507643	5462403	I guess the next time I'll see you is for Superbowl.	I guess the next time I'll see you is for Superbowl.	259261680	1478911366855	1478911366929	m	77
507643	5462403	I guess the next time I'll see you is for Superbowl.	I guess the next time I'll see you is for Superbowl.	259261682	1478911366959	1478911367066	e	69
507643	5462403	I guess the next time I'll see you is for Superbowl.	I guess the next time I'll see you is for Superbowl.	259261686	1478911367118	1478911367193	 	32
507643	5462403	I guess the next time I'll see you is for Superbowl.	I guess the next time I'll see you is for Superbowl.	259261693	1478911367387	1478911367708	SHIFT	16
507643	5462403	I guess the next time I'll see you is for Superbowl.	I guess the next time I'll see you is for Superbowl.	259261691	1478911367614	1478911367681	I	73
507643	5462403	I guess the next time I'll see you is for Superbowl.	I guess the next time I'll see you is for Superbowl.	259261695	1478911368233	1478911368316	;	186
507643	5462403	I guess the next time I'll see you is for Superbowl.	I guess the next time I'll see you is for Superbowl.	259261848	1478911368590	1478911368638	l	76
507643	5462403	I guess the next time I'll see you is for Superbowl.	I guess the next time I'll see you is for Superbowl.	259261851	1478911368734	1478911368818	l	76
507643	5462403	I guess the next time I'll see you is for Superbowl.	I guess the next time I'll see you is for Superbowl.	259261853	1478911369377	1478911369442	BKSP	8
507643	5462403	I guess the next time I'll see you is for Superbowl.	I guess the next time I'll see you is for Superbowl.	259261857	1478911369541	1478911369611	BKSP	8
507643	5462403	I guess the next time I'll see you is for Superbowl.	I guess the next time I'll see you is for Superbowl.	259261860	1478911369680	1478911369759	BKSP	8
507643	5462403	I guess the next time I'll see you is for Superbowl.	I guess the next time I'll see you is for Superbowl.	259261864	1478911371085	1478911371163	'	222
507643	5462403	I guess the next time I'll see you is for Superbowl.	I guess the next time I'll see you is for Superbowl.	259261869	1478911372208	1478911372260	l	76
507643	5462403	I guess the next time I'll see you is for Superbowl.	I guess the next time I'll see you is for Superbowl.	259261872	1478911372342	1478911372412	l	76
507643	5462403	I guess the next time I'll see you is for Superbowl.	I guess the next time I'll see you is for Superbowl.	259261889	1478911372551	1478911372624	 	32
507643	5462403	I guess the next time I'll see you is for Superbowl.	I guess the next time I'll see you is for Superbowl.	259261891	1478911372716	1478911372827	s	83
507643	5462403	I guess the next time I'll see you is for Superbowl.	I guess the next time I'll see you is for Superbowl.	259261893	1478911372956	1478911373053	e	69
507643	5462403	I guess the next time I'll see you is for Superbowl.	I guess the next time I'll see you is for Superbowl.	259261897	1478911373112	1478911373227	e	69
507643	5462403	I guess the next time I'll see you is for Superbowl.	I guess the next time I'll see you is for Superbowl.	259261900	1478911373292	1478911373358	 	32
507643	5462403	I guess the next time I'll see you is for Superbowl.	I guess the next time I'll see you is for Superbowl.	259261940	1478911373970	1478911374025	y	89
507643	5462403	I guess the next time I'll see you is for Superbowl.	I guess the next time I'll see you is for Superbowl.	259261941	1478911374238	1478911374340	o	79
507643	5462403	I guess the next time I'll see you is for Superbowl.	I guess the next time I'll see you is for Superbowl.	259261942	1478911374450	1478911374528	u	85
507643	5462403	I guess the next time I'll see you is for Superbowl.	I guess the next time I'll see you is for Superbowl.	259261943	1478911374733	1478911374820	 	32
507643	5462403	I guess the next time I'll see you is for Superbowl.	I guess the next time I'll see you is for Superbowl.	259261944	1478911375087	1478911375163	i	73
507643	5462403	I guess the next time I'll see you is for Superbowl.	I guess the next time I'll see you is for Superbowl.	259261990	1478911375204	1478911375379	s	83
507643	5462403	I guess the next time I'll see you is for Superbowl.	I guess the next time I'll see you is for Superbowl.	259261992	1478911375331	1478911375435	 	32
507643	5462403	I guess the next time I'll see you is for Superbowl.	I guess the next time I'll see you is for Superbowl.	259261999	1478911375977	1478911376102	f	70
507643	5462403	I guess the next time I'll see you is for Superbowl.	I guess the next time I'll see you is for Superbowl.	259262003	1478911376106	1478911376180	o	79
507643	5462403	I guess the next time I'll see you is for Superbowl.	I guess the next time I'll see you is for Superbowl.	259262007	1478911376237	1478911376354	r	82
507643	5462403	I guess the next time I'll see you is for Superbowl.	I guess the next time I'll see you is for Superbowl.	259262069	1478911376396	1478911376493	 	32
507643	5462403	I guess the next time I'll see you is for Superbowl.	I guess the next time I'll see you is for Superbowl.	259262072	1478911377002	1478911377273	SHIFT	16
507643	5462403	I guess the next time I'll see you is for Superbowl.	I guess the next time I'll see you is for Superbowl.	259262074	1478911377162	1478911377313	S	83
507643	5462403	I guess the next time I'll see you is for Superbowl.	I guess the next time I'll see you is for Superbowl.	259262076	1478911377473	1478911377543	u	85
507643	5462403	I guess the next time I'll see you is for Superbowl.	I guess the next time I'll see you is for Superbowl.	259262078	1478911377727	1478911377819	p	80
507643	5462403	I guess the next time I'll see you is for Superbowl.	I guess the next time I'll see you is for Superbowl.	259262079	1478911377930	1478911378064	e	69
507643	5462403	I guess the next time I'll see you is for Superbowl.	I guess the next time I'll see you is for Superbowl.	259262121	1478911378077	1478911378237	r	82
507643	5462403	I guess the next time I'll see you is for Superbowl.	I guess the next time I'll see you is for Superbowl.	259262123	1478911378839	1478911378945	b	66
507643	5462403	I guess the next time I'll see you is for Superbowl.	I guess the next time I'll see you is for Superbowl.	259262126	1478911379046	1478911379101	o	79
507643	5462403	I guess the next time I'll see you is for Superbowl.	I guess the next time I'll see you is for Superbowl.	259262128	1478911379370	1478911379472	w	87
507643	5462403	I guess the next time I'll see you is for Superbowl.	I guess the next time I'll see you is for Superbowl.	259262130	1478911379494	1478911379554	l	76
507643	5462403	I guess the next time I'll see you is for Superbowl.	I guess the next time I'll see you is for Superbowl.	259262169	1478911380327	1478911380415	.	190
507643	5462419	But they played down the prospect of a repeat performance.	But they payed down the prospect of a repeat performance.	259262286	1478911382817	1478911383052	SHIFT	16
507643	5462419	But they played down the prospect of a repeat performance.	But they payed down the prospect of a repeat performance.	259262289	1478911382949	1478911383073	B	66
507643	5462419	But they played down the prospect of a repeat performance.	But they payed down the prospect of a repeat performance.	259262292	1478911383330	1478911383416	u	85
507643	5462419	But they played down the prospect of a repeat performance.	But they payed down the prospect of a repeat performance.	259262294	1478911384016	1478911384131	t	84
507643	5462419	But they played down the prospect of a repeat performance.	But they payed down the prospect of a repeat performance.	259262296	1478911384135	1478911384214	 	32
507643	5462419	But they played down the prospect of a repeat performance.	But they payed down the prospect of a repeat performance.	259262298	1478911384347	1478911384464	t	84
507643	5462419	But they played down the prospect of a repeat performance.	But they payed down the prospect of a repeat performance.	259262333	1478911384451	1478911384545	h	72
507643	5462419	But they played down the prospect of a repeat performance.	But they payed down the prospect of a repeat performance.	259262335	1478911384709	1478911384862	e	69
507643	5462419	But they played down the prospect of a repeat performance.	But they payed down the prospect of a repeat performance.	259262336	1478911384845	1478911384929	y	89
507643	5462419	But they played down the prospect of a repeat performance.	But they payed down the prospect of a repeat performance.	259262337	1478911385121	1478911385195	 	32
507643	5462419	But they played down the prospect of a repeat performance.	But they payed down the prospect of a repeat performance.	259262338	1478911385495	1478911385566	p	80
507643	5462419	But they played down the prospect of a repeat performance.	But they payed down the prospect of a repeat performance.	259262339	1478911385714	1478911385858	a	65
507643	5462419	But they played down the prospect of a repeat performance.	But they payed down the prospect of a repeat performance.	259262394	1478911386549	1478911386635	y	89
507643	5462419	But they played down the prospect of a repeat performance.	But they payed down the prospect of a repeat performance.	259262396	1478911386749	1478911386850	e	69
507643	5462419	But they played down the prospect of a repeat performance.	But they payed down the prospect of a repeat performance.	259262398	1478911387010	1478911387144	d	68
507643	5462419	But they played down the prospect of a repeat performance.	But they payed down the prospect of a repeat performance.	259262401	1478911387148	1478911387240	 	32
507643	5462419	But they played down the prospect of a repeat performance.	But they payed down the prospect of a repeat performance.	259262403	1478911388242	1478911388317	d	68
507643	5462419	But they played down the prospect of a repeat performance.	But they payed down the prospect of a repeat performance.	259262469	1478911388381	1478911388436	o	79
507643	5462419	But they played down the prospect of a repeat performance.	But they payed down the prospect of a repeat performance.	259262473	1478911388693	1478911388800	w	87
507643	5462419	But they played down the prospect of a repeat performance.	But they payed down the prospect of a repeat performance.	259262479	1478911389333	1478911389393	n	78
507643	5462419	But they played down the prospect of a repeat performance.	But they payed down the prospect of a repeat performance.	259262482	1478911389580	1478911389642	 	32
507643	5462419	But they played down the prospect of a repeat performance.	But they payed down the prospect of a repeat performance.	259262489	1478911390220	1478911390345	t	84
507643	5462419	But they played down the prospect of a repeat performance.	But they payed down the prospect of a repeat performance.	259262538	1478911390317	1478911390386	h	72
507643	5462419	But they played down the prospect of a repeat performance.	But they payed down the prospect of a repeat performance.	259262542	1478911390478	1478911390612	e	69
507643	5462419	But they played down the prospect of a repeat performance.	But they payed down the prospect of a repeat performance.	259262546	1478911390576	1478911390658	 	32
507643	5462419	But they played down the prospect of a repeat performance.	But they payed down the prospect of a repeat performance.	259262549	1478911391339	1478911391398	p	80
507643	5462419	But they played down the prospect of a repeat performance.	But they payed down the prospect of a repeat performance.	259262550	1478911391484	1478911391608	r	82
507643	5462419	But they played down the prospect of a repeat performance.	But they payed down the prospect of a repeat performance.	259262551	1478911391807	1478911391863	o	79
507643	5462419	But they played down the prospect of a repeat performance.	But they payed down the prospect of a repeat performance.	259262588	1478911391975	1478911392104	s	83
507643	5462419	But they played down the prospect of a repeat performance.	But they payed down the prospect of a repeat performance.	259262591	1478911392260	1478911392330	p	80
507643	5462419	But they played down the prospect of a repeat performance.	But they payed down the prospect of a repeat performance.	259262595	1478911392396	1478911392502	e	69
507643	5462419	But they played down the prospect of a repeat performance.	But they payed down the prospect of a repeat performance.	259262601	1478911392961	1478911393113	c	67
507643	5462419	But they played down the prospect of a repeat performance.	But they payed down the prospect of a repeat performance.	259262605	1478911393231	1478911393356	t	84
507643	5462419	But they played down the prospect of a repeat performance.	But they payed down the prospect of a repeat performance.	259262645	1478911393391	1478911393467	 	32
507643	5462419	But they played down the prospect of a repeat performance.	But they payed down the prospect of a repeat performance.	259262648	1478911393877	1478911393947	o	79
507643	5462419	But they played down the prospect of a repeat performance.	But they payed down the prospect of a repeat performance.	259262650	1478911394014	1478911394163	f	70
507643	5462419	But they played down the prospect of a repeat performance.	But they payed down the prospect of a repeat performance.	259262651	1478911394155	1478911394244	 	32
507643	5462419	But they played down the prospect of a repeat performance.	But they payed down the prospect of a repeat performance.	259262652	1478911394916	1478911395096	a	65
507643	5462419	But they played down the prospect of a repeat performance.	But they payed down the prospect of a repeat performance.	259262680	1478911395102	1478911395183	 	32
507643	5462419	But they played down the prospect of a repeat performance.	But they payed down the prospect of a repeat performance.	259262682	1478911395390	1478911395525	r	82
507643	5462419	But they played down the prospect of a repeat performance.	But they payed down the prospect of a repeat performance.	259262686	1478911395583	1478911395694	e	69
507643	5462419	But they played down the prospect of a repeat performance.	But they payed down the prospect of a repeat performance.	259262689	1478911395880	1478911395981	p	80
507643	5462419	But they played down the prospect of a repeat performance.	But they payed down the prospect of a repeat performance.	259262692	1478911396105	1478911396313	e	69
507643	5462419	But they played down the prospect of a repeat performance.	But they payed down the prospect of a repeat performance.	259262751	1478911397160	1478911397344	a	65
507643	5462419	But they played down the prospect of a repeat performance.	But they payed down the prospect of a repeat performance.	259262753	1478911397441	1478911397589	t	84
507643	5462419	But they played down the prospect of a repeat performance.	But they payed down the prospect of a repeat performance.	259262755	1478911397639	1478911397718	 	32
507643	5462419	But they played down the prospect of a repeat performance.	But they payed down the prospect of a repeat performance.	259262757	1478911398582	1478911398652	p	80
507643	5462419	But they played down the prospect of a repeat performance.	But they payed down the prospect of a repeat performance.	259262759	1478911398710	1478911398862	e	69
507643	5462419	But they played down the prospect of a repeat performance.	But they payed down the prospect of a repeat performance.	259262815	1478911398843	1478911398972	r	82
507643	5462419	But they played down the prospect of a repeat performance.	But they payed down the prospect of a repeat performance.	259262818	1478911399188	1478911399316	f	70
507643	5462419	But they played down the prospect of a repeat performance.	But they payed down the prospect of a repeat performance.	259262821	1478911399333	1478911399417	o	79
507643	5462419	But they played down the prospect of a repeat performance.	But they payed down the prospect of a repeat performance.	259262825	1478911399521	1478911399656	r	82
507643	5462419	But they played down the prospect of a repeat performance.	But they payed down the prospect of a repeat performance.	259262827	1478911399813	1478911399883	m	77
507643	5462419	But they played down the prospect of a repeat performance.	But they payed down the prospect of a repeat performance.	259262830	1478911400395	1478911400548	a	65
507643	5462419	But they played down the prospect of a repeat performance.	But they payed down the prospect of a repeat performance.	259262905	1478911400537	1478911400602	n	78
507643	5462419	But they played down the prospect of a repeat performance.	But they payed down the prospect of a repeat performance.	259262907	1478911400828	1478911400938	c	67
507643	5462419	But they played down the prospect of a repeat performance.	But they payed down the prospect of a repeat performance.	259262911	1478911401081	1478911401237	e	69
507643	5462419	But they played down the prospect of a repeat performance.	But they payed down the prospect of a repeat performance.	259262915	1478911401737	1478911401822	.	190
507643	5462436	Hope that all is well in Denver.	Hope that all is well in Denver.	259262980	1478911404892	1478911405130	SHIFT	16
507643	5462436	Hope that all is well in Denver.	Hope that all is well in Denver.	259262978	1478911405055	1478911405125	H	72
507643	5462436	Hope that all is well in Denver.	Hope that all is well in Denver.	259262982	1478911405297	1478911405362	o	79
507643	5462436	Hope that all is well in Denver.	Hope that all is well in Denver.	259262984	1478911405532	1478911405617	p	80
507643	5462436	Hope that all is well in Denver.	Hope that all is well in Denver.	259262986	1478911405696	1478911405846	e	69
507643	5462436	Hope that all is well in Denver.	Hope that all is well in Denver.	259262987	1478911405865	1478911405951	 	32
507643	5462436	Hope that all is well in Denver.	Hope that all is well in Denver.	259263087	1478911406469	1478911406589	t	84
507643	5462436	Hope that all is well in Denver.	Hope that all is well in Denver.	259263090	1478911406565	1478911406635	h	72
507643	5462436	Hope that all is well in Denver.	Hope that all is well in Denver.	259263093	1478911406789	1478911406829	A	20
507643	5462436	Hope that all is well in Denver.	Hope that all is well in Denver.	259263096	1478911407652	1478911407717	BKSP	8
507643	5462436	Hope that all is well in Denver.	Hope that all is well in Denver.	259263098	1478911407997	1478911408098	CAPS_LOCK	20
507643	5462436	Hope that all is well in Denver.	Hope that all is well in Denver.	259263101	1478911408469	1478911408680	a	65
507643	5462436	Hope that all is well in Denver.	Hope that all is well in Denver.	259263104	1478911408762	1478911408879	t	84
507643	5462436	Hope that all is well in Denver.	Hope that all is well in Denver.	259263173	1478911409271	1478911409358	 	32
507643	5462436	Hope that all is well in Denver.	Hope that all is well in Denver.	259263176	1478911410632	1478911410785	a	65
507643	5462436	Hope that all is well in Denver.	Hope that all is well in Denver.	259263179	1478911410835	1478911410896	l	76
507643	5462436	Hope that all is well in Denver.	Hope that all is well in Denver.	259263184	1478911410980	1478911411068	l	76
507643	5462436	Hope that all is well in Denver.	Hope that all is well in Denver.	259263189	1478911411204	1478911411288	 	32
507643	5462436	Hope that all is well in Denver.	Hope that all is well in Denver.	259263283	1478911411445	1478911411528	i	73
507643	5462436	Hope that all is well in Denver.	Hope that all is well in Denver.	259263288	1478911411566	1478911411740	s	83
507643	5462436	Hope that all is well in Denver.	Hope that all is well in Denver.	259263292	1478911411722	1478911411815	 	32
507643	5462436	Hope that all is well in Denver.	Hope that all is well in Denver.	259263295	1478911412418	1478911412521	e	69
507643	5462436	Hope that all is well in Denver.	Hope that all is well in Denver.	259263296	1478911413091	1478911413174	BKSP	8
507643	5462436	Hope that all is well in Denver.	Hope that all is well in Denver.	259263298	1478911413294	1478911413387	w	87
507643	5462436	Hope that all is well in Denver.	Hope that all is well in Denver.	259263323	1478911413515	1478911413644	e	69
507643	5462436	Hope that all is well in Denver.	Hope that all is well in Denver.	259263324	1478911413718	1478911413775	l	76
507643	5462436	Hope that all is well in Denver.	Hope that all is well in Denver.	259263326	1478911413863	1478911413942	l	76
507643	5462436	Hope that all is well in Denver.	Hope that all is well in Denver.	259263328	1478911414086	1478911414170	 	32
507643	5462436	Hope that all is well in Denver.	Hope that all is well in Denver.	259263330	1478911414378	1478911414462	i	73
507643	5462436	Hope that all is well in Denver.	Hope that all is well in Denver.	259263363	1478911414586	1478911414657	n	78
507643	5462436	Hope that all is well in Denver.	Hope that all is well in Denver.	259263365	1478911414783	1478911414872	 	32
507643	5462436	Hope that all is well in Denver.	Hope that all is well in Denver.	259263371	1478911415170	1478911415432	SHIFT	16
507643	5462436	Hope that all is well in Denver.	Hope that all is well in Denver.	259263375	1478911415362	1478911415450	D	68
507643	5462436	Hope that all is well in Denver.	Hope that all is well in Denver.	259263383	1478911415623	1478911415742	e	69
507643	5462436	Hope that all is well in Denver.	Hope that all is well in Denver.	259263386	1478911415774	1478911415839	n	78
507643	5462436	Hope that all is well in Denver.	Hope that all is well in Denver.	259263458	1478911415994	1478911416110	v	86
507643	5462436	Hope that all is well in Denver.	Hope that all is well in Denver.	259263461	1478911416221	1478911416370	e	69
507643	5462436	Hope that all is well in Denver.	Hope that all is well in Denver.	259263468	1478911416364	1478911416493	r	82
507643	5462436	Hope that all is well in Denver.	Hope that all is well in Denver.	259263473	1478911417190	1478911417265	.	190
