PARTICIPANT_ID	TEST_SECTION_ID	SENTENCE	USER_INPUT	KEYSTROKE_ID	PRESS_TIME	RELEASE_TIME	LETTER	KEYCODE
510068	5490971	His current status is day to day.	His current statues is day to day.	260625395	1478961750148	1478961750498	SHIFT	16
510068	5490971	His current status is day to day.	His current statues is day to day.	260625397	1478961750434	1478961750514	H	72
510068	5490971	His current status is day to day.	His current statues is day to day.	260625398	1478961750610	1478961750706	i	73
510068	5490971	His current status is day to day.	His current statues is day to day.	260625400	1478961750738	1478961750818	s	83
510068	5490971	His current status is day to day.	His current statues is day to day.	260625403	1478961751186	1478961751282	 	32
510068	5490971	His current status is day to day.	His current statues is day to day.	260625406	1478961751474	1478961751570	c	67
510068	5490971	His current status is day to day.	His current statues is day to day.	260625414	1478961751618	1478961751682	u	85
510068	5490971	His current status is day to day.	His current statues is day to day.	260625416	1478961751714	1478961751794	r	82
510068	5490971	His current status is day to day.	His current statues is day to day.	260625418	1478961751858	1478961751922	r	82
510068	5490971	His current status is day to day.	His current statues is day to day.	260625421	1478961751922	1478961751970	e	69
510068	5490971	His current status is day to day.	His current statues is day to day.	260625424	1478961752050	1478961752130	n	78
510068	5490971	His current status is day to day.	His current statues is day to day.	260625452	1478961752131	1478961752210	t	84
510068	5490971	His current status is day to day.	His current statues is day to day.	260625455	1478961752242	1478961752322	 	32
510068	5490971	His current status is day to day.	His current statues is day to day.	260625458	1478961752754	1478961752818	s	83
510068	5490971	His current status is day to day.	His current statues is day to day.	260625462	1478961752898	1478961753010	t	84
510068	5490971	His current status is day to day.	His current statues is day to day.	260625467	1478961753025	1478961753122	a	65
510068	5490971	His current status is day to day.	His current statues is day to day.	260625487	1478961753186	1478961753298	t	84
510068	5490971	His current status is day to day.	His current statues is day to day.	260625489	1478961753474	1478961753554	u	85
510068	5490971	His current status is day to day.	His current statues is day to day.	260625491	1478961753602	1478961753729	e	69
510068	5490971	His current status is day to day.	His current statues is day to day.	260625495	1478961753698	1478961753777	s	83
510068	5490971	His current status is day to day.	His current statues is day to day.	260625499	1478961753841	1478961753938	 	32
510068	5490971	His current status is day to day.	His current statues is day to day.	260625521	1478961753986	1478961754050	i	73
510068	5490971	His current status is day to day.	His current statues is day to day.	260625522	1478961754081	1478961754162	s	83
510068	5490971	His current status is day to day.	His current statues is day to day.	260625523	1478961754370	1478961754434	 	32
510068	5490971	His current status is day to day.	His current statues is day to day.	260625524	1478961754642	1478961754753	d	68
510068	5490971	His current status is day to day.	His current statues is day to day.	260625546	1478961754722	1478961754834	a	65
510068	5490971	His current status is day to day.	His current statues is day to day.	260625547	1478961755057	1478961755122	y	89
510068	5490971	His current status is day to day.	His current statues is day to day.	260625548	1478961755153	1478961755233	 	32
510068	5490971	His current status is day to day.	His current statues is day to day.	260625549	1478961755313	1478961755393	 	32
510068	5490971	His current status is day to day.	His current statues is day to day.	260625550	1478961755473	1478961755537	t	84
510068	5490971	His current status is day to day.	His current statues is day to day.	260625552	1478961755557	1478961755649	o	79
510068	5490971	His current status is day to day.	His current statues is day to day.	260625602	1478961755601	1478961755713	 	32
510068	5490971	His current status is day to day.	His current statues is day to day.	260625604	1478961756065	1478961756129	BKSP	8
510068	5490971	His current status is day to day.	His current statues is day to day.	260625606	1478961756225	1478961756289	BKSP	8
510068	5490971	His current status is day to day.	His current statues is day to day.	260625608	1478961756369	1478961756433	BKSP	8
510068	5490971	His current status is day to day.	His current statues is day to day.	260625611	1478961756481	1478961756561	BKSP	8
510068	5490971	His current status is day to day.	His current statues is day to day.	260625616	1478961756961	1478961757041	t	84
510068	5490971	His current status is day to day.	His current statues is day to day.	260625619	1478961757089	1478961757185	o	79
510068	5490971	His current status is day to day.	His current statues is day to day.	260625623	1478961757186	1478961757281	 	32
510068	5490971	His current status is day to day.	His current statues is day to day.	260625626	1478961757457	1478961757553	d	68
510068	5490971	His current status is day to day.	His current statues is day to day.	260625629	1478961757873	1478961757937	a	65
510068	5490971	His current status is day to day.	His current statues is day to day.	260625647	1478961758002	1478961758065	y	89
510068	5490971	His current status is day to day.	His current statues is day to day.	260625649	1478961758786	1478961758866	.	190
510068	5490979	The fighting erupted after a private quarrel.	The fighting erupted after a private quarrel.	260625759	1478961761010	1478961761218	SHIFT	16
510068	5490979	The fighting erupted after a private quarrel.	The fighting erupted after a private quarrel.	260625761	1478961761138	1478961761234	T	84
510068	5490979	The fighting erupted after a private quarrel.	The fighting erupted after a private quarrel.	260625764	1478961761282	1478961761346	h	72
510068	5490979	The fighting erupted after a private quarrel.	The fighting erupted after a private quarrel.	260625768	1478961761394	1478961761442	e	69
510068	5490979	The fighting erupted after a private quarrel.	The fighting erupted after a private quarrel.	260625774	1478961761506	1478961761602	 	32
510068	5490979	The fighting erupted after a private quarrel.	The fighting erupted after a private quarrel.	260625780	1478961762274	1478961762354	f	70
510068	5490979	The fighting erupted after a private quarrel.	The fighting erupted after a private quarrel.	260625793	1478961762386	1478961762466	i	73
510068	5490979	The fighting erupted after a private quarrel.	The fighting erupted after a private quarrel.	260625796	1478961762537	1478961762611	g	71
510068	5490979	The fighting erupted after a private quarrel.	The fighting erupted after a private quarrel.	260625798	1478961762681	1478961762694	h	72
510068	5490979	The fighting erupted after a private quarrel.	The fighting erupted after a private quarrel.	260625800	1478961762914	1478961762962	t	84
510068	5490979	The fighting erupted after a private quarrel.	The fighting erupted after a private quarrel.	260625802	1478961763010	1478961763138	i	73
510068	5490979	The fighting erupted after a private quarrel.	The fighting erupted after a private quarrel.	260625834	1478961763106	1478961763186	n	78
510068	5490979	The fighting erupted after a private quarrel.	The fighting erupted after a private quarrel.	260625836	1478961763186	1478961763250	g	71
510068	5490979	The fighting erupted after a private quarrel.	The fighting erupted after a private quarrel.	260625838	1478961763730	1478961763810	 	32
510068	5490979	The fighting erupted after a private quarrel.	The fighting erupted after a private quarrel.	260625840	1478961764226	1478961764306	e	69
510068	5490979	The fighting erupted after a private quarrel.	The fighting erupted after a private quarrel.	260625842	1478961764290	1478961764386	r	82
510068	5490979	The fighting erupted after a private quarrel.	The fighting erupted after a private quarrel.	260625844	1478961764674	1478961764770	u	85
510068	5490979	The fighting erupted after a private quarrel.	The fighting erupted after a private quarrel.	260625874	1478961764738	1478961764818	p	80
510068	5490979	The fighting erupted after a private quarrel.	The fighting erupted after a private quarrel.	260625876	1478961764930	1478961765026	t	84
510068	5490979	The fighting erupted after a private quarrel.	The fighting erupted after a private quarrel.	260625880	1478961765010	1478961765090	e	69
510068	5490979	The fighting erupted after a private quarrel.	The fighting erupted after a private quarrel.	260625882	1478961765186	1478961765266	d	68
510068	5490979	The fighting erupted after a private quarrel.	The fighting erupted after a private quarrel.	260625885	1478961765330	1478961765362	 	32
510068	5490979	The fighting erupted after a private quarrel.	The fighting erupted after a private quarrel.	260625888	1478961765682	1478961765810	a	65
510068	5490979	The fighting erupted after a private quarrel.	The fighting erupted after a private quarrel.	260625907	1478961765842	1478961765938	f	70
510068	5490979	The fighting erupted after a private quarrel.	The fighting erupted after a private quarrel.	260625910	1478961766050	1478961766146	t	84
510068	5490979	The fighting erupted after a private quarrel.	The fighting erupted after a private quarrel.	260625915	1478961766162	1478961766274	e	69
510068	5490979	The fighting erupted after a private quarrel.	The fighting erupted after a private quarrel.	260625917	1478961766242	1478961766354	r	82
510068	5490979	The fighting erupted after a private quarrel.	The fighting erupted after a private quarrel.	260625920	1478961766386	1478961766434	 	32
510068	5490979	The fighting erupted after a private quarrel.	The fighting erupted after a private quarrel.	260625974	1478961766466	1478961766514	a	65
510068	5490979	The fighting erupted after a private quarrel.	The fighting erupted after a private quarrel.	260625975	1478961766578	1478961766674	 	32
510068	5490979	The fighting erupted after a private quarrel.	The fighting erupted after a private quarrel.	260625976	1478961766866	1478961766962	r	82
510068	5490979	The fighting erupted after a private quarrel.	The fighting erupted after a private quarrel.	260625977	1478961766962	1478961767058	p	80
510068	5490979	The fighting erupted after a private quarrel.	The fighting erupted after a private quarrel.	260625978	1478961767474	1478961767538	BKSP	8
510068	5490979	The fighting erupted after a private quarrel.	The fighting erupted after a private quarrel.	260625979	1478961767650	1478961767730	BKSP	8
510068	5490979	The fighting erupted after a private quarrel.	The fighting erupted after a private quarrel.	260625980	1478961768770	1478961768850	p	80
510068	5490979	The fighting erupted after a private quarrel.	The fighting erupted after a private quarrel.	260625983	1478961768882	1478961768946	r	82
510068	5490979	The fighting erupted after a private quarrel.	The fighting erupted after a private quarrel.	260625985	1478961768994	1478961769058	i	73
510068	5490979	The fighting erupted after a private quarrel.	The fighting erupted after a private quarrel.	260625987	1478961769234	1478961769346	v	86
510068	5490979	The fighting erupted after a private quarrel.	The fighting erupted after a private quarrel.	260625989	1478961769330	1478961769441	a	65
510068	5490979	The fighting erupted after a private quarrel.	The fighting erupted after a private quarrel.	260625991	1478961769457	1478961769554	t	84
510068	5490979	The fighting erupted after a private quarrel.	The fighting erupted after a private quarrel.	260626058	1478961769555	1478961769634	e	69
510068	5490979	The fighting erupted after a private quarrel.	The fighting erupted after a private quarrel.	260626060	1478961769698	1478961769762	 	32
510068	5490979	The fighting erupted after a private quarrel.	The fighting erupted after a private quarrel.	260626064	1478961770354	1478961770433	q	81
510068	5490979	The fighting erupted after a private quarrel.	The fighting erupted after a private quarrel.	260626067	1478961770466	1478961770530	u	85
510068	5490979	The fighting erupted after a private quarrel.	The fighting erupted after a private quarrel.	260626069	1478961771809	1478961771905	a	65
510068	5490979	The fighting erupted after a private quarrel.	The fighting erupted after a private quarrel.	260626093	1478961771907	1478961771969	r	82
510068	5490979	The fighting erupted after a private quarrel.	The fighting erupted after a private quarrel.	260626095	1478961772049	1478961772113	r	82
510068	5490979	The fighting erupted after a private quarrel.	The fighting erupted after a private quarrel.	260626098	1478961772257	1478961772337	e	69
510068	5490979	The fighting erupted after a private quarrel.	The fighting erupted after a private quarrel.	260626101	1478961772369	1478961772449	l	76
510068	5490979	The fighting erupted after a private quarrel.	The fighting erupted after a private quarrel.	260626104	1478961773073	1478961773153	.	190
510068	5490989	Make sure they are current.	Make sure they are current.	260626241	1478961775281	1478961775617	SHIFT	16
510068	5490989	Make sure they are current.	Make sure they are current.	260626237	1478961775489	1478961775585	M	77
510068	5490989	Make sure they are current.	Make sure they are current.	260626243	1478961775826	1478961775890	a	65
510068	5490989	Make sure they are current.	Make sure they are current.	260626245	1478961775938	1478961775986	k	75
510068	5490989	Make sure they are current.	Make sure they are current.	260626247	1478961775986	1478961776082	e	69
510068	5490989	Make sure they are current.	Make sure they are current.	260626251	1478961776114	1478961776211	 	32
510068	5490989	Make sure they are current.	Make sure they are current.	260626287	1478961776403	1478961776482	u	85
510068	5490989	Make sure they are current.	Make sure they are current.	260626289	1478961776770	1478961776834	BKSP	8
510068	5490989	Make sure they are current.	Make sure they are current.	260626293	1478961776946	1478961776978	s	83
510068	5490989	Make sure they are current.	Make sure they are current.	260626295	1478961776978	1478961777058	u	85
510068	5490989	Make sure they are current.	Make sure they are current.	260626298	1478961777074	1478961777186	r	82
510068	5490989	Make sure they are current.	Make sure they are current.	260626334	1478961777154	1478961777250	e	69
510068	5490989	Make sure they are current.	Make sure they are current.	260626335	1478961777251	1478961777314	 	32
510068	5490989	Make sure they are current.	Make sure they are current.	260626337	1478961777378	1478961777474	t	84
510068	5490989	Make sure they are current.	Make sure they are current.	260626340	1478961777506	1478961777554	g	71
510068	5490989	Make sure they are current.	Make sure they are current.	260626344	1478961777570	1478961777634	e	69
510068	5490989	Make sure they are current.	Make sure they are current.	260626348	1478961777906	1478961777954	BKSP	8
510068	5490989	Make sure they are current.	Make sure they are current.	260626352	1478961778018	1478961778082	BKSP	8
510068	5490989	Make sure they are current.	Make sure they are current.	260626356	1478961778466	1478961778530	h	72
510068	5490989	Make sure they are current.	Make sure they are current.	260626357	1478961778562	1478961778642	e	69
510068	5490989	Make sure they are current.	Make sure they are current.	260626360	1478961778642	1478961778690	y	89
510068	5490989	Make sure they are current.	Make sure they are current.	260626362	1478961778690	1478961778770	 	32
510068	5490989	Make sure they are current.	Make sure they are current.	260626363	1478961778898	1478961778978	a	65
510068	5490989	Make sure they are current.	Make sure they are current.	260626380	1478961778946	1478961779058	r	82
510068	5490989	Make sure they are current.	Make sure they are current.	260626381	1478961779058	1478961779138	e	69
510068	5490989	Make sure they are current.	Make sure they are current.	260626383	1478961779218	1478961779314	 	32
510068	5490989	Make sure they are current.	Make sure they are current.	260626385	1478961779602	1478961779698	c	67
510068	5490989	Make sure they are current.	Make sure they are current.	260626387	1478961779746	1478961779810	u	85
510068	5490989	Make sure they are current.	Make sure they are current.	260626389	1478961779874	1478961779954	r	82
510068	5490989	Make sure they are current.	Make sure they are current.	260626404	1478961780018	1478961780098	r	82
510068	5490989	Make sure they are current.	Make sure they are current.	260626406	1478961780082	1478961780162	e	69
510068	5490989	Make sure they are current.	Make sure they are current.	260626409	1478961780610	1478961780674	n	78
510068	5490989	Make sure they are current.	Make sure they are current.	260626414	1478961780706	1478961780770	t	84
510068	5490989	Make sure they are current.	Make sure they are current.	260626415	1478961781378	1478961781426	.	190
510068	5490996	That would be great.	That would be great.	260626489	1478961783314	1478961783538	SHIFT	16
510068	5490996	That would be great.	That would be great.	260626491	1478961783458	1478961783538	T	84
510068	5490996	That would be great.	That would be great.	260626492	1478961783506	1478961783570	H	72
510068	5490996	That would be great.	That would be great.	260626493	1478961784242	1478961784306	BKSP	8
510068	5490996	That would be great.	That would be great.	260626494	1478961784450	1478961784514	h	72
510068	5490996	That would be great.	That would be great.	260626495	1478961784529	1478961784642	a	65
510068	5490996	That would be great.	That would be great.	260626505	1478961784594	1478961784706	t	84
510068	5490996	That would be great.	That would be great.	260626508	1478961784737	1478961784802	 	32
510068	5490996	That would be great.	That would be great.	260626511	1478961784930	1478961785026	w	87
510068	5490996	That would be great.	That would be great.	260626513	1478961785026	1478961785122	o	79
510068	5490996	That would be great.	That would be great.	260626517	1478961785074	1478961785153	u	85
510068	5490996	That would be great.	That would be great.	260626522	1478961785234	1478961785281	l	76
510068	5490996	That would be great.	That would be great.	260626537	1478961785330	1478961785426	d	68
510068	5490996	That would be great.	That would be great.	260626540	1478961785426	1478961785490	 	32
510068	5490996	That would be great.	That would be great.	260626544	1478961785602	1478961785681	b	66
510068	5490996	That would be great.	That would be great.	260626548	1478961785697	1478961785761	e	69
510068	5490996	That would be great.	That would be great.	260626553	1478961785777	1478961785857	 	32
510068	5490996	That would be great.	That would be great.	260626571	1478961786226	1478961786306	g	71
510068	5490996	That would be great.	That would be great.	260626572	1478961786433	1478961786577	r	82
510068	5490996	That would be great.	That would be great.	260626574	1478961786497	1478961786625	e	69
510068	5490996	That would be great.	That would be great.	260626576	1478961786593	1478961786705	a	65
510068	5490996	That would be great.	That would be great.	260626615	1478961786689	1478961786785	t	84
510068	5490999	Not even in yet.	Not even in yet.	260626882	1478961787538	1478961794162	.	190
510068	5490999	Not even in yet.	Not even in yet.	260626725	1478961789425	1478961789681	SHIFT	16
510068	5490999	Not even in yet.	Not even in yet.	260626728	1478961789601	1478961789729	N	78
510068	5490999	Not even in yet.	Not even in yet.	260626731	1478961789697	1478961789793	o	79
510068	5490999	Not even in yet.	Not even in yet.	260626734	1478961789953	1478961790033	t	84
510068	5490999	Not even in yet.	Not even in yet.	260626737	1478961790081	1478961790177	 	32
510068	5490999	Not even in yet.	Not even in yet.	260626742	1478961790769	1478961790833	e	69
510068	5490999	Not even in yet.	Not even in yet.	260626807	1478961790881	1478961790993	v	86
510068	5490999	Not even in yet.	Not even in yet.	260626812	1478961790945	1478961791057	e	69
510068	5490999	Not even in yet.	Not even in yet.	260626814	1478961791137	1478961791249	n	78
510068	5490999	Not even in yet.	Not even in yet.	260626817	1478961792065	1478961792161	 	32
510068	5490999	Not even in yet.	Not even in yet.	260626820	1478961792257	1478961792385	i	73
510068	5490999	Not even in yet.	Not even in yet.	260626866	1478961792305	1478961792433	n	78
510068	5490999	Not even in yet.	Not even in yet.	260626867	1478961792369	1478961792465	 	32
510068	5490999	Not even in yet.	Not even in yet.	260626868	1478961792817	1478961792897	y	89
510068	5490999	Not even in yet.	Not even in yet.	260626869	1478961792961	1478961793057	e	69
510068	5490999	Not even in yet.	Not even in yet.	260626871	1478961793025	1478961793137	t	84
510068	5490999	Not even in yet.	Not even in yet.	260626876	1478961793458	1478961793522	/	191
510068	5490999	Not even in yet.	Not even in yet.	260626879	1478961793938	1478961794002	BKSP	8
510068	5491004	The Atlanta Hawks held Indiana to the lowest points total ever.	The Atlanta Hawks held Indiana to the loewest points total ever.	260626948	1478961796354	1478961796594	SHIFT	16
510068	5491004	The Atlanta Hawks held Indiana to the lowest points total ever.	The Atlanta Hawks held Indiana to the loewest points total ever.	260626950	1478961796482	1478961796594	T	84
510068	5491004	The Atlanta Hawks held Indiana to the lowest points total ever.	The Atlanta Hawks held Indiana to the loewest points total ever.	260626952	1478961796642	1478961796706	h	72
510068	5491004	The Atlanta Hawks held Indiana to the lowest points total ever.	The Atlanta Hawks held Indiana to the loewest points total ever.	260626954	1478961796738	1478961796818	e	69
510068	5491004	The Atlanta Hawks held Indiana to the lowest points total ever.	The Atlanta Hawks held Indiana to the loewest points total ever.	260626957	1478961796834	1478961796914	 	32
510068	5491004	The Atlanta Hawks held Indiana to the lowest points total ever.	The Atlanta Hawks held Indiana to the loewest points total ever.	260626961	1478961797138	1478961797218	a	65
510068	5491004	The Atlanta Hawks held Indiana to the lowest points total ever.	The Atlanta Hawks held Indiana to the loewest points total ever.	260627010	1478961797458	1478961797537	t	84
510068	5491004	The Atlanta Hawks held Indiana to the lowest points total ever.	The Atlanta Hawks held Indiana to the loewest points total ever.	260627012	1478961797634	1478961797714	l	76
510068	5491004	The Atlanta Hawks held Indiana to the lowest points total ever.	The Atlanta Hawks held Indiana to the loewest points total ever.	260627015	1478961797746	1478961797826	a	65
510068	5491004	The Atlanta Hawks held Indiana to the lowest points total ever.	The Atlanta Hawks held Indiana to the loewest points total ever.	260627018	1478961798034	1478961798146	t	84
510068	5491004	The Atlanta Hawks held Indiana to the lowest points total ever.	The Atlanta Hawks held Indiana to the loewest points total ever.	260627020	1478961798466	1478961798530	BKSP	8
510068	5491004	The Atlanta Hawks held Indiana to the lowest points total ever.	The Atlanta Hawks held Indiana to the loewest points total ever.	260627023	1478961798562	1478961798642	BKSP	8
510068	5491004	The Atlanta Hawks held Indiana to the lowest points total ever.	The Atlanta Hawks held Indiana to the loewest points total ever.	260627026	1478961798690	1478961798866	BKSP	8
510068	5491004	The Atlanta Hawks held Indiana to the lowest points total ever.	The Atlanta Hawks held Indiana to the loewest points total ever.	260627029	1478961798914	1478961798994	BKSP	8
510068	5491004	The Atlanta Hawks held Indiana to the lowest points total ever.	The Atlanta Hawks held Indiana to the loewest points total ever.	260627031	1478961799138	1478961799186	BKSP	8
510068	5491004	The Atlanta Hawks held Indiana to the lowest points total ever.	The Atlanta Hawks held Indiana to the loewest points total ever.	260627043	1478961799410	1478961799857	SHIFT	16
510068	5491004	The Atlanta Hawks held Indiana to the lowest points total ever.	The Atlanta Hawks held Indiana to the loewest points total ever.	260627032	1478961799714	1478961799810	A	65
510068	5491004	The Atlanta Hawks held Indiana to the lowest points total ever.	The Atlanta Hawks held Indiana to the loewest points total ever.	260627044	1478961799986	1478961800082	t	84
510068	5491004	The Atlanta Hawks held Indiana to the lowest points total ever.	The Atlanta Hawks held Indiana to the loewest points total ever.	260627046	1478961800338	1478961800401	l	76
510068	5491004	The Atlanta Hawks held Indiana to the lowest points total ever.	The Atlanta Hawks held Indiana to the loewest points total ever.	260627048	1478961800417	1478961800498	a	65
510068	5491004	The Atlanta Hawks held Indiana to the lowest points total ever.	The Atlanta Hawks held Indiana to the loewest points total ever.	260627051	1478961800529	1478961800609	n	78
510068	5491004	The Atlanta Hawks held Indiana to the lowest points total ever.	The Atlanta Hawks held Indiana to the loewest points total ever.	260627054	1478961800706	1478961800818	t	84
510068	5491004	The Atlanta Hawks held Indiana to the lowest points total ever.	The Atlanta Hawks held Indiana to the loewest points total ever.	260627102	1478961800802	1478961800898	a	65
510068	5491004	The Atlanta Hawks held Indiana to the lowest points total ever.	The Atlanta Hawks held Indiana to the loewest points total ever.	260627104	1478961801026	1478961801106	 	32
510068	5491004	The Atlanta Hawks held Indiana to the lowest points total ever.	The Atlanta Hawks held Indiana to the loewest points total ever.	260627108	1478961801794	1478961802225	SHIFT	16
510068	5491004	The Atlanta Hawks held Indiana to the lowest points total ever.	The Atlanta Hawks held Indiana to the loewest points total ever.	260627106	1478961802082	1478961802178	H	72
510068	5491004	The Atlanta Hawks held Indiana to the lowest points total ever.	The Atlanta Hawks held Indiana to the loewest points total ever.	260627110	1478961802290	1478961802417	a	65
510068	5491004	The Atlanta Hawks held Indiana to the lowest points total ever.	The Atlanta Hawks held Indiana to the loewest points total ever.	260627112	1478961802402	1478961802497	w	87
510068	5491004	The Atlanta Hawks held Indiana to the lowest points total ever.	The Atlanta Hawks held Indiana to the loewest points total ever.	260627113	1478961802802	1478961802849	k	75
510068	5491004	The Atlanta Hawks held Indiana to the lowest points total ever.	The Atlanta Hawks held Indiana to the loewest points total ever.	260627118	1478961802945	1478961803009	s	83
510068	5491004	The Atlanta Hawks held Indiana to the lowest points total ever.	The Atlanta Hawks held Indiana to the loewest points total ever.	260627121	1478961803041	1478961803121	 	32
510068	5491004	The Atlanta Hawks held Indiana to the lowest points total ever.	The Atlanta Hawks held Indiana to the loewest points total ever.	260627124	1478961803265	1478961803345	h	72
510068	5491004	The Atlanta Hawks held Indiana to the lowest points total ever.	The Atlanta Hawks held Indiana to the loewest points total ever.	260627127	1478961803394	1478961803457	e	69
510068	5491004	The Atlanta Hawks held Indiana to the lowest points total ever.	The Atlanta Hawks held Indiana to the loewest points total ever.	260627129	1478961803521	1478961803587	l	76
510068	5491004	The Atlanta Hawks held Indiana to the lowest points total ever.	The Atlanta Hawks held Indiana to the loewest points total ever.	260627204	1478961803729	1478961803809	d	68
510068	5491004	The Atlanta Hawks held Indiana to the lowest points total ever.	The Atlanta Hawks held Indiana to the loewest points total ever.	260627207	1478961803825	1478961803921	 	32
510068	5491004	The Atlanta Hawks held Indiana to the lowest points total ever.	The Atlanta Hawks held Indiana to the loewest points total ever.	260627215	1478961804098	1478961804465	SHIFT	16
510068	5491004	The Atlanta Hawks held Indiana to the lowest points total ever.	The Atlanta Hawks held Indiana to the loewest points total ever.	260627211	1478961804241	1478961804305	I	73
510068	5491004	The Atlanta Hawks held Indiana to the lowest points total ever.	The Atlanta Hawks held Indiana to the loewest points total ever.	260627219	1478961804577	1478961804673	n	78
510068	5491004	The Atlanta Hawks held Indiana to the lowest points total ever.	The Atlanta Hawks held Indiana to the loewest points total ever.	260627223	1478961805265	1478961805345	d	68
510068	5491004	The Atlanta Hawks held Indiana to the lowest points total ever.	The Atlanta Hawks held Indiana to the loewest points total ever.	260627236	1478961805347	1478961805409	i	73
510068	5491004	The Atlanta Hawks held Indiana to the lowest points total ever.	The Atlanta Hawks held Indiana to the loewest points total ever.	260627239	1478961805410	1478961805505	a	65
510068	5491004	The Atlanta Hawks held Indiana to the lowest points total ever.	The Atlanta Hawks held Indiana to the loewest points total ever.	260627244	1478961805569	1478961805633	n	78
510068	5491004	The Atlanta Hawks held Indiana to the lowest points total ever.	The Atlanta Hawks held Indiana to the loewest points total ever.	260627251	1478961805713	1478961805777	a	65
510068	5491004	The Atlanta Hawks held Indiana to the lowest points total ever.	The Atlanta Hawks held Indiana to the loewest points total ever.	260627256	1478961806001	1478961806081	 	32
510068	5491004	The Atlanta Hawks held Indiana to the lowest points total ever.	The Atlanta Hawks held Indiana to the loewest points total ever.	260627268	1478961806225	1478961806353	t	84
510068	5491004	The Atlanta Hawks held Indiana to the lowest points total ever.	The Atlanta Hawks held Indiana to the loewest points total ever.	260627270	1478961806354	1478961806433	o	79
510068	5491004	The Atlanta Hawks held Indiana to the lowest points total ever.	The Atlanta Hawks held Indiana to the loewest points total ever.	260627273	1478961806401	1478961806497	 	32
510068	5491004	The Atlanta Hawks held Indiana to the lowest points total ever.	The Atlanta Hawks held Indiana to the loewest points total ever.	260627274	1478961806513	1478961806577	t	84
510068	5491004	The Atlanta Hawks held Indiana to the lowest points total ever.	The Atlanta Hawks held Indiana to the loewest points total ever.	260627275	1478961806577	1478961806657	h	72
510068	5491004	The Atlanta Hawks held Indiana to the lowest points total ever.	The Atlanta Hawks held Indiana to the loewest points total ever.	260627306	1478961806659	1478961806721	e	69
510068	5491004	The Atlanta Hawks held Indiana to the lowest points total ever.	The Atlanta Hawks held Indiana to the loewest points total ever.	260627307	1478961806753	1478961806833	 	32
510068	5491004	The Atlanta Hawks held Indiana to the lowest points total ever.	The Atlanta Hawks held Indiana to the loewest points total ever.	260627308	1478961806945	1478961807025	l	76
510068	5491004	The Atlanta Hawks held Indiana to the lowest points total ever.	The Atlanta Hawks held Indiana to the loewest points total ever.	260627309	1478961807921	1478961808001	o	79
510068	5491004	The Atlanta Hawks held Indiana to the lowest points total ever.	The Atlanta Hawks held Indiana to the loewest points total ever.	260627310	1478961808001	1478961808113	e	69
510068	5491004	The Atlanta Hawks held Indiana to the lowest points total ever.	The Atlanta Hawks held Indiana to the loewest points total ever.	260627330	1478961808065	1478961808161	w	87
510068	5491004	The Atlanta Hawks held Indiana to the lowest points total ever.	The Atlanta Hawks held Indiana to the loewest points total ever.	260627333	1478961808353	1478961808465	s	83
510068	5491004	The Atlanta Hawks held Indiana to the lowest points total ever.	The Atlanta Hawks held Indiana to the loewest points total ever.	260627334	1478961808465	1478961808577	t	84
510068	5491004	The Atlanta Hawks held Indiana to the lowest points total ever.	The Atlanta Hawks held Indiana to the loewest points total ever.	260627335	1478961808609	1478961808719	 	32
510068	5491004	The Atlanta Hawks held Indiana to the lowest points total ever.	The Atlanta Hawks held Indiana to the loewest points total ever.	260627337	1478961808849	1478961808993	p	80
510068	5491004	The Atlanta Hawks held Indiana to the lowest points total ever.	The Atlanta Hawks held Indiana to the loewest points total ever.	260627389	1478961808929	1478961809025	o	79
510068	5491004	The Atlanta Hawks held Indiana to the lowest points total ever.	The Atlanta Hawks held Indiana to the loewest points total ever.	260627392	1478961809457	1478961809537	BKSP	8
510068	5491004	The Atlanta Hawks held Indiana to the lowest points total ever.	The Atlanta Hawks held Indiana to the loewest points total ever.	260627395	1478961809585	1478961809649	BKSP	8
510068	5491004	The Atlanta Hawks held Indiana to the lowest points total ever.	The Atlanta Hawks held Indiana to the loewest points total ever.	260627400	1478961809713	1478961809761	BKSP	8
510068	5491004	The Atlanta Hawks held Indiana to the lowest points total ever.	The Atlanta Hawks held Indiana to the loewest points total ever.	260627404	1478961809841	1478961809889	BKSP	8
510068	5491004	The Atlanta Hawks held Indiana to the lowest points total ever.	The Atlanta Hawks held Indiana to the loewest points total ever.	260627411	1478961809937	1478961810017	BKSP	8
510068	5491004	The Atlanta Hawks held Indiana to the lowest points total ever.	The Atlanta Hawks held Indiana to the loewest points total ever.	260627413	1478961810305	1478961810465	e	69
510068	5491004	The Atlanta Hawks held Indiana to the lowest points total ever.	The Atlanta Hawks held Indiana to the loewest points total ever.	260627417	1478961810401	1478961810481	s	83
510068	5491004	The Atlanta Hawks held Indiana to the lowest points total ever.	The Atlanta Hawks held Indiana to the loewest points total ever.	260627421	1478961810481	1478961810577	t	84
510068	5491004	The Atlanta Hawks held Indiana to the lowest points total ever.	The Atlanta Hawks held Indiana to the loewest points total ever.	260627425	1478961810641	1478961810738	 	32
510068	5491004	The Atlanta Hawks held Indiana to the lowest points total ever.	The Atlanta Hawks held Indiana to the loewest points total ever.	260627428	1478961811234	1478961811362	p	80
510068	5491004	The Atlanta Hawks held Indiana to the lowest points total ever.	The Atlanta Hawks held Indiana to the loewest points total ever.	260627434	1478961811298	1478961811394	o	79
510068	5491004	The Atlanta Hawks held Indiana to the lowest points total ever.	The Atlanta Hawks held Indiana to the loewest points total ever.	260627435	1478961811506	1478961811650	i	73
510068	5491004	The Atlanta Hawks held Indiana to the lowest points total ever.	The Atlanta Hawks held Indiana to the loewest points total ever.	260627436	1478961811618	1478961811714	n	78
510068	5491004	The Atlanta Hawks held Indiana to the lowest points total ever.	The Atlanta Hawks held Indiana to the loewest points total ever.	260627437	1478961811730	1478961811842	t	84
510068	5491004	The Atlanta Hawks held Indiana to the lowest points total ever.	The Atlanta Hawks held Indiana to the loewest points total ever.	260627438	1478961811810	1478961811922	s	83
510068	5491004	The Atlanta Hawks held Indiana to the lowest points total ever.	The Atlanta Hawks held Indiana to the loewest points total ever.	260627439	1478961811922	1478961812002	 	32
510068	5491004	The Atlanta Hawks held Indiana to the lowest points total ever.	The Atlanta Hawks held Indiana to the loewest points total ever.	260627491	1478961812434	1478961812530	t	84
510068	5491004	The Atlanta Hawks held Indiana to the lowest points total ever.	The Atlanta Hawks held Indiana to the loewest points total ever.	260627493	1478961812754	1478961812850	o	79
510068	5491004	The Atlanta Hawks held Indiana to the lowest points total ever.	The Atlanta Hawks held Indiana to the loewest points total ever.	260627495	1478961812962	1478961813090	t	84
510068	5491004	The Atlanta Hawks held Indiana to the lowest points total ever.	The Atlanta Hawks held Indiana to the loewest points total ever.	260627497	1478961813506	1478961813570	l	76
510068	5491004	The Atlanta Hawks held Indiana to the lowest points total ever.	The Atlanta Hawks held Indiana to the loewest points total ever.	260627501	1478961813794	1478961813874	BKSP	8
510068	5491004	The Atlanta Hawks held Indiana to the lowest points total ever.	The Atlanta Hawks held Indiana to the loewest points total ever.	260627504	1478961813938	1478961814002	a	65
510068	5491004	The Atlanta Hawks held Indiana to the lowest points total ever.	The Atlanta Hawks held Indiana to the loewest points total ever.	260627512	1478961814018	1478961814114	l	76
510068	5491004	The Atlanta Hawks held Indiana to the lowest points total ever.	The Atlanta Hawks held Indiana to the loewest points total ever.	260627514	1478961814162	1478961814274	 	32
510068	5491004	The Atlanta Hawks held Indiana to the lowest points total ever.	The Atlanta Hawks held Indiana to the loewest points total ever.	260627515	1478961814514	1478961814610	e	69
510068	5491004	The Atlanta Hawks held Indiana to the lowest points total ever.	The Atlanta Hawks held Indiana to the loewest points total ever.	260627516	1478961814674	1478961814786	v	86
510068	5491004	The Atlanta Hawks held Indiana to the lowest points total ever.	The Atlanta Hawks held Indiana to the loewest points total ever.	260627526	1478961814754	1478961814929	e	69
510068	5491004	The Atlanta Hawks held Indiana to the lowest points total ever.	The Atlanta Hawks held Indiana to the loewest points total ever.	260627527	1478961814897	1478961815009	r	82
510068	5491004	The Atlanta Hawks held Indiana to the lowest points total ever.	The Atlanta Hawks held Indiana to the loewest points total ever.	260627529	1478961815250	1478961815314	.	190
510068	5491017	Binoche welcomed the movie industry to the French riviera.	Binoche welcomed the movie industry to the French rivera.	260627967	1478961830530	1478961830993	SHIFT	16
510068	5491017	Binoche welcomed the movie industry to the French riviera.	Binoche welcomed the movie industry to the French rivera.	260627964	1478961830898	1478961830978	B	66
510068	5491017	Binoche welcomed the movie industry to the French riviera.	Binoche welcomed the movie industry to the French rivera.	260627971	1478961831410	1478961831617	i	73
510068	5491017	Binoche welcomed the movie industry to the French riviera.	Binoche welcomed the movie industry to the French rivera.	260627973	1478961831505	1478961831649	n	78
510068	5491017	Binoche welcomed the movie industry to the French riviera.	Binoche welcomed the movie industry to the French rivera.	260627975	1478961831633	1478961831745	o	79
510068	5491017	Binoche welcomed the movie industry to the French riviera.	Binoche welcomed the movie industry to the French rivera.	260627977	1478961831970	1478961832082	c	67
510068	5491017	Binoche welcomed the movie industry to the French riviera.	Binoche welcomed the movie industry to the French rivera.	260627994	1478961832065	1478961832129	h	72
510068	5491017	Binoche welcomed the movie industry to the French riviera.	Binoche welcomed the movie industry to the French rivera.	260627996	1478961832193	1478961832273	e	69
510068	5491017	Binoche welcomed the movie industry to the French riviera.	Binoche welcomed the movie industry to the French rivera.	260627997	1478961832321	1478961832417	 	32
510068	5491017	Binoche welcomed the movie industry to the French riviera.	Binoche welcomed the movie industry to the French rivera.	260627998	1478961832545	1478961832657	w	87
510068	5491017	Binoche welcomed the movie industry to the French riviera.	Binoche welcomed the movie industry to the French rivera.	260628000	1478961832625	1478961832722	e	69
510068	5491017	Binoche welcomed the movie industry to the French riviera.	Binoche welcomed the movie industry to the French rivera.	260628001	1478961832753	1478961832833	l	76
510068	5491017	Binoche welcomed the movie industry to the French riviera.	Binoche welcomed the movie industry to the French rivera.	260628017	1478961832977	1478961833057	c	67
510068	5491017	Binoche welcomed the movie industry to the French riviera.	Binoche welcomed the movie industry to the French rivera.	260628018	1478961833058	1478961833189	o	79
510068	5491017	Binoche welcomed the movie industry to the French riviera.	Binoche welcomed the movie industry to the French rivera.	260628019	1478961833138	1478961833233	m	77
510068	5491017	Binoche welcomed the movie industry to the French riviera.	Binoche welcomed the movie industry to the French rivera.	260628020	1478961833297	1478961833441	e	69
510068	5491017	Binoche welcomed the movie industry to the French riviera.	Binoche welcomed the movie industry to the French rivera.	260628037	1478961833409	1478961833521	s	83
510068	5491017	Binoche welcomed the movie industry to the French riviera.	Binoche welcomed the movie industry to the French rivera.	260628038	1478961834097	1478961834177	BKSP	8
510068	5491017	Binoche welcomed the movie industry to the French riviera.	Binoche welcomed the movie industry to the French rivera.	260628039	1478961834209	1478961834337	d	68
510068	5491017	Binoche welcomed the movie industry to the French riviera.	Binoche welcomed the movie industry to the French rivera.	260628040	1478961834338	1478961834401	 	32
510068	5491017	Binoche welcomed the movie industry to the French riviera.	Binoche welcomed the movie industry to the French rivera.	260628041	1478961834465	1478961834577	t	84
510068	5491017	Binoche welcomed the movie industry to the French riviera.	Binoche welcomed the movie industry to the French rivera.	260628042	1478961834529	1478961834609	h	72
510068	5491017	Binoche welcomed the movie industry to the French riviera.	Binoche welcomed the movie industry to the French rivera.	260628043	1478961834625	1478961834705	e	69
510068	5491017	Binoche welcomed the movie industry to the French riviera.	Binoche welcomed the movie industry to the French rivera.	260628056	1478961834707	1478961834785	 	32
510068	5491017	Binoche welcomed the movie industry to the French riviera.	Binoche welcomed the movie industry to the French rivera.	260628058	1478961835137	1478961835281	m	77
510068	5491017	Binoche welcomed the movie industry to the French riviera.	Binoche welcomed the movie industry to the French rivera.	260628060	1478961835217	1478961835297	o	79
510068	5491017	Binoche welcomed the movie industry to the French riviera.	Binoche welcomed the movie industry to the French rivera.	260628062	1478961835393	1478961835473	v	86
510068	5491017	Binoche welcomed the movie industry to the French riviera.	Binoche welcomed the movie industry to the French rivera.	260628064	1478961835473	1478961835537	i	73
510068	5491017	Binoche welcomed the movie industry to the French riviera.	Binoche welcomed the movie industry to the French rivera.	260628081	1478961835633	1478961835713	e	69
510068	5491017	Binoche welcomed the movie industry to the French riviera.	Binoche welcomed the movie industry to the French rivera.	260628082	1478961835714	1478961835809	 	32
510068	5491017	Binoche welcomed the movie industry to the French riviera.	Binoche welcomed the movie industry to the French rivera.	260628083	1478961836225	1478961836337	i	73
510068	5491017	Binoche welcomed the movie industry to the French riviera.	Binoche welcomed the movie industry to the French rivera.	260628084	1478961836305	1478961836385	n	78
510068	5491017	Binoche welcomed the movie industry to the French riviera.	Binoche welcomed the movie industry to the French rivera.	260628085	1478961836513	1478961836609	d	68
510068	5491017	Binoche welcomed the movie industry to the French riviera.	Binoche welcomed the movie industry to the French rivera.	260628099	1478961837265	1478961837329	u	85
510068	5491017	Binoche welcomed the movie industry to the French riviera.	Binoche welcomed the movie industry to the French rivera.	260628102	1478961837377	1478961837505	s	83
510068	5491017	Binoche welcomed the movie industry to the French riviera.	Binoche welcomed the movie industry to the French rivera.	260628106	1478961837569	1478961837601	t	84
510068	5491017	Binoche welcomed the movie industry to the French riviera.	Binoche welcomed the movie industry to the French rivera.	260628110	1478961837697	1478961837745	r	82
510068	5491017	Binoche welcomed the movie industry to the French riviera.	Binoche welcomed the movie industry to the French rivera.	260628114	1478961837857	1478961837953	y	89
510068	5491017	Binoche welcomed the movie industry to the French riviera.	Binoche welcomed the movie industry to the French rivera.	260628130	1478961837921	1478961838017	 	32
510068	5491017	Binoche welcomed the movie industry to the French riviera.	Binoche welcomed the movie industry to the French rivera.	260628134	1478961838209	1478961838273	t	84
510068	5491017	Binoche welcomed the movie industry to the French riviera.	Binoche welcomed the movie industry to the French rivera.	260628139	1478961838337	1478961838465	o	79
510068	5491017	Binoche welcomed the movie industry to the French riviera.	Binoche welcomed the movie industry to the French rivera.	260628141	1478961838385	1478961838529	 	32
510068	5491017	Binoche welcomed the movie industry to the French riviera.	Binoche welcomed the movie industry to the French rivera.	260628143	1478961838529	1478961838593	t	84
510068	5491017	Binoche welcomed the movie industry to the French riviera.	Binoche welcomed the movie industry to the French rivera.	260628145	1478961838673	1478961838769	h	72
510068	5491017	Binoche welcomed the movie industry to the French riviera.	Binoche welcomed the movie industry to the French rivera.	260628161	1478961838785	1478961838817	e	69
510068	5491017	Binoche welcomed the movie industry to the French riviera.	Binoche welcomed the movie industry to the French rivera.	260628162	1478961838929	1478961839025	 	32
510068	5491017	Binoche welcomed the movie industry to the French riviera.	Binoche welcomed the movie industry to the French rivera.	260628163	1478961839361	1478961839585	SHIFT	16
510068	5491017	Binoche welcomed the movie industry to the French riviera.	Binoche welcomed the movie industry to the French rivera.	260628164	1478961839505	1478961839586	F	70
510068	5491017	Binoche welcomed the movie industry to the French riviera.	Binoche welcomed the movie industry to the French rivera.	260628165	1478961839697	1478961839809	r	82
510068	5491017	Binoche welcomed the movie industry to the French riviera.	Binoche welcomed the movie industry to the French rivera.	260628208	1478961839777	1478961839873	e	69
510068	5491017	Binoche welcomed the movie industry to the French riviera.	Binoche welcomed the movie industry to the French rivera.	260628209	1478961839985	1478961840049	n	78
510068	5491017	Binoche welcomed the movie industry to the French riviera.	Binoche welcomed the movie industry to the French rivera.	260628211	1478961840529	1478961840609	c	67
510068	5491017	Binoche welcomed the movie industry to the French riviera.	Binoche welcomed the movie industry to the French rivera.	260628214	1478961840609	1478961840705	h	72
510068	5491017	Binoche welcomed the movie industry to the French riviera.	Binoche welcomed the movie industry to the French rivera.	260628215	1478961840737	1478961840833	 	32
510068	5491017	Binoche welcomed the movie industry to the French riviera.	Binoche welcomed the movie industry to the French rivera.	260628216	1478961841313	1478961841409	r	82
510068	5491017	Binoche welcomed the movie industry to the French riviera.	Binoche welcomed the movie industry to the French rivera.	260628232	1478961841473	1478961841553	i	73
510068	5491017	Binoche welcomed the movie industry to the French riviera.	Binoche welcomed the movie industry to the French rivera.	260628233	1478961841681	1478961841809	v	86
510068	5491017	Binoche welcomed the movie industry to the French riviera.	Binoche welcomed the movie industry to the French rivera.	260628234	1478961841825	1478961842001	e	69
510068	5491017	Binoche welcomed the movie industry to the French riviera.	Binoche welcomed the movie industry to the French rivera.	260628235	1478961841953	1478961842065	r	82
510068	5491017	Binoche welcomed the movie industry to the French riviera.	Binoche welcomed the movie industry to the French rivera.	260628236	1478961842593	1478961842657	i	73
510068	5491017	Binoche welcomed the movie industry to the French riviera.	Binoche welcomed the movie industry to the French rivera.	260628312	1478961842689	1478961842769	a	65
510068	5491017	Binoche welcomed the movie industry to the French riviera.	Binoche welcomed the movie industry to the French rivera.	260628314	1478961843505	1478961843569	BKSP	8
510068	5491017	Binoche welcomed the movie industry to the French riviera.	Binoche welcomed the movie industry to the French rivera.	260628315	1478961843649	1478961843729	BKSP	8
510068	5491017	Binoche welcomed the movie industry to the French riviera.	Binoche welcomed the movie industry to the French rivera.	260628316	1478961843793	1478961843873	a	65
510068	5491017	Binoche welcomed the movie industry to the French riviera.	Binoche welcomed the movie industry to the French rivera.	260628317	1478961844481	1478961844577	BKSP	8
510068	5491017	Binoche welcomed the movie industry to the French riviera.	Binoche welcomed the movie industry to the French rivera.	260628318	1478961845153	1478961845217	a	65
510068	5491034	See you on the third.	See you on the third>	260628459	1478961845746	1478961853393	.	190
510068	5491034	See you on the third.	See you on the third>	260628390	1478961848050	1478961848241	SHIFT	16
510068	5491034	See you on the third.	See you on the third>	260628391	1478961848354	1478961848497	s	83
510068	5491034	See you on the third.	See you on the third>	260628392	1478961848450	1478961848529	SHIFT	16
510068	5491034	See you on the third.	See you on the third>	260628393	1478961849090	1478961849186	BKSP	8
510068	5491034	See you on the third.	See you on the third>	260628394	1478961849186	1478961849425	SHIFT	16
510068	5491034	See you on the third.	See you on the third>	260628395	1478961849313	1478961849426	S	83
510068	5491034	See you on the third.	See you on the third>	260628396	1478961849649	1478961849729	e	69
510068	5491034	See you on the third.	See you on the third>	260628397	1478961850002	1478961850066	e	69
510068	5491034	See you on the third.	See you on the third>	260628398	1478961850145	1478961850257	 	32
510068	5491034	See you on the third.	See you on the third>	260628410	1478961850353	1478961850449	y	89
510068	5491034	See you on the third.	See you on the third>	260628412	1478961850450	1478961850577	o	79
510068	5491034	See you on the third.	See you on the third>	260628414	1478961850513	1478961850609	u	85
510068	5491034	See you on the third.	See you on the third>	260628417	1478961850561	1478961850657	 	32
510068	5491034	See you on the third.	See you on the third>	260628420	1478961851057	1478961851185	o	79
510068	5491034	See you on the third.	See you on the third>	260628440	1478961851121	1478961851233	n	78
510068	5491034	See you on the third.	See you on the third>	260628441	1478961851201	1478961851281	 	32
510068	5491034	See you on the third.	See you on the third>	260628442	1478961851345	1478961851377	t	84
510068	5491034	See you on the third.	See you on the third>	260628443	1478961851553	1478961851633	h	72
510068	5491034	See you on the third.	See you on the third>	260628444	1478961852001	1478961852097	e	69
510068	5491034	See you on the third.	See you on the third>	260628445	1478961852113	1478961852209	 	32
510068	5491034	See you on the third.	See you on the third>	260628448	1478961852385	1478961852449	t	84
510068	5491034	See you on the third.	See you on the third>	260628451	1478961852450	1478961852561	h	72
510068	5491034	See you on the third.	See you on the third>	260628453	1478961852529	1478961852609	i	73
510068	5491034	See you on the third.	See you on the third>	260628454	1478961852625	1478961852721	r	82
510068	5491034	See you on the third.	See you on the third>	260628455	1478961852881	1478961852977	d	68
510068	5491034	See you on the third.	See you on the third>	260628461	1478961853153	1478961853425	SHIFT	16
510068	5491038	How are we handling others in that group?	How are we handling others in that group?	260628540	1478961855905	1478961857025	SHIFT	16
510068	5491038	How are we handling others in that group?	How are we handling others in that group?	260628542	1478961856961	1478961857057	H	72
510068	5491038	How are we handling others in that group?	How are we handling others in that group?	260628543	1478961857057	1478961857153	o	79
510068	5491038	How are we handling others in that group?	How are we handling others in that group?	260628544	1478961857217	1478961857281	w	87
510068	5491038	How are we handling others in that group?	How are we handling others in that group?	260628545	1478961857377	1478961857457	 	32
510068	5491038	How are we handling others in that group?	How are we handling others in that group?	260628546	1478961857505	1478961857601	a	65
510068	5491038	How are we handling others in that group?	How are we handling others in that group?	260628559	1478961857585	1478961857698	r	82
510068	5491038	How are we handling others in that group?	How are we handling others in that group?	260628560	1478961857681	1478961857777	e	69
510068	5491038	How are we handling others in that group?	How are we handling others in that group?	260628562	1478961857841	1478961857937	 	32
510068	5491038	How are we handling others in that group?	How are we handling others in that group?	260628564	1478961858113	1478961858225	w	87
510068	5491038	How are we handling others in that group?	How are we handling others in that group?	260628566	1478961858193	1478961858305	e	69
510068	5491038	How are we handling others in that group?	How are we handling others in that group?	260628568	1478961858305	1478961858369	 	32
510068	5491038	How are we handling others in that group?	How are we handling others in that group?	260628574	1478961858513	1478961858561	h	72
510068	5491038	How are we handling others in that group?	How are we handling others in that group?	260628576	1478961858561	1478961858641	a	65
510068	5491038	How are we handling others in that group?	How are we handling others in that group?	260628578	1478961858705	1478961858785	n	78
510068	5491038	How are we handling others in that group?	How are we handling others in that group?	260628581	1478961858945	1478961859025	d	68
510068	5491038	How are we handling others in that group?	How are we handling others in that group?	260628584	1478961859057	1478961859137	e	69
510068	5491038	How are we handling others in that group?	How are we handling others in that group?	260628606	1478961859585	1478961859665	BKSP	8
510068	5491038	How are we handling others in that group?	How are we handling others in that group?	260628608	1478961859889	1478961860033	l	76
510068	5491038	How are we handling others in that group?	How are we handling others in that group?	260628609	1478961860161	1478961860305	i	73
510068	5491038	How are we handling others in that group?	How are we handling others in that group?	260628610	1478961860273	1478961860337	n	78
510068	5491038	How are we handling others in that group?	How are we handling others in that group?	260628612	1478961860337	1478961860385	g	71
510068	5491038	How are we handling others in that group?	How are we handling others in that group?	260628614	1478961860481	1478961860561	 	32
510068	5491038	How are we handling others in that group?	How are we handling others in that group?	260628625	1478961860769	1478961860816	o	79
510068	5491038	How are we handling others in that group?	How are we handling others in that group?	260628629	1478961860897	1478961860945	t	84
510068	5491038	How are we handling others in that group?	How are we handling others in that group?	260628631	1478961860977	1478961861057	h	72
510068	5491038	How are we handling others in that group?	How are we handling others in that group?	260628634	1478961861072	1478961861169	e	69
510068	5491038	How are we handling others in that group?	How are we handling others in that group?	260628638	1478961861153	1478961861233	r	82
510068	5491038	How are we handling others in that group?	How are we handling others in that group?	260628642	1478961861281	1478961861361	s	83
510068	5491038	How are we handling others in that group?	How are we handling others in that group?	260628645	1478961861425	1478961861488	 	32
510068	5491038	How are we handling others in that group?	How are we handling others in that group?	260628648	1478961861537	1478961861697	i	73
510068	5491038	How are we handling others in that group?	How are we handling others in that group?	260628651	1478961861617	1478961861745	n	78
510068	5491038	How are we handling others in that group?	How are we handling others in that group?	260628661	1478961861697	1478961861777	 	32
510068	5491038	How are we handling others in that group?	How are we handling others in that group?	260628663	1478961861841	1478961861937	t	84
510068	5491038	How are we handling others in that group?	How are we handling others in that group?	260628666	1478961861937	1478961862001	h	72
510068	5491038	How are we handling others in that group?	How are we handling others in that group?	260628668	1478961862032	1478961862128	a	65
510068	5491038	How are we handling others in that group?	How are we handling others in that group?	260628670	1478961862097	1478961862176	t	84
510068	5491038	How are we handling others in that group?	How are we handling others in that group?	260628671	1478961862209	1478961862289	 	32
510068	5491038	How are we handling others in that group?	How are we handling others in that group?	260628830	1478961862689	1478961862752	f	70
510068	5491038	How are we handling others in that group?	How are we handling others in that group?	260628831	1478961862881	1478961862945	r	82
510068	5491038	How are we handling others in that group?	How are we handling others in that group?	260628832	1478961862993	1478961863089	o	79
510068	5491038	How are we handling others in that group?	How are we handling others in that group?	260628833	1478961863056	1478961863120	u	85
510068	5491038	How are we handling others in that group?	How are we handling others in that group?	260628834	1478961863234	1478961863314	BKSP	8
510068	5491038	How are we handling others in that group?	How are we handling others in that group?	260628835	1478961863377	1478961863441	BKSP	8
510068	5491038	How are we handling others in that group?	How are we handling others in that group?	260628836	1478961863490	1478961863537	BKSP	8
510068	5491038	How are we handling others in that group?	How are we handling others in that group?	260628837	1478961863602	1478961863666	BKSP	8
510068	5491038	How are we handling others in that group?	How are we handling others in that group?	260628838	1478961878177	1478961878385	SHIFT	16
510068	5491038	How are we handling others in that group?	How are we handling others in that group?	260628844	1478961878289	1478961878400	G	71
510068	5491038	How are we handling others in that group?	How are we handling others in that group?	260628845	1478961878513	1478961878593	r	82
510068	5491038	How are we handling others in that group?	How are we handling others in that group?	260628846	1478961878561	1478961878705	o	79
510068	5491038	How are we handling others in that group?	How are we handling others in that group?	260628848	1478961878657	1478961878736	u	85
510068	5491038	How are we handling others in that group?	How are we handling others in that group?	260628851	1478961878817	1478961878897	p	80
510068	5491038	How are we handling others in that group?	How are we handling others in that group?	260628854	1478961879121	1478961879185	INSERT	45
510068	5491038	How are we handling others in that group?	How are we handling others in that group?	260628855	1478961879265	1478961879345	BKSP	8
510068	5491038	How are we handling others in that group?	How are we handling others in that group?	260628856	1478961879409	1478961879489	BKSP	8
510068	5491038	How are we handling others in that group?	How are we handling others in that group?	260628857	1478961879585	1478961879649	BKSP	8
510068	5491038	How are we handling others in that group?	How are we handling others in that group?	260628858	1478961879728	1478961879808	BKSP	8
510068	5491038	How are we handling others in that group?	How are we handling others in that group?	260628859	1478961879888	1478961879968	BKSP	8
510068	5491038	How are we handling others in that group?	How are we handling others in that group?	260628860	1478961880657	1478961880737	g	71
510068	5491038	How are we handling others in that group?	How are we handling others in that group?	260628861	1478961880913	1478961880977	r	82
510068	5491038	How are we handling others in that group?	How are we handling others in that group?	260628862	1478961880993	1478961881121	o	79
510068	5491038	How are we handling others in that group?	How are we handling others in that group?	260628863	1478961881057	1478961881153	u	85
510068	5491038	How are we handling others in that group?	How are we handling others in that group?	260628864	1478961881266	1478961881329	p	80
510068	5491038	How are we handling others in that group?	How are we handling others in that group?	260628865	1478961881889	1478961882065	SHIFT	16
510068	5491038	How are we handling others in that group?	How are we handling others in that group?	260628867	1478961882001	1478961882097	?	191
510068	5491045	Can you call me at home?	Can you call me at home?	260628872	1478961884449	1478961884737	SHIFT	16
510068	5491045	Can you call me at home?	Can you call me at home?	260628873	1478961884673	1478961884817	C	67
510068	5491045	Can you call me at home?	Can you call me at home?	260628874	1478961884817	1478961884929	a	65
510068	5491045	Can you call me at home?	Can you call me at home?	260628875	1478961884945	1478961885041	n	78
510068	5491045	Can you call me at home?	Can you call me at home?	260628876	1478961885025	1478961885137	 	32
510068	5491045	Can you call me at home?	Can you call me at home?	260628877	1478961885345	1478961885457	y	89
510068	5491045	Can you call me at home?	Can you call me at home?	260628878	1478961885393	1478961885521	o	79
510068	5491045	Can you call me at home?	Can you call me at home?	260628879	1478961885460	1478961885553	u	85
510068	5491045	Can you call me at home?	Can you call me at home?	260628880	1478961885521	1478961885601	 	32
510068	5491045	Can you call me at home?	Can you call me at home?	260628881	1478961885729	1478961885809	c	67
510068	5491045	Can you call me at home?	Can you call me at home?	260628883	1478961885761	1478961885873	a	65
510068	5491045	Can you call me at home?	Can you call me at home?	260628882	1478961885809	1478961885857	l	76
510068	5491045	Can you call me at home?	Can you call me at home?	260628884	1478961885953	1478961886049	l	76
510068	5491045	Can you call me at home?	Can you call me at home?	260628885	1478961886049	1478961886145	 	32
510068	5491045	Can you call me at home?	Can you call me at home?	260628886	1478961886209	1478961886273	m	77
510068	5491045	Can you call me at home?	Can you call me at home?	260628887	1478961886321	1478961886417	e	69
510068	5491045	Can you call me at home?	Can you call me at home?	260628888	1478961886785	1478961886865	 	32
510068	5491045	Can you call me at home?	Can you call me at home?	260628889	1478961886993	1478961887089	t	84
510068	5491045	Can you call me at home?	Can you call me at home?	260628890	1478961887057	1478961887169	a	65
510068	5491045	Can you call me at home?	Can you call me at home?	260628891	1478961887329	1478961887409	BKSP	8
510068	5491045	Can you call me at home?	Can you call me at home?	260628892	1478961887457	1478961887537	BKSP	8
510068	5491045	Can you call me at home?	Can you call me at home?	260628893	1478961887585	1478961887681	a	65
510068	5491045	Can you call me at home?	Can you call me at home?	260628894	1478961887649	1478961887745	t	84
510068	5491045	Can you call me at home?	Can you call me at home?	260628895	1478961887745	1478961887809	 	32
510068	5491045	Can you call me at home?	Can you call me at home?	260628896	1478961887873	1478961887921	t	84
510068	5491045	Can you call me at home?	Can you call me at home?	260628897	1478961888273	1478961888337	BKSP	8
510068	5491045	Can you call me at home?	Can you call me at home?	260628898	1478961888513	1478961888577	h	72
510068	5491045	Can you call me at home?	Can you call me at home?	260628899	1478961888641	1478961888801	o	79
510068	5491045	Can you call me at home?	Can you call me at home?	260628900	1478961888785	1478961888865	m	77
510068	5491045	Can you call me at home?	Can you call me at home?	260628901	1478961888897	1478961888977	e	69
510068	5491045	Can you call me at home?	Can you call me at home?	260628902	1478961889377	1478961889473	SHIFT	16
510068	5491045	Can you call me at home?	Can you call me at home?	260628903	1478961889409	1478961889521	?	191
510068	5491047	Upon returning to the U.	Upon returning to the U.	260628921	1478961891585	1478961892129	SHIFT	16
510068	5491047	Upon returning to the U.	Upon returning to the U.	260628922	1478961892017	1478961892129	U	85
510068	5491047	Upon returning to the U.	Upon returning to the U.	260628923	1478961892337	1478961892449	p	80
510068	5491047	Upon returning to the U.	Upon returning to the U.	260628924	1478961892977	1478961893073	o	79
510068	5491047	Upon returning to the U.	Upon returning to the U.	260628926	1478961893057	1478961893121	n	78
510068	5491047	Upon returning to the U.	Upon returning to the U.	260628928	1478961893505	1478961893617	 	32
510068	5491047	Upon returning to the U.	Upon returning to the U.	260628945	1478961893761	1478961893857	r	82
510068	5491047	Upon returning to the U.	Upon returning to the U.	260628946	1478961893825	1478961893936	e	69
510068	5491047	Upon returning to the U.	Upon returning to the U.	260628947	1478961894065	1478961894160	t	84
510068	5491047	Upon returning to the U.	Upon returning to the U.	260628948	1478961895233	1478961895280	u	85
510068	5491047	Upon returning to the U.	Upon returning to the U.	260628949	1478961895921	1478961896000	r	82
510068	5491047	Upon returning to the U.	Upon returning to the U.	260628960	1478961896048	1478961896192	i	73
510068	5491047	Upon returning to the U.	Upon returning to the U.	260628961	1478961896145	1478961896224	n	78
510068	5491047	Upon returning to the U.	Upon returning to the U.	260628962	1478961897296	1478961897360	g	71
510068	5491047	Upon returning to the U.	Upon returning to the U.	260628963	1478961897456	1478961897584	 	32
510068	5491047	Upon returning to the U.	Upon returning to the U.	260628964	1478961897680	1478961897760	t	84
510068	5491047	Upon returning to the U.	Upon returning to the U.	260628983	1478961898080	1478961898161	BKSP	8
510068	5491047	Upon returning to the U.	Upon returning to the U.	260628984	1478961898225	1478961898289	BKSP	8
510068	5491047	Upon returning to the U.	Upon returning to the U.	260628986	1478961898369	1478961898433	BKSP	8
510068	5491047	Upon returning to the U.	Upon returning to the U.	260628988	1478961898481	1478961898561	BKSP	8
510068	5491047	Upon returning to the U.	Upon returning to the U.	260628991	1478961898641	1478961898705	BKSP	8
510068	5491047	Upon returning to the U.	Upon returning to the U.	260628994	1478961900609	1478961900673	n	78
510068	5491047	Upon returning to the U.	Upon returning to the U.	260628997	1478961900817	1478961900945	i	73
510068	5491047	Upon returning to the U.	Upon returning to the U.	260628999	1478961900946	1478961900993	n	78
510068	5491047	Upon returning to the U.	Upon returning to the U.	260629001	1478961900993	1478961901073	g	71
510068	5491047	Upon returning to the U.	Upon returning to the U.	260629003	1478961901473	1478961901553	 	32
510068	5491047	Upon returning to the U.	Upon returning to the U.	260629005	1478961901585	1478961901633	t	84
510068	5491047	Upon returning to the U.	Upon returning to the U.	260629007	1478961901713	1478961901825	o	79
510068	5491047	Upon returning to the U.	Upon returning to the U.	260629008	1478961901793	1478961901889	 	32
510068	5491047	Upon returning to the U.	Upon returning to the U.	260629009	1478961901889	1478961901953	t	84
510068	5491047	Upon returning to the U.	Upon returning to the U.	260629011	1478961901985	1478961902081	h	72
510068	5491047	Upon returning to the U.	Upon returning to the U.	260629022	1478961902084	1478961902146	e	69
510068	5491047	Upon returning to the U.	Upon returning to the U.	260629023	1478961902177	1478961902274	 	32
510068	5491047	Upon returning to the U.	Upon returning to the U.	260629025	1478961902497	1478961902849	SHIFT	16
510068	5491047	Upon returning to the U.	Upon returning to the U.	260629024	1478961902705	1478961902769	U	85
510068	5491050	Both leading candidates have promised to create jobs.	Both leading canidates have promised to creat jobs.	260629041	1478961905377	1478961905729	SHIFT	16
510068	5491050	Both leading candidates have promised to create jobs.	Both leading canidates have promised to creat jobs.	260629042	1478961905601	1478961905729	B	66
510068	5491050	Both leading candidates have promised to create jobs.	Both leading canidates have promised to creat jobs.	260629043	1478961906081	1478961906145	o	79
510068	5491050	Both leading candidates have promised to create jobs.	Both leading canidates have promised to creat jobs.	260629044	1478961906241	1478961906337	t	84
510068	5491050	Both leading candidates have promised to create jobs.	Both leading canidates have promised to creat jobs.	260629045	1478961906369	1478961906449	h	72
510068	5491050	Both leading candidates have promised to create jobs.	Both leading canidates have promised to creat jobs.	260629046	1478961906545	1478961906657	 	32
510068	5491050	Both leading candidates have promised to create jobs.	Both leading canidates have promised to creat jobs.	260629057	1478961906897	1478961906977	l	76
510068	5491050	Both leading candidates have promised to create jobs.	Both leading canidates have promised to creat jobs.	260629058	1478961907025	1478961907169	e	69
510068	5491050	Both leading candidates have promised to create jobs.	Both leading canidates have promised to creat jobs.	260629059	1478961907105	1478961907201	a	65
510068	5491050	Both leading candidates have promised to create jobs.	Both leading canidates have promised to creat jobs.	260629060	1478961907392	1478961907424	d	68
510068	5491050	Both leading candidates have promised to create jobs.	Both leading canidates have promised to creat jobs.	260629061	1478961907857	1478961908017	i	73
510068	5491050	Both leading candidates have promised to create jobs.	Both leading canidates have promised to creat jobs.	260629068	1478961907953	1478961908065	n	78
510068	5491050	Both leading candidates have promised to create jobs.	Both leading canidates have promised to creat jobs.	260629069	1478961908129	1478961908209	g	71
510068	5491050	Both leading candidates have promised to create jobs.	Both leading canidates have promised to creat jobs.	260629071	1478961908257	1478961908354	 	32
510068	5491050	Both leading candidates have promised to create jobs.	Both leading canidates have promised to creat jobs.	260629073	1478961908801	1478961908928	c	67
510068	5491050	Both leading candidates have promised to create jobs.	Both leading canidates have promised to creat jobs.	260629075	1478961908881	1478961908992	a	65
510068	5491050	Both leading candidates have promised to create jobs.	Both leading canidates have promised to creat jobs.	260629089	1478961908960	1478961909057	n	78
510068	5491050	Both leading candidates have promised to create jobs.	Both leading canidates have promised to creat jobs.	260629090	1478961909472	1478961909537	i	73
510068	5491050	Both leading candidates have promised to create jobs.	Both leading canidates have promised to creat jobs.	260629091	1478961909841	1478961909953	d	68
510068	5491050	Both leading candidates have promised to create jobs.	Both leading canidates have promised to creat jobs.	260629092	1478961909953	1478961910081	a	65
510068	5491050	Both leading candidates have promised to create jobs.	Both leading canidates have promised to creat jobs.	260629093	1478961910048	1478961910177	t	84
510068	5491050	Both leading candidates have promised to create jobs.	Both leading canidates have promised to creat jobs.	260629103	1478961910145	1478961910273	e	69
510068	5491050	Both leading candidates have promised to create jobs.	Both leading canidates have promised to creat jobs.	260629104	1478961910273	1478961910384	s	83
510068	5491050	Both leading candidates have promised to create jobs.	Both leading canidates have promised to creat jobs.	260629105	1478961910385	1478961910448	 	32
510068	5491050	Both leading candidates have promised to create jobs.	Both leading canidates have promised to creat jobs.	260629106	1478961910529	1478961910608	h	72
510068	5491050	Both leading candidates have promised to create jobs.	Both leading canidates have promised to creat jobs.	260629107	1478961910609	1478961910689	a	65
510068	5491050	Both leading candidates have promised to create jobs.	Both leading canidates have promised to creat jobs.	260629108	1478961910752	1478961910864	v	86
510068	5491050	Both leading candidates have promised to create jobs.	Both leading canidates have promised to creat jobs.	260629120	1478961910816	1478961910928	e	69
510068	5491050	Both leading candidates have promised to create jobs.	Both leading canidates have promised to creat jobs.	260629122	1478961910929	1478961911008	 	32
510068	5491050	Both leading candidates have promised to create jobs.	Both leading canidates have promised to creat jobs.	260629124	1478961911297	1478961911440	p	80
510068	5491050	Both leading candidates have promised to create jobs.	Both leading canidates have promised to creat jobs.	260629126	1478961911376	1478961911488	o	79
510068	5491050	Both leading candidates have promised to create jobs.	Both leading canidates have promised to creat jobs.	260629128	1478961911520	1478961911584	r	82
510068	5491050	Both leading candidates have promised to create jobs.	Both leading canidates have promised to creat jobs.	260629129	1478961912352	1478961912432	BKSP	8
510068	5491050	Both leading candidates have promised to create jobs.	Both leading canidates have promised to creat jobs.	260629130	1478961912496	1478961912560	BKSP	8
510068	5491050	Both leading candidates have promised to create jobs.	Both leading canidates have promised to creat jobs.	260629131	1478961912640	1478961912688	BKSP	8
510068	5491050	Both leading candidates have promised to create jobs.	Both leading canidates have promised to creat jobs.	260629132	1478961913360	1478961913424	p	80
510068	5491050	Both leading candidates have promised to create jobs.	Both leading canidates have promised to creat jobs.	260629133	1478961913520	1478961913600	r	82
510068	5491050	Both leading candidates have promised to create jobs.	Both leading canidates have promised to creat jobs.	260629134	1478961913648	1478961913712	o	79
510068	5491050	Both leading candidates have promised to create jobs.	Both leading canidates have promised to creat jobs.	260629135	1478961913824	1478961913904	m	77
510068	5491050	Both leading candidates have promised to create jobs.	Both leading canidates have promised to creat jobs.	260629136	1478961914000	1478961914048	i	73
510068	5491050	Both leading candidates have promised to create jobs.	Both leading canidates have promised to creat jobs.	260629137	1478961914080	1478961914208	s	83
510068	5491050	Both leading candidates have promised to create jobs.	Both leading canidates have promised to creat jobs.	260629138	1478961914176	1478961914256	e	69
510068	5491050	Both leading candidates have promised to create jobs.	Both leading canidates have promised to creat jobs.	260629139	1478961914352	1478961914448	d	68
510068	5491050	Both leading candidates have promised to create jobs.	Both leading canidates have promised to creat jobs.	260629140	1478961914449	1478961914528	 	32
510068	5491050	Both leading candidates have promised to create jobs.	Both leading canidates have promised to creat jobs.	260629141	1478961914608	1478961914672	t	84
510068	5491050	Both leading candidates have promised to create jobs.	Both leading canidates have promised to creat jobs.	260629142	1478961914673	1478961914752	o	79
510068	5491050	Both leading candidates have promised to create jobs.	Both leading canidates have promised to creat jobs.	260629143	1478961914753	1478961914864	 	32
510068	5491050	Both leading candidates have promised to create jobs.	Both leading canidates have promised to creat jobs.	260629156	1478961915072	1478961915200	c	67
510068	5491050	Both leading candidates have promised to create jobs.	Both leading canidates have promised to creat jobs.	260629157	1478961915312	1478961915472	r	82
510068	5491050	Both leading candidates have promised to create jobs.	Both leading canidates have promised to creat jobs.	260629158	1478961915408	1478961915568	e	69
510068	5491050	Both leading candidates have promised to create jobs.	Both leading canidates have promised to creat jobs.	260629159	1478961915473	1478961915601	a	65
510068	5491050	Both leading candidates have promised to create jobs.	Both leading canidates have promised to creat jobs.	260629160	1478961915601	1478961915713	t	84
510068	5491050	Both leading candidates have promised to create jobs.	Both leading canidates have promised to creat jobs.	260629183	1478961915729	1478961915809	 	32
510068	5491050	Both leading candidates have promised to create jobs.	Both leading canidates have promised to creat jobs.	260629184	1478961916657	1478961916737	j	74
510068	5491050	Both leading candidates have promised to create jobs.	Both leading canidates have promised to creat jobs.	260629186	1478961916738	1478961916897	o	79
510068	5491050	Both leading candidates have promised to create jobs.	Both leading canidates have promised to creat jobs.	260629188	1478961916849	1478961916945	b	66
510068	5491050	Both leading candidates have promised to create jobs.	Both leading canidates have promised to creat jobs.	260629190	1478961917041	1478961917121	s	83
510068	5491055	Last year I made some mistakes here.	Last year I made some mistakes here.	260629242	1478961919744	1478961920032	SHIFT	16
510068	5491055	Last year I made some mistakes here.	Last year I made some mistakes here.	260629240	1478961919872	1478961919968	L	76
510068	5491055	Last year I made some mistakes here.	Last year I made some mistakes here.	260629244	1478961920064	1478961920208	a	65
510068	5491055	Last year I made some mistakes here.	Last year I made some mistakes here.	260629246	1478961920176	1478961920272	s	83
510068	5491055	Last year I made some mistakes here.	Last year I made some mistakes here.	260629248	1478961920448	1478961920544	t	84
510068	5491055	Last year I made some mistakes here.	Last year I made some mistakes here.	260629250	1478961920608	1478961920704	 	32
510068	5491055	Last year I made some mistakes here.	Last year I made some mistakes here.	260629259	1478961920944	1478961921040	y	89
510068	5491055	Last year I made some mistakes here.	Last year I made some mistakes here.	260629261	1478961921104	1478961921280	e	69
510068	5491055	Last year I made some mistakes here.	Last year I made some mistakes here.	260629263	1478961921216	1478961921328	a	65
510068	5491055	Last year I made some mistakes here.	Last year I made some mistakes here.	260629265	1478961921312	1478961921424	r	82
510068	5491055	Last year I made some mistakes here.	Last year I made some mistakes here.	260629266	1478961921504	1478961921568	 	32
510068	5491055	Last year I made some mistakes here.	Last year I made some mistakes here.	260629278	1478961921872	1478961922064	SHIFT	16
510068	5491055	Last year I made some mistakes here.	Last year I made some mistakes here.	260629279	1478961921952	1478961922064	I	73
510068	5491055	Last year I made some mistakes here.	Last year I made some mistakes here.	260629280	1478961922016	1478961922144	 	32
510068	5491055	Last year I made some mistakes here.	Last year I made some mistakes here.	260629282	1478961922256	1478961922336	m	77
510068	5491055	Last year I made some mistakes here.	Last year I made some mistakes here.	260629284	1478961922336	1478961922432	a	65
510068	5491055	Last year I made some mistakes here.	Last year I made some mistakes here.	260629286	1478961922448	1478961922576	d	68
510068	5491055	Last year I made some mistakes here.	Last year I made some mistakes here.	260629303	1478961922544	1478961922640	e	69
510068	5491055	Last year I made some mistakes here.	Last year I made some mistakes here.	260629304	1478961922672	1478961922751	 	32
510068	5491055	Last year I made some mistakes here.	Last year I made some mistakes here.	260629305	1478961922720	1478961922784	a	65
510068	5491055	Last year I made some mistakes here.	Last year I made some mistakes here.	260629306	1478961922880	1478961922960	 	32
510068	5491055	Last year I made some mistakes here.	Last year I made some mistakes here.	260629307	1478961923008	1478961923088	s	83
510068	5491055	Last year I made some mistakes here.	Last year I made some mistakes here.	260629308	1478961923296	1478961923360	BKSP	8
510068	5491055	Last year I made some mistakes here.	Last year I made some mistakes here.	260629309	1478961923424	1478961923504	BKSP	8
510068	5491055	Last year I made some mistakes here.	Last year I made some mistakes here.	260629310	1478961923568	1478961923616	BKSP	8
510068	5491055	Last year I made some mistakes here.	Last year I made some mistakes here.	260629311	1478961923679	1478961923728	BKSP	8
510068	5491055	Last year I made some mistakes here.	Last year I made some mistakes here.	260629312	1478961924096	1478961924176	 	32
510068	5491055	Last year I made some mistakes here.	Last year I made some mistakes here.	260629313	1478961924240	1478961924320	s	83
510068	5491055	Last year I made some mistakes here.	Last year I made some mistakes here.	260629314	1478961924400	1478961924496	o	79
510068	5491055	Last year I made some mistakes here.	Last year I made some mistakes here.	260629315	1478961924447	1478961924559	m	77
510068	5491055	Last year I made some mistakes here.	Last year I made some mistakes here.	260629316	1478961924608	1478961924656	e	69
510068	5491055	Last year I made some mistakes here.	Last year I made some mistakes here.	260629317	1478961924703	1478961924784	 	32
510068	5491055	Last year I made some mistakes here.	Last year I made some mistakes here.	260629333	1478961925151	1478961925295	m	77
510068	5491055	Last year I made some mistakes here.	Last year I made some mistakes here.	260629334	1478961925248	1478961925343	i	73
510068	5491055	Last year I made some mistakes here.	Last year I made some mistakes here.	260629335	1478961925375	1478961925456	s	83
510068	5491055	Last year I made some mistakes here.	Last year I made some mistakes here.	260629336	1478961925664	1478961925775	t	84
510068	5491055	Last year I made some mistakes here.	Last year I made some mistakes here.	260629337	1478961925776	1478961925839	a	65
510068	5491055	Last year I made some mistakes here.	Last year I made some mistakes here.	260629345	1478961925887	1478961925983	k	75
510068	5491055	Last year I made some mistakes here.	Last year I made some mistakes here.	260629346	1478961925984	1478961926127	e	69
510068	5491055	Last year I made some mistakes here.	Last year I made some mistakes here.	260629347	1478961926063	1478961926160	s	83
510068	5491055	Last year I made some mistakes here.	Last year I made some mistakes here.	260629348	1478961926207	1478961926255	 	32
510068	5491055	Last year I made some mistakes here.	Last year I made some mistakes here.	260629349	1478961926848	1478961926895	h	72
510068	5491055	Last year I made some mistakes here.	Last year I made some mistakes here.	260629363	1478961926911	1478961927024	e	69
510068	5491055	Last year I made some mistakes here.	Last year I made some mistakes here.	260629365	1478961927024	1478961927119	r	82
510068	5491055	Last year I made some mistakes here.	Last year I made some mistakes here.	260629367	1478961927120	1478961927167	e	69
510068	5491059	Might include proposals with respect to Alaska.	Might include proposals with respect to Alaska.	260629387	1478961929919	1478961930271	SHIFT	16
510068	5491059	Might include proposals with respect to Alaska.	Might include proposals with respect to Alaska.	260629389	1478961930159	1478961930272	M	77
510068	5491059	Might include proposals with respect to Alaska.	Might include proposals with respect to Alaska.	260629391	1478961930287	1478961930399	i	73
510068	5491059	Might include proposals with respect to Alaska.	Might include proposals with respect to Alaska.	260629392	1478961930463	1478961930543	g	71
510068	5491059	Might include proposals with respect to Alaska.	Might include proposals with respect to Alaska.	260629393	1478961930544	1478961930639	h	72
510068	5491059	Might include proposals with respect to Alaska.	Might include proposals with respect to Alaska.	260629394	1478961930719	1478961930831	 	32
510068	5491059	Might include proposals with respect to Alaska.	Might include proposals with respect to Alaska.	260629430	1478961931327	1478961931391	BKSP	8
510068	5491059	Might include proposals with respect to Alaska.	Might include proposals with respect to Alaska.	260629432	1478961931455	1478961931519	BKSP	8
510068	5491059	Might include proposals with respect to Alaska.	Might include proposals with respect to Alaska.	260629434	1478961932335	1478961932415	h	72
510068	5491059	Might include proposals with respect to Alaska.	Might include proposals with respect to Alaska.	260629436	1478961932415	1478961932479	t	84
510068	5491059	Might include proposals with respect to Alaska.	Might include proposals with respect to Alaska.	260629438	1478961932511	1478961932607	 	32
510068	5491059	Might include proposals with respect to Alaska.	Might include proposals with respect to Alaska.	260629440	1478961932879	1478961933055	SHIFT	16
510068	5491059	Might include proposals with respect to Alaska.	Might include proposals with respect to Alaska.	260629442	1478961933200	1478961933280	i	73
510068	5491059	Might include proposals with respect to Alaska.	Might include proposals with respect to Alaska.	260629445	1478961934240	1478961934272	m	77
510068	5491059	Might include proposals with respect to Alaska.	Might include proposals with respect to Alaska.	260629460	1478961934592	1478961934656	BKSP	8
510068	5491059	Might include proposals with respect to Alaska.	Might include proposals with respect to Alaska.	260629461	1478961934784	1478961934864	n	78
510068	5491059	Might include proposals with respect to Alaska.	Might include proposals with respect to Alaska.	260629462	1478961935024	1478961935088	c	67
510068	5491059	Might include proposals with respect to Alaska.	Might include proposals with respect to Alaska.	260629463	1478961935136	1478961935200	u	85
510068	5491059	Might include proposals with respect to Alaska.	Might include proposals with respect to Alaska.	260629464	1478961935360	1478961935424	l	76
510068	5491059	Might include proposals with respect to Alaska.	Might include proposals with respect to Alaska.	260629516	1478961935584	1478961935632	f	68
510068	5491059	Might include proposals with respect to Alaska.	Might include proposals with respect to Alaska.	260629517	1478961936064	1478961936112	BKSP	8
510068	5491059	Might include proposals with respect to Alaska.	Might include proposals with respect to Alaska.	260629518	1478961936208	1478961936224	BKSP	8
510068	5491059	Might include proposals with respect to Alaska.	Might include proposals with respect to Alaska.	260629519	1478961936432	1478961936496	e	69
510068	5491059	Might include proposals with respect to Alaska.	Might include proposals with respect to Alaska.	260629521	1478961936784	1478961936864	BKSP	8
510068	5491059	Might include proposals with respect to Alaska.	Might include proposals with respect to Alaska.	260629523	1478961936880	1478961936992	d	68
510068	5491059	Might include proposals with respect to Alaska.	Might include proposals with respect to Alaska.	260629525	1478961936960	1478961937040	e	69
510068	5491059	Might include proposals with respect to Alaska.	Might include proposals with respect to Alaska.	260629527	1478961937056	1478961937120	 	32
510068	5491059	Might include proposals with respect to Alaska.	Might include proposals with respect to Alaska.	260629529	1478961937600	1478961937664	BKSP	8
510068	5491059	Might include proposals with respect to Alaska.	Might include proposals with respect to Alaska.	260629531	1478961937744	1478961937824	BKSP	8
510068	5491059	Might include proposals with respect to Alaska.	Might include proposals with respect to Alaska.	260629532	1478961937888	1478961937952	BKSP	8
510068	5491059	Might include proposals with respect to Alaska.	Might include proposals with respect to Alaska.	260629533	1478961938032	1478961938080	BKSP	8
510068	5491059	Might include proposals with respect to Alaska.	Might include proposals with respect to Alaska.	260629534	1478961938240	1478961938288	BKSP	8
510068	5491059	Might include proposals with respect to Alaska.	Might include proposals with respect to Alaska.	260629535	1478961938928	1478961939024	l	76
510068	5491059	Might include proposals with respect to Alaska.	Might include proposals with respect to Alaska.	260629555	1478961940032	1478961940112	BKSP	8
510068	5491059	Might include proposals with respect to Alaska.	Might include proposals with respect to Alaska.	260629557	1478961940640	1478961940704	l	76
510068	5491059	Might include proposals with respect to Alaska.	Might include proposals with respect to Alaska.	260629559	1478961940832	1478961940880	u	85
510068	5491059	Might include proposals with respect to Alaska.	Might include proposals with respect to Alaska.	260629560	1478961940960	1478961941087	d	68
510068	5491059	Might include proposals with respect to Alaska.	Might include proposals with respect to Alaska.	260629561	1478961941024	1478961941119	e	69
510068	5491059	Might include proposals with respect to Alaska.	Might include proposals with respect to Alaska.	260629562	1478961941135	1478961941216	 	32
510068	5491059	Might include proposals with respect to Alaska.	Might include proposals with respect to Alaska.	260629568	1478961941568	1478961941599	p	80
510068	5491059	Might include proposals with respect to Alaska.	Might include proposals with respect to Alaska.	260629569	1478961941631	1478961941695	r	82
510068	5491059	Might include proposals with respect to Alaska.	Might include proposals with respect to Alaska.	260629570	1478961941776	1478961941888	o	79
510068	5491059	Might include proposals with respect to Alaska.	Might include proposals with respect to Alaska.	260629571	1478961942335	1478961942463	p	80
510068	5491059	Might include proposals with respect to Alaska.	Might include proposals with respect to Alaska.	260629579	1478961942431	1478961942495	o	79
510068	5491059	Might include proposals with respect to Alaska.	Might include proposals with respect to Alaska.	260629581	1478961942911	1478961943023	s	83
510068	5491059	Might include proposals with respect to Alaska.	Might include proposals with respect to Alaska.	260629583	1478961942975	1478961943087	a	65
510068	5491059	Might include proposals with respect to Alaska.	Might include proposals with respect to Alaska.	260629585	1478961943088	1478961943167	l	76
510068	5491059	Might include proposals with respect to Alaska.	Might include proposals with respect to Alaska.	260629587	1478961943264	1478961943375	s	83
510068	5491059	Might include proposals with respect to Alaska.	Might include proposals with respect to Alaska.	260629588	1478961943376	1478961943455	 	32
510068	5491059	Might include proposals with respect to Alaska.	Might include proposals with respect to Alaska.	260629595	1478961943599	1478961943695	w	87
510068	5491059	Might include proposals with respect to Alaska.	Might include proposals with respect to Alaska.	260629596	1478961943727	1478961943791	i	73
510068	5491059	Might include proposals with respect to Alaska.	Might include proposals with respect to Alaska.	260629597	1478961943807	1478961943903	t	84
510068	5491059	Might include proposals with respect to Alaska.	Might include proposals with respect to Alaska.	260629598	1478961943951	1478961944015	h	72
510068	5491059	Might include proposals with respect to Alaska.	Might include proposals with respect to Alaska.	260629618	1478961943999	1478961944111	 	32
510068	5491059	Might include proposals with respect to Alaska.	Might include proposals with respect to Alaska.	260629619	1478961944927	1478961945007	r	82
510068	5491059	Might include proposals with respect to Alaska.	Might include proposals with respect to Alaska.	260629620	1478961944959	1478961945071	e	69
510068	5491059	Might include proposals with respect to Alaska.	Might include proposals with respect to Alaska.	260629621	1478961945103	1478961945215	s	83
510068	5491059	Might include proposals with respect to Alaska.	Might include proposals with respect to Alaska.	260629622	1478961945375	1478961945455	p	80
510068	5491059	Might include proposals with respect to Alaska.	Might include proposals with respect to Alaska.	260629623	1478961945456	1478961945551	e	69
510068	5491059	Might include proposals with respect to Alaska.	Might include proposals with respect to Alaska.	260629638	1478961945727	1478961945839	c	67
510068	5491059	Might include proposals with respect to Alaska.	Might include proposals with respect to Alaska.	260629639	1478961946047	1478961946143	 	32
510068	5491059	Might include proposals with respect to Alaska.	Might include proposals with respect to Alaska.	260629640	1478961946207	1478961946271	t	84
510068	5491059	Might include proposals with respect to Alaska.	Might include proposals with respect to Alaska.	260629641	1478961946511	1478961946543	BKSP	8
510068	5491059	Might include proposals with respect to Alaska.	Might include proposals with respect to Alaska.	260629642	1478961946639	1478961946687	BKSP	8
510068	5491059	Might include proposals with respect to Alaska.	Might include proposals with respect to Alaska.	260629643	1478961946767	1478961946815	BKSP	8
510068	5491059	Might include proposals with respect to Alaska.	Might include proposals with respect to Alaska.	260629644	1478961946879	1478961946959	t	84
510068	5491059	Might include proposals with respect to Alaska.	Might include proposals with respect to Alaska.	260629645	1478961946960	1478961947087	 	32
510068	5491059	Might include proposals with respect to Alaska.	Might include proposals with respect to Alaska.	260629662	1478961947455	1478961947503	BKSP	8
510068	5491059	Might include proposals with respect to Alaska.	Might include proposals with respect to Alaska.	260629663	1478961947583	1478961947647	BKSP	8
510068	5491059	Might include proposals with respect to Alaska.	Might include proposals with respect to Alaska.	260629664	1478961947695	1478961947759	BKSP	8
510068	5491059	Might include proposals with respect to Alaska.	Might include proposals with respect to Alaska.	260629665	1478961947839	1478961947855	BKSP	8
510068	5491059	Might include proposals with respect to Alaska.	Might include proposals with respect to Alaska.	260629666	1478961948575	1478961948623	p	80
510068	5491059	Might include proposals with respect to Alaska.	Might include proposals with respect to Alaska.	260629667	1478961948624	1478961948687	e	69
510068	5491059	Might include proposals with respect to Alaska.	Might include proposals with respect to Alaska.	260629668	1478961948799	1478961948879	c	67
510068	5491059	Might include proposals with respect to Alaska.	Might include proposals with respect to Alaska.	260629670	1478961949007	1478961949055	t	84
510068	5491059	Might include proposals with respect to Alaska.	Might include proposals with respect to Alaska.	260629672	1478961949055	1478961949151	 	32
510068	5491059	Might include proposals with respect to Alaska.	Might include proposals with respect to Alaska.	260629699	1478961949311	1478961949407	t	84
510068	5491059	Might include proposals with respect to Alaska.	Might include proposals with respect to Alaska.	260629701	1478961949407	1478961949471	o	79
510068	5491059	Might include proposals with respect to Alaska.	Might include proposals with respect to Alaska.	260629702	1478961949455	1478961949551	 	32
510068	5491059	Might include proposals with respect to Alaska.	Might include proposals with respect to Alaska.	260629703	1478961949855	1478961949887	a	65
510068	5491059	Might include proposals with respect to Alaska.	Might include proposals with respect to Alaska.	260629704	1478961950159	1478961950271	SHIFT	16
510068	5491059	Might include proposals with respect to Alaska.	Might include proposals with respect to Alaska.	260629705	1478961950271	1478961950335	BKSP	8
510068	5491059	Might include proposals with respect to Alaska.	Might include proposals with respect to Alaska.	260629729	1478961950399	1478961950800	SHIFT	16
510068	5491059	Might include proposals with respect to Alaska.	Might include proposals with respect to Alaska.	260629706	1478961950656	1478961950768	A	65
510068	5491059	Might include proposals with respect to Alaska.	Might include proposals with respect to Alaska.	260629731	1478961950752	1478961950832	L	76
510068	5491059	Might include proposals with respect to Alaska.	Might include proposals with respect to Alaska.	260629733	1478961951680	1478961951760	BKSP	8
510068	5491059	Might include proposals with respect to Alaska.	Might include proposals with respect to Alaska.	260629735	1478961951840	1478961951952	l	76
510068	5491059	Might include proposals with respect to Alaska.	Might include proposals with respect to Alaska.	260629739	1478961952064	1478961952208	a	65
510068	5491059	Might include proposals with respect to Alaska.	Might include proposals with respect to Alaska.	260629741	1478961952176	1478961952320	s	83
510068	5491059	Might include proposals with respect to Alaska.	Might include proposals with respect to Alaska.	260629743	1478961952400	1478961952480	k	75
510068	5491059	Might include proposals with respect to Alaska.	Might include proposals with respect to Alaska.	260629745	1478961952576	1478961952624	a	65
510068	5491059	Might include proposals with respect to Alaska.	Might include proposals with respect to Alaska.	260629754	1478961952672	1478961952768	 	32
510068	5491059	Might include proposals with respect to Alaska.	Might include proposals with respect to Alaska.	260629756	1478961953072	1478961953136	BKSP	8
510068	5491064	There were frequent electricity and water shortages.	There were frequent electricity and water shortages.	260629818	1478961958143	1478961958591	SHIFT	16
510068	5491064	There were frequent electricity and water shortages.	There were frequent electricity and water shortages.	260629817	1478961958399	1478961958543	T	84
510068	5491064	There were frequent electricity and water shortages.	There were frequent electricity and water shortages.	260629819	1478961958592	1478961958671	h	72
510068	5491064	There were frequent electricity and water shortages.	There were frequent electricity and water shortages.	260629820	1478961959183	1478961959263	e	69
510068	5491064	There were frequent electricity and water shortages.	There were frequent electricity and water shortages.	260629821	1478961959247	1478961959359	r	82
510068	5491064	There were frequent electricity and water shortages.	There were frequent electricity and water shortages.	260629834	1478961959327	1478961959439	e	69
510068	5491064	There were frequent electricity and water shortages.	There were frequent electricity and water shortages.	260629837	1478961959471	1478961959535	 	32
510068	5491064	There were frequent electricity and water shortages.	There were frequent electricity and water shortages.	260629839	1478961959935	1478961960047	w	87
510068	5491064	There were frequent electricity and water shortages.	There were frequent electricity and water shortages.	260629840	1478961959999	1478961960079	e	69
510068	5491064	There were frequent electricity and water shortages.	There were frequent electricity and water shortages.	260629841	1478961960047	1478961960159	r	82
510068	5491064	There were frequent electricity and water shortages.	There were frequent electricity and water shortages.	260629842	1478961960255	1478961960367	 	32
510068	5491064	There were frequent electricity and water shortages.	There were frequent electricity and water shortages.	260629865	1478961960687	1478961960751	BKSP	8
510068	5491064	There were frequent electricity and water shortages.	There were frequent electricity and water shortages.	260629866	1478961960831	1478961960879	BKSP	8
510068	5491064	There were frequent electricity and water shortages.	There were frequent electricity and water shortages.	260629867	1478961960911	1478961960975	e	69
510068	5491064	There were frequent electricity and water shortages.	There were frequent electricity and water shortages.	260629868	1478961961391	1478961961455	BKSP	8
510068	5491064	There were frequent electricity and water shortages.	There were frequent electricity and water shortages.	260629869	1478961961503	1478961961583	r	82
510068	5491064	There were frequent electricity and water shortages.	There were frequent electricity and water shortages.	260629870	1478961961567	1478961961647	e	69
510068	5491064	There were frequent electricity and water shortages.	There were frequent electricity and water shortages.	260629871	1478961961711	1478961961823	 	32
510068	5491064	There were frequent electricity and water shortages.	There were frequent electricity and water shortages.	260629872	1478961961999	1478961962095	f	70
510068	5491064	There were frequent electricity and water shortages.	There were frequent electricity and water shortages.	260629888	1478961962207	1478961962319	r	82
510068	5491064	There were frequent electricity and water shortages.	There were frequent electricity and water shortages.	260629890	1478961962271	1478961962383	e	69
510068	5491064	There were frequent electricity and water shortages.	There were frequent electricity and water shortages.	260629892	1478961963343	1478961963423	q	81
510068	5491064	There were frequent electricity and water shortages.	There were frequent electricity and water shortages.	260629894	1478961963487	1478961963535	u	85
510068	5491064	There were frequent electricity and water shortages.	There were frequent electricity and water shortages.	260629896	1478961963599	1478961963663	e	69
510068	5491064	There were frequent electricity and water shortages.	There were frequent electricity and water shortages.	260629899	1478961963695	1478961963743	n	78
510068	5491064	There were frequent electricity and water shortages.	There were frequent electricity and water shortages.	260629900	1478961963791	1478961963855	t	84
510068	5491064	There were frequent electricity and water shortages.	There were frequent electricity and water shortages.	260629901	1478961963871	1478961963967	 	32
510068	5491064	There were frequent electricity and water shortages.	There were frequent electricity and water shortages.	260629902	1478961964383	1478961964463	e	69
510068	5491064	There were frequent electricity and water shortages.	There were frequent electricity and water shortages.	260629903	1478961964495	1478961964559	l	76
510068	5491064	There were frequent electricity and water shortages.	There were frequent electricity and water shortages.	260629913	1478961964703	1478961964767	e	69
510068	5491064	There were frequent electricity and water shortages.	There were frequent electricity and water shortages.	260629916	1478961964959	1478961965039	c	67
510068	5491064	There were frequent electricity and water shortages.	There were frequent electricity and water shortages.	260629918	1478961965231	1478961965311	t	84
510068	5491064	There were frequent electricity and water shortages.	There were frequent electricity and water shortages.	260629919	1478961965407	1478961965487	r	82
510068	5491064	There were frequent electricity and water shortages.	There were frequent electricity and water shortages.	260629920	1478961965999	1478961966063	i	73
510068	5491064	There were frequent electricity and water shortages.	There were frequent electricity and water shortages.	260629948	1478961966575	1478961966639	c	67
510068	5491064	There were frequent electricity and water shortages.	There were frequent electricity and water shortages.	260629949	1478961966687	1478961966751	i	73
510068	5491064	There were frequent electricity and water shortages.	There were frequent electricity and water shortages.	260629950	1478961967071	1478961967135	y	89
510068	5491064	There were frequent electricity and water shortages.	There were frequent electricity and water shortages.	260629951	1478961967103	1478961967135	u	85
510068	5491064	There were frequent electricity and water shortages.	There were frequent electricity and water shortages.	260629952	1478961967343	1478961967423	BKSP	8
510068	5491064	There were frequent electricity and water shortages.	There were frequent electricity and water shortages.	260629953	1478961967487	1478961967551	t	84
510068	5491064	There were frequent electricity and water shortages.	There were frequent electricity and water shortages.	260629976	1478961967584	1478961967679	y	89
510068	5491064	There were frequent electricity and water shortages.	There were frequent electricity and water shortages.	260629977	1478961967935	1478961967983	BKSP	8
510068	5491064	There were frequent electricity and water shortages.	There were frequent electricity and water shortages.	260629978	1478961968080	1478961968208	BKSP	8
510068	5491064	There were frequent electricity and water shortages.	There were frequent electricity and water shortages.	260629979	1478961968416	1478961968480	BKSP	8
510068	5491064	There were frequent electricity and water shortages.	There were frequent electricity and water shortages.	260629980	1478961968592	1478961968656	t	84
510068	5491064	There were frequent electricity and water shortages.	There were frequent electricity and water shortages.	260629981	1478961968656	1478961968752	y	89
510068	5491064	There were frequent electricity and water shortages.	There were frequent electricity and water shortages.	260629983	1478961968832	1478961968928	 	32
510068	5491064	There were frequent electricity and water shortages.	There were frequent electricity and water shortages.	260629985	1478961968976	1478961969104	a	65
510068	5491064	There were frequent electricity and water shortages.	There were frequent electricity and water shortages.	260629999	1478961969120	1478961969152	n	78
510068	5491064	There were frequent electricity and water shortages.	There were frequent electricity and water shortages.	260630000	1478961969568	1478961969664	d	68
510068	5491064	There were frequent electricity and water shortages.	There were frequent electricity and water shortages.	260630001	1478961969664	1478961969776	 	32
510068	5491064	There were frequent electricity and water shortages.	There were frequent electricity and water shortages.	260630002	1478961970064	1478961970224	w	87
510068	5491064	There were frequent electricity and water shortages.	There were frequent electricity and water shortages.	260630033	1478961970304	1478961970447	a	65
510068	5491064	There were frequent electricity and water shortages.	There were frequent electricity and water shortages.	260630003	1478961970352	1478961970432	r	82
510068	5491064	There were frequent electricity and water shortages.	There were frequent electricity and water shortages.	260630035	1478961970752	1478961970800	BKSP	8
510068	5491064	There were frequent electricity and water shortages.	There were frequent electricity and water shortages.	260630037	1478961971008	1478961971120	r	82
510068	5491064	There were frequent electricity and water shortages.	There were frequent electricity and water shortages.	260630039	1478961971664	1478961971728	BKSP	8
510068	5491064	There were frequent electricity and water shortages.	There were frequent electricity and water shortages.	260630041	1478961971776	1478961971919	t	84
510068	5491064	There were frequent electricity and water shortages.	There were frequent electricity and water shortages.	260630043	1478961971951	1478961972127	e	69
510068	5491064	There were frequent electricity and water shortages.	There were frequent electricity and water shortages.	260630046	1478961972096	1478961972207	r	82
510068	5491064	There were frequent electricity and water shortages.	There were frequent electricity and water shortages.	260630049	1478961972671	1478961972783	 	32
510068	5491064	There were frequent electricity and water shortages.	There were frequent electricity and water shortages.	260630061	1478961973007	1478961973087	s	83
510068	5491064	There were frequent electricity and water shortages.	There were frequent electricity and water shortages.	260630063	1478961973248	1478961973359	h	72
510068	5491064	There were frequent electricity and water shortages.	There were frequent electricity and water shortages.	260630065	1478961973296	1478961973391	o	79
510068	5491064	There were frequent electricity and water shortages.	There were frequent electricity and water shortages.	260630067	1478961973471	1478961973583	r	82
510068	5491064	There were frequent electricity and water shortages.	There were frequent electricity and water shortages.	260630069	1478961973904	1478961973983	t	84
510068	5491064	There were frequent electricity and water shortages.	There were frequent electricity and water shortages.	260630077	1478961973984	1478961974128	a	65
510068	5491064	There were frequent electricity and water shortages.	There were frequent electricity and water shortages.	260630078	1478961974239	1478961974367	g	71
510068	5491064	There were frequent electricity and water shortages.	There were frequent electricity and water shortages.	260630079	1478961974319	1478961974463	e	69
510068	5491064	There were frequent electricity and water shortages.	There were frequent electricity and water shortages.	260630080	1478961974431	1478961974543	s	83
