PARTICIPANT_ID	TEST_SECTION_ID	SENTENCE	USER_INPUT	KEYSTROKE_ID	PRESS_TIME	RELEASE_TIME	LETTER	KEYCODE
510189	5492522	Mostly a social call.	Mostly a social call	260700068	1478965245536	1478965246391	SHIFT	16
510189	5492522	Mostly a social call.	Mostly a social call	260700069	1478965246295	1478965246404	M	77
510189	5492522	Mostly a social call.	Mostly a social call	260700071	1478965246984	1478965247075	o	79
510189	5492522	Mostly a social call.	Mostly a social call	260700073	1478965247044	1478965247162	s	83
510189	5492522	Mostly a social call.	Mostly a social call	260700075	1478965247272	1478965247383	t	84
510189	5492522	Mostly a social call.	Mostly a social call	260700078	1478965247388	1478965247495	l	76
510189	5492522	Mostly a social call.	Mostly a social call	260700105	1478965248023	1478965248148	y	89
510189	5492522	Mostly a social call.	Mostly a social call	260700106	1478965248096	1478965248219	 	32
510189	5492522	Mostly a social call.	Mostly a social call	260700107	1478965248291	1478965248414	a	65
510189	5492522	Mostly a social call.	Mostly a social call	260700108	1478965248463	1478965248570	 	32
510189	5492522	Mostly a social call.	Mostly a social call	260700110	1478965248604	1478965248719	c	67
510189	5492522	Mostly a social call.	Mostly a social call	260700148	1478965249124	1478965249248	BKSP	8
510189	5492522	Mostly a social call.	Mostly a social call	260700150	1478965249260	1478965249451	s	83
510189	5492522	Mostly a social call.	Mostly a social call	260700153	1478965249395	1478965249520	c	67
510189	5492522	Mostly a social call.	Mostly a social call	260700155	1478965249527	1478965249687	o	79
510189	5492522	Mostly a social call.	Mostly a social call	260700156	1478965250020	1478965250102	BKSP	8
510189	5492522	Mostly a social call.	Mostly a social call	260700157	1478965250163	1478965250275	BKSP	8
510189	5492522	Mostly a social call.	Mostly a social call	260700158	1478965250383	1478965250499	o	79
510189	5492522	Mostly a social call.	Mostly a social call	260700159	1478965250544	1478965250651	c	67
510189	5492522	Mostly a social call.	Mostly a social call	260700176	1478965250691	1478965250804	i	73
510189	5492522	Mostly a social call.	Mostly a social call	260700179	1478965250796	1478965250890	a	65
510189	5492522	Mostly a social call.	Mostly a social call	260700180	1478965250947	1478965251082	l	76
510189	5492522	Mostly a social call.	Mostly a social call	260700181	1478965251127	1478965251238	 	32
510189	5492522	Mostly a social call.	Mostly a social call	260700182	1478965251315	1478965251487	c	67
510189	5492522	Mostly a social call.	Mostly a social call	260700186	1478965251424	1478965251523	a	65
510189	5492522	Mostly a social call.	Mostly a social call	260700188	1478965251527	1478965251606	l	76
510189	5492526	And I can't turn my phone on.	And i can't turn my phone on	260700269	1478965254862	1478965255414	SHIFT	16
510189	5492526	And I can't turn my phone on.	And i can't turn my phone on	260700268	1478965255191	1478965255359	A	65
510189	5492526	And I can't turn my phone on.	And i can't turn my phone on	260700270	1478965255694	1478965255795	n	78
510189	5492526	And I can't turn my phone on.	And i can't turn my phone on	260700271	1478965255799	1478965255903	d	68
510189	5492526	And I can't turn my phone on.	And i can't turn my phone on	260700272	1478965255906	1478965256015	 	32
510189	5492526	And I can't turn my phone on.	And i can't turn my phone on	260700310	1478965256168	1478965256318	o	73
510189	5492526	And I can't turn my phone on.	And i can't turn my phone on	260700311	1478965256618	1478965256730	BKSP	8
510189	5492526	And I can't turn my phone on.	And i can't turn my phone on	260700312	1478965257122	1478965257242	 	32
510189	5492526	And I can't turn my phone on.	And i can't turn my phone on	260700313	1478965257302	1478965257464	c	67
510189	5492526	And I can't turn my phone on.	And i can't turn my phone on	260700314	1478965257387	1478965257522	a	65
510189	5492526	And I can't turn my phone on.	And i can't turn my phone on	260700315	1478965257499	1478965257602	n	78
510189	5492526	And I can't turn my phone on.	And i can't turn my phone on	260700316	1478965258450	1478965258586	'	192
510189	5492526	And I can't turn my phone on.	And i can't turn my phone on	260700333	1478965258588	1478965258664	t	84
510189	5492526	And I can't turn my phone on.	And i can't turn my phone on	260700335	1478965258666	1478965258779	 	32
510189	5492526	And I can't turn my phone on.	And i can't turn my phone on	260700337	1478965259046	1478965259154	t	84
510189	5492526	And I can't turn my phone on.	And i can't turn my phone on	260700338	1478965259267	1478965259386	u	85
510189	5492526	And I can't turn my phone on.	And i can't turn my phone on	260700339	1478965259414	1478965259502	r	82
510189	5492526	And I can't turn my phone on.	And i can't turn my phone on	260700346	1478965259518	1478965259623	n	78
510189	5492526	And I can't turn my phone on.	And i can't turn my phone on	260700348	1478965259702	1478965259822	 	32
510189	5492526	And I can't turn my phone on.	And i can't turn my phone on	260700350	1478965259866	1478965259983	m	77
510189	5492526	And I can't turn my phone on.	And i can't turn my phone on	260700352	1478965260019	1478965260102	y	89
510189	5492526	And I can't turn my phone on.	And i can't turn my phone on	260700362	1478965260095	1478965260203	 	32
510189	5492526	And I can't turn my phone on.	And i can't turn my phone on	260700363	1478965260402	1478965260526	p	80
510189	5492526	And I can't turn my phone on.	And i can't turn my phone on	260700364	1478965260520	1478965260614	h	72
510189	5492526	And I can't turn my phone on.	And i can't turn my phone on	260700365	1478965260662	1478965260858	o	79
510189	5492526	And I can't turn my phone on.	And i can't turn my phone on	260700366	1478965260754	1478965260899	n	78
510189	5492526	And I can't turn my phone on.	And i can't turn my phone on	260700367	1478965260954	1478965261046	e	69
510189	5492526	And I can't turn my phone on.	And i can't turn my phone on	260700368	1478965261014	1478965261154	 	32
510189	5492526	And I can't turn my phone on.	And i can't turn my phone on	260700369	1478965261151	1478965261362	o	79
510189	5492526	And I can't turn my phone on.	And i can't turn my phone on	260700370	1478965261262	1478965261390	n	78
510189	5492530	I don't have Lost Creek yet - hopefully before you leave.	I don't have Lost Creek yet - Hopefully before you leave	260700486	1478965269011	1478965269958	SHIFT	16
510189	5492530	I don't have Lost Creek yet - hopefully before you leave.	I don't have Lost Creek yet - Hopefully before you leave	260700482	1478965269842	1478965269930	I	73
510189	5492530	I don't have Lost Creek yet - hopefully before you leave.	I don't have Lost Creek yet - Hopefully before you leave	260700489	1478965270038	1478965270166	 	32
510189	5492530	I don't have Lost Creek yet - hopefully before you leave.	I don't have Lost Creek yet - Hopefully before you leave	260700492	1478965270250	1478965270358	d	68
510189	5492530	I don't have Lost Creek yet - hopefully before you leave.	I don't have Lost Creek yet - Hopefully before you leave	260700495	1478965270275	1478965270447	o	79
510189	5492530	I don't have Lost Creek yet - hopefully before you leave.	I don't have Lost Creek yet - Hopefully before you leave	260700505	1478965270390	1478965270514	n	78
510189	5492530	I don't have Lost Creek yet - hopefully before you leave.	I don't have Lost Creek yet - Hopefully before you leave	260700506	1478965270502	1478965270590	t	84
510189	5492530	I don't have Lost Creek yet - hopefully before you leave.	I don't have Lost Creek yet - Hopefully before you leave	260700508	1478965270607	1478965270726	 	32
510189	5492530	I don't have Lost Creek yet - hopefully before you leave.	I don't have Lost Creek yet - Hopefully before you leave	260700511	1478965270762	1478965270886	h	72
510189	5492530	I don't have Lost Creek yet - hopefully before you leave.	I don't have Lost Creek yet - Hopefully before you leave	260700514	1478965270910	1478965271026	a	65
510189	5492530	I don't have Lost Creek yet - hopefully before you leave.	I don't have Lost Creek yet - Hopefully before you leave	260700554	1478965270995	1478965271102	v	86
510189	5492530	I don't have Lost Creek yet - hopefully before you leave.	I don't have Lost Creek yet - Hopefully before you leave	260700555	1478965271122	1478965271231	e	69
510189	5492530	I don't have Lost Creek yet - hopefully before you leave.	I don't have Lost Creek yet - Hopefully before you leave	260700556	1478965271234	1478965271354	 	32
510189	5492530	I don't have Lost Creek yet - hopefully before you leave.	I don't have Lost Creek yet - Hopefully before you leave	260700557	1478965271774	1478965271870	BKSP	8
510189	5492530	I don't have Lost Creek yet - hopefully before you leave.	I don't have Lost Creek yet - Hopefully before you leave	260700558	1478965271927	1478965272034	BKSP	8
510189	5492530	I don't have Lost Creek yet - hopefully before you leave.	I don't have Lost Creek yet - Hopefully before you leave	260700559	1478965272074	1478965272162	BKSP	8
510189	5492530	I don't have Lost Creek yet - hopefully before you leave.	I don't have Lost Creek yet - Hopefully before you leave	260700560	1478965272219	1478965272306	BKSP	8
510189	5492530	I don't have Lost Creek yet - hopefully before you leave.	I don't have Lost Creek yet - Hopefully before you leave	260700561	1478965272323	1478965272415	BKSP	8
510189	5492530	I don't have Lost Creek yet - hopefully before you leave.	I don't have Lost Creek yet - Hopefully before you leave	260700562	1478965272455	1478965272546	BKSP	8
510189	5492530	I don't have Lost Creek yet - hopefully before you leave.	I don't have Lost Creek yet - Hopefully before you leave	260700563	1478965272582	1478965272690	BKSP	8
510189	5492530	I don't have Lost Creek yet - hopefully before you leave.	I don't have Lost Creek yet - Hopefully before you leave	260700564	1478965273482	1478965273606	'	192
510189	5492530	I don't have Lost Creek yet - hopefully before you leave.	I don't have Lost Creek yet - Hopefully before you leave	260700565	1478965273718	1478965273802	t	84
510189	5492530	I don't have Lost Creek yet - hopefully before you leave.	I don't have Lost Creek yet - Hopefully before you leave	260700566	1478965273842	1478965273950	 	32
510189	5492530	I don't have Lost Creek yet - hopefully before you leave.	I don't have Lost Creek yet - Hopefully before you leave	260700567	1478965274083	1478965274203	h	72
510189	5492530	I don't have Lost Creek yet - hopefully before you leave.	I don't have Lost Creek yet - Hopefully before you leave	260700569	1478965274214	1478965274330	a	65
510189	5492530	I don't have Lost Creek yet - hopefully before you leave.	I don't have Lost Creek yet - Hopefully before you leave	260700571	1478965274318	1478965274430	v	86
510189	5492530	I don't have Lost Creek yet - hopefully before you leave.	I don't have Lost Creek yet - Hopefully before you leave	260700573	1478965274471	1478965274582	e	69
510189	5492530	I don't have Lost Creek yet - hopefully before you leave.	I don't have Lost Creek yet - Hopefully before you leave	260700625	1478965274566	1478965274682	 	32
510189	5492530	I don't have Lost Creek yet - hopefully before you leave.	I don't have Lost Creek yet - Hopefully before you leave	260700626	1478965274679	1478965274783	a	65
510189	5492530	I don't have Lost Creek yet - hopefully before you leave.	I don't have Lost Creek yet - Hopefully before you leave	260700627	1478965274794	1478965274918	 	32
510189	5492530	I don't have Lost Creek yet - hopefully before you leave.	I don't have Lost Creek yet - Hopefully before you leave	260700628	1478965275091	1478965275198	BKSP	8
510189	5492530	I don't have Lost Creek yet - hopefully before you leave.	I don't have Lost Creek yet - Hopefully before you leave	260700629	1478965275250	1478965275358	BKSP	8
510189	5492530	I don't have Lost Creek yet - hopefully before you leave.	I don't have Lost Creek yet - Hopefully before you leave	260700632	1478965275927	1478965276058	s	83
510189	5492530	I don't have Lost Creek yet - hopefully before you leave.	I don't have Lost Creek yet - Hopefully before you leave	260700634	1478965276394	1478965276538	BKSP	8
510189	5492530	I don't have Lost Creek yet - hopefully before you leave.	I don't have Lost Creek yet - Hopefully before you leave	260700636	1478965276658	1478965276738	o	79
510189	5492530	I don't have Lost Creek yet - hopefully before you leave.	I don't have Lost Creek yet - Hopefully before you leave	260700638	1478965276863	1478965276975	BKSP	8
510189	5492530	I don't have Lost Creek yet - hopefully before you leave.	I don't have Lost Creek yet - Hopefully before you leave	260700643	1478965277026	1478965277162	BKSP	8
510189	5492530	I don't have Lost Creek yet - hopefully before you leave.	I don't have Lost Creek yet - Hopefully before you leave	260700647	1478965277258	1478965277374	 	32
510189	5492530	I don't have Lost Creek yet - hopefully before you leave.	I don't have Lost Creek yet - Hopefully before you leave	260700666	1478965277442	1478965277670	SHIFT	16
510189	5492530	I don't have Lost Creek yet - hopefully before you leave.	I don't have Lost Creek yet - Hopefully before you leave	260700668	1478965277571	1478965277682	L	76
510189	5492530	I don't have Lost Creek yet - hopefully before you leave.	I don't have Lost Creek yet - Hopefully before you leave	260700669	1478965277970	1478965278066	o	79
510189	5492530	I don't have Lost Creek yet - hopefully before you leave.	I don't have Lost Creek yet - Hopefully before you leave	260700670	1478965278082	1478965278298	s	83
510189	5492530	I don't have Lost Creek yet - hopefully before you leave.	I don't have Lost Creek yet - Hopefully before you leave	260700671	1478965278246	1478965278339	t	84
510189	5492530	I don't have Lost Creek yet - hopefully before you leave.	I don't have Lost Creek yet - Hopefully before you leave	260700672	1478965278698	1478965278814	 	32
510189	5492530	I don't have Lost Creek yet - hopefully before you leave.	I don't have Lost Creek yet - Hopefully before you leave	260700711	1478965278851	1478965279166	SHIFT	16
510189	5492530	I don't have Lost Creek yet - hopefully before you leave.	I don't have Lost Creek yet - Hopefully before you leave	260700709	1478965278991	1478965279126	C	67
510189	5492530	I don't have Lost Creek yet - hopefully before you leave.	I don't have Lost Creek yet - Hopefully before you leave	260700712	1478965279274	1478965279414	r	82
510189	5492530	I don't have Lost Creek yet - hopefully before you leave.	I don't have Lost Creek yet - Hopefully before you leave	260700713	1478965279535	1478965279619	e	69
510189	5492530	I don't have Lost Creek yet - hopefully before you leave.	I don't have Lost Creek yet - Hopefully before you leave	260700714	1478965279678	1478965279754	e	69
510189	5492530	I don't have Lost Creek yet - hopefully before you leave.	I don't have Lost Creek yet - Hopefully before you leave	260700715	1478965279822	1478965279934	k	75
510189	5492530	I don't have Lost Creek yet - hopefully before you leave.	I don't have Lost Creek yet - Hopefully before you leave	260700732	1478965280067	1478965280158	 	32
510189	5492530	I don't have Lost Creek yet - hopefully before you leave.	I don't have Lost Creek yet - Hopefully before you leave	260700734	1478965280571	1478965280658	y	89
510189	5492530	I don't have Lost Creek yet - hopefully before you leave.	I don't have Lost Creek yet - Hopefully before you leave	260700737	1478965280687	1478965280798	e	69
510189	5492530	I don't have Lost Creek yet - hopefully before you leave.	I don't have Lost Creek yet - Hopefully before you leave	260700739	1478965280910	1478965281014	t	84
510189	5492530	I don't have Lost Creek yet - hopefully before you leave.	I don't have Lost Creek yet - Hopefully before you leave	260700743	1478965281195	1478965281318	 	32
510189	5492530	I don't have Lost Creek yet - hopefully before you leave.	I don't have Lost Creek yet - Hopefully before you leave	260700762	1478965281346	1478965281442	-	189
510189	5492530	I don't have Lost Creek yet - hopefully before you leave.	I don't have Lost Creek yet - Hopefully before you leave	260700765	1478965281779	1478965281874	 	32
510189	5492530	I don't have Lost Creek yet - hopefully before you leave.	I don't have Lost Creek yet - Hopefully before you leave	260700766	1478965281999	1478965282098	 	32
510189	5492530	I don't have Lost Creek yet - hopefully before you leave.	I don't have Lost Creek yet - Hopefully before you leave	260700769	1478965282419	1478965282538	BKSP	8
510189	5492530	I don't have Lost Creek yet - hopefully before you leave.	I don't have Lost Creek yet - Hopefully before you leave	260700773	1478965282587	1478965282851	SHIFT	16
510189	5492530	I don't have Lost Creek yet - hopefully before you leave.	I don't have Lost Creek yet - Hopefully before you leave	260700770	1478965282742	1478965282826	H	72
510189	5492530	I don't have Lost Creek yet - hopefully before you leave.	I don't have Lost Creek yet - Hopefully before you leave	260700774	1478965283046	1478965283239	o	79
510189	5492530	I don't have Lost Creek yet - hopefully before you leave.	I don't have Lost Creek yet - Hopefully before you leave	260700786	1478965283166	1478965283322	p	80
510189	5492530	I don't have Lost Creek yet - hopefully before you leave.	I don't have Lost Creek yet - Hopefully before you leave	260700787	1478965283311	1478965283466	e	69
510189	5492530	I don't have Lost Creek yet - hopefully before you leave.	I don't have Lost Creek yet - Hopefully before you leave	260700788	1478965283483	1478965283587	f	70
510189	5492530	I don't have Lost Creek yet - hopefully before you leave.	I don't have Lost Creek yet - Hopefully before you leave	260700789	1478965283618	1478965283714	u	85
510189	5492530	I don't have Lost Creek yet - hopefully before you leave.	I don't have Lost Creek yet - Hopefully before you leave	260700790	1478965283814	1478965283914	l	76
510189	5492530	I don't have Lost Creek yet - hopefully before you leave.	I don't have Lost Creek yet - Hopefully before you leave	260700792	1478965283967	1478965284090	l	76
510189	5492530	I don't have Lost Creek yet - hopefully before you leave.	I don't have Lost Creek yet - Hopefully before you leave	260700806	1478965284027	1478965284114	y	89
510189	5492530	I don't have Lost Creek yet - hopefully before you leave.	I don't have Lost Creek yet - Hopefully before you leave	260700807	1478965284159	1478965284286	 	32
510189	5492530	I don't have Lost Creek yet - hopefully before you leave.	I don't have Lost Creek yet - Hopefully before you leave	260700808	1478965284598	1478965284679	b	66
510189	5492530	I don't have Lost Creek yet - hopefully before you leave.	I don't have Lost Creek yet - Hopefully before you leave	260700809	1478965284758	1478965284882	e	69
510189	5492530	I don't have Lost Creek yet - hopefully before you leave.	I don't have Lost Creek yet - Hopefully before you leave	260700810	1478965284987	1478965285114	f	70
510189	5492530	I don't have Lost Creek yet - hopefully before you leave.	I don't have Lost Creek yet - Hopefully before you leave	260700812	1478965285118	1478965285211	o	79
510189	5492530	I don't have Lost Creek yet - hopefully before you leave.	I don't have Lost Creek yet - Hopefully before you leave	260700821	1478965285222	1478965285390	r	82
510189	5492530	I don't have Lost Creek yet - hopefully before you leave.	I don't have Lost Creek yet - Hopefully before you leave	260700823	1478965285330	1478965285446	e	69
510189	5492530	I don't have Lost Creek yet - hopefully before you leave.	I don't have Lost Creek yet - Hopefully before you leave	260700826	1478965285379	1478965285494	 	32
510189	5492530	I don't have Lost Creek yet - hopefully before you leave.	I don't have Lost Creek yet - Hopefully before you leave	260700843	1478965285582	1478965285670	y	85
510189	5492530	I don't have Lost Creek yet - hopefully before you leave.	I don't have Lost Creek yet - Hopefully before you leave	260700844	1478965285682	1478965285770	o	79
510189	5492530	I don't have Lost Creek yet - hopefully before you leave.	I don't have Lost Creek yet - Hopefully before you leave	260700845	1478965285814	1478965285902	u	85
510189	5492530	I don't have Lost Creek yet - hopefully before you leave.	I don't have Lost Creek yet - Hopefully before you leave	260700846	1478965286038	1478965286150	BKSP	8
510189	5492530	I don't have Lost Creek yet - hopefully before you leave.	I don't have Lost Creek yet - Hopefully before you leave	260700847	1478965286182	1478965286274	BKSP	8
510189	5492530	I don't have Lost Creek yet - hopefully before you leave.	I don't have Lost Creek yet - Hopefully before you leave	260700848	1478965286339	1478965286450	BKSP	8
510189	5492530	I don't have Lost Creek yet - hopefully before you leave.	I don't have Lost Creek yet - Hopefully before you leave	260700849	1478965286462	1478965286582	BKSP	8
510189	5492530	I don't have Lost Creek yet - hopefully before you leave.	I don't have Lost Creek yet - Hopefully before you leave	260700850	1478965287102	1478965287191	y	89
510189	5492530	I don't have Lost Creek yet - hopefully before you leave.	I don't have Lost Creek yet - Hopefully before you leave	260700851	1478965287198	1478965287294	o	79
510189	5492530	I don't have Lost Creek yet - hopefully before you leave.	I don't have Lost Creek yet - Hopefully before you leave	260700852	1478965287298	1478965287383	u	85
510189	5492530	I don't have Lost Creek yet - hopefully before you leave.	I don't have Lost Creek yet - Hopefully before you leave	260700870	1478965287410	1478965287514	 	32
510189	5492530	I don't have Lost Creek yet - hopefully before you leave.	I don't have Lost Creek yet - Hopefully before you leave	260700871	1478965287659	1478965287782	l	76
510189	5492530	I don't have Lost Creek yet - hopefully before you leave.	I don't have Lost Creek yet - Hopefully before you leave	260700872	1478965287830	1478965288003	e	69
510189	5492530	I don't have Lost Creek yet - hopefully before you leave.	I don't have Lost Creek yet - Hopefully before you leave	260700873	1478965287930	1478965288046	a	65
510189	5492530	I don't have Lost Creek yet - hopefully before you leave.	I don't have Lost Creek yet - Hopefully before you leave	260700874	1478965288050	1478965288143	v	86
510189	5492530	I don't have Lost Creek yet - hopefully before you leave.	I don't have Lost Creek yet - Hopefully before you leave	260700875	1478965288151	1478965288254	e	69
510189	5492544	There were 75 evacuees on one plane and 73 on the other.	There were 75 evacuees on one plane and 73 on the other	260701032	1478965293715	1478965294114	SHIFT	16
510189	5492544	There were 75 evacuees on one plane and 73 on the other.	There were 75 evacuees on one plane and 73 on the other	260701033	1478965294050	1478965294182	T	84
510189	5492544	There were 75 evacuees on one plane and 73 on the other.	There were 75 evacuees on one plane and 73 on the other	260701034	1478965294266	1478965294362	h	72
510189	5492544	There were 75 evacuees on one plane and 73 on the other.	There were 75 evacuees on one plane and 73 on the other	260701035	1478965294370	1478965294502	e	69
510189	5492544	There were 75 evacuees on one plane and 73 on the other.	There were 75 evacuees on one plane and 73 on the other	260701036	1478965294438	1478965294610	r	82
510189	5492544	There were 75 evacuees on one plane and 73 on the other.	There were 75 evacuees on one plane and 73 on the other	260701051	1478965294566	1478965294674	e	69
510189	5492544	There were 75 evacuees on one plane and 73 on the other.	There were 75 evacuees on one plane and 73 on the other	260701053	1478965294678	1478965294778	 	32
510189	5492544	There were 75 evacuees on one plane and 73 on the other.	There were 75 evacuees on one plane and 73 on the other	260701055	1478965294834	1478965295039	w	87
510189	5492544	There were 75 evacuees on one plane and 73 on the other.	There were 75 evacuees on one plane and 73 on the other	260701056	1478965294974	1478965295118	e	69
510189	5492544	There were 75 evacuees on one plane and 73 on the other.	There were 75 evacuees on one plane and 73 on the other	260701058	1478965295226	1478965295302	r	69
510189	5492544	There were 75 evacuees on one plane and 73 on the other.	There were 75 evacuees on one plane and 73 on the other	260701107	1478965295546	1478965295658	BKSP	8
510189	5492544	There were 75 evacuees on one plane and 73 on the other.	There were 75 evacuees on one plane and 73 on the other	260701108	1478965295699	1478965295818	BKSP	8
510189	5492544	There were 75 evacuees on one plane and 73 on the other.	There were 75 evacuees on one plane and 73 on the other	260701109	1478965295803	1478965295958	r	82
510189	5492544	There were 75 evacuees on one plane and 73 on the other.	There were 75 evacuees on one plane and 73 on the other	260701110	1478965295866	1478965296002	e	69
510189	5492544	There were 75 evacuees on one plane and 73 on the other.	There were 75 evacuees on one plane and 73 on the other	260701111	1478965296007	1478965296098	 	32
510189	5492544	There were 75 evacuees on one plane and 73 on the other.	There were 75 evacuees on one plane and 73 on the other	260701112	1478965297918	1478965298011	7	55
510189	5492544	There were 75 evacuees on one plane and 73 on the other.	There were 75 evacuees on one plane and 73 on the other	260701113	1478965298046	1478965298126	5	53
510189	5492544	There were 75 evacuees on one plane and 73 on the other.	There were 75 evacuees on one plane and 73 on the other	260701138	1478965298187	1478965298286	 	32
510189	5492544	There were 75 evacuees on one plane and 73 on the other.	There were 75 evacuees on one plane and 73 on the other	260701141	1478965298551	1478965298698	e	69
510189	5492544	There were 75 evacuees on one plane and 73 on the other.	There were 75 evacuees on one plane and 73 on the other	260701144	1478965299166	1478965299262	v	86
510189	5492544	There were 75 evacuees on one plane and 73 on the other.	There were 75 evacuees on one plane and 73 on the other	260701147	1478965299270	1478965299374	a	65
510189	5492544	There were 75 evacuees on one plane and 73 on the other.	There were 75 evacuees on one plane and 73 on the other	260701150	1478965299446	1478965299535	c	67
510189	5492544	There were 75 evacuees on one plane and 73 on the other.	There were 75 evacuees on one plane and 73 on the other	260701169	1478965299938	1478965300018	u	85
510189	5492544	There were 75 evacuees on one plane and 73 on the other.	There were 75 evacuees on one plane and 73 on the other	260701170	1478965300226	1478965300338	e	69
510189	5492544	There were 75 evacuees on one plane and 73 on the other.	There were 75 evacuees on one plane and 73 on the other	260701171	1478965300394	1478965300606	e	69
510189	5492544	There were 75 evacuees on one plane and 73 on the other.	There were 75 evacuees on one plane and 73 on the other	260701172	1478965300562	1478965300695	s	83
510189	5492544	There were 75 evacuees on one plane and 73 on the other.	There were 75 evacuees on one plane and 73 on the other	260701173	1478965300734	1478965300862	 	32
510189	5492544	There were 75 evacuees on one plane and 73 on the other.	There were 75 evacuees on one plane and 73 on the other	260701185	1478965300922	1478965301110	o	79
510189	5492544	There were 75 evacuees on one plane and 73 on the other.	There were 75 evacuees on one plane and 73 on the other	260701187	1478965301082	1478965301219	n	78
510189	5492544	There were 75 evacuees on one plane and 73 on the other.	There were 75 evacuees on one plane and 73 on the other	260701188	1478965301310	1478965301430	 	32
510189	5492544	There were 75 evacuees on one plane and 73 on the other.	There were 75 evacuees on one plane and 73 on the other	260701191	1478965301442	1478965301654	o	79
510189	5492544	There were 75 evacuees on one plane and 73 on the other.	There were 75 evacuees on one plane and 73 on the other	260701216	1478965301566	1478965301706	n	78
510189	5492544	There were 75 evacuees on one plane and 73 on the other.	There were 75 evacuees on one plane and 73 on the other	260701218	1478965301791	1478965301874	e	69
510189	5492544	There were 75 evacuees on one plane and 73 on the other.	There were 75 evacuees on one plane and 73 on the other	260701220	1478965301878	1478965302014	 	32
510189	5492544	There were 75 evacuees on one plane and 73 on the other.	There were 75 evacuees on one plane and 73 on the other	260701222	1478965302070	1478965302303	p	80
510189	5492544	There were 75 evacuees on one plane and 73 on the other.	There were 75 evacuees on one plane and 73 on the other	260701224	1478965302191	1478965302338	l	76
510189	5492544	There were 75 evacuees on one plane and 73 on the other.	There were 75 evacuees on one plane and 73 on the other	260701226	1478965302342	1478965302479	a	65
510189	5492544	There were 75 evacuees on one plane and 73 on the other.	There were 75 evacuees on one plane and 73 on the other	260701248	1478965303291	1478965303410	m	77
510189	5492544	There were 75 evacuees on one plane and 73 on the other.	There were 75 evacuees on one plane and 73 on the other	260701249	1478965303463	1478965303539	e	69
510189	5492544	There were 75 evacuees on one plane and 73 on the other.	There were 75 evacuees on one plane and 73 on the other	260701250	1478965303598	1478965303722	 	32
510189	5492544	There were 75 evacuees on one plane and 73 on the other.	There were 75 evacuees on one plane and 73 on the other	260701251	1478965303698	1478965303870	a	65
510189	5492544	There were 75 evacuees on one plane and 73 on the other.	There were 75 evacuees on one plane and 73 on the other	260701280	1478965303859	1478965303963	n	78
510189	5492544	There were 75 evacuees on one plane and 73 on the other.	There were 75 evacuees on one plane and 73 on the other	260701281	1478965304162	1478965304278	BKSP	8
510189	5492544	There were 75 evacuees on one plane and 73 on the other.	There were 75 evacuees on one plane and 73 on the other	260701282	1478965304334	1478965304410	BKSP	8
510189	5492544	There were 75 evacuees on one plane and 73 on the other.	There were 75 evacuees on one plane and 73 on the other	260701283	1478965304469	1478965304550	BKSP	8
510189	5492544	There were 75 evacuees on one plane and 73 on the other.	There were 75 evacuees on one plane and 73 on the other	260701284	1478965304602	1478965304702	BKSP	8
510189	5492544	There were 75 evacuees on one plane and 73 on the other.	There were 75 evacuees on one plane and 73 on the other	260701285	1478965304738	1478965304834	BKSP	8
510189	5492544	There were 75 evacuees on one plane and 73 on the other.	There were 75 evacuees on one plane and 73 on the other	260701287	1478965305314	1478965305414	n	78
510189	5492544	There were 75 evacuees on one plane and 73 on the other.	There were 75 evacuees on one plane and 73 on the other	260701289	1478965305407	1478965305502	e	69
510189	5492544	There were 75 evacuees on one plane and 73 on the other.	There were 75 evacuees on one plane and 73 on the other	260701291	1478965305506	1478965305630	 	32
510189	5492544	There were 75 evacuees on one plane and 73 on the other.	There were 75 evacuees on one plane and 73 on the other	260701294	1478965305622	1478965305762	a	65
510189	5492544	There were 75 evacuees on one plane and 73 on the other.	There were 75 evacuees on one plane and 73 on the other	260701299	1478965305766	1478965305882	n	78
510189	5492544	There were 75 evacuees on one plane and 73 on the other.	There were 75 evacuees on one plane and 73 on the other	260701348	1478965305879	1478965305970	d	68
510189	5492544	There were 75 evacuees on one plane and 73 on the other.	There were 75 evacuees on one plane and 73 on the other	260701351	1478965305974	1478965306078	 	32
510189	5492544	There were 75 evacuees on one plane and 73 on the other.	There were 75 evacuees on one plane and 73 on the other	260701354	1478965307366	1478965307454	7	55
510189	5492544	There were 75 evacuees on one plane and 73 on the other.	There were 75 evacuees on one plane and 73 on the other	260701356	1478965307614	1478965307718	3	51
510189	5492544	There were 75 evacuees on one plane and 73 on the other.	There were 75 evacuees on one plane and 73 on the other	260701358	1478965307758	1478965307882	 	32
510189	5492544	There were 75 evacuees on one plane and 73 on the other.	There were 75 evacuees on one plane and 73 on the other	260701359	1478965307946	1478965308071	o	79
510189	5492544	There were 75 evacuees on one plane and 73 on the other.	There were 75 evacuees on one plane and 73 on the other	260701376	1478965308134	1478965308242	n	78
510189	5492544	There were 75 evacuees on one plane and 73 on the other.	There were 75 evacuees on one plane and 73 on the other	260701379	1478965308318	1478965308442	 	32
510189	5492544	There were 75 evacuees on one plane and 73 on the other.	There were 75 evacuees on one plane and 73 on the other	260701384	1478965308479	1478965308574	t	84
510189	5492544	There were 75 evacuees on one plane and 73 on the other.	There were 75 evacuees on one plane and 73 on the other	260701386	1478965308606	1478965308707	h	72
510189	5492544	There were 75 evacuees on one plane and 73 on the other.	There were 75 evacuees on one plane and 73 on the other	260701390	1478965308726	1478965308842	e	69
510189	5492544	There were 75 evacuees on one plane and 73 on the other.	There were 75 evacuees on one plane and 73 on the other	260701444	1478965311334	1478965311454	 	32
510189	5492544	There were 75 evacuees on one plane and 73 on the other.	There were 75 evacuees on one plane and 73 on the other	260701445	1478965311486	1478965311618	o	79
510189	5492544	There were 75 evacuees on one plane and 73 on the other.	There were 75 evacuees on one plane and 73 on the other	260701447	1478965311642	1478965311738	t	84
510189	5492544	There were 75 evacuees on one plane and 73 on the other.	There were 75 evacuees on one plane and 73 on the other	260701449	1478965311758	1478965311842	h	72
510189	5492544	There were 75 evacuees on one plane and 73 on the other.	There were 75 evacuees on one plane and 73 on the other	260701452	1478965311859	1478965312042	e	69
510189	5492544	There were 75 evacuees on one plane and 73 on the other.	There were 75 evacuees on one plane and 73 on the other	260701460	1478965311962	1478965312086	r	82
510189	5492551	Are you going to join us for lunch?	Are you going to join us for lunch	260759888	1478967457374	1478967457813	SHIFT	16
510189	5492551	Are you going to join us for lunch?	Are you going to join us for lunch	260759886	1478967457650	1478967457806	A	65
510189	5492551	Are you going to join us for lunch?	Are you going to join us for lunch	260759892	1478967458005	1478967458194	r	82
510189	5492551	Are you going to join us for lunch?	Are you going to join us for lunch	260759894	1478967458074	1478967458246	e	69
510189	5492551	Are you going to join us for lunch?	Are you going to join us for lunch	260759895	1478967458538	1478967458665	 	32
510189	5492551	Are you going to join us for lunch?	Are you going to join us for lunch	260759896	1478967458726	1478967458829	y	89
510189	5492551	Are you going to join us for lunch?	Are you going to join us for lunch	260759912	1478967458805	1478967458913	o	79
510189	5492551	Are you going to join us for lunch?	Are you going to join us for lunch	260759915	1478967458917	1478967459001	u	85
510189	5492551	Are you going to join us for lunch?	Are you going to join us for lunch	260759918	1478967459005	1478967459117	 	32
510189	5492551	Are you going to join us for lunch?	Are you going to join us for lunch	260759920	1478967459841	1478967459929	g	71
510189	5492551	Are you going to join us for lunch?	Are you going to join us for lunch	260759923	1478967459957	1478967460097	o	79
510189	5492551	Are you going to join us for lunch?	Are you going to join us for lunch	260759929	1478967460021	1478967460129	i	73
510189	5492551	Are you going to join us for lunch?	Are you going to join us for lunch	260759932	1478967460202	1478967460301	n	78
510189	5492551	Are you going to join us for lunch?	Are you going to join us for lunch	260759937	1478967460334	1478967460445	g	71
510189	5492551	Are you going to join us for lunch?	Are you going to join us for lunch	260759941	1478967460457	1478967460565	 	32
510189	5492551	Are you going to join us for lunch?	Are you going to join us for lunch	260759945	1478967460657	1478967460745	t	84
510189	5492551	Are you going to join us for lunch?	Are you going to join us for lunch	260759949	1478967460873	1478967461045	o	79
510189	5492551	Are you going to join us for lunch?	Are you going to join us for lunch	260759965	1478967460977	1478967461101	 	32
510189	5492551	Are you going to join us for lunch?	Are you going to join us for lunch	260759966	1478967461410	1478967461494	j	74
510189	5492551	Are you going to join us for lunch?	Are you going to join us for lunch	260759967	1478967461566	1478967461730	o	79
510189	5492551	Are you going to join us for lunch?	Are you going to join us for lunch	260759968	1478967461634	1478967461766	i	73
510189	5492551	Are you going to join us for lunch?	Are you going to join us for lunch	260759969	1478967461846	1478967461942	n	78
510189	5492551	Are you going to join us for lunch?	Are you going to join us for lunch	260759970	1478967461998	1478967462109	 	32
510189	5492551	Are you going to join us for lunch?	Are you going to join us for lunch	260759990	1478967462178	1478967462278	u	85
510189	5492551	Are you going to join us for lunch?	Are you going to join us for lunch	260759991	1478967462282	1478967462365	s	83
510189	5492551	Are you going to join us for lunch?	Are you going to join us for lunch	260759993	1478967462362	1478967462470	 	32
510189	5492551	Are you going to join us for lunch?	Are you going to join us for lunch	260759995	1478967462842	1478967462945	f	70
510189	5492551	Are you going to join us for lunch?	Are you going to join us for lunch	260760014	1478967462930	1478967463033	o	79
510189	5492551	Are you going to join us for lunch?	Are you going to join us for lunch	260760015	1478967463093	1478967463177	r	82
510189	5492551	Are you going to join us for lunch?	Are you going to join us for lunch	260760016	1478967463181	1478967463281	 	32
510189	5492551	Are you going to join us for lunch?	Are you going to join us for lunch	260760017	1478967463357	1478967463473	l	76
510189	5492551	Are you going to join us for lunch?	Are you going to join us for lunch	260760019	1478967463585	1478967463669	u	85
510189	5492551	Are you going to join us for lunch?	Are you going to join us for lunch	260760022	1478967463765	1478967463877	n	78
510189	5492551	Are you going to join us for lunch?	Are you going to join us for lunch	260760030	1478967463897	1478967463985	c	67
510189	5492551	Are you going to join us for lunch?	Are you going to join us for lunch	260760032	1478967463989	1478967464073	h	72
510189	5493758	This is good I think.	This is good i think	260760102	1478967465761	1478967466101	SHIFT	16
510189	5493758	This is good I think.	This is good i think	260760104	1478967466041	1478967466118	T	89
510189	5493758	This is good I think.	This is good i think	260760106	1478967466801	1478967466934	BKSP	8
510189	5493758	This is good I think.	This is good i think	260760108	1478967467005	1478967467133	BKSP	8
510189	5493758	This is good I think.	This is good i think	260760110	1478967467161	1478967467285	BKSP	8
510189	5493758	This is good I think.	This is good i think	260760112	1478967467237	1478967467485	SHIFT	16
510189	5493758	This is good I think.	This is good i think	260760113	1478967467390	1478967467501	T	84
510189	5493758	This is good I think.	This is good i think	260760114	1478967467546	1478967467637	h	72
510189	5493758	This is good I think.	This is good i think	260760115	1478967467726	1478967467825	i	73
510189	5493758	This is good I think.	This is good i think	260760120	1478967467873	1478967467957	s	83
510189	5493758	This is good I think.	This is good i think	260760122	1478967467934	1478967468038	 	32
510189	5493758	This is good I think.	This is good i think	260760123	1478967468098	1478967468214	i	73
510189	5493758	This is good I think.	This is good i think	260760124	1478967468281	1478967468366	s	83
510189	5493758	This is good I think.	This is good i think	260760130	1478967468354	1478967468465	 	32
510189	5493758	This is good I think.	This is good i think	260760131	1478967468509	1478967468598	g	71
510189	5493758	This is good I think.	This is good i think	260760132	1478967468605	1478967468681	o	79
510189	5493758	This is good I think.	This is good i think	260760133	1478967468757	1478967468869	o	79
510189	5493758	This is good I think.	This is good i think	260760134	1478967468905	1478967468973	d	68
510189	5493758	This is good I think.	This is good i think	260760135	1478967468981	1478967469089	 	32
510189	5493758	This is good I think.	This is good i think	260760144	1478967469201	1478967469305	i	73
510189	5493758	This is good I think.	This is good i think	260760146	1478967469417	1478967469525	 	32
510189	5493758	This is good I think.	This is good i think	260760147	1478967469573	1478967469658	t	84
510189	5493758	This is good I think.	This is good i think	260760148	1478967469662	1478967469746	h	72
510189	5493758	This is good I think.	This is good i think	260760149	1478967469837	1478967469986	i	73
510189	5493758	This is good I think.	This is good i think	260760155	1478967469905	1478967470033	n	78
510189	5493758	This is good I think.	This is good i think	260760156	1478967470081	1478967470193	k	75
510189	5493763	It's this issue's featured eBook.	It's this issue's featured eBook	260760194	1478967471894	1478967472297	SHIFT	16
510189	5493763	It's this issue's featured eBook.	It's this issue's featured eBook	260760193	1478967472173	1478967472270	I	73
510189	5493763	It's this issue's featured eBook.	It's this issue's featured eBook	260760195	1478967472413	1478967472489	t	84
510189	5493763	It's this issue's featured eBook.	It's this issue's featured eBook	260760196	1478967473014	1478967473117	'	192
510189	5493763	It's this issue's featured eBook.	It's this issue's featured eBook	260760197	1478967473121	1478967473198	s	83
510189	5493763	It's this issue's featured eBook.	It's this issue's featured eBook	260760198	1478967473246	1478967473345	 	32
510189	5493763	It's this issue's featured eBook.	It's this issue's featured eBook	260760215	1478967473921	1478967473982	t	89
510189	5493763	It's this issue's featured eBook.	It's this issue's featured eBook	260760216	1478967474013	1478967474101	h	72
510189	5493763	It's this issue's featured eBook.	It's this issue's featured eBook	260760217	1478967474381	1478967474481	BKSP	8
510189	5493763	It's this issue's featured eBook.	It's this issue's featured eBook	260760218	1478967474665	1478967474757	BKSP	8
510189	5493763	It's this issue's featured eBook.	It's this issue's featured eBook	260760219	1478967474805	1478967474878	BKSP	8
510189	5493763	It's this issue's featured eBook.	It's this issue's featured eBook	260760220	1478967474938	1478967475017	BKSP	8
510189	5493763	It's this issue's featured eBook.	It's this issue's featured eBook	260760221	1478967475458	1478967475582	 	32
510189	5493763	It's this issue's featured eBook.	It's this issue's featured eBook	260760222	1478967475665	1478967475757	t	84
510189	5493763	It's this issue's featured eBook.	It's this issue's featured eBook	260760239	1478967475766	1478967475853	h	72
510189	5493763	It's this issue's featured eBook.	It's this issue's featured eBook	260760240	1478967475929	1478967476037	i	73
510189	5493763	It's this issue's featured eBook.	It's this issue's featured eBook	260760241	1478967476105	1478967476202	s	83
510189	5493763	It's this issue's featured eBook.	It's this issue's featured eBook	260760242	1478967476222	1478967476350	 	32
510189	5493763	It's this issue's featured eBook.	It's this issue's featured eBook	260760243	1478967476410	1478967476525	i	73
510189	5493763	It's this issue's featured eBook.	It's this issue's featured eBook	260760279	1478967476586	1478967476681	s	83
510189	5493763	It's this issue's featured eBook.	It's this issue's featured eBook	260760281	1478967476741	1478967476889	s	83
510189	5493763	It's this issue's featured eBook.	It's this issue's featured eBook	260760284	1478967478330	1478967478401	u	85
510189	5493763	It's this issue's featured eBook.	It's this issue's featured eBook	260760287	1478967478430	1478967478549	e	69
510189	5493763	It's this issue's featured eBook.	It's this issue's featured eBook	260760289	1478967479345	1478967479445	'	192
510189	5493763	It's this issue's featured eBook.	It's this issue's featured eBook	260760306	1478967479501	1478967479590	s	83
510189	5493763	It's this issue's featured eBook.	It's this issue's featured eBook	260760309	1478967479649	1478967479733	 	32
510189	5493763	It's this issue's featured eBook.	It's this issue's featured eBook	260760310	1478967480261	1478967480351	f	70
510189	5493763	It's this issue's featured eBook.	It's this issue's featured eBook	260760312	1478967480409	1478967480601	e	69
510189	5493763	It's this issue's featured eBook.	It's this issue's featured eBook	260760319	1478967480493	1478967480617	a	65
510189	5493763	It's this issue's featured eBook.	It's this issue's featured eBook	260760321	1478967480725	1478967480849	t	84
510189	5493763	It's this issue's featured eBook.	It's this issue's featured eBook	260760322	1478967480921	1478967481013	u	85
510189	5493763	It's this issue's featured eBook.	It's this issue's featured eBook	260760324	1478967481029	1478967481241	r	82
510189	5493763	It's this issue's featured eBook.	It's this issue's featured eBook	260760327	1478967481142	1478967481278	e	69
510189	5493763	It's this issue's featured eBook.	It's this issue's featured eBook	260760331	1478967481441	1478967481614	d	68
510189	5493763	It's this issue's featured eBook.	It's this issue's featured eBook	260760355	1478967481973	1478967482073	 	32
510189	5493763	It's this issue's featured eBook.	It's this issue's featured eBook	260760358	1478967482205	1478967482373	SHIFT	16
510189	5493763	It's this issue's featured eBook.	It's this issue's featured eBook	260760361	1478967482537	1478967482657	e	69
510189	5493763	It's this issue's featured eBook.	It's this issue's featured eBook	260760365	1478967482969	1478967483217	SHIFT	16
510189	5493763	It's this issue's featured eBook.	It's this issue's featured eBook	260760370	1478967483137	1478967483221	B	66
510189	5493763	It's this issue's featured eBook.	It's this issue's featured eBook	260760374	1478967483409	1478967483502	o	79
510189	5493763	It's this issue's featured eBook.	It's this issue's featured eBook	260760377	1478967483561	1478967483765	o	79
510189	5493763	It's this issue's featured eBook.	It's this issue's featured eBook	260760366	1478967483665	1478967483869	k	75
510189	5493769	I think this move will not overcome the problem.	I think this move will not overcome the problem	260760408	1478967484933	1478967485314	SHIFT	16
510189	5493769	I think this move will not overcome the problem.	I think this move will not overcome the problem	260760410	1478967485246	1478967485346	T	84
510189	5493769	I think this move will not overcome the problem.	I think this move will not overcome the problem	260760413	1478967485518	1478967485646	 	32
510189	5493769	I think this move will not overcome the problem.	I think this move will not overcome the problem	260760415	1478967485717	1478967485801	t	84
510189	5493769	I think this move will not overcome the problem.	I think this move will not overcome the problem	260760417	1478967485753	1478967485873	h	72
510189	5493769	I think this move will not overcome the problem.	I think this move will not overcome the problem	260760420	1478967485969	1478967486141	i	73
510189	5493769	I think this move will not overcome the problem.	I think this move will not overcome the problem	260760471	1478967486097	1478967486197	n	78
510189	5493769	I think this move will not overcome the problem.	I think this move will not overcome the problem	260760473	1478967486566	1478967487521	BKSP	8
510189	5493769	I think this move will not overcome the problem.	I think this move will not overcome the problem	260760477	1478967487469	1478967487794	SHIFT	16
510189	5493769	I think this move will not overcome the problem.	I think this move will not overcome the problem	260760475	1478967487693	1478967487777	I	73
510189	5493769	I think this move will not overcome the problem.	I think this move will not overcome the problem	260760479	1478967487905	1478967488045	 	32
510189	5493769	I think this move will not overcome the problem.	I think this move will not overcome the problem	260760480	1478967488033	1478967488133	t	84
510189	5493769	I think this move will not overcome the problem.	I think this move will not overcome the problem	260760482	1478967488141	1478967488242	h	72
510189	5493769	I think this move will not overcome the problem.	I think this move will not overcome the problem	260760483	1478967488326	1478967488514	i	73
510189	5493769	I think this move will not overcome the problem.	I think this move will not overcome the problem	260760505	1478967488430	1478967488573	n	78
510189	5493769	I think this move will not overcome the problem.	I think this move will not overcome the problem	260760506	1478967488662	1478967488754	l	76
510189	5493769	I think this move will not overcome the problem.	I think this move will not overcome the problem	260760507	1478967489378	1478967489546	BKSP	8
510189	5493769	I think this move will not overcome the problem.	I think this move will not overcome the problem	260760508	1478967489874	1478967489993	k	75
510189	5493769	I think this move will not overcome the problem.	I think this move will not overcome the problem	260760509	1478967489921	1478967490121	 	32
510189	5493769	I think this move will not overcome the problem.	I think this move will not overcome the problem	260760511	1478967490177	1478967490253	t	84
510189	5493769	I think this move will not overcome the problem.	I think this move will not overcome the problem	260760540	1478967490245	1478967490354	h	72
510189	5493769	I think this move will not overcome the problem.	I think this move will not overcome the problem	260760543	1478967490441	1478967490553	i	73
510189	5493769	I think this move will not overcome the problem.	I think this move will not overcome the problem	260760546	1478967490613	1478967490665	 	83
510189	5493769	I think this move will not overcome the problem.	I think this move will not overcome the problem	260760549	1478967490829	1478967490957	m	77
510189	5493769	I think this move will not overcome the problem.	I think this move will not overcome the problem	260760552	1478967491089	1478967491186	o	79
510189	5493769	I think this move will not overcome the problem.	I think this move will not overcome the problem	260760574	1478967491845	1478967491945	v	86
510189	5493769	I think this move will not overcome the problem.	I think this move will not overcome the problem	260760576	1478967491941	1478967492062	e	69
510189	5493769	I think this move will not overcome the problem.	I think this move will not overcome the problem	260760577	1478967492069	1478967492201	 	32
510189	5493769	I think this move will not overcome the problem.	I think this move will not overcome the problem	260760578	1478967492237	1478967492337	w	87
510189	5493769	I think this move will not overcome the problem.	I think this move will not overcome the problem	260760625	1478967492285	1478967492414	i	73
510189	5493769	I think this move will not overcome the problem.	I think this move will not overcome the problem	260760628	1478967492534	1478967492610	l	76
510189	5493769	I think this move will not overcome the problem.	I think this move will not overcome the problem	260760629	1478967493282	1478967493369	l	76
510189	5493769	I think this move will not overcome the problem.	I think this move will not overcome the problem	260760632	1478967493441	1478967493541	l	76
510189	5493769	I think this move will not overcome the problem.	I think this move will not overcome the problem	260760635	1478967493965	1478967494121	BKSP	8
510189	5493769	I think this move will not overcome the problem.	I think this move will not overcome the problem	260760638	1478967494193	1478967494305	 	32
510189	5493769	I think this move will not overcome the problem.	I think this move will not overcome the problem	260760642	1478967494405	1478967494513	n	78
510189	5493769	I think this move will not overcome the problem.	I think this move will not overcome the problem	260760662	1478967494581	1478967494705	o	79
510189	5493769	I think this move will not overcome the problem.	I think this move will not overcome the problem	260760663	1478967494773	1478967494874	t	84
510189	5493769	I think this move will not overcome the problem.	I think this move will not overcome the problem	260760664	1478967494801	1478967494918	 	32
510189	5493769	I think this move will not overcome the problem.	I think this move will not overcome the problem	260760665	1478967494982	1478967495106	o	79
510189	5493769	I think this move will not overcome the problem.	I think this move will not overcome the problem	260760666	1478967495242	1478967495325	v	86
510189	5493769	I think this move will not overcome the problem.	I think this move will not overcome the problem	260760682	1478967495333	1478967495501	e	69
510189	5493769	I think this move will not overcome the problem.	I think this move will not overcome the problem	260760686	1478967495405	1478967495537	r	82
510189	5493769	I think this move will not overcome the problem.	I think this move will not overcome the problem	260760689	1478967495829	1478967495917	c	67
510189	5493769	I think this move will not overcome the problem.	I think this move will not overcome the problem	260760692	1478967495873	1478967496049	o	79
510189	5493769	I think this move will not overcome the problem.	I think this move will not overcome the problem	260760699	1478967495965	1478967496089	m	77
510189	5493769	I think this move will not overcome the problem.	I think this move will not overcome the problem	260760701	1478967496077	1478967496217	e	69
510189	5493769	I think this move will not overcome the problem.	I think this move will not overcome the problem	260760703	1478967496241	1478967496341	 	32
510189	5493769	I think this move will not overcome the problem.	I think this move will not overcome the problem	260760705	1478967496337	1478967496445	t	84
510189	5493769	I think this move will not overcome the problem.	I think this move will not overcome the problem	260760707	1478967496457	1478967496582	h	72
510189	5493769	I think this move will not overcome the problem.	I think this move will not overcome the problem	260760709	1478967496598	1478967496697	e	69
510189	5493769	I think this move will not overcome the problem.	I think this move will not overcome the problem	260760721	1478967496701	1478967496821	 	32
510189	5493769	I think this move will not overcome the problem.	I think this move will not overcome the problem	260760723	1478967496897	1478967497065	p	80
510189	5493769	I think this move will not overcome the problem.	I think this move will not overcome the problem	260760725	1478967497037	1478967497125	r	82
510189	5493769	I think this move will not overcome the problem.	I think this move will not overcome the problem	260760727	1478967497173	1478967497273	o	79
510189	5493769	I think this move will not overcome the problem.	I think this move will not overcome the problem	260760729	1478967497657	1478967497765	b	66
510189	5493769	I think this move will not overcome the problem.	I think this move will not overcome the problem	260760755	1478967497913	1478967498069	m	77
510189	5493769	I think this move will not overcome the problem.	I think this move will not overcome the problem	260760756	1478967498117	1478967498269	l	76
510189	5493769	I think this move will not overcome the problem.	I think this move will not overcome the problem	260760757	1478967498265	1478967498370	e	69
510189	5493769	I think this move will not overcome the problem.	I think this move will not overcome the problem	260760758	1478967498642	1478967498753	BKSP	8
510189	5493769	I think this move will not overcome the problem.	I think this move will not overcome the problem	260760759	1478967498861	1478967498997	BKSP	8
510189	5493769	I think this move will not overcome the problem.	I think this move will not overcome the problem	260760760	1478967499077	1478967499157	BKSP	8
510189	5493769	I think this move will not overcome the problem.	I think this move will not overcome the problem	260760761	1478967499657	1478967499769	l	76
510189	5493769	I think this move will not overcome the problem.	I think this move will not overcome the problem	260760762	1478967499737	1478967499837	e	69
510189	5493769	I think this move will not overcome the problem.	I think this move will not overcome the problem	260760763	1478967499829	1478967499953	m	77
510189	5493777	Britain earlier organised an evacuation of non-Britons from Sanaa.	Britain earlier organised an evacuation of non-Britons from sannaa	260760784	1478967501113	1478967501621	SHIFT	16
510189	5493777	Britain earlier organised an evacuation of non-Britons from Sanaa.	Britain earlier organised an evacuation of non-Britons from sannaa	260760786	1478967501545	1478967501677	B	66
510189	5493777	Britain earlier organised an evacuation of non-Britons from Sanaa.	Britain earlier organised an evacuation of non-Britons from sannaa	260760788	1478967501981	1478967502085	r	82
510189	5493777	Britain earlier organised an evacuation of non-Britons from Sanaa.	Britain earlier organised an evacuation of non-Britons from sannaa	260760790	1478967502093	1478967502205	i	73
510189	5493777	Britain earlier organised an evacuation of non-Britons from Sanaa.	Britain earlier organised an evacuation of non-Britons from sannaa	260760792	1478967502185	1478967502301	t	84
510189	5493777	Britain earlier organised an evacuation of non-Britons from Sanaa.	Britain earlier organised an evacuation of non-Britons from sannaa	260760794	1478967502378	1478967502557	a	65
510189	5493777	Britain earlier organised an evacuation of non-Britons from Sanaa.	Britain earlier organised an evacuation of non-Britons from sannaa	260760848	1478967502534	1478967502698	i	73
510189	5493777	Britain earlier organised an evacuation of non-Britons from Sanaa.	Britain earlier organised an evacuation of non-Britons from sannaa	260760849	1478967502614	1478967502765	n	78
510189	5493777	Britain earlier organised an evacuation of non-Britons from Sanaa.	Britain earlier organised an evacuation of non-Britons from sannaa	260760851	1478967504478	1478967504573	 	32
510189	5493777	Britain earlier organised an evacuation of non-Britons from Sanaa.	Britain earlier organised an evacuation of non-Britons from sannaa	260760853	1478967504629	1478967504817	e	69
510189	5493777	Britain earlier organised an evacuation of non-Britons from Sanaa.	Britain earlier organised an evacuation of non-Britons from sannaa	260760855	1478967504725	1478967504889	a	65
510189	5493777	Britain earlier organised an evacuation of non-Britons from Sanaa.	Britain earlier organised an evacuation of non-Britons from sannaa	260760858	1478967505277	1478967505373	r	82
510189	5493777	Britain earlier organised an evacuation of non-Britons from Sanaa.	Britain earlier organised an evacuation of non-Britons from sannaa	260760901	1478967505365	1478967505457	l	76
510189	5493777	Britain earlier organised an evacuation of non-Britons from Sanaa.	Britain earlier organised an evacuation of non-Britons from sannaa	260760902	1478967505558	1478967505642	i	73
510189	5493777	Britain earlier organised an evacuation of non-Britons from Sanaa.	Britain earlier organised an evacuation of non-Britons from sannaa	260760903	1478967505666	1478967505825	e	69
510189	5493777	Britain earlier organised an evacuation of non-Britons from Sanaa.	Britain earlier organised an evacuation of non-Britons from sannaa	260760904	1478967505737	1478967505877	r	82
510189	5493777	Britain earlier organised an evacuation of non-Britons from Sanaa.	Britain earlier organised an evacuation of non-Britons from sannaa	260760905	1478967505889	1478967505978	 	32
510189	5493777	Britain earlier organised an evacuation of non-Britons from Sanaa.	Britain earlier organised an evacuation of non-Britons from sannaa	260760906	1478967506849	1478967506950	o	79
510189	5493777	Britain earlier organised an evacuation of non-Britons from Sanaa.	Britain earlier organised an evacuation of non-Britons from sannaa	260760917	1478967506997	1478967507093	r	82
510189	5493777	Britain earlier organised an evacuation of non-Britons from Sanaa.	Britain earlier organised an evacuation of non-Britons from sannaa	260760918	1478967507233	1478967507317	g	71
510189	5493777	Britain earlier organised an evacuation of non-Britons from Sanaa.	Britain earlier organised an evacuation of non-Britons from sannaa	260760919	1478967507377	1478967507478	a	65
510189	5493777	Britain earlier organised an evacuation of non-Britons from Sanaa.	Britain earlier organised an evacuation of non-Britons from sannaa	260760920	1478967507502	1478967507618	n	78
510189	5493777	Britain earlier organised an evacuation of non-Britons from Sanaa.	Britain earlier organised an evacuation of non-Britons from sannaa	260760921	1478967507686	1478967507797	i	73
510189	5493777	Britain earlier organised an evacuation of non-Britons from Sanaa.	Britain earlier organised an evacuation of non-Britons from sannaa	260760928	1478967507826	1478967508005	s	83
510189	5493777	Britain earlier organised an evacuation of non-Britons from Sanaa.	Britain earlier organised an evacuation of non-Britons from sannaa	260760929	1478967507938	1478967508061	e	69
510189	5493777	Britain earlier organised an evacuation of non-Britons from Sanaa.	Britain earlier organised an evacuation of non-Britons from sannaa	260760930	1478967508161	1478967508253	d	68
510189	5493777	Britain earlier organised an evacuation of non-Britons from Sanaa.	Britain earlier organised an evacuation of non-Britons from sannaa	260760931	1478967508333	1478967508445	 	32
510189	5493777	Britain earlier organised an evacuation of non-Britons from Sanaa.	Britain earlier organised an evacuation of non-Britons from sannaa	260760932	1478967508817	1478967508997	a	65
510189	5493777	Britain earlier organised an evacuation of non-Britons from Sanaa.	Britain earlier organised an evacuation of non-Britons from sannaa	260760944	1478967509454	1478967509541	n	78
510189	5493777	Britain earlier organised an evacuation of non-Britons from Sanaa.	Britain earlier organised an evacuation of non-Britons from sannaa	260760945	1478967509617	1478967509725	 	32
510189	5493777	Britain earlier organised an evacuation of non-Britons from Sanaa.	Britain earlier organised an evacuation of non-Britons from sannaa	260760946	1478967510061	1478967510317	e	69
510189	5493777	Britain earlier organised an evacuation of non-Britons from Sanaa.	Britain earlier organised an evacuation of non-Britons from sannaa	260760947	1478967510165	1478967510329	x	88
510189	5493777	Britain earlier organised an evacuation of non-Britons from Sanaa.	Britain earlier organised an evacuation of non-Britons from sannaa	260760948	1478967510846	1478967510985	c	67
510189	5493777	Britain earlier organised an evacuation of non-Britons from Sanaa.	Britain earlier organised an evacuation of non-Britons from sannaa	260761000	1478967512489	1478967512629	BKSP	8
510189	5493777	Britain earlier organised an evacuation of non-Britons from Sanaa.	Britain earlier organised an evacuation of non-Britons from sannaa	260761001	1478967512685	1478967512801	BKSP	8
510189	5493777	Britain earlier organised an evacuation of non-Britons from Sanaa.	Britain earlier organised an evacuation of non-Britons from sannaa	260761002	1478967513765	1478967513837	v	86
510189	5493777	Britain earlier organised an evacuation of non-Britons from Sanaa.	Britain earlier organised an evacuation of non-Britons from sannaa	260761003	1478967514030	1478967514189	a	65
510189	5493777	Britain earlier organised an evacuation of non-Britons from Sanaa.	Britain earlier organised an evacuation of non-Britons from sannaa	260761004	1478967514266	1478967514397	c	67
510189	5493777	Britain earlier organised an evacuation of non-Britons from Sanaa.	Britain earlier organised an evacuation of non-Britons from sannaa	260761005	1478967514426	1478967514521	u	85
510189	5493777	Britain earlier organised an evacuation of non-Britons from Sanaa.	Britain earlier organised an evacuation of non-Britons from sannaa	260761012	1478967514518	1478967514653	a	65
510189	5493777	Britain earlier organised an evacuation of non-Britons from Sanaa.	Britain earlier organised an evacuation of non-Britons from sannaa	260761013	1478967514793	1478967514885	t	84
510189	5493777	Britain earlier organised an evacuation of non-Britons from Sanaa.	Britain earlier organised an evacuation of non-Britons from sannaa	260761014	1478967514869	1478967515049	i	73
510189	5493777	Britain earlier organised an evacuation of non-Britons from Sanaa.	Britain earlier organised an evacuation of non-Britons from sannaa	260761015	1478967514957	1478967515145	o	79
510189	5493777	Britain earlier organised an evacuation of non-Britons from Sanaa.	Britain earlier organised an evacuation of non-Britons from sannaa	260761016	1478967515177	1478967515305	n	78
510189	5493777	Britain earlier organised an evacuation of non-Britons from Sanaa.	Britain earlier organised an evacuation of non-Britons from sannaa	260761017	1478967515398	1478967515522	 	32
510189	5493777	Britain earlier organised an evacuation of non-Britons from Sanaa.	Britain earlier organised an evacuation of non-Britons from sannaa	260761032	1478967515614	1478967515733	o	79
510189	5493777	Britain earlier organised an evacuation of non-Britons from Sanaa.	Britain earlier organised an evacuation of non-Britons from sannaa	260761034	1478967515801	1478967515913	f	70
510189	5493777	Britain earlier organised an evacuation of non-Britons from Sanaa.	Britain earlier organised an evacuation of non-Britons from sannaa	260761036	1478967515901	1478967516021	 	32
510189	5493777	Britain earlier organised an evacuation of non-Britons from Sanaa.	Britain earlier organised an evacuation of non-Britons from sannaa	260761038	1478967516173	1478967516213	o	79
510189	5493777	Britain earlier organised an evacuation of non-Britons from Sanaa.	Britain earlier organised an evacuation of non-Britons from sannaa	260761039	1478967516397	1478967516485	n	78
510189	5493777	Britain earlier organised an evacuation of non-Britons from Sanaa.	Britain earlier organised an evacuation of non-Britons from sannaa	260761095	1478967516658	1478967516749	BKSP	8
510189	5493777	Britain earlier organised an evacuation of non-Britons from Sanaa.	Britain earlier organised an evacuation of non-Britons from sannaa	260761096	1478967516841	1478967516965	BKSP	8
510189	5493777	Britain earlier organised an evacuation of non-Britons from Sanaa.	Britain earlier organised an evacuation of non-Britons from sannaa	260761097	1478967517069	1478967517233	n	78
510189	5493777	Britain earlier organised an evacuation of non-Britons from Sanaa.	Britain earlier organised an evacuation of non-Britons from sannaa	260761098	1478967517193	1478967517481	o	79
510189	5493777	Britain earlier organised an evacuation of non-Britons from Sanaa.	Britain earlier organised an evacuation of non-Britons from sannaa	260761099	1478967517425	1478967517561	n	78
510189	5493777	Britain earlier organised an evacuation of non-Britons from Sanaa.	Britain earlier organised an evacuation of non-Britons from sannaa	260761101	1478967517814	1478967517921	 	32
510189	5493777	Britain earlier organised an evacuation of non-Britons from Sanaa.	Britain earlier organised an evacuation of non-Britons from sannaa	260761103	1478967518093	1478967518233	BKSP	8
510189	5493777	Britain earlier organised an evacuation of non-Britons from Sanaa.	Britain earlier organised an evacuation of non-Britons from sannaa	260761105	1478967519278	1478967519366	-	189
510189	5493777	Britain earlier organised an evacuation of non-Britons from Sanaa.	Britain earlier organised an evacuation of non-Britons from sannaa	260761138	1478967519530	1478967520261	SHIFT	16
510189	5493777	Britain earlier organised an evacuation of non-Britons from Sanaa.	Britain earlier organised an evacuation of non-Britons from sannaa	260761137	1478967520146	1478967520233	B	66
510189	5493777	Britain earlier organised an evacuation of non-Britons from Sanaa.	Britain earlier organised an evacuation of non-Britons from sannaa	260761139	1478967520553	1478967520665	r	82
510189	5493777	Britain earlier organised an evacuation of non-Britons from Sanaa.	Britain earlier organised an evacuation of non-Britons from sannaa	260761140	1478967520837	1478967520913	i	73
510189	5493777	Britain earlier organised an evacuation of non-Britons from Sanaa.	Britain earlier organised an evacuation of non-Britons from sannaa	260761141	1478967520945	1478967521037	t	84
510189	5493777	Britain earlier organised an evacuation of non-Britons from Sanaa.	Britain earlier organised an evacuation of non-Britons from sannaa	260761142	1478967521049	1478967521249	o	79
510189	5493777	Britain earlier organised an evacuation of non-Britons from Sanaa.	Britain earlier organised an evacuation of non-Britons from sannaa	260761163	1478967521161	1478967521289	n	78
510189	5493777	Britain earlier organised an evacuation of non-Britons from Sanaa.	Britain earlier organised an evacuation of non-Britons from sannaa	260761166	1478967521453	1478967521559	s	83
510189	5493777	Britain earlier organised an evacuation of non-Britons from Sanaa.	Britain earlier organised an evacuation of non-Britons from sannaa	260761169	1478967521837	1478967521949	 	32
510189	5493777	Britain earlier organised an evacuation of non-Britons from Sanaa.	Britain earlier organised an evacuation of non-Britons from sannaa	260761171	1478967522261	1478967522457	SHIFT	16
510189	5493777	Britain earlier organised an evacuation of non-Britons from Sanaa.	Britain earlier organised an evacuation of non-Britons from sannaa	260761173	1478967522694	1478967522897	f	70
510189	5493777	Britain earlier organised an evacuation of non-Britons from Sanaa.	Britain earlier organised an evacuation of non-Britons from sannaa	260761175	1478967522805	1478967522937	r	82
510189	5493777	Britain earlier organised an evacuation of non-Britons from Sanaa.	Britain earlier organised an evacuation of non-Britons from sannaa	260761203	1478967522917	1478967523101	o	79
510189	5493777	Britain earlier organised an evacuation of non-Britons from Sanaa.	Britain earlier organised an evacuation of non-Britons from sannaa	260761204	1478967523013	1478967523149	m	77
510189	5493777	Britain earlier organised an evacuation of non-Britons from Sanaa.	Britain earlier organised an evacuation of non-Britons from sannaa	260761205	1478967523262	1478967523353	 	32
510189	5493777	Britain earlier organised an evacuation of non-Britons from Sanaa.	Britain earlier organised an evacuation of non-Britons from sannaa	260761206	1478967524589	1478967524849	s	83
510189	5493777	Britain earlier organised an evacuation of non-Britons from Sanaa.	Britain earlier organised an evacuation of non-Britons from sannaa	260761207	1478967524714	1478967524857	a	65
510189	5493777	Britain earlier organised an evacuation of non-Britons from Sanaa.	Britain earlier organised an evacuation of non-Britons from sannaa	260761208	1478967524926	1478967525005	n	78
510189	5493777	Britain earlier organised an evacuation of non-Britons from Sanaa.	Britain earlier organised an evacuation of non-Britons from sannaa	260761211	1478967525066	1478967525165	n	78
510189	5493777	Britain earlier organised an evacuation of non-Britons from Sanaa.	Britain earlier organised an evacuation of non-Britons from sannaa	260761213	1478967525189	1478967525293	a	65
510189	5493777	Britain earlier organised an evacuation of non-Britons from Sanaa.	Britain earlier organised an evacuation of non-Britons from sannaa	260761215	1478967525365	1478967525521	a	65
510189	5493787	Miller might have to wait until Sunday.	Miller might have to wait until Sunday	260761260	1478967526961	1478967527273	SHIFT	16
510189	5493787	Miller might have to wait until Sunday.	Miller might have to wait until Sunday	260761261	1478967527217	1478967527329	M	77
510189	5493787	Miller might have to wait until Sunday.	Miller might have to wait until Sunday	260761262	1478967527458	1478967527553	i	73
510189	5493787	Miller might have to wait until Sunday.	Miller might have to wait until Sunday	260761263	1478967527662	1478967527749	l	76
510189	5493787	Miller might have to wait until Sunday.	Miller might have to wait until Sunday	260761264	1478967527821	1478967527921	l	76
510189	5493787	Miller might have to wait until Sunday.	Miller might have to wait until Sunday	260761265	1478967527969	1478967528097	e	69
510189	5493787	Miller might have to wait until Sunday.	Miller might have to wait until Sunday	260761281	1478967528037	1478967528154	r	82
510189	5493787	Miller might have to wait until Sunday.	Miller might have to wait until Sunday	260761283	1478967528101	1478967528225	 	32
510189	5493787	Miller might have to wait until Sunday.	Miller might have to wait until Sunday	260761285	1478967528277	1478967528394	m	77
510189	5493787	Miller might have to wait until Sunday.	Miller might have to wait until Sunday	260761288	1478967528470	1478967528593	i	73
510189	5493787	Miller might have to wait until Sunday.	Miller might have to wait until Sunday	260761290	1478967528929	1478967529041	g	71
510189	5493787	Miller might have to wait until Sunday.	Miller might have to wait until Sunday	260761293	1478967529045	1478967529141	h	72
510189	5493787	Miller might have to wait until Sunday.	Miller might have to wait until Sunday	260761323	1478967529189	1478967529285	 	84
510189	5493787	Miller might have to wait until Sunday.	Miller might have to wait until Sunday	260761327	1478967529426	1478967529533	n	78
510189	5493787	Miller might have to wait until Sunday.	Miller might have to wait until Sunday	260761331	1478967529801	1478967529938	BKSP	8
510189	5493787	Miller might have to wait until Sunday.	Miller might have to wait until Sunday	260761335	1478967530333	1478967530433	h	72
510189	5493787	Miller might have to wait until Sunday.	Miller might have to wait until Sunday	260761361	1478967530405	1478967530537	a	65
510189	5493787	Miller might have to wait until Sunday.	Miller might have to wait until Sunday	260761364	1478967530546	1478967530633	v	86
510189	5493787	Miller might have to wait until Sunday.	Miller might have to wait until Sunday	260761367	1478967530625	1478967530749	e	69
510189	5493787	Miller might have to wait until Sunday.	Miller might have to wait until Sunday	260761370	1478967530765	1478967530877	 	32
510189	5493787	Miller might have to wait until Sunday.	Miller might have to wait until Sunday	260761373	1478967530921	1478967531021	t	84
510189	5493787	Miller might have to wait until Sunday.	Miller might have to wait until Sunday	260761375	1478967531045	1478967531209	o	79
510189	5493787	Miller might have to wait until Sunday.	Miller might have to wait until Sunday	260761384	1478967531121	1478967531257	 	32
510189	5493787	Miller might have to wait until Sunday.	Miller might have to wait until Sunday	260761385	1478967531289	1478967531538	w	87
510189	5493787	Miller might have to wait until Sunday.	Miller might have to wait until Sunday	260761387	1478967531405	1478967531593	a	65
510189	5493787	Miller might have to wait until Sunday.	Miller might have to wait until Sunday	260761390	1478967531586	1478967531682	i	73
510189	5493787	Miller might have to wait until Sunday.	Miller might have to wait until Sunday	260761394	1478967531714	1478967531825	t	84
510189	5493787	Miller might have to wait until Sunday.	Miller might have to wait until Sunday	260761420	1478967531813	1478967531913	 	32
510189	5493787	Miller might have to wait until Sunday.	Miller might have to wait until Sunday	260761421	1478967532073	1478967532265	u	85
510189	5493787	Miller might have to wait until Sunday.	Miller might have to wait until Sunday	260761422	1478967532205	1478967532329	n	78
510189	5493787	Miller might have to wait until Sunday.	Miller might have to wait until Sunday	260761423	1478967532381	1478967532493	t	84
510189	5493787	Miller might have to wait until Sunday.	Miller might have to wait until Sunday	260761425	1478967532521	1478967532613	i	73
510189	5493787	Miller might have to wait until Sunday.	Miller might have to wait until Sunday	260761428	1478967532737	1478967532821	l	76
510189	5493787	Miller might have to wait until Sunday.	Miller might have to wait until Sunday	260761463	1478967533237	1478967533349	 	32
510189	5493787	Miller might have to wait until Sunday.	Miller might have to wait until Sunday	260761465	1478967533533	1478967533786	SHIFT	16
510189	5493787	Miller might have to wait until Sunday.	Miller might have to wait until Sunday	260761469	1478967533682	1478967533806	S	83
510189	5493787	Miller might have to wait until Sunday.	Miller might have to wait until Sunday	260761473	1478967533926	1478967534093	u	85
510189	5493787	Miller might have to wait until Sunday.	Miller might have to wait until Sunday	260761475	1478967534018	1478967534146	n	78
510189	5493787	Miller might have to wait until Sunday.	Miller might have to wait until Sunday	260761494	1478967534129	1478967534217	d	68
510189	5493787	Miller might have to wait until Sunday.	Miller might have to wait until Sunday	260761496	1478967534357	1478967534517	a	65
510189	5493787	Miller might have to wait until Sunday.	Miller might have to wait until Sunday	260761498	1478967534665	1478967534753	t	84
510189	5493787	Miller might have to wait until Sunday.	Miller might have to wait until Sunday	260761500	1478967535365	1478967535469	BKSP	8
510189	5493787	Miller might have to wait until Sunday.	Miller might have to wait until Sunday	260761502	1478967535518	1478967535625	y	89
510189	5493792	Good to know it exists.	Good to know it exists	260761553	1478967536857	1478967537417	SHIFT	16
510189	5493792	Good to know it exists.	Good to know it exists	260761555	1478967537317	1478967537429	G	71
510189	5493792	Good to know it exists.	Good to know it exists	260761557	1478967537801	1478967537897	o	79
510189	5493792	Good to know it exists.	Good to know it exists	260761559	1478967537957	1478967538049	d	68
510189	5493792	Good to know it exists.	Good to know it exists	260761561	1478967538029	1478967538141	 	32
510189	5493792	Good to know it exists.	Good to know it exists	260761563	1478967538281	1478967538393	t	84
510189	5493792	Good to know it exists.	Good to know it exists	260761594	1478967538526	1478967538637	BKSP	8
510189	5493792	Good to know it exists.	Good to know it exists	260761596	1478967538710	1478967538781	BKSP	8
510189	5493792	Good to know it exists.	Good to know it exists	260761598	1478967538833	1478967538941	BKSP	8
510189	5493792	Good to know it exists.	Good to know it exists	260761600	1478967539189	1478967539305	d	68
510189	5493792	Good to know it exists.	Good to know it exists	260761602	1478967539554	1478967539685	BKSP	8
510189	5493792	Good to know it exists.	Good to know it exists	260761604	1478967539765	1478967539861	o	79
510189	5493792	Good to know it exists.	Good to know it exists	260761606	1478967539913	1478967540017	d	68
510189	5493792	Good to know it exists.	Good to know it exists	260761608	1478967540073	1478967540185	 	32
510189	5493792	Good to know it exists.	Good to know it exists	260761609	1478967540205	1478967540313	t	84
510189	5493792	Good to know it exists.	Good to know it exists	260761619	1478967540329	1478967540497	o	79
510189	5493792	Good to know it exists.	Good to know it exists	260761620	1478967540533	1478967540657	 	32
510189	5493792	Good to know it exists.	Good to know it exists	260761621	1478967540781	1478967540997	k	75
510189	5493792	Good to know it exists.	Good to know it exists	260761622	1478967540909	1478967541029	n	78
510189	5493792	Good to know it exists.	Good to know it exists	260761624	1478967541121	1478967541210	o	79
510189	5493792	Good to know it exists.	Good to know it exists	260761639	1478967541250	1478967541341	w	87
510189	5493792	Good to know it exists.	Good to know it exists	260761640	1478967541385	1478967541497	 	32
510189	5493792	Good to know it exists.	Good to know it exists	260761641	1478967541981	1478967542085	i	73
510189	5493792	Good to know it exists.	Good to know it exists	260761642	1478967542089	1478967542197	t	84
510189	5493792	Good to know it exists.	Good to know it exists	260761643	1478967542229	1478967542329	 	32
510189	5493792	Good to know it exists.	Good to know it exists	260761669	1478967542465	1478967542609	e	69
510189	5493792	Good to know it exists.	Good to know it exists	260761670	1478967543837	1478967543973	x	88
510189	5493792	Good to know it exists.	Good to know it exists	260761671	1478967544025	1478967544125	i	73
510189	5493792	Good to know it exists.	Good to know it exists	260761672	1478967544153	1478967544269	s	83
510189	5493792	Good to know it exists.	Good to know it exists	260761673	1478967544273	1478967544357	t	84
510189	5493792	Good to know it exists.	Good to know it exists	260761674	1478967544393	1478967544489	s	83
510189	5493796	It was very nice.	It was very nice	260761705	1478967545605	1478967546317	SHIFT	16
510189	5493796	It was very nice.	It was very nice	260761704	1478967546229	1478967546313	I	73
510189	5493796	It was very nice.	It was very nice	260761706	1478967546381	1478967546489	t	84
510189	5493796	It was very nice.	It was very nice	260761708	1478967546477	1478967546577	 	32
510189	5493796	It was very nice.	It was very nice	260761711	1478967546629	1478967546801	w	87
510189	5493796	It was very nice.	It was very nice	260761743	1478967546737	1478967546978	a	65
510189	5493796	It was very nice.	It was very nice	260761744	1478967546866	1478967546978	s	83
510189	5493796	It was very nice.	It was very nice	260761745	1478967546962	1478967547073	 	32
510189	5493796	It was very nice.	It was very nice	260761746	1478967547437	1478967547521	v	86
510189	5493796	It was very nice.	It was very nice	260761747	1478967547525	1478967547665	e	69
510189	5493796	It was very nice.	It was very nice	260761754	1478967547585	1478967547697	r	82
510189	5493796	It was very nice.	It was very nice	260761755	1478967547701	1478967547845	y	89
510189	5493796	It was very nice.	It was very nice	260761757	1478967547773	1478967547921	 	32
510189	5493796	It was very nice.	It was very nice	260761759	1478967548017	1478967548137	n	78
510189	5493796	It was very nice.	It was very nice	260761762	1478967548202	1478967548313	i	73
510189	5493796	It was very nice.	It was very nice	260761767	1478967548286	1478967548457	c	67
510189	5493797	Can you resend me the Doyle email from last week?	Can you resend me the Doyle email from last week	260761826	1478967548377	1478967552940	e	69
510189	5493797	Can you resend me the Doyle email from last week?	Can you resend me the Doyle email from last week	260761804	1478967549508	1478967551262	SHIFT	16
510189	5493797	Can you resend me the Doyle email from last week?	Can you resend me the Doyle email from last week	260761805	1478967551165	1478967551366	C	67
510189	5493797	Can you resend me the Doyle email from last week?	Can you resend me the Doyle email from last week	260761806	1478967551729	1478967551824	a	65
510189	5493797	Can you resend me the Doyle email from last week?	Can you resend me the Doyle email from last week	260761808	1478967551845	1478967551929	n	78
510189	5493797	Can you resend me the Doyle email from last week?	Can you resend me the Doyle email from last week	260761810	1478967551994	1478967552121	 	32
510189	5493797	Can you resend me the Doyle email from last week?	Can you resend me the Doyle email from last week	260761811	1478967552173	1478967552281	y	89
510189	5493797	Can you resend me the Doyle email from last week?	Can you resend me the Doyle email from last week	260761820	1478967552285	1478967552393	o	79
510189	5493797	Can you resend me the Doyle email from last week?	Can you resend me the Doyle email from last week	260761822	1478967552381	1478967552469	u	85
510189	5493797	Can you resend me the Doyle email from last week?	Can you resend me the Doyle email from last week	260761823	1478967552480	1478967552572	 	32
510189	5493797	Can you resend me the Doyle email from last week?	Can you resend me the Doyle email from last week	260761825	1478967552769	1478967552921	r	82
510189	5493797	Can you resend me the Doyle email from last week?	Can you resend me the Doyle email from last week	260761827	1478967553101	1478967553261	s	83
510189	5493797	Can you resend me the Doyle email from last week?	Can you resend me the Doyle email from last week	260761858	1478967553213	1478967553344	e	69
510189	5493797	Can you resend me the Doyle email from last week?	Can you resend me the Doyle email from last week	260761859	1478967553417	1478967553512	n	78
510189	5493797	Can you resend me the Doyle email from last week?	Can you resend me the Doyle email from last week	260761860	1478967553657	1478967553828	d	68
510189	5493797	Can you resend me the Doyle email from last week?	Can you resend me the Doyle email from last week	260761861	1478967553968	1478967554080	BKSP	8
510189	5493797	Can you resend me the Doyle email from last week?	Can you resend me the Doyle email from last week	260761862	1478967554133	1478967554228	BKSP	8
510189	5493797	Can you resend me the Doyle email from last week?	Can you resend me the Doyle email from last week	260761863	1478967554281	1478967554372	BKSP	8
510189	5493797	Can you resend me the Doyle email from last week?	Can you resend me the Doyle email from last week	260761864	1478967554429	1478967554616	BKSP	8
510189	5493797	Can you resend me the Doyle email from last week?	Can you resend me the Doyle email from last week	260761865	1478967554753	1478967554869	BKSP	8
510189	5493797	Can you resend me the Doyle email from last week?	Can you resend me the Doyle email from last week	260761866	1478967554917	1478967555117	r	82
510189	5493797	Can you resend me the Doyle email from last week?	Can you resend me the Doyle email from last week	260761867	1478967555018	1478967555145	e	69
510189	5493797	Can you resend me the Doyle email from last week?	Can you resend me the Doyle email from last week	260761868	1478967555685	1478967555904	s	83
510189	5493797	Can you resend me the Doyle email from last week?	Can you resend me the Doyle email from last week	260761895	1478967556264	1478967556344	n	78
510189	5493797	Can you resend me the Doyle email from last week?	Can you resend me the Doyle email from last week	260761896	1478967556429	1478967556657	e	69
510189	5493797	Can you resend me the Doyle email from last week?	Can you resend me the Doyle email from last week	260761897	1478967556594	1478967556705	d	68
510189	5493797	Can you resend me the Doyle email from last week?	Can you resend me the Doyle email from last week	260761898	1478967556678	1478967556772	 	32
510189	5493797	Can you resend me the Doyle email from last week?	Can you resend me the Doyle email from last week	260761899	1478967556896	1478967557008	BKSP	8
510189	5493797	Can you resend me the Doyle email from last week?	Can you resend me the Doyle email from last week	260761900	1478967557065	1478967557168	BKSP	8
510189	5493797	Can you resend me the Doyle email from last week?	Can you resend me the Doyle email from last week	260761902	1478967557221	1478967557320	BKSP	8
510189	5493797	Can you resend me the Doyle email from last week?	Can you resend me the Doyle email from last week	260761905	1478967557640	1478967557772	BKSP	8
510189	5493797	Can you resend me the Doyle email from last week?	Can you resend me the Doyle email from last week	260761908	1478967557853	1478967558001	e	69
510189	5493797	Can you resend me the Doyle email from last week?	Can you resend me the Doyle email from last week	260761910	1478967558018	1478967558112	n	78
510189	5493797	Can you resend me the Doyle email from last week?	Can you resend me the Doyle email from last week	260761911	1478967558145	1478967558270	d	68
510189	5493797	Can you resend me the Doyle email from last week?	Can you resend me the Doyle email from last week	260761912	1478967558273	1478967558385	 	32
510189	5493797	Can you resend me the Doyle email from last week?	Can you resend me the Doyle email from last week	260761913	1478967558389	1478967558497	t	84
510189	5493797	Can you resend me the Doyle email from last week?	Can you resend me the Doyle email from last week	260761928	1478967558493	1478967558596	h	72
510189	5493797	Can you resend me the Doyle email from last week?	Can you resend me the Doyle email from last week	260761929	1478967558608	1478967558725	e	69
510189	5493797	Can you resend me the Doyle email from last week?	Can you resend me the Doyle email from last week	260761930	1478967558728	1478967558820	 	32
510189	5493797	Can you resend me the Doyle email from last week?	Can you resend me the Doyle email from last week	260761933	1478967559484	1478967559588	BKSP	8
510189	5493797	Can you resend me the Doyle email from last week?	Can you resend me the Doyle email from last week	260761935	1478967559652	1478967559748	BKSP	8
510189	5493797	Can you resend me the Doyle email from last week?	Can you resend me the Doyle email from last week	260761937	1478967559812	1478967559924	BKSP	8
510189	5493797	Can you resend me the Doyle email from last week?	Can you resend me the Doyle email from last week	260761941	1478967559977	1478967560068	BKSP	8
510189	5493797	Can you resend me the Doyle email from last week?	Can you resend me the Doyle email from last week	260761945	1478967560429	1478967560520	m	77
510189	5493797	Can you resend me the Doyle email from last week?	Can you resend me the Doyle email from last week	260761950	1478967560528	1478967560620	e	69
510189	5493797	Can you resend me the Doyle email from last week?	Can you resend me the Doyle email from last week	260761955	1478967560636	1478967560748	 	32
510189	5493797	Can you resend me the Doyle email from last week?	Can you resend me the Doyle email from last week	260761962	1478967560752	1478967560864	t	84
510189	5493797	Can you resend me the Doyle email from last week?	Can you resend me the Doyle email from last week	260761963	1478967560861	1478967560960	h	72
510189	5493797	Can you resend me the Doyle email from last week?	Can you resend me the Doyle email from last week	260761964	1478967561032	1478967561136	e	69
510189	5493797	Can you resend me the Doyle email from last week?	Can you resend me the Doyle email from last week	260761965	1478967561225	1478967561320	 	32
510189	5493797	Can you resend me the Doyle email from last week?	Can you resend me the Doyle email from last week	260761966	1478967561772	1478967561989	SHIFT	16
510189	5493797	Can you resend me the Doyle email from last week?	Can you resend me the Doyle email from last week	260761971	1478967561882	1478967562045	D	68
510189	5493797	Can you resend me the Doyle email from last week?	Can you resend me the Doyle email from last week	260761972	1478967562252	1478967562352	o	79
510189	5493797	Can you resend me the Doyle email from last week?	Can you resend me the Doyle email from last week	260761973	1478967562345	1478967562452	y	89
510189	5493797	Can you resend me the Doyle email from last week?	Can you resend me the Doyle email from last week	260761974	1478967562480	1478967562588	l	76
510189	5493797	Can you resend me the Doyle email from last week?	Can you resend me the Doyle email from last week	260761975	1478967562604	1478967562760	e	69
510189	5493797	Can you resend me the Doyle email from last week?	Can you resend me the Doyle email from last week	260761976	1478967562912	1478967563012	 	32
510189	5493797	Can you resend me the Doyle email from last week?	Can you resend me the Doyle email from last week	260761990	1478967563096	1478967563200	e	69
510189	5493797	Can you resend me the Doyle email from last week?	Can you resend me the Doyle email from last week	260761991	1478967563176	1478967563329	m	77
510189	5493797	Can you resend me the Doyle email from last week?	Can you resend me the Doyle email from last week	260761992	1478967563352	1478967563460	a	65
510189	5493797	Can you resend me the Doyle email from last week?	Can you resend me the Doyle email from last week	260761993	1478967563454	1478967563596	i	73
510189	5493797	Can you resend me the Doyle email from last week?	Can you resend me the Doyle email from last week	260761994	1478967563676	1478967563784	l	76
510189	5493797	Can you resend me the Doyle email from last week?	Can you resend me the Doyle email from last week	260761995	1478967563852	1478967563968	 	32
510189	5493797	Can you resend me the Doyle email from last week?	Can you resend me the Doyle email from last week	260761996	1478967564076	1478967564192	f	70
510189	5493797	Can you resend me the Doyle email from last week?	Can you resend me the Doyle email from last week	260761997	1478967564273	1478967564384	r	82
510189	5493797	Can you resend me the Doyle email from last week?	Can you resend me the Doyle email from last week	260761998	1478967564329	1478967564496	o	79
510189	5493797	Can you resend me the Doyle email from last week?	Can you resend me the Doyle email from last week	260762009	1478967564408	1478967564528	m	77
510189	5493797	Can you resend me the Doyle email from last week?	Can you resend me the Doyle email from last week	260762010	1478967564596	1478967564704	 	32
510189	5493797	Can you resend me the Doyle email from last week?	Can you resend me the Doyle email from last week	260762011	1478967564869	1478967564928	l	186
510189	5493797	Can you resend me the Doyle email from last week?	Can you resend me the Doyle email from last week	260762013	1478967564980	1478967565208	a	65
510189	5493797	Can you resend me the Doyle email from last week?	Can you resend me the Doyle email from last week	260762036	1478967565088	1478967565212	s	83
510189	5493797	Can you resend me the Doyle email from last week?	Can you resend me the Doyle email from last week	260762037	1478967565400	1478967565504	BKSP	8
510189	5493797	Can you resend me the Doyle email from last week?	Can you resend me the Doyle email from last week	260762038	1478967565552	1478967565660	BKSP	8
510189	5493797	Can you resend me the Doyle email from last week?	Can you resend me the Doyle email from last week	260762039	1478967565696	1478967565792	BKSP	8
510189	5493797	Can you resend me the Doyle email from last week?	Can you resend me the Doyle email from last week	260762040	1478967565840	1478967565920	BKSP	8
510189	5493797	Can you resend me the Doyle email from last week?	Can you resend me the Doyle email from last week	260762041	1478967566404	1478967566504	l	76
510189	5493797	Can you resend me the Doyle email from last week?	Can you resend me the Doyle email from last week	260762042	1478967566536	1478967566760	a	65
510189	5493797	Can you resend me the Doyle email from last week?	Can you resend me the Doyle email from last week	260762043	1478967566632	1478967566784	s	83
510189	5493797	Can you resend me the Doyle email from last week?	Can you resend me the Doyle email from last week	260762044	1478967566733	1478967566900	t	84
510189	5493797	Can you resend me the Doyle email from last week?	Can you resend me the Doyle email from last week	260762057	1478967566848	1478967566980	 	32
510189	5493797	Can you resend me the Doyle email from last week?	Can you resend me the Doyle email from last week	260762060	1478967567048	1478967567192	e	69
510189	5493797	Can you resend me the Doyle email from last week?	Can you resend me the Doyle email from last week	260762064	1478967567352	1478967567484	BKSP	8
510189	5493797	Can you resend me the Doyle email from last week?	Can you resend me the Doyle email from last week	260762067	1478967567452	1478967567636	w	87
510189	5493797	Can you resend me the Doyle email from last week?	Can you resend me the Doyle email from last week	260762069	1478967567581	1478967567704	e	69
510189	5493797	Can you resend me the Doyle email from last week?	Can you resend me the Doyle email from last week	260762073	1478967567752	1478967567876	e	69
510189	5493797	Can you resend me the Doyle email from last week?	Can you resend me the Doyle email from last week	260762071	1478967567860	1478967567976	k	75
510189	5493804	In a couple of weeks.	In a couple of weeks	260762114	1478967569133	1478967569788	SHIFT	16
510189	5493804	In a couple of weeks.	In a couple of weeks	260762116	1478967569668	1478967569800	I	73
510189	5493804	In a couple of weeks.	In a couple of weeks	260762117	1478967569864	1478967569984	n	78
510189	5493804	In a couple of weeks.	In a couple of weeks	260762118	1478967570056	1478967570176	 	32
510189	5493804	In a couple of weeks.	In a couple of weeks	260762119	1478967570209	1478967570312	a	65
510189	5493804	In a couple of weeks.	In a couple of weeks	260762120	1478967570337	1478967570416	n	78
510189	5493804	In a couple of weeks.	In a couple of weeks	260762131	1478967570821	1478967570936	BKSP	8
510189	5493804	In a couple of weeks.	In a couple of weeks	260762134	1478967571528	1478967571636	 	32
510189	5493804	In a couple of weeks.	In a couple of weeks	260762136	1478967571832	1478967571936	c	67
510189	5493804	In a couple of weeks.	In a couple of weeks	260762138	1478967571944	1478967572088	o	79
510189	5493804	In a couple of weeks.	In a couple of weeks	260762140	1478967572020	1478967572136	u	85
510189	5493804	In a couple of weeks.	In a couple of weeks	260762142	1478967572244	1478967572460	p	80
510189	5493804	In a couple of weeks.	In a couple of weeks	260762143	1478967572344	1478967572508	l	76
510189	5493804	In a couple of weeks.	In a couple of weeks	260762144	1478967572532	1478967572641	e	69
510189	5493804	In a couple of weeks.	In a couple of weeks	260762145	1478967572644	1478967572748	 	32
510189	5493804	In a couple of weeks.	In a couple of weeks	260762147	1478967572844	1478967572952	o	79
510189	5493804	In a couple of weeks.	In a couple of weeks	260762150	1478967573004	1478967573116	f	70
510189	5493804	In a couple of weeks.	In a couple of weeks	260762155	1478967573093	1478967573180	 	32
510189	5493804	In a couple of weeks.	In a couple of weeks	260762157	1478967573232	1478967573408	w	87
510189	5493804	In a couple of weeks.	In a couple of weeks	260762160	1478967573329	1478967573448	e	69
510189	5493804	In a couple of weeks.	In a couple of weeks	260762164	1478967573504	1478967573664	e	69
510189	5493804	In a couple of weeks.	In a couple of weeks	260762166	1478967573656	1478967573744	k	75
510189	5493804	In a couple of weeks.	In a couple of weeks	260762169	1478967573752	1478967573844	s	83
510189	5493807	We have lots of forks, etc.	We have lots of forks, etc	260762214	1478967574976	1478967575708	SHIFT	16
510189	5493807	We have lots of forks, etc.	We have lots of forks, etc	260762217	1478967575560	1478967575724	W	87
510189	5493807	We have lots of forks, etc.	We have lots of forks, etc	260762220	1478967576216	1478967576320	e	69
510189	5493807	We have lots of forks, etc.	We have lots of forks, etc	260762222	1478967576324	1478967576428	 	32
510189	5493807	We have lots of forks, etc.	We have lots of forks, etc	260762224	1478967576500	1478967576616	h	72
510189	5493807	We have lots of forks, etc.	We have lots of forks, etc	260762230	1478967576608	1478967576712	a	65
510189	5493807	We have lots of forks, etc.	We have lots of forks, etc	260762231	1478967576716	1478967576784	v	86
510189	5493807	We have lots of forks, etc.	We have lots of forks, etc	260762232	1478967576792	1478967576912	e	69
510189	5493807	We have lots of forks, etc.	We have lots of forks, etc	260762233	1478967576888	1478967577000	 	32
510189	5493807	We have lots of forks, etc.	We have lots of forks, etc	260762234	1478967577084	1478967577208	l	76
510189	5493807	We have lots of forks, etc.	We have lots of forks, etc	260762235	1478967577284	1478967577380	o	79
510189	5493807	We have lots of forks, etc.	We have lots of forks, etc	260762245	1478967577412	1478967577516	t	84
510189	5493807	We have lots of forks, etc.	We have lots of forks, etc	260762247	1478967577576	1478967577680	 	32
510189	5493807	We have lots of forks, etc.	We have lots of forks, etc	260762249	1478967577916	1478967578052	BKSP	8
510189	5493807	We have lots of forks, etc.	We have lots of forks, etc	260762251	1478967578096	1478967578168	s	83
510189	5493807	We have lots of forks, etc.	We have lots of forks, etc	260762255	1478967578200	1478967578312	 	32
510189	5493807	We have lots of forks, etc.	We have lots of forks, etc	260762258	1478967578352	1478967578484	o	79
510189	5493807	We have lots of forks, etc.	We have lots of forks, etc	260762280	1478967579128	1478967579216	f	70
510189	5493807	We have lots of forks, etc.	We have lots of forks, etc	260762283	1478967579256	1478967579348	 	32
510189	5493807	We have lots of forks, etc.	We have lots of forks, etc	260762284	1478967579440	1478967579548	f	70
510189	5493807	We have lots of forks, etc.	We have lots of forks, etc	260762286	1478967579536	1478967579636	o	79
510189	5493807	We have lots of forks, etc.	We have lots of forks, etc	260762288	1478967579656	1478967579761	r	82
510189	5493807	We have lots of forks, etc.	We have lots of forks, etc	260762338	1478967579996	1478967580216	BKSP	8
510189	5493807	We have lots of forks, etc.	We have lots of forks, etc	260762339	1478967581936	1478967582036	r	82
510189	5493807	We have lots of forks, etc.	We have lots of forks, etc	260762341	1478967582264	1478967582356	k	75
510189	5493807	We have lots of forks, etc.	We have lots of forks, etc	260762342	1478967582416	1478967582516	s	83
510189	5493807	We have lots of forks, etc.	We have lots of forks, etc	260762343	1478967582921	1478967583016	,	188
510189	5493807	We have lots of forks, etc.	We have lots of forks, etc	260762344	1478967583116	1478967583212	 	32
510189	5493807	We have lots of forks, etc.	We have lots of forks, etc	260762360	1478967583425	1478967583508	e	69
510189	5493807	We have lots of forks, etc.	We have lots of forks, etc	260762361	1478967583680	1478967583792	t	84
510189	5493807	We have lots of forks, etc.	We have lots of forks, etc	260762362	1478967583780	1478967583888	c	67
