PARTICIPANT_ID	TEST_SECTION_ID	SENTENCE	USER_INPUT	KEYSTROKE_ID	PRESS_TIME	RELEASE_TIME	LETTER	KEYCODE
510605	5496875	Please let me know if you learn anything at the floor meeting.	Please let me know if you learn anything at the floor meeting.	260909211	1478973927372	1478973927473	CAPS_LOCK	20
510605	5496875	Please let me know if you learn anything at the floor meeting.	Please let me know if you learn anything at the floor meeting.	260909214	1478973927433	1478973927529	P	80
510605	5496875	Please let me know if you learn anything at the floor meeting.	Please let me know if you learn anything at the floor meeting.	260909218	1478973927506	1478973927648	CAPS_LOCK	20
510605	5496875	Please let me know if you learn anything at the floor meeting.	Please let me know if you learn anything at the floor meeting.	260909222	1478973927587	1478973927688	l	76
510605	5496875	Please let me know if you learn anything at the floor meeting.	Please let me know if you learn anything at the floor meeting.	260909225	1478973927665	1478973927833	e	69
510605	5496875	Please let me know if you learn anything at the floor meeting.	Please let me know if you learn anything at the floor meeting.	260909228	1478973927802	1478973927928	a	65
510605	5496875	Please let me know if you learn anything at the floor meeting.	Please let me know if you learn anything at the floor meeting.	260909241	1478973927859	1478973927993	s	83
510605	5496875	Please let me know if you learn anything at the floor meeting.	Please let me know if you learn anything at the floor meeting.	260909244	1478973927954	1478973928057	e	69
510605	5496875	Please let me know if you learn anything at the floor meeting.	Please let me know if you learn anything at the floor meeting.	260909246	1478973928026	1478973928089	 	32
510605	5496875	Please let me know if you learn anything at the floor meeting.	Please let me know if you learn anything at the floor meeting.	260909247	1478973928177	1478973928257	l	76
510605	5496875	Please let me know if you learn anything at the floor meeting.	Please let me know if you learn anything at the floor meeting.	260909248	1478973928217	1478973928305	e	69
510605	5496875	Please let me know if you learn anything at the floor meeting.	Please let me know if you learn anything at the floor meeting.	260909249	1478973928394	1478973928473	t	84
510605	5496875	Please let me know if you learn anything at the floor meeting.	Please let me know if you learn anything at the floor meeting.	260909274	1478973928451	1478973928512	 	32
510605	5496875	Please let me know if you learn anything at the floor meeting.	Please let me know if you learn anything at the floor meeting.	260909276	1478973928689	1478973928770	e	69
510605	5496875	Please let me know if you learn anything at the floor meeting.	Please let me know if you learn anything at the floor meeting.	260909277	1478973929082	1478973929169	BKSP	8
510605	5496875	Please let me know if you learn anything at the floor meeting.	Please let me know if you learn anything at the floor meeting.	260909278	1478973929257	1478973929337	m	77
510605	5496875	Please let me know if you learn anything at the floor meeting.	Please let me know if you learn anything at the floor meeting.	260909279	1478973929364	1478973929448	e	69
510605	5496875	Please let me know if you learn anything at the floor meeting.	Please let me know if you learn anything at the floor meeting.	260909280	1478973929420	1478973929473	 	32
510605	5496875	Please let me know if you learn anything at the floor meeting.	Please let me know if you learn anything at the floor meeting.	260909281	1478973929555	1478973929616	k	75
510605	5496875	Please let me know if you learn anything at the floor meeting.	Please let me know if you learn anything at the floor meeting.	260909282	1478973929706	1478973929769	n	78
510605	5496875	Please let me know if you learn anything at the floor meeting.	Please let me know if you learn anything at the floor meeting.	260909283	1478973929850	1478973929929	o	79
510605	5496875	Please let me know if you learn anything at the floor meeting.	Please let me know if you learn anything at the floor meeting.	260909284	1478973929948	1478973930057	w	87
510605	5496875	Please let me know if you learn anything at the floor meeting.	Please let me know if you learn anything at the floor meeting.	260909285	1478973930033	1478973930097	 	32
510605	5496875	Please let me know if you learn anything at the floor meeting.	Please let me know if you learn anything at the floor meeting.	260909286	1478973930195	1478973930264	i	73
510605	5496875	Please let me know if you learn anything at the floor meeting.	Please let me know if you learn anything at the floor meeting.	260909292	1478973930233	1478973930337	f	70
510605	5496875	Please let me know if you learn anything at the floor meeting.	Please let me know if you learn anything at the floor meeting.	260909294	1478973930364	1478973930433	 	32
510605	5496875	Please let me know if you learn anything at the floor meeting.	Please let me know if you learn anything at the floor meeting.	260909297	1478973930466	1478973930562	y	89
510605	5496875	Please let me know if you learn anything at the floor meeting.	Please let me know if you learn anything at the floor meeting.	260909299	1478973930586	1478973930632	o	79
510605	5496875	Please let me know if you learn anything at the floor meeting.	Please let me know if you learn anything at the floor meeting.	260909303	1478973930657	1478973930729	u	85
510605	5496875	Please let me know if you learn anything at the floor meeting.	Please let me know if you learn anything at the floor meeting.	260909309	1478973930987	1478973931073	 	32
510605	5496875	Please let me know if you learn anything at the floor meeting.	Please let me know if you learn anything at the floor meeting.	260909323	1478973931180	1478973931304	e	69
510605	5496875	Please let me know if you learn anything at the floor meeting.	Please let me know if you learn anything at the floor meeting.	260909321	1478973931201	1478973931249	l	76
510605	5496875	Please let me know if you learn anything at the floor meeting.	Please let me know if you learn anything at the floor meeting.	260909325	1478973931281	1478973931458	a	65
510605	5496875	Please let me know if you learn anything at the floor meeting.	Please let me know if you learn anything at the floor meeting.	260909327	1478973931386	1478973931497	r	82
510605	5496875	Please let me know if you learn anything at the floor meeting.	Please let me know if you learn anything at the floor meeting.	260909330	1478973931524	1478973931561	n	78
510605	5496875	Please let me know if you learn anything at the floor meeting.	Please let me know if you learn anything at the floor meeting.	260909347	1478973931697	1478973931753	BKSP	8
510605	5496875	Please let me know if you learn anything at the floor meeting.	Please let me know if you learn anything at the floor meeting.	260909350	1478973931850	1478973931905	BKSP	8
510605	5496875	Please let me know if you learn anything at the floor meeting.	Please let me know if you learn anything at the floor meeting.	260909352	1478973931979	1478973932042	BKSP	8
510605	5496875	Please let me know if you learn anything at the floor meeting.	Please let me know if you learn anything at the floor meeting.	260909356	1478973932107	1478973932177	BKSP	8
510605	5496875	Please let me know if you learn anything at the floor meeting.	Please let me know if you learn anything at the floor meeting.	260909359	1478973932250	1478973932345	BKSP	8
510605	5496875	Please let me know if you learn anything at the floor meeting.	Please let me know if you learn anything at the floor meeting.	260909362	1478973932451	1478973932545	l	76
510605	5496875	Please let me know if you learn anything at the floor meeting.	Please let me know if you learn anything at the floor meeting.	260909364	1478973932521	1478973932641	e	69
510605	5496875	Please let me know if you learn anything at the floor meeting.	Please let me know if you learn anything at the floor meeting.	260909366	1478973932617	1478973932793	a	65
510605	5496875	Please let me know if you learn anything at the floor meeting.	Please let me know if you learn anything at the floor meeting.	260909367	1478973932714	1478973932833	r	82
510605	5496875	Please let me know if you learn anything at the floor meeting.	Please let me know if you learn anything at the floor meeting.	260909368	1478973932817	1478973932865	n	78
510605	5496875	Please let me know if you learn anything at the floor meeting.	Please let me know if you learn anything at the floor meeting.	260909369	1478973932947	1478973933017	 	32
510605	5496875	Please let me know if you learn anything at the floor meeting.	Please let me know if you learn anything at the floor meeting.	260909371	1478973932993	1478973933106	a	65
510605	5496875	Please let me know if you learn anything at the floor meeting.	Please let me know if you learn anything at the floor meeting.	260909373	1478973933131	1478973933184	n	78
510605	5496875	Please let me know if you learn anything at the floor meeting.	Please let me know if you learn anything at the floor meeting.	260909375	1478973933209	1478973933281	y	89
510605	5496875	Please let me know if you learn anything at the floor meeting.	Please let me know if you learn anything at the floor meeting.	260909377	1478973933369	1478973933481	t	84
510605	5496875	Please let me know if you learn anything at the floor meeting.	Please let me know if you learn anything at the floor meeting.	260909380	1478973933458	1478973933538	h	72
510605	5496875	Please let me know if you learn anything at the floor meeting.	Please let me know if you learn anything at the floor meeting.	260909381	1478973933617	1478973933689	i	73
510605	5496875	Please let me know if you learn anything at the floor meeting.	Please let me know if you learn anything at the floor meeting.	260909382	1478973933771	1478973933841	n	78
510605	5496875	Please let me know if you learn anything at the floor meeting.	Please let me know if you learn anything at the floor meeting.	260909383	1478973933858	1478973933945	g	71
510605	5496875	Please let me know if you learn anything at the floor meeting.	Please let me know if you learn anything at the floor meeting.	260909385	1478973933931	1478973934001	 	32
510605	5496875	Please let me know if you learn anything at the floor meeting.	Please let me know if you learn anything at the floor meeting.	260909387	1478973934042	1478973934177	a	65
510605	5496875	Please let me know if you learn anything at the floor meeting.	Please let me know if you learn anything at the floor meeting.	260909398	1478973934140	1478973934257	t	84
510605	5496875	Please let me know if you learn anything at the floor meeting.	Please let me know if you learn anything at the floor meeting.	260909400	1478973934234	1478973934297	 	32
510605	5496875	Please let me know if you learn anything at the floor meeting.	Please let me know if you learn anything at the floor meeting.	260909403	1478973934331	1478973934425	t	84
510605	5496875	Please let me know if you learn anything at the floor meeting.	Please let me know if you learn anything at the floor meeting.	260909404	1478973934410	1478973934481	h	72
510605	5496875	Please let me know if you learn anything at the floor meeting.	Please let me know if you learn anything at the floor meeting.	260909407	1478973934530	1478973934609	e	69
510605	5496875	Please let me know if you learn anything at the floor meeting.	Please let me know if you learn anything at the floor meeting.	260909424	1478973934570	1478973934649	 	32
510605	5496875	Please let me know if you learn anything at the floor meeting.	Please let me know if you learn anything at the floor meeting.	260909426	1478973934707	1478973934802	f	70
510605	5496875	Please let me know if you learn anything at the floor meeting.	Please let me know if you learn anything at the floor meeting.	260909428	1478973934827	1478973934913	l	76
510605	5496875	Please let me know if you learn anything at the floor meeting.	Please let me know if you learn anything at the floor meeting.	260909429	1478973935004	1478973935065	o	79
510605	5496875	Please let me know if you learn anything at the floor meeting.	Please let me know if you learn anything at the floor meeting.	260909430	1478973935122	1478973935209	o	79
510605	5496875	Please let me know if you learn anything at the floor meeting.	Please let me know if you learn anything at the floor meeting.	260909444	1478973935193	1478973935306	r	82
510605	5496875	Please let me know if you learn anything at the floor meeting.	Please let me know if you learn anything at the floor meeting.	260909447	1478973935291	1478973935345	 	32
510605	5496875	Please let me know if you learn anything at the floor meeting.	Please let me know if you learn anything at the floor meeting.	260909450	1478973935417	1478973935488	m	77
510605	5496875	Please let me know if you learn anything at the floor meeting.	Please let me know if you learn anything at the floor meeting.	260909453	1478973935457	1478973935545	e	69
510605	5496875	Please let me know if you learn anything at the floor meeting.	Please let me know if you learn anything at the floor meeting.	260909456	1478973935650	1478973935721	t	84
510605	5496875	Please let me know if you learn anything at the floor meeting.	Please let me know if you learn anything at the floor meeting.	260909458	1478973936025	1478973936105	BKSP	8
510605	5496875	Please let me know if you learn anything at the floor meeting.	Please let me know if you learn anything at the floor meeting.	260909464	1478973936082	1478973936178	e	69
510605	5496875	Please let me know if you learn anything at the floor meeting.	Please let me know if you learn anything at the floor meeting.	260909466	1478973936282	1478973936377	t	84
510605	5496875	Please let me know if you learn anything at the floor meeting.	Please let me know if you learn anything at the floor meeting.	260909469	1478973936355	1478973936417	i	73
510605	5496875	Please let me know if you learn anything at the floor meeting.	Please let me know if you learn anything at the floor meeting.	260909474	1478973936497	1478973936569	n	78
510605	5496875	Please let me know if you learn anything at the floor meeting.	Please let me know if you learn anything at the floor meeting.	260909478	1478973936587	1478973936697	g	71
510605	5496881	The statement gave no further details of the incident.	The statement gave no further details of the incident.	260909818	1478973936684	1478973947881	.	190
510605	5496881	The statement gave no further details of the incident.	The statement gave no further details of the incident.	260909541	1478973938634	1478973938753	CAPS_LOCK	20
510605	5496881	The statement gave no further details of the incident.	The statement gave no further details of the incident.	260909544	1478973938739	1478973938865	T	84
510605	5496881	The statement gave no further details of the incident.	The statement gave no further details of the incident.	260909548	1478973938834	1478973938969	CAPS_LOCK	20
510605	5496881	The statement gave no further details of the incident.	The statement gave no further details of the incident.	260909546	1478973938883	1478973938954	h	72
510605	5496881	The statement gave no further details of the incident.	The statement gave no further details of the incident.	260909550	1478973938993	1478973939104	e	69
510605	5496881	The statement gave no further details of the incident.	The statement gave no further details of the incident.	260909553	1478973939090	1478973939152	 	32
510605	5496881	The statement gave no further details of the incident.	The statement gave no further details of the incident.	260909555	1478973939243	1478973939337	a	65
510605	5496881	The statement gave no further details of the incident.	The statement gave no further details of the incident.	260909578	1478973939299	1478973939393	s	83
510605	5496881	The statement gave no further details of the incident.	The statement gave no further details of the incident.	260909581	1478973939633	1478973939689	BKSP	8
510605	5496881	The statement gave no further details of the incident.	The statement gave no further details of the incident.	260909584	1478973939755	1478973939833	s	8
510605	5496881	The statement gave no further details of the incident.	The statement gave no further details of the incident.	260909587	1478973939881	1478973939986	t	84
510605	5496881	The statement gave no further details of the incident.	The statement gave no further details of the incident.	260909588	1478973940033	1478973940152	a	65
510605	5496881	The statement gave no further details of the incident.	The statement gave no further details of the incident.	260909589	1478973940457	1478973940537	t	84
510605	5496881	The statement gave no further details of the incident.	The statement gave no further details of the incident.	260909590	1478973940625	1478973940705	e	69
510605	5496881	The statement gave no further details of the incident.	The statement gave no further details of the incident.	260909600	1478973940731	1478973940809	m	77
510605	5496881	The statement gave no further details of the incident.	The statement gave no further details of the incident.	260909602	1478973940836	1478973940914	e	69
510605	5496881	The statement gave no further details of the incident.	The statement gave no further details of the incident.	260909604	1478973941002	1478973941081	n	78
510605	5496881	The statement gave no further details of the incident.	The statement gave no further details of the incident.	260909606	1478973941114	1478973941201	t	84
510605	5496881	The statement gave no further details of the incident.	The statement gave no further details of the incident.	260909608	1478973941225	1478973941289	 	32
510605	5496881	The statement gave no further details of the incident.	The statement gave no further details of the incident.	260909629	1478973941506	1478973941608	g	71
510605	5496881	The statement gave no further details of the incident.	The statement gave no further details of the incident.	260909630	1478973941593	1478973941737	a	65
510605	5496881	The statement gave no further details of the incident.	The statement gave no further details of the incident.	260909631	1478973941705	1478973941769	v	86
510605	5496881	The statement gave no further details of the incident.	The statement gave no further details of the incident.	260909633	1478973941874	1478973941937	e	69
510605	5496881	The statement gave no further details of the incident.	The statement gave no further details of the incident.	260909636	1478973942004	1478973942081	 	32
510605	5496881	The statement gave no further details of the incident.	The statement gave no further details of the incident.	260909655	1478973942170	1478973942233	n	78
510605	5496881	The statement gave no further details of the incident.	The statement gave no further details of the incident.	260909656	1478973942346	1478973942393	o	79
510605	5496881	The statement gave no further details of the incident.	The statement gave no further details of the incident.	260909657	1478973942540	1478973942609	 	32
510605	5496881	The statement gave no further details of the incident.	The statement gave no further details of the incident.	260909658	1478973942682	1478973942769	f	70
510605	5496881	The statement gave no further details of the incident.	The statement gave no further details of the incident.	260909659	1478973942787	1478973942857	u	85
510605	5496881	The statement gave no further details of the incident.	The statement gave no further details of the incident.	260909678	1478973942891	1478973942961	r	82
510605	5496881	The statement gave no further details of the incident.	The statement gave no further details of the incident.	260909681	1478973943058	1478973943144	t	84
510605	5496881	The statement gave no further details of the incident.	The statement gave no further details of the incident.	260909683	1478973943162	1478973943233	h	72
510605	5496881	The statement gave no further details of the incident.	The statement gave no further details of the incident.	260909685	1478973943265	1478973943345	e	69
510605	5496881	The statement gave no further details of the incident.	The statement gave no further details of the incident.	260909686	1478973943411	1478973943489	r	82
510605	5496881	The statement gave no further details of the incident.	The statement gave no further details of the incident.	260909693	1478973943513	1478973943553	 	32
510605	5496881	The statement gave no further details of the incident.	The statement gave no further details of the incident.	260909694	1478973943602	1478973943672	d	68
510605	5496881	The statement gave no further details of the incident.	The statement gave no further details of the incident.	260909696	1478973943779	1478973943841	e	69
510605	5496881	The statement gave no further details of the incident.	The statement gave no further details of the incident.	260909698	1478973944169	1478973944281	t	84
510605	5496881	The statement gave no further details of the incident.	The statement gave no further details of the incident.	260909701	1478973944316	1478973944425	a	65
510605	5496881	The statement gave no further details of the incident.	The statement gave no further details of the incident.	260909724	1478973944401	1478973944465	i	73
510605	5496881	The statement gave no further details of the incident.	The statement gave no further details of the incident.	260909726	1478973944611	1478973944713	l	76
510605	5496881	The statement gave no further details of the incident.	The statement gave no further details of the incident.	260909729	1478973944738	1478973944817	s	83
510605	5496881	The statement gave no further details of the incident.	The statement gave no further details of the incident.	260909731	1478973944833	1478973944897	 	32
510605	5496881	The statement gave no further details of the incident.	The statement gave no further details of the incident.	260909732	1478973945011	1478973945082	o	79
510605	5496881	The statement gave no further details of the incident.	The statement gave no further details of the incident.	260909733	1478973945108	1478973945170	f	70
510605	5496881	The statement gave no further details of the incident.	The statement gave no further details of the incident.	260909736	1478973945187	1478973945265	 	32
510605	5496881	The statement gave no further details of the incident.	The statement gave no further details of the incident.	260909738	1478973945291	1478973945361	t	84
510605	5496881	The statement gave no further details of the incident.	The statement gave no further details of the incident.	260909739	1478973945378	1478973945441	h	72
510605	5496881	The statement gave no further details of the incident.	The statement gave no further details of the incident.	260909740	1478973945465	1478973945545	w	87
510605	5496881	The statement gave no further details of the incident.	The statement gave no further details of the incident.	260909771	1478973945521	1478973945601	 	32
510605	5496881	The statement gave no further details of the incident.	The statement gave no further details of the incident.	260909773	1478973945875	1478973945921	BKSP	8
510605	5496881	The statement gave no further details of the incident.	The statement gave no further details of the incident.	260909775	1478973946018	1478973946097	BKSP	8
510605	5496881	The statement gave no further details of the incident.	The statement gave no further details of the incident.	260909776	1478973946170	1478973946265	e	69
510605	5496881	The statement gave no further details of the incident.	The statement gave no further details of the incident.	260909778	1478973946284	1478973946329	 	32
510605	5496881	The statement gave no further details of the incident.	The statement gave no further details of the incident.	260909780	1478973946427	1478973946481	i	73
510605	5496881	The statement gave no further details of the incident.	The statement gave no further details of the incident.	260909783	1478973946596	1478973946666	n	78
510605	5496881	The statement gave no further details of the incident.	The statement gave no further details of the incident.	260909785	1478973946691	1478973946841	c	67
510605	5496881	The statement gave no further details of the incident.	The statement gave no further details of the incident.	260909812	1478973946817	1478973946905	i	73
510605	5496881	The statement gave no further details of the incident.	The statement gave no further details of the incident.	260909814	1478973946977	1478973947065	d	68
510605	5496881	The statement gave no further details of the incident.	The statement gave no further details of the incident.	260909815	1478973947178	1478973947257	e	69
510605	5496881	The statement gave no further details of the incident.	The statement gave no further details of the incident.	260909816	1478973947289	1478973947377	n	78
510605	5496881	The statement gave no further details of the incident.	The statement gave no further details of the incident.	260909817	1478973947395	1478973947497	t	84
510605	5496887	Baku's forces had for more than 24 hours been engaged in clashes.	Baku's forces had for more than 24 hours been engaged in clashes.	260909887	1478973949180	1478973949273	CAPS_LOCK	20
510605	5496887	Baku's forces had for more than 24 hours been engaged in clashes.	Baku's forces had for more than 24 hours been engaged in clashes.	260909890	1478973949292	1478973949329	K	75
510605	5496887	Baku's forces had for more than 24 hours been engaged in clashes.	Baku's forces had for more than 24 hours been engaged in clashes.	260909893	1478973949618	1478973949697	BKSP	8
510605	5496887	Baku's forces had for more than 24 hours been engaged in clashes.	Baku's forces had for more than 24 hours been engaged in clashes.	260909894	1478973949915	1478973949985	B	66
510605	5496887	Baku's forces had for more than 24 hours been engaged in clashes.	Baku's forces had for more than 24 hours been engaged in clashes.	260909895	1478973950010	1478973950097	CAPS_LOCK	20
510605	5496887	Baku's forces had for more than 24 hours been engaged in clashes.	Baku's forces had for more than 24 hours been engaged in clashes.	260909897	1478973950195	1478973950297	a	65
510605	5496887	Baku's forces had for more than 24 hours been engaged in clashes.	Baku's forces had for more than 24 hours been engaged in clashes.	260909900	1478973950274	1478973950345	k	75
510605	5496887	Baku's forces had for more than 24 hours been engaged in clashes.	Baku's forces had for more than 24 hours been engaged in clashes.	260909903	1478973950546	1478973950665	u	85
510605	5496887	Baku's forces had for more than 24 hours been engaged in clashes.	Baku's forces had for more than 24 hours been engaged in clashes.	260909916	1478973950689	1478973950793	'	192
510605	5496887	Baku's forces had for more than 24 hours been engaged in clashes.	Baku's forces had for more than 24 hours been engaged in clashes.	260909918	1478973950851	1478973950937	s	83
510605	5496887	Baku's forces had for more than 24 hours been engaged in clashes.	Baku's forces had for more than 24 hours been engaged in clashes.	260909921	1478973950962	1478973951009	 	32
510605	5496887	Baku's forces had for more than 24 hours been engaged in clashes.	Baku's forces had for more than 24 hours been engaged in clashes.	260909924	1478973951139	1478973951241	f	70
510605	5496887	Baku's forces had for more than 24 hours been engaged in clashes.	Baku's forces had for more than 24 hours been engaged in clashes.	260909927	1478973951259	1478973951313	o	79
510605	5496887	Baku's forces had for more than 24 hours been engaged in clashes.	Baku's forces had for more than 24 hours been engaged in clashes.	260909948	1478973951329	1478973951401	r	82
510605	5496887	Baku's forces had for more than 24 hours been engaged in clashes.	Baku's forces had for more than 24 hours been engaged in clashes.	260909950	1478973951859	1478973951928	c	67
510605	5496887	Baku's forces had for more than 24 hours been engaged in clashes.	Baku's forces had for more than 24 hours been engaged in clashes.	260909951	1478973952018	1478973952129	e	69
510605	5496887	Baku's forces had for more than 24 hours been engaged in clashes.	Baku's forces had for more than 24 hours been engaged in clashes.	260909953	1478973952108	1478973952209	s	83
510605	5496887	Baku's forces had for more than 24 hours been engaged in clashes.	Baku's forces had for more than 24 hours been engaged in clashes.	260909958	1478973952187	1478973952265	 	32
510605	5496887	Baku's forces had for more than 24 hours been engaged in clashes.	Baku's forces had for more than 24 hours been engaged in clashes.	260909960	1478973952378	1478973952465	h	72
510605	5496887	Baku's forces had for more than 24 hours been engaged in clashes.	Baku's forces had for more than 24 hours been engaged in clashes.	260909962	1478973952441	1478973952577	a	65
510605	5496887	Baku's forces had for more than 24 hours been engaged in clashes.	Baku's forces had for more than 24 hours been engaged in clashes.	260909965	1478973952513	1478973952617	d	68
510605	5496887	Baku's forces had for more than 24 hours been engaged in clashes.	Baku's forces had for more than 24 hours been engaged in clashes.	260909969	1478973952602	1478973952666	 	32
510605	5496887	Baku's forces had for more than 24 hours been engaged in clashes.	Baku's forces had for more than 24 hours been engaged in clashes.	260909974	1478973952700	1478973952777	f	70
510605	5496887	Baku's forces had for more than 24 hours been engaged in clashes.	Baku's forces had for more than 24 hours been engaged in clashes.	260909984	1478973952801	1478973952865	o	79
510605	5496887	Baku's forces had for more than 24 hours been engaged in clashes.	Baku's forces had for more than 24 hours been engaged in clashes.	260909985	1478973952890	1478973952960	r	82
510605	5496887	Baku's forces had for more than 24 hours been engaged in clashes.	Baku's forces had for more than 24 hours been engaged in clashes.	260909986	1478973952985	1478973953049	 	32
510605	5496887	Baku's forces had for more than 24 hours been engaged in clashes.	Baku's forces had for more than 24 hours been engaged in clashes.	260909987	1478973953122	1478973953193	m	77
510605	5496887	Baku's forces had for more than 24 hours been engaged in clashes.	Baku's forces had for more than 24 hours been engaged in clashes.	260909988	1478973953283	1478973953361	o	79
510605	5496887	Baku's forces had for more than 24 hours been engaged in clashes.	Baku's forces had for more than 24 hours been engaged in clashes.	260910012	1478973953345	1478973953474	r	82
510605	5496887	Baku's forces had for more than 24 hours been engaged in clashes.	Baku's forces had for more than 24 hours been engaged in clashes.	260910014	1478973953418	1478973953529	e	69
510605	5496887	Baku's forces had for more than 24 hours been engaged in clashes.	Baku's forces had for more than 24 hours been engaged in clashes.	260910016	1478973953507	1478973953577	 	32
510605	5496887	Baku's forces had for more than 24 hours been engaged in clashes.	Baku's forces had for more than 24 hours been engaged in clashes.	260910017	1478973953603	1478973953697	t	84
510605	5496887	Baku's forces had for more than 24 hours been engaged in clashes.	Baku's forces had for more than 24 hours been engaged in clashes.	260910019	1478973953677	1478973953753	h	72
510605	5496887	Baku's forces had for more than 24 hours been engaged in clashes.	Baku's forces had for more than 24 hours been engaged in clashes.	260910020	1478973953913	1478973954041	a	65
510605	5496887	Baku's forces had for more than 24 hours been engaged in clashes.	Baku's forces had for more than 24 hours been engaged in clashes.	260910049	1478973954009	1478973954081	n	78
510605	5496887	Baku's forces had for more than 24 hours been engaged in clashes.	Baku's forces had for more than 24 hours been engaged in clashes.	260910051	1478973954164	1478973954241	 	32
510605	5496887	Baku's forces had for more than 24 hours been engaged in clashes.	Baku's forces had for more than 24 hours been engaged in clashes.	260910052	1478973954363	1478973954465	2	50
510605	5496887	Baku's forces had for more than 24 hours been engaged in clashes.	Baku's forces had for more than 24 hours been engaged in clashes.	260910054	1478973954700	1478973954851	4	52
510605	5496887	Baku's forces had for more than 24 hours been engaged in clashes.	Baku's forces had for more than 24 hours been engaged in clashes.	260910056	1478973954836	1478973954904	 	32
510605	5496887	Baku's forces had for more than 24 hours been engaged in clashes.	Baku's forces had for more than 24 hours been engaged in clashes.	260910059	1478973954978	1478973955081	h	72
510605	5496887	Baku's forces had for more than 24 hours been engaged in clashes.	Baku's forces had for more than 24 hours been engaged in clashes.	260910081	1478973955041	1478973955113	o	79
510605	5496887	Baku's forces had for more than 24 hours been engaged in clashes.	Baku's forces had for more than 24 hours been engaged in clashes.	260910082	1478973955233	1478973955305	u	85
510605	5496887	Baku's forces had for more than 24 hours been engaged in clashes.	Baku's forces had for more than 24 hours been engaged in clashes.	260910084	1478973955281	1478973955417	r	82
510605	5496887	Baku's forces had for more than 24 hours been engaged in clashes.	Baku's forces had for more than 24 hours been engaged in clashes.	260910086	1478973955396	1478973955513	s	83
510605	5496887	Baku's forces had for more than 24 hours been engaged in clashes.	Baku's forces had for more than 24 hours been engaged in clashes.	260910088	1478973955481	1478973955562	 	32
510605	5496887	Baku's forces had for more than 24 hours been engaged in clashes.	Baku's forces had for more than 24 hours been engaged in clashes.	260910090	1478973955970	1478973956057	b	66
510605	5496887	Baku's forces had for more than 24 hours been engaged in clashes.	Baku's forces had for more than 24 hours been engaged in clashes.	260910103	1478973956033	1478973956113	e	69
510605	5496887	Baku's forces had for more than 24 hours been engaged in clashes.	Baku's forces had for more than 24 hours been engaged in clashes.	260910106	1478973956170	1478973956258	e	69
510605	5496887	Baku's forces had for more than 24 hours been engaged in clashes.	Baku's forces had for more than 24 hours been engaged in clashes.	260910109	1478973956235	1478973956305	n	78
510605	5496887	Baku's forces had for more than 24 hours been engaged in clashes.	Baku's forces had for more than 24 hours been engaged in clashes.	260910111	1478973956386	1478973956465	 	32
510605	5496887	Baku's forces had for more than 24 hours been engaged in clashes.	Baku's forces had for more than 24 hours been engaged in clashes.	260910115	1478973956450	1478973956545	e	69
510605	5496887	Baku's forces had for more than 24 hours been engaged in clashes.	Baku's forces had for more than 24 hours been engaged in clashes.	260910118	1478973956562	1478973956617	n	78
510605	5496887	Baku's forces had for more than 24 hours been engaged in clashes.	Baku's forces had for more than 24 hours been engaged in clashes.	260910129	1478973956666	1478973956761	g	71
510605	5496887	Baku's forces had for more than 24 hours been engaged in clashes.	Baku's forces had for more than 24 hours been engaged in clashes.	260910131	1478973956787	1478973956904	a	65
510605	5496887	Baku's forces had for more than 24 hours been engaged in clashes.	Baku's forces had for more than 24 hours been engaged in clashes.	260910133	1478973957169	1478973957257	g	71
510605	5496887	Baku's forces had for more than 24 hours been engaged in clashes.	Baku's forces had for more than 24 hours been engaged in clashes.	260910135	1478973957356	1478973957426	e	69
510605	5496887	Baku's forces had for more than 24 hours been engaged in clashes.	Baku's forces had for more than 24 hours been engaged in clashes.	260910137	1478973957508	1478973957601	d	68
510605	5496887	Baku's forces had for more than 24 hours been engaged in clashes.	Baku's forces had for more than 24 hours been engaged in clashes.	260910167	1478973957577	1478973957657	 	32
510605	5496887	Baku's forces had for more than 24 hours been engaged in clashes.	Baku's forces had for more than 24 hours been engaged in clashes.	260910168	1478973957779	1478973957841	i	73
510605	5496887	Baku's forces had for more than 24 hours been engaged in clashes.	Baku's forces had for more than 24 hours been engaged in clashes.	260910169	1478973957964	1478973958081	n	78
510605	5496887	Baku's forces had for more than 24 hours been engaged in clashes.	Baku's forces had for more than 24 hours been engaged in clashes.	260910170	1478973958193	1478973958257	 	32
510605	5496887	Baku's forces had for more than 24 hours been engaged in clashes.	Baku's forces had for more than 24 hours been engaged in clashes.	260910171	1478973958299	1478973958385	c	67
510605	5496887	Baku's forces had for more than 24 hours been engaged in clashes.	Baku's forces had for more than 24 hours been engaged in clashes.	260910172	1478973958778	1478973958865	l	76
510605	5496887	Baku's forces had for more than 24 hours been engaged in clashes.	Baku's forces had for more than 24 hours been engaged in clashes.	260910187	1478973958844	1478973958969	a	65
510605	5496887	Baku's forces had for more than 24 hours been engaged in clashes.	Baku's forces had for more than 24 hours been engaged in clashes.	260910188	1478973958922	1478973959057	s	83
510605	5496887	Baku's forces had for more than 24 hours been engaged in clashes.	Baku's forces had for more than 24 hours been engaged in clashes.	260910189	1478973959145	1478973959209	h	72
510605	5496887	Baku's forces had for more than 24 hours been engaged in clashes.	Baku's forces had for more than 24 hours been engaged in clashes.	260910190	1478973959234	1478973959369	e	69
510605	5496887	Baku's forces had for more than 24 hours been engaged in clashes.	Baku's forces had for more than 24 hours been engaged in clashes.	260910191	1478973959315	1478973959449	s	83
510605	5496894	That would be a fitting memorial to those who died.	That would be a fitting memorial to those who died.	260910221	1478973960723	1478973960857	CAPS_LOCK	20
510605	5496894	That would be a fitting memorial to those who died.	That would be a fitting memorial to those who died.	260910223	1478973960833	1478973960977	T	84
510605	5496894	That would be a fitting memorial to those who died.	That would be a fitting memorial to those who died.	260910225	1478973960924	1478973961042	CAPS_LOCK	20
510605	5496894	That would be a fitting memorial to those who died.	That would be a fitting memorial to those who died.	260910227	1478973961025	1478973961113	h	72
510605	5496894	That would be a fitting memorial to those who died.	That would be a fitting memorial to those who died.	260910229	1478973961130	1478973961264	a	65
510605	5496894	That would be a fitting memorial to those who died.	That would be a fitting memorial to those who died.	260910230	1478973961196	1478973961305	t	84
510605	5496894	That would be a fitting memorial to those who died.	That would be a fitting memorial to those who died.	260910232	1478973961289	1478973961345	 	32
510605	5496894	That would be a fitting memorial to those who died.	That would be a fitting memorial to those who died.	260910234	1478973961412	1478973961529	w	87
510605	5496894	That would be a fitting memorial to those who died.	That would be a fitting memorial to those who died.	260910235	1478973961492	1478973961569	o	79
510605	5496894	That would be a fitting memorial to those who died.	That would be a fitting memorial to those who died.	260910237	1478973961657	1478973961729	u	85
510605	5496894	That would be a fitting memorial to those who died.	That would be a fitting memorial to those who died.	260910238	1478973961841	1478973961905	l	76
510605	5496894	That would be a fitting memorial to those who died.	That would be a fitting memorial to those who died.	260910240	1478973961924	1478973962001	d	68
510605	5496894	That would be a fitting memorial to those who died.	That would be a fitting memorial to those who died.	260910272	1478973962019	1478973962089	 	32
510605	5496894	That would be a fitting memorial to those who died.	That would be a fitting memorial to those who died.	260910274	1478973962131	1478973962209	f	70
510605	5496894	That would be a fitting memorial to those who died.	That would be a fitting memorial to those who died.	260910276	1478973962410	1478973962481	BKSP	8
510605	5496894	That would be a fitting memorial to those who died.	That would be a fitting memorial to those who died.	260910278	1478973962619	1478973962697	b	66
510605	5496894	That would be a fitting memorial to those who died.	That would be a fitting memorial to those who died.	260910279	1478973962673	1478973962762	e	69
510605	5496894	That would be a fitting memorial to those who died.	That would be a fitting memorial to those who died.	260910280	1478973962796	1478973962881	 	32
510605	5496894	That would be a fitting memorial to those who died.	That would be a fitting memorial to those who died.	260910281	1478973962866	1478973962993	a	65
510605	5496894	That would be a fitting memorial to those who died.	That would be a fitting memorial to those who died.	260910283	1478973962956	1478973963025	 	32
510605	5496894	That would be a fitting memorial to those who died.	That would be a fitting memorial to those who died.	260910285	1478973963059	1478973963145	f	70
510605	5496894	That would be a fitting memorial to those who died.	That would be a fitting memorial to those who died.	260910287	1478973963169	1478973963233	i	73
510605	5496894	That would be a fitting memorial to those who died.	That would be a fitting memorial to those who died.	260910289	1478973963304	1478973963368	t	84
510605	5496894	That would be a fitting memorial to those who died.	That would be a fitting memorial to those who died.	260910292	1478973963523	1478973963641	t	84
510605	5496894	That would be a fitting memorial to those who died.	That would be a fitting memorial to those who died.	260910307	1478973963658	1478973963729	i	73
510605	5496894	That would be a fitting memorial to those who died.	That would be a fitting memorial to those who died.	260910310	1478973963818	1478973963912	n	78
510605	5496894	That would be a fitting memorial to those who died.	That would be a fitting memorial to those who died.	260910314	1478973963891	1478973963986	g	71
510605	5496894	That would be a fitting memorial to those who died.	That would be a fitting memorial to those who died.	260910317	1478973964011	1478973964065	 	32
510605	5496894	That would be a fitting memorial to those who died.	That would be a fitting memorial to those who died.	260910321	1478973964139	1478973964208	m	77
510605	5496894	That would be a fitting memorial to those who died.	That would be a fitting memorial to those who died.	260910332	1478973964233	1478973964322	e	69
510605	5496894	That would be a fitting memorial to those who died.	That would be a fitting memorial to those who died.	260910336	1478973964299	1478973964368	m	77
510605	5496894	That would be a fitting memorial to those who died.	That would be a fitting memorial to those who died.	260910339	1478973964465	1478973964539	o	79
510605	5496894	That would be a fitting memorial to those who died.	That would be a fitting memorial to those who died.	260910342	1478973964564	1478973964681	r	82
510605	5496894	That would be a fitting memorial to those who died.	That would be a fitting memorial to those who died.	260910354	1478973964665	1478973964737	i	73
510605	5496894	That would be a fitting memorial to those who died.	That would be a fitting memorial to those who died.	260910356	1478973964764	1478973964881	a	65
510605	5496894	That would be a fitting memorial to those who died.	That would be a fitting memorial to those who died.	260910358	1478973964865	1478973964929	l	76
510605	5496894	That would be a fitting memorial to those who died.	That would be a fitting memorial to those who died.	260910360	1478973965018	1478973965080	 	32
510605	5496894	That would be a fitting memorial to those who died.	That would be a fitting memorial to those who died.	260910362	1478973965121	1478973965217	t	84
510605	5496894	That would be a fitting memorial to those who died.	That would be a fitting memorial to those who died.	260910382	1478973965185	1478973965257	o	79
510605	5496894	That would be a fitting memorial to those who died.	That would be a fitting memorial to those who died.	260910384	1478973965371	1478973965432	 	32
510605	5496894	That would be a fitting memorial to those who died.	That would be a fitting memorial to those who died.	260910387	1478973965409	1478973965521	t	84
510605	5496894	That would be a fitting memorial to those who died.	That would be a fitting memorial to those who died.	260910391	1478973965611	1478973965690	h	72
510605	5496894	That would be a fitting memorial to those who died.	That would be a fitting memorial to those who died.	260910395	1478973965820	1478973965921	o	79
510605	5496894	That would be a fitting memorial to those who died.	That would be a fitting memorial to those who died.	260910400	1478973966002	1478973966137	s	83
510605	5496894	That would be a fitting memorial to those who died.	That would be a fitting memorial to those who died.	260910414	1478973966098	1478973966217	e	69
510605	5496894	That would be a fitting memorial to those who died.	That would be a fitting memorial to those who died.	260910418	1478973966195	1478973966264	 	32
510605	5496894	That would be a fitting memorial to those who died.	That would be a fitting memorial to those who died.	260910422	1478973966345	1478973966464	w	87
510605	5496894	That would be a fitting memorial to those who died.	That would be a fitting memorial to those who died.	260910426	1478973966521	1478973966617	h	72
510605	5496894	That would be a fitting memorial to those who died.	That would be a fitting memorial to those who died.	260910430	1478973966594	1478973966665	o	79
510605	5496894	That would be a fitting memorial to those who died.	That would be a fitting memorial to those who died.	260910432	1478973966756	1478973966818	 	32
510605	5496894	That would be a fitting memorial to those who died.	That would be a fitting memorial to those who died.	260910439	1478973966851	1478973966945	d	68
510605	5496894	That would be a fitting memorial to those who died.	That would be a fitting memorial to those who died.	260910441	1478973966922	1478973966993	i	73
510605	5496894	That would be a fitting memorial to those who died.	That would be a fitting memorial to those who died.	260910443	1478973967026	1478973967097	e	69
510605	5496894	That would be a fitting memorial to those who died.	That would be a fitting memorial to those who died.	260910445	1478973967170	1478973967281	d	68
510605	5496897	However, he is expected to play in this week's game.	However, he is expected to play in this week's game.	260910479	1478973968602	1478973968705	CAPS_LOCK	20
510605	5496897	However, he is expected to play in this week's game.	However, he is expected to play in this week's game.	260910481	1478973968771	1478973968833	H	72
510605	5496897	However, he is expected to play in this week's game.	However, he is expected to play in this week's game.	260910485	1478973968858	1478973968937	CAPS_LOCK	20
510605	5496897	However, he is expected to play in this week's game.	However, he is expected to play in this week's game.	260910489	1478973968987	1478973969089	o	79
510605	5496897	However, he is expected to play in this week's game.	However, he is expected to play in this week's game.	260910492	1478973969115	1478973969217	w	87
510605	5496897	However, he is expected to play in this week's game.	However, he is expected to play in this week's game.	260910496	1478973969251	1478973969369	e	69
510605	5496897	However, he is expected to play in this week's game.	However, he is expected to play in this week's game.	260910499	1478973969731	1478973969809	v	86
510605	5496897	However, he is expected to play in this week's game.	However, he is expected to play in this week's game.	260910510	1478973969834	1478973969906	e	69
510605	5496897	However, he is expected to play in this week's game.	However, he is expected to play in this week's game.	260910511	1478973969987	1478973970097	r	82
510605	5496897	However, he is expected to play in this week's game.	However, he is expected to play in this week's game.	260910512	1478973970146	1478973970234	,	188
510605	5496897	However, he is expected to play in this week's game.	However, he is expected to play in this week's game.	260910513	1478973970323	1478973970394	 	32
510605	5496897	However, he is expected to play in this week's game.	However, he is expected to play in this week's game.	260910514	1478973970489	1478973970568	h	72
510605	5496897	However, he is expected to play in this week's game.	However, he is expected to play in this week's game.	260910535	1478973970545	1478973970632	e	69
510605	5496897	However, he is expected to play in this week's game.	However, he is expected to play in this week's game.	260910538	1478973970665	1478973970721	 	32
510605	5496897	However, he is expected to play in this week's game.	However, he is expected to play in this week's game.	260910542	1478973971060	1478973971185	i	73
510605	5496897	However, he is expected to play in this week's game.	However, he is expected to play in this week's game.	260910545	1478973971202	1478973971281	s	83
510605	5496897	However, he is expected to play in this week's game.	However, he is expected to play in this week's game.	260910547	1478973971306	1478973971369	 	32
510605	5496897	However, he is expected to play in this week's game.	However, he is expected to play in this week's game.	260910549	1478973971403	1478973971497	e	69
510605	5496897	However, he is expected to play in this week's game.	However, he is expected to play in this week's game.	260910561	1478973971609	1478973971721	x	88
510605	5496897	However, he is expected to play in this week's game.	However, he is expected to play in this week's game.	260910563	1478973971697	1478973971769	p	80
510605	5496897	However, he is expected to play in this week's game.	However, he is expected to play in this week's game.	260910565	1478973971929	1478973972017	e	69
510605	5496897	However, he is expected to play in this week's game.	However, he is expected to play in this week's game.	260910567	1478973972147	1478973972209	c	67
510605	5496897	However, he is expected to play in this week's game.	However, he is expected to play in this week's game.	260910569	1478973972348	1478973972417	t	84
510605	5496897	However, he is expected to play in this week's game.	However, he is expected to play in this week's game.	260910577	1478973972529	1478973972587	e	69
510605	5496897	However, he is expected to play in this week's game.	However, he is expected to play in this week's game.	260910579	1478973972697	1478973972849	d	68
510605	5496897	However, he is expected to play in this week's game.	However, he is expected to play in this week's game.	260910581	1478973972828	1478973972914	 	32
510605	5496897	However, he is expected to play in this week's game.	However, he is expected to play in this week's game.	260910585	1478973972963	1478973973097	t	84
510605	5496897	However, he is expected to play in this week's game.	However, he is expected to play in this week's game.	260910620	1478973973041	1478973973120	o	79
510605	5496897	However, he is expected to play in this week's game.	However, he is expected to play in this week's game.	260910622	1478973973228	1478973973289	 	32
510605	5496897	However, he is expected to play in this week's game.	However, he is expected to play in this week's game.	260910624	1478973973385	1478973973457	p	80
510605	5496897	However, he is expected to play in this week's game.	However, he is expected to play in this week's game.	260910626	1478973973547	1478973973625	l	76
510605	5496897	However, he is expected to play in this week's game.	However, he is expected to play in this week's game.	260910628	1478973973642	1478973973777	a	65
510605	5496897	However, he is expected to play in this week's game.	However, he is expected to play in this week's game.	260910643	1478973973674	1478973973801	y	89
510605	5496897	However, he is expected to play in this week's game.	However, he is expected to play in this week's game.	260910645	1478973973729	1478973973817	 	32
510605	5496897	However, he is expected to play in this week's game.	However, he is expected to play in this week's game.	260910647	1478973973907	1478973973977	i	73
510605	5496897	However, he is expected to play in this week's game.	However, he is expected to play in this week's game.	260910649	1478973974091	1478973974145	n	78
510605	5496897	However, he is expected to play in this week's game.	However, he is expected to play in this week's game.	260910650	1478973974233	1478973974313	 	32
510605	5496897	However, he is expected to play in this week's game.	However, he is expected to play in this week's game.	260910652	1478973974348	1478973974432	t	84
510605	5496897	However, he is expected to play in this week's game.	However, he is expected to play in this week's game.	260910673	1478973974411	1478973974497	h	72
510605	5496897	However, he is expected to play in this week's game.	However, he is expected to play in this week's game.	260910674	1478973974587	1478973974689	i	73
510605	5496897	However, he is expected to play in this week's game.	However, he is expected to play in this week's game.	260910675	1478973974665	1478973974760	s	83
510605	5496897	However, he is expected to play in this week's game.	However, he is expected to play in this week's game.	260910676	1478973974785	1478973974841	 	32
510605	5496897	However, he is expected to play in this week's game.	However, he is expected to play in this week's game.	260910677	1478973974881	1478973975025	w	87
510605	5496897	However, he is expected to play in this week's game.	However, he is expected to play in this week's game.	260910678	1478973975204	1478973975289	e	69
510605	5496897	However, he is expected to play in this week's game.	However, he is expected to play in this week's game.	260910694	1478973975370	1478973975473	e	69
510605	5496897	However, he is expected to play in this week's game.	However, he is expected to play in this week's game.	260910697	1478973975498	1478973975560	k	75
510605	5496897	However, he is expected to play in this week's game.	However, he is expected to play in this week's game.	260910700	1478973975708	1478973975816	'	192
510605	5496897	However, he is expected to play in this week's game.	However, he is expected to play in this week's game.	260910702	1478973975841	1478973975921	s	83
510605	5496897	However, he is expected to play in this week's game.	However, he is expected to play in this week's game.	260910703	1478973975946	1478973975993	 	32
510605	5496897	However, he is expected to play in this week's game.	However, he is expected to play in this week's game.	260910704	1478973976018	1478973976129	g	71
510605	5496897	However, he is expected to play in this week's game.	However, he is expected to play in this week's game.	260910705	1478973976097	1478973976233	a	65
510605	5496897	However, he is expected to play in this week's game.	However, he is expected to play in this week's game.	260910707	1478973976211	1478973976298	m	77
510605	5496897	However, he is expected to play in this week's game.	However, he is expected to play in this week's game.	260910709	1478973976329	1478973976457	e	69
510605	5496902	The book will also present details of the economic conditions.	The book will also present details of the economic conditions.	260910757	1478973977865	1478973978033	CAPS_LOCK	20
510605	5496902	The book will also present details of the economic conditions.	The book will also present details of the economic conditions.	260910761	1478973978010	1478973978161	T	84
510605	5496902	The book will also present details of the economic conditions.	The book will also present details of the economic conditions.	260910765	1478973978122	1478973978250	CAPS_LOCK	20
510605	5496902	The book will also present details of the economic conditions.	The book will also present details of the economic conditions.	260910767	1478973978186	1478973978265	h	72
510605	5496902	The book will also present details of the economic conditions.	The book will also present details of the economic conditions.	260910768	1478973978307	1478973978433	e	69
510605	5496902	The book will also present details of the economic conditions.	The book will also present details of the economic conditions.	260910770	1478973978411	1478973978489	 	32
510605	5496902	The book will also present details of the economic conditions.	The book will also present details of the economic conditions.	260910771	1478973978545	1478973978657	b	66
510605	5496902	The book will also present details of the economic conditions.	The book will also present details of the economic conditions.	260910775	1478973978641	1478973978704	o	79
510605	5496902	The book will also present details of the economic conditions.	The book will also present details of the economic conditions.	260910777	1478973978762	1478973978857	o	79
510605	5496902	The book will also present details of the economic conditions.	The book will also present details of the economic conditions.	260910780	1478973978929	1478973978993	k	75
510605	5496902	The book will also present details of the economic conditions.	The book will also present details of the economic conditions.	260910784	1478973979084	1478973979153	 	32
510605	5496902	The book will also present details of the economic conditions.	The book will also present details of the economic conditions.	260910787	1478973979202	1478973979313	w	87
510605	5496902	The book will also present details of the economic conditions.	The book will also present details of the economic conditions.	260910797	1478973979266	1478973979337	i	73
510605	5496902	The book will also present details of the economic conditions.	The book will also present details of the economic conditions.	260910798	1478973979433	1478973979505	l	76
510605	5496902	The book will also present details of the economic conditions.	The book will also present details of the economic conditions.	260910800	1478973979577	1478973979641	l	76
510605	5496902	The book will also present details of the economic conditions.	The book will also present details of the economic conditions.	260910802	1478973979817	1478973979881	 	32
510605	5496902	The book will also present details of the economic conditions.	The book will also present details of the economic conditions.	260910804	1478973979921	1478973980025	a	65
510605	5496902	The book will also present details of the economic conditions.	The book will also present details of the economic conditions.	260910818	1478973980001	1478973980081	l	76
510605	5496902	The book will also present details of the economic conditions.	The book will also present details of the economic conditions.	260910821	1478973980131	1478973980241	s	83
510605	5496902	The book will also present details of the economic conditions.	The book will also present details of the economic conditions.	260910825	1478973980194	1478973980297	o	79
510605	5496902	The book will also present details of the economic conditions.	The book will also present details of the economic conditions.	260910828	1478973980396	1478973980456	 	32
510605	5496902	The book will also present details of the economic conditions.	The book will also present details of the economic conditions.	260910830	1478973980593	1478973980673	p	80
510605	5496902	The book will also present details of the economic conditions.	The book will also present details of the economic conditions.	260910846	1478973980649	1478973980737	e	69
510605	5496902	The book will also present details of the economic conditions.	The book will also present details of the economic conditions.	260910848	1478973980795	1478973980889	r	82
510605	5496902	The book will also present details of the economic conditions.	The book will also present details of the economic conditions.	260910851	1478973980946	1478973981057	s	83
510605	5496902	The book will also present details of the economic conditions.	The book will also present details of the economic conditions.	260910854	1478973981242	1478973981297	BKSP	8
510605	5496902	The book will also present details of the economic conditions.	The book will also present details of the economic conditions.	260910856	1478973981395	1478973981458	BKSP	8
510605	5496902	The book will also present details of the economic conditions.	The book will also present details of the economic conditions.	260910858	1478973981547	1478973981617	BKSP	8
510605	5496902	The book will also present details of the economic conditions.	The book will also present details of the economic conditions.	260910860	1478973981641	1478973981705	r	82
510605	5496902	The book will also present details of the economic conditions.	The book will also present details of the economic conditions.	260910863	1478973981810	1478973981921	e	69
510605	5496902	The book will also present details of the economic conditions.	The book will also present details of the economic conditions.	260910865	1478973981954	1478973982088	s	83
510605	5496902	The book will also present details of the economic conditions.	The book will also present details of the economic conditions.	260910878	1478973982065	1478973982177	e	69
510605	5496902	The book will also present details of the economic conditions.	The book will also present details of the economic conditions.	260910881	1478973982211	1478973982305	n	78
510605	5496902	The book will also present details of the economic conditions.	The book will also present details of the economic conditions.	260910885	1478973982329	1478973982425	t	84
510605	5496902	The book will also present details of the economic conditions.	The book will also present details of the economic conditions.	260910889	1478973982441	1478973982505	 	32
510605	5496902	The book will also present details of the economic conditions.	The book will also present details of the economic conditions.	260910894	1478973982602	1478973982714	d	68
510605	5496902	The book will also present details of the economic conditions.	The book will also present details of the economic conditions.	260910895	1478973982922	1478973983024	e	69
510605	5496902	The book will also present details of the economic conditions.	The book will also present details of the economic conditions.	260910901	1478973983121	1478973983217	t	84
510605	5496902	The book will also present details of the economic conditions.	The book will also present details of the economic conditions.	260910902	1478973983243	1478973983345	a	65
510605	5496902	The book will also present details of the economic conditions.	The book will also present details of the economic conditions.	260910903	1478973983331	1478973983409	i	73
510605	5496902	The book will also present details of the economic conditions.	The book will also present details of the economic conditions.	260910904	1478973983561	1478973983641	l	76
510605	5496902	The book will also present details of the economic conditions.	The book will also present details of the economic conditions.	260910905	1478973983690	1478973983769	s	83
510605	5496902	The book will also present details of the economic conditions.	The book will also present details of the economic conditions.	260910917	1478973983793	1478973983849	 	32
510605	5496902	The book will also present details of the economic conditions.	The book will also present details of the economic conditions.	260910918	1478973984057	1478973984161	o	79
510605	5496902	The book will also present details of the economic conditions.	The book will also present details of the economic conditions.	260910920	1478973984137	1478973984216	f	70
510605	5496902	The book will also present details of the economic conditions.	The book will also present details of the economic conditions.	260910921	1478973984242	1478973984313	 	32
510605	5496902	The book will also present details of the economic conditions.	The book will also present details of the economic conditions.	260910922	1478973984348	1478973984449	t	84
510605	5496902	The book will also present details of the economic conditions.	The book will also present details of the economic conditions.	260910933	1478973984436	1478973984497	h	72
510605	5496902	The book will also present details of the economic conditions.	The book will also present details of the economic conditions.	260910935	1478973984531	1478973984618	e	69
510605	5496902	The book will also present details of the economic conditions.	The book will also present details of the economic conditions.	260910937	1478973984595	1478973984665	 	32
510605	5496902	The book will also present details of the economic conditions.	The book will also present details of the economic conditions.	260910940	1478973984786	1478973984881	e	69
510605	5496902	The book will also present details of the economic conditions.	The book will also present details of the economic conditions.	260910941	1478973984996	1478973985088	c	67
510605	5496902	The book will also present details of the economic conditions.	The book will also present details of the economic conditions.	260910943	1478973985113	1478973985161	o	79
510605	5496902	The book will also present details of the economic conditions.	The book will also present details of the economic conditions.	260910955	1478973985307	1478973985345	n	78
510605	5496902	The book will also present details of the economic conditions.	The book will also present details of the economic conditions.	260910957	1478973985466	1478973985553	o	79
510605	5496902	The book will also present details of the economic conditions.	The book will also present details of the economic conditions.	260910958	1478973985650	1478973985713	m	77
510605	5496902	The book will also present details of the economic conditions.	The book will also present details of the economic conditions.	260910959	1478973985818	1478973985906	i	73
510605	5496902	The book will also present details of the economic conditions.	The book will also present details of the economic conditions.	260910967	1478973985891	1478973985962	c	67
510605	5496902	The book will also present details of the economic conditions.	The book will also present details of the economic conditions.	260910969	1478973986004	1478973986066	 	32
510605	5496902	The book will also present details of the economic conditions.	The book will also present details of the economic conditions.	260910970	1478973986185	1478973986265	c	67
510605	5496902	The book will also present details of the economic conditions.	The book will also present details of the economic conditions.	260910972	1478973986249	1478973986321	o	79
510605	5496902	The book will also present details of the economic conditions.	The book will also present details of the economic conditions.	260910974	1478973986474	1478973986545	n	78
510605	5496902	The book will also present details of the economic conditions.	The book will also present details of the economic conditions.	260910976	1478973986579	1478973986650	d	68
510605	5496902	The book will also present details of the economic conditions.	The book will also present details of the economic conditions.	260910987	1478973987036	1478973987113	i	73
510605	5496902	The book will also present details of the economic conditions.	The book will also present details of the economic conditions.	260910989	1478973987177	1478973987289	t	84
510605	5496902	The book will also present details of the economic conditions.	The book will also present details of the economic conditions.	260910991	1478973987249	1478973987321	i	73
510605	5496902	The book will also present details of the economic conditions.	The book will also present details of the economic conditions.	260910993	1478973987409	1478973987480	o	79
510605	5496902	The book will also present details of the economic conditions.	The book will also present details of the economic conditions.	260910995	1478973987595	1478973987624	n	78
510605	5496902	The book will also present details of the economic conditions.	The book will also present details of the economic conditions.	260911006	1478973987681	1478973987776	s	83
510605	5496907	It is very unlikely that patrons of tour operators are troublemakers.	It is very unlikely that patrons of tour operators are troublemakers	260911034	1478973989396	1478973989489	CAPS_LOCK	20
510605	5496907	It is very unlikely that patrons of tour operators are troublemakers.	It is very unlikely that patrons of tour operators are troublemakers	260911035	1478973989475	1478973989569	I	73
510605	5496907	It is very unlikely that patrons of tour operators are troublemakers.	It is very unlikely that patrons of tour operators are troublemakers	260911036	1478973989555	1478973989649	CAPS_LOCK	20
510605	5496907	It is very unlikely that patrons of tour operators are troublemakers.	It is very unlikely that patrons of tour operators are troublemakers	260911037	1478973989676	1478973989809	t	84
510605	5496907	It is very unlikely that patrons of tour operators are troublemakers.	It is very unlikely that patrons of tour operators are troublemakers	260911038	1478973989834	1478973989889	 	32
510605	5496907	It is very unlikely that patrons of tour operators are troublemakers.	It is very unlikely that patrons of tour operators are troublemakers	260911039	1478973990011	1478973990088	i	73
510605	5496907	It is very unlikely that patrons of tour operators are troublemakers.	It is very unlikely that patrons of tour operators are troublemakers	260911046	1478973990057	1478973990169	s	83
510605	5496907	It is very unlikely that patrons of tour operators are troublemakers.	It is very unlikely that patrons of tour operators are troublemakers	260911047	1478973990196	1478973990265	 	32
510605	5496907	It is very unlikely that patrons of tour operators are troublemakers.	It is very unlikely that patrons of tour operators are troublemakers	260911048	1478973990353	1478973990425	v	86
510605	5496907	It is very unlikely that patrons of tour operators are troublemakers.	It is very unlikely that patrons of tour operators are troublemakers	260911049	1478973990402	1478973990497	e	69
510605	5496907	It is very unlikely that patrons of tour operators are troublemakers.	It is very unlikely that patrons of tour operators are troublemakers	260911051	1478973990579	1478973990657	r	82
510605	5496907	It is very unlikely that patrons of tour operators are troublemakers.	It is very unlikely that patrons of tour operators are troublemakers	260911066	1478973990634	1478973990713	y	89
510605	5496907	It is very unlikely that patrons of tour operators are troublemakers.	It is very unlikely that patrons of tour operators are troublemakers	260911067	1478973990835	1478973990897	 	32
510605	5496907	It is very unlikely that patrons of tour operators are troublemakers.	It is very unlikely that patrons of tour operators are troublemakers	260911068	1478973991026	1478973991097	u	85
510605	5496907	It is very unlikely that patrons of tour operators are troublemakers.	It is very unlikely that patrons of tour operators are troublemakers	260911069	1478973991219	1478973991281	n	78
510605	5496907	It is very unlikely that patrons of tour operators are troublemakers.	It is very unlikely that patrons of tour operators are troublemakers	260911070	1478973991401	1478973991482	l	76
510605	5496907	It is very unlikely that patrons of tour operators are troublemakers.	It is very unlikely that patrons of tour operators are troublemakers	260911071	1478973991601	1478973991665	i	73
510605	5496907	It is very unlikely that patrons of tour operators are troublemakers.	It is very unlikely that patrons of tour operators are troublemakers	260911073	1478973991763	1478973991842	k	75
510605	5496907	It is very unlikely that patrons of tour operators are troublemakers.	It is very unlikely that patrons of tour operators are troublemakers	260911074	1478973991827	1478973991922	e	69
510605	5496907	It is very unlikely that patrons of tour operators are troublemakers.	It is very unlikely that patrons of tour operators are troublemakers	260911075	1478973991985	1478973992073	l	76
510605	5496907	It is very unlikely that patrons of tour operators are troublemakers.	It is very unlikely that patrons of tour operators are troublemakers	260911076	1478973992097	1478973992201	y	89
510605	5496907	It is very unlikely that patrons of tour operators are troublemakers.	It is very unlikely that patrons of tour operators are troublemakers	260911077	1478973992226	1478973992289	 	32
510605	5496907	It is very unlikely that patrons of tour operators are troublemakers.	It is very unlikely that patrons of tour operators are troublemakers	260911081	1478973992353	1478973992457	t	84
510605	5496907	It is very unlikely that patrons of tour operators are troublemakers.	It is very unlikely that patrons of tour operators are troublemakers	260911083	1478973992441	1478973992529	h	72
510605	5496907	It is very unlikely that patrons of tour operators are troublemakers.	It is very unlikely that patrons of tour operators are troublemakers	260911085	1478973992556	1478973992681	a	65
510605	5496907	It is very unlikely that patrons of tour operators are troublemakers.	It is very unlikely that patrons of tour operators are troublemakers	260911086	1478973992601	1478973992745	t	84
510605	5496907	It is very unlikely that patrons of tour operators are troublemakers.	It is very unlikely that patrons of tour operators are troublemakers	260911097	1478973992729	1478973992817	 	32
510605	5496907	It is very unlikely that patrons of tour operators are troublemakers.	It is very unlikely that patrons of tour operators are troublemakers	260911099	1478973992972	1478973993025	p	80
510605	5496907	It is very unlikely that patrons of tour operators are troublemakers.	It is very unlikely that patrons of tour operators are troublemakers	260911101	1478973993052	1478973993194	a	65
510605	5496907	It is very unlikely that patrons of tour operators are troublemakers.	It is very unlikely that patrons of tour operators are troublemakers	260911103	1478973993561	1478973993641	t	84
510605	5496907	It is very unlikely that patrons of tour operators are troublemakers.	It is very unlikely that patrons of tour operators are troublemakers	260911105	1478973993747	1478973993840	r	82
510605	5496907	It is very unlikely that patrons of tour operators are troublemakers.	It is very unlikely that patrons of tour operators are troublemakers	260911112	1478973993825	1478973993905	o	79
510605	5496907	It is very unlikely that patrons of tour operators are troublemakers.	It is very unlikely that patrons of tour operators are troublemakers	260911113	1478973994026	1478973994113	n	78
510605	5496907	It is very unlikely that patrons of tour operators are troublemakers.	It is very unlikely that patrons of tour operators are troublemakers	260911114	1478973994162	1478973994272	s	83
510605	5496907	It is very unlikely that patrons of tour operators are troublemakers.	It is very unlikely that patrons of tour operators are troublemakers	260911115	1478973994259	1478973994321	 	32
510605	5496907	It is very unlikely that patrons of tour operators are troublemakers.	It is very unlikely that patrons of tour operators are troublemakers	260911116	1478973994441	1478973994521	o	79
510605	5496907	It is very unlikely that patrons of tour operators are troublemakers.	It is very unlikely that patrons of tour operators are troublemakers	260911129	1478973994505	1478973994585	f	70
510605	5496907	It is very unlikely that patrons of tour operators are troublemakers.	It is very unlikely that patrons of tour operators are troublemakers	260911131	1478973994634	1478973994697	 	32
510605	5496907	It is very unlikely that patrons of tour operators are troublemakers.	It is very unlikely that patrons of tour operators are troublemakers	260911133	1478973995044	1478973995137	o	84
510605	5496907	It is very unlikely that patrons of tour operators are troublemakers.	It is very unlikely that patrons of tour operators are troublemakers	260911135	1478973995266	1478973995345	u	85
510605	5496907	It is very unlikely that patrons of tour operators are troublemakers.	It is very unlikely that patrons of tour operators are troublemakers	260911137	1478973995435	1478973995528	r	82
510605	5496907	It is very unlikely that patrons of tour operators are troublemakers.	It is very unlikely that patrons of tour operators are troublemakers	260911146	1478973995513	1478973995593	 	32
510605	5496907	It is very unlikely that patrons of tour operators are troublemakers.	It is very unlikely that patrons of tour operators are troublemakers	260911147	1478973995827	1478973995921	o	79
510605	5496907	It is very unlikely that patrons of tour operators are troublemakers.	It is very unlikely that patrons of tour operators are troublemakers	260911148	1478973996019	1478973996098	p	80
510605	5496907	It is very unlikely that patrons of tour operators are troublemakers.	It is very unlikely that patrons of tour operators are troublemakers	260911149	1478973996218	1478973996297	e	69
510605	5496907	It is very unlikely that patrons of tour operators are troublemakers.	It is very unlikely that patrons of tour operators are troublemakers	260911150	1478973996388	1478973996513	r	82
510605	5496907	It is very unlikely that patrons of tour operators are troublemakers.	It is very unlikely that patrons of tour operators are troublemakers	260911160	1478973996489	1478973996649	a	65
510605	5496907	It is very unlikely that patrons of tour operators are troublemakers.	It is very unlikely that patrons of tour operators are troublemakers	260911162	1478973996617	1478973996728	t	84
510605	5496907	It is very unlikely that patrons of tour operators are troublemakers.	It is very unlikely that patrons of tour operators are troublemakers	260911165	1478973996707	1478973996801	o	79
510605	5496907	It is very unlikely that patrons of tour operators are troublemakers.	It is very unlikely that patrons of tour operators are troublemakers	260911168	1478973996857	1478973997025	r	82
510605	5496907	It is very unlikely that patrons of tour operators are troublemakers.	It is very unlikely that patrons of tour operators are troublemakers	260911173	1478973997116	1478973997241	s	83
510605	5496907	It is very unlikely that patrons of tour operators are troublemakers.	It is very unlikely that patrons of tour operators are troublemakers	260911176	1478973997257	1478973997321	 	32
510605	5496907	It is very unlikely that patrons of tour operators are troublemakers.	It is very unlikely that patrons of tour operators are troublemakers	260911188	1478973997482	1478973997617	a	65
510605	5496907	It is very unlikely that patrons of tour operators are troublemakers.	It is very unlikely that patrons of tour operators are troublemakers	260911189	1478973997569	1478973997673	r	82
510605	5496907	It is very unlikely that patrons of tour operators are troublemakers.	It is very unlikely that patrons of tour operators are troublemakers	260911190	1478973997763	1478973997874	e	69
510605	5496907	It is very unlikely that patrons of tour operators are troublemakers.	It is very unlikely that patrons of tour operators are troublemakers	260911191	1478973997851	1478973997905	 	32
510605	5496907	It is very unlikely that patrons of tour operators are troublemakers.	It is very unlikely that patrons of tour operators are troublemakers	260911192	1478973997962	1478973998065	t	84
510605	5496907	It is very unlikely that patrons of tour operators are troublemakers.	It is very unlikely that patrons of tour operators are troublemakers	260911197	1478973998171	1478973998281	r	82
510605	5496907	It is very unlikely that patrons of tour operators are troublemakers.	It is very unlikely that patrons of tour operators are troublemakers	260911198	1478973998267	1478973998329	o	79
510605	5496907	It is very unlikely that patrons of tour operators are troublemakers.	It is very unlikely that patrons of tour operators are troublemakers	260911199	1478973998442	1478973998505	u	85
510605	5496907	It is very unlikely that patrons of tour operators are troublemakers.	It is very unlikely that patrons of tour operators are troublemakers	260911200	1478973998522	1478973998593	b	66
510605	5496907	It is very unlikely that patrons of tour operators are troublemakers.	It is very unlikely that patrons of tour operators are troublemakers	260911201	1478973998641	1478973998730	l	76
510605	5496907	It is very unlikely that patrons of tour operators are troublemakers.	It is very unlikely that patrons of tour operators are troublemakers	260911212	1478973998772	1478973998881	e	69
510605	5496907	It is very unlikely that patrons of tour operators are troublemakers.	It is very unlikely that patrons of tour operators are troublemakers	260911216	1478973998898	1478973998962	m	77
510605	5496907	It is very unlikely that patrons of tour operators are troublemakers.	It is very unlikely that patrons of tour operators are troublemakers	260911222	1478973999041	1478973999169	a	65
510605	5496907	It is very unlikely that patrons of tour operators are troublemakers.	It is very unlikely that patrons of tour operators are troublemakers	260911227	1478973999193	1478973999273	k	75
510605	5496907	It is very unlikely that patrons of tour operators are troublemakers.	It is very unlikely that patrons of tour operators are troublemakers	260911232	1478973999290	1478973999361	e	69
510605	5496907	It is very unlikely that patrons of tour operators are troublemakers.	It is very unlikely that patrons of tour operators are troublemakers	260911247	1478973999475	1478973999601	r	82
510605	5496907	It is very unlikely that patrons of tour operators are troublemakers.	It is very unlikely that patrons of tour operators are troublemakers	260911248	1478973999649	1478973999777	s	83
510605	5496912	Here's your Gas Daily pricing.	Here's your Gas Daily pricing.	260911285	1478974001251	1478974001353	CAPS_LOCK	20
510605	5496912	Here's your Gas Daily pricing.	Here's your Gas Daily pricing.	260911286	1478974001377	1478974001449	H	72
510605	5496912	Here's your Gas Daily pricing.	Here's your Gas Daily pricing.	260911287	1478974001434	1478974001585	CAPS_LOCK	20
510605	5496912	Here's your Gas Daily pricing.	Here's your Gas Daily pricing.	260911288	1478974001547	1478974001665	e	69
510605	5496912	Here's your Gas Daily pricing.	Here's your Gas Daily pricing.	260911290	1478974001754	1478974001825	r	82
510605	5496912	Here's your Gas Daily pricing.	Here's your Gas Daily pricing.	260911293	1478974001930	1478974002032	e	69
510605	5496912	Here's your Gas Daily pricing.	Here's your Gas Daily pricing.	260911308	1478974002009	1478974002105	'	192
510605	5496912	Here's your Gas Daily pricing.	Here's your Gas Daily pricing.	260911311	1478974002129	1478974002209	s	83
510605	5496912	Here's your Gas Daily pricing.	Here's your Gas Daily pricing.	260911314	1478974002225	1478974002313	 	32
510605	5496912	Here's your Gas Daily pricing.	Here's your Gas Daily pricing.	260911318	1478974002426	1478974002481	y	89
510605	5496912	Here's your Gas Daily pricing.	Here's your Gas Daily pricing.	260911320	1478974002522	1478974002649	o	79
510605	5496912	Here's your Gas Daily pricing.	Here's your Gas Daily pricing.	260911351	1478974002634	1478974002744	u	85
510605	5496912	Here's your Gas Daily pricing.	Here's your Gas Daily pricing.	260911354	1478974002817	1478974002882	 	32
510605	5496912	Here's your Gas Daily pricing.	Here's your Gas Daily pricing.	260911357	1478974003169	1478974003201	BKSP	8
510605	5496912	Here's your Gas Daily pricing.	Here's your Gas Daily pricing.	260911359	1478974003234	1478974003305	r	82
510605	5496912	Here's your Gas Daily pricing.	Here's your Gas Daily pricing.	260911361	1478974003617	1478974003689	 	32
510605	5496912	Here's your Gas Daily pricing.	Here's your Gas Daily pricing.	260911362	1478974003705	1478974003792	CAPS_LOCK	20
510605	5496912	Here's your Gas Daily pricing.	Here's your Gas Daily pricing.	260911363	1478974003817	1478974003889	G	71
510605	5496912	Here's your Gas Daily pricing.	Here's your Gas Daily pricing.	260911364	1478974003857	1478974003953	CAPS_LOCK	20
510605	5496912	Here's your Gas Daily pricing.	Here's your Gas Daily pricing.	260911365	1478974004051	1478974004305	a	65
510605	5496912	Here's your Gas Daily pricing.	Here's your Gas Daily pricing.	260911377	1478974004282	1478974004426	d	68
510605	5496912	Here's your Gas Daily pricing.	Here's your Gas Daily pricing.	260911379	1478974004443	1478974004513	 	32
510605	5496912	Here's your Gas Daily pricing.	Here's your Gas Daily pricing.	260911381	1478974004769	1478974004816	BKSP	8
510605	5496912	Here's your Gas Daily pricing.	Here's your Gas Daily pricing.	260911384	1478974004897	1478974004977	BKSP	8
510605	5496912	Here's your Gas Daily pricing.	Here's your Gas Daily pricing.	260911387	1478974004962	1478974005065	s	83
510605	5496912	Here's your Gas Daily pricing.	Here's your Gas Daily pricing.	260911390	1478974005107	1478974005152	 	32
510605	5496912	Here's your Gas Daily pricing.	Here's your Gas Daily pricing.	260911393	1478974005201	1478974005353	CAPS_LOCK	20
510605	5496912	Here's your Gas Daily pricing.	Here's your Gas Daily pricing.	260911395	1478974005307	1478974005465	D	68
510605	5496912	Here's your Gas Daily pricing.	Here's your Gas Daily pricing.	260911400	1478974005420	1478974005521	CAPS_LOCK	20
510605	5496912	Here's your Gas Daily pricing.	Here's your Gas Daily pricing.	260911405	1478974005618	1478974005737	a	65
510605	5496912	Here's your Gas Daily pricing.	Here's your Gas Daily pricing.	260911421	1478974005705	1478974005776	i	73
510605	5496912	Here's your Gas Daily pricing.	Here's your Gas Daily pricing.	260911422	1478974005865	1478974005937	l	76
510605	5496912	Here's your Gas Daily pricing.	Here's your Gas Daily pricing.	260911423	1478974005954	1478974006049	y	89
510605	5496912	Here's your Gas Daily pricing.	Here's your Gas Daily pricing.	260911424	1478974006066	1478974006121	 	32
510605	5496912	Here's your Gas Daily pricing.	Here's your Gas Daily pricing.	260911425	1478974006649	1478974006753	p	80
510605	5496912	Here's your Gas Daily pricing.	Here's your Gas Daily pricing.	260911426	1478974006770	1478974006841	r	82
510605	5496912	Here's your Gas Daily pricing.	Here's your Gas Daily pricing.	260911440	1478974006898	1478974006969	i	73
510605	5496912	Here's your Gas Daily pricing.	Here's your Gas Daily pricing.	260911443	1478974007002	1478974007105	c	67
510605	5496912	Here's your Gas Daily pricing.	Here's your Gas Daily pricing.	260911446	1478974007083	1478974007153	i	73
510605	5496912	Here's your Gas Daily pricing.	Here's your Gas Daily pricing.	260911449	1478974007273	1478974007329	n	78
510605	5496912	Here's your Gas Daily pricing.	Here's your Gas Daily pricing.	260911453	1478974007394	1478974007497	g	71
510605	5496916	You had to maintain your patience to get the job done.	You had to maintain your patience to get the job done.	260911482	1478974008596	1478974008745	CAPS_LOCK	20
510605	5496916	You had to maintain your patience to get the job done.	You had to maintain your patience to get the job done.	260911484	1478974009097	1478974009209	Y	89
510605	5496916	You had to maintain your patience to get the job done.	You had to maintain your patience to get the job done.	260911488	1478974009291	1478974009393	CAPS_LOCK	20
510605	5496916	You had to maintain your patience to get the job done.	You had to maintain your patience to get the job done.	260911489	1478974009409	1478974009473	o	79
510605	5496916	You had to maintain your patience to get the job done.	You had to maintain your patience to get the job done.	260911491	1478974009579	1478974009641	u	85
510605	5496916	You had to maintain your patience to get the job done.	You had to maintain your patience to get the job done.	260911493	1478974009754	1478974009817	 	32
510605	5496916	You had to maintain your patience to get the job done.	You had to maintain your patience to get the job done.	260911495	1478974009913	1478974009993	h	72
510605	5496916	You had to maintain your patience to get the job done.	You had to maintain your patience to get the job done.	260911505	1478974009937	1478974010096	a	65
510605	5496916	You had to maintain your patience to get the job done.	You had to maintain your patience to get the job done.	260911504	1478974010010	1478974010072	d	68
510605	5496916	You had to maintain your patience to get the job done.	You had to maintain your patience to get the job done.	260911506	1478974010364	1478974010425	t	84
510605	5496916	You had to maintain your patience to get the job done.	You had to maintain your patience to get the job done.	260911507	1478974010500	1478974010569	 	32
510605	5496916	You had to maintain your patience to get the job done.	You had to maintain your patience to get the job done.	260911508	1478974010715	1478974010777	BKSP	8
510605	5496916	You had to maintain your patience to get the job done.	You had to maintain your patience to get the job done.	260911509	1478974010857	1478974010928	BKSP	8
510605	5496916	You had to maintain your patience to get the job done.	You had to maintain your patience to get the job done.	260911510	1478974011035	1478974011113	 	32
510605	5496916	You had to maintain your patience to get the job done.	You had to maintain your patience to get the job done.	260911511	1478974011153	1478974011257	t	84
510605	5496916	You had to maintain your patience to get the job done.	You had to maintain your patience to get the job done.	260911522	1478974011217	1478974011297	o	79
510605	5496916	You had to maintain your patience to get the job done.	You had to maintain your patience to get the job done.	260911523	1478974011403	1478974011481	 	32
510605	5496916	You had to maintain your patience to get the job done.	You had to maintain your patience to get the job done.	260911524	1478974011569	1478974011641	m	77
510605	5496916	You had to maintain your patience to get the job done.	You had to maintain your patience to get the job done.	260911525	1478974011658	1478974011777	a	65
510605	5496916	You had to maintain your patience to get the job done.	You had to maintain your patience to get the job done.	260911526	1478974011761	1478974011833	i	73
510605	5496916	You had to maintain your patience to get the job done.	You had to maintain your patience to get the job done.	260911527	1478974011922	1478974011993	n	78
510605	5496916	You had to maintain your patience to get the job done.	You had to maintain your patience to get the job done.	260911532	1478974012010	1478974012145	t	84
510605	5496916	You had to maintain your patience to get the job done.	You had to maintain your patience to get the job done.	260911534	1478974012107	1478974012257	a	65
510605	5496916	You had to maintain your patience to get the job done.	You had to maintain your patience to get the job done.	260911536	1478974012194	1478974012273	i	73
510605	5496916	You had to maintain your patience to get the job done.	You had to maintain your patience to get the job done.	260911537	1478974012354	1478974012425	n	78
510605	5496916	You had to maintain your patience to get the job done.	You had to maintain your patience to get the job done.	260911538	1478974012506	1478974012585	 	32
510605	5496916	You had to maintain your patience to get the job done.	You had to maintain your patience to get the job done.	260911548	1478974012700	1478974012801	y	89
510605	5496916	You had to maintain your patience to get the job done.	You had to maintain your patience to get the job done.	260911550	1478974012787	1478974012865	o	79
510605	5496916	You had to maintain your patience to get the job done.	You had to maintain your patience to get the job done.	260911552	1478974012889	1478974012953	u	85
510605	5496916	You had to maintain your patience to get the job done.	You had to maintain your patience to get the job done.	260911553	1478974013073	1478974013177	r	82
510605	5496916	You had to maintain your patience to get the job done.	You had to maintain your patience to get the job done.	260911572	1478974013146	1478974013209	 	32
510605	5496916	You had to maintain your patience to get the job done.	You had to maintain your patience to get the job done.	260911573	1478974013321	1478974013401	p	80
510605	5496916	You had to maintain your patience to get the job done.	You had to maintain your patience to get the job done.	260911574	1478974013378	1478974013497	a	65
510605	5496916	You had to maintain your patience to get the job done.	You had to maintain your patience to get the job done.	260911575	1478974013459	1478974013568	t	84
510605	5496916	You had to maintain your patience to get the job done.	You had to maintain your patience to get the job done.	260911576	1478974013657	1478974013745	i	73
510605	5496916	You had to maintain your patience to get the job done.	You had to maintain your patience to get the job done.	260911577	1478974013778	1478974013865	e	69
510605	5496916	You had to maintain your patience to get the job done.	You had to maintain your patience to get the job done.	260911586	1478974013890	1478974013945	n	78
510605	5496916	You had to maintain your patience to get the job done.	You had to maintain your patience to get the job done.	260911587	1478974014249	1478974014352	c	67
510605	5496916	You had to maintain your patience to get the job done.	You had to maintain your patience to get the job done.	260911588	1478974014458	1478974014553	e	69
510605	5496916	You had to maintain your patience to get the job done.	You had to maintain your patience to get the job done.	260911589	1478974014577	1478974014633	 	32
510605	5496916	You had to maintain your patience to get the job done.	You had to maintain your patience to get the job done.	260911590	1478974014707	1478974014809	t	84
510605	5496916	You had to maintain your patience to get the job done.	You had to maintain your patience to get the job done.	260911615	1478974014761	1478974014833	o	79
510605	5496916	You had to maintain your patience to get the job done.	You had to maintain your patience to get the job done.	260911617	1478974014938	1478974015017	 	32
510605	5496916	You had to maintain your patience to get the job done.	You had to maintain your patience to get the job done.	260911620	1478974015170	1478974015240	e	69
510605	5496916	You had to maintain your patience to get the job done.	You had to maintain your patience to get the job done.	260911622	1478974015385	1478974015457	BKSP	8
510605	5496916	You had to maintain your patience to get the job done.	You had to maintain your patience to get the job done.	260911624	1478974015473	1478974015545	g	71
510605	5496916	You had to maintain your patience to get the job done.	You had to maintain your patience to get the job done.	260911626	1478974015651	1478974015713	e	69
510605	5496916	You had to maintain your patience to get the job done.	You had to maintain your patience to get the job done.	260911628	1478974015802	1478974015905	t	84
510605	5496916	You had to maintain your patience to get the job done.	You had to maintain your patience to get the job done.	260911629	1478974015939	1478974015993	 	32
510605	5496916	You had to maintain your patience to get the job done.	You had to maintain your patience to get the job done.	260911630	1478974016043	1478974016129	t	84
510605	5496916	You had to maintain your patience to get the job done.	You had to maintain your patience to get the job done.	260911631	1478974016105	1478974016185	h	72
510605	5496916	You had to maintain your patience to get the job done.	You had to maintain your patience to get the job done.	260911632	1478974016227	1478974016329	e	69
510605	5496916	You had to maintain your patience to get the job done.	You had to maintain your patience to get the job done.	260911639	1478974016291	1478974016369	 	32
510605	5496916	You had to maintain your patience to get the job done.	You had to maintain your patience to get the job done.	260911640	1478974016465	1478974016561	j	74
510605	5496916	You had to maintain your patience to get the job done.	You had to maintain your patience to get the job done.	260911641	1478974016676	1478974016745	o	79
510605	5496916	You had to maintain your patience to get the job done.	You had to maintain your patience to get the job done.	260911642	1478974016811	1478974016897	b	66
510605	5496916	You had to maintain your patience to get the job done.	You had to maintain your patience to get the job done.	260911643	1478974016883	1478974016929	 	32
510605	5496916	You had to maintain your patience to get the job done.	You had to maintain your patience to get the job done.	260911644	1478974017251	1478974017337	d	68
510605	5496916	You had to maintain your patience to get the job done.	You had to maintain your patience to get the job done.	260911651	1478974017307	1478974017369	o	79
510605	5496916	You had to maintain your patience to get the job done.	You had to maintain your patience to get the job done.	260911652	1478974017465	1478974017528	n	78
510605	5496916	You had to maintain your patience to get the job done.	You had to maintain your patience to get the job done.	260911653	1478974017545	1478974017673	e	69
510605	5496923	I would like it paid through I Buy It.	I would like it paid through I Buy It	260911697	1478974018961	1478974019073	CAPS_LOCK	20
510605	5496923	I would like it paid through I Buy It.	I would like it paid through I Buy It	260911699	1478974019107	1478974019233	I	73
510605	5496923	I would like it paid through I Buy It.	I would like it paid through I Buy It	260911702	1478974019257	1478974019361	CAPS_LOCK	20
510605	5496923	I would like it paid through I Buy It.	I would like it paid through I Buy It	260911705	1478974019459	1478974019522	w	87
510605	5496923	I would like it paid through I Buy It.	I would like it paid through I Buy It	260911708	1478974019721	1478974019825	BKSP	8
510605	5496923	I would like it paid through I Buy It.	I would like it paid through I Buy It	260911710	1478974019922	1478974020000	 	32
510605	5496923	I would like it paid through I Buy It.	I would like it paid through I Buy It	260911755	1478974020139	1478974020264	w	87
510605	5496923	I would like it paid through I Buy It.	I would like it paid through I Buy It	260911712	1478974020161	1478974020249	o	79
510605	5496923	I would like it paid through I Buy It.	I would like it paid through I Buy It	260911757	1478974020346	1478974020417	u	85
510605	5496923	I would like it paid through I Buy It.	I would like it paid through I Buy It	260911759	1478974021386	1478974021425	l	76
510605	5496923	I would like it paid through I Buy It.	I would like it paid through I Buy It	260911761	1478974021761	1478974021833	 	32
510605	5496923	I would like it paid through I Buy It.	I would like it paid through I Buy It	260911763	1478974021809	1478974021880	d	68
510605	5496923	I would like it paid through I Buy It.	I would like it paid through I Buy It	260911764	1478974022116	1478974022177	BKSP	8
510605	5496923	I would like it paid through I Buy It.	I would like it paid through I Buy It	260911765	1478974022251	1478974022320	BKSP	8
510605	5496923	I would like it paid through I Buy It.	I would like it paid through I Buy It	260911766	1478974022394	1478974022465	BKSP	8
510605	5496923	I would like it paid through I Buy It.	I would like it paid through I Buy It	260911767	1478974022499	1478974022585	d	68
510605	5496923	I would like it paid through I Buy It.	I would like it paid through I Buy It	260911795	1478974022611	1478974022666	 	32
510605	5496923	I would like it paid through I Buy It.	I would like it paid through I Buy It	260911797	1478974022762	1478974022849	l	76
510605	5496923	I would like it paid through I Buy It.	I would like it paid through I Buy It	260911798	1478974022963	1478974023033	i	73
510605	5496923	I would like it paid through I Buy It.	I would like it paid through I Buy It	260911799	1478974023123	1478974023201	k	75
510605	5496923	I would like it paid through I Buy It.	I would like it paid through I Buy It	260911800	1478974023417	1478974023489	BKSP	8
510605	5496923	I would like it paid through I Buy It.	I would like it paid through I Buy It	260911801	1478974023579	1478974023648	BKSP	8
510605	5496923	I would like it paid through I Buy It.	I would like it paid through I Buy It	260911802	1478974023721	1478974023785	BKSP	8
510605	5496923	I would like it paid through I Buy It.	I would like it paid through I Buy It	260911803	1478974023873	1478974023937	BKSP	8
510605	5496923	I would like it paid through I Buy It.	I would like it paid through I Buy It	260911804	1478974024025	1478974024129	BKSP	8
510605	5496923	I would like it paid through I Buy It.	I would like it paid through I Buy It	260911805	1478974024196	1478974024297	l	76
510605	5496923	I would like it paid through I Buy It.	I would like it paid through I Buy It	260911812	1478974024329	1478974024473	d	68
510605	5496923	I would like it paid through I Buy It.	I would like it paid through I Buy It	260911810	1478974024393	1478974024457	 	32
510605	5496923	I would like it paid through I Buy It.	I would like it paid through I Buy It	260911814	1478974024553	1478974024625	l	76
510605	5496923	I would like it paid through I Buy It.	I would like it paid through I Buy It	260911817	1478974024739	1478974024825	i	73
510605	5496923	I would like it paid through I Buy It.	I would like it paid through I Buy It	260911820	1478974024914	1478974024993	k	75
510605	5496923	I would like it paid through I Buy It.	I would like it paid through I Buy It	260911835	1478974025018	1478974025097	e	69
510605	5496923	I would like it paid through I Buy It.	I would like it paid through I Buy It	260911836	1478974025379	1478974025417	 	32
510605	5496923	I would like it paid through I Buy It.	I would like it paid through I Buy It	260911837	1478974025906	1478974025984	t	84
510605	5496923	I would like it paid through I Buy It.	I would like it paid through I Buy It	260911838	1478974026163	1478974026249	BKSP	8
510605	5496923	I would like it paid through I Buy It.	I would like it paid through I Buy It	260911839	1478974026323	1478974026401	i	73
510605	5496923	I would like it paid through I Buy It.	I would like it paid through I Buy It	260911848	1478974026378	1478974026481	t	84
510605	5496923	I would like it paid through I Buy It.	I would like it paid through I Buy It	260911850	1478974026505	1478974026560	 	32
510605	5496923	I would like it paid through I Buy It.	I would like it paid through I Buy It	260911852	1478974026683	1478974026761	p	80
510605	5496923	I would like it paid through I Buy It.	I would like it paid through I Buy It	260911855	1478974026779	1478974026913	a	65
510605	5496923	I would like it paid through I Buy It.	I would like it paid through I Buy It	260911858	1478974026891	1478974026969	i	73
510605	5496923	I would like it paid through I Buy It.	I would like it paid through I Buy It	260911860	1478974026995	1478974027097	d	68
510605	5496923	I would like it paid through I Buy It.	I would like it paid through I Buy It	260911861	1478974027074	1478974027161	 	32
510605	5496923	I would like it paid through I Buy It.	I would like it paid through I Buy It	260911862	1478974027186	1478974027281	t	84
510605	5496923	I would like it paid through I Buy It.	I would like it paid through I Buy It	260911863	1478974027379	1478974027473	h	72
510605	5496923	I would like it paid through I Buy It.	I would like it paid through I Buy It	260911864	1478974027489	1478974027560	o	79
510605	5496923	I would like it paid through I Buy It.	I would like it paid through I Buy It	260911865	1478974027843	1478974027897	BKSP	8
510605	5496923	I would like it paid through I Buy It.	I would like it paid through I Buy It	260911866	1478974027923	1478974027993	r	82
510605	5496923	I would like it paid through I Buy It.	I would like it paid through I Buy It	260911867	1478974028026	1478974028104	o	79
510605	5496923	I would like it paid through I Buy It.	I would like it paid through I Buy It	260911872	1478974028259	1478974028330	u	85
510605	5496923	I would like it paid through I Buy It.	I would like it paid through I Buy It	260911874	1478974028395	1478974028473	g	71
510605	5496923	I would like it paid through I Buy It.	I would like it paid through I Buy It	260911876	1478974028498	1478974028552	h	72
510605	5496923	I would like it paid through I Buy It.	I would like it paid through I Buy It	260911879	1478974028667	1478974028729	 	32
510605	5496923	I would like it paid through I Buy It.	I would like it paid through I Buy It	260911881	1478974028770	1478974028865	CAPS_LOCK	20
510605	5496923	I would like it paid through I Buy It.	I would like it paid through I Buy It	260911895	1478974028850	1478974028913	I	73
510605	5496923	I would like it paid through I Buy It.	I would like it paid through I Buy It	260911896	1478974028929	1478974029049	CAPS_LOCK	20
510605	5496923	I would like it paid through I Buy It.	I would like it paid through I Buy It	260911898	1478974029035	1478974029105	 	32
510605	5496923	I would like it paid through I Buy It.	I would like it paid through I Buy It	260911900	1478974029153	1478974029257	b	66
510605	5496923	I would like it paid through I Buy It.	I would like it paid through I Buy It	260911903	1478974029283	1478974029393	u	85
510605	5496923	I would like it paid through I Buy It.	I would like it paid through I Buy It	260911906	1478974029489	1478974029584	y	89
510605	5496923	I would like it paid through I Buy It.	I would like it paid through I Buy It	260911909	1478974029683	1478974029745	BKSP	8
510605	5496923	I would like it paid through I Buy It.	I would like it paid through I Buy It	260911912	1478974029843	1478974029905	BKSP	8
510605	5496923	I would like it paid through I Buy It.	I would like it paid through I Buy It	260911916	1478974029924	1478974030097	CAPS_LOCK	20
510605	5496923	I would like it paid through I Buy It.	I would like it paid through I Buy It	260911914	1478974030005	1478974030081	BKSP	8
510605	5496923	I would like it paid through I Buy It.	I would like it paid through I Buy It	260911918	1478974030121	1478974030273	B	66
510605	5496923	I would like it paid through I Buy It.	I would like it paid through I Buy It	260911922	1478974030242	1478974030393	CAPS_LOCK	20
510605	5496923	I would like it paid through I Buy It.	I would like it paid through I Buy It	260911924	1478974030355	1478974030465	u	85
510605	5496923	I would like it paid through I Buy It.	I would like it paid through I Buy It	260911926	1478974030610	1478974030713	y	89
510605	5496923	I would like it paid through I Buy It.	I would like it paid through I Buy It	260911928	1478974030730	1478974030777	 	32
510605	5496923	I would like it paid through I Buy It.	I would like it paid through I Buy It	260911933	1478974030820	1478974030945	CAPS_LOCK	20
510605	5496923	I would like it paid through I Buy It.	I would like it paid through I Buy It	260911935	1478974030929	1478974031001	I	73
510605	5496923	I would like it paid through I Buy It.	I would like it paid through I Buy It	260911938	1478974031017	1478974031144	CAPS_LOCK	20
510605	5496928	Do you have that information yet?.	Do you have that information yet?	260912039	1478974031057	1478974034681	t	84
510605	5496928	Do you have that information yet?.	Do you have that information yet?	260911983	1478974032210	1478974032336	CAPS_LOCK	20
510605	5496928	Do you have that information yet?.	Do you have that information yet?	260911985	1478974032353	1478974032393	S	83
510605	5496928	Do you have that information yet?.	Do you have that information yet?	260911986	1478974032377	1478974032465	D	68
510605	5496928	Do you have that information yet?.	Do you have that information yet?	260911988	1478974032417	1478974032537	CAPS_LOCK	20
510605	5496928	Do you have that information yet?.	Do you have that information yet?	260911990	1478974032802	1478974032865	BKSP	8
510605	5496928	Do you have that information yet?.	Do you have that information yet?	260911992	1478974032937	1478974033025	BKSP	8
510605	5496928	Do you have that information yet?.	Do you have that information yet?	260911994	1478974032970	1478974033096	CAPS_LOCK	20
510605	5496928	Do you have that information yet?.	Do you have that information yet?	260911996	1478974033051	1478974033218	D	68
510605	5496928	Do you have that information yet?.	Do you have that information yet?	260911998	1478974033156	1478974033281	CAPS_LOCK	20
510605	5496928	Do you have that information yet?.	Do you have that information yet?	260912000	1478974033251	1478974033329	o	79
510605	5496928	Do you have that information yet?.	Do you have that information yet?	260912005	1478974033433	1478974033481	 	32
510605	5496928	Do you have that information yet?.	Do you have that information yet?	260912001	1478974033506	1478974033569	y	89
510605	5496928	Do you have that information yet?.	Do you have that information yet?	260912004	1478974033596	1478974033658	o	79
510605	5496928	Do you have that information yet?.	Do you have that information yet?	260912007	1478974033644	1478974033704	u	85
510605	5496928	Do you have that information yet?.	Do you have that information yet?	260912009	1478974033753	1478974033809	 	32
510605	5496928	Do you have that information yet?.	Do you have that information yet?	260912010	1478974033891	1478974033961	h	72
510605	5496928	Do you have that information yet?.	Do you have that information yet?	260912034	1478974033986	1478974034081	a	65
510605	5496928	Do you have that information yet?.	Do you have that information yet?	260912035	1478974034058	1478974034145	v	86
510605	5496928	Do you have that information yet?.	Do you have that information yet?	260912036	1478974034162	1478974034273	e	69
510605	5496928	Do you have that information yet?.	Do you have that information yet?	260912037	1478974034251	1478974034329	 	32
510605	5496928	Do you have that information yet?.	Do you have that information yet?	260912064	1478974034657	1478974034736	h	72
510605	5496928	Do you have that information yet?.	Do you have that information yet?	260912067	1478974034753	1478974034888	a	65
510605	5496928	Do you have that information yet?.	Do you have that information yet?	260912070	1478974034801	1478974034905	t	84
510605	5496928	Do you have that information yet?.	Do you have that information yet?	260912071	1478974034867	1478974034937	 	32
510605	5496928	Do you have that information yet?.	Do you have that information yet?	260912072	1478974035034	1478974035105	i	73
510605	5496928	Do you have that information yet?.	Do you have that information yet?	260912075	1478974035305	1478974035369	BKSP	8
510605	5496928	Do you have that information yet?.	Do you have that information yet?	260912078	1478974035451	1478974035513	BKSP	8
510605	5496928	Do you have that information yet?.	Do you have that information yet?	260912081	1478974035602	1478974035665	BKSP	8
510605	5496928	Do you have that information yet?.	Do you have that information yet?	260912086	1478974035739	1478974035800	BKSP	8
510605	5496928	Do you have that information yet?.	Do you have that information yet?	260912089	1478974035882	1478974035945	BKSP	8
510605	5496928	Do you have that information yet?.	Do you have that information yet?	260912091	1478974036003	1478974036097	BKSP	8
510605	5496928	Do you have that information yet?.	Do you have that information yet?	260912092	1478974036195	1478974036297	 	32
510605	5496928	Do you have that information yet?.	Do you have that information yet?	260912084	1478974036371	1478974036489	t	84
510605	5496928	Do you have that information yet?.	Do you have that information yet?	260912087	1478974036450	1478974036537	h	72
510605	5496928	Do you have that information yet?.	Do you have that information yet?	260912090	1478974036514	1478974036657	a	65
510605	5496928	Do you have that information yet?.	Do you have that information yet?	260912095	1478974036578	1478974036697	t	84
510605	5496928	Do you have that information yet?.	Do you have that information yet?	260912098	1478974036633	1478974036721	 	32
510605	5496928	Do you have that information yet?.	Do you have that information yet?	260912100	1478974036804	1478974036873	i	73
510605	5496928	Do you have that information yet?.	Do you have that information yet?	260912102	1478974036954	1478974037033	n	78
510605	5496928	Do you have that information yet?.	Do you have that information yet?	260912104	1478974037090	1478974037185	f	70
510605	5496928	Do you have that information yet?.	Do you have that information yet?	260912106	1478974037170	1478974037249	o	79
510605	5496928	Do you have that information yet?.	Do you have that information yet?	260912107	1478974037307	1478974037417	r	82
510605	5496928	Do you have that information yet?.	Do you have that information yet?	260912108	1478974037443	1478974037513	m	77
510605	5496928	Do you have that information yet?.	Do you have that information yet?	260912109	1478974037563	1478974037704	a	65
510605	5496928	Do you have that information yet?.	Do you have that information yet?	260912110	1478974037651	1478974037761	t	84
510605	5496928	Do you have that information yet?.	Do you have that information yet?	260912112	1478974037737	1478974037825	i	73
510605	5496928	Do you have that information yet?.	Do you have that information yet?	260912114	1478974037897	1478974037985	o	79
510605	5496928	Do you have that information yet?.	Do you have that information yet?	260912129	1478974038084	1478974038161	n	78
510605	5496928	Do you have that information yet?.	Do you have that information yet?	260912130	1478974038265	1478974038337	 	32
510605	5496928	Do you have that information yet?.	Do you have that information yet?	260912131	1478974038465	1478974038545	y	89
510605	5496928	Do you have that information yet?.	Do you have that information yet?	260912132	1478974038521	1478974038593	e	69
510605	5496928	Do you have that information yet?.	Do you have that information yet?	260912133	1478974038675	1478974038761	t	84
510605	5496928	Do you have that information yet?.	Do you have that information yet?	260912137	1478974038827	1478974039129	SHIFT	16
510605	5496928	Do you have that information yet?.	Do you have that information yet?	260912139	1478974038993	1478974039153	?	191
510605	5496933	The Senate defied President Bill Clinton on Thursday.	The Senate defied President Bill Clinton on Tuesday.	260912163	1478974040284	1478974040418	CAPS_LOCK	20
510605	5496933	The Senate defied President Bill Clinton on Thursday.	The Senate defied President Bill Clinton on Tuesday.	260912164	1478974040435	1478974040537	T	84
510605	5496933	The Senate defied President Bill Clinton on Thursday.	The Senate defied President Bill Clinton on Tuesday.	260912165	1478974040490	1478974040648	CAPS_LOCK	20
510605	5496933	The Senate defied President Bill Clinton on Thursday.	The Senate defied President Bill Clinton on Tuesday.	260912166	1478974040593	1478974040673	h	72
510605	5496933	The Senate defied President Bill Clinton on Thursday.	The Senate defied President Bill Clinton on Tuesday.	260912167	1478974040690	1478974040801	e	69
510605	5496933	The Senate defied President Bill Clinton on Thursday.	The Senate defied President Bill Clinton on Tuesday.	260912168	1478974040778	1478974040848	 	32
510605	5496933	The Senate defied President Bill Clinton on Thursday.	The Senate defied President Bill Clinton on Tuesday.	260912169	1478974040889	1478974040912	s	83
510605	5496933	The Senate defied President Bill Clinton on Thursday.	The Senate defied President Bill Clinton on Tuesday.	260912190	1478974041050	1478974041200	CAPS_LOCK	20
510605	5496933	The Senate defied President Bill Clinton on Thursday.	The Senate defied President Bill Clinton on Tuesday.	260912191	1478974041306	1478974041385	BKSP	8
510605	5496933	The Senate defied President Bill Clinton on Thursday.	The Senate defied President Bill Clinton on Tuesday.	260912192	1478974041434	1478974041545	S	83
510605	5496933	The Senate defied President Bill Clinton on Thursday.	The Senate defied President Bill Clinton on Tuesday.	260912193	1478974041506	1478974041696	CAPS_LOCK	20
510605	5496933	The Senate defied President Bill Clinton on Thursday.	The Senate defied President Bill Clinton on Tuesday.	260912194	1478974041665	1478974041761	e	69
510605	5496933	The Senate defied President Bill Clinton on Thursday.	The Senate defied President Bill Clinton on Tuesday.	260912195	1478974041994	1478974042065	n	78
510605	5496933	The Senate defied President Bill Clinton on Thursday.	The Senate defied President Bill Clinton on Tuesday.	260912196	1478974042146	1478974042314	a	65
510605	5496933	The Senate defied President Bill Clinton on Thursday.	The Senate defied President Bill Clinton on Tuesday.	260912197	1478974042339	1478974042425	t	84
510605	5496933	The Senate defied President Bill Clinton on Thursday.	The Senate defied President Bill Clinton on Tuesday.	260912198	1478974042514	1478974042601	e	69
510605	5496933	The Senate defied President Bill Clinton on Thursday.	The Senate defied President Bill Clinton on Tuesday.	260912200	1478974042627	1478974042689	 	32
510605	5496933	The Senate defied President Bill Clinton on Thursday.	The Senate defied President Bill Clinton on Tuesday.	260912203	1478974042819	1478974042905	d	68
510605	5496933	The Senate defied President Bill Clinton on Thursday.	The Senate defied President Bill Clinton on Tuesday.	260912207	1478974043010	1478974043080	e	69
510605	5496933	The Senate defied President Bill Clinton on Thursday.	The Senate defied President Bill Clinton on Tuesday.	260912211	1478974043177	1478974043265	f	70
510605	5496933	The Senate defied President Bill Clinton on Thursday.	The Senate defied President Bill Clinton on Tuesday.	260912221	1478974043251	1478974043329	i	73
510605	5496933	The Senate defied President Bill Clinton on Thursday.	The Senate defied President Bill Clinton on Tuesday.	260912222	1478974043371	1478974043449	e	69
510605	5496933	The Senate defied President Bill Clinton on Thursday.	The Senate defied President Bill Clinton on Tuesday.	260912223	1478974043532	1478974043625	d	68
510605	5496933	The Senate defied President Bill Clinton on Thursday.	The Senate defied President Bill Clinton on Tuesday.	260912224	1478974043609	1478974043681	 	32
510605	5496933	The Senate defied President Bill Clinton on Thursday.	The Senate defied President Bill Clinton on Tuesday.	260912225	1478974043753	1478974043857	CAPS_LOCK	20
510605	5496933	The Senate defied President Bill Clinton on Thursday.	The Senate defied President Bill Clinton on Tuesday.	260912226	1478974043834	1478974043921	P	80
510605	5496933	The Senate defied President Bill Clinton on Thursday.	The Senate defied President Bill Clinton on Tuesday.	260912227	1478974043939	1478974044097	CAPS_LOCK	20
510605	5496933	The Senate defied President Bill Clinton on Thursday.	The Senate defied President Bill Clinton on Tuesday.	260912252	1478974044033	1478974044120	r	82
510605	5496933	The Senate defied President Bill Clinton on Thursday.	The Senate defied President Bill Clinton on Tuesday.	260912254	1478974044276	1478974044345	e	69
510605	5496933	The Senate defied President Bill Clinton on Thursday.	The Senate defied President Bill Clinton on Tuesday.	260912256	1478974044523	1478974044633	s	83
510605	5496933	The Senate defied President Bill Clinton on Thursday.	The Senate defied President Bill Clinton on Tuesday.	260912257	1478974044787	1478974044864	i	73
510605	5496933	The Senate defied President Bill Clinton on Thursday.	The Senate defied President Bill Clinton on Tuesday.	260912259	1478974044881	1478974044953	d	68
510605	5496933	The Senate defied President Bill Clinton on Thursday.	The Senate defied President Bill Clinton on Tuesday.	260912261	1478974045050	1478974045121	e	69
510605	5496933	The Senate defied President Bill Clinton on Thursday.	The Senate defied President Bill Clinton on Tuesday.	260912280	1478974045144	1478974045225	n	78
510605	5496933	The Senate defied President Bill Clinton on Thursday.	The Senate defied President Bill Clinton on Tuesday.	260912282	1478974045252	1478974045329	t	84
510605	5496933	The Senate defied President Bill Clinton on Thursday.	The Senate defied President Bill Clinton on Tuesday.	260912284	1478974045347	1478974045401	 	32
510605	5496933	The Senate defied President Bill Clinton on Thursday.	The Senate defied President Bill Clinton on Tuesday.	260912286	1478974045458	1478974045561	CAPS_LOCK	20
510605	5496933	The Senate defied President Bill Clinton on Thursday.	The Senate defied President Bill Clinton on Tuesday.	260912287	1478974045642	1478974045769	CAPS_LOCK	20
510605	5496933	The Senate defied President Bill Clinton on Thursday.	The Senate defied President Bill Clinton on Tuesday.	260912288	1478974046209	1478974046321	CAPS_LOCK	20
510605	5496933	The Senate defied President Bill Clinton on Thursday.	The Senate defied President Bill Clinton on Tuesday.	260912289	1478974046363	1478974046449	B	66
510605	5496933	The Senate defied President Bill Clinton on Thursday.	The Senate defied President Bill Clinton on Tuesday.	260912290	1478974046500	1478974046625	CAPS_LOCK	20
510605	5496933	The Senate defied President Bill Clinton on Thursday.	The Senate defied President Bill Clinton on Tuesday.	260912291	1478974046651	1478974046745	i	73
510605	5496933	The Senate defied President Bill Clinton on Thursday.	The Senate defied President Bill Clinton on Tuesday.	260912292	1478974046866	1478974046937	l	76
510605	5496933	The Senate defied President Bill Clinton on Thursday.	The Senate defied President Bill Clinton on Tuesday.	260912293	1478974046986	1478974047065	l	76
510605	5496933	The Senate defied President Bill Clinton on Thursday.	The Senate defied President Bill Clinton on Tuesday.	260912294	1478974047153	1478974047224	 	32
510605	5496933	The Senate defied President Bill Clinton on Thursday.	The Senate defied President Bill Clinton on Tuesday.	260912296	1478974047290	1478974047441	CAPS_LOCK	20
510605	5496933	The Senate defied President Bill Clinton on Thursday.	The Senate defied President Bill Clinton on Tuesday.	260912298	1478974047411	1478974047577	C	67
510605	5496933	The Senate defied President Bill Clinton on Thursday.	The Senate defied President Bill Clinton on Tuesday.	260912315	1478974047507	1478974047649	CAPS_LOCK	20
510605	5496933	The Senate defied President Bill Clinton on Thursday.	The Senate defied President Bill Clinton on Tuesday.	260912314	1478974047529	1478974047626	l	76
510605	5496933	The Senate defied President Bill Clinton on Thursday.	The Senate defied President Bill Clinton on Tuesday.	260912316	1478974047713	1478974047801	i	73
510605	5496933	The Senate defied President Bill Clinton on Thursday.	The Senate defied President Bill Clinton on Tuesday.	260912317	1478974047882	1478974047961	n	78
510605	5496933	The Senate defied President Bill Clinton on Thursday.	The Senate defied President Bill Clinton on Tuesday.	260912318	1478974047987	1478974048105	t	84
510605	5496933	The Senate defied President Bill Clinton on Thursday.	The Senate defied President Bill Clinton on Tuesday.	260912319	1478974048091	1478974048169	o	79
510605	5496933	The Senate defied President Bill Clinton on Thursday.	The Senate defied President Bill Clinton on Tuesday.	260912320	1478974048273	1478974048353	n	78
510605	5496933	The Senate defied President Bill Clinton on Thursday.	The Senate defied President Bill Clinton on Tuesday.	260912323	1478974048443	1478974048505	 	32
510605	5496933	The Senate defied President Bill Clinton on Thursday.	The Senate defied President Bill Clinton on Tuesday.	260912325	1478974048611	1478974048665	o	79
510605	5496933	The Senate defied President Bill Clinton on Thursday.	The Senate defied President Bill Clinton on Tuesday.	260912327	1478974048650	1478974048690	i	73
510605	5496933	The Senate defied President Bill Clinton on Thursday.	The Senate defied President Bill Clinton on Tuesday.	260912329	1478974048793	1478974048840	n	78
510605	5496933	The Senate defied President Bill Clinton on Thursday.	The Senate defied President Bill Clinton on Tuesday.	260912331	1478974048938	1478974049001	 	32
510605	5496933	The Senate defied President Bill Clinton on Thursday.	The Senate defied President Bill Clinton on Tuesday.	260912340	1478974049163	1478974049225	BKSP	8
510605	5496933	The Senate defied President Bill Clinton on Thursday.	The Senate defied President Bill Clinton on Tuesday.	260912343	1478974049305	1478974049361	BKSP	8
510605	5496933	The Senate defied President Bill Clinton on Thursday.	The Senate defied President Bill Clinton on Tuesday.	260912344	1478974049442	1478974049513	BKSP	8
510605	5496933	The Senate defied President Bill Clinton on Thursday.	The Senate defied President Bill Clinton on Tuesday.	260912345	1478974049619	1478974049689	n	78
510605	5496933	The Senate defied President Bill Clinton on Thursday.	The Senate defied President Bill Clinton on Tuesday.	260912346	1478974049787	1478974049865	 	32
510605	5496933	The Senate defied President Bill Clinton on Thursday.	The Senate defied President Bill Clinton on Tuesday.	260912348	1478974049852	1478974049993	CAPS_LOCK	20
510605	5496933	The Senate defied President Bill Clinton on Thursday.	The Senate defied President Bill Clinton on Tuesday.	260912352	1478974049947	1478974050073	T	84
510605	5496933	The Senate defied President Bill Clinton on Thursday.	The Senate defied President Bill Clinton on Tuesday.	260912355	1478974050058	1478974050169	CAPS_LOCK	20
510605	5496933	The Senate defied President Bill Clinton on Thursday.	The Senate defied President Bill Clinton on Tuesday.	260912358	1478974050225	1478974050304	u	85
510605	5496933	The Senate defied President Bill Clinton on Thursday.	The Senate defied President Bill Clinton on Tuesday.	260912360	1478974050361	1478974050489	e	69
510605	5496933	The Senate defied President Bill Clinton on Thursday.	The Senate defied President Bill Clinton on Tuesday.	260912362	1478974050513	1478974050657	s	83
510605	5496933	The Senate defied President Bill Clinton on Thursday.	The Senate defied President Bill Clinton on Tuesday.	260912363	1478974050747	1478974050881	d	68
510605	5496933	The Senate defied President Bill Clinton on Thursday.	The Senate defied President Bill Clinton on Tuesday.	260912364	1478974050835	1478974051001	a	65
510605	5496933	The Senate defied President Bill Clinton on Thursday.	The Senate defied President Bill Clinton on Tuesday.	260912368	1478974050963	1478974051041	u	89
510605	5496933	The Senate defied President Bill Clinton on Thursday.	The Senate defied President Bill Clinton on Tuesday.	260912370	1478974051417	1478974051497	BKSP	8
510605	5496940	That s all I have to say.	That s all I have to say.	260912389	1478974052844	1478974053000	CAPS_LOCK	20
510605	5496940	That s all I have to say.	That s all I have to say.	260912391	1478974052980	1478974053129	T	84
510605	5496940	That s all I have to say.	That s all I have to say.	260912393	1478974053076	1478974053201	CAPS_LOCK	20
510605	5496940	That s all I have to say.	That s all I have to say.	260912395	1478974053241	1478974053329	h	72
510605	5496940	That s all I have to say.	That s all I have to say.	260912397	1478974053355	1478974053521	a	65
510605	5496940	That s all I have to say.	That s all I have to say.	260912399	1478974053465	1478974053593	t	84
510605	5496940	That s all I have to say.	That s all I have to say.	260912401	1478974053676	1478974053777	;	186
510605	5496940	That s all I have to say.	That s all I have to say.	260912418	1478974054139	1478974054248	BKSP	8
510605	5496940	That s all I have to say.	That s all I have to say.	260912420	1478974054545	1478974054625	 	32
510605	5496940	That s all I have to say.	That s all I have to say.	260912422	1478974054667	1478974054793	s	83
510605	5496940	That s all I have to say.	That s all I have to say.	260912424	1478974054809	1478974054897	 	32
510605	5496940	That s all I have to say.	That s all I have to say.	260912426	1478974054953	1478974055073	a	65
510605	5496940	That s all I have to say.	That s all I have to say.	260912450	1478974055049	1478974055121	l	76
510605	5496940	That s all I have to say.	That s all I have to say.	260912452	1478974055187	1478974055257	l	76
510605	5496940	That s all I have to say.	That s all I have to say.	260912454	1478974055347	1478974055425	 	32
510605	5496940	That s all I have to say.	That s all I have to say.	260912455	1478974055658	1478974055753	CAPS_LOCK	20
510605	5496940	That s all I have to say.	That s all I have to say.	260912456	1478974055723	1478974055793	I	73
510605	5496940	That s all I have to say.	That s all I have to say.	260912457	1478974055810	1478974055905	CAPS_LOCK	20
510605	5496940	That s all I have to say.	That s all I have to say.	260912458	1478974055889	1478974055953	 	32
510605	5496940	That s all I have to say.	That s all I have to say.	260912459	1478974056060	1478974056121	h	72
510605	5496940	That s all I have to say.	That s all I have to say.	260912468	1478974056225	1478974056329	a	65
510605	5496940	That s all I have to say.	That s all I have to say.	260912470	1478974056297	1478974056393	v	86
510605	5496940	That s all I have to say.	That s all I have to say.	260912472	1478974056417	1478974056512	e	69
510605	5496940	That s all I have to say.	That s all I have to say.	260912473	1478974056489	1478974056584	 	32
510605	5496940	That s all I have to say.	That s all I have to say.	260912474	1478974056609	1478974056721	t	84
510605	5496940	That s all I have to say.	That s all I have to say.	260912479	1478974056691	1478974056753	o	79
510605	5496940	That s all I have to say.	That s all I have to say.	260912480	1478974056858	1478974056921	 	32
510605	5496940	That s all I have to say.	That s all I have to say.	260912481	1478974056947	1478974057049	s	83
510605	5496940	That s all I have to say.	That s all I have to say.	260912482	1478974057026	1478974057209	a	65
510605	5496940	That s all I have to say.	That s all I have to say.	260912483	1478974057156	1478974057313	y	89
510605	5496942	The French diplomat meanwhile reiterated his condemnation.	The French diplomat meanwhile reiterated his condemnation	260912511	1478974058489	1478974058673	CAPS_LOCK	20
510605	5496942	The French diplomat meanwhile reiterated his condemnation.	The French diplomat meanwhile reiterated his condemnation	260912512	1478974058633	1478974058801	T	84
510605	5496942	The French diplomat meanwhile reiterated his condemnation.	The French diplomat meanwhile reiterated his condemnation	260912513	1478974058745	1478974058889	CAPS_LOCK	20
510605	5496942	The French diplomat meanwhile reiterated his condemnation.	The French diplomat meanwhile reiterated his condemnation	260912515	1478974058915	1478974059001	h	72
510605	5496942	The French diplomat meanwhile reiterated his condemnation.	The French diplomat meanwhile reiterated his condemnation	260912517	1478974059043	1478974059153	e	69
510605	5496942	The French diplomat meanwhile reiterated his condemnation.	The French diplomat meanwhile reiterated his condemnation	260912519	1478974059137	1478974059217	 	32
510605	5496942	The French diplomat meanwhile reiterated his condemnation.	The French diplomat meanwhile reiterated his condemnation	260912521	1478974059689	1478974059857	CAPS_LOCK	20
510605	5496942	The French diplomat meanwhile reiterated his condemnation.	The French diplomat meanwhile reiterated his condemnation	260912529	1478974059809	1478974059961	F	70
510605	5496942	The French diplomat meanwhile reiterated his condemnation.	The French diplomat meanwhile reiterated his condemnation	260912530	1478974059916	1478974060049	CAPS_LOCK	20
510605	5496942	The French diplomat meanwhile reiterated his condemnation.	The French diplomat meanwhile reiterated his condemnation	260912531	1478974060066	1478974060153	r	82
510605	5496942	The French diplomat meanwhile reiterated his condemnation.	The French diplomat meanwhile reiterated his condemnation	260912532	1478974060235	1478974060329	e	69
510605	5496942	The French diplomat meanwhile reiterated his condemnation.	The French diplomat meanwhile reiterated his condemnation	260912533	1478974060371	1478974060449	n	78
510605	5496942	The French diplomat meanwhile reiterated his condemnation.	The French diplomat meanwhile reiterated his condemnation	260912534	1478974060491	1478974060592	c	67
510605	5496942	The French diplomat meanwhile reiterated his condemnation.	The French diplomat meanwhile reiterated his condemnation	260912545	1478974060563	1478974060640	h	72
510605	5496942	The French diplomat meanwhile reiterated his condemnation.	The French diplomat meanwhile reiterated his condemnation	260912547	1478974060729	1478974060800	 	32
510605	5496942	The French diplomat meanwhile reiterated his condemnation.	The French diplomat meanwhile reiterated his condemnation	260912548	1478974060833	1478974060945	d	68
510605	5496942	The French diplomat meanwhile reiterated his condemnation.	The French diplomat meanwhile reiterated his condemnation	260912550	1478974060930	1478974060993	i	73
510605	5496942	The French diplomat meanwhile reiterated his condemnation.	The French diplomat meanwhile reiterated his condemnation	260912552	1478974061147	1478974061225	p	80
510605	5496942	The French diplomat meanwhile reiterated his condemnation.	The French diplomat meanwhile reiterated his condemnation	260912554	1478974061410	1478974061497	l	76
510605	5496942	The French diplomat meanwhile reiterated his condemnation.	The French diplomat meanwhile reiterated his condemnation	260912558	1478974061611	1478974061681	o	79
510605	5496942	The French diplomat meanwhile reiterated his condemnation.	The French diplomat meanwhile reiterated his condemnation	260912559	1478974061793	1478974061865	m	77
510605	5496942	The French diplomat meanwhile reiterated his condemnation.	The French diplomat meanwhile reiterated his condemnation	260912560	1478974061890	1478974062041	a	65
510605	5496942	The French diplomat meanwhile reiterated his condemnation.	The French diplomat meanwhile reiterated his condemnation	260912561	1478974061963	1478974062089	t	84
510605	5496942	The French diplomat meanwhile reiterated his condemnation.	The French diplomat meanwhile reiterated his condemnation	260912567	1478974062073	1478974062128	 	32
510605	5496942	The French diplomat meanwhile reiterated his condemnation.	The French diplomat meanwhile reiterated his condemnation	260912569	1478974062313	1478974062385	m	77
510605	5496942	The French diplomat meanwhile reiterated his condemnation.	The French diplomat meanwhile reiterated his condemnation	260912571	1478974062411	1478974062537	e	69
510605	5496942	The French diplomat meanwhile reiterated his condemnation.	The French diplomat meanwhile reiterated his condemnation	260912572	1478974062483	1478974062641	a	65
510605	5496942	The French diplomat meanwhile reiterated his condemnation.	The French diplomat meanwhile reiterated his condemnation	260912573	1478974062602	1478974062680	n	78
510605	5496942	The French diplomat meanwhile reiterated his condemnation.	The French diplomat meanwhile reiterated his condemnation	260912574	1478974062833	1478974062961	w	87
510605	5496942	The French diplomat meanwhile reiterated his condemnation.	The French diplomat meanwhile reiterated his condemnation	260912580	1478974062929	1478974063009	h	72
510605	5496942	The French diplomat meanwhile reiterated his condemnation.	The French diplomat meanwhile reiterated his condemnation	260912581	1478974063116	1478974063185	i	73
510605	5496942	The French diplomat meanwhile reiterated his condemnation.	The French diplomat meanwhile reiterated his condemnation	260912582	1478974063299	1478974063385	l	76
510605	5496942	The French diplomat meanwhile reiterated his condemnation.	The French diplomat meanwhile reiterated his condemnation	260912583	1478974063427	1478974063513	e	69
510605	5496942	The French diplomat meanwhile reiterated his condemnation.	The French diplomat meanwhile reiterated his condemnation	260912584	1478974063498	1478974063569	 	32
510605	5496942	The French diplomat meanwhile reiterated his condemnation.	The French diplomat meanwhile reiterated his condemnation	260912585	1478974063618	1478974063705	r	82
510605	5496942	The French diplomat meanwhile reiterated his condemnation.	The French diplomat meanwhile reiterated his condemnation	260912591	1478974063961	1478974064073	e	69
510605	5496942	The French diplomat meanwhile reiterated his condemnation.	The French diplomat meanwhile reiterated his condemnation	260912592	1478974064114	1478974064201	i	73
510605	5496942	The French diplomat meanwhile reiterated his condemnation.	The French diplomat meanwhile reiterated his condemnation	260912594	1478974064331	1478974064441	t	84
510605	5496942	The French diplomat meanwhile reiterated his condemnation.	The French diplomat meanwhile reiterated his condemnation	260912596	1478974064593	1478974064681	e	69
510605	5496942	The French diplomat meanwhile reiterated his condemnation.	The French diplomat meanwhile reiterated his condemnation	260912598	1478974064753	1478974064857	r	82
510605	5496942	The French diplomat meanwhile reiterated his condemnation.	The French diplomat meanwhile reiterated his condemnation	260912601	1478974064875	1478974065017	a	65
510605	5496942	The French diplomat meanwhile reiterated his condemnation.	The French diplomat meanwhile reiterated his condemnation	260912602	1478974065042	1478974065129	r	82
510605	5496942	The French diplomat meanwhile reiterated his condemnation.	The French diplomat meanwhile reiterated his condemnation	260912603	1478974065443	1478974065537	BKSP	8
510605	5496942	The French diplomat meanwhile reiterated his condemnation.	The French diplomat meanwhile reiterated his condemnation	260912604	1478974065513	1478974065601	t	84
510605	5496942	The French diplomat meanwhile reiterated his condemnation.	The French diplomat meanwhile reiterated his condemnation	260912605	1478974065698	1478974065776	e	69
510605	5496942	The French diplomat meanwhile reiterated his condemnation.	The French diplomat meanwhile reiterated his condemnation	260912606	1478974065850	1478974065953	d	68
510605	5496942	The French diplomat meanwhile reiterated his condemnation.	The French diplomat meanwhile reiterated his condemnation	260912613	1478974065931	1478974066000	 	32
510605	5496942	The French diplomat meanwhile reiterated his condemnation.	The French diplomat meanwhile reiterated his condemnation	260912614	1478974066154	1478974066224	h	72
510605	5496942	The French diplomat meanwhile reiterated his condemnation.	The French diplomat meanwhile reiterated his condemnation	260912615	1478974066337	1478974066409	i	73
510605	5496942	The French diplomat meanwhile reiterated his condemnation.	The French diplomat meanwhile reiterated his condemnation	260912616	1478974066394	1478974066473	s	83
510605	5496942	The French diplomat meanwhile reiterated his condemnation.	The French diplomat meanwhile reiterated his condemnation	260912617	1478974066505	1478974066569	 	32
510605	5496942	The French diplomat meanwhile reiterated his condemnation.	The French diplomat meanwhile reiterated his condemnation	260912619	1478974066619	1478974066697	c	67
510605	5496942	The French diplomat meanwhile reiterated his condemnation.	The French diplomat meanwhile reiterated his condemnation	260912630	1478974066779	1478974066848	o	79
510605	5496942	The French diplomat meanwhile reiterated his condemnation.	The French diplomat meanwhile reiterated his condemnation	260912631	1478974066969	1478974067040	n	78
510605	5496942	The French diplomat meanwhile reiterated his condemnation.	The French diplomat meanwhile reiterated his condemnation	260912633	1478974067081	1478974067169	d	68
510605	5496942	The French diplomat meanwhile reiterated his condemnation.	The French diplomat meanwhile reiterated his condemnation	260912635	1478974067250	1478974067353	e	69
510605	5496942	The French diplomat meanwhile reiterated his condemnation.	The French diplomat meanwhile reiterated his condemnation	260912639	1478974067339	1478974067401	m	77
510605	5496942	The French diplomat meanwhile reiterated his condemnation.	The French diplomat meanwhile reiterated his condemnation	260912640	1478974067515	1478974067577	n	78
510605	5496942	The French diplomat meanwhile reiterated his condemnation.	The French diplomat meanwhile reiterated his condemnation	260912641	1478974067684	1478974067841	a	65
510605	5496942	The French diplomat meanwhile reiterated his condemnation.	The French diplomat meanwhile reiterated his condemnation	260912642	1478974067770	1478974067880	t	84
510605	5496942	The French diplomat meanwhile reiterated his condemnation.	The French diplomat meanwhile reiterated his condemnation	260912643	1478974067858	1478974067928	i	73
510605	5496942	The French diplomat meanwhile reiterated his condemnation.	The French diplomat meanwhile reiterated his condemnation	260912644	1478974068001	1478974068097	o	79
510605	5496942	The French diplomat meanwhile reiterated his condemnation.	The French diplomat meanwhile reiterated his condemnation	260912646	1478974068113	1478974068233	n	78
510605	5496946	Add a Star Trek convention and sports memorabilia show to the mix.	Add a Star Trek convention and sports memorabilia show to the mix.	260912677	1478974069301	1478974069545	CAPS_LOCK	20
510605	5496946	Add a Star Trek convention and sports memorabilia show to the mix.	Add a Star Trek convention and sports memorabilia show to the mix.	260912679	1478974069754	1478974069905	A	65
510605	5496946	Add a Star Trek convention and sports memorabilia show to the mix.	Add a Star Trek convention and sports memorabilia show to the mix.	260912680	1478974069867	1478974070033	CAPS_LOCK	20
510605	5496946	Add a Star Trek convention and sports memorabilia show to the mix.	Add a Star Trek convention and sports memorabilia show to the mix.	260912681	1478974069993	1478974070097	d	68
510605	5496946	Add a Star Trek convention and sports memorabilia show to the mix.	Add a Star Trek convention and sports memorabilia show to the mix.	260912682	1478974070177	1478974070281	d	68
510605	5496946	Add a Star Trek convention and sports memorabilia show to the mix.	Add a Star Trek convention and sports memorabilia show to the mix.	260912683	1478974070323	1478974070394	 	32
510605	5496946	Add a Star Trek convention and sports memorabilia show to the mix.	Add a Star Trek convention and sports memorabilia show to the mix.	260912684	1478974070466	1478974070577	CAPS_LOCK	20
510605	5496946	Add a Star Trek convention and sports memorabilia show to the mix.	Add a Star Trek convention and sports memorabilia show to the mix.	260912685	1478974070955	1478974071121	CAPS_LOCK	20
510605	5496946	Add a Star Trek convention and sports memorabilia show to the mix.	Add a Star Trek convention and sports memorabilia show to the mix.	260912699	1478974071106	1478974071248	a	65
510605	5496946	Add a Star Trek convention and sports memorabilia show to the mix.	Add a Star Trek convention and sports memorabilia show to the mix.	260912701	1478974071330	1478974071425	 	32
510605	5496946	Add a Star Trek convention and sports memorabilia show to the mix.	Add a Star Trek convention and sports memorabilia show to the mix.	260912705	1478974071475	1478974071617	CAPS_LOCK	20
510605	5496946	Add a Star Trek convention and sports memorabilia show to the mix.	Add a Star Trek convention and sports memorabilia show to the mix.	260912708	1478974071572	1478974071729	S	83
510605	5496946	Add a Star Trek convention and sports memorabilia show to the mix.	Add a Star Trek convention and sports memorabilia show to the mix.	260912710	1478974071684	1478974071801	CAPS_LOCK	20
510605	5496946	Add a Star Trek convention and sports memorabilia show to the mix.	Add a Star Trek convention and sports memorabilia show to the mix.	260912715	1478974071833	1478974071993	t	84
510605	5496946	Add a Star Trek convention and sports memorabilia show to the mix.	Add a Star Trek convention and sports memorabilia show to the mix.	260912718	1478974071971	1478974072137	a	65
510605	5496946	Add a Star Trek convention and sports memorabilia show to the mix.	Add a Star Trek convention and sports memorabilia show to the mix.	260912733	1478974072122	1478974072225	t	84
510605	5496946	Add a Star Trek convention and sports memorabilia show to the mix.	Add a Star Trek convention and sports memorabilia show to the mix.	260912737	1478974072458	1478974072553	BKSP	8
510605	5496946	Add a Star Trek convention and sports memorabilia show to the mix.	Add a Star Trek convention and sports memorabilia show to the mix.	260912739	1478974072571	1478974072680	r	82
510605	5496946	Add a Star Trek convention and sports memorabilia show to the mix.	Add a Star Trek convention and sports memorabilia show to the mix.	260912740	1478974072666	1478974072761	 	32
510605	5496946	Add a Star Trek convention and sports memorabilia show to the mix.	Add a Star Trek convention and sports memorabilia show to the mix.	260912741	1478974072747	1478974072897	CAPS_LOCK	20
510605	5496946	Add a Star Trek convention and sports memorabilia show to the mix.	Add a Star Trek convention and sports memorabilia show to the mix.	260912742	1478974072850	1478974073001	T	84
510605	5496946	Add a Star Trek convention and sports memorabilia show to the mix.	Add a Star Trek convention and sports memorabilia show to the mix.	260912743	1478974072962	1478974073144	CAPS_LOCK	20
510605	5496946	Add a Star Trek convention and sports memorabilia show to the mix.	Add a Star Trek convention and sports memorabilia show to the mix.	260912744	1478974073097	1478974073192	r	82
510605	5496946	Add a Star Trek convention and sports memorabilia show to the mix.	Add a Star Trek convention and sports memorabilia show to the mix.	260912745	1478974073268	1478974073400	e	69
510605	5496946	Add a Star Trek convention and sports memorabilia show to the mix.	Add a Star Trek convention and sports memorabilia show to the mix.	260912746	1478974073385	1478974073465	k	75
510605	5496946	Add a Star Trek convention and sports memorabilia show to the mix.	Add a Star Trek convention and sports memorabilia show to the mix.	260912747	1478974073562	1478974073632	 	32
510605	5496946	Add a Star Trek convention and sports memorabilia show to the mix.	Add a Star Trek convention and sports memorabilia show to the mix.	260912748	1478974073723	1478974073833	c	67
510605	5496946	Add a Star Trek convention and sports memorabilia show to the mix.	Add a Star Trek convention and sports memorabilia show to the mix.	260912749	1478974073786	1478974073849	o	79
510605	5496946	Add a Star Trek convention and sports memorabilia show to the mix.	Add a Star Trek convention and sports memorabilia show to the mix.	260912750	1478974073969	1478974074025	n	78
510605	5496946	Add a Star Trek convention and sports memorabilia show to the mix.	Add a Star Trek convention and sports memorabilia show to the mix.	260912751	1478974074043	1478974074121	v	86
510605	5496946	Add a Star Trek convention and sports memorabilia show to the mix.	Add a Star Trek convention and sports memorabilia show to the mix.	260912766	1478974074323	1478974074449	e	69
510605	5496946	Add a Star Trek convention and sports memorabilia show to the mix.	Add a Star Trek convention and sports memorabilia show to the mix.	260912768	1478974074433	1478974074513	n	78
510605	5496946	Add a Star Trek convention and sports memorabilia show to the mix.	Add a Star Trek convention and sports memorabilia show to the mix.	260912770	1478974074601	1478974074697	t	84
510605	5496946	Add a Star Trek convention and sports memorabilia show to the mix.	Add a Star Trek convention and sports memorabilia show to the mix.	260912772	1478974074730	1478974074792	i	73
510605	5496946	Add a Star Trek convention and sports memorabilia show to the mix.	Add a Star Trek convention and sports memorabilia show to the mix.	260912773	1478974074891	1478974074961	o	79
510605	5496946	Add a Star Trek convention and sports memorabilia show to the mix.	Add a Star Trek convention and sports memorabilia show to the mix.	260912774	1478974074987	1478974075057	n	78
510605	5496946	Add a Star Trek convention and sports memorabilia show to the mix.	Add a Star Trek convention and sports memorabilia show to the mix.	260912775	1478974075091	1478974075153	 	32
510605	5496946	Add a Star Trek convention and sports memorabilia show to the mix.	Add a Star Trek convention and sports memorabilia show to the mix.	260912776	1478974075193	1478974075289	a	65
510605	5496946	Add a Star Trek convention and sports memorabilia show to the mix.	Add a Star Trek convention and sports memorabilia show to the mix.	260912778	1478974075250	1478974075321	n	78
510605	5496946	Add a Star Trek convention and sports memorabilia show to the mix.	Add a Star Trek convention and sports memorabilia show to the mix.	260912780	1478974075338	1478974075465	d	68
510605	5496946	Add a Star Trek convention and sports memorabilia show to the mix.	Add a Star Trek convention and sports memorabilia show to the mix.	260912784	1478974075418	1478974075488	 	32
510605	5496946	Add a Star Trek convention and sports memorabilia show to the mix.	Add a Star Trek convention and sports memorabilia show to the mix.	260912785	1478974075529	1478974075657	s	83
510605	5496946	Add a Star Trek convention and sports memorabilia show to the mix.	Add a Star Trek convention and sports memorabilia show to the mix.	260912786	1478974075601	1478974075681	p	80
510605	5496946	Add a Star Trek convention and sports memorabilia show to the mix.	Add a Star Trek convention and sports memorabilia show to the mix.	260912787	1478974075770	1478974075849	o	79
510605	5496946	Add a Star Trek convention and sports memorabilia show to the mix.	Add a Star Trek convention and sports memorabilia show to the mix.	260912788	1478974075875	1478974075929	r	82
510605	5496946	Add a Star Trek convention and sports memorabilia show to the mix.	Add a Star Trek convention and sports memorabilia show to the mix.	260912789	1478974075987	1478974076089	t	84
510605	5496946	Add a Star Trek convention and sports memorabilia show to the mix.	Add a Star Trek convention and sports memorabilia show to the mix.	260912808	1478974076113	1478974076225	s	83
510605	5496946	Add a Star Trek convention and sports memorabilia show to the mix.	Add a Star Trek convention and sports memorabilia show to the mix.	260912810	1478974076201	1478974076273	 	32
510605	5496946	Add a Star Trek convention and sports memorabilia show to the mix.	Add a Star Trek convention and sports memorabilia show to the mix.	260912812	1478974076361	1478974076433	m	77
510605	5496946	Add a Star Trek convention and sports memorabilia show to the mix.	Add a Star Trek convention and sports memorabilia show to the mix.	260912816	1478974076475	1478974076561	e	69
510605	5496946	Add a Star Trek convention and sports memorabilia show to the mix.	Add a Star Trek convention and sports memorabilia show to the mix.	260912819	1478974076819	1478974076872	m	77
510605	5496946	Add a Star Trek convention and sports memorabilia show to the mix.	Add a Star Trek convention and sports memorabilia show to the mix.	260912828	1478974077027	1478974077097	o	79
510605	5496946	Add a Star Trek convention and sports memorabilia show to the mix.	Add a Star Trek convention and sports memorabilia show to the mix.	260912829	1478974077113	1478974077225	r	82
510605	5496946	Add a Star Trek convention and sports memorabilia show to the mix.	Add a Star Trek convention and sports memorabilia show to the mix.	260912830	1478974077289	1478974077425	a	65
510605	5496946	Add a Star Trek convention and sports memorabilia show to the mix.	Add a Star Trek convention and sports memorabilia show to the mix.	260912831	1478974077546	1478974077666	b	66
510605	5496946	Add a Star Trek convention and sports memorabilia show to the mix.	Add a Star Trek convention and sports memorabilia show to the mix.	260912832	1478974077731	1478974077817	i	73
510605	5496946	Add a Star Trek convention and sports memorabilia show to the mix.	Add a Star Trek convention and sports memorabilia show to the mix.	260912845	1478974077933	1478974078009	l	76
510605	5496946	Add a Star Trek convention and sports memorabilia show to the mix.	Add a Star Trek convention and sports memorabilia show to the mix.	260912849	1478974078106	1478974078193	i	73
510605	5496946	Add a Star Trek convention and sports memorabilia show to the mix.	Add a Star Trek convention and sports memorabilia show to the mix.	260912853	1478974078216	1478974078305	a	65
510605	5496946	Add a Star Trek convention and sports memorabilia show to the mix.	Add a Star Trek convention and sports memorabilia show to the mix.	260912856	1478974078329	1478974078401	 	32
510605	5496946	Add a Star Trek convention and sports memorabilia show to the mix.	Add a Star Trek convention and sports memorabilia show to the mix.	260912857	1478974078587	1478974078673	s	83
510605	5496946	Add a Star Trek convention and sports memorabilia show to the mix.	Add a Star Trek convention and sports memorabilia show to the mix.	260912862	1478974078729	1478974078841	h	72
510605	5496946	Add a Star Trek convention and sports memorabilia show to the mix.	Add a Star Trek convention and sports memorabilia show to the mix.	260912863	1478974078819	1478974078897	o	79
510605	5496946	Add a Star Trek convention and sports memorabilia show to the mix.	Add a Star Trek convention and sports memorabilia show to the mix.	260912864	1478974079203	1478974079305	w	87
510605	5496946	Add a Star Trek convention and sports memorabilia show to the mix.	Add a Star Trek convention and sports memorabilia show to the mix.	260912865	1478974079330	1478974079393	 	32
510605	5496946	Add a Star Trek convention and sports memorabilia show to the mix.	Add a Star Trek convention and sports memorabilia show to the mix.	260912866	1478974079538	1478974079649	t	84
510605	5496946	Add a Star Trek convention and sports memorabilia show to the mix.	Add a Star Trek convention and sports memorabilia show to the mix.	260912878	1478974079578	1478974079673	o	79
510605	5496946	Add a Star Trek convention and sports memorabilia show to the mix.	Add a Star Trek convention and sports memorabilia show to the mix.	260912880	1478974079769	1478974079833	 	32
510605	5496946	Add a Star Trek convention and sports memorabilia show to the mix.	Add a Star Trek convention and sports memorabilia show to the mix.	260912882	1478974079889	1478974079968	t	84
510605	5496946	Add a Star Trek convention and sports memorabilia show to the mix.	Add a Star Trek convention and sports memorabilia show to the mix.	260912884	1478974079945	1478974080025	h	72
510605	5496946	Add a Star Trek convention and sports memorabilia show to the mix.	Add a Star Trek convention and sports memorabilia show to the mix.	260912885	1478974080074	1478974080177	e	69
510605	5496946	Add a Star Trek convention and sports memorabilia show to the mix.	Add a Star Trek convention and sports memorabilia show to the mix.	260912889	1478974080130	1478974080200	 	32
510605	5496946	Add a Star Trek convention and sports memorabilia show to the mix.	Add a Star Trek convention and sports memorabilia show to the mix.	260912890	1478974080273	1478974080337	m	77
510605	5496946	Add a Star Trek convention and sports memorabilia show to the mix.	Add a Star Trek convention and sports memorabilia show to the mix.	260912891	1478974080434	1478974080505	i	73
510605	5496946	Add a Star Trek convention and sports memorabilia show to the mix.	Add a Star Trek convention and sports memorabilia show to the mix.	260912892	1478974080531	1478974080633	x	88
