PARTICIPANT_ID	TEST_SECTION_ID	SENTENCE	USER_INPUT	KEYSTROKE_ID	PRESS_TIME	RELEASE_TIME	LETTER	KEYCODE
514332	5537157	Then we lit our candles and just stood there silently, holding them.	Then we lit our candles and just stood there silently, holding them.	262834645	1479057258355	1479057258830	SHIFT	16
514332	5537157	Then we lit our candles and just stood there silently, holding them.	Then we lit our candles and just stood there silently, holding them.	262834646	1479057258712	1479057258850	T	84
514332	5537157	Then we lit our candles and just stood there silently, holding them.	Then we lit our candles and just stood there silently, holding them.	262834647	1479057258893	1479057258994	h	72
514332	5537157	Then we lit our candles and just stood there silently, holding them.	Then we lit our candles and just stood there silently, holding them.	262834648	1479057259276	1479057259357	e	69
514332	5537157	Then we lit our candles and just stood there silently, holding them.	Then we lit our candles and just stood there silently, holding them.	262834649	1479057259387	1479057259484	n	78
514332	5537157	Then we lit our candles and just stood there silently, holding them.	Then we lit our candles and just stood there silently, holding them.	262834651	1479057259524	1479057259637	 	32
514332	5537157	Then we lit our candles and just stood there silently, holding them.	Then we lit our candles and just stood there silently, holding them.	262834671	1479057259669	1479057259740	w	87
514332	5537157	Then we lit our candles and just stood there silently, holding them.	Then we lit our candles and just stood there silently, holding them.	262834673	1479057259810	1479057259890	e	69
514332	5537157	Then we lit our candles and just stood there silently, holding them.	Then we lit our candles and just stood there silently, holding them.	262834676	1479057259910	1479057260053	 	32
514332	5537157	Then we lit our candles and just stood there silently, holding them.	Then we lit our candles and just stood there silently, holding them.	262834679	1479057260066	1479057260180	l	76
514332	5537157	Then we lit our candles and just stood there silently, holding them.	Then we lit our candles and just stood there silently, holding them.	262834682	1479057260261	1479057260340	i	73
514332	5537157	Then we lit our candles and just stood there silently, holding them.	Then we lit our candles and just stood there silently, holding them.	262834691	1479057260402	1479057260484	t	84
514332	5537157	Then we lit our candles and just stood there silently, holding them.	Then we lit our candles and just stood there silently, holding them.	262834693	1479057260504	1479057260660	 	32
514332	5537157	Then we lit our candles and just stood there silently, holding them.	Then we lit our candles and just stood there silently, holding them.	262834695	1479057260902	1479057260998	o	79
514332	5537157	Then we lit our candles and just stood there silently, holding them.	Then we lit our candles and just stood there silently, holding them.	262834697	1479057261158	1479057261240	u	85
514332	5537157	Then we lit our candles and just stood there silently, holding them.	Then we lit our candles and just stood there silently, holding them.	262834701	1479057261541	1479057261614	r	82
514332	5537157	Then we lit our candles and just stood there silently, holding them.	Then we lit our candles and just stood there silently, holding them.	262834711	1479057261676	1479057261777	 	32
514332	5537157	Then we lit our candles and just stood there silently, holding them.	Then we lit our candles and just stood there silently, holding them.	262834712	1479057261847	1479057261914	c	67
514332	5537157	Then we lit our candles and just stood there silently, holding them.	Then we lit our candles and just stood there silently, holding them.	262834713	1479057262286	1479057262384	a	65
514332	5537157	Then we lit our candles and just stood there silently, holding them.	Then we lit our candles and just stood there silently, holding them.	262834714	1479057262434	1479057262507	n	78
514332	5537157	Then we lit our candles and just stood there silently, holding them.	Then we lit our candles and just stood there silently, holding them.	262834715	1479057262597	1479057262694	d	68
514332	5537157	Then we lit our candles and just stood there silently, holding them.	Then we lit our candles and just stood there silently, holding them.	262834737	1479057262826	1479057262989	l	76
514332	5537157	Then we lit our candles and just stood there silently, holding them.	Then we lit our candles and just stood there silently, holding them.	262834739	1479057262957	1479057263060	e	69
514332	5537157	Then we lit our candles and just stood there silently, holding them.	Then we lit our candles and just stood there silently, holding them.	262834741	1479057263160	1479057263260	s	83
514332	5537157	Then we lit our candles and just stood there silently, holding them.	Then we lit our candles and just stood there silently, holding them.	262834743	1479057263300	1479057263413	 	32
514332	5537157	Then we lit our candles and just stood there silently, holding them.	Then we lit our candles and just stood there silently, holding them.	262834754	1479057263403	1479057263494	a	65
514332	5537157	Then we lit our candles and just stood there silently, holding them.	Then we lit our candles and just stood there silently, holding them.	262834757	1479057263554	1479057263670	n	78
514332	5537157	Then we lit our candles and just stood there silently, holding them.	Then we lit our candles and just stood there silently, holding them.	262834760	1479057263660	1479057263770	d	68
514332	5537157	Then we lit our candles and just stood there silently, holding them.	Then we lit our candles and just stood there silently, holding them.	262834765	1479057263790	1479057263884	 	32
514332	5537157	Then we lit our candles and just stood there silently, holding them.	Then we lit our candles and just stood there silently, holding them.	262834768	1479057264054	1479057264160	j	74
514332	5537157	Then we lit our candles and just stood there silently, holding them.	Then we lit our candles and just stood there silently, holding them.	262834771	1479057264220	1479057264317	u	85
514332	5537157	Then we lit our candles and just stood there silently, holding them.	Then we lit our candles and just stood there silently, holding them.	262834773	1479057264379	1479057264472	s	83
514332	5537157	Then we lit our candles and just stood there silently, holding them.	Then we lit our candles and just stood there silently, holding them.	262834774	1479057264492	1479057264594	t	84
514332	5537157	Then we lit our candles and just stood there silently, holding them.	Then we lit our candles and just stood there silently, holding them.	262834775	1479057264634	1479057264714	 	32
514332	5537157	Then we lit our candles and just stood there silently, holding them.	Then we lit our candles and just stood there silently, holding them.	262834776	1479057264724	1479057264837	s	83
514332	5537157	Then we lit our candles and just stood there silently, holding them.	Then we lit our candles and just stood there silently, holding them.	262834777	1479057264957	1479057265048	t	84
514332	5537157	Then we lit our candles and just stood there silently, holding them.	Then we lit our candles and just stood there silently, holding them.	262834805	1479057265113	1479057265170	o	79
514332	5537157	Then we lit our candles and just stood there silently, holding them.	Then we lit our candles and just stood there silently, holding them.	262834806	1479057265230	1479057265317	o	79
514332	5537157	Then we lit our candles and just stood there silently, holding them.	Then we lit our candles and just stood there silently, holding them.	262834808	1479057265447	1479057265530	 	32
514332	5537157	Then we lit our candles and just stood there silently, holding them.	Then we lit our candles and just stood there silently, holding them.	262834810	1479057265780	1479057265941	BKSP	8
514332	5537157	Then we lit our candles and just stood there silently, holding them.	Then we lit our candles and just stood there silently, holding them.	262834812	1479057265917	1479057266017	d	68
514332	5537157	Then we lit our candles and just stood there silently, holding them.	Then we lit our candles and just stood there silently, holding them.	262834816	1479057266037	1479057266157	 	32
514332	5537157	Then we lit our candles and just stood there silently, holding them.	Then we lit our candles and just stood there silently, holding them.	262834826	1479057266134	1479057266234	t	84
514332	5537157	Then we lit our candles and just stood there silently, holding them.	Then we lit our candles and just stood there silently, holding them.	262834827	1479057266274	1479057266357	h	72
514332	5537157	Then we lit our candles and just stood there silently, holding them.	Then we lit our candles and just stood there silently, holding them.	262834828	1479057266437	1479057266527	e	69
514332	5537157	Then we lit our candles and just stood there silently, holding them.	Then we lit our candles and just stood there silently, holding them.	262834829	1479057266637	1479057266717	r	82
514332	5537157	Then we lit our candles and just stood there silently, holding them.	Then we lit our candles and just stood there silently, holding them.	262834830	1479057266817	1479057266897	e	69
514332	5537157	Then we lit our candles and just stood there silently, holding them.	Then we lit our candles and just stood there silently, holding them.	262834831	1479057266917	1479057267020	 	32
514332	5537157	Then we lit our candles and just stood there silently, holding them.	Then we lit our candles and just stood there silently, holding them.	262834853	1479057267142	1479057267223	s	83
514332	5537157	Then we lit our candles and just stood there silently, holding them.	Then we lit our candles and just stood there silently, holding them.	262834854	1479057267504	1479057267583	i	73
514332	5537157	Then we lit our candles and just stood there silently, holding them.	Then we lit our candles and just stood there silently, holding them.	262834855	1479057267693	1479057267788	l	76
514332	5537157	Then we lit our candles and just stood there silently, holding them.	Then we lit our candles and just stood there silently, holding them.	262834856	1479057267828	1479057267907	e	69
514332	5537157	Then we lit our candles and just stood there silently, holding them.	Then we lit our candles and just stood there silently, holding them.	262834857	1479057267947	1479057268053	n	78
514332	5537157	Then we lit our candles and just stood there silently, holding them.	Then we lit our candles and just stood there silently, holding them.	262834901	1479057268063	1479057268147	t	84
514332	5537157	Then we lit our candles and just stood there silently, holding them.	Then we lit our candles and just stood there silently, holding them.	262834902	1479057269000	1479057269060	y	89
514332	5537157	Then we lit our candles and just stood there silently, holding them.	Then we lit our candles and just stood there silently, holding them.	262834903	1479057269440	1479057269533	BKSP	8
514332	5537157	Then we lit our candles and just stood there silently, holding them.	Then we lit our candles and just stood there silently, holding them.	262834904	1479057269813	1479057269900	l	76
514332	5537157	Then we lit our candles and just stood there silently, holding them.	Then we lit our candles and just stood there silently, holding them.	262834905	1479057270009	1479057270090	y	89
514332	5537157	Then we lit our candles and just stood there silently, holding them.	Then we lit our candles and just stood there silently, holding them.	262834906	1479057270270	1479057270337	,	188
514332	5537157	Then we lit our candles and just stood there silently, holding them.	Then we lit our candles and just stood there silently, holding them.	262834918	1479057270408	1479057270509	 	32
514332	5537157	Then we lit our candles and just stood there silently, holding them.	Then we lit our candles and just stood there silently, holding them.	262834919	1479057270460	1479057270567	a	65
514332	5537157	Then we lit our candles and just stood there silently, holding them.	Then we lit our candles and just stood there silently, holding them.	262834920	1479057270617	1479057270697	n	78
514332	5537157	Then we lit our candles and just stood there silently, holding them.	Then we lit our candles and just stood there silently, holding them.	262834921	1479057270717	1479057270790	d	68
514332	5537157	Then we lit our candles and just stood there silently, holding them.	Then we lit our candles and just stood there silently, holding them.	262834922	1479057270830	1479057270933	 	32
514332	5537157	Then we lit our candles and just stood there silently, holding them.	Then we lit our candles and just stood there silently, holding them.	262834930	1479057271003	1479057271080	s	83
514332	5537157	Then we lit our candles and just stood there silently, holding them.	Then we lit our candles and just stood there silently, holding them.	262834932	1479057271130	1479057271207	t	84
514332	5537157	Then we lit our candles and just stood there silently, holding them.	Then we lit our candles and just stood there silently, holding them.	262834936	1479057271467	1479057271547	o	79
514332	5537157	Then we lit our candles and just stood there silently, holding them.	Then we lit our candles and just stood there silently, holding them.	262834938	1479057271607	1479057271690	o	79
514332	5537157	Then we lit our candles and just stood there silently, holding them.	Then we lit our candles and just stood there silently, holding them.	262834941	1479057271750	1479057271853	d	68
514332	5537157	Then we lit our candles and just stood there silently, holding them.	Then we lit our candles and just stood there silently, holding them.	262834968	1479057271823	1479057271927	 	32
514332	5537157	Then we lit our candles and just stood there silently, holding them.	Then we lit our candles and just stood there silently, holding them.	262834969	1479057271967	1479057272067	t	84
514332	5537157	Then we lit our candles and just stood there silently, holding them.	Then we lit our candles and just stood there silently, holding them.	262834970	1479057272087	1479057272168	h	72
514332	5537157	Then we lit our candles and just stood there silently, holding them.	Then we lit our candles and just stood there silently, holding them.	262834971	1479057272188	1479057272263	e	69
514332	5537157	Then we lit our candles and just stood there silently, holding them.	Then we lit our candles and just stood there silently, holding them.	262834972	1479057272613	1479057272757	BKSP	8
514332	5537157	Then we lit our candles and just stood there silently, holding them.	Then we lit our candles and just stood there silently, holding them.	262834974	1479057273683	1479057273765	e	69
514332	5537157	Then we lit our candles and just stood there silently, holding them.	Then we lit our candles and just stood there silently, holding them.	262835063	1479057273725	1479057273796	m	77
514332	5537157	Then we lit our candles and just stood there silently, holding them.	Then we lit our candles and just stood there silently, holding them.	262835064	1479057274592	1479057274673	.	190
514332	5537157	Then we lit our candles and just stood there silently, holding them.	Then we lit our candles and just stood there silently, holding them.	262835065	1479057278158	1479057278236	BKSP	8
514332	5537157	Then we lit our candles and just stood there silently, holding them.	Then we lit our candles and just stood there silently, holding them.	262835066	1479057278316	1479057278380	BKSP	8
514332	5537157	Then we lit our candles and just stood there silently, holding them.	Then we lit our candles and just stood there silently, holding them.	262835067	1479057279373	1479057279493	h	72
514332	5537157	Then we lit our candles and just stood there silently, holding them.	Then we lit our candles and just stood there silently, holding them.	262835068	1479057279466	1479057279560	o	79
514332	5537157	Then we lit our candles and just stood there silently, holding them.	Then we lit our candles and just stood there silently, holding them.	262835069	1479057279630	1479057279733	l	76
514332	5537157	Then we lit our candles and just stood there silently, holding them.	Then we lit our candles and just stood there silently, holding them.	262835070	1479057279783	1479057279883	d	68
514332	5537157	Then we lit our candles and just stood there silently, holding them.	Then we lit our candles and just stood there silently, holding them.	262835139	1479057279905	1479057280030	i	73
514332	5537157	Then we lit our candles and just stood there silently, holding them.	Then we lit our candles and just stood there silently, holding them.	262835140	1479057280102	1479057280210	n	78
514332	5537157	Then we lit our candles and just stood there silently, holding them.	Then we lit our candles and just stood there silently, holding them.	262835142	1479057280220	1479057280333	g	71
514332	5537157	Then we lit our candles and just stood there silently, holding them.	Then we lit our candles and just stood there silently, holding them.	262835147	1479057280306	1479057280349	 	32
514332	5537157	Then we lit our candles and just stood there silently, holding them.	Then we lit our candles and just stood there silently, holding them.	262835150	1479057281133	1479057281203	BKSP	8
514332	5537157	Then we lit our candles and just stood there silently, holding them.	Then we lit our candles and just stood there silently, holding them.	262835154	1479057282176	1479057282293	ARW_RIGHT	39
514332	5537157	Then we lit our candles and just stood there silently, holding them.	Then we lit our candles and just stood there silently, holding them.	262835156	1479057282911	1479057282981	BKSP	8
514332	5537157	Then we lit our candles and just stood there silently, holding them.	Then we lit our candles and just stood there silently, holding them.	262835157	1479057283584	1479057283654	 	32
514332	5537157	Then we lit our candles and just stood there silently, holding them.	Then we lit our candles and just stood there silently, holding them.	262835177	1479057283725	1479057283797	ARW_LEFT	37
514332	5537157	Then we lit our candles and just stood there silently, holding them.	Then we lit our candles and just stood there silently, holding them.	262835180	1479057283877	1479057283957	ARW_LEFT	37
514332	5537157	Then we lit our candles and just stood there silently, holding them.	Then we lit our candles and just stood there silently, holding them.	262835182	1479057284027	1479057284107	ARW_LEFT	37
514332	5537157	Then we lit our candles and just stood there silently, holding them.	Then we lit our candles and just stood there silently, holding them.	262835184	1479057284167	1479057284247	ARW_LEFT	37
514332	5537157	Then we lit our candles and just stood there silently, holding them.	Then we lit our candles and just stood there silently, holding them.	262835185	1479057284317	1479057284391	ARW_LEFT	37
514332	5537157	Then we lit our candles and just stood there silently, holding them.	Then we lit our candles and just stood there silently, holding them.	262835186	1479057284461	1479057284551	ARW_LEFT	37
514332	5537157	Then we lit our candles and just stood there silently, holding them.	Then we lit our candles and just stood there silently, holding them.	262835187	1479057284612	1479057284691	ARW_LEFT	37
514332	5537157	Then we lit our candles and just stood there silently, holding them.	Then we lit our candles and just stood there silently, holding them.	262835188	1479057284911	1479057285001	ARW_LEFT	37
514332	5537157	Then we lit our candles and just stood there silently, holding them.	Then we lit our candles and just stood there silently, holding them.	262835189	1479057285191	1479057285261	 	32
514332	5537170	And if he's not, then he doesn't play.	And if he's not, then he doesn't play.	262835228	1479057288800	1479057289094	SHIFT	16
514332	5537170	And if he's not, then he doesn't play.	And if he's not, then he doesn't play.	262835229	1479057289034	1479057289174	A	65
514332	5537170	And if he's not, then he doesn't play.	And if he's not, then he doesn't play.	262835230	1479057289194	1479057289270	n	78
514332	5537170	And if he's not, then he doesn't play.	And if he's not, then he doesn't play.	262835231	1479057289300	1479057289394	d	68
514332	5537170	And if he's not, then he doesn't play.	And if he's not, then he doesn't play.	262835232	1479057289414	1479057289527	 	32
514332	5537170	And if he's not, then he doesn't play.	And if he's not, then he doesn't play.	262835233	1479057289557	1479057289650	i	73
514332	5537170	And if he's not, then he doesn't play.	And if he's not, then he doesn't play.	262835252	1479057289792	1479057289864	f	70
514332	5537170	And if he's not, then he doesn't play.	And if he's not, then he doesn't play.	262835254	1479057290887	1479057290974	 	32
514332	5537170	And if he's not, then he doesn't play.	And if he's not, then he doesn't play.	262835256	1479057291104	1479057291210	h	72
514332	5537170	And if he's not, then he doesn't play.	And if he's not, then he doesn't play.	262835258	1479057291260	1479057291340	e	69
514332	5537170	And if he's not, then he doesn't play.	And if he's not, then he doesn't play.	262835261	1479057291791	1479057291874	'	222
514332	5537170	And if he's not, then he doesn't play.	And if he's not, then he doesn't play.	262835266	1479057291954	1479057292060	s	83
514332	5537170	And if he's not, then he doesn't play.	And if he's not, then he doesn't play.	262835267	1479057292150	1479057292280	 	32
514332	5537170	And if he's not, then he doesn't play.	And if he's not, then he doesn't play.	262835268	1479057292501	1479057292610	n	78
514332	5537170	And if he's not, then he doesn't play.	And if he's not, then he doesn't play.	262835269	1479057292710	1479057292830	o	79
514332	5537170	And if he's not, then he doesn't play.	And if he's not, then he doesn't play.	262835270	1479057293040	1479057293124	t	84
514332	5537170	And if he's not, then he doesn't play.	And if he's not, then he doesn't play.	262835303	1479057293917	1479057294009	,	188
514332	5537170	And if he's not, then he doesn't play.	And if he's not, then he doesn't play.	262835304	1479057294079	1479057294196	 	32
514332	5537170	And if he's not, then he doesn't play.	And if he's not, then he doesn't play.	262835305	1479057294186	1479057294263	t	84
514332	5537170	And if he's not, then he doesn't play.	And if he's not, then he doesn't play.	262835306	1479057294303	1479057294389	h	72
514332	5537170	And if he's not, then he doesn't play.	And if he's not, then he doesn't play.	262835307	1479057294399	1479057294509	e	69
514332	5537170	And if he's not, then he doesn't play.	And if he's not, then he doesn't play.	262835324	1479057294519	1479057294616	n	78
514332	5537170	And if he's not, then he doesn't play.	And if he's not, then he doesn't play.	262835325	1479057294666	1479057294789	 	32
514332	5537170	And if he's not, then he doesn't play.	And if he's not, then he doesn't play.	262835326	1479057294809	1479057294929	h	72
514332	5537170	And if he's not, then he doesn't play.	And if he's not, then he doesn't play.	262835327	1479057294969	1479057295076	e	69
514332	5537170	And if he's not, then he doesn't play.	And if he's not, then he doesn't play.	262835328	1479057295404	1479057295519	 	32
514332	5537170	And if he's not, then he doesn't play.	And if he's not, then he doesn't play.	262835334	1479057295701	1479057295789	d	68
514332	5537170	And if he's not, then he doesn't play.	And if he's not, then he doesn't play.	262835336	1479057295889	1479057296004	o	79
514332	5537170	And if he's not, then he doesn't play.	And if he's not, then he doesn't play.	262835338	1479057295963	1479057296069	e	69
514332	5537170	And if he's not, then he doesn't play.	And if he's not, then he doesn't play.	262835340	1479057296169	1479057296246	s	83
514332	5537170	And if he's not, then he doesn't play.	And if he's not, then he doesn't play.	262835342	1479057296296	1479057296373	n	78
514332	5537170	And if he's not, then he doesn't play.	And if he's not, then he doesn't play.	262835371	1479057297176	1479057297236	'	222
514332	5537170	And if he's not, then he doesn't play.	And if he's not, then he doesn't play.	262835373	1479057297426	1479057297513	 	32
514332	5537170	And if he's not, then he doesn't play.	And if he's not, then he doesn't play.	262835375	1479057297814	1479057297976	BKSP	8
514332	5537170	And if he's not, then he doesn't play.	And if he's not, then he doesn't play.	262835377	1479057298026	1479057298106	t	84
514332	5537170	And if he's not, then he doesn't play.	And if he's not, then he doesn't play.	262835379	1479057298126	1479057298236	 	32
514332	5537170	And if he's not, then he doesn't play.	And if he's not, then he doesn't play.	262835381	1479057298566	1479057298676	p	80
514332	5537170	And if he's not, then he doesn't play.	And if he's not, then he doesn't play.	262835402	1479057298758	1479057298829	l	76
514332	5537170	And if he's not, then he doesn't play.	And if he's not, then he doesn't play.	262835406	1479057298869	1479057298976	a	65
514332	5537170	And if he's not, then he doesn't play.	And if he's not, then he doesn't play.	262835410	1479057298996	1479057299072	y	89
514332	5537170	And if he's not, then he doesn't play.	And if he's not, then he doesn't play.	262835413	1479057299534	1479057299629	.	190
514332	5537173	The loans were allegedly made to players.	the loans were allegedly made to players.	262835457	1479057303302	1479057303602	SHIFT	16
514332	5537173	The loans were allegedly made to players.	the loans were allegedly made to players.	262835458	1479057303612	1479057303756	t	84
514332	5537173	The loans were allegedly made to players.	the loans were allegedly made to players.	262835459	1479057303806	1479057303909	h	72
514332	5537173	The loans were allegedly made to players.	the loans were allegedly made to players.	262835460	1479057304029	1479057304116	e	69
514332	5537173	The loans were allegedly made to players.	the loans were allegedly made to players.	262835461	1479057304166	1479057304286	 	32
514332	5537173	The loans were allegedly made to players.	the loans were allegedly made to players.	262835462	1479057304346	1479057304452	l	76
514332	5537173	The loans were allegedly made to players.	the loans were allegedly made to players.	262835469	1479057304534	1479057304612	o	79
514332	5537173	The loans were allegedly made to players.	the loans were allegedly made to players.	262835471	1479057304652	1479057304739	a	65
514332	5537173	The loans were allegedly made to players.	the loans were allegedly made to players.	262835473	1479057304749	1479057304859	n	78
514332	5537173	The loans were allegedly made to players.	the loans were allegedly made to players.	262835475	1479057304869	1479057304956	s	83
514332	5537173	The loans were allegedly made to players.	the loans were allegedly made to players.	262835477	1479057304966	1479057305086	 	32
514332	5537173	The loans were allegedly made to players.	the loans were allegedly made to players.	262835491	1479057305108	1479057305169	w	87
514332	5537173	The loans were allegedly made to players.	the loans were allegedly made to players.	262835493	1479057305269	1479057305356	e	69
514332	5537173	The loans were allegedly made to players.	the loans were allegedly made to players.	262835495	1479057305446	1479057305531	r	82
514332	5537173	The loans were allegedly made to players.	the loans were allegedly made to players.	262835497	1479057305621	1479057305706	e	69
514332	5537173	The loans were allegedly made to players.	the loans were allegedly made to players.	262835498	1479057305756	1479057305849	 	32
514332	5537173	The loans were allegedly made to players.	the loans were allegedly made to players.	262835516	1479057305891	1479057305972	a	65
514332	5537173	The loans were allegedly made to players.	the loans were allegedly made to players.	262835518	1479057306072	1479057306156	l	76
514332	5537173	The loans were allegedly made to players.	the loans were allegedly made to players.	262835520	1479057306207	1479057306289	l	76
514332	5537173	The loans were allegedly made to players.	the loans were allegedly made to players.	262835522	1479057306409	1479057306489	e	69
514332	5537173	The loans were allegedly made to players.	the loans were allegedly made to players.	262835524	1479057307002	1479057307079	d	68
514332	5537173	The loans were allegedly made to players.	the loans were allegedly made to players.	262835588	1479057307181	1479057307282	e	69
514332	5537173	The loans were allegedly made to players.	the loans were allegedly made to players.	262835589	1479057308539	1479057308602	BKSP	8
514332	5537173	The loans were allegedly made to players.	the loans were allegedly made to players.	262835591	1479057308782	1479057308892	BKSP	8
514332	5537173	The loans were allegedly made to players.	the loans were allegedly made to players.	262835593	1479057309575	1479057309656	g	71
514332	5537173	The loans were allegedly made to players.	the loans were allegedly made to players.	262835595	1479057309786	1479057309892	e	69
514332	5537173	The loans were allegedly made to players.	the loans were allegedly made to players.	262835597	1479057310012	1479057310115	d	68
514332	5537173	The loans were allegedly made to players.	the loans were allegedly made to players.	262835599	1479057310245	1479057310369	l	76
514332	5537173	The loans were allegedly made to players.	the loans were allegedly made to players.	262835610	1479057310409	1479057310499	e	69
514332	5537173	The loans were allegedly made to players.	the loans were allegedly made to players.	262835611	1479057310581	1479057310725	y	89
514332	5537173	The loans were allegedly made to players.	the loans were allegedly made to players.	262835612	1479057310735	1479057310859	 	32
514332	5537173	The loans were allegedly made to players.	the loans were allegedly made to players.	262835615	1479057311725	1479057311805	m	77
514332	5537173	The loans were allegedly made to players.	the loans were allegedly made to players.	262835618	1479057311815	1479057311885	a	65
514332	5537173	The loans were allegedly made to players.	the loans were allegedly made to players.	262835627	1479057311997	1479057312072	d	68
514332	5537173	The loans were allegedly made to players.	the loans were allegedly made to players.	262835628	1479057312162	1479057312239	e	69
514332	5537173	The loans were allegedly made to players.	the loans were allegedly made to players.	262835630	1479057312269	1479057312415	 	32
514332	5537173	The loans were allegedly made to players.	the loans were allegedly made to players.	262835632	1479057312405	1479057312525	t	84
514332	5537173	The loans were allegedly made to players.	the loans were allegedly made to players.	262835645	1479057312499	1479057312619	o	79
514332	5537173	The loans were allegedly made to players.	the loans were allegedly made to players.	262835646	1479057312659	1479057312844	 	32
514332	5537173	The loans were allegedly made to players.	the loans were allegedly made to players.	262835648	1479057312815	1479057312965	p	80
514332	5537173	The loans were allegedly made to players.	the loans were allegedly made to players.	262835650	1479057313025	1479057313145	l	76
514332	5537173	The loans were allegedly made to players.	the loans were allegedly made to players.	262835652	1479057313195	1479057313312	a	65
514332	5537173	The loans were allegedly made to players.	the loans were allegedly made to players.	262835654	1479057313332	1479057313452	y	89
514332	5537173	The loans were allegedly made to players.	the loans were allegedly made to players.	262835728	1479057313474	1479057313555	e	69
514332	5537173	The loans were allegedly made to players.	the loans were allegedly made to players.	262835730	1479057313635	1479057313692	r	82
514332	5537173	The loans were allegedly made to players.	the loans were allegedly made to players.	262835732	1479057313852	1479057313949	s	83
514332	5537173	The loans were allegedly made to players.	the loans were allegedly made to players.	262835734	1479057313969	1479057314052	.	190
514332	5537173	The loans were allegedly made to players.	the loans were allegedly made to players.	262835736	1479057316469	1479057316525	BKSP	8
514332	5537181	Liverpool always had a knack of bringing people down to earth.	Liverpool always had a knack of bringing people down to earth.	262835913	1479057324205	1479057324515	SHIFT	16
514332	5537181	Liverpool always had a knack of bringing people down to earth.	Liverpool always had a knack of bringing people down to earth.	262835911	1479057324315	1479057324425	L	76
514332	5537181	Liverpool always had a knack of bringing people down to earth.	Liverpool always had a knack of bringing people down to earth.	262835915	1479057324575	1479057324655	i	73
514332	5537181	Liverpool always had a knack of bringing people down to earth.	Liverpool always had a knack of bringing people down to earth.	262835918	1479057324828	1479057324912	v	86
514332	5537181	Liverpool always had a knack of bringing people down to earth.	Liverpool always had a knack of bringing people down to earth.	262835921	1479057324932	1479057325032	e	69
514332	5537181	Liverpool always had a knack of bringing people down to earth.	Liverpool always had a knack of bringing people down to earth.	262835922	1479057325122	1479057325195	r	82
514332	5537181	Liverpool always had a knack of bringing people down to earth.	Liverpool always had a knack of bringing people down to earth.	262835975	1479057325306	1479057325409	e	69
514332	5537181	Liverpool always had a knack of bringing people down to earth.	Liverpool always had a knack of bringing people down to earth.	262835976	1479057326292	1479057326382	BKSP	8
514332	5537181	Liverpool always had a knack of bringing people down to earth.	Liverpool always had a knack of bringing people down to earth.	262835977	1479057327195	1479057327272	p	80
514332	5537181	Liverpool always had a knack of bringing people down to earth.	Liverpool always had a knack of bringing people down to earth.	262835978	1479057327386	1479057327462	o	79
514332	5537181	Liverpool always had a knack of bringing people down to earth.	Liverpool always had a knack of bringing people down to earth.	262835979	1479057327522	1479057327595	o	79
514332	5537181	Liverpool always had a knack of bringing people down to earth.	Liverpool always had a knack of bringing people down to earth.	262835980	1479057327685	1479057327782	l	76
514332	5537181	Liverpool always had a knack of bringing people down to earth.	Liverpool always had a knack of bringing people down to earth.	262835991	1479057327844	1479057327968	 	32
514332	5537181	Liverpool always had a knack of bringing people down to earth.	Liverpool always had a knack of bringing people down to earth.	262835994	1479057328068	1479057328188	a	65
514332	5537181	Liverpool always had a knack of bringing people down to earth.	Liverpool always had a knack of bringing people down to earth.	262835997	1479057328158	1479057328268	l	76
514332	5537181	Liverpool always had a knack of bringing people down to earth.	Liverpool always had a knack of bringing people down to earth.	262835999	1479057328328	1479057328405	w	87
514332	5537181	Liverpool always had a knack of bringing people down to earth.	Liverpool always had a knack of bringing people down to earth.	262836000	1479057328515	1479057328595	a	65
514332	5537181	Liverpool always had a knack of bringing people down to earth.	Liverpool always had a knack of bringing people down to earth.	262836012	1479057328626	1479057328715	y	89
514332	5537181	Liverpool always had a knack of bringing people down to earth.	Liverpool always had a knack of bringing people down to earth.	262836013	1479057328745	1479057328822	s	83
514332	5537181	Liverpool always had a knack of bringing people down to earth.	Liverpool always had a knack of bringing people down to earth.	262836014	1479057328842	1479057329042	 	32
514332	5537181	Liverpool always had a knack of bringing people down to earth.	Liverpool always had a knack of bringing people down to earth.	262836015	1479057329082	1479057329201	h	72
514332	5537181	Liverpool always had a knack of bringing people down to earth.	Liverpool always had a knack of bringing people down to earth.	262836016	1479057329241	1479057329321	a	65
514332	5537181	Liverpool always had a knack of bringing people down to earth.	Liverpool always had a knack of bringing people down to earth.	262836027	1479057329443	1479057329561	d	68
514332	5537181	Liverpool always had a knack of bringing people down to earth.	Liverpool always had a knack of bringing people down to earth.	262836028	1479057329581	1479057329695	 	32
514332	5537181	Liverpool always had a knack of bringing people down to earth.	Liverpool always had a knack of bringing people down to earth.	262836029	1479057329925	1479057330025	a	65
514332	5537181	Liverpool always had a knack of bringing people down to earth.	Liverpool always had a knack of bringing people down to earth.	262836030	1479057330045	1479057330229	 	32
514332	5537181	Liverpool always had a knack of bringing people down to earth.	Liverpool always had a knack of bringing people down to earth.	262836049	1479057330189	1479057330302	k	75
514332	5537181	Liverpool always had a knack of bringing people down to earth.	Liverpool always had a knack of bringing people down to earth.	262836051	1479057330412	1479057330507	n	78
514332	5537181	Liverpool always had a knack of bringing people down to earth.	Liverpool always had a knack of bringing people down to earth.	262836053	1479057330487	1479057330611	a	65
514332	5537181	Liverpool always had a knack of bringing people down to earth.	Liverpool always had a knack of bringing people down to earth.	262836055	1479057330771	1479057330865	c	67
514332	5537181	Liverpool always had a knack of bringing people down to earth.	Liverpool always had a knack of bringing people down to earth.	262836057	1479057330885	1479057331011	k	75
514332	5537181	Liverpool always had a knack of bringing people down to earth.	Liverpool always had a knack of bringing people down to earth.	262836059	1479057331021	1479057331185	 	32
514332	5537181	Liverpool always had a knack of bringing people down to earth.	Liverpool always had a knack of bringing people down to earth.	262836080	1479057331491	1479057331588	o	79
514332	5537181	Liverpool always had a knack of bringing people down to earth.	Liverpool always had a knack of bringing people down to earth.	262836081	1479057331638	1479057331782	f	70
514332	5537181	Liverpool always had a knack of bringing people down to earth.	Liverpool always had a knack of bringing people down to earth.	262836082	1479057331761	1479057331878	 	32
514332	5537181	Liverpool always had a knack of bringing people down to earth.	Liverpool always had a knack of bringing people down to earth.	262836083	1479057331928	1479057332025	b	66
514332	5537181	Liverpool always had a knack of bringing people down to earth.	Liverpool always had a knack of bringing people down to earth.	262836084	1479057332115	1479057332208	r	82
514332	5537181	Liverpool always had a knack of bringing people down to earth.	Liverpool always had a knack of bringing people down to earth.	262836098	1479057332260	1479057332358	i	73
514332	5537181	Liverpool always had a knack of bringing people down to earth.	Liverpool always had a knack of bringing people down to earth.	262836099	1479057332458	1479057332568	n	78
514332	5537181	Liverpool always had a knack of bringing people down to earth.	Liverpool always had a knack of bringing people down to earth.	262836100	1479057332588	1479057332716	g	71
514332	5537181	Liverpool always had a knack of bringing people down to earth.	Liverpool always had a knack of bringing people down to earth.	262836101	1479057332691	1479057332811	i	73
514332	5537181	Liverpool always had a knack of bringing people down to earth.	Liverpool always had a knack of bringing people down to earth.	262836102	1479057332831	1479057332951	n	78
514332	5537181	Liverpool always had a knack of bringing people down to earth.	Liverpool always had a knack of bringing people down to earth.	262836131	1479057333003	1479057333068	g	71
514332	5537181	Liverpool always had a knack of bringing people down to earth.	Liverpool always had a knack of bringing people down to earth.	262836132	1479057333118	1479057333185	 	32
514332	5537181	Liverpool always had a knack of bringing people down to earth.	Liverpool always had a knack of bringing people down to earth.	262836134	1479057333425	1479057333495	BKSP	8
514332	5537181	Liverpool always had a knack of bringing people down to earth.	Liverpool always had a knack of bringing people down to earth.	262836136	1479057333975	1479057334157	 	32
514332	5537181	Liverpool always had a knack of bringing people down to earth.	Liverpool always had a knack of bringing people down to earth.	262836140	1479057334111	1479057334228	p	80
514332	5537181	Liverpool always had a knack of bringing people down to earth.	Liverpool always had a knack of bringing people down to earth.	262836146	1479057334258	1479057334368	e	69
514332	5537181	Liverpool always had a knack of bringing people down to earth.	Liverpool always had a knack of bringing people down to earth.	262836169	1479057334348	1479057334448	o	79
514332	5537181	Liverpool always had a knack of bringing people down to earth.	Liverpool always had a knack of bringing people down to earth.	262836171	1479057334540	1479057334621	p	80
514332	5537181	Liverpool always had a knack of bringing people down to earth.	Liverpool always had a knack of bringing people down to earth.	262836173	1479057334701	1479057334778	l	76
514332	5537181	Liverpool always had a knack of bringing people down to earth.	Liverpool always had a knack of bringing people down to earth.	262836175	1479057334828	1479057334915	e	69
514332	5537181	Liverpool always had a knack of bringing people down to earth.	Liverpool always had a knack of bringing people down to earth.	262836176	1479057334935	1479057335021	 	32
514332	5537181	Liverpool always had a knack of bringing people down to earth.	Liverpool always had a knack of bringing people down to earth.	262836177	1479057335211	1479057335308	d	68
514332	5537181	Liverpool always had a knack of bringing people down to earth.	Liverpool always had a knack of bringing people down to earth.	262836193	1479057335328	1479057335421	o	79
514332	5537181	Liverpool always had a knack of bringing people down to earth.	Liverpool always had a knack of bringing people down to earth.	262836195	1479057335451	1479057335588	w	87
514332	5537181	Liverpool always had a knack of bringing people down to earth.	Liverpool always had a knack of bringing people down to earth.	262836196	1479057335608	1479057335688	n	78
514332	5537181	Liverpool always had a knack of bringing people down to earth.	Liverpool always had a knack of bringing people down to earth.	262836197	1479057335738	1479057335881	 	32
514332	5537181	Liverpool always had a knack of bringing people down to earth.	Liverpool always had a knack of bringing people down to earth.	262836198	1479057336101	1479057336188	t	84
514332	5537181	Liverpool always had a knack of bringing people down to earth.	Liverpool always had a knack of bringing people down to earth.	262836222	1479057336622	1479057336725	BKSP	8
514332	5537181	Liverpool always had a knack of bringing people down to earth.	Liverpool always had a knack of bringing people down to earth.	262836223	1479057336825	1479057336933	t	84
514332	5537181	Liverpool always had a knack of bringing people down to earth.	Liverpool always had a knack of bringing people down to earth.	262836224	1479057336905	1479057337028	o	79
514332	5537181	Liverpool always had a knack of bringing people down to earth.	Liverpool always had a knack of bringing people down to earth.	262836225	1479057337048	1479057337188	 	32
514332	5537181	Liverpool always had a knack of bringing people down to earth.	Liverpool always had a knack of bringing people down to earth.	262836226	1479057337198	1479057337308	e	69
514332	5537181	Liverpool always had a knack of bringing people down to earth.	Liverpool always had a knack of bringing people down to earth.	262836227	1479057337428	1479057337511	a	65
514332	5537181	Liverpool always had a knack of bringing people down to earth.	Liverpool always had a knack of bringing people down to earth.	262836261	1479057337533	1479057337611	r	82
514332	5537181	Liverpool always had a knack of bringing people down to earth.	Liverpool always had a knack of bringing people down to earth.	262836266	1479057337691	1479057337804	t	84
514332	5537181	Liverpool always had a knack of bringing people down to earth.	Liverpool always had a knack of bringing people down to earth.	262836270	1479057337964	1479057338079	h	72
514332	5537181	Liverpool always had a knack of bringing people down to earth.	Liverpool always had a knack of bringing people down to earth.	262836274	1479057338731	1479057338811	.	190
514332	5537194	We are in the process of making a change.	We are in the process of making a change.	262836375	1479057342118	1479057342396	SHIFT	16
514332	5537194	We are in the process of making a change.	We are in the process of making a change.	262836379	1479057342331	1479057342458	W	87
514332	5537194	We are in the process of making a change.	We are in the process of making a change.	262836383	1479057342538	1479057342621	e	69
514332	5537194	We are in the process of making a change.	We are in the process of making a change.	262836387	1479057342641	1479057342761	 	32
514332	5537194	We are in the process of making a change.	We are in the process of making a change.	262836389	1479057342781	1479057342854	a	65
514332	5537194	We are in the process of making a change.	We are in the process of making a change.	262836391	1479057342874	1479057342954	r	82
514332	5537194	We are in the process of making a change.	We are in the process of making a change.	262836402	1479057342974	1479057343074	e	69
514332	5537194	We are in the process of making a change.	We are in the process of making a change.	262836404	1479057343094	1479057343228	 	32
514332	5537194	We are in the process of making a change.	We are in the process of making a change.	262836407	1479057343248	1479057343364	i	73
514332	5537194	We are in the process of making a change.	We are in the process of making a change.	262836410	1479057343494	1479057343556	n	78
514332	5537194	We are in the process of making a change.	We are in the process of making a change.	262836412	1479057343628	1479057343724	 	32
514332	5537194	We are in the process of making a change.	We are in the process of making a change.	262836415	1479057343734	1479057343821	t	84
514332	5537194	We are in the process of making a change.	We are in the process of making a change.	262836417	1479057343841	1479057343931	h	72
514332	5537194	We are in the process of making a change.	We are in the process of making a change.	262836419	1479057343961	1479057344059	e	69
514332	5537194	We are in the process of making a change.	We are in the process of making a change.	262836422	1479057344079	1479057344221	 	32
514332	5537194	We are in the process of making a change.	We are in the process of making a change.	262836425	1479057344231	1479057344341	p	80
514332	5537194	We are in the process of making a change.	We are in the process of making a change.	262836445	1479057344433	1479057344531	r	82
514332	5537194	We are in the process of making a change.	We are in the process of making a change.	262836447	1479057344611	1479057344688	e	69
514332	5537194	We are in the process of making a change.	We are in the process of making a change.	262836449	1479057344940	1479057345061	BKSP	8
514332	5537194	We are in the process of making a change.	We are in the process of making a change.	262836451	1479057345141	1479057345241	o	79
514332	5537194	We are in the process of making a change.	We are in the process of making a change.	262836453	1479057345281	1479057345361	c	67
514332	5537194	We are in the process of making a change.	We are in the process of making a change.	262836454	1479057345605	1479057345688	e	69
514332	5537194	We are in the process of making a change.	We are in the process of making a change.	262836455	1479057345820	1479057345904	s	83
514332	5537194	We are in the process of making a change.	We are in the process of making a change.	262836456	1479057345994	1479057346091	s	83
514332	5537194	We are in the process of making a change.	We are in the process of making a change.	262836457	1479057346131	1479057346244	 	32
514332	5537194	We are in the process of making a change.	We are in the process of making a change.	262836458	1479057346304	1479057346412	o	79
514332	5537194	We are in the process of making a change.	We are in the process of making a change.	262836460	1479057346422	1479057346524	f	70
514332	5537194	We are in the process of making a change.	We are in the process of making a change.	262836465	1479057346544	1479057346641	 	32
514332	5537194	We are in the process of making a change.	We are in the process of making a change.	262836466	1479057346711	1479057346804	m	77
514332	5537194	We are in the process of making a change.	We are in the process of making a change.	262836468	1479057346834	1479057346931	a	65
514332	5537194	We are in the process of making a change.	We are in the process of making a change.	262836470	1479057346951	1479057347028	k	75
514332	5537194	We are in the process of making a change.	We are in the process of making a change.	262836472	1479057347108	1479057347188	i	73
514332	5537194	We are in the process of making a change.	We are in the process of making a change.	262836486	1479057347299	1479057347404	n	78
514332	5537194	We are in the process of making a change.	We are in the process of making a change.	262836487	1479057347380	1479057347454	g	71
514332	5537194	We are in the process of making a change.	We are in the process of making a change.	262836488	1479057347514	1479057347624	 	32
514332	5537194	We are in the process of making a change.	We are in the process of making a change.	262836489	1479057347644	1479057347728	a	65
514332	5537194	We are in the process of making a change.	We are in the process of making a change.	262836490	1479057347748	1479057347851	 	32
514332	5537194	We are in the process of making a change.	We are in the process of making a change.	262836502	1479057347883	1479057347971	c	67
514332	5537194	We are in the process of making a change.	We are in the process of making a change.	262836503	1479057347981	1479057348081	h	72
514332	5537194	We are in the process of making a change.	We are in the process of making a change.	262836504	1479057348131	1479057348236	a	65
514332	5537194	We are in the process of making a change.	We are in the process of making a change.	262836505	1479057348206	1479057348287	n	78
514332	5537194	We are in the process of making a change.	We are in the process of making a change.	262836506	1479057348387	1479057348461	g	71
514332	5537194	We are in the process of making a change.	We are in the process of making a change.	262836544	1479057348533	1479057348611	e	69
514332	5537194	We are in the process of making a change.	We are in the process of making a change.	262836546	1479057348841	1479057348923	.	190
514332	5537201	Will you come get me?	Will you come get me?	262836628	1479057352951	1479057353207	SHIFT	16
514332	5537201	Will you come get me?	Will you come get me?	262836630	1479057353151	1479057353267	W	87
514332	5537201	Will you come get me?	Will you come get me?	262836631	1479057353287	1479057353381	i	73
514332	5537201	Will you come get me?	Will you come get me?	262836632	1479057353501	1479057353587	l	76
514332	5537201	Will you come get me?	Will you come get me?	262836633	1479057353647	1479057353727	l	76
514332	5537201	Will you come get me?	Will you come get me?	262836634	1479057353797	1479057353897	 	32
514332	5537201	Will you come get me?	Will you come get me?	262836641	1479057354079	1479057354174	y	89
514332	5537201	Will you come get me?	Will you come get me?	262836644	1479057354195	1479057354277	o	79
514332	5537201	Will you come get me?	Will you come get me?	262836647	1479057354387	1479057354461	u	85
514332	5537201	Will you come get me?	Will you come get me?	262836650	1479057354531	1479057354651	 	32
514332	5537201	Will you come get me?	Will you come get me?	262836653	1479057354771	1479057354872	c	67
514332	5537201	Will you come get me?	Will you come get me?	262836671	1479057354893	1479057354971	o	79
514332	5537201	Will you come get me?	Will you come get me?	262836672	1479057355071	1479057355174	m	77
514332	5537201	Will you come get me?	Will you come get me?	262836674	1479057355194	1479057355291	e	69
514332	5537201	Will you come get me?	Will you come get me?	262836676	1479057355311	1479057355404	 	32
514332	5537201	Will you come get me?	Will you come get me?	262836678	1479057355475	1479057355581	g	71
514332	5537201	Will you come get me?	Will you come get me?	262836701	1479057355603	1479057355707	e	69
514332	5537201	Will you come get me?	Will you come get me?	262836703	1479057355717	1479057355804	t	84
514332	5537201	Will you come get me?	Will you come get me?	262836706	1479057355854	1479057355977	 	32
514332	5537201	Will you come get me?	Will you come get me?	262836708	1479057355987	1479057356131	m	77
514332	5537201	Will you come get me?	Will you come get me?	262836710	1479057356151	1479057356247	e	69
514332	5537201	Will you come get me?	Will you come get me?	262836718	1479057356540	1479057356611	?	191
514332	5537205	Tried to call but couldn't reach you.	Tried to call but couldn't reach you.	262836827	1479057359750	1479057359847	T	84
514332	5537205	Tried to call but couldn't reach you.	Tried to call but couldn't reach you.	262836828	1479057359917	1479057360044	r	82
514332	5537205	Tried to call but couldn't reach you.	Tried to call but couldn't reach you.	262836829	1479057360144	1479057360240	o	79
514332	5537205	Tried to call but couldn't reach you.	Tried to call but couldn't reach you.	262836832	1479057360260	1479057360317	e	69
514332	5537205	Tried to call but couldn't reach you.	Tried to call but couldn't reach you.	262836836	1479057360584	1479057360720	BKSP	8
514332	5537205	Tried to call but couldn't reach you.	Tried to call but couldn't reach you.	262836840	1479057360881	1479057360985	i	73
514332	5537205	Tried to call but couldn't reach you.	Tried to call but couldn't reach you.	262836885	1479057361005	1479057361078	e	69
514332	5537205	Tried to call but couldn't reach you.	Tried to call but couldn't reach you.	262836887	1479057361168	1479057361277	d	68
514332	5537205	Tried to call but couldn't reach you.	Tried to call but couldn't reach you.	262836889	1479057361245	1479057361388	 	32
514332	5537205	Tried to call but couldn't reach you.	Tried to call but couldn't reach you.	262836892	1479057361538	1479057361621	BKSP	8
514332	5537205	Tried to call but couldn't reach you.	Tried to call but couldn't reach you.	262836894	1479057361821	1479057361875	BKSP	8
514332	5537205	Tried to call but couldn't reach you.	Tried to call but couldn't reach you.	262836898	1479057362045	1479057362101	BKSP	8
514332	5537205	Tried to call but couldn't reach you.	Tried to call but couldn't reach you.	262836901	1479057362171	1479057362245	BKSP	8
514332	5537205	Tried to call but couldn't reach you.	Tried to call but couldn't reach you.	262836904	1479057362315	1479057362404	BKSP	8
514332	5537205	Tried to call but couldn't reach you.	Tried to call but couldn't reach you.	262836906	1479057362734	1479057362831	i	73
514332	5537205	Tried to call but couldn't reach you.	Tried to call but couldn't reach you.	262836908	1479057362861	1479057362928	e	69
514332	5537205	Tried to call but couldn't reach you.	Tried to call but couldn't reach you.	262836917	1479057363020	1479057363135	d	68
514332	5537205	Tried to call but couldn't reach you.	Tried to call but couldn't reach you.	262836920	1479057363125	1479057363215	 	32
514332	5537205	Tried to call but couldn't reach you.	Tried to call but couldn't reach you.	262836921	1479057363245	1479057363341	t	84
514332	5537205	Tried to call but couldn't reach you.	Tried to call but couldn't reach you.	262836924	1479057363351	1479057363437	o	79
514332	5537205	Tried to call but couldn't reach you.	Tried to call but couldn't reach you.	262836929	1479057363487	1479057363635	 	32
514332	5537205	Tried to call but couldn't reach you.	Tried to call but couldn't reach you.	262836958	1479057363634	1479057363669	c	67
514332	5537205	Tried to call but couldn't reach you.	Tried to call but couldn't reach you.	262836959	1479057363801	1479057363898	a	65
514332	5537205	Tried to call but couldn't reach you.	Tried to call but couldn't reach you.	262836960	1479057363978	1479057364036	l	76
514332	5537205	Tried to call but couldn't reach you.	Tried to call but couldn't reach you.	262836961	1479057364116	1479057364185	l	76
514332	5537205	Tried to call but couldn't reach you.	Tried to call but couldn't reach you.	262836962	1479057364275	1479057364385	 	32
514332	5537205	Tried to call but couldn't reach you.	Tried to call but couldn't reach you.	262836963	1479057364635	1479057364731	b	66
514332	5537205	Tried to call but couldn't reach you.	Tried to call but couldn't reach you.	262836973	1479057364773	1479057364895	u	85
514332	5537205	Tried to call but couldn't reach you.	Tried to call but couldn't reach you.	262836974	1479057364915	1479057365015	t	84
514332	5537205	Tried to call but couldn't reach you.	Tried to call but couldn't reach you.	262836975	1479057365045	1479057365161	 	32
514332	5537205	Tried to call but couldn't reach you.	Tried to call but couldn't reach you.	262836977	1479057365181	1479057365286	c	67
514332	5537205	Tried to call but couldn't reach you.	Tried to call but couldn't reach you.	262837028	1479057365261	1479057365396	o	79
514332	5537205	Tried to call but couldn't reach you.	Tried to call but couldn't reach you.	262837031	1479057365451	1479057365548	u	85
514332	5537205	Tried to call but couldn't reach you.	Tried to call but couldn't reach you.	262837034	1479057365668	1479057365755	l	76
514332	5537205	Tried to call but couldn't reach you.	Tried to call but couldn't reach you.	262837038	1479057365835	1479057365931	d	68
514332	5537205	Tried to call but couldn't reach you.	Tried to call but couldn't reach you.	262837042	1479057366211	1479057366278	'	222
514332	5537205	Tried to call but couldn't reach you.	Tried to call but couldn't reach you.	262837044	1479057366693	1479057366794	BKSP	8
514332	5537205	Tried to call but couldn't reach you.	Tried to call but couldn't reach you.	262837046	1479057366924	1479057367025	n	78
514332	5537205	Tried to call but couldn't reach you.	Tried to call but couldn't reach you.	262837071	1479057367117	1479057367225	'	222
514332	5537205	Tried to call but couldn't reach you.	Tried to call but couldn't reach you.	262837073	1479057367345	1479057367408	t	84
514332	5537205	Tried to call but couldn't reach you.	Tried to call but couldn't reach you.	262837074	1479057367502	1479057367628	 	32
514332	5537205	Tried to call but couldn't reach you.	Tried to call but couldn't reach you.	262837076	1479057368008	1479057368108	r	82
514332	5537205	Tried to call but couldn't reach you.	Tried to call but couldn't reach you.	262837077	1479057368238	1479057368321	e	69
514332	5537205	Tried to call but couldn't reach you.	Tried to call but couldn't reach you.	262837127	1479057368433	1479057368501	a	65
514332	5537205	Tried to call but couldn't reach you.	Tried to call but couldn't reach you.	262837128	1479057368651	1479057368724	c	86
514332	5537205	Tried to call but couldn't reach you.	Tried to call but couldn't reach you.	262837131	1479057369174	1479057369324	BKSP	8
514332	5537205	Tried to call but couldn't reach you.	Tried to call but couldn't reach you.	262837134	1479057369958	1479057370108	BKSP	8
514332	5537205	Tried to call but couldn't reach you.	Tried to call but couldn't reach you.	262837135	1479057370258	1479057370358	c	67
514332	5537205	Tried to call but couldn't reach you.	Tried to call but couldn't reach you.	262837136	1479057370418	1479057370554	h	72
514332	5537205	Tried to call but couldn't reach you.	Tried to call but couldn't reach you.	262837185	1479057370596	1479057370749	 	32
514332	5537205	Tried to call but couldn't reach you.	Tried to call but couldn't reach you.	262837186	1479057370718	1479057370844	y	89
514332	5537205	Tried to call but couldn't reach you.	Tried to call but couldn't reach you.	262837187	1479057370864	1479057370965	o	79
514332	5537205	Tried to call but couldn't reach you.	Tried to call but couldn't reach you.	262837188	1479057370934	1479057371041	u	85
514332	5537205	Tried to call but couldn't reach you.	Tried to call but couldn't reach you.	262837189	1479057372128	1479057372231	.	190
514332	5537213	Please stay on top of the security issue.	Please stay on top of the security issue.	262837624	1479057385681	1479057385781	r	82
514332	5537213	Please stay on top of the security issue.	Please stay on top of the security issue.	262837626	1479057385801	1479057385897	 	32
514332	5537213	Please stay on top of the security issue.	Please stay on top of the security issue.	262837629	1479057387124	1479057387214	BKSP	8
514332	5537213	Please stay on top of the security issue.	Please stay on top of the security issue.	262837632	1479057387274	1479057387354	BKSP	8
514332	5537213	Please stay on top of the security issue.	Please stay on top of the security issue.	262837635	1479057387404	1479057387487	BKSP	8
514332	5537213	Please stay on top of the security issue.	Please stay on top of the security issue.	262837637	1479057387557	1479057387657	BKSP	8
514332	5537213	Please stay on top of the security issue.	Please stay on top of the security issue.	262837641	1479057388197	1479057388450	SHIFT	16
514332	5537213	Please stay on top of the security issue.	Please stay on top of the security issue.	262837639	1479057388287	1479057388390	P	80
514332	5537213	Please stay on top of the security issue.	Please stay on top of the security issue.	262837643	1479057388500	1479057388577	l	76
514332	5537213	Please stay on top of the security issue.	Please stay on top of the security issue.	262837644	1479057388597	1479057388677	e	69
514332	5537213	Please stay on top of the security issue.	Please stay on top of the security issue.	262837646	1479057388789	1479057388861	a	65
514332	5537213	Please stay on top of the security issue.	Please stay on top of the security issue.	262837648	1479057388951	1479057389037	s	83
514332	5537213	Please stay on top of the security issue.	Please stay on top of the security issue.	262837650	1479057389127	1479057389191	e	69
514332	5537213	Please stay on top of the security issue.	Please stay on top of the security issue.	262837652	1479057389211	1479057389357	 	32
514332	5537213	Please stay on top of the security issue.	Please stay on top of the security issue.	262837671	1479057389334	1479057389431	s	83
514332	5537213	Please stay on top of the security issue.	Please stay on top of the security issue.	262837674	1479057389451	1479057389527	t	84
514332	5537213	Please stay on top of the security issue.	Please stay on top of the security issue.	262837678	1479057389547	1479057389627	a	65
514332	5537213	Please stay on top of the security issue.	Please stay on top of the security issue.	262837681	1479057389647	1479057389729	y	89
514332	5537213	Please stay on top of the security issue.	Please stay on top of the security issue.	262837683	1479057389789	1479057389950	 	32
514332	5537213	Please stay on top of the security issue.	Please stay on top of the security issue.	262837684	1479057389970	1479057390064	o	79
514332	5537213	Please stay on top of the security issue.	Please stay on top of the security issue.	262837698	1479057390186	1479057390260	n	78
514332	5537213	Please stay on top of the security issue.	Please stay on top of the security issue.	262837701	1479057390330	1479057390450	 	32
514332	5537213	Please stay on top of the security issue.	Please stay on top of the security issue.	262837704	1479057390460	1479057390548	t	84
514332	5537213	Please stay on top of the security issue.	Please stay on top of the security issue.	262837708	1479057390568	1479057390664	o	79
514332	5537213	Please stay on top of the security issue.	Please stay on top of the security issue.	262837710	1479057390744	1479057390837	p	80
514332	5537213	Please stay on top of the security issue.	Please stay on top of the security issue.	262837720	1479057390908	1479057391047	 	32
514332	5537213	Please stay on top of the security issue.	Please stay on top of the security issue.	262837722	1479057391067	1479057391164	o	79
514332	5537213	Please stay on top of the security issue.	Please stay on top of the security issue.	262837724	1479057391214	1479057391317	f	70
514332	5537213	Please stay on top of the security issue.	Please stay on top of the security issue.	262837725	1479057391335	1479057391430	 	32
514332	5537213	Please stay on top of the security issue.	Please stay on top of the security issue.	262837726	1479057391474	1479057391524	t	84
514332	5537213	Please stay on top of the security issue.	Please stay on top of the security issue.	262837746	1479057391596	1479057391670	h	72
514332	5537213	Please stay on top of the security issue.	Please stay on top of the security issue.	262837749	1479057391690	1479057391770	e	69
514332	5537213	Please stay on top of the security issue.	Please stay on top of the security issue.	262837751	1479057391810	1479057391927	 	32
514332	5537213	Please stay on top of the security issue.	Please stay on top of the security issue.	262837752	1479057391917	1479057391994	s	83
514332	5537213	Please stay on top of the security issue.	Please stay on top of the security issue.	262837753	1479057392084	1479057392170	e	69
514332	5537213	Please stay on top of the security issue.	Please stay on top of the security issue.	262837772	1479057392212	1479057392324	c	67
514332	5537213	Please stay on top of the security issue.	Please stay on top of the security issue.	262837774	1479057392501	1479057392597	u	85
514332	5537213	Please stay on top of the security issue.	Please stay on top of the security issue.	262837776	1479057393150	1479057393247	r	82
514332	5537213	Please stay on top of the security issue.	Please stay on top of the security issue.	262837777	1479057393267	1479057393344	i	73
514332	5537213	Please stay on top of the security issue.	Please stay on top of the security issue.	262837778	1479057393364	1479057393444	t	84
514332	5537213	Please stay on top of the security issue.	Please stay on top of the security issue.	262837790	1479057393485	1479057393580	y	89
514332	5537213	Please stay on top of the security issue.	Please stay on top of the security issue.	262837791	1479057393630	1479057393751	 	32
514332	5537213	Please stay on top of the security issue.	Please stay on top of the security issue.	262837792	1479057394041	1479057394140	i	73
514332	5537213	Please stay on top of the security issue.	Please stay on top of the security issue.	262837794	1479057394150	1479057394237	s	83
514332	5537213	Please stay on top of the security issue.	Please stay on top of the security issue.	262837798	1479057394317	1479057394417	s	83
514332	5537213	Please stay on top of the security issue.	Please stay on top of the security issue.	262837859	1479057394449	1479057394527	u	85
514332	5537213	Please stay on top of the security issue.	Please stay on top of the security issue.	262837861	1479057394567	1479057394674	e	69
514332	5537213	Please stay on top of the security issue.	Please stay on top of the security issue.	262837864	1479057394926	1479057395005	.	190
514332	5537227	Sounds good to me.	Sounds goood to me.	262838024	1479057401454	1479057401658	SHIFT	16
514332	5537227	Sounds good to me.	Sounds goood to me.	262838025	1479057401594	1479057401758	S	83
514332	5537227	Sounds good to me.	Sounds goood to me.	262838026	1479057401728	1479057401831	o	79
514332	5537227	Sounds good to me.	Sounds goood to me.	262838027	1479057401921	1479057402004	u	85
514332	5537227	Sounds good to me.	Sounds goood to me.	262838028	1479057402114	1479057402208	n	78
514332	5537227	Sounds good to me.	Sounds goood to me.	262838048	1479057402198	1479057402291	d	68
514332	5537227	Sounds good to me.	Sounds goood to me.	262838051	1479057402371	1479057402464	s	83
514332	5537227	Sounds good to me.	Sounds goood to me.	262838053	1479057402454	1479057402568	 	32
514332	5537227	Sounds good to me.	Sounds goood to me.	262838056	1479057402608	1479057402686	g	71
514332	5537227	Sounds good to me.	Sounds goood to me.	262838057	1479057402767	1479057402813	o	79
514332	5537227	Sounds good to me.	Sounds goood to me.	262838058	1479057402894	1479057402978	o	79
514332	5537227	Sounds good to me.	Sounds goood to me.	262838059	1479057403059	1479057403138	o	79
514332	5537227	Sounds good to me.	Sounds goood to me.	262838061	1479057403218	1479057403314	d	68
514332	5537227	Sounds good to me.	Sounds goood to me.	262838062	1479057403324	1479057403428	 	32
514332	5537227	Sounds good to me.	Sounds goood to me.	262838064	1479057403448	1479057403528	t	84
514332	5537227	Sounds good to me.	Sounds goood to me.	262838065	1479057403578	1479057403684	o	79
514332	5537227	Sounds good to me.	Sounds goood to me.	262838092	1479057403736	1479057403838	 	32
514332	5537227	Sounds good to me.	Sounds goood to me.	262838095	1479057403888	1479057403981	m	77
514332	5537227	Sounds good to me.	Sounds goood to me.	262838097	1479057404013	1479057404128	e	69
514332	5537227	Sounds good to me.	Sounds goood to me.	262838099	1479057404178	1479057404258	.	190
514332	5537229	He is expected to play when the Browns return to action next week.	He is expected to play when the Browns return to action next week.	262838365	1479057414427	1479057414709	SHIFT	16
514332	5537229	He is expected to play when the Browns return to action next week.	He is expected to play when the Browns return to action next week.	262838367	1479057414644	1479057414744	H	72
514332	5537229	He is expected to play when the Browns return to action next week.	He is expected to play when the Browns return to action next week.	262838366	1479057414669	1479057414724	J	74
514332	5537229	He is expected to play when the Browns return to action next week.	He is expected to play when the Browns return to action next week.	262838368	1479057414784	1479057414911	e	69
514332	5537229	He is expected to play when the Browns return to action next week.	He is expected to play when the Browns return to action next week.	262838369	1479057415444	1479057415485	BKSP	8
514332	5537229	He is expected to play when the Browns return to action next week.	He is expected to play when the Browns return to action next week.	262838370	1479057415695	1479057415797	BKSP	8
514332	5537229	He is expected to play when the Browns return to action next week.	He is expected to play when the Browns return to action next week.	262838371	1479057416207	1479057416307	e	69
514332	5537229	He is expected to play when the Browns return to action next week.	He is expected to play when the Browns return to action next week.	262838372	1479057416327	1479057416464	 	32
514332	5537229	He is expected to play when the Browns return to action next week.	He is expected to play when the Browns return to action next week.	262838386	1479057416454	1479057416547	i	73
514332	5537229	He is expected to play when the Browns return to action next week.	He is expected to play when the Browns return to action next week.	262838388	1479057416607	1479057416701	s	83
514332	5537229	He is expected to play when the Browns return to action next week.	He is expected to play when the Browns return to action next week.	262838390	1479057416677	1479057416774	 	32
514332	5537229	He is expected to play when the Browns return to action next week.	He is expected to play when the Browns return to action next week.	262838392	1479057416824	1479057416904	e	69
514332	5537229	He is expected to play when the Browns return to action next week.	He is expected to play when the Browns return to action next week.	262838394	1479057417040	1479057417175	x	88
514332	5537229	He is expected to play when the Browns return to action next week.	He is expected to play when the Browns return to action next week.	262838396	1479057417295	1479057417414	p	80
514332	5537229	He is expected to play when the Browns return to action next week.	He is expected to play when the Browns return to action next week.	262838409	1479057417438	1479057417491	e	69
514332	5537229	He is expected to play when the Browns return to action next week.	He is expected to play when the Browns return to action next week.	262838410	1479057417621	1479057417957	c	67
514332	5537229	He is expected to play when the Browns return to action next week.	He is expected to play when the Browns return to action next week.	262838411	1479057417971	1479057417978	t	84
514332	5537229	He is expected to play when the Browns return to action next week.	He is expected to play when the Browns return to action next week.	262838412	1479057417979	1479057417983	e	69
514332	5537229	He is expected to play when the Browns return to action next week.	He is expected to play when the Browns return to action next week.	262838413	1479057417998	1479057418094	d	68
514332	5537229	He is expected to play when the Browns return to action next week.	He is expected to play when the Browns return to action next week.	262838430	1479057418104	1479057418230	 	32
514332	5537229	He is expected to play when the Browns return to action next week.	He is expected to play when the Browns return to action next week.	262838431	1479057418207	1479057418307	t	84
514332	5537229	He is expected to play when the Browns return to action next week.	He is expected to play when the Browns return to action next week.	262838432	1479057418350	1479057418447	o	79
514332	5537229	He is expected to play when the Browns return to action next week.	He is expected to play when the Browns return to action next week.	262838433	1479057418497	1479057418677	 	32
514332	5537229	He is expected to play when the Browns return to action next week.	He is expected to play when the Browns return to action next week.	262838450	1479057418647	1479057418757	p	80
514332	5537229	He is expected to play when the Browns return to action next week.	He is expected to play when the Browns return to action next week.	262838452	1479057418839	1479057418918	l	76
514332	5537229	He is expected to play when the Browns return to action next week.	He is expected to play when the Browns return to action next week.	262838454	1479057418982	1479057419095	a	65
514332	5537229	He is expected to play when the Browns return to action next week.	He is expected to play when the Browns return to action next week.	262838456	1479057419155	1479057419277	y	89
514332	5537229	He is expected to play when the Browns return to action next week.	He is expected to play when the Browns return to action next week.	262838458	1479057419347	1479057419467	 	32
514332	5537229	He is expected to play when the Browns return to action next week.	He is expected to play when the Browns return to action next week.	262838460	1479057419487	1479057419600	w	87
514332	5537229	He is expected to play when the Browns return to action next week.	He is expected to play when the Browns return to action next week.	262838463	1479057419622	1479057419710	h	72
514332	5537229	He is expected to play when the Browns return to action next week.	He is expected to play when the Browns return to action next week.	262838465	1479057419721	1479057419804	e	69
514332	5537229	He is expected to play when the Browns return to action next week.	He is expected to play when the Browns return to action next week.	262838467	1479057419824	1479057419924	n	78
514332	5537229	He is expected to play when the Browns return to action next week.	He is expected to play when the Browns return to action next week.	262838472	1479057419964	1479057420093	 	32
514332	5537229	He is expected to play when the Browns return to action next week.	He is expected to play when the Browns return to action next week.	262838494	1479057420068	1479057420144	t	84
514332	5537229	He is expected to play when the Browns return to action next week.	He is expected to play when the Browns return to action next week.	262838496	1479057420164	1479057420264	h	72
514332	5537229	He is expected to play when the Browns return to action next week.	He is expected to play when the Browns return to action next week.	262838500	1479057420284	1479057420370	e	69
514332	5537229	He is expected to play when the Browns return to action next week.	He is expected to play when the Browns return to action next week.	262838503	1479057420390	1479057420480	 	32
514332	5537229	He is expected to play when the Browns return to action next week.	He is expected to play when the Browns return to action next week.	262838507	1479057420500	1479057420750	SHIFT	16
514332	5537229	He is expected to play when the Browns return to action next week.	He is expected to play when the Browns return to action next week.	262838505	1479057420629	1479057420710	B	66
514332	5537229	He is expected to play when the Browns return to action next week.	He is expected to play when the Browns return to action next week.	262838509	1479057420770	1479057420916	r	82
514332	5537229	He is expected to play when the Browns return to action next week.	He is expected to play when the Browns return to action next week.	262838526	1479057420883	1479057421049	o	79
514332	5537229	He is expected to play when the Browns return to action next week.	He is expected to play when the Browns return to action next week.	262838527	1479057421089	1479057421169	w	87
514332	5537229	He is expected to play when the Browns return to action next week.	He is expected to play when the Browns return to action next week.	262838529	1479057421209	1479057421287	n	78
514332	5537229	He is expected to play when the Browns return to action next week.	He is expected to play when the Browns return to action next week.	262838531	1479057421307	1479057421406	s	83
514332	5537229	He is expected to play when the Browns return to action next week.	He is expected to play when the Browns return to action next week.	262838534	1479057421426	1479057421523	 	32
514332	5537229	He is expected to play when the Browns return to action next week.	He is expected to play when the Browns return to action next week.	262838536	1479057421733	1479057421819	r	82
514332	5537229	He is expected to play when the Browns return to action next week.	He is expected to play when the Browns return to action next week.	262838562	1479057421901	1479057421986	e	69
514332	5537229	He is expected to play when the Browns return to action next week.	He is expected to play when the Browns return to action next week.	262838563	1479057422116	1479057422203	t	84
514332	5537229	He is expected to play when the Browns return to action next week.	He is expected to play when the Browns return to action next week.	262838564	1479057422373	1479057422483	u	85
514332	5537229	He is expected to play when the Browns return to action next week.	He is expected to play when the Browns return to action next week.	262838565	1479057422523	1479057422633	r	82
514332	5537229	He is expected to play when the Browns return to action next week.	He is expected to play when the Browns return to action next week.	262838566	1479057422703	1479057422796	n	78
514332	5537229	He is expected to play when the Browns return to action next week.	He is expected to play when the Browns return to action next week.	262838584	1479057422847	1479057422966	 	32
514332	5537229	He is expected to play when the Browns return to action next week.	He is expected to play when the Browns return to action next week.	262838587	1479057423136	1479057423239	n	78
514332	5537229	He is expected to play when the Browns return to action next week.	He is expected to play when the Browns return to action next week.	262838590	1479057423259	1479057423336	e	69
514332	5537229	He is expected to play when the Browns return to action next week.	He is expected to play when the Browns return to action next week.	262838594	1479057423516	1479057423603	x	88
514332	5537229	He is expected to play when the Browns return to action next week.	He is expected to play when the Browns return to action next week.	262838598	1479057423633	1479057423729	t	84
514332	5537229	He is expected to play when the Browns return to action next week.	He is expected to play when the Browns return to action next week.	262838610	1479057423739	1479057423864	 	32
514332	5537229	He is expected to play when the Browns return to action next week.	He is expected to play when the Browns return to action next week.	262838611	1479057423924	1479057424029	w	87
514332	5537229	He is expected to play when the Browns return to action next week.	He is expected to play when the Browns return to action next week.	262838612	1479057424139	1479057424216	e	69
514332	5537229	He is expected to play when the Browns return to action next week.	He is expected to play when the Browns return to action next week.	262838613	1479057424286	1479057424379	e	69
514332	5537229	He is expected to play when the Browns return to action next week.	He is expected to play when the Browns return to action next week.	262838614	1479057424439	1479057424539	k	75
514332	5537229	He is expected to play when the Browns return to action next week.	He is expected to play when the Browns return to action next week.	262838724	1479057426036	1479057426109	.	190
514332	5537229	He is expected to play when the Browns return to action next week.	He is expected to play when the Browns return to action next week.	262838727	1479057428276	1479057428452	 	32
514332	5537229	He is expected to play when the Browns return to action next week.	He is expected to play when the Browns return to action next week.	262838729	1479057428432	1479057428529	t	84
514332	5537229	He is expected to play when the Browns return to action next week.	He is expected to play when the Browns return to action next week.	262838731	1479057428539	1479057428619	o	79
514332	5537229	He is expected to play when the Browns return to action next week.	He is expected to play when the Browns return to action next week.	262838733	1479057428739	1479057428820	a	65
514332	5537229	He is expected to play when the Browns return to action next week.	He is expected to play when the Browns return to action next week.	262838771	1479057429523	1479057429596	BKSP	8
514332	5537229	He is expected to play when the Browns return to action next week.	He is expected to play when the Browns return to action next week.	262838773	1479057429668	1479057429790	 	32
514332	5537229	He is expected to play when the Browns return to action next week.	He is expected to play when the Browns return to action next week.	262838777	1479057429804	1479057429940	a	65
514332	5537229	He is expected to play when the Browns return to action next week.	He is expected to play when the Browns return to action next week.	262838779	1479057430052	1479057430189	c	67
514332	5537229	He is expected to play when the Browns return to action next week.	He is expected to play when the Browns return to action next week.	262838780	1479057430316	1479057430412	t	84
514332	5537229	He is expected to play when the Browns return to action next week.	He is expected to play when the Browns return to action next week.	262838781	1479057430508	1479057430588	i	73
514332	5537229	He is expected to play when the Browns return to action next week.	He is expected to play when the Browns return to action next week.	262838810	1479057430716	1479057430820	o	79
514332	5537229	He is expected to play when the Browns return to action next week.	He is expected to play when the Browns return to action next week.	262838811	1479057431670	1479057431764	n	78
514332	5537245	Mixed signals from APS today.	Mixed signals from APs today.	262838969	1479057437495	1479057438702	SHIFT	16
514332	5537245	Mixed signals from APS today.	Mixed signals from APs today.	262838970	1479057438566	1479057438752	I	73
514332	5537245	Mixed signals from APS today.	Mixed signals from APs today.	262838971	1479057438752	1479057438752	x	88
514332	5537245	Mixed signals from APS today.	Mixed signals from APs today.	262838972	1479057438752	1479057438752	e	69
514332	5537245	Mixed signals from APS today.	Mixed signals from APs today.	262838973	1479057438752	1479057438762	d	68
514332	5537245	Mixed signals from APS today.	Mixed signals from APs today.	262838974	1479057438762	1479057438772	s	32
514332	5537245	Mixed signals from APS today.	Mixed signals from APs today.	262839015	1479057438762	1479057439595	i	83
514332	5537245	Mixed signals from APS today.	Mixed signals from APs today.	262838980	1479057438962	1479057439045	g	71
514332	5537245	Mixed signals from APS today.	Mixed signals from APs today.	262838981	1479057439145	1479057439266	n	78
514332	5537245	Mixed signals from APS today.	Mixed signals from APs today.	262838984	1479057439284	1479057439405	a	65
514332	5537245	Mixed signals from APS today.	Mixed signals from APs today.	262839013	1479057439385	1479057439482	l	76
514332	5537245	Mixed signals from APS today.	Mixed signals from APs today.	262839079	1479057439492	1479057442122	s	83
514332	5537245	Mixed signals from APS today.	Mixed signals from APs today.	262839017	1479057439655	1479057439772	 	32
514332	5537245	Mixed signals from APS today.	Mixed signals from APs today.	262839018	1479057439852	1479057439955	f	70
514332	5537245	Mixed signals from APS today.	Mixed signals from APs today.	262839019	1479057439995	1479057440065	o	79
514332	5537245	Mixed signals from APS today.	Mixed signals from APs today.	262839020	1479057440320	1479057440452	BKSP	8
514332	5537245	Mixed signals from APS today.	Mixed signals from APs today.	262839021	1479057440482	1479057440579	r	82
514332	5537245	Mixed signals from APS today.	Mixed signals from APs today.	262839054	1479057440548	1479057440635	o	79
514332	5537245	Mixed signals from APS today.	Mixed signals from APs today.	262839058	1479057440755	1479057440835	m	77
514332	5537245	Mixed signals from APS today.	Mixed signals from APs today.	262839061	1479057440915	1479057441002	 	32
514332	5537245	Mixed signals from APS today.	Mixed signals from APs today.	262839074	1479057441115	1479057441802	SHIFT	16
514332	5537245	Mixed signals from APS today.	Mixed signals from APs today.	262839064	1479057441285	1479057441448	A	65
514332	5537245	Mixed signals from APS today.	Mixed signals from APs today.	262839068	1479057441458	1479057441542	P	80
514332	5537245	Mixed signals from APS today.	Mixed signals from APs today.	262839095	1479057442142	1479057442222	 	32
514332	5537245	Mixed signals from APS today.	Mixed signals from APs today.	262839096	1479057442572	1479057442662	t	84
514332	5537245	Mixed signals from APS today.	Mixed signals from APs today.	262839097	1479057442682	1479057442778	o	79
514332	5537245	Mixed signals from APS today.	Mixed signals from APs today.	262839099	1479057442828	1479057442938	d	68
514332	5537245	Mixed signals from APS today.	Mixed signals from APs today.	262839101	1479057443028	1479057443108	a	65
514332	5537245	Mixed signals from APS today.	Mixed signals from APs today.	262839169	1479057443140	1479057443225	y	89
514332	5537245	Mixed signals from APS today.	Mixed signals from APs today.	262839170	1479057444198	1479057444282	.	190
514332	5537245	Mixed signals from APS today.	Mixed signals from APs today.	262839171	1479057446738	1479057446828	BKSP	8
514332	5537245	Mixed signals from APS today.	Mixed signals from APs today.	262839172	1479057447048	1479057447155	i	73
514332	5537251	Theresa - Please resend.	Theresa - Please resend.	262839264	1479057450538	1479057451098	SHIFT	16
514332	5537251	Theresa - Please resend.	Theresa - Please resend.	262839262	1479057450938	1479057451018	T	84
514332	5537251	Theresa - Please resend.	Theresa - Please resend.	262839266	1479057451118	1479057451211	h	72
514332	5537251	Theresa - Please resend.	Theresa - Please resend.	262839268	1479057451241	1479057451298	e	69
514332	5537251	Theresa - Please resend.	Theresa - Please resend.	262839269	1479057451378	1479057451451	r	82
514332	5537251	Theresa - Please resend.	Theresa - Please resend.	262839270	1479057451552	1479057451635	e	69
514332	5537251	Theresa - Please resend.	Theresa - Please resend.	262839409	1479057451748	1479057458004	s	83
514332	5537251	Theresa - Please resend.	Theresa - Please resend.	262839303	1479057452014	1479057452113	a	65
514332	5537251	Theresa - Please resend.	Theresa - Please resend.	262839305	1479057452835	1479057452978	-	189
514332	5537251	Theresa - Please resend.	Theresa - Please resend.	262839307	1479057453403	1479057453535	BKSP	8
514332	5537251	Theresa - Please resend.	Theresa - Please resend.	262839309	1479057453635	1479057453768	 	32
514332	5537251	Theresa - Please resend.	Theresa - Please resend.	262839311	1479057454099	1479057454259	-	189
514332	5537251	Theresa - Please resend.	Theresa - Please resend.	262839367	1479057454235	1479057454388	 	32
514332	5537251	Theresa - Please resend.	Theresa - Please resend.	262839368	1479057454468	1479057454572	p	80
514332	5537251	Theresa - Please resend.	Theresa - Please resend.	262839369	1479057454882	1479057454999	BKSP	8
514332	5537251	Theresa - Please resend.	Theresa - Please resend.	262839371	1479057455059	1479057455716	SHIFT	16
514332	5537251	Theresa - Please resend.	Theresa - Please resend.	262839370	1479057455492	1479057455596	P	80
514332	5537251	Theresa - Please resend.	Theresa - Please resend.	262839372	1479057455732	1479057455812	l	76
514332	5537251	Theresa - Please resend.	Theresa - Please resend.	262839373	1479057455884	1479057455940	r	82
514332	5537251	Theresa - Please resend.	Theresa - Please resend.	262839374	1479057456284	1479057456436	BKSP	8
514332	5537251	Theresa - Please resend.	Theresa - Please resend.	262839375	1479057456725	1479057456804	e	69
514332	5537251	Theresa - Please resend.	Theresa - Please resend.	262839399	1479057456965	1479057457044	a	65
514332	5537251	Theresa - Please resend.	Theresa - Please resend.	262839401	1479057457149	1479057457245	d	68
514332	5537251	Theresa - Please resend.	Theresa - Please resend.	262839403	1479057457333	1479057457428	e	69
514332	5537251	Theresa - Please resend.	Theresa - Please resend.	262839405	1479057457629	1479057457748	BKSP	8
514332	5537251	Theresa - Please resend.	Theresa - Please resend.	262839407	1479057457805	1479057457900	BKSP	8
514332	5537251	Theresa - Please resend.	Theresa - Please resend.	262839439	1479057457924	1479057459020	s	83
514332	5537251	Theresa - Please resend.	Theresa - Please resend.	262839410	1479057458077	1479057458172	e	69
514332	5537251	Theresa - Please resend.	Theresa - Please resend.	262839431	1479057458196	1479057458332	 	32
514332	5537251	Theresa - Please resend.	Theresa - Please resend.	262839434	1479057458597	1479057458676	r	82
514332	5537251	Theresa - Please resend.	Theresa - Please resend.	262839437	1479057458772	1479057458828	e	69
514332	5537251	Theresa - Please resend.	Theresa - Please resend.	262839441	1479057459100	1479057459180	e	69
514332	5537251	Theresa - Please resend.	Theresa - Please resend.	262839449	1479057459228	1479057459308	n	78
514332	5537251	Theresa - Please resend.	Theresa - Please resend.	262839450	1479057459324	1479057459404	d	68
514332	5537251	Theresa - Please resend.	Theresa - Please resend.	262839451	1479057459676	1479057459748	.	190
514332	5537257	Will follow up today.	Will follow up today.	262839545	1479057462965	1479057463420	SHIFT	16
514332	5537257	Will follow up today.	Will follow up today.	262839546	1479057463348	1479057463459	W	87
514332	5537257	Will follow up today.	Will follow up today.	262839547	1479057463484	1479057463564	i	73
514332	5537257	Will follow up today.	Will follow up today.	262839548	1479057463695	1479057463748	l	76
514332	5537257	Will follow up today.	Will follow up today.	262839549	1479057463812	1479057463892	l	76
514332	5537257	Will follow up today.	Will follow up today.	262839550	1479057463972	1479057464092	 	32
514332	5537257	Will follow up today.	Will follow up today.	262839561	1479057464116	1479057464212	f	70
514332	5537257	Will follow up today.	Will follow up today.	262839564	1479057464260	1479057464356	o	79
514332	5537257	Will follow up today.	Will follow up today.	262839566	1479057464436	1479057464540	l	76
514332	5537257	Will follow up today.	Will follow up today.	262839568	1479057464580	1479057464660	l	76
514332	5537257	Will follow up today.	Will follow up today.	262839571	1479057464740	1479057464804	o	79
514332	5537257	Will follow up today.	Will follow up today.	262839587	1479057465300	1479057465404	w	87
514332	5537257	Will follow up today.	Will follow up today.	262839588	1479057465419	1479057465556	 	32
514332	5537257	Will follow up today.	Will follow up today.	262839589	1479057465756	1479057465812	u	85
514332	5537257	Will follow up today.	Will follow up today.	262839590	1479057465972	1479057466068	p	80
514332	5537257	Will follow up today.	Will follow up today.	262839591	1479057466131	1479057466252	 	32
514332	5537257	Will follow up today.	Will follow up today.	262839607	1479057466276	1479057466332	t	84
514332	5537257	Will follow up today.	Will follow up today.	262839609	1479057466355	1479057466452	o	79
514332	5537257	Will follow up today.	Will follow up today.	262839611	1479057466467	1479057466588	d	68
514332	5537257	Will follow up today.	Will follow up today.	262839612	1479057466756	1479057466877	a	65
514332	5537257	Will follow up today.	Will follow up today.	262839635	1479057466852	1479057466948	y	89
514332	5537257	Will follow up today.	Will follow up today.	262839636	1479057467892	1479057468012	.	190
514332	5537262	The buses will be identified by their cities of origin.	The buses will be identified by their cities of  origin.	262839729	1479057471052	1479057471428	SHIFT	16
514332	5537262	The buses will be identified by their cities of origin.	The buses will be identified by their cities of  origin.	262839731	1479057471348	1479057471484	T	84
514332	5537262	The buses will be identified by their cities of origin.	The buses will be identified by their cities of  origin.	262839733	1479057471468	1479057471564	h	72
514332	5537262	The buses will be identified by their cities of origin.	The buses will be identified by their cities of  origin.	262839735	1479057471612	1479057471692	e	69
514332	5537262	The buses will be identified by their cities of origin.	The buses will be identified by their cities of  origin.	262839740	1479057471708	1479057471828	 	32
514332	5537262	The buses will be identified by their cities of origin.	The buses will be identified by their cities of  origin.	262839744	1479057472052	1479057472147	b	66
514332	5537262	The buses will be identified by their cities of origin.	The buses will be identified by their cities of  origin.	262839757	1479057472219	1479057472315	u	85
514332	5537262	The buses will be identified by their cities of origin.	The buses will be identified by their cities of  origin.	262839760	1479057472339	1479057472819	s	83
514332	5537262	The buses will be identified by their cities of origin.	The buses will be identified by their cities of  origin.	262839759	1479057472547	1479057472627	e	69
514332	5537262	The buses will be identified by their cities of origin.	The buses will be identified by their cities of  origin.	262839945	1479057472723	1479057479524	s	83
514332	5537262	The buses will be identified by their cities of origin.	The buses will be identified by their cities of  origin.	262839762	1479057472916	1479057473012	 	32
514332	5537262	The buses will be identified by their cities of origin.	The buses will be identified by their cities of  origin.	262839768	1479057473053	1479057473156	w	87
514332	5537262	The buses will be identified by their cities of origin.	The buses will be identified by their cities of  origin.	262839770	1479057473204	1479057473284	i	73
514332	5537262	The buses will be identified by their cities of origin.	The buses will be identified by their cities of  origin.	262839773	1479057473396	1479057473492	l	76
514332	5537262	The buses will be identified by their cities of origin.	The buses will be identified by their cities of  origin.	262839777	1479057473540	1479057473620	l	76
514332	5537262	The buses will be identified by their cities of origin.	The buses will be identified by their cities of  origin.	262839780	1479057473684	1479057473804	 	32
514332	5537262	The buses will be identified by their cities of origin.	The buses will be identified by their cities of  origin.	262839792	1479057473828	1479057473948	b	66
514332	5537262	The buses will be identified by their cities of origin.	The buses will be identified by their cities of  origin.	262839793	1479057473964	1479057474044	e	69
514332	5537262	The buses will be identified by their cities of origin.	The buses will be identified by their cities of  origin.	262839794	1479057474068	1479057474188	 	32
514332	5537262	The buses will be identified by their cities of origin.	The buses will be identified by their cities of  origin.	262839796	1479057474228	1479057474332	i	73
514332	5537262	The buses will be identified by their cities of origin.	The buses will be identified by their cities of  origin.	262839800	1479057474396	1479057474452	d	68
514332	5537262	The buses will be identified by their cities of origin.	The buses will be identified by their cities of  origin.	262839826	1479057474557	1479057474636	e	69
514332	5537262	The buses will be identified by their cities of origin.	The buses will be identified by their cities of  origin.	262839828	1479057474692	1479057474788	n	78
514332	5537262	The buses will be identified by their cities of origin.	The buses will be identified by their cities of  origin.	262839829	1479057474812	1479057474932	t	84
514332	5537262	The buses will be identified by their cities of origin.	The buses will be identified by their cities of  origin.	262839830	1479057474980	1479057475084	i	73
514332	5537262	The buses will be identified by their cities of origin.	The buses will be identified by their cities of  origin.	262839831	1479057475244	1479057475340	f	70
514332	5537262	The buses will be identified by their cities of origin.	The buses will be identified by their cities of  origin.	262839862	1479057475428	1479057475508	i	73
514332	5537262	The buses will be identified by their cities of origin.	The buses will be identified by their cities of  origin.	262839864	1479057475548	1479057475628	e	69
514332	5537262	The buses will be identified by their cities of origin.	The buses will be identified by their cities of  origin.	262839867	1479057475748	1479057475844	d	68
514332	5537262	The buses will be identified by their cities of origin.	The buses will be identified by their cities of  origin.	262839869	1479057475996	1479057476132	 	32
514332	5537262	The buses will be identified by their cities of origin.	The buses will be identified by their cities of  origin.	262839871	1479057476532	1479057476652	b	66
514332	5537262	The buses will be identified by their cities of origin.	The buses will be identified by their cities of  origin.	262839874	1479057476700	1479057476796	y	89
514332	5537262	The buses will be identified by their cities of origin.	The buses will be identified by their cities of  origin.	262839875	1479057476916	1479057477036	 	32
514332	5537262	The buses will be identified by their cities of origin.	The buses will be identified by their cities of  origin.	262839876	1479057477052	1479057477132	t	84
514332	5537262	The buses will be identified by their cities of origin.	The buses will be identified by their cities of  origin.	262839878	1479057477156	1479057477276	h	72
514332	5537262	The buses will be identified by their cities of origin.	The buses will be identified by their cities of  origin.	262839881	1479057477292	1479057477396	e	69
514332	5537262	The buses will be identified by their cities of origin.	The buses will be identified by their cities of  origin.	262839909	1479057477444	1479057477540	i	73
514332	5537262	The buses will be identified by their cities of origin.	The buses will be identified by their cities of  origin.	262839911	1479057477589	1479057477708	r	82
514332	5537262	The buses will be identified by their cities of origin.	The buses will be identified by their cities of  origin.	262839913	1479057477692	1479057477853	 	32
514332	5537262	The buses will be identified by their cities of origin.	The buses will be identified by their cities of  origin.	262839915	1479057478068	1479057478180	c	67
514332	5537262	The buses will be identified by their cities of origin.	The buses will be identified by their cities of  origin.	262839917	1479057478308	1479057478428	i	73
514332	5537262	The buses will be identified by their cities of origin.	The buses will be identified by their cities of  origin.	262839938	1479057478476	1479057478604	t	84
514332	5537262	The buses will be identified by their cities of origin.	The buses will be identified by their cities of  origin.	262839939	1479057478628	1479057478724	i	73
514332	5537262	The buses will be identified by their cities of origin.	The buses will be identified by their cities of  origin.	262839941	1479057478820	1479057478900	t	84
514332	5537262	The buses will be identified by their cities of origin.	The buses will be identified by their cities of  origin.	262839943	1479057479076	1479057479156	e	69
514332	5537262	The buses will be identified by their cities of origin.	The buses will be identified by their cities of  origin.	262839963	1479057479588	1479057479724	 	32
514332	5537262	The buses will be identified by their cities of origin.	The buses will be identified by their cities of  origin.	262839967	1479057479901	1479057480036	o	79
514332	5537262	The buses will be identified by their cities of origin.	The buses will be identified by their cities of  origin.	262839970	1479057480060	1479057480140	f	70
514332	5537262	The buses will be identified by their cities of origin.	The buses will be identified by their cities of  origin.	262839973	1479057480156	1479057480292	 	32
514332	5537262	The buses will be identified by their cities of origin.	The buses will be identified by their cities of  origin.	262839978	1479057480404	1479057480484	 	32
514332	5537262	The buses will be identified by their cities of origin.	The buses will be identified by their cities of  origin.	262840010	1479057481141	1479057481261	o	79
514332	5537262	The buses will be identified by their cities of origin.	The buses will be identified by their cities of  origin.	262840011	1479057481237	1479057481349	r	82
514332	5537262	The buses will be identified by their cities of origin.	The buses will be identified by their cities of  origin.	262840012	1479057482085	1479057482221	i	73
514332	5537262	The buses will be identified by their cities of origin.	The buses will be identified by their cities of  origin.	262840013	1479057482277	1479057482381	g	71
514332	5537262	The buses will be identified by their cities of origin.	The buses will be identified by their cities of  origin.	262840170	1479057482357	1479057482461	i	73
514332	5537262	The buses will be identified by their cities of origin.	The buses will be identified by their cities of  origin.	262840171	1479057482573	1479057482645	n	78
514332	5537262	The buses will be identified by their cities of origin.	The buses will be identified by their cities of  origin.	262840172	1479057482885	1479057482965	.	190
514332	5537262	The buses will be identified by their cities of origin.	The buses will be identified by their cities of  origin.	262840173	1479057485605	1479057485669	=	187
514332	5537262	The buses will be identified by their cities of origin.	The buses will be identified by their cities of  origin.	262840174	1479057486045	1479057486149	BKSP	8
514332	5537262	The buses will be identified by their cities of origin.	The buses will be identified by their cities of  origin.	262840175	1479057486212	1479057486309	BKSP	8
514332	5537274	We lost 1 player this week who picked Baltimore, sorry.	We lost 1 player this week who picked Baltimore, sorry.	262840517	1479057499309	1479057499669	SHIFT	16
514332	5537274	We lost 1 player this week who picked Baltimore, sorry.	We lost 1 player this week who picked Baltimore, sorry.	262840520	1479057499589	1479057499708	W	87
514332	5537274	We lost 1 player this week who picked Baltimore, sorry.	We lost 1 player this week who picked Baltimore, sorry.	262840523	1479057499781	1479057499877	e	69
514332	5537274	We lost 1 player this week who picked Baltimore, sorry.	We lost 1 player this week who picked Baltimore, sorry.	262840526	1479057499900	1479057500021	 	32
514332	5537274	We lost 1 player this week who picked Baltimore, sorry.	We lost 1 player this week who picked Baltimore, sorry.	262840528	1479057500509	1479057500589	l	76
514332	5537274	We lost 1 player this week who picked Baltimore, sorry.	We lost 1 player this week who picked Baltimore, sorry.	262840530	1479057500677	1479057500757	o	79
514332	5537274	We lost 1 player this week who picked Baltimore, sorry.	We lost 1 player this week who picked Baltimore, sorry.	262840600	1479057500813	1479057503149	s	83
514332	5537274	We lost 1 player this week who picked Baltimore, sorry.	We lost 1 player this week who picked Baltimore, sorry.	262840532	1479057500932	1479057501029	t	84
514332	5537274	We lost 1 player this week who picked Baltimore, sorry.	We lost 1 player this week who picked Baltimore, sorry.	262840533	1479057501076	1479057501181	 	32
514332	5537274	We lost 1 player this week who picked Baltimore, sorry.	We lost 1 player this week who picked Baltimore, sorry.	262840534	1479057501285	1479057501405	1	49
514332	5537274	We lost 1 player this week who picked Baltimore, sorry.	We lost 1 player this week who picked Baltimore, sorry.	262840554	1479057501389	1479057501525	 	32
514332	5537274	We lost 1 player this week who picked Baltimore, sorry.	We lost 1 player this week who picked Baltimore, sorry.	262840556	1479057501637	1479057501741	p	80
514332	5537274	We lost 1 player this week who picked Baltimore, sorry.	We lost 1 player this week who picked Baltimore, sorry.	262840560	1479057501828	1479057501909	l	76
514332	5537274	We lost 1 player this week who picked Baltimore, sorry.	We lost 1 player this week who picked Baltimore, sorry.	262840564	1479057501940	1479057502021	a	65
514332	5537274	We lost 1 player this week who picked Baltimore, sorry.	We lost 1 player this week who picked Baltimore, sorry.	262840569	1479057502060	1479057502141	y	89
514332	5537274	We lost 1 player this week who picked Baltimore, sorry.	We lost 1 player this week who picked Baltimore, sorry.	262840573	1479057502164	1479057502261	e	69
514332	5537274	We lost 1 player this week who picked Baltimore, sorry.	We lost 1 player this week who picked Baltimore, sorry.	262840580	1479057502357	1479057502453	r	82
514332	5537274	We lost 1 player this week who picked Baltimore, sorry.	We lost 1 player this week who picked Baltimore, sorry.	262840581	1479057502493	1479057502629	 	32
514332	5537274	We lost 1 player this week who picked Baltimore, sorry.	We lost 1 player this week who picked Baltimore, sorry.	262840582	1479057502613	1479057502709	t	84
514332	5537274	We lost 1 player this week who picked Baltimore, sorry.	We lost 1 player this week who picked Baltimore, sorry.	262840583	1479057502732	1479057502844	h	72
514332	5537274	We lost 1 player this week who picked Baltimore, sorry.	We lost 1 player this week who picked Baltimore, sorry.	262840585	1479057502884	1479057503005	i	73
514332	5537274	We lost 1 player this week who picked Baltimore, sorry.	We lost 1 player this week who picked Baltimore, sorry.	262840780	1479057503044	1479057509909	s	83
514332	5537274	We lost 1 player this week who picked Baltimore, sorry.	We lost 1 player this week who picked Baltimore, sorry.	262840601	1479057503164	1479057503269	 	32
514332	5537274	We lost 1 player this week who picked Baltimore, sorry.	We lost 1 player this week who picked Baltimore, sorry.	262840602	1479057503293	1479057503429	w	87
514332	5537274	We lost 1 player this week who picked Baltimore, sorry.	We lost 1 player this week who picked Baltimore, sorry.	262840603	1479057503653	1479057503733	e	69
514332	5537274	We lost 1 player this week who picked Baltimore, sorry.	We lost 1 player this week who picked Baltimore, sorry.	262840605	1479057503829	1479057503933	e	69
514332	5537274	We lost 1 player this week who picked Baltimore, sorry.	We lost 1 player this week who picked Baltimore, sorry.	262840627	1479057504213	1479057504293	k	75
514332	5537274	We lost 1 player this week who picked Baltimore, sorry.	We lost 1 player this week who picked Baltimore, sorry.	262840629	1479057504381	1479057504525	 	32
514332	5537274	We lost 1 player this week who picked Baltimore, sorry.	We lost 1 player this week who picked Baltimore, sorry.	262840631	1479057504605	1479057504749	w	87
514332	5537274	We lost 1 player this week who picked Baltimore, sorry.	We lost 1 player this week who picked Baltimore, sorry.	262840633	1479057504765	1479057504821	h	72
514332	5537274	We lost 1 player this week who picked Baltimore, sorry.	We lost 1 player this week who picked Baltimore, sorry.	262840636	1479057505005	1479057505156	o	79
514332	5537274	We lost 1 player this week who picked Baltimore, sorry.	We lost 1 player this week who picked Baltimore, sorry.	262840660	1479057505180	1479057505316	 	32
514332	5537274	We lost 1 player this week who picked Baltimore, sorry.	We lost 1 player this week who picked Baltimore, sorry.	262840662	1479057505813	1479057505892	p	80
514332	5537274	We lost 1 player this week who picked Baltimore, sorry.	We lost 1 player this week who picked Baltimore, sorry.	262840664	1479057506045	1479057506124	i	73
514332	5537274	We lost 1 player this week who picked Baltimore, sorry.	We lost 1 player this week who picked Baltimore, sorry.	262840666	1479057506172	1479057506276	c	67
514332	5537274	We lost 1 player this week who picked Baltimore, sorry.	We lost 1 player this week who picked Baltimore, sorry.	262840668	1479057506324	1479057506420	k	75
514332	5537274	We lost 1 player this week who picked Baltimore, sorry.	We lost 1 player this week who picked Baltimore, sorry.	262840687	1479057506468	1479057506548	e	69
514332	5537274	We lost 1 player this week who picked Baltimore, sorry.	We lost 1 player this week who picked Baltimore, sorry.	262840688	1479057506637	1479057506740	d	68
514332	5537274	We lost 1 player this week who picked Baltimore, sorry.	We lost 1 player this week who picked Baltimore, sorry.	262840689	1479057506756	1479057506916	 	32
514332	5537274	We lost 1 player this week who picked Baltimore, sorry.	We lost 1 player this week who picked Baltimore, sorry.	262840691	1479057506876	1479057507156	SHIFT	16
514332	5537274	We lost 1 player this week who picked Baltimore, sorry.	We lost 1 player this week who picked Baltimore, sorry.	262840690	1479057507036	1479057507116	B	66
514332	5537274	We lost 1 player this week who picked Baltimore, sorry.	We lost 1 player this week who picked Baltimore, sorry.	262840745	1479057507132	1479057507252	A	65
514332	5537274	We lost 1 player this week who picked Baltimore, sorry.	We lost 1 player this week who picked Baltimore, sorry.	262840748	1479057507348	1479057507468	l	76
514332	5537274	We lost 1 player this week who picked Baltimore, sorry.	We lost 1 player this week who picked Baltimore, sorry.	262840751	1479057507870	1479057507949	t	84
514332	5537274	We lost 1 player this week who picked Baltimore, sorry.	We lost 1 player this week who picked Baltimore, sorry.	262840754	1479057507997	1479057508077	i	73
514332	5537274	We lost 1 player this week who picked Baltimore, sorry.	We lost 1 player this week who picked Baltimore, sorry.	262840756	1479057508229	1479057508333	m	77
514332	5537274	We lost 1 player this week who picked Baltimore, sorry.	We lost 1 player this week who picked Baltimore, sorry.	262840757	1479057508381	1479057508501	o	79
514332	5537274	We lost 1 player this week who picked Baltimore, sorry.	We lost 1 player this week who picked Baltimore, sorry.	262840774	1479057508477	1479057508581	r	82
514332	5537274	We lost 1 player this week who picked Baltimore, sorry.	We lost 1 player this week who picked Baltimore, sorry.	262840775	1479057508669	1479057508773	e	69
514332	5537274	We lost 1 player this week who picked Baltimore, sorry.	We lost 1 player this week who picked Baltimore, sorry.	262840776	1479057509541	1479057509621	,	188
514332	5537274	We lost 1 player this week who picked Baltimore, sorry.	We lost 1 player this week who picked Baltimore, sorry.	262840777	1479057509694	1479057509853	 	32
514332	5537274	We lost 1 player this week who picked Baltimore, sorry.	We lost 1 player this week who picked Baltimore, sorry.	262840783	1479057509933	1479057510014	o	79
514332	5537274	We lost 1 player this week who picked Baltimore, sorry.	We lost 1 player this week who picked Baltimore, sorry.	262840874	1479057510118	1479057510213	r	82
514332	5537274	We lost 1 player this week who picked Baltimore, sorry.	We lost 1 player this week who picked Baltimore, sorry.	262840878	1479057510299	1479057510409	r	82
514332	5537274	We lost 1 player this week who picked Baltimore, sorry.	We lost 1 player this week who picked Baltimore, sorry.	262840882	1479057510409	1479057510477	y	89
514332	5537274	We lost 1 player this week who picked Baltimore, sorry.	We lost 1 player this week who picked Baltimore, sorry.	262840885	1479057510925	1479057511005	.	190
514332	5537274	We lost 1 player this week who picked Baltimore, sorry.	We lost 1 player this week who picked Baltimore, sorry.	262840888	1479057513717	1479057513861	BKSP	8
514332	5537274	We lost 1 player this week who picked Baltimore, sorry.	We lost 1 player this week who picked Baltimore, sorry.	262840889	1479057514597	1479057514693	a	65
514332	5537274	We lost 1 player this week who picked Baltimore, sorry.	We lost 1 player this week who picked Baltimore, sorry.	262840939	1479057515445	1479057515565	BKSP	8
514332	5537274	We lost 1 player this week who picked Baltimore, sorry.	We lost 1 player this week who picked Baltimore, sorry.	262840941	1479057515613	1479057515717	BKSP	8
514332	5537274	We lost 1 player this week who picked Baltimore, sorry.	We lost 1 player this week who picked Baltimore, sorry.	262840944	1479057515781	1479057515861	a	65
514332	5537274	We lost 1 player this week who picked Baltimore, sorry.	We lost 1 player this week who picked Baltimore, sorry.	262840948	1479057516502	1479057516581	l	76
