PARTICIPANT_ID	TEST_SECTION_ID	SENTENCE	USER_INPUT	KEYSTROKE_ID	PRESS_TIME	RELEASE_TIME	LETTER	KEYCODE
515423	5550283	Wang said that his release was a miracle.	Wang said that his release was a miracle.	263455532	1479078979518	1479078979709	SHIFT	16
515423	5550283	Wang said that his release was a miracle.	Wang said that his release was a miracle.	263455533	1479078979581	1479078979733	NA	87
515423	5550283	Wang said that his release was a miracle.	Wang said that his release was a miracle.	263455534	1479078979781	1479078979997	NA	65
515423	5550283	Wang said that his release was a miracle.	Wang said that his release was a miracle.	263455535	1479078979909	1479078980029	NA	78
515423	5550283	Wang said that his release was a miracle.	Wang said that his release was a miracle.	263455536	1479078979973	1479078980093	NA	71
515423	5550283	Wang said that his release was a miracle.	Wang said that his release was a miracle.	263455547	1479078980069	1479078980165	NA	32
515423	5550283	Wang said that his release was a miracle.	Wang said that his release was a miracle.	263455551	1479078980157	1479078980389	NA	83
515423	5550283	Wang said that his release was a miracle.	Wang said that his release was a miracle.	263455555	1479078980221	1479078980389	NA	65
515423	5550283	Wang said that his release was a miracle.	Wang said that his release was a miracle.	263455549	1479078980269	1479078980381	NA	73
515423	5550283	Wang said that his release was a miracle.	Wang said that his release was a miracle.	263455557	1479078980317	1479078980453	NA	68
515423	5550283	Wang said that his release was a miracle.	Wang said that his release was a miracle.	263455569	1479078980429	1479078980573	NA	32
515423	5550283	Wang said that his release was a miracle.	Wang said that his release was a miracle.	263455575	1479078980541	1479078980645	NA	84
515423	5550283	Wang said that his release was a miracle.	Wang said that his release was a miracle.	263455581	1479078980589	1479078980741	NA	72
515423	5550283	Wang said that his release was a miracle.	Wang said that his release was a miracle.	263455588	1479078980685	1479078980853	NA	65
515423	5550283	Wang said that his release was a miracle.	Wang said that his release was a miracle.	263455593	1479078980781	1479078980893	NA	84
515423	5550283	Wang said that his release was a miracle.	Wang said that his release was a miracle.	263455604	1479078980853	1479078980973	NA	32
515423	5550283	Wang said that his release was a miracle.	Wang said that his release was a miracle.	263455605	1479078980965	1479078981125	NA	72
515423	5550283	Wang said that his release was a miracle.	Wang said that his release was a miracle.	263455606	1479078981021	1479078981173	NA	73
515423	5550283	Wang said that his release was a miracle.	Wang said that his release was a miracle.	263455607	1479078981069	1479078981229	NA	83
515423	5550283	Wang said that his release was a miracle.	Wang said that his release was a miracle.	263455608	1479078981165	1479078981245	NA	32
515423	5550283	Wang said that his release was a miracle.	Wang said that his release was a miracle.	263455610	1479078981277	1479078981421	NA	82
515423	5550283	Wang said that his release was a miracle.	Wang said that his release was a miracle.	263455628	1479078981349	1479078981477	NA	69
515423	5550283	Wang said that his release was a miracle.	Wang said that his release was a miracle.	263455630	1479078981533	1479078981661	NA	76
515423	5550283	Wang said that his release was a miracle.	Wang said that his release was a miracle.	263455632	1479078981637	1479078981781	NA	69
515423	5550283	Wang said that his release was a miracle.	Wang said that his release was a miracle.	263455635	1479078981725	1479078981941	NA	65
515423	5550283	Wang said that his release was a miracle.	Wang said that his release was a miracle.	263455650	1479078981821	1479078981997	NA	83
515423	5550283	Wang said that his release was a miracle.	Wang said that his release was a miracle.	263455652	1479078981909	1479078982037	NA	69
515423	5550283	Wang said that his release was a miracle.	Wang said that his release was a miracle.	263455654	1479078982013	1479078982133	NA	32
515423	5550283	Wang said that his release was a miracle.	Wang said that his release was a miracle.	263455656	1479078982109	1479078982221	NA	87
515423	5550283	Wang said that his release was a miracle.	Wang said that his release was a miracle.	263455657	1479078982173	1479078982357	NA	65
515423	5550283	Wang said that his release was a miracle.	Wang said that his release was a miracle.	263455658	1479078982293	1479078982421	NA	83
515423	5550283	Wang said that his release was a miracle.	Wang said that his release was a miracle.	263455669	1479078982365	1479078982477	NA	32
515423	5550283	Wang said that his release was a miracle.	Wang said that his release was a miracle.	263455671	1479078982485	1479078982645	NA	65
515423	5550283	Wang said that his release was a miracle.	Wang said that his release was a miracle.	263455674	1479078982589	1479078982693	NA	32
515423	5550283	Wang said that his release was a miracle.	Wang said that his release was a miracle.	263455676	1479078982701	1479078982845	NA	77
515423	5550283	Wang said that his release was a miracle.	Wang said that his release was a miracle.	263455686	1479078982757	1479078982885	NA	73
515423	5550283	Wang said that his release was a miracle.	Wang said that his release was a miracle.	263455689	1479078982837	1479078982933	NA	82
515423	5550283	Wang said that his release was a miracle.	Wang said that his release was a miracle.	263455692	1479078982901	1479078983077	NA	65
515423	5550283	Wang said that his release was a miracle.	Wang said that his release was a miracle.	263455697	1479078983037	1479078983157	NA	67
515423	5550283	Wang said that his release was a miracle.	Wang said that his release was a miracle.	263455699	1479078983109	1479078983229	NA	76
515423	5550283	Wang said that his release was a miracle.	Wang said that his release was a miracle.	263455701	1479078983245	1479078983365	NA	69
515423	5550283	Wang said that his release was a miracle.	Wang said that his release was a miracle.	263455695	1479078983317	1479078983437	NA	190
515423	5550292	Things are crazy for sure!	Things are crazy for sure!	263455792	1479078985645	1479078985837	SHIFT	16
515423	5550292	Things are crazy for sure!	Things are crazy for sure!	263455795	1479078985749	1479078985877	NA	84
515423	5550292	Things are crazy for sure!	Things are crazy for sure!	263455806	1479078985957	1479078986053	NA	72
515423	5550292	Things are crazy for sure!	Things are crazy for sure!	263455812	1479078985981	1479078986149	NA	73
515423	5550292	Things are crazy for sure!	Things are crazy for sure!	263455818	1479078986125	1479078986261	NA	78
515423	5550292	Things are crazy for sure!	Things are crazy for sure!	263455830	1479078986165	1479078986269	NA	71
515423	5550292	Things are crazy for sure!	Things are crazy for sure!	263455832	1479078986221	1479078986365	NA	83
515423	5550292	Things are crazy for sure!	Things are crazy for sure!	263455834	1479078986317	1479078986421	NA	32
515423	5550292	Things are crazy for sure!	Things are crazy for sure!	263455836	1479078986389	1479078986549	NA	65
515423	5550292	Things are crazy for sure!	Things are crazy for sure!	263455838	1479078986501	1479078986605	NA	82
515423	5550292	Things are crazy for sure!	Things are crazy for sure!	263455840	1479078986557	1479078986669	NA	69
515423	5550292	Things are crazy for sure!	Things are crazy for sure!	263455852	1479078986613	1479078986709	NA	32
515423	5550292	Things are crazy for sure!	Things are crazy for sure!	263455854	1479078986717	1479078986808	NA	67
515423	5550292	Things are crazy for sure!	Things are crazy for sure!	263455857	1479078986885	1479078986981	NA	82
515423	5550292	Things are crazy for sure!	Things are crazy for sure!	263455859	1479078986949	1479078987071	NA	65
515423	5550292	Things are crazy for sure!	Things are crazy for sure!	263455861	1479078987149	1479078987277	NA	90
515423	5550292	Things are crazy for sure!	Things are crazy for sure!	263455870	1479078987229	1479078987317	NA	89
515423	5550292	Things are crazy for sure!	Things are crazy for sure!	263455873	1479078987325	1479078987413	NA	32
515423	5550292	Things are crazy for sure!	Things are crazy for sure!	263455877	1479078987405	1479078987509	NA	70
515423	5550292	Things are crazy for sure!	Things are crazy for sure!	263455882	1479078987485	1479078987621	NA	79
515423	5550292	Things are crazy for sure!	Things are crazy for sure!	263455887	1479078987581	1479078987669	NA	82
515423	5550292	Things are crazy for sure!	Things are crazy for sure!	263455926	1479078987653	1479078987733	NA	32
515423	5550292	Things are crazy for sure!	Things are crazy for sure!	263455928	1479078987717	1479078987853	NA	83
515423	5550292	Things are crazy for sure!	Things are crazy for sure!	263455931	1479078987789	1479078987917	NA	85
515423	5550292	Things are crazy for sure!	Things are crazy for sure!	263455935	1479078987861	1479078987981	NA	82
515423	5550292	Things are crazy for sure!	Things are crazy for sure!	263455939	1479078988021	1479078988269	SHIFT	16
515423	5550292	Things are crazy for sure!	Things are crazy for sure!	263455943	1479078988405	1479078988501	NA	69
515423	5550292	Things are crazy for sure!	Things are crazy for sure!	263455945	1479078988549	1479078988709	NA	49
515423	5550292	Things are crazy for sure!	Things are crazy for sure!	263455960	1479078988557	1479078988813	SHIFT	16
515423	5550292	Things are crazy for sure!	Things are crazy for sure!	263455962	1479078989357	1479078989461		8
515423	5550292	Things are crazy for sure!	Things are crazy for sure!	263455965	1479078989597	1479078989741	SHIFT	16
515423	5550292	Things are crazy for sure!	Things are crazy for sure!	263455968	1479078989661	1479078989773	NA	49
515423	5550295	Wayne has not done much yet, so don't put him in your Fantasy lineup.	Wayne has not done much yet, so don't put him in your Fantasy lineup.	263456047	1479078992269	1479078992460	SHIFT	16
515423	5550295	Wayne has not done much yet, so don't put him in your Fantasy lineup.	Wayne has not done much yet, so don't put him in your Fantasy lineup.	263456049	1479078992349	1479078992484	NA	87
515423	5550295	Wayne has not done much yet, so don't put him in your Fantasy lineup.	Wayne has not done much yet, so don't put him in your Fantasy lineup.	263456052	1479078992581	1479078992716	NA	65
515423	5550295	Wayne has not done much yet, so don't put him in your Fantasy lineup.	Wayne has not done much yet, so don't put him in your Fantasy lineup.	263456054	1479078992653	1479078992796	NA	89
515423	5550295	Wayne has not done much yet, so don't put him in your Fantasy lineup.	Wayne has not done much yet, so don't put him in your Fantasy lineup.	263456056	1479078992756	1479078992892	NA	78
515423	5550295	Wayne has not done much yet, so don't put him in your Fantasy lineup.	Wayne has not done much yet, so don't put him in your Fantasy lineup.	263456063	1479078992837	1479078992948	NA	69
515423	5550295	Wayne has not done much yet, so don't put him in your Fantasy lineup.	Wayne has not done much yet, so don't put him in your Fantasy lineup.	263456065	1479078992941	1479078993052	NA	32
515423	5550295	Wayne has not done much yet, so don't put him in your Fantasy lineup.	Wayne has not done much yet, so don't put him in your Fantasy lineup.	263456067	1479078993141	1479078993252	NA	72
515423	5550295	Wayne has not done much yet, so don't put him in your Fantasy lineup.	Wayne has not done much yet, so don't put him in your Fantasy lineup.	263456068	1479078993244	1479078993412	NA	65
515423	5550295	Wayne has not done much yet, so don't put him in your Fantasy lineup.	Wayne has not done much yet, so don't put him in your Fantasy lineup.	263456069	1479078993333	1479078993484	NA	83
515423	5550295	Wayne has not done much yet, so don't put him in your Fantasy lineup.	Wayne has not done much yet, so don't put him in your Fantasy lineup.	263456076	1479078993413	1479078993500	NA	32
515423	5550295	Wayne has not done much yet, so don't put him in your Fantasy lineup.	Wayne has not done much yet, so don't put him in your Fantasy lineup.	263456078	1479078993492	1479078993644	NA	78
515423	5550295	Wayne has not done much yet, so don't put him in your Fantasy lineup.	Wayne has not done much yet, so don't put him in your Fantasy lineup.	263456080	1479078993556	1479078993676	NA	79
515423	5550295	Wayne has not done much yet, so don't put him in your Fantasy lineup.	Wayne has not done much yet, so don't put him in your Fantasy lineup.	263456082	1479078993652	1479078993732	NA	32
515423	5550295	Wayne has not done much yet, so don't put him in your Fantasy lineup.	Wayne has not done much yet, so don't put him in your Fantasy lineup.	263456084	1479078993748	1479078993908	NA	68
515423	5550295	Wayne has not done much yet, so don't put him in your Fantasy lineup.	Wayne has not done much yet, so don't put him in your Fantasy lineup.	263456085	1479078993853	1479078993964	NA	79
515423	5550295	Wayne has not done much yet, so don't put him in your Fantasy lineup.	Wayne has not done much yet, so don't put him in your Fantasy lineup.	263456086	1479078993892	1479078994028	NA	78
515423	5550295	Wayne has not done much yet, so don't put him in your Fantasy lineup.	Wayne has not done much yet, so don't put him in your Fantasy lineup.	263456087	1479078993956	1479078994092	NA	69
515423	5550295	Wayne has not done much yet, so don't put him in your Fantasy lineup.	Wayne has not done much yet, so don't put him in your Fantasy lineup.	263456088	1479078994052	1479078994156	NA	32
515423	5550295	Wayne has not done much yet, so don't put him in your Fantasy lineup.	Wayne has not done much yet, so don't put him in your Fantasy lineup.	263456090	1479078994180	1479078994292	NA	77
515423	5550295	Wayne has not done much yet, so don't put him in your Fantasy lineup.	Wayne has not done much yet, so don't put him in your Fantasy lineup.	263456093	1479078994324	1479078994452	NA	85
515423	5550295	Wayne has not done much yet, so don't put him in your Fantasy lineup.	Wayne has not done much yet, so don't put him in your Fantasy lineup.	263456107	1479078994437	1479078994588	NA	67
515423	5550295	Wayne has not done much yet, so don't put him in your Fantasy lineup.	Wayne has not done much yet, so don't put him in your Fantasy lineup.	263456109	1479078994492	1479078994620	NA	72
515423	5550295	Wayne has not done much yet, so don't put him in your Fantasy lineup.	Wayne has not done much yet, so don't put him in your Fantasy lineup.	263456112	1479078994780	1479078994924	NA	188
515423	5550295	Wayne has not done much yet, so don't put him in your Fantasy lineup.	Wayne has not done much yet, so don't put him in your Fantasy lineup.	263456114	1479078994981	1479078995116	NA	32
515423	5550295	Wayne has not done much yet, so don't put him in your Fantasy lineup.	Wayne has not done much yet, so don't put him in your Fantasy lineup.	263456116	1479078995077	1479078995212	NA	89
515423	5550295	Wayne has not done much yet, so don't put him in your Fantasy lineup.	Wayne has not done much yet, so don't put him in your Fantasy lineup.	263456160	1479078995180	1479078995340	NA	69
515423	5550295	Wayne has not done much yet, so don't put him in your Fantasy lineup.	Wayne has not done much yet, so don't put him in your Fantasy lineup.	263456161	1479078995892	1479078996004		8
515423	5550295	Wayne has not done much yet, so don't put him in your Fantasy lineup.	Wayne has not done much yet, so don't put him in your Fantasy lineup.	263456162	1479078996084	1479078996172		8
515423	5550295	Wayne has not done much yet, so don't put him in your Fantasy lineup.	Wayne has not done much yet, so don't put him in your Fantasy lineup.	263456163	1479078996244	1479078996348		8
515423	5550295	Wayne has not done much yet, so don't put him in your Fantasy lineup.	Wayne has not done much yet, so don't put him in your Fantasy lineup.	263456164	1479078996436	1479078996564		8
515423	5550295	Wayne has not done much yet, so don't put him in your Fantasy lineup.	Wayne has not done much yet, so don't put him in your Fantasy lineup.	263456165	1479078996724	1479078996860	NA	32
515423	5550295	Wayne has not done much yet, so don't put him in your Fantasy lineup.	Wayne has not done much yet, so don't put him in your Fantasy lineup.	263456210	1479078996836	1479078996956	NA	89
515423	5550295	Wayne has not done much yet, so don't put him in your Fantasy lineup.	Wayne has not done much yet, so don't put him in your Fantasy lineup.	263456212	1479078996924	1479078997116	NA	69
515423	5550295	Wayne has not done much yet, so don't put him in your Fantasy lineup.	Wayne has not done much yet, so don't put him in your Fantasy lineup.	263456213	1479078997044	1479078997188	NA	84
515423	5550295	Wayne has not done much yet, so don't put him in your Fantasy lineup.	Wayne has not done much yet, so don't put him in your Fantasy lineup.	263456214	1479078997844	1479078997972	NA	188
515423	5550295	Wayne has not done much yet, so don't put him in your Fantasy lineup.	Wayne has not done much yet, so don't put him in your Fantasy lineup.	263456215	1479078998020	1479078998132	NA	32
515423	5550295	Wayne has not done much yet, so don't put him in your Fantasy lineup.	Wayne has not done much yet, so don't put him in your Fantasy lineup.	263456216	1479078998156	1479078998308	NA	83
515423	5550295	Wayne has not done much yet, so don't put him in your Fantasy lineup.	Wayne has not done much yet, so don't put him in your Fantasy lineup.	263456220	1479078998252	1479078998396	NA	79
515423	5550295	Wayne has not done much yet, so don't put him in your Fantasy lineup.	Wayne has not done much yet, so don't put him in your Fantasy lineup.	263456221	1479078998372	1479078998484	NA	32
515423	5550295	Wayne has not done much yet, so don't put him in your Fantasy lineup.	Wayne has not done much yet, so don't put him in your Fantasy lineup.	263456222	1479078998501	1479078998684	NA	68
515423	5550295	Wayne has not done much yet, so don't put him in your Fantasy lineup.	Wayne has not done much yet, so don't put him in your Fantasy lineup.	263456223	1479078998596	1479078998716	NA	79
515423	5550295	Wayne has not done much yet, so don't put him in your Fantasy lineup.	Wayne has not done much yet, so don't put him in your Fantasy lineup.	263456224	1479078998644	1479078998756	NA	78
515423	5550295	Wayne has not done much yet, so don't put him in your Fantasy lineup.	Wayne has not done much yet, so don't put him in your Fantasy lineup.	263456225	1479078998996	1479078999132	NA	222
515423	5550295	Wayne has not done much yet, so don't put him in your Fantasy lineup.	Wayne has not done much yet, so don't put him in your Fantasy lineup.	263456235	1479078999133	1479078999260	NA	84
515423	5550295	Wayne has not done much yet, so don't put him in your Fantasy lineup.	Wayne has not done much yet, so don't put him in your Fantasy lineup.	263456236	1479078999253	1479078999332	NA	32
515423	5550295	Wayne has not done much yet, so don't put him in your Fantasy lineup.	Wayne has not done much yet, so don't put him in your Fantasy lineup.	263456237	1479078999452	1479078999636	NA	80
515423	5550295	Wayne has not done much yet, so don't put him in your Fantasy lineup.	Wayne has not done much yet, so don't put him in your Fantasy lineup.	263456238	1479078999540	1479078999668	NA	85
515423	5550295	Wayne has not done much yet, so don't put him in your Fantasy lineup.	Wayne has not done much yet, so don't put him in your Fantasy lineup.	263456239	1479078999668	1479078999820	NA	84
515423	5550295	Wayne has not done much yet, so don't put him in your Fantasy lineup.	Wayne has not done much yet, so don't put him in your Fantasy lineup.	263456250	1479078999804	1479078999908	NA	32
515423	5550295	Wayne has not done much yet, so don't put him in your Fantasy lineup.	Wayne has not done much yet, so don't put him in your Fantasy lineup.	263456251	1479078999916	1479079000004	NA	72
515423	5550295	Wayne has not done much yet, so don't put him in your Fantasy lineup.	Wayne has not done much yet, so don't put him in your Fantasy lineup.	263456252	1479078999964	1479079000068	NA	73
515423	5550295	Wayne has not done much yet, so don't put him in your Fantasy lineup.	Wayne has not done much yet, so don't put him in your Fantasy lineup.	263456253	1479079000100	1479079000220	NA	77
515423	5550295	Wayne has not done much yet, so don't put him in your Fantasy lineup.	Wayne has not done much yet, so don't put him in your Fantasy lineup.	263456254	1479079000252	1479079000348	NA	32
515423	5550295	Wayne has not done much yet, so don't put him in your Fantasy lineup.	Wayne has not done much yet, so don't put him in your Fantasy lineup.	263456255	1479079000356	1479079000476	NA	73
515423	5550295	Wayne has not done much yet, so don't put him in your Fantasy lineup.	Wayne has not done much yet, so don't put him in your Fantasy lineup.	263456256	1479079000412	1479079000556	NA	78
515423	5550295	Wayne has not done much yet, so don't put him in your Fantasy lineup.	Wayne has not done much yet, so don't put him in your Fantasy lineup.	263456257	1479079000516	1479079000588	NA	32
515423	5550295	Wayne has not done much yet, so don't put him in your Fantasy lineup.	Wayne has not done much yet, so don't put him in your Fantasy lineup.	263456258	1479079000620	1479079000756	NA	89
515423	5550295	Wayne has not done much yet, so don't put him in your Fantasy lineup.	Wayne has not done much yet, so don't put him in your Fantasy lineup.	263456259	1479079000700	1479079000876	NA	79
515423	5550295	Wayne has not done much yet, so don't put him in your Fantasy lineup.	Wayne has not done much yet, so don't put him in your Fantasy lineup.	263456282	1479079000772	1479079000900	NA	85
515423	5550295	Wayne has not done much yet, so don't put him in your Fantasy lineup.	Wayne has not done much yet, so don't put him in your Fantasy lineup.	263456283	1479079000844	1479079000948	NA	82
515423	5550295	Wayne has not done much yet, so don't put him in your Fantasy lineup.	Wayne has not done much yet, so don't put him in your Fantasy lineup.	263456284	1479079000932	1479079001004	NA	32
515423	5550295	Wayne has not done much yet, so don't put him in your Fantasy lineup.	Wayne has not done much yet, so don't put him in your Fantasy lineup.	263456286	1479079001428	1479079001612	SHIFT	16
515423	5550295	Wayne has not done much yet, so don't put him in your Fantasy lineup.	Wayne has not done much yet, so don't put him in your Fantasy lineup.	263456285	1479079001492	1479079001588	NA	70
515423	5550295	Wayne has not done much yet, so don't put him in your Fantasy lineup.	Wayne has not done much yet, so don't put him in your Fantasy lineup.	263456287	1479079001644	1479079001812	NA	65
515423	5550295	Wayne has not done much yet, so don't put him in your Fantasy lineup.	Wayne has not done much yet, so don't put him in your Fantasy lineup.	263456288	1479079001732	1479079001868	NA	78
515423	5550295	Wayne has not done much yet, so don't put him in your Fantasy lineup.	Wayne has not done much yet, so don't put him in your Fantasy lineup.	263456302	1479079001852	1479079001964	NA	84
515423	5550295	Wayne has not done much yet, so don't put him in your Fantasy lineup.	Wayne has not done much yet, so don't put him in your Fantasy lineup.	263456303	1479079001948	1479079002100	NA	65
515423	5550295	Wayne has not done much yet, so don't put him in your Fantasy lineup.	Wayne has not done much yet, so don't put him in your Fantasy lineup.	263456304	1479079002060	1479079002212	NA	83
515423	5550295	Wayne has not done much yet, so don't put him in your Fantasy lineup.	Wayne has not done much yet, so don't put him in your Fantasy lineup.	263456305	1479079002212	1479079002332	NA	89
515423	5550295	Wayne has not done much yet, so don't put him in your Fantasy lineup.	Wayne has not done much yet, so don't put him in your Fantasy lineup.	263456306	1479079002628	1479079002740	NA	32
515423	5550295	Wayne has not done much yet, so don't put him in your Fantasy lineup.	Wayne has not done much yet, so don't put him in your Fantasy lineup.	263456307	1479079002716	1479079002956	SHIFT	16
515423	5550295	Wayne has not done much yet, so don't put him in your Fantasy lineup.	Wayne has not done much yet, so don't put him in your Fantasy lineup.	263456337	1479079002812	1479079002957	NA	76
515423	5550295	Wayne has not done much yet, so don't put him in your Fantasy lineup.	Wayne has not done much yet, so don't put him in your Fantasy lineup.	263456339	1479079003340	1479079003476		8
515423	5550295	Wayne has not done much yet, so don't put him in your Fantasy lineup.	Wayne has not done much yet, so don't put him in your Fantasy lineup.	263456341	1479079003788	1479079003892	NA	76
515423	5550295	Wayne has not done much yet, so don't put him in your Fantasy lineup.	Wayne has not done much yet, so don't put him in your Fantasy lineup.	263456343	1479079003980	1479079004068	NA	73
515423	5550295	Wayne has not done much yet, so don't put him in your Fantasy lineup.	Wayne has not done much yet, so don't put him in your Fantasy lineup.	263456344	1479079004156	1479079004244	NA	78
515423	5550295	Wayne has not done much yet, so don't put him in your Fantasy lineup.	Wayne has not done much yet, so don't put him in your Fantasy lineup.	263456354	1479079004220	1479079004412	NA	69
515423	5550295	Wayne has not done much yet, so don't put him in your Fantasy lineup.	Wayne has not done much yet, so don't put him in your Fantasy lineup.	263456357	1479079004332	1479079004468	NA	85
515423	5550295	Wayne has not done much yet, so don't put him in your Fantasy lineup.	Wayne has not done much yet, so don't put him in your Fantasy lineup.	263456360	1479079004420	1479079004532	NA	80
515423	5550295	Wayne has not done much yet, so don't put him in your Fantasy lineup.	Wayne has not done much yet, so don't put him in your Fantasy lineup.	263456361	1479079004620	1479079004716	NA	190
515423	5550305	Very truly yours, Acme Costume Co.	Very truly yours, Acme Costume Co.	263456421	1479079007196	1479079007388	SHIFT	16
515423	5550305	Very truly yours, Acme Costume Co.	Very truly yours, Acme Costume Co.	263456425	1479079007276	1479079007404	NA	86
515423	5550305	Very truly yours, Acme Costume Co.	Very truly yours, Acme Costume Co.	263456429	1479079007444	1479079007620	NA	69
515423	5550305	Very truly yours, Acme Costume Co.	Very truly yours, Acme Costume Co.	263456433	1479079007540	1479079007652	NA	82
515423	5550305	Very truly yours, Acme Costume Co.	Very truly yours, Acme Costume Co.	263456436	1479079007724	1479079007828	NA	89
515423	5550305	Very truly yours, Acme Costume Co.	Very truly yours, Acme Costume Co.	263456451	1479079007812	1479079007924	NA	32
515423	5550305	Very truly yours, Acme Costume Co.	Very truly yours, Acme Costume Co.	263456452	1479079008084	1479079008172	NA	84
515423	5550305	Very truly yours, Acme Costume Co.	Very truly yours, Acme Costume Co.	263456454	1479079008252	1479079008364	NA	82
515423	5550305	Very truly yours, Acme Costume Co.	Very truly yours, Acme Costume Co.	263456456	1479079008324	1479079008436	NA	85
515423	5550305	Very truly yours, Acme Costume Co.	Very truly yours, Acme Costume Co.	263456458	1479079008524	1479079008572	NA	69
515423	5550305	Very truly yours, Acme Costume Co.	Very truly yours, Acme Costume Co.	263456460	1479079008876	1479079008980		8
515423	5550305	Very truly yours, Acme Costume Co.	Very truly yours, Acme Costume Co.	263456472	1479079009060	1479079009180	NA	76
515423	5550305	Very truly yours, Acme Costume Co.	Very truly yours, Acme Costume Co.	263456474	1479079009164	1479079009292	NA	89
515423	5550305	Very truly yours, Acme Costume Co.	Very truly yours, Acme Costume Co.	263456475	1479079009260	1479079009356	NA	32
515423	5550305	Very truly yours, Acme Costume Co.	Very truly yours, Acme Costume Co.	263456476	1479079009500	1479079009612	NA	89
515423	5550305	Very truly yours, Acme Costume Co.	Very truly yours, Acme Costume Co.	263456483	1479079009580	1479079009764	NA	79
515423	5550305	Very truly yours, Acme Costume Co.	Very truly yours, Acme Costume Co.	263456485	1479079009668	1479079009788	NA	85
515423	5550305	Very truly yours, Acme Costume Co.	Very truly yours, Acme Costume Co.	263456488	1479079009748	1479079009884	NA	82
515423	5550305	Very truly yours, Acme Costume Co.	Very truly yours, Acme Costume Co.	263456493	1479079009844	1479079009972	NA	83
515423	5550305	Very truly yours, Acme Costume Co.	Very truly yours, Acme Costume Co.	263456498	1479079009972	1479079010100	NA	188
515423	5550305	Very truly yours, Acme Costume Co.	Very truly yours, Acme Costume Co.	263456502	1479079010196	1479079010276	NA	32
515423	5550305	Very truly yours, Acme Costume Co.	Very truly yours, Acme Costume Co.	263456516	1479079010284	1479079010468	SHIFT	16
515423	5550305	Very truly yours, Acme Costume Co.	Very truly yours, Acme Costume Co.	263456517	1479079010348	1479079010492	NA	65
515423	5550305	Very truly yours, Acme Costume Co.	Very truly yours, Acme Costume Co.	263456518	1479079010612	1479079010748	NA	67
515423	5550305	Very truly yours, Acme Costume Co.	Very truly yours, Acme Costume Co.	263456519	1479079010732	1479079010876	NA	77
515423	5550305	Very truly yours, Acme Costume Co.	Very truly yours, Acme Costume Co.	263456520	1479079010844	1479079010964	NA	69
515423	5550305	Very truly yours, Acme Costume Co.	Very truly yours, Acme Costume Co.	263456528	1479079010956	1479079011036	NA	32
515423	5550305	Very truly yours, Acme Costume Co.	Very truly yours, Acme Costume Co.	263456530	1479079011100	1479079011428	SHIFT	16
515423	5550305	Very truly yours, Acme Costume Co.	Very truly yours, Acme Costume Co.	263456532	1479079011324	1479079011460	NA	67
515423	5550305	Very truly yours, Acme Costume Co.	Very truly yours, Acme Costume Co.	263456534	1479079011532	1479079011636	NA	79
515423	5550305	Very truly yours, Acme Costume Co.	Very truly yours, Acme Costume Co.	263456537	1479079011620	1479079011796	NA	83
515423	5550305	Very truly yours, Acme Costume Co.	Very truly yours, Acme Costume Co.	263456540	1479079011748	1479079011916	NA	84
515423	5550305	Very truly yours, Acme Costume Co.	Very truly yours, Acme Costume Co.	263456556	1479079011812	1479079011924	NA	85
515423	5550305	Very truly yours, Acme Costume Co.	Very truly yours, Acme Costume Co.	263456557	1479079012004	1479079012116	NA	77
515423	5550305	Very truly yours, Acme Costume Co.	Very truly yours, Acme Costume Co.	263456558	1479079012084	1479079012204	NA	69
515423	5550305	Very truly yours, Acme Costume Co.	Very truly yours, Acme Costume Co.	263456560	1479079012340	1479079012420	NA	32
515423	5550305	Very truly yours, Acme Costume Co.	Very truly yours, Acme Costume Co.	263456562	1479079012508	1479079012668	SHIFT	16
515423	5550305	Very truly yours, Acme Costume Co.	Very truly yours, Acme Costume Co.	263456565	1479079012596	1479079012708	NA	67
515423	5550305	Very truly yours, Acme Costume Co.	Very truly yours, Acme Costume Co.	263456569	1479079012748	1479079012852	NA	79
515423	5550305	Very truly yours, Acme Costume Co.	Very truly yours, Acme Costume Co.	263456578	1479079012948	1479079013044	NA	190
515423	5550309	Using Stoerner in your starting lineup would be a risky move.	Using Stoerner in your starting lineup would be a risky move.	263456678	1479079015332	1479079015748	SHIFT	16
515423	5550309	Using Stoerner in your starting lineup would be a risky move.	Using Stoerner in your starting lineup would be a risky move.	263456680	1479079015604	1479079015756	NA	85
515423	5550309	Using Stoerner in your starting lineup would be a risky move.	Using Stoerner in your starting lineup would be a risky move.	263456683	1479079015884	1479079016028	NA	83
515423	5550309	Using Stoerner in your starting lineup would be a risky move.	Using Stoerner in your starting lineup would be a risky move.	263456686	1479079016532	1479079016660	NA	73
515423	5550309	Using Stoerner in your starting lineup would be a risky move.	Using Stoerner in your starting lineup would be a risky move.	263456689	1479079016612	1479079016780	NA	78
515423	5550309	Using Stoerner in your starting lineup would be a risky move.	Using Stoerner in your starting lineup would be a risky move.	263456712	1479079016724	1479079016844	NA	71
515423	5550309	Using Stoerner in your starting lineup would be a risky move.	Using Stoerner in your starting lineup would be a risky move.	263456715	1479079016820	1479079016916	NA	32
515423	5550309	Using Stoerner in your starting lineup would be a risky move.	Using Stoerner in your starting lineup would be a risky move.	263456723	1479079016980	1479079017180	SHIFT	16
515423	5550309	Using Stoerner in your starting lineup would be a risky move.	Using Stoerner in your starting lineup would be a risky move.	263456728	1479079017052	1479079017236	NA	83
515423	5550309	Using Stoerner in your starting lineup would be a risky move.	Using Stoerner in your starting lineup would be a risky move.	263456734	1479079017300	1479079017428	NA	84
515423	5550309	Using Stoerner in your starting lineup would be a risky move.	Using Stoerner in your starting lineup would be a risky move.	263456740	1479079017420	1479079017564	NA	79
515423	5550309	Using Stoerner in your starting lineup would be a risky move.	Using Stoerner in your starting lineup would be a risky move.	263456742	1479079017924	1479079018044	NA	69
515423	5550309	Using Stoerner in your starting lineup would be a risky move.	Using Stoerner in your starting lineup would be a risky move.	263456760	1479079018284	1479079018420	NA	82
515423	5550309	Using Stoerner in your starting lineup would be a risky move.	Using Stoerner in your starting lineup would be a risky move.	263456761	1479079018396	1479079018556	NA	78
515423	5550309	Using Stoerner in your starting lineup would be a risky move.	Using Stoerner in your starting lineup would be a risky move.	263456762	1479079018524	1479079018740	NA	69
515423	5550309	Using Stoerner in your starting lineup would be a risky move.	Using Stoerner in your starting lineup would be a risky move.	263456763	1479079018588	1479079018740	NA	82
515423	5550309	Using Stoerner in your starting lineup would be a risky move.	Using Stoerner in your starting lineup would be a risky move.	263456764	1479079018740	1479079018844	NA	32
515423	5550309	Using Stoerner in your starting lineup would be a risky move.	Using Stoerner in your starting lineup would be a risky move.	263456770	1479079018932	1479079019052	NA	73
515423	5550309	Using Stoerner in your starting lineup would be a risky move.	Using Stoerner in your starting lineup would be a risky move.	263456771	1479079018980	1479079019132	NA	78
515423	5550309	Using Stoerner in your starting lineup would be a risky move.	Using Stoerner in your starting lineup would be a risky move.	263456776	1479079019036	1479079019172	NA	32
515423	5550309	Using Stoerner in your starting lineup would be a risky move.	Using Stoerner in your starting lineup would be a risky move.	263456779	1479079019132	1479079019244	NA	89
515423	5550309	Using Stoerner in your starting lineup would be a risky move.	Using Stoerner in your starting lineup would be a risky move.	263456785	1479079019196	1479079019380	NA	79
515423	5550309	Using Stoerner in your starting lineup would be a risky move.	Using Stoerner in your starting lineup would be a risky move.	263456787	1479079019292	1479079019428	NA	85
515423	5550309	Using Stoerner in your starting lineup would be a risky move.	Using Stoerner in your starting lineup would be a risky move.	263456789	1479079019348	1479079019476	NA	82
515423	5550309	Using Stoerner in your starting lineup would be a risky move.	Using Stoerner in your starting lineup would be a risky move.	263456791	1479079019436	1479079019540	NA	32
515423	5550309	Using Stoerner in your starting lineup would be a risky move.	Using Stoerner in your starting lineup would be a risky move.	263456794	1479079019532	1479079019684	NA	83
515423	5550309	Using Stoerner in your starting lineup would be a risky move.	Using Stoerner in your starting lineup would be a risky move.	263456825	1479079019644	1479079019772	NA	84
515423	5550309	Using Stoerner in your starting lineup would be a risky move.	Using Stoerner in your starting lineup would be a risky move.	263456827	1479079019740	1479079019948	NA	65
515423	5550309	Using Stoerner in your starting lineup would be a risky move.	Using Stoerner in your starting lineup would be a risky move.	263456828	1479079019980	1479079020068	NA	82
515423	5550309	Using Stoerner in your starting lineup would be a risky move.	Using Stoerner in your starting lineup would be a risky move.	263456830	1479079020468	1479079020604	NA	84
515423	5550309	Using Stoerner in your starting lineup would be a risky move.	Using Stoerner in your starting lineup would be a risky move.	263456831	1479079020588	1479079020724	NA	73
515423	5550309	Using Stoerner in your starting lineup would be a risky move.	Using Stoerner in your starting lineup would be a risky move.	263456843	1479079020660	1479079020796	NA	78
515423	5550309	Using Stoerner in your starting lineup would be a risky move.	Using Stoerner in your starting lineup would be a risky move.	263456845	1479079020732	1479079020828	NA	71
515423	5550309	Using Stoerner in your starting lineup would be a risky move.	Using Stoerner in your starting lineup would be a risky move.	263456848	1479079020796	1479079020916	NA	32
515423	5550309	Using Stoerner in your starting lineup would be a risky move.	Using Stoerner in your starting lineup would be a risky move.	263456850	1479079020916	1479079021012	NA	76
515423	5550309	Using Stoerner in your starting lineup would be a risky move.	Using Stoerner in your starting lineup would be a risky move.	263456852	1479079021084	1479079021163	NA	73
515423	5550309	Using Stoerner in your starting lineup would be a risky move.	Using Stoerner in your starting lineup would be a risky move.	263456853	1479079021236	1479079021363	NA	78
515423	5550309	Using Stoerner in your starting lineup would be a risky move.	Using Stoerner in your starting lineup would be a risky move.	263456884	1479079021292	1479079021468	NA	69
515423	5550309	Using Stoerner in your starting lineup would be a risky move.	Using Stoerner in your starting lineup would be a risky move.	263456886	1479079021460	1479079021595	NA	85
515423	5550309	Using Stoerner in your starting lineup would be a risky move.	Using Stoerner in your starting lineup would be a risky move.	263456890	1479079021540	1479079021684	NA	80
515423	5550309	Using Stoerner in your starting lineup would be a risky move.	Using Stoerner in your starting lineup would be a risky move.	263456894	1479079022260	1479079022364	NA	32
515423	5550309	Using Stoerner in your starting lineup would be a risky move.	Using Stoerner in your starting lineup would be a risky move.	263456897	1479079022348	1479079022499	NA	87
515423	5550309	Using Stoerner in your starting lineup would be a risky move.	Using Stoerner in your starting lineup would be a risky move.	263456911	1479079022420	1479079022564	NA	79
515423	5550309	Using Stoerner in your starting lineup would be a risky move.	Using Stoerner in your starting lineup would be a risky move.	263456916	1479079022484	1479079022604	NA	85
515423	5550309	Using Stoerner in your starting lineup would be a risky move.	Using Stoerner in your starting lineup would be a risky move.	263456920	1479079022836	1479079022964	NA	76
515423	5550309	Using Stoerner in your starting lineup would be a risky move.	Using Stoerner in your starting lineup would be a risky move.	263456926	1479079022948	1479079023075	NA	68
515423	5550309	Using Stoerner in your starting lineup would be a risky move.	Using Stoerner in your starting lineup would be a risky move.	263456930	1479079023036	1479079023171	NA	32
515423	5550309	Using Stoerner in your starting lineup would be a risky move.	Using Stoerner in your starting lineup would be a risky move.	263456934	1479079023180	1479079023284	NA	66
515423	5550309	Using Stoerner in your starting lineup would be a risky move.	Using Stoerner in your starting lineup would be a risky move.	263456942	1479079023244	1479079023356	NA	69
515423	5550309	Using Stoerner in your starting lineup would be a risky move.	Using Stoerner in your starting lineup would be a risky move.	263456944	1479079023308	1479079023411	NA	32
515423	5550309	Using Stoerner in your starting lineup would be a risky move.	Using Stoerner in your starting lineup would be a risky move.	263456947	1479079023419	1479079023595	NA	65
515423	5550309	Using Stoerner in your starting lineup would be a risky move.	Using Stoerner in your starting lineup would be a risky move.	263456949	1479079023532	1479079023636	NA	32
515423	5550309	Using Stoerner in your starting lineup would be a risky move.	Using Stoerner in your starting lineup would be a risky move.	263456951	1479079023652	1479079023780	NA	82
515423	5550309	Using Stoerner in your starting lineup would be a risky move.	Using Stoerner in your starting lineup would be a risky move.	263456978	1479079023764	1479079023868	NA	73
515423	5550309	Using Stoerner in your starting lineup would be a risky move.	Using Stoerner in your starting lineup would be a risky move.	263456979	1479079023900	1479079024043	NA	83
515423	5550309	Using Stoerner in your starting lineup would be a risky move.	Using Stoerner in your starting lineup would be a risky move.	263456981	1479079023996	1479079024132	NA	75
515423	5550309	Using Stoerner in your starting lineup would be a risky move.	Using Stoerner in your starting lineup would be a risky move.	263456983	1479079024140	1479079024275	NA	89
515423	5550309	Using Stoerner in your starting lineup would be a risky move.	Using Stoerner in your starting lineup would be a risky move.	263456985	1479079024260	1479079024355	NA	32
515423	5550309	Using Stoerner in your starting lineup would be a risky move.	Using Stoerner in your starting lineup would be a risky move.	263456988	1479079024596	1479079024747	NA	77
515423	5550309	Using Stoerner in your starting lineup would be a risky move.	Using Stoerner in your starting lineup would be a risky move.	263456991	1479079024675	1479079024812	NA	79
515423	5550309	Using Stoerner in your starting lineup would be a risky move.	Using Stoerner in your starting lineup would be a risky move.	263456995	1479079024772	1479079024907	NA	86
515423	5550309	Using Stoerner in your starting lineup would be a risky move.	Using Stoerner in your starting lineup would be a risky move.	263457001	1479079024852	1479079024995	NA	69
515423	5550309	Using Stoerner in your starting lineup would be a risky move.	Using Stoerner in your starting lineup would be a risky move.	263457006	1479079024948	1479079025036	NA	190
515423	5550316	The informal costs have to disappear.	The informal costs have to disappear.	263457083	1479079027611	1479079027827	SHIFT	16
515423	5550316	The informal costs have to disappear.	The informal costs have to disappear.	263457084	1479079027699	1479079027843	NA	84
515423	5550316	The informal costs have to disappear.	The informal costs have to disappear.	263457087	1479079027915	1479079028035	NA	72
515423	5550316	The informal costs have to disappear.	The informal costs have to disappear.	263457090	1479079027979	1479079028131	NA	69
515423	5550316	The informal costs have to disappear.	The informal costs have to disappear.	263457093	1479079028059	1479079028179	NA	32
515423	5550316	The informal costs have to disappear.	The informal costs have to disappear.	263457106	1479079028163	1479079028291	NA	73
515423	5550316	The informal costs have to disappear.	The informal costs have to disappear.	263457107	1479079028211	1479079028331	NA	78
515423	5550316	The informal costs have to disappear.	The informal costs have to disappear.	263457108	1479079028283	1479079028459	NA	70
515423	5550316	The informal costs have to disappear.	The informal costs have to disappear.	263457109	1479079028443	1479079028587	NA	79
515423	5550316	The informal costs have to disappear.	The informal costs have to disappear.	263457110	1479079028611	1479079028747	NA	82
515423	5550316	The informal costs have to disappear.	The informal costs have to disappear.	263457111	1479079028755	1479079028875	NA	77
515423	5550316	The informal costs have to disappear.	The informal costs have to disappear.	263457118	1479079028883	1479079029059	NA	65
515423	5550316	The informal costs have to disappear.	The informal costs have to disappear.	263457120	1479079029003	1479079029123	NA	76
515423	5550316	The informal costs have to disappear.	The informal costs have to disappear.	263457122	1479079029099	1479079029195	NA	32
515423	5550316	The informal costs have to disappear.	The informal costs have to disappear.	263457124	1479079029411	1479079029499	NA	79
515423	5550316	The informal costs have to disappear.	The informal costs have to disappear.	263457126	1479079029731	1479079029835		8
515423	5550316	The informal costs have to disappear.	The informal costs have to disappear.	263457139	1479079029827	1479079029963	NA	67
515423	5550316	The informal costs have to disappear.	The informal costs have to disappear.	263457141	1479079029931	1479079030051	NA	79
515423	5550316	The informal costs have to disappear.	The informal costs have to disappear.	263457142	1479079030067	1479079030219	NA	83
515423	5550316	The informal costs have to disappear.	The informal costs have to disappear.	263457143	1479079030523	1479079030667	NA	84
515423	5550316	The informal costs have to disappear.	The informal costs have to disappear.	263457144	1479079030651	1479079030811	NA	83
515423	5550316	The informal costs have to disappear.	The informal costs have to disappear.	263457145	1479079030835	1479079030923	NA	32
515423	5550316	The informal costs have to disappear.	The informal costs have to disappear.	263457156	1479079031035	1479079031131	NA	72
515423	5550316	The informal costs have to disappear.	The informal costs have to disappear.	263457159	1479079031115	1479079031267	NA	65
515423	5550316	The informal costs have to disappear.	The informal costs have to disappear.	263457162	1479079031243	1479079031363	NA	86
515423	5550316	The informal costs have to disappear.	The informal costs have to disappear.	263457165	1479079031299	1479079031443	NA	69
515423	5550316	The informal costs have to disappear.	The informal costs have to disappear.	263457178	1479079031387	1479079031515	NA	32
515423	5550316	The informal costs have to disappear.	The informal costs have to disappear.	263457180	1479079031491	1479079031595	NA	84
515423	5550316	The informal costs have to disappear.	The informal costs have to disappear.	263457183	1479079031571	1479079031691	NA	79
515423	5550316	The informal costs have to disappear.	The informal costs have to disappear.	263457185	1479079031619	1479079031707	NA	32
515423	5550316	The informal costs have to disappear.	The informal costs have to disappear.	263457187	1479079031692	1479079031811	NA	68
515423	5550316	The informal costs have to disappear.	The informal costs have to disappear.	263457190	1479079031827	1479079031955	NA	73
515423	5550316	The informal costs have to disappear.	The informal costs have to disappear.	263457223	1479079031923	1479079032051	NA	83
515423	5550316	The informal costs have to disappear.	The informal costs have to disappear.	263457226	1479079032203	1479079032387	NA	65
515423	5550316	The informal costs have to disappear.	The informal costs have to disappear.	263457229	1479079032339	1479079032411	NA	80
515423	5550316	The informal costs have to disappear.	The informal costs have to disappear.	263457231	1479079032491	1479079032651	NA	80
515423	5550316	The informal costs have to disappear.	The informal costs have to disappear.	263457234	1479079032675	1479079032923	NA	69
515423	5550316	The informal costs have to disappear.	The informal costs have to disappear.	263457260	1479079032771	1479079032931	NA	65
515423	5550316	The informal costs have to disappear.	The informal costs have to disappear.	263457262	1479079032867	1479079033027	NA	82
515423	5550316	The informal costs have to disappear.	The informal costs have to disappear.	263457263	1479079033028	1479079033179	NA	190
515423	5550326	Go for the dollars.	Go for the dollars.	263457359	1479079036387	1479079036595	SHIFT	16
515423	5550326	Go for the dollars.	Go for the dollars.	263457363	1479079036467	1479079036611	NA	71
515423	5550326	Go for the dollars.	Go for the dollars.	263457365	1479079036667	1479079036787	NA	79
515423	5550326	Go for the dollars.	Go for the dollars.	263457368	1479079036763	1479079036907	NA	32
515423	5550326	Go for the dollars.	Go for the dollars.	263457370	1479079036843	1479079036931	NA	70
515423	5550326	Go for the dollars.	Go for the dollars.	263457379	1479079036907	1479079037043	NA	79
515423	5550326	Go for the dollars.	Go for the dollars.	263457382	1479079037003	1479079037115	NA	82
515423	5550326	Go for the dollars.	Go for the dollars.	263457384	1479079037083	1479079037219	NA	32
515423	5550326	Go for the dollars.	Go for the dollars.	263457387	1479079037187	1479079037307	NA	84
515423	5550326	Go for the dollars.	Go for the dollars.	263457411	1479079037227	1479079037379	NA	72
515423	5550326	Go for the dollars.	Go for the dollars.	263457414	1479079037299	1479079037435	NA	69
515423	5550326	Go for the dollars.	Go for the dollars.	263457415	1479079037371	1479079037459	NA	32
515423	5550326	Go for the dollars.	Go for the dollars.	263457418	1479079037475	1479079037619	NA	68
515423	5550326	Go for the dollars.	Go for the dollars.	263457420	1479079037547	1479079037651	NA	79
515423	5550326	Go for the dollars.	Go for the dollars.	263457421	1479079037747	1479079037859	NA	65
515423	5550326	Go for the dollars.	Go for the dollars.	263457422	1479079038139	1479079038235		8
515423	5550326	Go for the dollars.	Go for the dollars.	263457445	1479079038315	1479079038395	NA	76
515423	5550326	Go for the dollars.	Go for the dollars.	263457448	1479079038411	1479079038539	NA	65
515423	5550326	Go for the dollars.	Go for the dollars.	263457453	1479079038875	1479079038995		8
515423	5550326	Go for the dollars.	Go for the dollars.	263457458	1479079039067	1479079039171	NA	76
515423	5550326	Go for the dollars.	Go for the dollars.	263457487	1479079039123	1479079039307	NA	65
515423	5550326	Go for the dollars.	Go for the dollars.	263457488	1479079039283	1479079039427	NA	82
515423	5550326	Go for the dollars.	Go for the dollars.	263457489	1479079039387	1479079039531	NA	83
515423	5550326	Go for the dollars.	Go for the dollars.	263457490	1479079039523	1479079039651	NA	190
515423	5550331	Reserve Heap on your roster this week.	Reserve Heap on your roster this week.	263457633	1479079042547	1479079042755	SHIFT	16
515423	5550331	Reserve Heap on your roster this week.	Reserve Heap on your roster this week.	263457634	1479079042635	1479079042771	NA	82
515423	5550331	Reserve Heap on your roster this week.	Reserve Heap on your roster this week.	263457635	1479079042835	1479079042923	NA	69
515423	5550331	Reserve Heap on your roster this week.	Reserve Heap on your roster this week.	263457637	1479079043011	1479079043107	NA	83
515423	5550331	Reserve Heap on your roster this week.	Reserve Heap on your roster this week.	263457639	1479079043187	1479079043339	NA	69
515423	5550331	Reserve Heap on your roster this week.	Reserve Heap on your roster this week.	263457662	1479079043251	1479079043347	NA	82
515423	5550331	Reserve Heap on your roster this week.	Reserve Heap on your roster this week.	263457663	1479079043427	1479079043547	NA	86
515423	5550331	Reserve Heap on your roster this week.	Reserve Heap on your roster this week.	263457664	1479079043507	1479079043635	NA	69
515423	5550331	Reserve Heap on your roster this week.	Reserve Heap on your roster this week.	263457665	1479079043579	1479079043723	NA	32
515423	5550331	Reserve Heap on your roster this week.	Reserve Heap on your roster this week.	263457668	1479079043811	1479079043987	SHIFT	16
515423	5550331	Reserve Heap on your roster this week.	Reserve Heap on your roster this week.	263457666	1479079043851	1479079043971	NA	72
515423	5550331	Reserve Heap on your roster this week.	Reserve Heap on your roster this week.	263457670	1479079044011	1479079044187	NA	69
515423	5550331	Reserve Heap on your roster this week.	Reserve Heap on your roster this week.	263457673	1479079044083	1479079044259	NA	65
515423	5550331	Reserve Heap on your roster this week.	Reserve Heap on your roster this week.	263457674	1479079044163	1479079044299	NA	80
515423	5550331	Reserve Heap on your roster this week.	Reserve Heap on your roster this week.	263457675	1479079044291	1479079044403	NA	32
515423	5550331	Reserve Heap on your roster this week.	Reserve Heap on your roster this week.	263457676	1479079044435	1479079044555	NA	79
515423	5550331	Reserve Heap on your roster this week.	Reserve Heap on your roster this week.	263457677	1479079044475	1479079044619	NA	78
515423	5550331	Reserve Heap on your roster this week.	Reserve Heap on your roster this week.	263457678	1479079044523	1479079044659	NA	32
515423	5550331	Reserve Heap on your roster this week.	Reserve Heap on your roster this week.	263457693	1479079044619	1479079044731	NA	89
515423	5550331	Reserve Heap on your roster this week.	Reserve Heap on your roster this week.	263457695	1479079044707	1479079044859	NA	79
515423	5550331	Reserve Heap on your roster this week.	Reserve Heap on your roster this week.	263457697	1479079044771	1479079044915	NA	85
515423	5550331	Reserve Heap on your roster this week.	Reserve Heap on your roster this week.	263457699	1479079044827	1479079044939	NA	82
515423	5550331	Reserve Heap on your roster this week.	Reserve Heap on your roster this week.	263457702	1479079044923	1479079044995	NA	32
515423	5550331	Reserve Heap on your roster this week.	Reserve Heap on your roster this week.	263457705	1479079045051	1479079045155	NA	82
515423	5550331	Reserve Heap on your roster this week.	Reserve Heap on your roster this week.	263457717	1479079045171	1479079045307	NA	79
515423	5550331	Reserve Heap on your roster this week.	Reserve Heap on your roster this week.	263457718	1479079045259	1479079045403	NA	83
515423	5550331	Reserve Heap on your roster this week.	Reserve Heap on your roster this week.	263457719	1479079045371	1479079045507	NA	84
515423	5550331	Reserve Heap on your roster this week.	Reserve Heap on your roster this week.	263457721	1479079045483	1479079045659	NA	69
515423	5550331	Reserve Heap on your roster this week.	Reserve Heap on your roster this week.	263457732	1479079045587	1479079045691	NA	82
515423	5550331	Reserve Heap on your roster this week.	Reserve Heap on your roster this week.	263457735	1479079045660	1479079045747	NA	32
515423	5550331	Reserve Heap on your roster this week.	Reserve Heap on your roster this week.	263457738	1479079045795	1479079045907	NA	84
515423	5550331	Reserve Heap on your roster this week.	Reserve Heap on your roster this week.	263457741	1479079045859	1479079046003	NA	72
515423	5550331	Reserve Heap on your roster this week.	Reserve Heap on your roster this week.	263457757	1479079045899	1479079046051	NA	73
515423	5550331	Reserve Heap on your roster this week.	Reserve Heap on your roster this week.	263457759	1479079045971	1479079046083	NA	83
515423	5550331	Reserve Heap on your roster this week.	Reserve Heap on your roster this week.	263457762	1479079046043	1479079046139	NA	32
515423	5550331	Reserve Heap on your roster this week.	Reserve Heap on your roster this week.	263457763	1479079046163	1479079046275	NA	87
515423	5550331	Reserve Heap on your roster this week.	Reserve Heap on your roster this week.	263457765	1479079046211	1479079046307	NA	69
515423	5550331	Reserve Heap on your roster this week.	Reserve Heap on your roster this week.	263457771	1479079046371	1479079046483	NA	69
515423	5550331	Reserve Heap on your roster this week.	Reserve Heap on your roster this week.	263457774	1479079046443	1479079046539	NA	75
515423	5550337	The best-of-seven series moves to Indianapolis, Indiana.	The best-of-seven series moves to Indianapolis, Indiana.	263458173	1479079046611	1479079059322	NA	190
515423	5550337	The best-of-seven series moves to Indianapolis, Indiana.	The best-of-seven series moves to Indianapolis, Indiana.	263457865	1479079048987	1479079049227	SHIFT	16
515423	5550337	The best-of-seven series moves to Indianapolis, Indiana.	The best-of-seven series moves to Indianapolis, Indiana.	263457864	1479079049051	1479079049155	NA	84
515423	5550337	The best-of-seven series moves to Indianapolis, Indiana.	The best-of-seven series moves to Indianapolis, Indiana.	263457866	1479079049291	1479079049379	NA	72
515423	5550337	The best-of-seven series moves to Indianapolis, Indiana.	The best-of-seven series moves to Indianapolis, Indiana.	263457867	1479079049355	1479079049523	NA	69
515423	5550337	The best-of-seven series moves to Indianapolis, Indiana.	The best-of-seven series moves to Indianapolis, Indiana.	263457868	1479079049467	1479079049603	NA	32
515423	5550337	The best-of-seven series moves to Indianapolis, Indiana.	The best-of-seven series moves to Indianapolis, Indiana.	263457869	1479079049683	1479079049811	NA	66
515423	5550337	The best-of-seven series moves to Indianapolis, Indiana.	The best-of-seven series moves to Indianapolis, Indiana.	263457877	1479079049763	1479079049859	NA	69
515423	5550337	The best-of-seven series moves to Indianapolis, Indiana.	The best-of-seven series moves to Indianapolis, Indiana.	263457879	1479079049955	1479079050099	NA	83
515423	5550337	The best-of-seven series moves to Indianapolis, Indiana.	The best-of-seven series moves to Indianapolis, Indiana.	263457881	1479079050011	1479079050123	NA	84
515423	5550337	The best-of-seven series moves to Indianapolis, Indiana.	The best-of-seven series moves to Indianapolis, Indiana.	263457883	1479079050195	1479079050339	NA	173
515423	5550337	The best-of-seven series moves to Indianapolis, Indiana.	The best-of-seven series moves to Indianapolis, Indiana.	263457885	1479079050467	1479079050579	NA	79
515423	5550337	The best-of-seven series moves to Indianapolis, Indiana.	The best-of-seven series moves to Indianapolis, Indiana.	263457899	1479079050515	1479079050651	NA	70
515423	5550337	The best-of-seven series moves to Indianapolis, Indiana.	The best-of-seven series moves to Indianapolis, Indiana.	263457903	1479079050707	1479079050851	NA	173
515423	5550337	The best-of-seven series moves to Indianapolis, Indiana.	The best-of-seven series moves to Indianapolis, Indiana.	263457908	1479079050875	1479079050979	NA	83
515423	5550337	The best-of-seven series moves to Indianapolis, Indiana.	The best-of-seven series moves to Indianapolis, Indiana.	263457912	1479079051075	1479079051251	NA	69
515423	5550337	The best-of-seven series moves to Indianapolis, Indiana.	The best-of-seven series moves to Indianapolis, Indiana.	263457916	1479079051219	1479079051371	NA	86
515423	5550337	The best-of-seven series moves to Indianapolis, Indiana.	The best-of-seven series moves to Indianapolis, Indiana.	263457970	1479079051331	1479079051499	NA	69
515423	5550337	The best-of-seven series moves to Indianapolis, Indiana.	The best-of-seven series moves to Indianapolis, Indiana.	263457973	1479079051523	1479079051651	NA	78
515423	5550337	The best-of-seven series moves to Indianapolis, Indiana.	The best-of-seven series moves to Indianapolis, Indiana.	263457975	1479079051987	1479079052083	NA	32
515423	5550337	The best-of-seven series moves to Indianapolis, Indiana.	The best-of-seven series moves to Indianapolis, Indiana.	263457978	1479079052347	1479079052411	NA	83
515423	5550337	The best-of-seven series moves to Indianapolis, Indiana.	The best-of-seven series moves to Indianapolis, Indiana.	263457981	1479079052899	1479079053035	NA	69
515423	5550337	The best-of-seven series moves to Indianapolis, Indiana.	The best-of-seven series moves to Indianapolis, Indiana.	263457989	1479079053027	1479079053147	NA	82
515423	5550337	The best-of-seven series moves to Indianapolis, Indiana.	The best-of-seven series moves to Indianapolis, Indiana.	263457990	1479079053131	1479079053259	NA	73
515423	5550337	The best-of-seven series moves to Indianapolis, Indiana.	The best-of-seven series moves to Indianapolis, Indiana.	263457991	1479079053219	1479079053347	NA	69
515423	5550337	The best-of-seven series moves to Indianapolis, Indiana.	The best-of-seven series moves to Indianapolis, Indiana.	263457992	1479079053307	1479079053435	NA	83
515423	5550337	The best-of-seven series moves to Indianapolis, Indiana.	The best-of-seven series moves to Indianapolis, Indiana.	263457993	1479079053379	1479079053483	NA	32
515423	5550337	The best-of-seven series moves to Indianapolis, Indiana.	The best-of-seven series moves to Indianapolis, Indiana.	263458001	1479079053475	1479079053603	NA	77
515423	5550337	The best-of-seven series moves to Indianapolis, Indiana.	The best-of-seven series moves to Indianapolis, Indiana.	263458003	1479079053523	1479079053675	NA	79
515423	5550337	The best-of-seven series moves to Indianapolis, Indiana.	The best-of-seven series moves to Indianapolis, Indiana.	263458004	1479079053571	1479079053690	NA	86
515423	5550337	The best-of-seven series moves to Indianapolis, Indiana.	The best-of-seven series moves to Indianapolis, Indiana.	263458005	1479079053651	1479079053739	NA	69
515423	5550337	The best-of-seven series moves to Indianapolis, Indiana.	The best-of-seven series moves to Indianapolis, Indiana.	263458006	1479079053787	1479079053955	NA	83
515423	5550337	The best-of-seven series moves to Indianapolis, Indiana.	The best-of-seven series moves to Indianapolis, Indiana.	263458018	1479079053883	1479079053987	NA	32
515423	5550337	The best-of-seven series moves to Indianapolis, Indiana.	The best-of-seven series moves to Indianapolis, Indiana.	263458020	1479079053955	1479079054099	NA	84
515423	5550337	The best-of-seven series moves to Indianapolis, Indiana.	The best-of-seven series moves to Indianapolis, Indiana.	263458021	1479079054051	1479079054187	NA	79
515423	5550337	The best-of-seven series moves to Indianapolis, Indiana.	The best-of-seven series moves to Indianapolis, Indiana.	263458022	1479079054147	1479079054219	NA	32
515423	5550337	The best-of-seven series moves to Indianapolis, Indiana.	The best-of-seven series moves to Indianapolis, Indiana.	263458023	1479079054387	1479079054603	SHIFT	16
515423	5550337	The best-of-seven series moves to Indianapolis, Indiana.	The best-of-seven series moves to Indianapolis, Indiana.	263458025	1479079054515	1479079054618	NA	73
515423	5550337	The best-of-seven series moves to Indianapolis, Indiana.	The best-of-seven series moves to Indianapolis, Indiana.	263458027	1479079054707	1479079054803	NA	78
515423	5550337	The best-of-seven series moves to Indianapolis, Indiana.	The best-of-seven series moves to Indianapolis, Indiana.	263458059	1479079054763	1479079054883	NA	68
515423	5550337	The best-of-seven series moves to Indianapolis, Indiana.	The best-of-seven series moves to Indianapolis, Indiana.	263458060	1479079054835	1479079054970	NA	73
515423	5550337	The best-of-seven series moves to Indianapolis, Indiana.	The best-of-seven series moves to Indianapolis, Indiana.	263458061	1479079054955	1479079055082	NA	65
515423	5550337	The best-of-seven series moves to Indianapolis, Indiana.	The best-of-seven series moves to Indianapolis, Indiana.	263458063	1479079055043	1479079055211	NA	78
515423	5550337	The best-of-seven series moves to Indianapolis, Indiana.	The best-of-seven series moves to Indianapolis, Indiana.	263458065	1479079055243	1479079055411	NA	65
515423	5550337	The best-of-seven series moves to Indianapolis, Indiana.	The best-of-seven series moves to Indianapolis, Indiana.	263458067	1479079055811	1479079055923	NA	80
515423	5550337	The best-of-seven series moves to Indianapolis, Indiana.	The best-of-seven series moves to Indianapolis, Indiana.	263458085	1479079055875	1479079055955	NA	79
515423	5550337	The best-of-seven series moves to Indianapolis, Indiana.	The best-of-seven series moves to Indianapolis, Indiana.	263458086	1479079056059	1479079056139	NA	76
515423	5550337	The best-of-seven series moves to Indianapolis, Indiana.	The best-of-seven series moves to Indianapolis, Indiana.	263458087	1479079056195	1479079056299	NA	73
515423	5550337	The best-of-seven series moves to Indianapolis, Indiana.	The best-of-seven series moves to Indianapolis, Indiana.	263458088	1479079056322	1479079056475	NA	83
515423	5550337	The best-of-seven series moves to Indianapolis, Indiana.	The best-of-seven series moves to Indianapolis, Indiana.	263458134	1479079056539	1479079056650	NA	188
515423	5550337	The best-of-seven series moves to Indianapolis, Indiana.	The best-of-seven series moves to Indianapolis, Indiana.	263458136	1479079056643	1479079056754	NA	32
515423	5550337	The best-of-seven series moves to Indianapolis, Indiana.	The best-of-seven series moves to Indianapolis, Indiana.	263458140	1479079056747	1479079057003	SHIFT	16
515423	5550337	The best-of-seven series moves to Indianapolis, Indiana.	The best-of-seven series moves to Indianapolis, Indiana.	263458143	1479079057323	1479079057411		8
515423	5550337	The best-of-seven series moves to Indianapolis, Indiana.	The best-of-seven series moves to Indianapolis, Indiana.	263458146	1479079057475	1479079057602		8
515423	5550337	The best-of-seven series moves to Indianapolis, Indiana.	The best-of-seven series moves to Indianapolis, Indiana.	263458149	1479079057667	1479079057787	NA	32
515423	5550337	The best-of-seven series moves to Indianapolis, Indiana.	The best-of-seven series moves to Indianapolis, Indiana.	263458151	1479079057746	1479079057986	SHIFT	16
515423	5550337	The best-of-seven series moves to Indianapolis, Indiana.	The best-of-seven series moves to Indianapolis, Indiana.	263458155	1479079057867	1479079057994	NA	73
515423	5550337	The best-of-seven series moves to Indianapolis, Indiana.	The best-of-seven series moves to Indianapolis, Indiana.	263458157	1479079058075	1479079058186	NA	78
515423	5550337	The best-of-seven series moves to Indianapolis, Indiana.	The best-of-seven series moves to Indianapolis, Indiana.	263458160	1479079058179	1479079058306	NA	68
515423	5550337	The best-of-seven series moves to Indianapolis, Indiana.	The best-of-seven series moves to Indianapolis, Indiana.	263458163	1479079058299	1479079058442	NA	73
515423	5550337	The best-of-seven series moves to Indianapolis, Indiana.	The best-of-seven series moves to Indianapolis, Indiana.	263458166	1479079058435	1479079058611	NA	65
515423	5550337	The best-of-seven series moves to Indianapolis, Indiana.	The best-of-seven series moves to Indianapolis, Indiana.	263458172	1479079058978	1479079059082	NA	78
515423	5550337	The best-of-seven series moves to Indianapolis, Indiana.	The best-of-seven series moves to Indianapolis, Indiana.	263458169	1479079059066	1479079059210	NA	65
515423	5550344	Their key decision maker did not show which is not a good sign.	Their key decision maker did not show shich is not a good sign.	263458273	1479079061682	1479079062002	SHIFT	16
515423	5550344	Their key decision maker did not show which is not a good sign.	Their key decision maker did not show shich is not a good sign.	263458274	1479079061874	1479079062034	NA	84
515423	5550344	Their key decision maker did not show which is not a good sign.	Their key decision maker did not show shich is not a good sign.	263458279	1479079062106	1479079062218	NA	72
515423	5550344	Their key decision maker did not show which is not a good sign.	Their key decision maker did not show shich is not a good sign.	263458281	1479079062170	1479079062338	NA	69
515423	5550344	Their key decision maker did not show which is not a good sign.	Their key decision maker did not show shich is not a good sign.	263458285	1479079062306	1479079062418	NA	73
515423	5550344	Their key decision maker did not show which is not a good sign.	Their key decision maker did not show shich is not a good sign.	263458289	1479079062378	1479079062490	NA	82
515423	5550344	Their key decision maker did not show which is not a good sign.	Their key decision maker did not show shich is not a good sign.	263458290	1479079062474	1479079062602	NA	32
515423	5550344	Their key decision maker did not show which is not a good sign.	Their key decision maker did not show shich is not a good sign.	263458291	1479079062650	1479079062778	NA	75
515423	5550344	Their key decision maker did not show which is not a good sign.	Their key decision maker did not show shich is not a good sign.	263458292	1479079062714	1479079062890	NA	69
515423	5550344	Their key decision maker did not show which is not a good sign.	Their key decision maker did not show shich is not a good sign.	263458304	1479079062786	1479079062898	NA	89
515423	5550344	Their key decision maker did not show which is not a good sign.	Their key decision maker did not show shich is not a good sign.	263458305	1479079062866	1479079062962	NA	32
515423	5550344	Their key decision maker did not show which is not a good sign.	Their key decision maker did not show shich is not a good sign.	263458306	1479079063146	1479079063290	NA	68
515423	5550344	Their key decision maker did not show which is not a good sign.	Their key decision maker did not show shich is not a good sign.	263458307	1479079063306	1479079063458	NA	69
515423	5550344	Their key decision maker did not show which is not a good sign.	Their key decision maker did not show shich is not a good sign.	263458308	1479079063426	1479079063570	NA	67
515423	5550344	Their key decision maker did not show which is not a good sign.	Their key decision maker did not show shich is not a good sign.	263458309	1479079063555	1479079063658	NA	73
515423	5550344	Their key decision maker did not show which is not a good sign.	Their key decision maker did not show shich is not a good sign.	263458310	1479079063634	1479079063786	NA	83
515423	5550344	Their key decision maker did not show which is not a good sign.	Their key decision maker did not show shich is not a good sign.	263458311	1479079063762	1479079063842	NA	73
515423	5550344	Their key decision maker did not show which is not a good sign.	Their key decision maker did not show shich is not a good sign.	263458312	1479079063818	1479079063978	NA	79
515423	5550344	Their key decision maker did not show which is not a good sign.	Their key decision maker did not show shich is not a good sign.	263458313	1479079063922	1479079064026	NA	78
515423	5550344	Their key decision maker did not show which is not a good sign.	Their key decision maker did not show shich is not a good sign.	263458314	1479079064010	1479079064106	NA	32
515423	5550344	Their key decision maker did not show which is not a good sign.	Their key decision maker did not show shich is not a good sign.	263458315	1479079064114	1479079064210	NA	77
515423	5550344	Their key decision maker did not show which is not a good sign.	Their key decision maker did not show shich is not a good sign.	263458328	1479079064154	1479079064306	NA	65
515423	5550344	Their key decision maker did not show which is not a good sign.	Their key decision maker did not show shich is not a good sign.	263458329	1479079064282	1479079064402	NA	75
515423	5550344	Their key decision maker did not show which is not a good sign.	Their key decision maker did not show shich is not a good sign.	263458332	1479079064346	1479079064506	NA	69
515423	5550344	Their key decision maker did not show which is not a good sign.	Their key decision maker did not show shich is not a good sign.	263458335	1479079064426	1479079064530	NA	82
515423	5550344	Their key decision maker did not show which is not a good sign.	Their key decision maker did not show shich is not a good sign.	263458338	1479079064482	1479079064570	NA	32
515423	5550344	Their key decision maker did not show which is not a good sign.	Their key decision maker did not show shich is not a good sign.	263458340	1479079064602	1479079064698	NA	68
515423	5550344	Their key decision maker did not show which is not a good sign.	Their key decision maker did not show shich is not a good sign.	263458347	1479079064650	1479079064762	NA	73
515423	5550344	Their key decision maker did not show which is not a good sign.	Their key decision maker did not show shich is not a good sign.	263458349	1479079064778	1479079064914	NA	68
515423	5550344	Their key decision maker did not show which is not a good sign.	Their key decision maker did not show shich is not a good sign.	263458353	1479079064882	1479079064978	NA	32
515423	5550344	Their key decision maker did not show which is not a good sign.	Their key decision maker did not show shich is not a good sign.	263458355	1479079064922	1479079065082	NA	78
515423	5550344	Their key decision maker did not show which is not a good sign.	Their key decision maker did not show shich is not a good sign.	263458362	1479079064986	1479079065146	NA	79
515423	5550344	Their key decision maker did not show which is not a good sign.	Their key decision maker did not show shich is not a good sign.	263458364	1479079065066	1479079065178	NA	84
515423	5550344	Their key decision maker did not show which is not a good sign.	Their key decision maker did not show shich is not a good sign.	263458366	1479079065138	1479079065242	NA	32
515423	5550344	Their key decision maker did not show which is not a good sign.	Their key decision maker did not show shich is not a good sign.	263458367	1479079065226	1479079065346	NA	83
515423	5550344	Their key decision maker did not show which is not a good sign.	Their key decision maker did not show shich is not a good sign.	263458369	1479079065282	1479079065426	NA	72
515423	5550344	Their key decision maker did not show which is not a good sign.	Their key decision maker did not show shich is not a good sign.	263458370	1479079065338	1479079065482	NA	79
515423	5550344	Their key decision maker did not show which is not a good sign.	Their key decision maker did not show shich is not a good sign.	263458387	1479079065434	1479079065546	NA	87
515423	5550344	Their key decision maker did not show which is not a good sign.	Their key decision maker did not show shich is not a good sign.	263458389	1479079065634	1479079065754	NA	32
515423	5550344	Their key decision maker did not show which is not a good sign.	Their key decision maker did not show shich is not a good sign.	263458390	1479079065834	1479079065986	NA	83
515423	5550344	Their key decision maker did not show which is not a good sign.	Their key decision maker did not show shich is not a good sign.	263458391	1479079065946	1479079066106	NA	72
515423	5550344	Their key decision maker did not show which is not a good sign.	Their key decision maker did not show shich is not a good sign.	263458392	1479079066002	1479079066162	NA	73
515423	5550344	Their key decision maker did not show which is not a good sign.	Their key decision maker did not show shich is not a good sign.	263458417	1479079066146	1479079066322	NA	67
515423	5550344	Their key decision maker did not show which is not a good sign.	Their key decision maker did not show shich is not a good sign.	263458418	1479079066266	1479079066394	NA	72
515423	5550344	Their key decision maker did not show which is not a good sign.	Their key decision maker did not show shich is not a good sign.	263458419	1479079066386	1479079066466	NA	32
515423	5550344	Their key decision maker did not show which is not a good sign.	Their key decision maker did not show shich is not a good sign.	263458420	1479079066570	1479079066698	NA	73
515423	5550344	Their key decision maker did not show which is not a good sign.	Their key decision maker did not show shich is not a good sign.	263458422	1479079066666	1479079066826	NA	83
515423	5550344	Their key decision maker did not show which is not a good sign.	Their key decision maker did not show shich is not a good sign.	263458433	1479079066746	1479079066858	NA	32
515423	5550344	Their key decision maker did not show which is not a good sign.	Their key decision maker did not show shich is not a good sign.	263458435	1479079066834	1479079066978	NA	78
515423	5550344	Their key decision maker did not show which is not a good sign.	Their key decision maker did not show shich is not a good sign.	263458437	1479079066882	1479079067018	NA	79
515423	5550344	Their key decision maker did not show which is not a good sign.	Their key decision maker did not show shich is not a good sign.	263458438	1479079066946	1479079067034	NA	84
515423	5550344	Their key decision maker did not show which is not a good sign.	Their key decision maker did not show shich is not a good sign.	263458439	1479079067018	1479079067106	NA	32
515423	5550344	Their key decision maker did not show which is not a good sign.	Their key decision maker did not show shich is not a good sign.	263458441	1479079067130	1479079067242	NA	71
515423	5550344	Their key decision maker did not show which is not a good sign.	Their key decision maker did not show shich is not a good sign.	263458462	1479079067970	1479079068098		8
515423	5550344	Their key decision maker did not show which is not a good sign.	Their key decision maker did not show shich is not a good sign.	263458464	1479079068074	1479079068250	NA	65
515423	5550344	Their key decision maker did not show which is not a good sign.	Their key decision maker did not show shich is not a good sign.	263458467	1479079068162	1479079068298	NA	32
515423	5550344	Their key decision maker did not show which is not a good sign.	Their key decision maker did not show shich is not a good sign.	263458470	1479079068258	1479079068346	NA	71
515423	5550344	Their key decision maker did not show which is not a good sign.	Their key decision maker did not show shich is not a good sign.	263458474	1479079068330	1479079068426	NA	79
515423	5550344	Their key decision maker did not show which is not a good sign.	Their key decision maker did not show shich is not a good sign.	263458476	1479079068490	1479079068610	NA	79
515423	5550344	Their key decision maker did not show which is not a good sign.	Their key decision maker did not show shich is not a good sign.	263458478	1479079068546	1479079068674	NA	68
515423	5550344	Their key decision maker did not show which is not a good sign.	Their key decision maker did not show shich is not a good sign.	263458480	1479079068634	1479079068746	NA	32
515423	5550344	Their key decision maker did not show which is not a good sign.	Their key decision maker did not show shich is not a good sign.	263458483	1479079068762	1479079068874	NA	83
515423	5550344	Their key decision maker did not show which is not a good sign.	Their key decision maker did not show shich is not a good sign.	263458493	1479079068818	1479079068922	NA	73
515423	5550344	Their key decision maker did not show which is not a good sign.	Their key decision maker did not show shich is not a good sign.	263458495	1479079068938	1479079069050	NA	71
515423	5550344	Their key decision maker did not show which is not a good sign.	Their key decision maker did not show shich is not a good sign.	263458497	1479079069010	1479079069114	NA	78
515423	5550344	Their key decision maker did not show which is not a good sign.	Their key decision maker did not show shich is not a good sign.	263458499	1479079069218	1479079069354	NA	190
515423	5550353	US President Bill Clinton favours lifting the embargo.	US President Bill Clinton favours lifting the embargo.	263458605	1479079071938	1479079072330	SHIFT	16
515423	5550353	US President Bill Clinton favours lifting the embargo.	US President Bill Clinton favours lifting the embargo.	263458603	1479079072114	1479079072258	NA	85
515423	5550353	US President Bill Clinton favours lifting the embargo.	US President Bill Clinton favours lifting the embargo.	263458607	1479079072298	1479079072474	NA	83
515423	5550353	US President Bill Clinton favours lifting the embargo.	US President Bill Clinton favours lifting the embargo.	263458609	1479079072866	1479079072962	NA	32
515423	5550353	US President Bill Clinton favours lifting the embargo.	US President Bill Clinton favours lifting the embargo.	263458612	1479079073042	1479079073178	NA	80
515423	5550353	US President Bill Clinton favours lifting the embargo.	US President Bill Clinton favours lifting the embargo.	263458615	1479079073354	1479079073426		8
515423	5550353	US President Bill Clinton favours lifting the embargo.	US President Bill Clinton favours lifting the embargo.	263458632	1479079073530	1479079073698	SHIFT	16
515423	5550353	US President Bill Clinton favours lifting the embargo.	US President Bill Clinton favours lifting the embargo.	263458634	1479079073602	1479079073746	NA	80
515423	5550353	US President Bill Clinton favours lifting the embargo.	US President Bill Clinton favours lifting the embargo.	263458639	1479079073770	1479079073898	NA	82
515423	5550353	US President Bill Clinton favours lifting the embargo.	US President Bill Clinton favours lifting the embargo.	263458641	1479079073842	1479079073938	NA	69
515423	5550353	US President Bill Clinton favours lifting the embargo.	US President Bill Clinton favours lifting the embargo.	263458643	1479079074002	1479079074226	NA	83
515423	5550353	US President Bill Clinton favours lifting the embargo.	US President Bill Clinton favours lifting the embargo.	263458646	1479079074322	1479079074450	NA	73
515423	5550353	US President Bill Clinton favours lifting the embargo.	US President Bill Clinton favours lifting the embargo.	263458649	1479079074466	1479079074618	NA	68
515423	5550353	US President Bill Clinton favours lifting the embargo.	US President Bill Clinton favours lifting the embargo.	263458651	1479079074562	1479079074762	NA	69
515423	5550353	US President Bill Clinton favours lifting the embargo.	US President Bill Clinton favours lifting the embargo.	263458652	1479079074642	1479079074770	NA	78
515423	5550353	US President Bill Clinton favours lifting the embargo.	US President Bill Clinton favours lifting the embargo.	263458655	1479079074730	1479079074850	NA	84
515423	5550353	US President Bill Clinton favours lifting the embargo.	US President Bill Clinton favours lifting the embargo.	263458670	1479079074802	1479079074898	NA	32
515423	5550353	US President Bill Clinton favours lifting the embargo.	US President Bill Clinton favours lifting the embargo.	263458673	1479079074858	1479079075050	SHIFT	16
515423	5550353	US President Bill Clinton favours lifting the embargo.	US President Bill Clinton favours lifting the embargo.	263458677	1479079074962	1479079075082	NA	66
515423	5550353	US President Bill Clinton favours lifting the embargo.	US President Bill Clinton favours lifting the embargo.	263458681	1479079075098	1479079075202	NA	73
515423	5550353	US President Bill Clinton favours lifting the embargo.	US President Bill Clinton favours lifting the embargo.	263458685	1479079075282	1479079075378	NA	76
515423	5550353	US President Bill Clinton favours lifting the embargo.	US President Bill Clinton favours lifting the embargo.	263458688	1479079075442	1479079075498	NA	32
515423	5550353	US President Bill Clinton favours lifting the embargo.	US President Bill Clinton favours lifting the embargo.	263458703	1479079075522	1479079075610	NA	32
515423	5550353	US President Bill Clinton favours lifting the embargo.	US President Bill Clinton favours lifting the embargo.	263458705	1479079075890	1479079075986		8
515423	5550353	US President Bill Clinton favours lifting the embargo.	US President Bill Clinton favours lifting the embargo.	263458706	1479079076058	1479079076138		8
515423	5550353	US President Bill Clinton favours lifting the embargo.	US President Bill Clinton favours lifting the embargo.	263458708	1479079076194	1479079076298		8
515423	5550353	US President Bill Clinton favours lifting the embargo.	US President Bill Clinton favours lifting the embargo.	263458710	1479079076402	1479079076514	NA	76
515423	5550353	US President Bill Clinton favours lifting the embargo.	US President Bill Clinton favours lifting the embargo.	263458729	1479079076554	1479079076626	NA	32
515423	5550353	US President Bill Clinton favours lifting the embargo.	US President Bill Clinton favours lifting the embargo.	263458732	1479079076586	1479079076770	SHIFT	16
515423	5550353	US President Bill Clinton favours lifting the embargo.	US President Bill Clinton favours lifting the embargo.	263458734	1479079076674	1479079076810	NA	67
515423	5550353	US President Bill Clinton favours lifting the embargo.	US President Bill Clinton favours lifting the embargo.	263458736	1479079076802	1479079076906	NA	76
515423	5550353	US President Bill Clinton favours lifting the embargo.	US President Bill Clinton favours lifting the embargo.	263458738	1479079076978	1479079077058	NA	73
515423	5550353	US President Bill Clinton favours lifting the embargo.	US President Bill Clinton favours lifting the embargo.	263458739	1479079077130	1479079077218	NA	78
515423	5550353	US President Bill Clinton favours lifting the embargo.	US President Bill Clinton favours lifting the embargo.	263458763	1479079077226	1479079077354	NA	84
515423	5550353	US President Bill Clinton favours lifting the embargo.	US President Bill Clinton favours lifting the embargo.	263458768	1479079077274	1479079077410	NA	79
515423	5550353	US President Bill Clinton favours lifting the embargo.	US President Bill Clinton favours lifting the embargo.	263458771	1479079077338	1479079077442	NA	78
515423	5550353	US President Bill Clinton favours lifting the embargo.	US President Bill Clinton favours lifting the embargo.	263458776	1479079077426	1479079077538	NA	32
515423	5550353	US President Bill Clinton favours lifting the embargo.	US President Bill Clinton favours lifting the embargo.	263458783	1479079077858	1479079077970	NA	70
515423	5550353	US President Bill Clinton favours lifting the embargo.	US President Bill Clinton favours lifting the embargo.	263458779	1479079077939	1479079078098	NA	65
515423	5550353	US President Bill Clinton favours lifting the embargo.	US President Bill Clinton favours lifting the embargo.	263458786	1479079078058	1479079078170	NA	86
515423	5550353	US President Bill Clinton favours lifting the embargo.	US President Bill Clinton favours lifting the embargo.	263458792	1479079078130	1479079078290	NA	79
515423	5550353	US President Bill Clinton favours lifting the embargo.	US President Bill Clinton favours lifting the embargo.	263458799	1479079078210	1479079078346	NA	85
515423	5550353	US President Bill Clinton favours lifting the embargo.	US President Bill Clinton favours lifting the embargo.	263458805	1479079078322	1479079078466	NA	82
515423	5550353	US President Bill Clinton favours lifting the embargo.	US President Bill Clinton favours lifting the embargo.	263458830	1479079078426	1479079078570	NA	83
515423	5550353	US President Bill Clinton favours lifting the embargo.	US President Bill Clinton favours lifting the embargo.	263458832	1479079078554	1479079078642	NA	32
515423	5550353	US President Bill Clinton favours lifting the embargo.	US President Bill Clinton favours lifting the embargo.	263458834	1479079078826	1479079078946	NA	76
515423	5550353	US President Bill Clinton favours lifting the embargo.	US President Bill Clinton favours lifting the embargo.	263458836	1479079078994	1479079079106	NA	73
515423	5550353	US President Bill Clinton favours lifting the embargo.	US President Bill Clinton favours lifting the embargo.	263458837	1479079079114	1479079079210	NA	70
515423	5550353	US President Bill Clinton favours lifting the embargo.	US President Bill Clinton favours lifting the embargo.	263458839	1479079079290	1479079079410	NA	84
515423	5550353	US President Bill Clinton favours lifting the embargo.	US President Bill Clinton favours lifting the embargo.	263458847	1479079079362	1479079079490	NA	73
515423	5550353	US President Bill Clinton favours lifting the embargo.	US President Bill Clinton favours lifting the embargo.	263458850	1479079079418	1479079079562	NA	78
515423	5550353	US President Bill Clinton favours lifting the embargo.	US President Bill Clinton favours lifting the embargo.	263458853	1479079079538	1479079079634	NA	71
515423	5550353	US President Bill Clinton favours lifting the embargo.	US President Bill Clinton favours lifting the embargo.	263458856	1479079079618	1479079079738	NA	32
515423	5550353	US President Bill Clinton favours lifting the embargo.	US President Bill Clinton favours lifting the embargo.	263458858	1479079079730	1479079079842	NA	84
515423	5550353	US President Bill Clinton favours lifting the embargo.	US President Bill Clinton favours lifting the embargo.	263458868	1479079079794	1479079079930	NA	72
515423	5550353	US President Bill Clinton favours lifting the embargo.	US President Bill Clinton favours lifting the embargo.	263458870	1479079079882	1479079080042	NA	69
515423	5550353	US President Bill Clinton favours lifting the embargo.	US President Bill Clinton favours lifting the embargo.	263458872	1479079079962	1479079080066	NA	32
515423	5550353	US President Bill Clinton favours lifting the embargo.	US President Bill Clinton favours lifting the embargo.	263458874	1479079080266	1479079080386	NA	69
515423	5550353	US President Bill Clinton favours lifting the embargo.	US President Bill Clinton favours lifting the embargo.	263458878	1479079080370	1479079080490	NA	77
515423	5550353	US President Bill Clinton favours lifting the embargo.	US President Bill Clinton favours lifting the embargo.	263458900	1479079080442	1479079080546	NA	66
515423	5550353	US President Bill Clinton favours lifting the embargo.	US President Bill Clinton favours lifting the embargo.	263458901	1479079080538	1479079080714	NA	65
515423	5550353	US President Bill Clinton favours lifting the embargo.	US President Bill Clinton favours lifting the embargo.	263458902	1479079080650	1479079080762	NA	82
515423	5550353	US President Bill Clinton favours lifting the embargo.	US President Bill Clinton favours lifting the embargo.	263458904	1479079081114	1479079081242		8
515423	5550353	US President Bill Clinton favours lifting the embargo.	US President Bill Clinton favours lifting the embargo.	263458906	1479079081210	1479079081338	NA	71
515423	5550353	US President Bill Clinton favours lifting the embargo.	US President Bill Clinton favours lifting the embargo.	263458915	1479079081322	1479079081410	NA	79
515423	5550353	US President Bill Clinton favours lifting the embargo.	US President Bill Clinton favours lifting the embargo.	263458916	1479079081578	1479079081674		8
515423	5550353	US President Bill Clinton favours lifting the embargo.	US President Bill Clinton favours lifting the embargo.	263458918	1479079081738	1479079081842		8
515423	5550353	US President Bill Clinton favours lifting the embargo.	US President Bill Clinton favours lifting the embargo.	263458920	1479079081802	1479079081874	NA	82
515423	5550353	US President Bill Clinton favours lifting the embargo.	US President Bill Clinton favours lifting the embargo.	263458922	1479079081970	1479079082050	NA	71
515423	5550361	Please call me if you see any problems.	Please call me if you see any problems.	263459052	1479079084378	1479079084794	SHIFT	16
515423	5550361	Please call me if you see any problems.	Please call me if you see any problems.	263459050	1479079084626	1479079084770	NA	80
515423	5550361	Please call me if you see any problems.	Please call me if you see any problems.	263459054	1479079084922	1479079085042	NA	69
515423	5550361	Please call me if you see any problems.	Please call me if you see any problems.	263459055	1479079084986	1479079085178	NA	65
515423	5550361	Please call me if you see any problems.	Please call me if you see any problems.	263459056	1479079085266	1479079085370		8
515423	5550361	Please call me if you see any problems.	Please call me if you see any problems.	263459057	1479079085426	1479079085530		8
515423	5550361	Please call me if you see any problems.	Please call me if you see any problems.	263459058	1479079085586	1479079085722	NA	76
515423	5550361	Please call me if you see any problems.	Please call me if you see any problems.	263459060	1479079085626	1479079085746	NA	69
515423	5550361	Please call me if you see any problems.	Please call me if you see any problems.	263459063	1479079085698	1479079085866	NA	65
515423	5550361	Please call me if you see any problems.	Please call me if you see any problems.	263459076	1479079085754	1479079085922	NA	83
515423	5550361	Please call me if you see any problems.	Please call me if you see any problems.	263459077	1479079085834	1479079085930	NA	69
515423	5550361	Please call me if you see any problems.	Please call me if you see any problems.	263459078	1479079085906	1479079086010	NA	32
515423	5550361	Please call me if you see any problems.	Please call me if you see any problems.	263459079	1479079086018	1479079086130	NA	67
515423	5550361	Please call me if you see any problems.	Please call me if you see any problems.	263459081	1479079086066	1479079086249	NA	65
515423	5550361	Please call me if you see any problems.	Please call me if you see any problems.	263459080	1479079086106	1479079086194	NA	76
515423	5550361	Please call me if you see any problems.	Please call me if you see any problems.	263459086	1479079086242	1479079086329	NA	76
515423	5550361	Please call me if you see any problems.	Please call me if you see any problems.	263459087	1479079086322	1479079086410	NA	32
515423	5550361	Please call me if you see any problems.	Please call me if you see any problems.	263459088	1479079086426	1479079086554	NA	77
515423	5550361	Please call me if you see any problems.	Please call me if you see any problems.	263459089	1479079086466	1479079086609	NA	69
515423	5550361	Please call me if you see any problems.	Please call me if you see any problems.	263459090	1479079086554	1479079086625	NA	32
515423	5550361	Please call me if you see any problems.	Please call me if you see any problems.	263459104	1479079086617	1479079086730	NA	73
515423	5550361	Please call me if you see any problems.	Please call me if you see any problems.	263459106	1479079086658	1479079086770	NA	70
515423	5550361	Please call me if you see any problems.	Please call me if you see any problems.	263459110	1479079086746	1479079086874	NA	32
515423	5550361	Please call me if you see any problems.	Please call me if you see any problems.	263459112	1479079086850	1479079086994	NA	89
515423	5550361	Please call me if you see any problems.	Please call me if you see any problems.	263459114	1479079086890	1479079087050	NA	79
515423	5550361	Please call me if you see any problems.	Please call me if you see any problems.	263459130	1479079086994	1479079087082	NA	85
515423	5550361	Please call me if you see any problems.	Please call me if you see any problems.	263459131	1479079087026	1479079087129	NA	32
515423	5550361	Please call me if you see any problems.	Please call me if you see any problems.	263459132	1479079087122	1479079087266	NA	83
515423	5550361	Please call me if you see any problems.	Please call me if you see any problems.	263459133	1479079087194	1479079087273	NA	69
515423	5550361	Please call me if you see any problems.	Please call me if you see any problems.	263459134	1479079087330	1479079087449	NA	69
515423	5550361	Please call me if you see any problems.	Please call me if you see any problems.	263459137	1479079087418	1479079087546	NA	32
515423	5550361	Please call me if you see any problems.	Please call me if you see any problems.	263459140	1479079087586	1479079087786	NA	65
515423	5550361	Please call me if you see any problems.	Please call me if you see any problems.	263459154	1479079087650	1479079087794	NA	78
515423	5550361	Please call me if you see any problems.	Please call me if you see any problems.	263459157	1479079087754	1479079087865	NA	89
515423	5550361	Please call me if you see any problems.	Please call me if you see any problems.	263459160	1479079087834	1479079087921	NA	32
515423	5550361	Please call me if you see any problems.	Please call me if you see any problems.	263459163	1479079087914	1479079088009	NA	80
515423	5550361	Please call me if you see any problems.	Please call me if you see any problems.	263459168	1479079087986	1479079088089	NA	82
515423	5550361	Please call me if you see any problems.	Please call me if you see any problems.	263459172	1479079088074	1479079088178	NA	79
515423	5550361	Please call me if you see any problems.	Please call me if you see any problems.	263459174	1479079088178	1479079088273	NA	66
515423	5550361	Please call me if you see any problems.	Please call me if you see any problems.	263459191	1479079088265	1479079088378	NA	76
515423	5550361	Please call me if you see any problems.	Please call me if you see any problems.	263459194	1479079088346	1479079088458	NA	69
515423	5550361	Please call me if you see any problems.	Please call me if you see any problems.	263459197	1479079088465	1479079088562	NA	77
515423	5550361	Please call me if you see any problems.	Please call me if you see any problems.	263459198	1479079088578	1479079088657	NA	83
515423	5550366	Appointing Jeff as CFO is one important step in that process.	Appointinf Jeff as CFO is one important step in that process.	263459260	1479079091274	1479079091545	SHIFT	16
515423	5550366	Appointing Jeff as CFO is one important step in that process.	Appointinf Jeff as CFO is one important step in that process.	263459262	1479079091434	1479079091593	NA	65
515423	5550366	Appointing Jeff as CFO is one important step in that process.	Appointinf Jeff as CFO is one important step in that process.	263459264	1479079091609	1479079091705	NA	80
515423	5550366	Appointing Jeff as CFO is one important step in that process.	Appointinf Jeff as CFO is one important step in that process.	263459266	1479079091777	1479079091945	NA	80
515423	5550366	Appointing Jeff as CFO is one important step in that process.	Appointinf Jeff as CFO is one important step in that process.	263459268	1479079091881	1479079092001	NA	79
515423	5550366	Appointing Jeff as CFO is one important step in that process.	Appointinf Jeff as CFO is one important step in that process.	263459270	1479079092081	1479079092169	NA	73
515423	5550366	Appointing Jeff as CFO is one important step in that process.	Appointinf Jeff as CFO is one important step in that process.	263459282	1479079092257	1479079092385	NA	78
515423	5550366	Appointing Jeff as CFO is one important step in that process.	Appointinf Jeff as CFO is one important step in that process.	263459285	1479079092353	1479079092497	NA	84
515423	5550366	Appointing Jeff as CFO is one important step in that process.	Appointinf Jeff as CFO is one important step in that process.	263459288	1479079092457	1479079092593	NA	73
515423	5550366	Appointing Jeff as CFO is one important step in that process.	Appointinf Jeff as CFO is one important step in that process.	263459291	1479079092505	1479079092641	NA	78
515423	5550366	Appointing Jeff as CFO is one important step in that process.	Appointinf Jeff as CFO is one important step in that process.	263459306	1479079092601	1479079092713	NA	70
515423	5550366	Appointing Jeff as CFO is one important step in that process.	Appointinf Jeff as CFO is one important step in that process.	263459308	1479079092665	1479079092785	NA	32
515423	5550366	Appointing Jeff as CFO is one important step in that process.	Appointinf Jeff as CFO is one important step in that process.	263459315	1479079092794	1479079093025	SHIFT	16
515423	5550366	Appointing Jeff as CFO is one important step in that process.	Appointinf Jeff as CFO is one important step in that process.	263459311	1479079092905	1479079093017	NA	74
515423	5550366	Appointing Jeff as CFO is one important step in that process.	Appointinf Jeff as CFO is one important step in that process.	263459318	1479079093073	1479079093201	NA	69
515423	5550366	Appointing Jeff as CFO is one important step in that process.	Appointinf Jeff as CFO is one important step in that process.	263459321	1479079093129	1479079093217	NA	70
515423	5550366	Appointing Jeff as CFO is one important step in that process.	Appointinf Jeff as CFO is one important step in that process.	263459324	1479079093297	1479079093409	NA	70
515423	5550366	Appointing Jeff as CFO is one important step in that process.	Appointinf Jeff as CFO is one important step in that process.	263459336	1479079093385	1479079093473	NA	32
515423	5550366	Appointing Jeff as CFO is one important step in that process.	Appointinf Jeff as CFO is one important step in that process.	263459337	1479079093481	1479079093665	NA	65
515423	5550366	Appointing Jeff as CFO is one important step in that process.	Appointinf Jeff as CFO is one important step in that process.	263459338	1479079093561	1479079093721	NA	83
515423	5550366	Appointing Jeff as CFO is one important step in that process.	Appointinf Jeff as CFO is one important step in that process.	263459340	1479079093641	1479079093753	NA	32
515423	5550366	Appointing Jeff as CFO is one important step in that process.	Appointinf Jeff as CFO is one important step in that process.	263459360	1479079093705	1479079094233	SHIFT	16
515423	5550366	Appointing Jeff as CFO is one important step in that process.	Appointinf Jeff as CFO is one important step in that process.	263459342	1479079093793	1479079093905	NA	67
515423	5550366	Appointing Jeff as CFO is one important step in that process.	Appointinf Jeff as CFO is one important step in that process.	263459344	1479079093985	1479079094113	NA	70
515423	5550366	Appointing Jeff as CFO is one important step in that process.	Appointinf Jeff as CFO is one important step in that process.	263459358	1479079094082	1479079094217	NA	79
515423	5550366	Appointing Jeff as CFO is one important step in that process.	Appointinf Jeff as CFO is one important step in that process.	263459364	1479079094225	1479079094297	NA	32
515423	5550366	Appointing Jeff as CFO is one important step in that process.	Appointinf Jeff as CFO is one important step in that process.	263459366	1479079094361	1479079094465	NA	73
515423	5550366	Appointing Jeff as CFO is one important step in that process.	Appointinf Jeff as CFO is one important step in that process.	263459369	1479079094409	1479079094553	NA	83
515423	5550366	Appointing Jeff as CFO is one important step in that process.	Appointinf Jeff as CFO is one important step in that process.	263459372	1479079094481	1479079094569	NA	32
515423	5550366	Appointing Jeff as CFO is one important step in that process.	Appointinf Jeff as CFO is one important step in that process.	263459374	1479079094593	1479079094769	NA	79
515423	5550366	Appointing Jeff as CFO is one important step in that process.	Appointinf Jeff as CFO is one important step in that process.	263459375	1479079094681	1479079094833	NA	78
515423	5550366	Appointing Jeff as CFO is one important step in that process.	Appointinf Jeff as CFO is one important step in that process.	263459377	1479079094729	1479079094881	NA	69
515423	5550366	Appointing Jeff as CFO is one important step in that process.	Appointinf Jeff as CFO is one important step in that process.	263459379	1479079094825	1479079094929	NA	32
515423	5550366	Appointing Jeff as CFO is one important step in that process.	Appointinf Jeff as CFO is one important step in that process.	263459382	1479079095001	1479079095121	NA	73
515423	5550366	Appointing Jeff as CFO is one important step in that process.	Appointinf Jeff as CFO is one important step in that process.	263459387	1479079095081	1479079095177	NA	77
515423	5550366	Appointing Jeff as CFO is one important step in that process.	Appointinf Jeff as CFO is one important step in that process.	263459389	1479079095217	1479079095369	NA	80
515423	5550366	Appointing Jeff as CFO is one important step in that process.	Appointinf Jeff as CFO is one important step in that process.	263459395	1479079095289	1479079095425	NA	79
515423	5550366	Appointing Jeff as CFO is one important step in that process.	Appointinf Jeff as CFO is one important step in that process.	263459397	1479079095377	1479079095457	NA	82
515423	5550366	Appointing Jeff as CFO is one important step in that process.	Appointinf Jeff as CFO is one important step in that process.	263459399	1479079095553	1479079095641	NA	84
515423	5550366	Appointing Jeff as CFO is one important step in that process.	Appointinf Jeff as CFO is one important step in that process.	263459409	1479079095609	1479079095801	NA	65
515423	5550366	Appointing Jeff as CFO is one important step in that process.	Appointinf Jeff as CFO is one important step in that process.	263459400	1479079095649	1479079095793	NA	78
515423	5550366	Appointing Jeff as CFO is one important step in that process.	Appointinf Jeff as CFO is one important step in that process.	263459410	1479079095761	1479079095873	NA	84
515423	5550366	Appointing Jeff as CFO is one important step in that process.	Appointinf Jeff as CFO is one important step in that process.	263459411	1479079095857	1479079095953	NA	32
515423	5550366	Appointing Jeff as CFO is one important step in that process.	Appointinf Jeff as CFO is one important step in that process.	263459412	1479079095954	1479079096065	NA	83
515423	5550366	Appointing Jeff as CFO is one important step in that process.	Appointinf Jeff as CFO is one important step in that process.	263459413	1479079096081	1479079096201	NA	84
515423	5550366	Appointing Jeff as CFO is one important step in that process.	Appointinf Jeff as CFO is one important step in that process.	263459414	1479079096161	1479079096329	NA	69
515423	5550366	Appointing Jeff as CFO is one important step in that process.	Appointinf Jeff as CFO is one important step in that process.	263459425	1479079096225	1479079096361	NA	80
515423	5550366	Appointing Jeff as CFO is one important step in that process.	Appointinf Jeff as CFO is one important step in that process.	263459427	1479079096745	1479079096841	NA	32
515423	5550366	Appointing Jeff as CFO is one important step in that process.	Appointinf Jeff as CFO is one important step in that process.	263459429	1479079096809	1479079096945	NA	73
515423	5550366	Appointing Jeff as CFO is one important step in that process.	Appointinf Jeff as CFO is one important step in that process.	263459430	1479079096865	1479079097001	NA	78
515423	5550366	Appointing Jeff as CFO is one important step in that process.	Appointinf Jeff as CFO is one important step in that process.	263459433	1479079096953	1479079097065	NA	32
515423	5550366	Appointing Jeff as CFO is one important step in that process.	Appointinf Jeff as CFO is one important step in that process.	263459435	1479079097025	1479079097145	NA	84
515423	5550366	Appointing Jeff as CFO is one important step in that process.	Appointinf Jeff as CFO is one important step in that process.	263459436	1479079097105	1479079097249	NA	72
515423	5550366	Appointing Jeff as CFO is one important step in that process.	Appointinf Jeff as CFO is one important step in that process.	263459437	1479079097209	1479079097329	NA	65
515423	5550366	Appointing Jeff as CFO is one important step in that process.	Appointinf Jeff as CFO is one important step in that process.	263459438	1479079097265	1479079097369	NA	84
515423	5550366	Appointing Jeff as CFO is one important step in that process.	Appointinf Jeff as CFO is one important step in that process.	263459439	1479079097330	1479079097417	NA	32
515423	5550366	Appointing Jeff as CFO is one important step in that process.	Appointinf Jeff as CFO is one important step in that process.	263459446	1479079097385	1479079097489	NA	80
515423	5550366	Appointing Jeff as CFO is one important step in that process.	Appointinf Jeff as CFO is one important step in that process.	263459447	1479079097473	1479079097569	NA	82
515423	5550366	Appointing Jeff as CFO is one important step in that process.	Appointinf Jeff as CFO is one important step in that process.	263459448	1479079097553	1479079097681	NA	79
515423	5550366	Appointing Jeff as CFO is one important step in that process.	Appointinf Jeff as CFO is one important step in that process.	263459449	1479079097649	1479079097753	NA	67
515423	5550366	Appointing Jeff as CFO is one important step in that process.	Appointinf Jeff as CFO is one important step in that process.	263459451	1479079097705	1479079097801	NA	69
515423	5550366	Appointing Jeff as CFO is one important step in that process.	Appointinf Jeff as CFO is one important step in that process.	263459453	1479079097897	1479079097977	NA	83
515423	5550366	Appointing Jeff as CFO is one important step in that process.	Appointinf Jeff as CFO is one important step in that process.	263459457	1479079098049	1479079098177	NA	83
515423	5550372	What is happening to the stock price?	What is happening to the stock price?	263459536	1479079100481	1479079100761	SHIFT	16
515423	5550372	What is happening to the stock price?	What is happening to the stock price?	263459538	1479079100641	1479079100769	NA	87
515423	5550372	What is happening to the stock price?	What is happening to the stock price?	263459539	1479079100865	1479079100993	NA	72
515423	5550372	What is happening to the stock price?	What is happening to the stock price?	263459541	1479079100961	1479079101153	NA	65
515423	5550372	What is happening to the stock price?	What is happening to the stock price?	263459543	1479079101105	1479079101225	NA	84
515423	5550372	What is happening to the stock price?	What is happening to the stock price?	263459556	1479079101193	1479079101289	NA	32
515423	5550372	What is happening to the stock price?	What is happening to the stock price?	263459559	1479079101297	1479079101425	NA	73
515423	5550372	What is happening to the stock price?	What is happening to the stock price?	263459562	1479079101369	1479079101497	NA	83
515423	5550372	What is happening to the stock price?	What is happening to the stock price?	263459565	1479079101441	1479079101537	NA	32
515423	5550372	What is happening to the stock price?	What is happening to the stock price?	263459566	1479079101665	1479079101761	NA	72
515423	5550372	What is happening to the stock price?	What is happening to the stock price?	263459574	1479079101737	1479079101881	NA	65
515423	5550372	What is happening to the stock price?	What is happening to the stock price?	263459572	1479079101785	1479079101873	NA	80
515423	5550372	What is happening to the stock price?	What is happening to the stock price?	263459578	1479079101937	1479079102057	NA	80
515423	5550372	What is happening to the stock price?	What is happening to the stock price?	263459582	1479079102057	1479079102241	NA	69
515423	5550372	What is happening to the stock price?	What is happening to the stock price?	263459591	1479079102161	1479079102265	NA	78
515423	5550372	What is happening to the stock price?	What is happening to the stock price?	263459592	1479079102225	1479079102385	NA	73
515423	5550372	What is happening to the stock price?	What is happening to the stock price?	263459593	1479079102329	1479079102473	NA	78
515423	5550372	What is happening to the stock price?	What is happening to the stock price?	263459595	1479079102401	1479079102481	NA	71
515423	5550372	What is happening to the stock price?	What is happening to the stock price?	263459597	1479079102465	1479079102553	NA	32
515423	5550372	What is happening to the stock price?	What is happening to the stock price?	263459600	1479079102569	1479079102681	NA	84
515423	5550372	What is happening to the stock price?	What is happening to the stock price?	263459618	1479079102625	1479079102721	NA	79
515423	5550372	What is happening to the stock price?	What is happening to the stock price?	263459619	1479079102689	1479079102809	NA	32
515423	5550372	What is happening to the stock price?	What is happening to the stock price?	263459620	1479079103193	1479079103313	NA	84
515423	5550372	What is happening to the stock price?	What is happening to the stock price?	263459621	1479079103265	1479079103393	NA	72
515423	5550372	What is happening to the stock price?	What is happening to the stock price?	263459622	1479079103361	1479079103449	NA	69
515423	5550372	What is happening to the stock price?	What is happening to the stock price?	263459638	1479079103441	1479079103505	NA	32
515423	5550372	What is happening to the stock price?	What is happening to the stock price?	263459639	1479079103537	1479079103649	NA	83
515423	5550372	What is happening to the stock price?	What is happening to the stock price?	263459640	1479079103633	1479079103761	NA	79
515423	5550372	What is happening to the stock price?	What is happening to the stock price?	263459641	1479079103993	1479079104097		8
515423	5550372	What is happening to the stock price?	What is happening to the stock price?	263459642	1479079104081	1479079104201	NA	84
515423	5550372	What is happening to the stock price?	What is happening to the stock price?	263459650	1479079104169	1479079104289	NA	79
515423	5550372	What is happening to the stock price?	What is happening to the stock price?	263459652	1479079104329	1479079104449	NA	67
515423	5550372	What is happening to the stock price?	What is happening to the stock price?	263459654	1479079104441	1479079104537	NA	75
515423	5550372	What is happening to the stock price?	What is happening to the stock price?	263459656	1479079104553	1479079104641	NA	32
515423	5550372	What is happening to the stock price?	What is happening to the stock price?	263459660	1479079104649	1479079104745	NA	80
515423	5550372	What is happening to the stock price?	What is happening to the stock price?	263459671	1479079104729	1479079104825	NA	82
515423	5550372	What is happening to the stock price?	What is happening to the stock price?	263459673	1479079104825	1479079104929	NA	73
515423	5550372	What is happening to the stock price?	What is happening to the stock price?	263459675	1479079104929	1479079105025	NA	67
515423	5550372	What is happening to the stock price?	What is happening to the stock price?	263459677	1479079104969	1479079105113	NA	69
515423	5550372	What is happening to the stock price?	What is happening to the stock price?	263459679	1479079105089	1479079105225	SHIFT	16
515423	5550372	What is happening to the stock price?	What is happening to the stock price?	263459681	1479079105169	1479079105289	NA	191
515423	5550374	Please send me an email to let me know.	Please send me an email to let me know.	263459745	1479079107777	1479079108001	SHIFT	16
515423	5550374	Please send me an email to let me know.	Please send me an email to let me know.	263459746	1479079107873	1479079108001	NA	80
515423	5550374	Please send me an email to let me know.	Please send me an email to let me know.	263459747	1479079108057	1479079108201	NA	76
515423	5550374	Please send me an email to let me know.	Please send me an email to let me know.	263459748	1479079108137	1479079108265	NA	69
515423	5550374	Please send me an email to let me know.	Please send me an email to let me know.	263459749	1479079108225	1479079108385	NA	65
515423	5550374	Please send me an email to let me know.	Please send me an email to let me know.	263459750	1479079108289	1479079108449	NA	83
515423	5550374	Please send me an email to let me know.	Please send me an email to let me know.	263459751	1479079108345	1479079108473	NA	69
515423	5550374	Please send me an email to let me know.	Please send me an email to let me know.	263459752	1479079108449	1479079108537	NA	32
515423	5550374	Please send me an email to let me know.	Please send me an email to let me know.	263459753	1479079108529	1479079108729	NA	83
515423	5550374	Please send me an email to let me know.	Please send me an email to let me know.	263459754	1479079108617	1479079108769	NA	69
515423	5550374	Please send me an email to let me know.	Please send me an email to let me know.	263459755	1479079108745	1479079108905	NA	78
515423	5550374	Please send me an email to let me know.	Please send me an email to let me know.	263459756	1479079108873	1479079109001	NA	68
515423	5550374	Please send me an email to let me know.	Please send me an email to let me know.	263459758	1479079108969	1479079109065	NA	32
515423	5550374	Please send me an email to let me know.	Please send me an email to let me know.	263459761	1479079109049	1479079109185	NA	77
515423	5550374	Please send me an email to let me know.	Please send me an email to let me know.	263459764	1479079109113	1479079109241	NA	69
515423	5550374	Please send me an email to let me know.	Please send me an email to let me know.	263459767	1479079109217	1479079109305	NA	32
515423	5550374	Please send me an email to let me know.	Please send me an email to let me know.	263459774	1479079109273	1479079109465	NA	65
515423	5550374	Please send me an email to let me know.	Please send me an email to let me know.	263459776	1479079109361	1479079109489	NA	78
515423	5550374	Please send me an email to let me know.	Please send me an email to let me know.	263459778	1479079109449	1479079109553	NA	32
515423	5550374	Please send me an email to let me know.	Please send me an email to let me know.	263459780	1479079109529	1479079109673	NA	69
515423	5550374	Please send me an email to let me know.	Please send me an email to let me know.	263459782	1479079109641	1479079109753	NA	77
515423	5550374	Please send me an email to let me know.	Please send me an email to let me know.	263459783	1479079109753	1479079109913	NA	65
515423	5550374	Please send me an email to let me know.	Please send me an email to let me know.	263459784	1479079109825	1479079109921	NA	73
515423	5550374	Please send me an email to let me know.	Please send me an email to let me know.	263459785	1479079109985	1479079110097	NA	76
515423	5550374	Please send me an email to let me know.	Please send me an email to let me know.	263459786	1479079110073	1479079110201	NA	32
515423	5550374	Please send me an email to let me know.	Please send me an email to let me know.	263459787	1479079110153	1479079110289	NA	84
515423	5550374	Please send me an email to let me know.	Please send me an email to let me know.	263459788	1479079110217	1479079110321	NA	79
515423	5550374	Please send me an email to let me know.	Please send me an email to let me know.	263459789	1479079110337	1479079110433	NA	32
515423	5550374	Please send me an email to let me know.	Please send me an email to let me know.	263459803	1479079110425	1479079110577	NA	76
515423	5550374	Please send me an email to let me know.	Please send me an email to let me know.	263459805	1479079110489	1479079110633	NA	69
515423	5550374	Please send me an email to let me know.	Please send me an email to let me know.	263459807	1479079110545	1479079110673	NA	84
515423	5550374	Please send me an email to let me know.	Please send me an email to let me know.	263459809	1479079110617	1479079110697	NA	32
515423	5550374	Please send me an email to let me know.	Please send me an email to let me know.	263459811	1479079110689	1479079110809	NA	77
515423	5550374	Please send me an email to let me know.	Please send me an email to let me know.	263459815	1479079110753	1479079110897	NA	69
515423	5550374	Please send me an email to let me know.	Please send me an email to let me know.	263459816	1479079110849	1479079110937	NA	32
515423	5550374	Please send me an email to let me know.	Please send me an email to let me know.	263459817	1479079110913	1479079110985	NA	75
515423	5550374	Please send me an email to let me know.	Please send me an email to let me know.	263459818	1479079111073	1479079111169	NA	78
515423	5550374	Please send me an email to let me know.	Please send me an email to let me know.	263459819	1479079111121	1479079111225	NA	79
515423	5550374	Please send me an email to let me know.	Please send me an email to let me know.	263459824	1479079111185	1479079111313	NA	87
515423	5550374	Please send me an email to let me know.	Please send me an email to let me know.	263459826	1479079111329	1479079111433	NA	190
