PARTICIPANT_ID	TEST_SECTION_ID	SENTENCE	USER_INPUT	KEYSTROKE_ID	PRESS_TIME	RELEASE_TIME	LETTER	KEYCODE
516966	5568263	Did you differ from me?	Did you differ from me?	264314071	1479161237882	1479161238097	CTRL	17
516966	5568263	Did you differ from me?	Did you differ from me?	264314075	1479161237882	1479161238225	SHIFT	16
516966	5568263	Did you differ from me?	Did you differ from me?	264314079	1479161238505	1479161238705	SHIFT	16
516966	5568263	Did you differ from me?	Did you differ from me?	264314082	1479161238657	1479161238729	D	68
516966	5568263	Did you differ from me?	Did you differ from me?	264314085	1479161238873	1479161238921	o	73
516966	5568263	Did you differ from me?	Did you differ from me?	264314088	1479161238969	1479161239049	d	68
516966	5568263	Did you differ from me?	Did you differ from me?	264314089	1479161239073	1479161239137	 	32
516966	5568263	Did you differ from me?	Did you differ from me?	264314141	1479161239401	1479161239457	BKSP	8
516966	5568263	Did you differ from me?	Did you differ from me?	264314143	1479161239537	1479161239609	BKSP	8
516966	5568263	Did you differ from me?	Did you differ from me?	264314145	1479161239680	1479161239745	BKSP	8
516966	5568263	Did you differ from me?	Did you differ from me?	264314146	1479161239771	1479161239849	d	68
516966	5568263	Did you differ from me?	Did you differ from me?	264314147	1479161239921	1479161240017	 	32
516966	5568263	Did you differ from me?	Did you differ from me?	264314148	1479161240025	1479161240105	y	89
516966	5568263	Did you differ from me?	Did you differ from me?	264314150	1479161240129	1479161240265	o	79
516966	5568263	Did you differ from me?	Did you differ from me?	264314152	1479161240353	1479161240440	u	85
516966	5568263	Did you differ from me?	Did you differ from me?	264314163	1479161240609	1479161240681	 	32
516966	5568263	Did you differ from me?	Did you differ from me?	264314166	1479161240745	1479161240816	d	68
516966	5568263	Did you differ from me?	Did you differ from me?	264314170	1479161240841	1479161240889	i	73
516966	5568263	Did you differ from me?	Did you differ from me?	264314173	1479161240945	1479161241017	f	70
516966	5568263	Did you differ from me?	Did you differ from me?	264314178	1479161241113	1479161241209	f	70
516966	5568263	Did you differ from me?	Did you differ from me?	264314199	1479161241217	1479161241361	e	69
516966	5568263	Did you differ from me?	Did you differ from me?	264314203	1479161241305	1479161241417	r	82
516966	5568263	Did you differ from me?	Did you differ from me?	264314207	1479161241425	1479161241497	 	32
516966	5568263	Did you differ from me?	Did you differ from me?	264314211	1479161241529	1479161241593	f	70
516966	5568263	Did you differ from me?	Did you differ from me?	264314213	1479161241665	1479161241769	r	82
516966	5568263	Did you differ from me?	Did you differ from me?	264314220	1479161241777	1479161241904	o	79
516966	5568263	Did you differ from me?	Did you differ from me?	264314223	1479161241873	1479161241970	m	77
516966	5568263	Did you differ from me?	Did you differ from me?	264314228	1479161241977	1479161242089	 	32
516966	5568263	Did you differ from me?	Did you differ from me?	264314233	1479161242065	1479161242129	m	77
516966	5568263	Did you differ from me?	Did you differ from me?	264314260	1479161242121	1479161242201	e	69
516966	5568263	Did you differ from me?	Did you differ from me?	264314266	1479161242369	1479161242561	SHIFT	16
516966	5568263	Did you differ from me?	Did you differ from me?	264314264	1479161242481	1479161242537	?	191
516966	5568270	I was going to call you but I hate to bother your holiday.	I was going to call you but i hate to bother your holiday.	264314442	1479161244945	1479161245425	SHIFT	16
516966	5568270	I was going to call you but I hate to bother your holiday.	I was going to call you but i hate to bother your holiday.	264314446	1479161245377	1479161245449	I	73
516966	5568270	I was going to call you but I hate to bother your holiday.	I was going to call you but i hate to bother your holiday.	264314449	1479161245521	1479161245625	 	32
516966	5568270	I was going to call you but I hate to bother your holiday.	I was going to call you but i hate to bother your holiday.	264314454	1479161245617	1479161245697	w	87
516966	5568270	I was going to call you but I hate to bother your holiday.	I was going to call you but i hate to bother your holiday.	264314458	1479161245689	1479161245833	a	65
516966	5568270	I was going to call you but I hate to bother your holiday.	I was going to call you but i hate to bother your holiday.	264314467	1479161245769	1479161245897	 	83
516966	5568270	I was going to call you but I hate to bother your holiday.	I was going to call you but i hate to bother your holiday.	264314468	1479161245993	1479161246073	o	71
516966	5568270	I was going to call you but I hate to bother your holiday.	I was going to call you but i hate to bother your holiday.	264314471	1479161246081	1479161246177	i	73
516966	5568270	I was going to call you but I hate to bother your holiday.	I was going to call you but i hate to bother your holiday.	264314474	1479161246137	1479161246249	n	78
516966	5568270	I was going to call you but I hate to bother your holiday.	I was going to call you but i hate to bother your holiday.	264314495	1479161246241	1479161246321	g	71
516966	5568270	I was going to call you but I hate to bother your holiday.	I was going to call you but i hate to bother your holiday.	264314497	1479161246289	1479161246345	 	32
516966	5568270	I was going to call you but I hate to bother your holiday.	I was going to call you but i hate to bother your holiday.	264314499	1479161246441	1479161246529	t	84
516966	5568270	I was going to call you but I hate to bother your holiday.	I was going to call you but i hate to bother your holiday.	264314501	1479161246513	1479161246625	o	79
516966	5568270	I was going to call you but I hate to bother your holiday.	I was going to call you but i hate to bother your holiday.	264314503	1479161246633	1479161246697	 	32
516966	5568270	I was going to call you but I hate to bother your holiday.	I was going to call you but i hate to bother your holiday.	264314505	1479161246881	1479161246985	v	86
516966	5568270	I was going to call you but I hate to bother your holiday.	I was going to call you but i hate to bother your holiday.	264314540	1479161246953	1479161247049	a	65
516966	5568270	I was going to call you but I hate to bother your holiday.	I was going to call you but i hate to bother your holiday.	264314545	1479161247297	1479161247353	BKSP	8
516966	5568270	I was going to call you but I hate to bother your holiday.	I was going to call you but i hate to bother your holiday.	264314549	1479161247433	1479161247473	BKSP	8
516966	5568270	I was going to call you but I hate to bother your holiday.	I was going to call you but i hate to bother your holiday.	264314552	1479161247545	1479161247649	c	67
516966	5568270	I was going to call you but I hate to bother your holiday.	I was going to call you but i hate to bother your holiday.	264314555	1479161247617	1479161247689	a	65
516966	5568270	I was going to call you but I hate to bother your holiday.	I was going to call you but i hate to bother your holiday.	264314559	1479161247673	1479161247745	l	76
516966	5568270	I was going to call you but I hate to bother your holiday.	I was going to call you but i hate to bother your holiday.	264314562	1479161247825	1479161247944	l	76
516966	5568270	I was going to call you but I hate to bother your holiday.	I was going to call you but i hate to bother your holiday.	264314568	1479161247928	1479161248017	 	32
516966	5568270	I was going to call you but I hate to bother your holiday.	I was going to call you but i hate to bother your holiday.	264314571	1479161247993	1479161248089	y	89
516966	5568270	I was going to call you but I hate to bother your holiday.	I was going to call you but i hate to bother your holiday.	264314573	1479161248073	1479161248209	o	79
516966	5568270	I was going to call you but I hate to bother your holiday.	I was going to call you but i hate to bother your holiday.	264314577	1479161248153	1479161248249	u	85
516966	5568270	I was going to call you but I hate to bother your holiday.	I was going to call you but i hate to bother your holiday.	264314581	1479161248241	1479161248328	 	32
516966	5568270	I was going to call you but I hate to bother your holiday.	I was going to call you but i hate to bother your holiday.	264314583	1479161248369	1479161248441	b	66
516966	5568270	I was going to call you but I hate to bother your holiday.	I was going to call you but i hate to bother your holiday.	264314590	1479161248529	1479161248593	u	85
516966	5568270	I was going to call you but I hate to bother your holiday.	I was going to call you but i hate to bother your holiday.	264314593	1479161248625	1479161248712	t	84
516966	5568270	I was going to call you but I hate to bother your holiday.	I was going to call you but i hate to bother your holiday.	264314599	1479161248697	1479161248778	 	32
516966	5568270	I was going to call you but I hate to bother your holiday.	I was going to call you but i hate to bother your holiday.	264314604	1479161248779	1479161248905	i	73
516966	5568270	I was going to call you but I hate to bother your holiday.	I was going to call you but i hate to bother your holiday.	264314628	1479161248897	1479161248969	 	32
516966	5568270	I was going to call you but I hate to bother your holiday.	I was going to call you but i hate to bother your holiday.	264314629	1479161249529	1479161249593	h	72
516966	5568270	I was going to call you but I hate to bother your holiday.	I was going to call you but i hate to bother your holiday.	264314630	1479161249633	1479161249745	a	65
516966	5568270	I was going to call you but I hate to bother your holiday.	I was going to call you but i hate to bother your holiday.	264314631	1479161249673	1479161249824	t	84
516966	5568270	I was going to call you but I hate to bother your holiday.	I was going to call you but i hate to bother your holiday.	264314632	1479161249753	1479161249881	e	69
516966	5568270	I was going to call you but I hate to bother your holiday.	I was going to call you but i hate to bother your holiday.	264314661	1479161249841	1479161249913	 	32
516966	5568270	I was going to call you but I hate to bother your holiday.	I was going to call you but i hate to bother your holiday.	264314665	1479161249961	1479161250078	t	84
516966	5568270	I was going to call you but I hate to bother your holiday.	I was going to call you but i hate to bother your holiday.	264314671	1479161250025	1479161250113	o	79
516966	5568270	I was going to call you but I hate to bother your holiday.	I was going to call you but i hate to bother your holiday.	264314677	1479161250161	1479161250225	 	32
516966	5568270	I was going to call you but I hate to bother your holiday.	I was going to call you but i hate to bother your holiday.	264314682	1479161250257	1479161250361	b	66
516966	5568270	I was going to call you but I hate to bother your holiday.	I was going to call you but i hate to bother your holiday.	264314688	1479161250361	1479161250433	o	79
516966	5568270	I was going to call you but I hate to bother your holiday.	I was going to call you but i hate to bother your holiday.	264314701	1479161250425	1479161250513	t	84
516966	5568270	I was going to call you but I hate to bother your holiday.	I was going to call you but i hate to bother your holiday.	264314703	1479161250545	1479161250617	h	72
516966	5568270	I was going to call you but I hate to bother your holiday.	I was going to call you but i hate to bother your holiday.	264314706	1479161250618	1479161250721	e	69
516966	5568270	I was going to call you but I hate to bother your holiday.	I was going to call you but i hate to bother your holiday.	264314709	1479161250665	1479161250785	r	82
516966	5568270	I was going to call you but I hate to bother your holiday.	I was going to call you but i hate to bother your holiday.	264314712	1479161250761	1479161250841	 	32
516966	5568270	I was going to call you but I hate to bother your holiday.	I was going to call you but i hate to bother your holiday.	264314719	1479161250825	1479161250913	y	89
516966	5568270	I was going to call you but I hate to bother your holiday.	I was going to call you but i hate to bother your holiday.	264314723	1479161250905	1479161251017	o	79
516966	5568270	I was going to call you but I hate to bother your holiday.	I was going to call you but i hate to bother your holiday.	264314728	1479161250977	1479161251057	u	85
516966	5568270	I was going to call you but I hate to bother your holiday.	I was going to call you but i hate to bother your holiday.	264314733	1479161251057	1479161251137	r	82
516966	5568270	I was going to call you but I hate to bother your holiday.	I was going to call you but i hate to bother your holiday.	264314739	1479161251145	1479161251289	 	32
516966	5568270	I was going to call you but I hate to bother your holiday.	I was going to call you but i hate to bother your holiday.	264314752	1479161251265	1479161251417	h	72
516966	5568270	I was going to call you but I hate to bother your holiday.	I was going to call you but i hate to bother your holiday.	264314753	1479161251393	1479161251497	o	79
516966	5568270	I was going to call you but I hate to bother your holiday.	I was going to call you but i hate to bother your holiday.	264314754	1479161251577	1479161251657	l	76
516966	5568270	I was going to call you but I hate to bother your holiday.	I was going to call you but i hate to bother your holiday.	264314755	1479161251737	1479161251817	i	73
516966	5568270	I was going to call you but I hate to bother your holiday.	I was going to call you but i hate to bother your holiday.	264314756	1479161251889	1479161252008	d	68
516966	5568270	I was going to call you but I hate to bother your holiday.	I was going to call you but i hate to bother your holiday.	264314793	1479161251985	1479161252097	a	65
516966	5568270	I was going to call you but I hate to bother your holiday.	I was going to call you but i hate to bother your holiday.	264314796	1479161252082	1479161252137	y	89
516966	5568270	I was going to call you but I hate to bother your holiday.	I was going to call you but i hate to bother your holiday.	264314800	1479161252305	1479161252377	.	190
516966	5568277	But he is expected to play against the Raiders on Sunday night.	But he is expected to play against the Raiders on Sunday night.	264314914	1479161254698	1479161255225	SHIFT	16
516966	5568277	But he is expected to play against the Raiders on Sunday night.	But he is expected to play against the Raiders on Sunday night.	264314915	1479161255145	1479161255225	B	66
516966	5568277	But he is expected to play against the Raiders on Sunday night.	But he is expected to play against the Raiders on Sunday night.	264314916	1479161255353	1479161255433	u	85
516966	5568277	But he is expected to play against the Raiders on Sunday night.	But he is expected to play against the Raiders on Sunday night.	264314917	1479161255497	1479161255569	t	84
516966	5568277	But he is expected to play against the Raiders on Sunday night.	But he is expected to play against the Raiders on Sunday night.	264314918	1479161255537	1479161255609	 	32
516966	5568277	But he is expected to play against the Raiders on Sunday night.	But he is expected to play against the Raiders on Sunday night.	264314919	1479161255689	1479161255760	 	32
516966	5568277	But he is expected to play against the Raiders on Sunday night.	But he is expected to play against the Raiders on Sunday night.	264314880	1479161255744	1479161255817	h	72
516966	5568277	But he is expected to play against the Raiders on Sunday night.	But he is expected to play against the Raiders on Sunday night.	264314882	1479161255857	1479161255945	e	69
516966	5568277	But he is expected to play against the Raiders on Sunday night.	But he is expected to play against the Raiders on Sunday night.	264314883	1479161255985	1479161256073	 	32
516966	5568277	But he is expected to play against the Raiders on Sunday night.	But he is expected to play against the Raiders on Sunday night.	264314885	1479161256081	1479161256153	i	73
516966	5568277	But he is expected to play against the Raiders on Sunday night.	But he is expected to play against the Raiders on Sunday night.	264314886	1479161256160	1479161256249	s	83
516966	5568277	But he is expected to play against the Raiders on Sunday night.	But he is expected to play against the Raiders on Sunday night.	264314888	1479161256298	1479161256377	 	32
516966	5568277	But he is expected to play against the Raiders on Sunday night.	But he is expected to play against the Raiders on Sunday night.	264315057	1479161256617	1479161256721	e	69
516966	5568277	But he is expected to play against the Raiders on Sunday night.	But he is expected to play against the Raiders on Sunday night.	264315059	1479161257209	1479161257330	x	88
516966	5568277	But he is expected to play against the Raiders on Sunday night.	But he is expected to play against the Raiders on Sunday night.	264315061	1479161259273	1479161259969	BKSP	8
516966	5568277	But he is expected to play against the Raiders on Sunday night.	But he is expected to play against the Raiders on Sunday night.	264315066	1479161260161	1479161260264	BKSP	8
516966	5568277	But he is expected to play against the Raiders on Sunday night.	But he is expected to play against the Raiders on Sunday night.	264315070	1479161260354	1479161260433	BKSP	8
516966	5568277	But he is expected to play against the Raiders on Sunday night.	But he is expected to play against the Raiders on Sunday night.	264315074	1479161260881	1479161260945	h	72
516966	5568277	But he is expected to play against the Raiders on Sunday night.	But he is expected to play against the Raiders on Sunday night.	264315078	1479161261016	1479161261090	e	69
516966	5568277	But he is expected to play against the Raiders on Sunday night.	But he is expected to play against the Raiders on Sunday night.	264315122	1479161261065	1479161261161	 	32
516966	5568277	But he is expected to play against the Raiders on Sunday night.	But he is expected to play against the Raiders on Sunday night.	264315123	1479161261153	1479161261241	i	73
516966	5568277	But he is expected to play against the Raiders on Sunday night.	But he is expected to play against the Raiders on Sunday night.	264315125	1479161261233	1479161261321	s	83
516966	5568277	But he is expected to play against the Raiders on Sunday night.	But he is expected to play against the Raiders on Sunday night.	264315129	1479161261313	1479161261377	 	32
516966	5568277	But he is expected to play against the Raiders on Sunday night.	But he is expected to play against the Raiders on Sunday night.	264315133	1479161261441	1479161261593	e	69
516966	5568277	But he is expected to play against the Raiders on Sunday night.	But he is expected to play against the Raiders on Sunday night.	264315127	1479161261545	1479161261665	x	88
516966	5568277	But he is expected to play against the Raiders on Sunday night.	But he is expected to play against the Raiders on Sunday night.	264315130	1479161261673	1479161261793	p	80
516966	5568277	But he is expected to play against the Raiders on Sunday night.	But he is expected to play against the Raiders on Sunday night.	264315136	1479161261801	1479161261817	l	76
516966	5568277	But he is expected to play against the Raiders on Sunday night.	But he is expected to play against the Raiders on Sunday night.	264315141	1479161262273	1479161262337	BKSP	8
516966	5568277	But he is expected to play against the Raiders on Sunday night.	But he is expected to play against the Raiders on Sunday night.	264315146	1479161262345	1479161262448	e	69
516966	5568277	But he is expected to play against the Raiders on Sunday night.	But he is expected to play against the Raiders on Sunday night.	264315150	1479161262433	1479161262521	c	67
516966	5568277	But he is expected to play against the Raiders on Sunday night.	But he is expected to play against the Raiders on Sunday night.	264315154	1479161262609	1479161262745	t	84
516966	5568277	But he is expected to play against the Raiders on Sunday night.	But he is expected to play against the Raiders on Sunday night.	264315166	1479161262705	1479161262801	e	69
516966	5568277	But he is expected to play against the Raiders on Sunday night.	But he is expected to play against the Raiders on Sunday night.	264315169	1479161262865	1479161262961	d	68
516966	5568277	But he is expected to play against the Raiders on Sunday night.	But he is expected to play against the Raiders on Sunday night.	264315172	1479161262953	1479161263025	 	32
516966	5568277	But he is expected to play against the Raiders on Sunday night.	But he is expected to play against the Raiders on Sunday night.	264315175	1479161263057	1479161263161	t	84
516966	5568277	But he is expected to play against the Raiders on Sunday night.	But he is expected to play against the Raiders on Sunday night.	264315177	1479161263137	1479161263265	o	79
516966	5568277	But he is expected to play against the Raiders on Sunday night.	But he is expected to play against the Raiders on Sunday night.	264315194	1479161263241	1479161263361	 	32
516966	5568277	But he is expected to play against the Raiders on Sunday night.	But he is expected to play against the Raiders on Sunday night.	264315197	1479161263345	1479161263473	p	80
516966	5568277	But he is expected to play against the Raiders on Sunday night.	But he is expected to play against the Raiders on Sunday night.	264315201	1479161263385	1479161263481	l	76
516966	5568277	But he is expected to play against the Raiders on Sunday night.	But he is expected to play against the Raiders on Sunday night.	264315205	1479161263489	1479161263553	a	65
516966	5568277	But he is expected to play against the Raiders on Sunday night.	But he is expected to play against the Raiders on Sunday night.	264315206	1479161263609	1479161263705	y	89
516966	5568277	But he is expected to play against the Raiders on Sunday night.	But he is expected to play against the Raiders on Sunday night.	264315228	1479161263681	1479161263769	 	32
516966	5568277	But he is expected to play against the Raiders on Sunday night.	But he is expected to play against the Raiders on Sunday night.	264315229	1479161263841	1479161263913	a	65
516966	5568277	But he is expected to play against the Raiders on Sunday night.	But he is expected to play against the Raiders on Sunday night.	264315230	1479161264201	1479161264329	g	71
516966	5568277	But he is expected to play against the Raiders on Sunday night.	But he is expected to play against the Raiders on Sunday night.	264315232	1479161264305	1479161264393	a	65
516966	5568277	But he is expected to play against the Raiders on Sunday night.	But he is expected to play against the Raiders on Sunday night.	264315234	1479161264425	1479161264497	i	73
516966	5568277	But he is expected to play against the Raiders on Sunday night.	But he is expected to play against the Raiders on Sunday night.	264315240	1479161264473	1479161264553	n	78
516966	5568277	But he is expected to play against the Raiders on Sunday night.	But he is expected to play against the Raiders on Sunday night.	264315244	1479161264537	1479161264665	s	83
516966	5568277	But he is expected to play against the Raiders on Sunday night.	But he is expected to play against the Raiders on Sunday night.	264315248	1479161264617	1479161264721	t	84
516966	5568277	But he is expected to play against the Raiders on Sunday night.	But he is expected to play against the Raiders on Sunday night.	264315250	1479161264729	1479161264793	 	32
516966	5568277	But he is expected to play against the Raiders on Sunday night.	But he is expected to play against the Raiders on Sunday night.	264315281	1479161264833	1479161264945	t	84
516966	5568277	But he is expected to play against the Raiders on Sunday night.	But he is expected to play against the Raiders on Sunday night.	264315256	1479161264865	1479161264929	h	72
516966	5568277	But he is expected to play against the Raiders on Sunday night.	But he is expected to play against the Raiders on Sunday night.	264315284	1479161264961	1479161265041	e	69
516966	5568277	But he is expected to play against the Raiders on Sunday night.	But he is expected to play against the Raiders on Sunday night.	264315288	1479161265057	1479161265128	 	32
516966	5568277	But he is expected to play against the Raiders on Sunday night.	But he is expected to play against the Raiders on Sunday night.	264315294	1479161265385	1479161265504	SHIFT	16
516966	5568277	But he is expected to play against the Raiders on Sunday night.	But he is expected to play against the Raiders on Sunday night.	264315298	1479161265465	1479161265569	R	82
516966	5568277	But he is expected to play against the Raiders on Sunday night.	But he is expected to play against the Raiders on Sunday night.	264315302	1479161265577	1479161265657	a	65
516966	5568277	But he is expected to play against the Raiders on Sunday night.	But he is expected to play against the Raiders on Sunday night.	264315306	1479161265745	1479161265809	i	73
516966	5568277	But he is expected to play against the Raiders on Sunday night.	But he is expected to play against the Raiders on Sunday night.	264315338	1479161265793	1479161265873	d	68
516966	5568277	But he is expected to play against the Raiders on Sunday night.	But he is expected to play against the Raiders on Sunday night.	264315339	1479161266017	1479161266185	e	69
516966	5568277	But he is expected to play against the Raiders on Sunday night.	But he is expected to play against the Raiders on Sunday night.	264315341	1479161266113	1479161266281	r	82
516966	5568277	But he is expected to play against the Raiders on Sunday night.	But he is expected to play against the Raiders on Sunday night.	264315343	1479161266201	1479161266345	s	83
516966	5568277	But he is expected to play against the Raiders on Sunday night.	But he is expected to play against the Raiders on Sunday night.	264315348	1479161266345	1479161266417	 	32
516966	5568277	But he is expected to play against the Raiders on Sunday night.	But he is expected to play against the Raiders on Sunday night.	264315352	1479161266473	1479161266553	o	79
516966	5568277	But he is expected to play against the Raiders on Sunday night.	But he is expected to play against the Raiders on Sunday night.	264315402	1479161266537	1479161266633	n	78
516966	5568277	But he is expected to play against the Raiders on Sunday night.	But he is expected to play against the Raiders on Sunday night.	264315405	1479161266633	1479161266713	 	32
516966	5568277	But he is expected to play against the Raiders on Sunday night.	But he is expected to play against the Raiders on Sunday night.	264315409	1479161266785	1479161266913	SHIFT	16
516966	5568277	But he is expected to play against the Raiders on Sunday night.	But he is expected to play against the Raiders on Sunday night.	264315414	1479161266857	1479161266937	S	83
516966	5568277	But he is expected to play against the Raiders on Sunday night.	But he is expected to play against the Raiders on Sunday night.	264315416	1479161267026	1479161267065	u	85
516966	5568277	But he is expected to play against the Raiders on Sunday night.	But he is expected to play against the Raiders on Sunday night.	264315418	1479161267465	1479161267537	n	78
516966	5568277	But he is expected to play against the Raiders on Sunday night.	But he is expected to play against the Raiders on Sunday night.	264315419	1479161267601	1479161267697	d	68
516966	5568277	But he is expected to play against the Raiders on Sunday night.	But he is expected to play against the Raiders on Sunday night.	264315428	1479161267681	1479161267769	a	65
516966	5568277	But he is expected to play against the Raiders on Sunday night.	But he is expected to play against the Raiders on Sunday night.	264315430	1479161267752	1479161267825	y	89
516966	5568277	But he is expected to play against the Raiders on Sunday night.	But he is expected to play against the Raiders on Sunday night.	264315432	1479161267961	1479161268041	 	32
516966	5568277	But he is expected to play against the Raiders on Sunday night.	But he is expected to play against the Raiders on Sunday night.	264315436	1479161268209	1479161268313	n	78
516966	5568277	But he is expected to play against the Raiders on Sunday night.	But he is expected to play against the Raiders on Sunday night.	264315440	1479161268297	1479161268377	i	73
516966	5568277	But he is expected to play against the Raiders on Sunday night.	But he is expected to play against the Raiders on Sunday night.	264315445	1479161268385	1479161268448	g	71
516966	5568277	But he is expected to play against the Raiders on Sunday night.	But he is expected to play against the Raiders on Sunday night.	264315472	1479161268496	1479161268553	h	72
516966	5568277	But he is expected to play against the Raiders on Sunday night.	But he is expected to play against the Raiders on Sunday night.	264315473	1479161268545	1479161268617	t	84
516966	5568277	But he is expected to play against the Raiders on Sunday night.	But he is expected to play against the Raiders on Sunday night.	264315474	1479161268729	1479161268785	.	190
516966	5568288	Please call me if you see any problems.	Please call me if you see any problems.	264315591	1479161270457	1479161270993	SHIFT	16
516966	5568288	Please call me if you see any problems.	Please call me if you see any problems.	264315594	1479161271409	1479161271880	SHIFT	16
516966	5568288	Please call me if you see any problems.	Please call me if you see any problems.	264315593	1479161271817	1479161271849	P	80
516966	5568288	Please call me if you see any problems.	Please call me if you see any problems.	264315598	1479161271977	1479161272033	l	76
516966	5568288	Please call me if you see any problems.	Please call me if you see any problems.	264315604	1479161272049	1479161272129	e	69
516966	5568288	Please call me if you see any problems.	Please call me if you see any problems.	264315609	1479161272137	1479161272281	a	65
516966	5568288	Please call me if you see any problems.	Please call me if you see any problems.	264315615	1479161272233	1479161272377	s	83
516966	5568288	Please call me if you see any problems.	Please call me if you see any problems.	264315618	1479161272273	1479161272433	e	69
516966	5568288	Please call me if you see any problems.	Please call me if you see any problems.	264315623	1479161272393	1479161272457	 	32
516966	5568288	Please call me if you see any problems.	Please call me if you see any problems.	264315627	1479161272537	1479161272673	c	67
516966	5568288	Please call me if you see any problems.	Please call me if you see any problems.	264315632	1479161272625	1479161272721	a	65
516966	5568288	Please call me if you see any problems.	Please call me if you see any problems.	264315630	1479161272665	1479161272713	l	76
516966	5568288	Please call me if you see any problems.	Please call me if you see any problems.	264315633	1479161272801	1479161272905	l	76
516966	5568288	Please call me if you see any problems.	Please call me if you see any problems.	264315634	1479161272897	1479161273008	 	32
516966	5568288	Please call me if you see any problems.	Please call me if you see any problems.	264315636	1479161272993	1479161273065	m	77
516966	5568288	Please call me if you see any problems.	Please call me if you see any problems.	264315638	1479161273049	1479161273121	e	69
516966	5568288	Please call me if you see any problems.	Please call me if you see any problems.	264315641	1479161273161	1479161273233	 	32
516966	5568288	Please call me if you see any problems.	Please call me if you see any problems.	264315644	1479161273249	1479161273313	i	73
516966	5568288	Please call me if you see any problems.	Please call me if you see any problems.	264315655	1479161273305	1479161273384	f	70
516966	5568288	Please call me if you see any problems.	Please call me if you see any problems.	264315656	1479161273417	1479161273513	 	32
516966	5568288	Please call me if you see any problems.	Please call me if you see any problems.	264315657	1479161273489	1479161273593	y	89
516966	5568288	Please call me if you see any problems.	Please call me if you see any problems.	264315658	1479161273585	1479161273713	o	79
516966	5568288	Please call me if you see any problems.	Please call me if you see any problems.	264315660	1479161273665	1479161273785	u	85
516966	5568288	Please call me if you see any problems.	Please call me if you see any problems.	264315674	1479161273753	1479161273857	 	32
516966	5568288	Please call me if you see any problems.	Please call me if you see any problems.	264315677	1479161273826	1479161273905	s	83
516966	5568288	Please call me if you see any problems.	Please call me if you see any problems.	264315679	1479161273865	1479161273946	e	69
516966	5568288	Please call me if you see any problems.	Please call me if you see any problems.	264315682	1479161274017	1479161274097	e	69
516966	5568288	Please call me if you see any problems.	Please call me if you see any problems.	264315686	1479161274097	1479161274209	 	32
516966	5568288	Please call me if you see any problems.	Please call me if you see any problems.	264315688	1479161274233	1479161274305	a	65
516966	5568288	Please call me if you see any problems.	Please call me if you see any problems.	264315695	1479161274289	1479161274354	n	78
516966	5568288	Please call me if you see any problems.	Please call me if you see any problems.	264315696	1479161274441	1479161274537	y	89
516966	5568288	Please call me if you see any problems.	Please call me if you see any problems.	264315697	1479161274529	1479161274625	 	32
516966	5568288	Please call me if you see any problems.	Please call me if you see any problems.	264315698	1479161274617	1479161274737	p	80
516966	5568288	Please call me if you see any problems.	Please call me if you see any problems.	264315699	1479161274753	1479161274848	r	82
516966	5568288	Please call me if you see any problems.	Please call me if you see any problems.	264315700	1479161274880	1479161274945	o	79
516966	5568288	Please call me if you see any problems.	Please call me if you see any problems.	264315720	1479161275089	1479161275185	b	66
516966	5568288	Please call me if you see any problems.	Please call me if you see any problems.	264315722	1479161275185	1479161275264	l	76
516966	5568288	Please call me if you see any problems.	Please call me if you see any problems.	264315724	1479161275321	1479161275393	e	69
516966	5568288	Please call me if you see any problems.	Please call me if you see any problems.	264315726	1479161275385	1479161275449	m	77
516966	5568288	Please call me if you see any problems.	Please call me if you see any problems.	264315727	1479161275537	1479161275601	s	83
516966	5568288	Please call me if you see any problems.	Please call me if you see any problems.	264315736	1479161275608	1479161275673	.	190
516966	5568296	What do you think?	What do you think?	264315790	1479161277561	1479161277825	SHIFT	16
516966	5568296	What do you think?	What do you think?	264315793	1479161277761	1479161277849	W	87
516966	5568296	What do you think?	What do you think?	264315797	1479161277953	1479161278017	h	72
516966	5568296	What do you think?	What do you think?	264315801	1479161278065	1479161278137	a	65
516966	5568296	What do you think?	What do you think?	264315804	1479161278105	1479161278200	t	84
516966	5568296	What do you think?	What do you think?	264315808	1479161278185	1479161278266	 	32
516966	5568296	What do you think?	What do you think?	264315809	1479161278313	1479161278393	d	68
516966	5568296	What do you think?	What do you think?	264315811	1479161278353	1479161278481	o	79
516966	5568296	What do you think?	What do you think?	264315815	1479161278457	1479161278537	 	32
516966	5568296	What do you think?	What do you think?	264315819	1479161278529	1479161278617	y	89
516966	5568296	What do you think?	What do you think?	264315829	1479161278601	1479161278729	o	79
516966	5568296	What do you think?	What do you think?	264315831	1479161278666	1479161278769	u	85
516966	5568296	What do you think?	What do you think?	264315833	1479161278745	1479161278825	 	32
516966	5568296	What do you think?	What do you think?	264315835	1479161278817	1479161278913	t	84
516966	5568296	What do you think?	What do you think?	264315838	1479161278913	1479161278985	h	72
516966	5568296	What do you think?	What do you think?	264315858	1479161278953	1479161279065	i	73
516966	5568296	What do you think?	What do you think?	264315860	1479161279081	1479161279193	n	78
516966	5568296	What do you think?	What do you think?	264315862	1479161279177	1479161279249	k	75
516966	5568296	What do you think?	What do you think?	264315863	1479161279417	1479161279713	SHIFT	16
516966	5568296	What do you think?	What do you think?	264315864	1479161279601	1479161279721	?	191
516966	5568299	Could you try ringing her?	Could you try ringing her?	264315956	1479161281889	1479161282105	SHIFT	16
516966	5568299	Could you try ringing her?	Could you try ringing her?	264315959	1479161282097	1479161282177	C	67
516966	5568299	Could you try ringing her?	Could you try ringing her?	264315964	1479161282233	1479161282352	o	79
516966	5568299	Could you try ringing her?	Could you try ringing her?	264315968	1479161282329	1479161282425	u	85
516966	5568299	Could you try ringing her?	Could you try ringing her?	264315971	1479161282449	1479161282545	l	76
516966	5568299	Could you try ringing her?	Could you try ringing her?	264315980	1479161282521	1479161282609	d	68
516966	5568299	Could you try ringing her?	Could you try ringing her?	264315981	1479161282633	1479161282736	 	32
516966	5568299	Could you try ringing her?	Could you try ringing her?	264315983	1479161282737	1479161282833	y	89
516966	5568299	Could you try ringing her?	Could you try ringing her?	264315985	1479161282825	1479161282953	o	79
516966	5568299	Could you try ringing her?	Could you try ringing her?	264315987	1479161282905	1479161283017	u	85
516966	5568299	Could you try ringing her?	Could you try ringing her?	264316014	1479161282985	1479161283081	 	32
516966	5568299	Could you try ringing her?	Could you try ringing her?	264316017	1479161283096	1479161283169	g	71
516966	5568299	Could you try ringing her?	Could you try ringing her?	264316022	1479161283241	1479161283337	r	82
516966	5568299	Could you try ringing her?	Could you try ringing her?	264316028	1479161283569	1479161283633	BKSP	8
516966	5568299	Could you try ringing her?	Could you try ringing her?	264316033	1479161283690	1479161283753	BKSP	8
516966	5568299	Could you try ringing her?	Could you try ringing her?	264316037	1479161283777	1479161283857	t	84
516966	5568299	Could you try ringing her?	Could you try ringing her?	264316042	1479161283945	1479161284049	r	82
516966	5568299	Could you try ringing her?	Could you try ringing her?	264316083	1479161283977	1479161284105	y	89
516966	5568299	Could you try ringing her?	Could you try ringing her?	264316087	1479161284105	1479161284185	 	32
516966	5568299	Could you try ringing her?	Could you try ringing her?	264316088	1479161284256	1479161284345	r	82
516966	5568299	Could you try ringing her?	Could you try ringing her?	264316091	1479161284425	1479161284449	i	73
516966	5568299	Could you try ringing her?	Could you try ringing her?	264316094	1479161284457	1479161284537	n	78
516966	5568299	Could you try ringing her?	Could you try ringing her?	264316096	1479161285209	1479161285281	g	71
516966	5568299	Could you try ringing her?	Could you try ringing her?	264316098	1479161285313	1479161285385	i	73
516966	5568299	Could you try ringing her?	Could you try ringing her?	264316100	1479161285377	1479161285449	n	78
516966	5568299	Could you try ringing her?	Could you try ringing her?	264316103	1479161285457	1479161285545	g	71
516966	5568299	Could you try ringing her?	Could you try ringing her?	264316106	1479161285609	1479161285665	 	32
516966	5568299	Could you try ringing her?	Could you try ringing her?	264316108	1479161285760	1479161285817	h	72
516966	5568299	Could you try ringing her?	Could you try ringing her?	264316143	1479161285825	1479161285929	e	69
516966	5568299	Could you try ringing her?	Could you try ringing her?	264316145	1479161285889	1479161285985	r	82
516966	5568299	Could you try ringing her?	Could you try ringing her?	264316147	1479161286049	1479161286089	.	190
516966	5568299	Could you try ringing her?	Could you try ringing her?	264316149	1479161286393	1479161286441	BKSP	8
516966	5568299	Could you try ringing her?	Could you try ringing her?	264316150	1479161286681	1479161286793	?	16
516966	5568303	We are sitting in Weil's offices, waiting to negotiate.	We are sitting in Weil's offices, waiting to negotiate.	264316190	1479161288689	1479161289241	SHIFT	16
516966	5568303	We are sitting in Weil's offices, waiting to negotiate.	We are sitting in Weil's offices, waiting to negotiate.	264316192	1479161289177	1479161289297	W	87
516966	5568303	We are sitting in Weil's offices, waiting to negotiate.	We are sitting in Weil's offices, waiting to negotiate.	264316193	1479161289569	1479161289657	e	69
516966	5568303	We are sitting in Weil's offices, waiting to negotiate.	We are sitting in Weil's offices, waiting to negotiate.	264316195	1479161289706	1479161289769	 	32
516966	5568303	We are sitting in Weil's offices, waiting to negotiate.	We are sitting in Weil's offices, waiting to negotiate.	264316196	1479161289801	1479161289905	a	65
516966	5568303	We are sitting in Weil's offices, waiting to negotiate.	We are sitting in Weil's offices, waiting to negotiate.	264316206	1479161289857	1479161289985	r	82
516966	5568303	We are sitting in Weil's offices, waiting to negotiate.	We are sitting in Weil's offices, waiting to negotiate.	264316208	1479161289929	1479161290017	e	69
516966	5568303	We are sitting in Weil's offices, waiting to negotiate.	We are sitting in Weil's offices, waiting to negotiate.	264316212	1479161289977	1479161290041	 	32
516966	5568303	We are sitting in Weil's offices, waiting to negotiate.	We are sitting in Weil's offices, waiting to negotiate.	264316216	1479161290137	1479161290248	s	83
516966	5568303	We are sitting in Weil's offices, waiting to negotiate.	We are sitting in Weil's offices, waiting to negotiate.	264316219	1479161290220	1479161290305	t	84
516966	5568303	We are sitting in Weil's offices, waiting to negotiate.	We are sitting in Weil's offices, waiting to negotiate.	264316221	1479161290457	1479161290513	i	73
516966	5568303	We are sitting in Weil's offices, waiting to negotiate.	We are sitting in Weil's offices, waiting to negotiate.	264316268	1479161290721	1479161290777	BKSP	8
516966	5568303	We are sitting in Weil's offices, waiting to negotiate.	We are sitting in Weil's offices, waiting to negotiate.	264316270	1479161290849	1479161290905	BKSP	8
516966	5568303	We are sitting in Weil's offices, waiting to negotiate.	We are sitting in Weil's offices, waiting to negotiate.	264316272	1479161291081	1479161291113	i	73
516966	5568303	We are sitting in Weil's offices, waiting to negotiate.	We are sitting in Weil's offices, waiting to negotiate.	264316274	1479161291161	1479161291241	t	84
516966	5568303	We are sitting in Weil's offices, waiting to negotiate.	We are sitting in Weil's offices, waiting to negotiate.	264316277	1479161291345	1479161291409	t	84
516966	5568303	We are sitting in Weil's offices, waiting to negotiate.	We are sitting in Weil's offices, waiting to negotiate.	264316280	1479161291865	1479161291945	i	73
516966	5568303	We are sitting in Weil's offices, waiting to negotiate.	We are sitting in Weil's offices, waiting to negotiate.	264316290	1479161291913	1479161292041	n	78
516966	5568303	We are sitting in Weil's offices, waiting to negotiate.	We are sitting in Weil's offices, waiting to negotiate.	264316293	1479161292073	1479161292152	g	71
516966	5568303	We are sitting in Weil's offices, waiting to negotiate.	We are sitting in Weil's offices, waiting to negotiate.	264316296	1479161292177	1479161292265	 	32
516966	5568303	We are sitting in Weil's offices, waiting to negotiate.	We are sitting in Weil's offices, waiting to negotiate.	264316299	1479161292281	1479161292393	i	73
516966	5568303	We are sitting in Weil's offices, waiting to negotiate.	We are sitting in Weil's offices, waiting to negotiate.	264316302	1479161292361	1479161292457	n	78
516966	5568303	We are sitting in Weil's offices, waiting to negotiate.	We are sitting in Weil's offices, waiting to negotiate.	264316349	1479161292449	1479161292529	 	32
516966	5568303	We are sitting in Weil's offices, waiting to negotiate.	We are sitting in Weil's offices, waiting to negotiate.	264316353	1479161292817	1479161293033	SHIFT	16
516966	5568303	We are sitting in Weil's offices, waiting to negotiate.	We are sitting in Weil's offices, waiting to negotiate.	264316351	1479161292953	1479161293025	W	87
516966	5568303	We are sitting in Weil's offices, waiting to negotiate.	We are sitting in Weil's offices, waiting to negotiate.	264316355	1479161293153	1479161293225	e	69
516966	5568303	We are sitting in Weil's offices, waiting to negotiate.	We are sitting in Weil's offices, waiting to negotiate.	264316357	1479161293313	1479161293433	i	73
516966	5568303	We are sitting in Weil's offices, waiting to negotiate.	We are sitting in Weil's offices, waiting to negotiate.	264316359	1479161293417	1479161293465	l	76
516966	5568303	We are sitting in Weil's offices, waiting to negotiate.	We are sitting in Weil's offices, waiting to negotiate.	264316362	1479161293833	1479161293881	BKSP	8
516966	5568303	We are sitting in Weil's offices, waiting to negotiate.	We are sitting in Weil's offices, waiting to negotiate.	264316367	1479161294305	1479161294353	;	186
516966	5568303	We are sitting in Weil's offices, waiting to negotiate.	We are sitting in Weil's offices, waiting to negotiate.	264316424	1479161294728	1479161294792	BKSP	8
516966	5568303	We are sitting in Weil's offices, waiting to negotiate.	We are sitting in Weil's offices, waiting to negotiate.	264316425	1479161295065	1479161295137	l	76
516966	5568303	We are sitting in Weil's offices, waiting to negotiate.	We are sitting in Weil's offices, waiting to negotiate.	264316426	1479161295249	1479161295297	'	222
516966	5568303	We are sitting in Weil's offices, waiting to negotiate.	We are sitting in Weil's offices, waiting to negotiate.	264316427	1479161295513	1479161295585	s	83
516966	5568303	We are sitting in Weil's offices, waiting to negotiate.	We are sitting in Weil's offices, waiting to negotiate.	264316429	1479161295705	1479161295785	 	32
516966	5568303	We are sitting in Weil's offices, waiting to negotiate.	We are sitting in Weil's offices, waiting to negotiate.	264316432	1479161296137	1479161296209	o	79
516966	5568303	We are sitting in Weil's offices, waiting to negotiate.	We are sitting in Weil's offices, waiting to negotiate.	264316441	1479161296249	1479161296321	f	70
516966	5568303	We are sitting in Weil's offices, waiting to negotiate.	We are sitting in Weil's offices, waiting to negotiate.	264316442	1479161296409	1479161296489	f	70
516966	5568303	We are sitting in Weil's offices, waiting to negotiate.	We are sitting in Weil's offices, waiting to negotiate.	264316443	1479161296521	1479161296561	i	73
516966	5568303	We are sitting in Weil's offices, waiting to negotiate.	We are sitting in Weil's offices, waiting to negotiate.	264316444	1479161296625	1479161296689	c	67
516966	5568303	We are sitting in Weil's offices, waiting to negotiate.	We are sitting in Weil's offices, waiting to negotiate.	264316445	1479161296865	1479161296993	e	69
516966	5568303	We are sitting in Weil's offices, waiting to negotiate.	We are sitting in Weil's offices, waiting to negotiate.	264316494	1479161296945	1479161297073	s	83
516966	5568303	We are sitting in Weil's offices, waiting to negotiate.	We are sitting in Weil's offices, waiting to negotiate.	264316495	1479161297369	1479161297425	.	190
516966	5568303	We are sitting in Weil's offices, waiting to negotiate.	We are sitting in Weil's offices, waiting to negotiate.	264316496	1479161297705	1479161297752	BKSP	8
516966	5568303	We are sitting in Weil's offices, waiting to negotiate.	We are sitting in Weil's offices, waiting to negotiate.	264316497	1479161297929	1479161297993	,	188
516966	5568303	We are sitting in Weil's offices, waiting to negotiate.	We are sitting in Weil's offices, waiting to negotiate.	264316498	1479161298129	1479161298233	 	32
516966	5568303	We are sitting in Weil's offices, waiting to negotiate.	We are sitting in Weil's offices, waiting to negotiate.	264316500	1479161298321	1479161298417	w	87
516966	5568303	We are sitting in Weil's offices, waiting to negotiate.	We are sitting in Weil's offices, waiting to negotiate.	264316502	1479161298561	1479161298649	a	65
516966	5568303	We are sitting in Weil's offices, waiting to negotiate.	We are sitting in Weil's offices, waiting to negotiate.	264316511	1479161298697	1479161298761	i	73
516966	5568303	We are sitting in Weil's offices, waiting to negotiate.	We are sitting in Weil's offices, waiting to negotiate.	264316513	1479161298825	1479161298904	t	84
516966	5568303	We are sitting in Weil's offices, waiting to negotiate.	We are sitting in Weil's offices, waiting to negotiate.	264316515	1479161298921	1479161299009	i	73
516966	5568303	We are sitting in Weil's offices, waiting to negotiate.	We are sitting in Weil's offices, waiting to negotiate.	264316517	1479161298993	1479161299073	n	78
516966	5568303	We are sitting in Weil's offices, waiting to negotiate.	We are sitting in Weil's offices, waiting to negotiate.	264316519	1479161299089	1479161299169	g	71
516966	5568303	We are sitting in Weil's offices, waiting to negotiate.	We are sitting in Weil's offices, waiting to negotiate.	264316527	1479161299185	1479161299249	 	32
516966	5568303	We are sitting in Weil's offices, waiting to negotiate.	We are sitting in Weil's offices, waiting to negotiate.	264316528	1479161299289	1479161299377	t	84
516966	5568303	We are sitting in Weil's offices, waiting to negotiate.	We are sitting in Weil's offices, waiting to negotiate.	264316529	1479161299369	1479161299465	o	79
516966	5568303	We are sitting in Weil's offices, waiting to negotiate.	We are sitting in Weil's offices, waiting to negotiate.	264316530	1479161299473	1479161299537	 	32
516966	5568303	We are sitting in Weil's offices, waiting to negotiate.	We are sitting in Weil's offices, waiting to negotiate.	264316531	1479161299625	1479161299697	n	78
516966	5568303	We are sitting in Weil's offices, waiting to negotiate.	We are sitting in Weil's offices, waiting to negotiate.	264316548	1479161299833	1479161299913	e	69
516966	5568303	We are sitting in Weil's offices, waiting to negotiate.	We are sitting in Weil's offices, waiting to negotiate.	264316549	1479161300001	1479161300073	g	71
516966	5568303	We are sitting in Weil's offices, waiting to negotiate.	We are sitting in Weil's offices, waiting to negotiate.	264316551	1479161300089	1479161300161	o	79
516966	5568303	We are sitting in Weil's offices, waiting to negotiate.	We are sitting in Weil's offices, waiting to negotiate.	264316552	1479161300250	1479161300337	t	84
516966	5568303	We are sitting in Weil's offices, waiting to negotiate.	We are sitting in Weil's offices, waiting to negotiate.	264316553	1479161300361	1479161300425	i	73
516966	5568303	We are sitting in Weil's offices, waiting to negotiate.	We are sitting in Weil's offices, waiting to negotiate.	264316571	1479161300529	1479161300649	a	65
516966	5568303	We are sitting in Weil's offices, waiting to negotiate.	We are sitting in Weil's offices, waiting to negotiate.	264316572	1479161300625	1479161300784	t	84
516966	5568303	We are sitting in Weil's offices, waiting to negotiate.	We are sitting in Weil's offices, waiting to negotiate.	264316573	1479161300728	1479161300849	e	69
516966	5568303	We are sitting in Weil's offices, waiting to negotiate.	We are sitting in Weil's offices, waiting to negotiate.	264316574	1479161300921	1479161300977	.	190
516966	5568313	So, we need to get these resolved.	So, we need to get these resolved.	264316668	1479161303281	1479161303641	SHIFT	16
516966	5568313	So, we need to get these resolved.	So, we need to get these resolved.	264316673	1479161303617	1479161303697	S	83
516966	5568313	So, we need to get these resolved.	So, we need to get these resolved.	264316675	1479161303825	1479161303881	o	79
516966	5568313	So, we need to get these resolved.	So, we need to get these resolved.	264316677	1479161304089	1479161304144	,	188
516966	5568313	So, we need to get these resolved.	So, we need to get these resolved.	264316678	1479161304401	1479161304504	 	32
516966	5568313	So, we need to get these resolved.	So, we need to get these resolved.	264316679	1479161304593	1479161304689	w	87
516966	5568313	So, we need to get these resolved.	So, we need to get these resolved.	264316693	1479161304633	1479161304745	e	69
516966	5568313	So, we need to get these resolved.	So, we need to get these resolved.	264316698	1479161304737	1479161304841	 	32
516966	5568313	So, we need to get these resolved.	So, we need to get these resolved.	264316704	1479161304825	1479161304912	n	78
516966	5568313	So, we need to get these resolved.	So, we need to get these resolved.	264316709	1479161304897	1479161304969	e	69
516966	5568313	So, we need to get these resolved.	So, we need to get these resolved.	264316712	1479161305049	1479161305137	e	69
516966	5568313	So, we need to get these resolved.	So, we need to get these resolved.	264316714	1479161305218	1479161305288	d	68
516966	5568313	So, we need to get these resolved.	So, we need to get these resolved.	264316727	1479161305281	1479161305345	 	32
516966	5568313	So, we need to get these resolved.	So, we need to get these resolved.	264316729	1479161305401	1479161305489	t	84
516966	5568313	So, we need to get these resolved.	So, we need to get these resolved.	264316731	1479161305497	1479161305617	o	79
516966	5568313	So, we need to get these resolved.	So, we need to get these resolved.	264316733	1479161305593	1479161305672	 	32
516966	5568313	So, we need to get these resolved.	So, we need to get these resolved.	264316735	1479161305705	1479161305793	g	71
516966	5568313	So, we need to get these resolved.	So, we need to get these resolved.	264316739	1479161305793	1479161305921	e	69
516966	5568313	So, we need to get these resolved.	So, we need to get these resolved.	264316745	1479161305889	1479161305968	t	84
516966	5568313	So, we need to get these resolved.	So, we need to get these resolved.	264316747	1479161305953	1479161306024	 	32
516966	5568313	So, we need to get these resolved.	So, we need to get these resolved.	264316749	1479161306081	1479161306185	t	84
516966	5568313	So, we need to get these resolved.	So, we need to get these resolved.	264316751	1479161306169	1479161306257	h	72
516966	5568313	So, we need to get these resolved.	So, we need to get these resolved.	264316753	1479161306273	1479161306392	e	69
516966	5568313	So, we need to get these resolved.	So, we need to get these resolved.	264316773	1479161306377	1479161306522	s	83
516966	5568313	So, we need to get these resolved.	So, we need to get these resolved.	264316777	1479161306473	1479161306577	e	69
516966	5568313	So, we need to get these resolved.	So, we need to get these resolved.	264316782	1479161306585	1479161306657	 	32
516966	5568313	So, we need to get these resolved.	So, we need to get these resolved.	264316786	1479161306697	1479161306769	r	82
516966	5568313	So, we need to get these resolved.	So, we need to get these resolved.	264316790	1479161307025	1479161307160	e	69
516966	5568313	So, we need to get these resolved.	So, we need to get these resolved.	264316805	1479161307129	1479161307241	s	83
516966	5568313	So, we need to get these resolved.	So, we need to get these resolved.	264316806	1479161307337	1479161307409	o	79
516966	5568313	So, we need to get these resolved.	So, we need to get these resolved.	264316807	1479161307496	1479161307577	l	76
516966	5568313	So, we need to get these resolved.	So, we need to get these resolved.	264316808	1479161307585	1479161307689	v	86
516966	5568313	So, we need to get these resolved.	So, we need to get these resolved.	264316810	1479161307649	1479161307729	e	69
516966	5568313	So, we need to get these resolved.	So, we need to get these resolved.	264316812	1479161307809	1479161307888	d	68
516966	5568313	So, we need to get these resolved.	So, we need to get these resolved.	264316822	1479161307873	1479161307937	.	190
516966	5568317	He pleaded guilty in February under an agreement with the government.	He pleaded guilty in February under an agreement with the gobernment.	264316882	1479161309481	1479161310017	SHIFT	16
516966	5568317	He pleaded guilty in February under an agreement with the government.	He pleaded guilty in February under an agreement with the gobernment.	264316883	1479161309977	1479161310041	H	72
516966	5568317	He pleaded guilty in February under an agreement with the government.	He pleaded guilty in February under an agreement with the gobernment.	264316884	1479161310184	1479161310257	e	69
516966	5568317	He pleaded guilty in February under an agreement with the government.	He pleaded guilty in February under an agreement with the gobernment.	264316885	1479161310265	1479161310393	 	32
516966	5568317	He pleaded guilty in February under an agreement with the government.	He pleaded guilty in February under an agreement with the gobernment.	264316887	1479161310377	1479161310481	p	80
516966	5568317	He pleaded guilty in February under an agreement with the government.	He pleaded guilty in February under an agreement with the gobernment.	264316890	1479161310449	1479161310552	l	76
516966	5568317	He pleaded guilty in February under an agreement with the government.	He pleaded guilty in February under an agreement with the gobernment.	264316892	1479161310545	1479161310641	e	69
516966	5568317	He pleaded guilty in February under an agreement with the government.	He pleaded guilty in February under an agreement with the gobernment.	264316894	1479161310880	1479161310993	a	65
516966	5568317	He pleaded guilty in February under an agreement with the government.	He pleaded guilty in February under an agreement with the gobernment.	264316896	1479161310970	1479161311065	d	68
516966	5568317	He pleaded guilty in February under an agreement with the government.	He pleaded guilty in February under an agreement with the gobernment.	264316898	1479161311129	1479161311209	e	69
516966	5568317	He pleaded guilty in February under an agreement with the government.	He pleaded guilty in February under an agreement with the gobernment.	264316901	1479161311289	1479161311377	d	68
516966	5568317	He pleaded guilty in February under an agreement with the government.	He pleaded guilty in February under an agreement with the gobernment.	264316903	1479161311369	1479161311441	 	32
516966	5568317	He pleaded guilty in February under an agreement with the government.	He pleaded guilty in February under an agreement with the gobernment.	264316905	1479161311577	1479161311664	g	71
516966	5568317	He pleaded guilty in February under an agreement with the government.	He pleaded guilty in February under an agreement with the gobernment.	264316908	1479161311649	1479161311745	u	85
516966	5568317	He pleaded guilty in February under an agreement with the government.	He pleaded guilty in February under an agreement with the gobernment.	264316911	1479161311705	1479161311817	i	73
516966	5568317	He pleaded guilty in February under an agreement with the government.	He pleaded guilty in February under an agreement with the gobernment.	264316914	1479161311761	1479161311865	l	76
516966	5568317	He pleaded guilty in February under an agreement with the government.	He pleaded guilty in February under an agreement with the gobernment.	264316926	1479161311849	1479161311929	t	84
516966	5568317	He pleaded guilty in February under an agreement with the government.	He pleaded guilty in February under an agreement with the gobernment.	264316929	1479161311993	1479161312105	y	89
516966	5568317	He pleaded guilty in February under an agreement with the government.	He pleaded guilty in February under an agreement with the gobernment.	264316936	1479161312081	1479161312193	 	32
516966	5568317	He pleaded guilty in February under an agreement with the government.	He pleaded guilty in February under an agreement with the gobernment.	264316940	1479161312185	1479161312305	i	73
516966	5568317	He pleaded guilty in February under an agreement with the government.	He pleaded guilty in February under an agreement with the gobernment.	264316943	1479161312265	1479161312384	n	78
516966	5568317	He pleaded guilty in February under an agreement with the government.	He pleaded guilty in February under an agreement with the gobernment.	264317025	1479161312377	1479161312457	 	32
516966	5568317	He pleaded guilty in February under an agreement with the government.	He pleaded guilty in February under an agreement with the gobernment.	264317028	1479161312577	1479161312873	SHIFT	16
516966	5568317	He pleaded guilty in February under an agreement with the government.	He pleaded guilty in February under an agreement with the gobernment.	264317029	1479161312792	1479161312881	F	70
516966	5568317	He pleaded guilty in February under an agreement with the government.	He pleaded guilty in February under an agreement with the gobernment.	264317030	1479161313001	1479161313081	r	82
516966	5568317	He pleaded guilty in February under an agreement with the government.	He pleaded guilty in February under an agreement with the gobernment.	264317031	1479161313057	1479161313153	e	69
516966	5568317	He pleaded guilty in February under an agreement with the government.	He pleaded guilty in February under an agreement with the gobernment.	264317033	1479161313481	1479161313545	BKSP	8
516966	5568317	He pleaded guilty in February under an agreement with the government.	He pleaded guilty in February under an agreement with the gobernment.	264317035	1479161313721	1479161313785	BKSP	8
516966	5568317	He pleaded guilty in February under an agreement with the government.	He pleaded guilty in February under an agreement with the gobernment.	264317037	1479161313936	1479161314025	e	69
516966	5568317	He pleaded guilty in February under an agreement with the government.	He pleaded guilty in February under an agreement with the gobernment.	264317039	1479161314057	1479161314137	b	66
516966	5568317	He pleaded guilty in February under an agreement with the government.	He pleaded guilty in February under an agreement with the gobernment.	264317042	1479161314328	1479161314393	u	85
516966	5568317	He pleaded guilty in February under an agreement with the government.	He pleaded guilty in February under an agreement with the gobernment.	264317043	1479161314632	1479161314697	BKSP	8
516966	5568317	He pleaded guilty in February under an agreement with the government.	He pleaded guilty in February under an agreement with the gobernment.	264317044	1479161314761	1479161314849	r	82
516966	5568317	He pleaded guilty in February under an agreement with the government.	He pleaded guilty in February under an agreement with the gobernment.	264317045	1479161314881	1479161314929	u	85
516966	5568317	He pleaded guilty in February under an agreement with the government.	He pleaded guilty in February under an agreement with the gobernment.	264317046	1479161314993	1479161315121	a	65
516966	5568317	He pleaded guilty in February under an agreement with the government.	He pleaded guilty in February under an agreement with the gobernment.	264317062	1479161315097	1479161315209	r	82
516966	5568317	He pleaded guilty in February under an agreement with the government.	He pleaded guilty in February under an agreement with the gobernment.	264317064	1479161315369	1479161315449	y	89
516966	5568317	He pleaded guilty in February under an agreement with the government.	He pleaded guilty in February under an agreement with the gobernment.	264317066	1479161315649	1479161315753	 	32
516966	5568317	He pleaded guilty in February under an agreement with the government.	He pleaded guilty in February under an agreement with the gobernment.	264317068	1479161316073	1479161316136	u	85
516966	5568317	He pleaded guilty in February under an agreement with the government.	He pleaded guilty in February under an agreement with the gobernment.	264317070	1479161316225	1479161316289	n	78
516966	5568317	He pleaded guilty in February under an agreement with the government.	He pleaded guilty in February under an agreement with the gobernment.	264317072	1479161316298	1479161316345	d	68
516966	5568317	He pleaded guilty in February under an agreement with the government.	He pleaded guilty in February under an agreement with the gobernment.	264317077	1479161316433	1479161316553	e	69
516966	5568317	He pleaded guilty in February under an agreement with the government.	He pleaded guilty in February under an agreement with the gobernment.	264317081	1479161316505	1479161316601	r	82
516966	5568317	He pleaded guilty in February under an agreement with the government.	He pleaded guilty in February under an agreement with the gobernment.	264317083	1479161316560	1479161316641	 	32
516966	5568317	He pleaded guilty in February under an agreement with the government.	He pleaded guilty in February under an agreement with the gobernment.	264317085	1479161316713	1479161316793	a	65
516966	5568317	He pleaded guilty in February under an agreement with the government.	He pleaded guilty in February under an agreement with the gobernment.	264317094	1479161316745	1479161316809	n	78
516966	5568317	He pleaded guilty in February under an agreement with the government.	He pleaded guilty in February under an agreement with the gobernment.	264317096	1479161316865	1479161316936	 	32
516966	5568317	He pleaded guilty in February under an agreement with the government.	He pleaded guilty in February under an agreement with the gobernment.	264317100	1479161317185	1479161317296	a	65
516966	5568317	He pleaded guilty in February under an agreement with the government.	He pleaded guilty in February under an agreement with the gobernment.	264317103	1479161317353	1479161317441	g	71
516966	5568317	He pleaded guilty in February under an agreement with the government.	He pleaded guilty in February under an agreement with the gobernment.	264317106	1479161317561	1479161317689	r	82
516966	5568317	He pleaded guilty in February under an agreement with the government.	He pleaded guilty in February under an agreement with the gobernment.	264317128	1479161317648	1479161317729	e	69
516966	5568317	He pleaded guilty in February under an agreement with the government.	He pleaded guilty in February under an agreement with the gobernment.	264317132	1479161317809	1479161317897	e	69
516966	5568317	He pleaded guilty in February under an agreement with the government.	He pleaded guilty in February under an agreement with the gobernment.	264317136	1479161317913	1479161317993	m	77
516966	5568317	He pleaded guilty in February under an agreement with the government.	He pleaded guilty in February under an agreement with the gobernment.	264317142	1479161318048	1479161318129	e	69
516966	5568317	He pleaded guilty in February under an agreement with the government.	He pleaded guilty in February under an agreement with the gobernment.	264317147	1479161318193	1479161318249	n	78
516966	5568317	He pleaded guilty in February under an agreement with the government.	He pleaded guilty in February under an agreement with the gobernment.	264317150	1479161318289	1479161318369	t	84
516966	5568317	He pleaded guilty in February under an agreement with the government.	He pleaded guilty in February under an agreement with the gobernment.	264317154	1479161318376	1479161318449	 	32
516966	5568317	He pleaded guilty in February under an agreement with the government.	He pleaded guilty in February under an agreement with the gobernment.	264317155	1479161318505	1479161318577	w	87
516966	5568317	He pleaded guilty in February under an agreement with the government.	He pleaded guilty in February under an agreement with the gobernment.	264317156	1479161318577	1479161318657	i	73
516966	5568317	He pleaded guilty in February under an agreement with the government.	He pleaded guilty in February under an agreement with the gobernment.	264317157	1479161318745	1479161318817	t	84
516966	5568317	He pleaded guilty in February under an agreement with the government.	He pleaded guilty in February under an agreement with the gobernment.	264317158	1479161318849	1479161318937	h	72
516966	5568317	He pleaded guilty in February under an agreement with the government.	He pleaded guilty in February under an agreement with the gobernment.	264317164	1479161319033	1479161319105	 	32
516966	5568317	He pleaded guilty in February under an agreement with the government.	He pleaded guilty in February under an agreement with the gobernment.	264317166	1479161319113	1479161319217	t	84
516966	5568317	He pleaded guilty in February under an agreement with the government.	He pleaded guilty in February under an agreement with the gobernment.	264317171	1479161319193	1479161319257	h	72
516966	5568317	He pleaded guilty in February under an agreement with the government.	He pleaded guilty in February under an agreement with the gobernment.	264317175	1479161319273	1479161319385	e	69
516966	5568317	He pleaded guilty in February under an agreement with the government.	He pleaded guilty in February under an agreement with the gobernment.	264317208	1479161319369	1479161319433	 	32
516966	5568317	He pleaded guilty in February under an agreement with the government.	He pleaded guilty in February under an agreement with the gobernment.	264317211	1479161319745	1479161319833	g	71
516966	5568317	He pleaded guilty in February under an agreement with the government.	He pleaded guilty in February under an agreement with the gobernment.	264317214	1479161319969	1479161320057	o	79
516966	5568317	He pleaded guilty in February under an agreement with the government.	He pleaded guilty in February under an agreement with the gobernment.	264317217	1479161320113	1479161320185	b	66
516966	5568317	He pleaded guilty in February under an agreement with the government.	He pleaded guilty in February under an agreement with the gobernment.	264317220	1479161320337	1479161320449	e	69
516966	5568317	He pleaded guilty in February under an agreement with the government.	He pleaded guilty in February under an agreement with the gobernment.	264317230	1479161320401	1479161320513	r	82
516966	5568317	He pleaded guilty in February under an agreement with the government.	He pleaded guilty in February under an agreement with the gobernment.	264317234	1479161320529	1479161320593	n	78
516966	5568317	He pleaded guilty in February under an agreement with the government.	He pleaded guilty in February under an agreement with the gobernment.	264317238	1479161320761	1479161320817	m	77
516966	5568317	He pleaded guilty in February under an agreement with the government.	He pleaded guilty in February under an agreement with the gobernment.	264317241	1479161320841	1479161320905	e	69
516966	5568317	He pleaded guilty in February under an agreement with the government.	He pleaded guilty in February under an agreement with the gobernment.	264317244	1479161320985	1479161321041	n	78
516966	5568317	He pleaded guilty in February under an agreement with the government.	He pleaded guilty in February under an agreement with the gobernment.	264317246	1479161321097	1479161321169	t	84
516966	5568317	He pleaded guilty in February under an agreement with the government.	He pleaded guilty in February under an agreement with the gobernment.	264317251	1479161321241	1479161321297	.	190
516966	5568325	I'll take up my problem with weak Scott H.	I'll take up my problem with weak Scott H.	264317379	1479161324105	1479161324376	SHIFT	16
516966	5568325	I'll take up my problem with weak Scott H.	I'll take up my problem with weak Scott H.	264317380	1479161324321	1479161324384	I	73
516966	5568325	I'll take up my problem with weak Scott H.	I'll take up my problem with weak Scott H.	264317381	1479161324753	1479161324816	'	222
516966	5568325	I'll take up my problem with weak Scott H.	I'll take up my problem with weak Scott H.	264317382	1479161325009	1479161325041	l	76
516966	5568325	I'll take up my problem with weak Scott H.	I'll take up my problem with weak Scott H.	264317383	1479161325377	1479161325441	l	76
516966	5568325	I'll take up my problem with weak Scott H.	I'll take up my problem with weak Scott H.	264317385	1479161325641	1479161325713	 	32
516966	5568325	I'll take up my problem with weak Scott H.	I'll take up my problem with weak Scott H.	264317417	1479161325769	1479161325888	t	84
516966	5568325	I'll take up my problem with weak Scott H.	I'll take up my problem with weak Scott H.	264317419	1479161325849	1479161325936	a	65
516966	5568325	I'll take up my problem with weak Scott H.	I'll take up my problem with weak Scott H.	264317421	1479161325896	1479161325977	k	75
516966	5568325	I'll take up my problem with weak Scott H.	I'll take up my problem with weak Scott H.	264317423	1479161326017	1479161326097	e	69
516966	5568325	I'll take up my problem with weak Scott H.	I'll take up my problem with weak Scott H.	264317406	1479161326074	1479161326185	 	32
516966	5568325	I'll take up my problem with weak Scott H.	I'll take up my problem with weak Scott H.	264317409	1479161326193	1479161326281	u	85
516966	5568325	I'll take up my problem with weak Scott H.	I'll take up my problem with weak Scott H.	264317411	1479161326265	1479161326353	p	80
516966	5568325	I'll take up my problem with weak Scott H.	I'll take up my problem with weak Scott H.	264317413	1479161326361	1479161326433	 	32
516966	5568325	I'll take up my problem with weak Scott H.	I'll take up my problem with weak Scott H.	264317415	1479161326465	1479161326545	m	77
516966	5568325	I'll take up my problem with weak Scott H.	I'll take up my problem with weak Scott H.	264317418	1479161326617	1479161326713	y	89
516966	5568325	I'll take up my problem with weak Scott H.	I'll take up my problem with weak Scott H.	264317441	1479161326697	1479161326801	 	32
516966	5568325	I'll take up my problem with weak Scott H.	I'll take up my problem with weak Scott H.	264317443	1479161326817	1479161326913	p	80
516966	5568325	I'll take up my problem with weak Scott H.	I'll take up my problem with weak Scott H.	264317445	1479161326945	1479161327032	r	82
516966	5568325	I'll take up my problem with weak Scott H.	I'll take up my problem with weak Scott H.	264317446	1479161327033	1479161327105	o	79
516966	5568325	I'll take up my problem with weak Scott H.	I'll take up my problem with weak Scott H.	264317447	1479161327209	1479161327273	b	66
516966	5568325	I'll take up my problem with weak Scott H.	I'll take up my problem with weak Scott H.	264317448	1479161327337	1479161327408	l	76
516966	5568325	I'll take up my problem with weak Scott H.	I'll take up my problem with weak Scott H.	264317452	1479161327489	1479161327577	e	69
516966	5568325	I'll take up my problem with weak Scott H.	I'll take up my problem with weak Scott H.	264317454	1479161327593	1479161327665	m	77
516966	5568325	I'll take up my problem with weak Scott H.	I'll take up my problem with weak Scott H.	264317457	1479161327713	1479161327800	 	32
516966	5568325	I'll take up my problem with weak Scott H.	I'll take up my problem with weak Scott H.	264317460	1479161327825	1479161327905	w	87
516966	5568325	I'll take up my problem with weak Scott H.	I'll take up my problem with weak Scott H.	264317469	1479161327873	1479161327961	i	73
516966	5568325	I'll take up my problem with weak Scott H.	I'll take up my problem with weak Scott H.	264317473	1479161328025	1479161328105	t	84
516966	5568325	I'll take up my problem with weak Scott H.	I'll take up my problem with weak Scott H.	264317477	1479161328073	1479161328209	h	72
516966	5568325	I'll take up my problem with weak Scott H.	I'll take up my problem with weak Scott H.	264317481	1479161328201	1479161328265	 	32
516966	5568325	I'll take up my problem with weak Scott H.	I'll take up my problem with weak Scott H.	264317483	1479161328377	1479161328512	e	69
516966	5568325	I'll take up my problem with weak Scott H.	I'll take up my problem with weak Scott H.	264317509	1479161328496	1479161328617	w	87
516966	5568325	I'll take up my problem with weak Scott H.	I'll take up my problem with weak Scott H.	264317510	1479161328857	1479161328912	BKSP	8
516966	5568325	I'll take up my problem with weak Scott H.	I'll take up my problem with weak Scott H.	264317512	1479161328985	1479161329041	BKSP	8
516966	5568325	I'll take up my problem with weak Scott H.	I'll take up my problem with weak Scott H.	264317516	1479161329057	1479161329145	w	87
516966	5568325	I'll take up my problem with weak Scott H.	I'll take up my problem with weak Scott H.	264317519	1479161329105	1479161329249	e	69
516966	5568325	I'll take up my problem with weak Scott H.	I'll take up my problem with weak Scott H.	264317525	1479161329233	1479161329329	a	65
516966	5568325	I'll take up my problem with weak Scott H.	I'll take up my problem with weak Scott H.	264317523	1479161329264	1479161329321	k	75
516966	5568325	I'll take up my problem with weak Scott H.	I'll take up my problem with weak Scott H.	264317526	1479161329489	1479161329577	 	32
516966	5568325	I'll take up my problem with weak Scott H.	I'll take up my problem with weak Scott H.	264317572	1479161329649	1479161329817	SHIFT	16
516966	5568325	I'll take up my problem with weak Scott H.	I'll take up my problem with weak Scott H.	264317573	1479161329753	1479161329849	S	83
516966	5568325	I'll take up my problem with weak Scott H.	I'll take up my problem with weak Scott H.	264317574	1479161330097	1479161330177	c	67
516966	5568325	I'll take up my problem with weak Scott H.	I'll take up my problem with weak Scott H.	264317575	1479161330537	1479161330633	t	84
516966	5568325	I'll take up my problem with weak Scott H.	I'll take up my problem with weak Scott H.	264317577	1479161330913	1479161330969	BKSP	8
516966	5568325	I'll take up my problem with weak Scott H.	I'll take up my problem with weak Scott H.	264317579	1479161331168	1479161331233	o	79
516966	5568325	I'll take up my problem with weak Scott H.	I'll take up my problem with weak Scott H.	264317582	1479161331249	1479161331297	t	84
516966	5568325	I'll take up my problem with weak Scott H.	I'll take up my problem with weak Scott H.	264317602	1479161331385	1479161331536	t	84
516966	5568325	I'll take up my problem with weak Scott H.	I'll take up my problem with weak Scott H.	264317604	1479161331529	1479161331625	 	32
516966	5568325	I'll take up my problem with weak Scott H.	I'll take up my problem with weak Scott H.	264317606	1479161331649	1479161331825	SHIFT	16
516966	5568325	I'll take up my problem with weak Scott H.	I'll take up my problem with weak Scott H.	264317608	1479161331769	1479161331849	H	72
516966	5568325	I'll take up my problem with weak Scott H.	I'll take up my problem with weak Scott H.	264317610	1479161332401	1479161332465	.	190
516966	5568334	It would be great if I could have the files by the 18th or 19th.	It would be great if i could have the files by the 18th or 19th.	264317698	1479161334361	1479161335329	SHIFT	16
516966	5568334	It would be great if I could have the files by the 18th or 19th.	It would be great if i could have the files by the 18th or 19th.	264317702	1479161335256	1479161335337	I	73
516966	5568334	It would be great if I could have the files by the 18th or 19th.	It would be great if i could have the files by the 18th or 19th.	264317705	1479161335393	1479161335529	t	84
516966	5568334	It would be great if I could have the files by the 18th or 19th.	It would be great if i could have the files by the 18th or 19th.	264317709	1479161335513	1479161335624	 	32
516966	5568334	It would be great if I could have the files by the 18th or 19th.	It would be great if i could have the files by the 18th or 19th.	264317712	1479161335721	1479161335793	w	87
516966	5568334	It would be great if I could have the files by the 18th or 19th.	It would be great if i could have the files by the 18th or 19th.	264317716	1479161335817	1479161335929	o	79
516966	5568334	It would be great if I could have the files by the 18th or 19th.	It would be great if i could have the files by the 18th or 19th.	264317720	1479161335897	1479161336016	u	85
516966	5568334	It would be great if I could have the files by the 18th or 19th.	It would be great if i could have the files by the 18th or 19th.	264317721	1479161336032	1479161336105	l	76
516966	5568334	It would be great if I could have the files by the 18th or 19th.	It would be great if i could have the files by the 18th or 19th.	264317722	1479161336065	1479161336129	d	68
516966	5568334	It would be great if I could have the files by the 18th or 19th.	It would be great if i could have the files by the 18th or 19th.	264317723	1479161336185	1479161336297	 	32
516966	5568334	It would be great if I could have the files by the 18th or 19th.	It would be great if i could have the files by the 18th or 19th.	264317725	1479161336281	1479161336360	b	66
516966	5568334	It would be great if I could have the files by the 18th or 19th.	It would be great if i could have the files by the 18th or 19th.	264317729	1479161336321	1479161336393	e	69
516966	5568334	It would be great if I could have the files by the 18th or 19th.	It would be great if i could have the files by the 18th or 19th.	264317730	1479161336433	1479161336521	 	32
516966	5568334	It would be great if I could have the files by the 18th or 19th.	It would be great if i could have the files by the 18th or 19th.	264317732	1479161336522	1479161336610	g	71
516966	5568334	It would be great if I could have the files by the 18th or 19th.	It would be great if i could have the files by the 18th or 19th.	264317733	1479161336713	1479161336849	r	82
516966	5568334	It would be great if I could have the files by the 18th or 19th.	It would be great if i could have the files by the 18th or 19th.	264317734	1479161336784	1479161336905	e	69
516966	5568334	It would be great if I could have the files by the 18th or 19th.	It would be great if i could have the files by the 18th or 19th.	264317737	1479161336833	1479161336961	a	65
516966	5568334	It would be great if I could have the files by the 18th or 19th.	It would be great if i could have the files by the 18th or 19th.	264317738	1479161336921	1479161337033	t	84
516966	5568334	It would be great if I could have the files by the 18th or 19th.	It would be great if i could have the files by the 18th or 19th.	264317740	1479161337017	1479161337097	 	32
516966	5568334	It would be great if I could have the files by the 18th or 19th.	It would be great if i could have the files by the 18th or 19th.	264317741	1479161337105	1479161337177	i	73
516966	5568334	It would be great if I could have the files by the 18th or 19th.	It would be great if i could have the files by the 18th or 19th.	264317743	1479161337168	1479161337249	f	70
516966	5568334	It would be great if I could have the files by the 18th or 19th.	It would be great if i could have the files by the 18th or 19th.	264317745	1479161337249	1479161337321	 	32
516966	5568334	It would be great if I could have the files by the 18th or 19th.	It would be great if i could have the files by the 18th or 19th.	264317756	1479161337337	1479161337433	i	73
516966	5568334	It would be great if I could have the files by the 18th or 19th.	It would be great if i could have the files by the 18th or 19th.	264317757	1479161337457	1479161337512	 	32
516966	5568334	It would be great if I could have the files by the 18th or 19th.	It would be great if i could have the files by the 18th or 19th.	264317758	1479161337857	1479161337937	c	67
516966	5568334	It would be great if I could have the files by the 18th or 19th.	It would be great if i could have the files by the 18th or 19th.	264317759	1479161337969	1479161338057	o	79
516966	5568334	It would be great if I could have the files by the 18th or 19th.	It would be great if i could have the files by the 18th or 19th.	264317772	1479161338033	1479161338153	u	85
516966	5568334	It would be great if I could have the files by the 18th or 19th.	It would be great if i could have the files by the 18th or 19th.	264317774	1479161338145	1479161338216	l	76
516966	5568334	It would be great if I could have the files by the 18th or 19th.	It would be great if i could have the files by the 18th or 19th.	264317776	1479161338201	1479161338296	d	68
516966	5568334	It would be great if I could have the files by the 18th or 19th.	It would be great if i could have the files by the 18th or 19th.	264317778	1479161338304	1479161338433	 	32
516966	5568334	It would be great if I could have the files by the 18th or 19th.	It would be great if i could have the files by the 18th or 19th.	264317780	1479161338585	1479161338656	h	72
516966	5568334	It would be great if I could have the files by the 18th or 19th.	It would be great if i could have the files by the 18th or 19th.	264317781	1479161338689	1479161338809	a	65
516966	5568334	It would be great if I could have the files by the 18th or 19th.	It would be great if i could have the files by the 18th or 19th.	264317788	1479161338793	1479161338905	v	86
516966	5568334	It would be great if I could have the files by the 18th or 19th.	It would be great if i could have the files by the 18th or 19th.	264317792	1479161338857	1479161338953	e	69
516966	5568334	It would be great if I could have the files by the 18th or 19th.	It would be great if i could have the files by the 18th or 19th.	264317796	1479161338905	1479161338977	 	32
516966	5568334	It would be great if I could have the files by the 18th or 19th.	It would be great if i could have the files by the 18th or 19th.	264317803	1479161339048	1479161339185	t	84
516966	5568334	It would be great if I could have the files by the 18th or 19th.	It would be great if i could have the files by the 18th or 19th.	264317801	1479161339081	1479161339137	h	72
516966	5568334	It would be great if I could have the files by the 18th or 19th.	It would be great if i could have the files by the 18th or 19th.	264317807	1479161339161	1479161339273	e	69
516966	5568334	It would be great if I could have the files by the 18th or 19th.	It would be great if i could have the files by the 18th or 19th.	264317809	1479161339297	1479161339337	 	32
516966	5568334	It would be great if I could have the files by the 18th or 19th.	It would be great if i could have the files by the 18th or 19th.	264317810	1479161339432	1479161339521	f	70
516966	5568334	It would be great if I could have the files by the 18th or 19th.	It would be great if i could have the files by the 18th or 19th.	264317812	1479161339545	1479161339657	i	73
516966	5568334	It would be great if I could have the files by the 18th or 19th.	It would be great if i could have the files by the 18th or 19th.	264317813	1479161339633	1479161339736	l	76
516966	5568334	It would be great if I could have the files by the 18th or 19th.	It would be great if i could have the files by the 18th or 19th.	264317815	1479161339777	1479161339849	b	66
516966	5568334	It would be great if I could have the files by the 18th or 19th.	It would be great if i could have the files by the 18th or 19th.	264317876	1479161339850	1479161339945	e	69
516966	5568334	It would be great if I could have the files by the 18th or 19th.	It would be great if i could have the files by the 18th or 19th.	264317879	1479161340136	1479161340193	BKSP	8
516966	5568334	It would be great if I could have the files by the 18th or 19th.	It would be great if i could have the files by the 18th or 19th.	264317884	1479161340281	1479161340345	BKSP	8
516966	5568334	It would be great if I could have the files by the 18th or 19th.	It would be great if i could have the files by the 18th or 19th.	264317888	1479161340641	1479161340705	BKSP	8
516966	5568334	It would be great if I could have the files by the 18th or 19th.	It would be great if i could have the files by the 18th or 19th.	264317893	1479161341280	1479161341337	l	76
516966	5568334	It would be great if I could have the files by the 18th or 19th.	It would be great if i could have the files by the 18th or 19th.	264317895	1479161341433	1479161341577	e	69
516966	5568334	It would be great if I could have the files by the 18th or 19th.	It would be great if i could have the files by the 18th or 19th.	264317898	1479161341529	1479161341648	s	83
516966	5568334	It would be great if I could have the files by the 18th or 19th.	It would be great if i could have the files by the 18th or 19th.	264317906	1479161341625	1479161341737	 	32
516966	5568334	It would be great if I could have the files by the 18th or 19th.	It would be great if i could have the files by the 18th or 19th.	264317907	1479161341745	1479161341809	b	66
516966	5568334	It would be great if I could have the files by the 18th or 19th.	It would be great if i could have the files by the 18th or 19th.	264317908	1479161341913	1479161342016	y	89
516966	5568334	It would be great if I could have the files by the 18th or 19th.	It would be great if i could have the files by the 18th or 19th.	264317909	1479161342057	1479161342130	 	32
516966	5568334	It would be great if I could have the files by the 18th or 19th.	It would be great if i could have the files by the 18th or 19th.	264317910	1479161342137	1479161342225	t	84
516966	5568334	It would be great if I could have the files by the 18th or 19th.	It would be great if i could have the files by the 18th or 19th.	264317922	1479161342217	1479161342289	h	72
516966	5568334	It would be great if I could have the files by the 18th or 19th.	It would be great if i could have the files by the 18th or 19th.	264317924	1479161342297	1479161342400	e	69
516966	5568334	It would be great if I could have the files by the 18th or 19th.	It would be great if i could have the files by the 18th or 19th.	264317927	1479161342392	1479161342473	 	32
516966	5568334	It would be great if I could have the files by the 18th or 19th.	It would be great if i could have the files by the 18th or 19th.	264317931	1479161342513	1479161342601	1	49
516966	5568334	It would be great if I could have the files by the 18th or 19th.	It would be great if i could have the files by the 18th or 19th.	264317934	1479161342665	1479161342713	8	56
516966	5568334	It would be great if I could have the files by the 18th or 19th.	It would be great if i could have the files by the 18th or 19th.	264317938	1479161343001	1479161343096	t	84
516966	5568334	It would be great if I could have the files by the 18th or 19th.	It would be great if i could have the files by the 18th or 19th.	264317952	1479161343104	1479161343177	h	72
516966	5568334	It would be great if I could have the files by the 18th or 19th.	It would be great if i could have the files by the 18th or 19th.	264317954	1479161343353	1479161343504	 	32
516966	5568334	It would be great if I could have the files by the 18th or 19th.	It would be great if i could have the files by the 18th or 19th.	264317956	1479161343577	1479161343649	o	79
516966	5568334	It would be great if I could have the files by the 18th or 19th.	It would be great if i could have the files by the 18th or 19th.	264317958	1479161343681	1479161343793	r	82
516966	5568334	It would be great if I could have the files by the 18th or 19th.	It would be great if i could have the files by the 18th or 19th.	264317990	1479161343785	1479161343865	 	32
516966	5568334	It would be great if I could have the files by the 18th or 19th.	It would be great if i could have the files by the 18th or 19th.	264317991	1479161343872	1479161343945	1	49
516966	5568334	It would be great if I could have the files by the 18th or 19th.	It would be great if i could have the files by the 18th or 19th.	264317992	1479161343969	1479161344033	9	57
516966	5568334	It would be great if I could have the files by the 18th or 19th.	It would be great if i could have the files by the 18th or 19th.	264317993	1479161344361	1479161344433	t	84
516966	5568334	It would be great if I could have the files by the 18th or 19th.	It would be great if i could have the files by the 18th or 19th.	264317994	1479161344449	1479161344505	h	72
516966	5568340	Let's think out of the box.	Let's think out of the box/	264318090	1479161347185	1479161348073	SHIFT	16
516966	5568340	Let's think out of the box.	Let's think out of the box/	264318092	1479161348040	1479161348089	L	76
516966	5568340	Let's think out of the box.	Let's think out of the box/	264318094	1479161348305	1479161348432	e	69
516966	5568340	Let's think out of the box.	Let's think out of the box/	264318096	1479161348473	1479161348505	'	222
516966	5568340	Let's think out of the box.	Let's think out of the box/	264318098	1479161348625	1479161348681	t	84
516966	5568340	Let's think out of the box.	Let's think out of the box/	264318100	1479161348857	1479161348913	BKSP	8
516966	5568340	Let's think out of the box.	Let's think out of the box/	264318102	1479161349097	1479161349168	t	84
516966	5568340	Let's think out of the box.	Let's think out of the box/	264318138	1479161349249	1479161349313	'	222
516966	5568340	Let's think out of the box.	Let's think out of the box/	264318139	1479161349609	1479161349657	BKSP	8
516966	5568340	Let's think out of the box.	Let's think out of the box/	264318140	1479161349761	1479161349857	BKSP	8
516966	5568340	Let's think out of the box.	Let's think out of the box/	264318141	1479161350089	1479161350137	BKSP	8
516966	5568340	Let's think out of the box.	Let's think out of the box/	264318142	1479161350241	1479161350329	t	84
516966	5568340	Let's think out of the box.	Let's think out of the box/	264318143	1479161350369	1479161350433	'	222
516966	5568340	Let's think out of the box.	Let's think out of the box/	264318145	1479161350513	1479161350609	s	83
516966	5568340	Let's think out of the box.	Let's think out of the box/	264318147	1479161350633	1479161350761	 	32
516966	5568340	Let's think out of the box.	Let's think out of the box/	264318153	1479161350809	1479161350889	t	84
516966	5568340	Let's think out of the box.	Let's think out of the box/	264318155	1479161350905	1479161350985	h	72
516966	5568340	Let's think out of the box.	Let's think out of the box/	264318159	1479161350977	1479161351105	i	73
516966	5568340	Let's think out of the box.	Let's think out of the box/	264318162	1479161351081	1479161351193	n	78
516966	5568340	Let's think out of the box.	Let's think out of the box/	264318166	1479161351209	1479161351321	k	75
516966	5568340	Let's think out of the box.	Let's think out of the box/	264318181	1479161351481	1479161351545	 	32
516966	5568340	Let's think out of the box.	Let's think out of the box/	264318183	1479161351665	1479161351744	o	79
516966	5568340	Let's think out of the box.	Let's think out of the box/	264318185	1479161351705	1479161351777	u	85
516966	5568340	Let's think out of the box.	Let's think out of the box/	264318188	1479161351800	1479161351881	t	84
516966	5568340	Let's think out of the box.	Let's think out of the box/	264318191	1479161352097	1479161352177	 	32
516966	5568340	Let's think out of the box.	Let's think out of the box/	264318196	1479161352305	1479161352369	o	79
516966	5568340	Let's think out of the box.	Let's think out of the box/	264318197	1479161352409	1479161352496	f	70
516966	5568340	Let's think out of the box.	Let's think out of the box/	264318199	1479161352481	1479161352552	 	32
516966	5568340	Let's think out of the box.	Let's think out of the box/	264318212	1479161352593	1479161352705	t	84
516966	5568340	Let's think out of the box.	Let's think out of the box/	264318201	1479161352633	1479161352689	h	72
516966	5568340	Let's think out of the box.	Let's think out of the box/	264318213	1479161352681	1479161352769	e	69
516966	5568340	Let's think out of the box.	Let's think out of the box/	264318214	1479161352777	1479161352872	 	32
516966	5568340	Let's think out of the box.	Let's think out of the box/	264318215	1479161352857	1479161352944	b	66
516966	5568340	Let's think out of the box.	Let's think out of the box/	264318216	1479161352920	1479161352985	o	79
516966	5568340	Let's think out of the box.	Let's think out of the box/	264318217	1479161353001	1479161353097	x	88
516966	5568340	Let's think out of the box.	Let's think out of the box/	264318218	1479161353169	1479161353225	/	191
516966	5568349	Rookie Kevin Swayne will move into the starting lineup.	Rookie Kevin Swayne will move into the starting lineup.	264318247	1479161355105	1479161355520	SHIFT	16
516966	5568349	Rookie Kevin Swayne will move into the starting lineup.	Rookie Kevin Swayne will move into the starting lineup.	264318249	1479161355457	1479161355536	R	82
516966	5568349	Rookie Kevin Swayne will move into the starting lineup.	Rookie Kevin Swayne will move into the starting lineup.	264318251	1479161355674	1479161355737	o	79
516966	5568349	Rookie Kevin Swayne will move into the starting lineup.	Rookie Kevin Swayne will move into the starting lineup.	264318254	1479161355849	1479161355944	o	79
516966	5568349	Rookie Kevin Swayne will move into the starting lineup.	Rookie Kevin Swayne will move into the starting lineup.	264318257	1479161355922	1479161356017	k	75
516966	5568349	Rookie Kevin Swayne will move into the starting lineup.	Rookie Kevin Swayne will move into the starting lineup.	264318259	1479161356081	1479161356145	i	73
516966	5568349	Rookie Kevin Swayne will move into the starting lineup.	Rookie Kevin Swayne will move into the starting lineup.	264318277	1479161356113	1479161356209	e	69
516966	5568349	Rookie Kevin Swayne will move into the starting lineup.	Rookie Kevin Swayne will move into the starting lineup.	264318279	1479161356264	1479161356361	 	32
516966	5568349	Rookie Kevin Swayne will move into the starting lineup.	Rookie Kevin Swayne will move into the starting lineup.	264318282	1479161356393	1479161356569	SHIFT	16
516966	5568349	Rookie Kevin Swayne will move into the starting lineup.	Rookie Kevin Swayne will move into the starting lineup.	264318286	1479161356505	1479161356585	K	75
516966	5568349	Rookie Kevin Swayne will move into the starting lineup.	Rookie Kevin Swayne will move into the starting lineup.	264318288	1479161356601	1479161356696	e	69
516966	5568349	Rookie Kevin Swayne will move into the starting lineup.	Rookie Kevin Swayne will move into the starting lineup.	264318291	1479161356761	1479161356857	v	86
516966	5568349	Rookie Kevin Swayne will move into the starting lineup.	Rookie Kevin Swayne will move into the starting lineup.	264318295	1479161356857	1479161356984	i	73
516966	5568349	Rookie Kevin Swayne will move into the starting lineup.	Rookie Kevin Swayne will move into the starting lineup.	264318313	1479161356937	1479161357024	n	78
516966	5568349	Rookie Kevin Swayne will move into the starting lineup.	Rookie Kevin Swayne will move into the starting lineup.	264318315	1479161357145	1479161357225	 	32
516966	5568349	Rookie Kevin Swayne will move into the starting lineup.	Rookie Kevin Swayne will move into the starting lineup.	264318317	1479161357273	1479161357473	SHIFT	16
516966	5568349	Rookie Kevin Swayne will move into the starting lineup.	Rookie Kevin Swayne will move into the starting lineup.	264318320	1479161357400	1479161357481	S	83
516966	5568349	Rookie Kevin Swayne will move into the starting lineup.	Rookie Kevin Swayne will move into the starting lineup.	264318324	1479161357728	1479161357833	w	87
516966	5568349	Rookie Kevin Swayne will move into the starting lineup.	Rookie Kevin Swayne will move into the starting lineup.	264318326	1479161357808	1479161357913	a	65
516966	5568349	Rookie Kevin Swayne will move into the starting lineup.	Rookie Kevin Swayne will move into the starting lineup.	264318328	1479161357953	1479161358009	y	89
516966	5568349	Rookie Kevin Swayne will move into the starting lineup.	Rookie Kevin Swayne will move into the starting lineup.	264318347	1479161358168	1479161358225	n	78
516966	5568349	Rookie Kevin Swayne will move into the starting lineup.	Rookie Kevin Swayne will move into the starting lineup.	264318349	1479161358273	1479161358313	e	69
516966	5568349	Rookie Kevin Swayne will move into the starting lineup.	Rookie Kevin Swayne will move into the starting lineup.	264318351	1479161358729	1479161358801	 	32
516966	5568349	Rookie Kevin Swayne will move into the starting lineup.	Rookie Kevin Swayne will move into the starting lineup.	264318353	1479161358833	1479161358920	w	87
516966	5568349	Rookie Kevin Swayne will move into the starting lineup.	Rookie Kevin Swayne will move into the starting lineup.	264318366	1479161358912	1479161359009	i	73
516966	5568349	Rookie Kevin Swayne will move into the starting lineup.	Rookie Kevin Swayne will move into the starting lineup.	264318367	1479161358985	1479161359049	l	76
516966	5568349	Rookie Kevin Swayne will move into the starting lineup.	Rookie Kevin Swayne will move into the starting lineup.	264318368	1479161359137	1479161359241	l	76
516966	5568349	Rookie Kevin Swayne will move into the starting lineup.	Rookie Kevin Swayne will move into the starting lineup.	264318370	1479161359193	1479161359337	 	32
516966	5568349	Rookie Kevin Swayne will move into the starting lineup.	Rookie Kevin Swayne will move into the starting lineup.	264318372	1479161359304	1479161359425	m	77
516966	5568349	Rookie Kevin Swayne will move into the starting lineup.	Rookie Kevin Swayne will move into the starting lineup.	264318386	1479161359401	1479161359489	o	79
516966	5568349	Rookie Kevin Swayne will move into the starting lineup.	Rookie Kevin Swayne will move into the starting lineup.	264318387	1479161359433	1479161359537	v	86
516966	5568349	Rookie Kevin Swayne will move into the starting lineup.	Rookie Kevin Swayne will move into the starting lineup.	264318389	1479161359473	1479161359601	e	69
516966	5568349	Rookie Kevin Swayne will move into the starting lineup.	Rookie Kevin Swayne will move into the starting lineup.	264318391	1479161359585	1479161359656	 	32
516966	5568349	Rookie Kevin Swayne will move into the starting lineup.	Rookie Kevin Swayne will move into the starting lineup.	264318393	1479161359672	1479161359777	i	73
516966	5568349	Rookie Kevin Swayne will move into the starting lineup.	Rookie Kevin Swayne will move into the starting lineup.	264318402	1479161359753	1479161359825	n	78
516966	5568349	Rookie Kevin Swayne will move into the starting lineup.	Rookie Kevin Swayne will move into the starting lineup.	264318405	1479161359833	1479161359913	t	84
516966	5568349	Rookie Kevin Swayne will move into the starting lineup.	Rookie Kevin Swayne will move into the starting lineup.	264318409	1479161359945	1479161360032	o	79
516966	5568349	Rookie Kevin Swayne will move into the starting lineup.	Rookie Kevin Swayne will move into the starting lineup.	264318412	1479161360064	1479161360137	 	32
516966	5568349	Rookie Kevin Swayne will move into the starting lineup.	Rookie Kevin Swayne will move into the starting lineup.	264318415	1479161360153	1479161360265	t	84
516966	5568349	Rookie Kevin Swayne will move into the starting lineup.	Rookie Kevin Swayne will move into the starting lineup.	264318431	1479161360217	1479161360281	h	72
516966	5568349	Rookie Kevin Swayne will move into the starting lineup.	Rookie Kevin Swayne will move into the starting lineup.	264318432	1479161360297	1479161360393	e	69
516966	5568349	Rookie Kevin Swayne will move into the starting lineup.	Rookie Kevin Swayne will move into the starting lineup.	264318433	1479161360400	1479161360465	 	32
516966	5568349	Rookie Kevin Swayne will move into the starting lineup.	Rookie Kevin Swayne will move into the starting lineup.	264318434	1479161360561	1479161360705	s	83
516966	5568349	Rookie Kevin Swayne will move into the starting lineup.	Rookie Kevin Swayne will move into the starting lineup.	264318436	1479161360689	1479161360800	t	84
516966	5568349	Rookie Kevin Swayne will move into the starting lineup.	Rookie Kevin Swayne will move into the starting lineup.	264318438	1479161360801	1479161360929	a	65
516966	5568349	Rookie Kevin Swayne will move into the starting lineup.	Rookie Kevin Swayne will move into the starting lineup.	264318447	1479161360897	1479161361009	r	82
516966	5568349	Rookie Kevin Swayne will move into the starting lineup.	Rookie Kevin Swayne will move into the starting lineup.	264318448	1479161361089	1479161361185	t	84
516966	5568349	Rookie Kevin Swayne will move into the starting lineup.	Rookie Kevin Swayne will move into the starting lineup.	264318449	1479161361176	1479161361265	i	73
516966	5568349	Rookie Kevin Swayne will move into the starting lineup.	Rookie Kevin Swayne will move into the starting lineup.	264318452	1479161361233	1479161361329	n	78
516966	5568349	Rookie Kevin Swayne will move into the starting lineup.	Rookie Kevin Swayne will move into the starting lineup.	264318454	1479161361329	1479161361401	g	71
516966	5568349	Rookie Kevin Swayne will move into the starting lineup.	Rookie Kevin Swayne will move into the starting lineup.	264318468	1479161361353	1479161361449	 	32
516966	5568349	Rookie Kevin Swayne will move into the starting lineup.	Rookie Kevin Swayne will move into the starting lineup.	264318469	1479161361473	1479161361576	l	76
516966	5568349	Rookie Kevin Swayne will move into the starting lineup.	Rookie Kevin Swayne will move into the starting lineup.	264318471	1479161361520	1479161361625	i	73
516966	5568349	Rookie Kevin Swayne will move into the starting lineup.	Rookie Kevin Swayne will move into the starting lineup.	264318474	1479161361584	1479161361673	n	78
516966	5568349	Rookie Kevin Swayne will move into the starting lineup.	Rookie Kevin Swayne will move into the starting lineup.	264318477	1479161361665	1479161361745	e	69
516966	5568349	Rookie Kevin Swayne will move into the starting lineup.	Rookie Kevin Swayne will move into the starting lineup.	264318481	1479161361817	1479161361904	u	85
516966	5568349	Rookie Kevin Swayne will move into the starting lineup.	Rookie Kevin Swayne will move into the starting lineup.	264318521	1479161361873	1479161361952	p	80
516966	5568349	Rookie Kevin Swayne will move into the starting lineup.	Rookie Kevin Swayne will move into the starting lineup.	264318523	1479161362097	1479161362161	/	191
516966	5568349	Rookie Kevin Swayne will move into the starting lineup.	Rookie Kevin Swayne will move into the starting lineup.	264318526	1479161362657	1479161362721	BKSP	8
516966	5568355	They have not issued an order yet.	They have not issued an order yet.	264318587	1479161364985	1479161365248	SHIFT	16
516966	5568355	They have not issued an order yet.	They have not issued an order yet.	264318589	1479161365225	1479161365312	T	84
516966	5568355	They have not issued an order yet.	They have not issued an order yet.	264318590	1479161365393	1479161365465	h	72
516966	5568355	They have not issued an order yet.	They have not issued an order yet.	264318591	1479161365497	1479161365577	e	69
516966	5568355	They have not issued an order yet.	They have not issued an order yet.	264318592	1479161365577	1479161365656	y	89
516966	5568355	They have not issued an order yet.	They have not issued an order yet.	264318593	1479161365664	1479161365793	 	32
516966	5568355	They have not issued an order yet.	They have not issued an order yet.	264318594	1479161365777	1479161365841	h	72
516966	5568355	They have not issued an order yet.	They have not issued an order yet.	264318596	1479161365825	1479161365905	a	65
516966	5568355	They have not issued an order yet.	They have not issued an order yet.	264318598	1479161365881	1479161366001	v	86
516966	5568355	They have not issued an order yet.	They have not issued an order yet.	264318601	1479161365937	1479161366048	e	69
516966	5568355	They have not issued an order yet.	They have not issued an order yet.	264318604	1479161366001	1479161366072	 	32
516966	5568355	They have not issued an order yet.	They have not issued an order yet.	264318607	1479161366257	1479161366345	n	78
516966	5568355	They have not issued an order yet.	They have not issued an order yet.	264318611	1479161366337	1479161366424	o	79
516966	5568355	They have not issued an order yet.	They have not issued an order yet.	264318615	1479161366401	1479161366481	t	84
516966	5568355	They have not issued an order yet.	They have not issued an order yet.	264318619	1479161366505	1479161366601	 	32
516966	5568355	They have not issued an order yet.	They have not issued an order yet.	264318622	1479161366617	1479161366689	i	73
516966	5568355	They have not issued an order yet.	They have not issued an order yet.	264318626	1479161366721	1479161366800	s	83
516966	5568355	They have not issued an order yet.	They have not issued an order yet.	264318629	1479161366897	1479161366969	s	83
516966	5568355	They have not issued an order yet.	They have not issued an order yet.	264318644	1479161366985	1479161367057	u	85
516966	5568355	They have not issued an order yet.	They have not issued an order yet.	264318647	1479161367097	1479161367168	e	69
516966	5568355	They have not issued an order yet.	They have not issued an order yet.	264318650	1479161367265	1479161367353	d	68
516966	5568355	They have not issued an order yet.	They have not issued an order yet.	264318652	1479161367369	1479161367441	 	32
516966	5568355	They have not issued an order yet.	They have not issued an order yet.	264318653	1479161367544	1479161367641	a	65
516966	5568355	They have not issued an order yet.	They have not issued an order yet.	264318694	1479161367649	1479161367729	n	78
516966	5568355	They have not issued an order yet.	They have not issued an order yet.	264318697	1479161367753	1479161367817	 	32
516966	5568355	They have not issued an order yet.	They have not issued an order yet.	264318699	1479161367849	1479161367937	o	79
516966	5568355	They have not issued an order yet.	They have not issued an order yet.	264318701	1479161367912	1479161367960	u	85
516966	5568355	They have not issued an order yet.	They have not issued an order yet.	264318702	1479161368257	1479161368312	BKSP	8
516966	5568355	They have not issued an order yet.	They have not issued an order yet.	264318703	1479161369129	1479161369273	r	82
516966	5568355	They have not issued an order yet.	They have not issued an order yet.	264318708	1479161369265	1479161369345	d	68
516966	5568355	They have not issued an order yet.	They have not issued an order yet.	264318709	1479161369401	1479161369537	e	69
516966	5568355	They have not issued an order yet.	They have not issued an order yet.	264318710	1479161369489	1479161369609	r	82
516966	5568355	They have not issued an order yet.	They have not issued an order yet.	264318711	1479161369609	1479161369753	 	32
516966	5568355	They have not issued an order yet.	They have not issued an order yet.	264318712	1479161369713	1479161369776	y	89
516966	5568355	They have not issued an order yet.	They have not issued an order yet.	264318713	1479161369784	1479161369897	e	69
516966	5568355	They have not issued an order yet.	They have not issued an order yet.	264318727	1479161369857	1479161369953	t	84
516966	5568360	Jacksonville's secondary is thin because of injuries.	Jacksonville's secondary is thin because of injuries.	264318810	1479161371993	1479161372529	SHIFT	16
516966	5568360	Jacksonville's secondary is thin because of injuries.	Jacksonville's secondary is thin because of injuries.	264318812	1479161372464	1479161372537	J	74
516966	5568360	Jacksonville's secondary is thin because of injuries.	Jacksonville's secondary is thin because of injuries.	264318814	1479161372649	1479161372744	a	65
516966	5568360	Jacksonville's secondary is thin because of injuries.	Jacksonville's secondary is thin because of injuries.	264318817	1479161372721	1479161372808	c	67
516966	5568360	Jacksonville's secondary is thin because of injuries.	Jacksonville's secondary is thin because of injuries.	264318820	1479161372792	1479161372849	k	75
516966	5568360	Jacksonville's secondary is thin because of injuries.	Jacksonville's secondary is thin because of injuries.	264318823	1479161372945	1479161373025	s	83
516966	5568360	Jacksonville's secondary is thin because of injuries.	Jacksonville's secondary is thin because of injuries.	264318834	1479161373065	1479161373152	o	79
516966	5568360	Jacksonville's secondary is thin because of injuries.	Jacksonville's secondary is thin because of injuries.	264318837	1479161373121	1479161373208	n	78
516966	5568360	Jacksonville's secondary is thin because of injuries.	Jacksonville's secondary is thin because of injuries.	264318839	1479161373473	1479161373560	v	86
516966	5568360	Jacksonville's secondary is thin because of injuries.	Jacksonville's secondary is thin because of injuries.	264318841	1479161373576	1479161373633	i	73
516966	5568360	Jacksonville's secondary is thin because of injuries.	Jacksonville's secondary is thin because of injuries.	264318881	1479161373609	1479161373721	l	76
516966	5568360	Jacksonville's secondary is thin because of injuries.	Jacksonville's secondary is thin because of injuries.	264318884	1479161373857	1479161373928	l	76
516966	5568360	Jacksonville's secondary is thin because of injuries.	Jacksonville's secondary is thin because of injuries.	264318887	1479161374185	1479161374257	e	69
516966	5568360	Jacksonville's secondary is thin because of injuries.	Jacksonville's secondary is thin because of injuries.	264318889	1479161374305	1479161374393	'	222
516966	5568360	Jacksonville's secondary is thin because of injuries.	Jacksonville's secondary is thin because of injuries.	264318891	1479161374433	1479161374529	s	83
516966	5568360	Jacksonville's secondary is thin because of injuries.	Jacksonville's secondary is thin because of injuries.	264318893	1479161374673	1479161374761	 	32
516966	5568360	Jacksonville's secondary is thin because of injuries.	Jacksonville's secondary is thin because of injuries.	264318904	1479161375075	1479161375201	s	83
516966	5568360	Jacksonville's secondary is thin because of injuries.	Jacksonville's secondary is thin because of injuries.	264318906	1479161375161	1479161375257	e	69
516966	5568360	Jacksonville's secondary is thin because of injuries.	Jacksonville's secondary is thin because of injuries.	264318908	1479161375353	1479161375440	c	67
516966	5568360	Jacksonville's secondary is thin because of injuries.	Jacksonville's secondary is thin because of injuries.	264318911	1479161375424	1479161375505	o	79
516966	5568360	Jacksonville's secondary is thin because of injuries.	Jacksonville's secondary is thin because of injuries.	264318938	1479161375481	1479161375561	n	78
516966	5568360	Jacksonville's secondary is thin because of injuries.	Jacksonville's secondary is thin because of injuries.	264318939	1479161375569	1479161375649	d	68
516966	5568360	Jacksonville's secondary is thin because of injuries.	Jacksonville's secondary is thin because of injuries.	264318940	1479161375617	1479161375745	a	65
516966	5568360	Jacksonville's secondary is thin because of injuries.	Jacksonville's secondary is thin because of injuries.	264318941	1479161375777	1479161375889	r	82
516966	5568360	Jacksonville's secondary is thin because of injuries.	Jacksonville's secondary is thin because of injuries.	264318942	1479161375905	1479161376001	y	89
516966	5568360	Jacksonville's secondary is thin because of injuries.	Jacksonville's secondary is thin because of injuries.	264318943	1479161376001	1479161376113	 	32
516966	5568360	Jacksonville's secondary is thin because of injuries.	Jacksonville's secondary is thin because of injuries.	264318949	1479161376097	1479161376192	i	73
516966	5568360	Jacksonville's secondary is thin because of injuries.	Jacksonville's secondary is thin because of injuries.	264318951	1479161376168	1479161376241	s	83
516966	5568360	Jacksonville's secondary is thin because of injuries.	Jacksonville's secondary is thin because of injuries.	264318954	1479161376265	1479161376329	 	32
516966	5568360	Jacksonville's secondary is thin because of injuries.	Jacksonville's secondary is thin because of injuries.	264318957	1479161376305	1479161376385	t	84
516966	5568360	Jacksonville's secondary is thin because of injuries.	Jacksonville's secondary is thin because of injuries.	264318960	1479161376481	1479161376552	h	72
516966	5568360	Jacksonville's secondary is thin because of injuries.	Jacksonville's secondary is thin because of injuries.	264318974	1479161376536	1479161376673	i	73
516966	5568360	Jacksonville's secondary is thin because of injuries.	Jacksonville's secondary is thin because of injuries.	264318976	1479161376641	1479161376737	n	78
516966	5568360	Jacksonville's secondary is thin because of injuries.	Jacksonville's secondary is thin because of injuries.	264318980	1479161376753	1479161376865	 	32
516966	5568360	Jacksonville's secondary is thin because of injuries.	Jacksonville's secondary is thin because of injuries.	264318985	1479161376841	1479161376928	b	66
516966	5568360	Jacksonville's secondary is thin because of injuries.	Jacksonville's secondary is thin because of injuries.	264318989	1479161376897	1479161377033	e	69
516966	5568360	Jacksonville's secondary is thin because of injuries.	Jacksonville's secondary is thin because of injuries.	264318991	1479161377065	1479161377193	c	67
516966	5568360	Jacksonville's secondary is thin because of injuries.	Jacksonville's secondary is thin because of injuries.	264319002	1479161377185	1479161377265	a	65
516966	5568360	Jacksonville's secondary is thin because of injuries.	Jacksonville's secondary is thin because of injuries.	264319004	1479161377304	1479161377369	u	85
516966	5568360	Jacksonville's secondary is thin because of injuries.	Jacksonville's secondary is thin because of injuries.	264319006	1479161377409	1479161377521	s	83
516966	5568360	Jacksonville's secondary is thin because of injuries.	Jacksonville's secondary is thin because of injuries.	264319008	1479161377465	1479161377585	e	69
516966	5568360	Jacksonville's secondary is thin because of injuries.	Jacksonville's secondary is thin because of injuries.	264319010	1479161377569	1479161377656	 	32
516966	5568360	Jacksonville's secondary is thin because of injuries.	Jacksonville's secondary is thin because of injuries.	264319011	1479161377657	1479161377753	o	79
516966	5568360	Jacksonville's secondary is thin because of injuries.	Jacksonville's secondary is thin because of injuries.	264319012	1479161377761	1479161377833	f	70
516966	5568360	Jacksonville's secondary is thin because of injuries.	Jacksonville's secondary is thin because of injuries.	264319013	1479161377841	1479161377913	 	32
516966	5568360	Jacksonville's secondary is thin because of injuries.	Jacksonville's secondary is thin because of injuries.	264319014	1479161378001	1479161378113	i	73
516966	5568360	Jacksonville's secondary is thin because of injuries.	Jacksonville's secondary is thin because of injuries.	264319015	1479161378088	1479161378145	n	78
516966	5568360	Jacksonville's secondary is thin because of injuries.	Jacksonville's secondary is thin because of injuries.	264319016	1479161378249	1479161378321	j	74
516966	5568360	Jacksonville's secondary is thin because of injuries.	Jacksonville's secondary is thin because of injuries.	264319054	1479161378569	1479161378633	u	85
516966	5568360	Jacksonville's secondary is thin because of injuries.	Jacksonville's secondary is thin because of injuries.	264319055	1479161379097	1479161379185	r	82
516966	5568360	Jacksonville's secondary is thin because of injuries.	Jacksonville's secondary is thin because of injuries.	264319057	1479161379225	1479161379281	i	73
516966	5568360	Jacksonville's secondary is thin because of injuries.	Jacksonville's secondary is thin because of injuries.	264319059	1479161379321	1479161379433	e	69
516966	5568360	Jacksonville's secondary is thin because of injuries.	Jacksonville's secondary is thin because of injuries.	264319076	1479161379393	1479161379505	s	83
516966	5568360	Jacksonville's secondary is thin because of injuries.	Jacksonville's secondary is thin because of injuries.	264319078	1479161379497	1479161379544	.	190
