PARTICIPANT_ID	TEST_SECTION_ID	SENTENCE	USER_INPUT	KEYSTROKE_ID	PRESS_TIME	RELEASE_TIME	LETTER	KEYCODE
55596	608053	Newly-signed Tony Simmons might work as the third receiver.	Newly-signed Tony Simmons might work as the third receiver.	28923554	1472658355311	1472658355749	SHIFT	16
55596	608053	Newly-signed Tony Simmons might work as the third receiver.	Newly-signed Tony Simmons might work as the third receiver.	28923555	1472658355693	1472658355765	N	78
55596	608053	Newly-signed Tony Simmons might work as the third receiver.	Newly-signed Tony Simmons might work as the third receiver.	28923559	1472658355805	1472658355957	e	69
55596	608053	Newly-signed Tony Simmons might work as the third receiver.	Newly-signed Tony Simmons might work as the third receiver.	28923563	1472658355893	1472658356004	w	87
55596	608053	Newly-signed Tony Simmons might work as the third receiver.	Newly-signed Tony Simmons might work as the third receiver.	28923566	1472658355989	1472658356164	l	76
55596	608053	Newly-signed Tony Simmons might work as the third receiver.	Newly-signed Tony Simmons might work as the third receiver.	28923610	1472658356157	1472658356261	y	89
55596	608053	Newly-signed Tony Simmons might work as the third receiver.	Newly-signed Tony Simmons might work as the third receiver.	28923612	1472658356653	1472658356756	-	189
55596	608053	Newly-signed Tony Simmons might work as the third receiver.	Newly-signed Tony Simmons might work as the third receiver.	28923623	1472658356814	1472658356916	s	83
55596	608053	Newly-signed Tony Simmons might work as the third receiver.	Newly-signed Tony Simmons might work as the third receiver.	28923631	1472658356901	1472658357028	i	73
55596	608053	Newly-signed Tony Simmons might work as the third receiver.	Newly-signed Tony Simmons might work as the third receiver.	28923640	1472658357077	1472658357172	g	71
55596	608053	Newly-signed Tony Simmons might work as the third receiver.	Newly-signed Tony Simmons might work as the third receiver.	28923647	1472658357197	1472658357308	n	78
55596	608053	Newly-signed Tony Simmons might work as the third receiver.	Newly-signed Tony Simmons might work as the third receiver.	28923691	1472658357381	1472658357452	e	69
55596	608053	Newly-signed Tony Simmons might work as the third receiver.	Newly-signed Tony Simmons might work as the third receiver.	28923693	1472658357541	1472658357628	d	68
55596	608053	Newly-signed Tony Simmons might work as the third receiver.	Newly-signed Tony Simmons might work as the third receiver.	28923696	1472658357629	1472658357708	 	32
55596	608053	Newly-signed Tony Simmons might work as the third receiver.	Newly-signed Tony Simmons might work as the third receiver.	28923699	1472658357852	1472658358020	SHIFT	16
55596	608053	Newly-signed Tony Simmons might work as the third receiver.	Newly-signed Tony Simmons might work as the third receiver.	28923706	1472658357957	1472658358044	T	84
55596	608053	Newly-signed Tony Simmons might work as the third receiver.	Newly-signed Tony Simmons might work as the third receiver.	28923713	1472658358093	1472658358220	o	79
55596	608053	Newly-signed Tony Simmons might work as the third receiver.	Newly-signed Tony Simmons might work as the third receiver.	28923749	1472658358181	1472658358276	n	78
55596	608053	Newly-signed Tony Simmons might work as the third receiver.	Newly-signed Tony Simmons might work as the third receiver.	28923753	1472658358421	1472658358508	y	89
55596	608053	Newly-signed Tony Simmons might work as the third receiver.	Newly-signed Tony Simmons might work as the third receiver.	28923755	1472658358541	1472658358628	 	32
55596	608053	Newly-signed Tony Simmons might work as the third receiver.	Newly-signed Tony Simmons might work as the third receiver.	28923758	1472658358660	1472658358852	SHIFT	16
55596	608053	Newly-signed Tony Simmons might work as the third receiver.	Newly-signed Tony Simmons might work as the third receiver.	28923761	1472658358781	1472658358876	S	83
55596	608053	Newly-signed Tony Simmons might work as the third receiver.	Newly-signed Tony Simmons might work as the third receiver.	28923763	1472658358909	1472658359020	i	73
55596	608053	Newly-signed Tony Simmons might work as the third receiver.	Newly-signed Tony Simmons might work as the third receiver.	28923781	1472658358997	1472658359101	m	77
55596	608053	Newly-signed Tony Simmons might work as the third receiver.	Newly-signed Tony Simmons might work as the third receiver.	28923785	1472658359173	1472658359252	m	77
55596	608053	Newly-signed Tony Simmons might work as the third receiver.	Newly-signed Tony Simmons might work as the third receiver.	28923791	1472658359277	1472658359428	o	79
55596	608053	Newly-signed Tony Simmons might work as the third receiver.	Newly-signed Tony Simmons might work as the third receiver.	28923795	1472658359381	1472658359484	n	78
55596	608053	Newly-signed Tony Simmons might work as the third receiver.	Newly-signed Tony Simmons might work as the third receiver.	28923799	1472658359501	1472658359588	s	83
55596	608053	Newly-signed Tony Simmons might work as the third receiver.	Newly-signed Tony Simmons might work as the third receiver.	28923803	1472658359597	1472658359708	 	32
55596	608053	Newly-signed Tony Simmons might work as the third receiver.	Newly-signed Tony Simmons might work as the third receiver.	28923822	1472658359845	1472658359941	m	77
55596	608053	Newly-signed Tony Simmons might work as the third receiver.	Newly-signed Tony Simmons might work as the third receiver.	28923824	1472658359917	1472658360020	i	73
55596	608053	Newly-signed Tony Simmons might work as the third receiver.	Newly-signed Tony Simmons might work as the third receiver.	28923826	1472658360037	1472658360116	g	71
55596	608053	Newly-signed Tony Simmons might work as the third receiver.	Newly-signed Tony Simmons might work as the third receiver.	28923828	1472658360117	1472658360180	h	72
55596	608053	Newly-signed Tony Simmons might work as the third receiver.	Newly-signed Tony Simmons might work as the third receiver.	28923830	1472658360205	1472658360284	t	84
55596	608053	Newly-signed Tony Simmons might work as the third receiver.	Newly-signed Tony Simmons might work as the third receiver.	28923835	1472658360301	1472658360388	 	32
55596	608053	Newly-signed Tony Simmons might work as the third receiver.	Newly-signed Tony Simmons might work as the third receiver.	28923836	1472658360421	1472658360509	w	87
55596	608053	Newly-signed Tony Simmons might work as the third receiver.	Newly-signed Tony Simmons might work as the third receiver.	28923837	1472658360485	1472658360572	o	79
55596	608053	Newly-signed Tony Simmons might work as the third receiver.	Newly-signed Tony Simmons might work as the third receiver.	28923838	1472658360613	1472658360700	r	82
55596	608053	Newly-signed Tony Simmons might work as the third receiver.	Newly-signed Tony Simmons might work as the third receiver.	28923855	1472658360693	1472658360804	k	75
55596	608053	Newly-signed Tony Simmons might work as the third receiver.	Newly-signed Tony Simmons might work as the third receiver.	28923859	1472658360805	1472658360892	 	32
55596	608053	Newly-signed Tony Simmons might work as the third receiver.	Newly-signed Tony Simmons might work as the third receiver.	28923862	1472658360877	1472658361004	a	65
55596	608053	Newly-signed Tony Simmons might work as the third receiver.	Newly-signed Tony Simmons might work as the third receiver.	28923866	1472658360965	1472658361068	s	83
55596	608053	Newly-signed Tony Simmons might work as the third receiver.	Newly-signed Tony Simmons might work as the third receiver.	28923873	1472658361053	1472658361141	 	32
55596	608053	Newly-signed Tony Simmons might work as the third receiver.	Newly-signed Tony Simmons might work as the third receiver.	28923906	1472658361133	1472658361212	t	84
55596	608053	Newly-signed Tony Simmons might work as the third receiver.	Newly-signed Tony Simmons might work as the third receiver.	28923915	1472658361205	1472658361268	h	72
55596	608053	Newly-signed Tony Simmons might work as the third receiver.	Newly-signed Tony Simmons might work as the third receiver.	28923921	1472658361253	1472658361356	e	69
55596	608053	Newly-signed Tony Simmons might work as the third receiver.	Newly-signed Tony Simmons might work as the third receiver.	28923927	1472658361309	1472658361420	 	32
55596	608053	Newly-signed Tony Simmons might work as the third receiver.	Newly-signed Tony Simmons might work as the third receiver.	28923931	1472658361469	1472658361532	t	84
55596	608053	Newly-signed Tony Simmons might work as the third receiver.	Newly-signed Tony Simmons might work as the third receiver.	28923935	1472658361541	1472658361636	h	72
55596	608053	Newly-signed Tony Simmons might work as the third receiver.	Newly-signed Tony Simmons might work as the third receiver.	28923980	1472658361621	1472658361700	r	82
55596	608053	Newly-signed Tony Simmons might work as the third receiver.	Newly-signed Tony Simmons might work as the third receiver.	28923984	1472658361717	1472658361804	i	73
55596	608053	Newly-signed Tony Simmons might work as the third receiver.	Newly-signed Tony Simmons might work as the third receiver.	28923986	1472658361893	1472658361972	d	68
55596	608053	Newly-signed Tony Simmons might work as the third receiver.	Newly-signed Tony Simmons might work as the third receiver.	28923991	1472658362077	1472658362132	BKSP	8
55596	608053	Newly-signed Tony Simmons might work as the third receiver.	Newly-signed Tony Simmons might work as the third receiver.	28923999	1472658362189	1472658362244	BKSP	8
55596	608053	Newly-signed Tony Simmons might work as the third receiver.	Newly-signed Tony Simmons might work as the third receiver.	28924003	1472658362301	1472658362364	BKSP	8
55596	608053	Newly-signed Tony Simmons might work as the third receiver.	Newly-signed Tony Simmons might work as the third receiver.	28924005	1472658362429	1472658362508	i	73
55596	608053	Newly-signed Tony Simmons might work as the third receiver.	Newly-signed Tony Simmons might work as the third receiver.	28924008	1472658362509	1472658362588	r	82
55596	608053	Newly-signed Tony Simmons might work as the third receiver.	Newly-signed Tony Simmons might work as the third receiver.	28924012	1472658362669	1472658362756	d	68
55596	608053	Newly-signed Tony Simmons might work as the third receiver.	Newly-signed Tony Simmons might work as the third receiver.	28924037	1472658362845	1472658362932	 	32
55596	608053	Newly-signed Tony Simmons might work as the third receiver.	Newly-signed Tony Simmons might work as the third receiver.	28924039	1472658363085	1472658363172	r	82
55596	608053	Newly-signed Tony Simmons might work as the third receiver.	Newly-signed Tony Simmons might work as the third receiver.	28924041	1472658363149	1472658363236	e	69
55596	608053	Newly-signed Tony Simmons might work as the third receiver.	Newly-signed Tony Simmons might work as the third receiver.	28924046	1472658363325	1472658363372	c	67
55596	608053	Newly-signed Tony Simmons might work as the third receiver.	Newly-signed Tony Simmons might work as the third receiver.	28924053	1472658363469	1472658363524	e	69
55596	608053	Newly-signed Tony Simmons might work as the third receiver.	Newly-signed Tony Simmons might work as the third receiver.	28924073	1472658363565	1472658363676	i	73
55596	608053	Newly-signed Tony Simmons might work as the third receiver.	Newly-signed Tony Simmons might work as the third receiver.	28924077	1472658363677	1472658363756	v	86
55596	608053	Newly-signed Tony Simmons might work as the third receiver.	Newly-signed Tony Simmons might work as the third receiver.	28924080	1472658363805	1472658363932	e	69
55596	608053	Newly-signed Tony Simmons might work as the third receiver.	Newly-signed Tony Simmons might work as the third receiver.	28924085	1472658363893	1472658363980	r	82
55596	608053	Newly-signed Tony Simmons might work as the third receiver.	Newly-signed Tony Simmons might work as the third receiver.	28924088	1472658363981	1472658364052	.	190
55596	608070	He is listed as probable for this week's game.	He is listed as probable for this week's game.	28924374	1472658365373	1472658365652	SHIFT	16
55596	608070	He is listed as probable for this week's game.	He is listed as probable for this week's game.	28924379	1472658369332	1472658369740	SHIFT	16
55596	608070	He is listed as probable for this week's game.	He is listed as probable for this week's game.	28924383	1472658369693	1472658369788	H	72
55596	608070	He is listed as probable for this week's game.	He is listed as probable for this week's game.	28924387	1472658369845	1472658369916	e	69
55596	608070	He is listed as probable for this week's game.	He is listed as probable for this week's game.	28924390	1472658369917	1472658370036	 	32
55596	608070	He is listed as probable for this week's game.	He is listed as probable for this week's game.	28924393	1472658370021	1472658370108	i	73
55596	608070	He is listed as probable for this week's game.	He is listed as probable for this week's game.	28924397	1472658370125	1472658370220	s	83
55596	608070	He is listed as probable for this week's game.	He is listed as probable for this week's game.	28924420	1472658370213	1472658370292	 	32
55596	608070	He is listed as probable for this week's game.	He is listed as probable for this week's game.	28924422	1472658370325	1472658370476	l	76
55596	608070	He is listed as probable for this week's game.	He is listed as probable for this week's game.	28924425	1472658370445	1472658370524	i	73
55596	608070	He is listed as probable for this week's game.	He is listed as probable for this week's game.	28924426	1472658370549	1472658370684	s	83
55596	608070	He is listed as probable for this week's game.	He is listed as probable for this week's game.	28924429	1472658370645	1472658370732	t	84
55596	608070	He is listed as probable for this week's game.	He is listed as probable for this week's game.	28924431	1472658370773	1472658370836	e	69
55596	608070	He is listed as probable for this week's game.	He is listed as probable for this week's game.	28924452	1472658370932	1472658370972	d	68
55596	608070	He is listed as probable for this week's game.	He is listed as probable for this week's game.	28924454	1472658370989	1472658371076	 	32
55596	608070	He is listed as probable for this week's game.	He is listed as probable for this week's game.	28924458	1472658371085	1472658371188	a	65
55596	608070	He is listed as probable for this week's game.	He is listed as probable for this week's game.	28924462	1472658371141	1472658371252	s	83
55596	608070	He is listed as probable for this week's game.	He is listed as probable for this week's game.	28924505	1472658371205	1472658371325	 	32
55596	608070	He is listed as probable for this week's game.	He is listed as probable for this week's game.	28924508	1472658371397	1472658371516	p	80
55596	608070	He is listed as probable for this week's game.	He is listed as probable for this week's game.	28924513	1472658371493	1472658371572	r	82
55596	608070	He is listed as probable for this week's game.	He is listed as probable for this week's game.	28924516	1472658371613	1472658371635	o	80
55596	608070	He is listed as probable for this week's game.	He is listed as probable for this week's game.	28924519	1472658371908	1472658371972	BKSP	8
55596	608070	He is listed as probable for this week's game.	He is listed as probable for this week's game.	28924523	1472658372029	1472658372092	BKSP	8
55596	608070	He is listed as probable for this week's game.	He is listed as probable for this week's game.	28924526	1472658372173	1472658372244	o	79
55596	608070	He is listed as probable for this week's game.	He is listed as probable for this week's game.	28924546	1472658372260	1472658372332	b	66
55596	608070	He is listed as probable for this week's game.	He is listed as probable for this week's game.	28924549	1472658372349	1472658372476	a	65
55596	608070	He is listed as probable for this week's game.	He is listed as probable for this week's game.	28924553	1472658372484	1472658372556	b	66
55596	608070	He is listed as probable for this week's game.	He is listed as probable for this week's game.	28924559	1472658372581	1472658372684	l	76
55596	608070	He is listed as probable for this week's game.	He is listed as probable for this week's game.	28924563	1472658372837	1472658372908	e	69
55596	608070	He is listed as probable for this week's game.	He is listed as probable for this week's game.	28924586	1472658372949	1472658373044	 	32
55596	608070	He is listed as probable for this week's game.	He is listed as probable for this week's game.	28924590	1472658373077	1472658373132	f	70
55596	608070	He is listed as probable for this week's game.	He is listed as probable for this week's game.	28924593	1472658373140	1472658373220	o	79
55596	608070	He is listed as probable for this week's game.	He is listed as probable for this week's game.	28924596	1472658373237	1472658373292	r	82
55596	608070	He is listed as probable for this week's game.	He is listed as probable for this week's game.	28924597	1472658373317	1472658373396	 	32
55596	608070	He is listed as probable for this week's game.	He is listed as probable for this week's game.	28924603	1472658373389	1472658373452	t	84
55596	608070	He is listed as probable for this week's game.	He is listed as probable for this week's game.	28924609	1472658373421	1472658373507	h	72
55596	608070	He is listed as probable for this week's game.	He is listed as probable for this week's game.	28924617	1472658373493	1472658373572	i	73
55596	608070	He is listed as probable for this week's game.	He is listed as probable for this week's game.	28924626	1472658373580	1472658373660	s	83
55596	608070	He is listed as probable for this week's game.	He is listed as probable for this week's game.	28924633	1472658373637	1472658373764	 	32
55596	608070	He is listed as probable for this week's game.	He is listed as probable for this week's game.	28924644	1472658373893	1472658374004	w	87
55596	608070	He is listed as probable for this week's game.	He is listed as probable for this week's game.	28924676	1472658373981	1472658374076	e	69
55596	608070	He is listed as probable for this week's game.	He is listed as probable for this week's game.	28924679	1472658374140	1472658374204	e	69
55596	608070	He is listed as probable for this week's game.	He is listed as probable for this week's game.	28924683	1472658374269	1472658374372	k	75
55596	608070	He is listed as probable for this week's game.	He is listed as probable for this week's game.	28924688	1472658374468	1472658374580	'	222
55596	608070	He is listed as probable for this week's game.	He is listed as probable for this week's game.	28924691	1472658374620	1472658374684	s	83
55596	608070	He is listed as probable for this week's game.	He is listed as probable for this week's game.	28924700	1472658374797	1472658374908	 	32
55596	608070	He is listed as probable for this week's game.	He is listed as probable for this week's game.	28924721	1472658374972	1472658375036	g	71
55596	608070	He is listed as probable for this week's game.	He is listed as probable for this week's game.	28924725	1472658375077	1472658375148	a	65
55596	608070	He is listed as probable for this week's game.	He is listed as probable for this week's game.	28924729	1472658375156	1472658375251	m	77
55596	608070	He is listed as probable for this week's game.	He is listed as probable for this week's game.	28924731	1472658375229	1472658375284	e	69
55596	608070	He is listed as probable for this week's game.	He is listed as probable for this week's game.	28924733	1472658375317	1472658375388	.	190
55596	608084	I plan to be in the office tomorrow.	I plan to be in the office tomorrow.	28924998	1472658378748	1472658378996	SHIFT	16
55596	608084	I plan to be in the office tomorrow.	I plan to be in the office tomorrow.	28925002	1472658378948	1472658379028	I	73
55596	608084	I plan to be in the office tomorrow.	I plan to be in the office tomorrow.	28925007	1472658379060	1472658379180	 	32
55596	608084	I plan to be in the office tomorrow.	I plan to be in the office tomorrow.	28925017	1472658379140	1472658379268	p	80
55596	608084	I plan to be in the office tomorrow.	I plan to be in the office tomorrow.	28925020	1472658379300	1472658379420	l	76
55596	608084	I plan to be in the office tomorrow.	I plan to be in the office tomorrow.	28925023	1472658379428	1472658379500	a	65
55596	608084	I plan to be in the office tomorrow.	I plan to be in the office tomorrow.	28925025	1472658379524	1472658379652	n	78
55596	608084	I plan to be in the office tomorrow.	I plan to be in the office tomorrow.	28925027	1472658379620	1472658379708	 	32
55596	608084	I plan to be in the office tomorrow.	I plan to be in the office tomorrow.	28925029	1472658379716	1472658379795	t	84
55596	608084	I plan to be in the office tomorrow.	I plan to be in the office tomorrow.	28925031	1472658379756	1472658379876	o	79
55596	608084	I plan to be in the office tomorrow.	I plan to be in the office tomorrow.	28925054	1472658379852	1472658379948	 	32
55596	608084	I plan to be in the office tomorrow.	I plan to be in the office tomorrow.	28925058	1472658379964	1472658380028	b	66
55596	608084	I plan to be in the office tomorrow.	I plan to be in the office tomorrow.	28925072	1472658380076	1472658380172	e	69
55596	608084	I plan to be in the office tomorrow.	I plan to be in the office tomorrow.	28925079	1472658380180	1472658380291	 	32
55596	608084	I plan to be in the office tomorrow.	I plan to be in the office tomorrow.	28925084	1472658380260	1472658380412	i	73
55596	608084	I plan to be in the office tomorrow.	I plan to be in the office tomorrow.	28925080	1472658380348	1472658380459	n	78
55596	608084	I plan to be in the office tomorrow.	I plan to be in the office tomorrow.	28925091	1472658380444	1472658380587	 	32
55596	608084	I plan to be in the office tomorrow.	I plan to be in the office tomorrow.	28925086	1472658380485	1472658380572	t	84
55596	608084	I plan to be in the office tomorrow.	I plan to be in the office tomorrow.	28925095	1472658380564	1472658380652	h	72
55596	608084	I plan to be in the office tomorrow.	I plan to be in the office tomorrow.	28925100	1472658380668	1472658380763	e	69
55596	608084	I plan to be in the office tomorrow.	I plan to be in the office tomorrow.	28925117	1472658380748	1472658380828	 	32
55596	608084	I plan to be in the office tomorrow.	I plan to be in the office tomorrow.	28925121	1472658380948	1472658381044	o	79
55596	608084	I plan to be in the office tomorrow.	I plan to be in the office tomorrow.	28925125	1472658381076	1472658381123	f	70
55596	608084	I plan to be in the office tomorrow.	I plan to be in the office tomorrow.	28925129	1472658381204	1472658381252	f	70
55596	608084	I plan to be in the office tomorrow.	I plan to be in the office tomorrow.	28925133	1472658381269	1472658381356	i	73
55596	608084	I plan to be in the office tomorrow.	I plan to be in the office tomorrow.	28925137	1472658381364	1472658381436	c	67
55596	608084	I plan to be in the office tomorrow.	I plan to be in the office tomorrow.	28925159	1472658381524	1472658381588	e	69
55596	608084	I plan to be in the office tomorrow.	I plan to be in the office tomorrow.	28925163	1472658381604	1472658381710	 	32
55596	608084	I plan to be in the office tomorrow.	I plan to be in the office tomorrow.	28925166	1472658381708	1472658381763	t	84
55596	608084	I plan to be in the office tomorrow.	I plan to be in the office tomorrow.	28925168	1472658381772	1472658381844	o	79
55596	608084	I plan to be in the office tomorrow.	I plan to be in the office tomorrow.	28925170	1472658381940	1472658382043	m	77
55596	608084	I plan to be in the office tomorrow.	I plan to be in the office tomorrow.	28925206	1472658382036	1472658382140	o	79
55596	608084	I plan to be in the office tomorrow.	I plan to be in the office tomorrow.	28925214	1472658382284	1472658382372	r	82
55596	608084	I plan to be in the office tomorrow.	I plan to be in the office tomorrow.	28925220	1472658382444	1472658382508	r	82
55596	608084	I plan to be in the office tomorrow.	I plan to be in the office tomorrow.	28925224	1472658382604	1472658382692	o	79
55596	608084	I plan to be in the office tomorrow.	I plan to be in the office tomorrow.	28925229	1472658382716	1472658382788	w	87
55596	608084	I plan to be in the office tomorrow.	I plan to be in the office tomorrow.	28925233	1472658382844	1472658382916	.	190
55596	608095	We are proceeding with a great reception so far.	We are proceeding with a great reception so far.	28925458	1472658385124	1472658386235	SHIFT	16
55596	608095	We are proceeding with a great reception so far.	We are proceeding with a great reception so far.	28925459	1472658386523	1472658386771	SHIFT	16
55596	608095	We are proceeding with a great reception so far.	We are proceeding with a great reception so far.	28925461	1472658386708	1472658386796	W	87
55596	608095	We are proceeding with a great reception so far.	We are proceeding with a great reception so far.	28925466	1472658386820	1472658386923	e	69
55596	608095	We are proceeding with a great reception so far.	We are proceeding with a great reception so far.	28925472	1472658386996	1472658387091	 	32
55596	608095	We are proceeding with a great reception so far.	We are proceeding with a great reception so far.	28925475	1472658387076	1472658387196	a	65
55596	608095	We are proceeding with a great reception so far.	We are proceeding with a great reception so far.	28925522	1472658387164	1472658387283	r	82
55596	608095	We are proceeding with a great reception so far.	We are proceeding with a great reception so far.	28925526	1472658387244	1472658387339	e	69
55596	608095	We are proceeding with a great reception so far.	We are proceeding with a great reception so far.	28925530	1472658387316	1472658387428	 	32
55596	608095	We are proceeding with a great reception so far.	We are proceeding with a great reception so far.	28925534	1472658387484	1472658387563	p	80
55596	608095	We are proceeding with a great reception so far.	We are proceeding with a great reception so far.	28925536	1472658387556	1472658387667	o	79
55596	608095	We are proceeding with a great reception so far.	We are proceeding with a great reception so far.	28925541	1472658387892	1472658387947	BKSP	8
55596	608095	We are proceeding with a great reception so far.	We are proceeding with a great reception so far.	28925547	1472658387972	1472658388060	r	82
55596	608095	We are proceeding with a great reception so far.	We are proceeding with a great reception so far.	28925596	1472658388052	1472658388140	o	79
55596	608095	We are proceeding with a great reception so far.	We are proceeding with a great reception so far.	28925599	1472658388428	1472658388540	c	67
55596	608095	We are proceeding with a great reception so far.	We are proceeding with a great reception so far.	28925603	1472658388628	1472658388700	e	69
55596	608095	We are proceeding with a great reception so far.	We are proceeding with a great reception so far.	28925606	1472658388772	1472658388827	e	69
55596	608095	We are proceeding with a great reception so far.	We are proceeding with a great reception so far.	28925610	1472658388916	1472658388988	d	68
55596	608095	We are proceeding with a great reception so far.	We are proceeding with a great reception so far.	28925612	1472658388988	1472658389115	i	73
55596	608095	We are proceeding with a great reception so far.	We are proceeding with a great reception so far.	28925618	1472658389060	1472658389163	n	78
55596	608095	We are proceeding with a great reception so far.	We are proceeding with a great reception so far.	28925621	1472658389124	1472658389203	g	71
55596	608095	We are proceeding with a great reception so far.	We are proceeding with a great reception so far.	28925625	1472658389212	1472658389323	 	32
55596	608095	We are proceeding with a great reception so far.	We are proceeding with a great reception so far.	28925627	1472658389308	1472658389387	w	87
55596	608095	We are proceeding with a great reception so far.	We are proceeding with a great reception so far.	28925629	1472658389364	1472658389499	i	73
55596	608095	We are proceeding with a great reception so far.	We are proceeding with a great reception so far.	28925685	1472658389468	1472658389539	t	84
55596	608095	We are proceeding with a great reception so far.	We are proceeding with a great reception so far.	28925686	1472658389532	1472658389627	h	72
55596	608095	We are proceeding with a great reception so far.	We are proceeding with a great reception so far.	28925688	1472658389660	1472658389731	 	65
55596	608095	We are proceeding with a great reception so far.	We are proceeding with a great reception so far.	28925690	1472658389836	1472658389899	 	32
55596	608095	We are proceeding with a great reception so far.	We are proceeding with a great reception so far.	28925692	1472658390180	1472658390243	BKSP	8
55596	608095	We are proceeding with a great reception so far.	We are proceeding with a great reception so far.	28925696	1472658390284	1472658390355	BKSP	8
55596	608095	We are proceeding with a great reception so far.	We are proceeding with a great reception so far.	28925700	1472658390412	1472658390475	BKSP	8
55596	608095	We are proceeding with a great reception so far.	We are proceeding with a great reception so far.	28925703	1472658390516	1472658390603	 	32
55596	608095	We are proceeding with a great reception so far.	We are proceeding with a great reception so far.	28925737	1472658390668	1472658390787	a	65
55596	608095	We are proceeding with a great reception so far.	We are proceeding with a great reception so far.	28925739	1472658390884	1472658390955	 	32
55596	608095	We are proceeding with a great reception so far.	We are proceeding with a great reception so far.	28925743	1472658391172	1472658391243	g	71
55596	608095	We are proceeding with a great reception so far.	We are proceeding with a great reception so far.	28925745	1472658391340	1472658391459	r	82
55596	608095	We are proceeding with a great reception so far.	We are proceeding with a great reception so far.	28925766	1472658391412	1472658391515	e	69
55596	608095	We are proceeding with a great reception so far.	We are proceeding with a great reception so far.	28925768	1472658391588	1472658391723	a	65
55596	608095	We are proceeding with a great reception so far.	We are proceeding with a great reception so far.	28925771	1472658391692	1472658391771	t	84
55596	608095	We are proceeding with a great reception so far.	We are proceeding with a great reception so far.	28925773	1472658391796	1472658391891	 	32
55596	608095	We are proceeding with a great reception so far.	We are proceeding with a great reception so far.	28925778	1472658391980	1472658392075	r	82
55596	608095	We are proceeding with a great reception so far.	We are proceeding with a great reception so far.	28925807	1472658392044	1472658392131	e	69
55596	608095	We are proceeding with a great reception so far.	We are proceeding with a great reception so far.	28925812	1472658392236	1472658392291	c	67
55596	608095	We are proceeding with a great reception so far.	We are proceeding with a great reception so far.	28925817	1472658392388	1472658392443	e	69
55596	608095	We are proceeding with a great reception so far.	We are proceeding with a great reception so far.	28925820	1472658392452	1472658392547	p	80
55596	608095	We are proceeding with a great reception so far.	We are proceeding with a great reception so far.	28925823	1472658392572	1472658392645	t	84
55596	608095	We are proceeding with a great reception so far.	We are proceeding with a great reception so far.	28925834	1472658392644	1472658392764	i	73
55596	608095	We are proceeding with a great reception so far.	We are proceeding with a great reception so far.	28925838	1472658392740	1472658392867	o	79
55596	608095	We are proceeding with a great reception so far.	We are proceeding with a great reception so far.	28925842	1472658392820	1472658392932	n	78
55596	608095	We are proceeding with a great reception so far.	We are proceeding with a great reception so far.	28925845	1472658392908	1472658392995	 	32
55596	608095	We are proceeding with a great reception so far.	We are proceeding with a great reception so far.	28925851	1472658392988	1472658393083	s	83
55596	608095	We are proceeding with a great reception so far.	We are proceeding with a great reception so far.	28925877	1472658393060	1472658393171	o	79
55596	608095	We are proceeding with a great reception so far.	We are proceeding with a great reception so far.	28925880	1472658393180	1472658393267	 	32
55596	608095	We are proceeding with a great reception so far.	We are proceeding with a great reception so far.	28925885	1472658393292	1472658393371	f	70
55596	608095	We are proceeding with a great reception so far.	We are proceeding with a great reception so far.	28925888	1472658393404	1472658393523	a	65
55596	608095	We are proceeding with a great reception so far.	We are proceeding with a great reception so far.	28925893	1472658393492	1472658393579	r	82
55596	608095	We are proceeding with a great reception so far.	We are proceeding with a great reception so far.	28925891	1472658393549	1472658393635	.	190
55596	608107	My only constraint is Chad's soccer game at noon.	My only constraint is Chad's soccer game at noon	28926184	1472658399019	1472658399179	SHIFT	16
55596	608107	My only constraint is Chad's soccer game at noon.	My only constraint is Chad's soccer game at noon	28926179	1472658399084	1472658399163	M	77
55596	608107	My only constraint is Chad's soccer game at noon.	My only constraint is Chad's soccer game at noon	28926190	1472658399300	1472658399387	y	89
55596	608107	My only constraint is Chad's soccer game at noon.	My only constraint is Chad's soccer game at noon	28926194	1472658399356	1472658399499	 	32
55596	608107	My only constraint is Chad's soccer game at noon.	My only constraint is Chad's soccer game at noon	28926197	1472658399476	1472658399603	o	79
55596	608107	My only constraint is Chad's soccer game at noon.	My only constraint is Chad's soccer game at noon	28926226	1472658399572	1472658399659	n	78
55596	608107	My only constraint is Chad's soccer game at noon.	My only constraint is Chad's soccer game at noon	28926231	1472658399700	1472658399835	l	76
55596	608107	My only constraint is Chad's soccer game at noon.	My only constraint is Chad's soccer game at noon	28926238	1472658399820	1472658399899	y	89
55596	608107	My only constraint is Chad's soccer game at noon.	My only constraint is Chad's soccer game at noon	28926242	1472658399892	1472658399987	 	32
55596	608107	My only constraint is Chad's soccer game at noon.	My only constraint is Chad's soccer game at noon	28926244	1472658400212	1472658400299	c	67
55596	608107	My only constraint is Chad's soccer game at noon.	My only constraint is Chad's soccer game at noon	28926272	1472658400268	1472658400379	o	79
55596	608107	My only constraint is Chad's soccer game at noon.	My only constraint is Chad's soccer game at noon	28926275	1472658400324	1472658400435	n	78
55596	608107	My only constraint is Chad's soccer game at noon.	My only constraint is Chad's soccer game at noon	28926279	1472658400452	1472658400555	s	83
55596	608107	My only constraint is Chad's soccer game at noon.	My only constraint is Chad's soccer game at noon	28926283	1472658400548	1472658400635	t	84
55596	608107	My only constraint is Chad's soccer game at noon.	My only constraint is Chad's soccer game at noon	28926289	1472658400740	1472658400867	a	65
55596	608107	My only constraint is Chad's soccer game at noon.	My only constraint is Chad's soccer game at noon	28926297	1472658401148	1472658401211	BKSP	8
55596	608107	My only constraint is Chad's soccer game at noon.	My only constraint is Chad's soccer game at noon	28926328	1472658401204	1472658401267	r	82
55596	608107	My only constraint is Chad's soccer game at noon.	My only constraint is Chad's soccer game at noon	28926331	1472658401292	1472658401387	a	65
55596	608107	My only constraint is Chad's soccer game at noon.	My only constraint is Chad's soccer game at noon	28926333	1472658401380	1472658401451	i	73
55596	608107	My only constraint is Chad's soccer game at noon.	My only constraint is Chad's soccer game at noon	28926337	1472658401724	1472658401803	n	78
55596	608107	My only constraint is Chad's soccer game at noon.	My only constraint is Chad's soccer game at noon	28926340	1472658401892	1472658401956	t	84
55596	608107	My only constraint is Chad's soccer game at noon.	My only constraint is Chad's soccer game at noon	28926344	1472658402092	1472658402230	 	32
55596	608107	My only constraint is Chad's soccer game at noon.	My only constraint is Chad's soccer game at noon	28926426	1472658402228	1472658402339	i	73
55596	608107	My only constraint is Chad's soccer game at noon.	My only constraint is Chad's soccer game at noon	28926431	1472658402348	1472658402443	s	83
55596	608107	My only constraint is Chad's soccer game at noon.	My only constraint is Chad's soccer game at noon	28926435	1472658402436	1472658402539	 	32
55596	608107	My only constraint is Chad's soccer game at noon.	My only constraint is Chad's soccer game at noon	28926438	1472658402691	1472658403011	SHIFT	16
55596	608107	My only constraint is Chad's soccer game at noon.	My only constraint is Chad's soccer game at noon	28926442	1472658403012	1472658403075	h	72
55596	608107	My only constraint is Chad's soccer game at noon.	My only constraint is Chad's soccer game at noon	28926445	1472658403380	1472658403459	BKSP	8
55596	608107	My only constraint is Chad's soccer game at noon.	My only constraint is Chad's soccer game at noon	28926448	1472658403531	1472658403755	SHIFT	16
55596	608107	My only constraint is Chad's soccer game at noon.	My only constraint is Chad's soccer game at noon	28926453	1472658403660	1472658403787	C	67
55596	608107	My only constraint is Chad's soccer game at noon.	My only constraint is Chad's soccer game at noon	28926458	1472658403795	1472658403859	h	72
55596	608107	My only constraint is Chad's soccer game at noon.	My only constraint is Chad's soccer game at noon	28926472	1472658403932	1472658404067	a	65
55596	608107	My only constraint is Chad's soccer game at noon.	My only constraint is Chad's soccer game at noon	28926474	1472658404052	1472658404115	d	68
55596	608107	My only constraint is Chad's soccer game at noon.	My only constraint is Chad's soccer game at noon	28926476	1472658404156	1472658404251	'	222
55596	608107	My only constraint is Chad's soccer game at noon.	My only constraint is Chad's soccer game at noon	28926478	1472658404324	1472658404395	s	83
55596	608107	My only constraint is Chad's soccer game at noon.	My only constraint is Chad's soccer game at noon	28926480	1472658404404	1472658404507	 	32
55596	608107	My only constraint is Chad's soccer game at noon.	My only constraint is Chad's soccer game at noon	28926520	1472658404588	1472658404643	s	83
55596	608107	My only constraint is Chad's soccer game at noon.	My only constraint is Chad's soccer game at noon	28926524	1472658404700	1472658404787	o	79
55596	608107	My only constraint is Chad's soccer game at noon.	My only constraint is Chad's soccer game at noon	28926528	1472658404852	1472658404915	c	67
55596	608107	My only constraint is Chad's soccer game at noon.	My only constraint is Chad's soccer game at noon	28926531	1472658404988	1472658405051	c	67
55596	608107	My only constraint is Chad's soccer game at noon.	My only constraint is Chad's soccer game at noon	28926533	1472658405148	1472658405267	e	69
55596	608107	My only constraint is Chad's soccer game at noon.	My only constraint is Chad's soccer game at noon	28926542	1472658405236	1472658405307	r	82
55596	608107	My only constraint is Chad's soccer game at noon.	My only constraint is Chad's soccer game at noon	28926545	1472658405283	1472658405379	 	32
55596	608107	My only constraint is Chad's soccer game at noon.	My only constraint is Chad's soccer game at noon	28926549	1472658405428	1472658405491	g	71
55596	608107	My only constraint is Chad's soccer game at noon.	My only constraint is Chad's soccer game at noon	28926557	1472658405516	1472658405603	a	65
55596	608107	My only constraint is Chad's soccer game at noon.	My only constraint is Chad's soccer game at noon	28926564	1472658405588	1472658405691	m	77
55596	608107	My only constraint is Chad's soccer game at noon.	My only constraint is Chad's soccer game at noon	28926588	1472658405684	1472658405755	e	69
55596	608107	My only constraint is Chad's soccer game at noon.	My only constraint is Chad's soccer game at noon	28926590	1472658405787	1472658405883	 	32
55596	608107	My only constraint is Chad's soccer game at noon.	My only constraint is Chad's soccer game at noon	28926593	1472658405860	1472658405979	a	65
55596	608107	My only constraint is Chad's soccer game at noon.	My only constraint is Chad's soccer game at noon	28926596	1472658405947	1472658406043	t	84
55596	608107	My only constraint is Chad's soccer game at noon.	My only constraint is Chad's soccer game at noon	28926599	1472658406051	1472658406155	 	32
55596	608107	My only constraint is Chad's soccer game at noon.	My only constraint is Chad's soccer game at noon	28926602	1472658406196	1472658406259	n	78
55596	608107	My only constraint is Chad's soccer game at noon.	My only constraint is Chad's soccer game at noon	28926613	1472658406252	1472658406323	o	79
55596	608107	My only constraint is Chad's soccer game at noon.	My only constraint is Chad's soccer game at noon	28926615	1472658406412	1472658406499	o	79
55596	608107	My only constraint is Chad's soccer game at noon.	My only constraint is Chad's soccer game at noon	28926619	1472658406508	1472658406579	n	78
55596	608121	I wasn't as prepared as I will be this year.	I wasn't as prepared as I will be this year.	28926817	1472658408843	1472658409315	SHIFT	16
55596	608121	I wasn't as prepared as I will be this year.	I wasn't as prepared as I will be this year.	28926818	1472658409603	1472658409787	SHIFT	16
55596	608121	I wasn't as prepared as I will be this year.	I wasn't as prepared as I will be this year.	28926819	1472658409715	1472658409787	I	73
55596	608121	I wasn't as prepared as I will be this year.	I wasn't as prepared as I will be this year.	28926820	1472658409884	1472658409987	 	32
55596	608121	I wasn't as prepared as I will be this year.	I wasn't as prepared as I will be this year.	28926821	1472658409964	1472658410051	w	87
55596	608121	I wasn't as prepared as I will be this year.	I wasn't as prepared as I will be this year.	28926822	1472658410084	1472658410203	a	65
55596	608121	I wasn't as prepared as I will be this year.	I wasn't as prepared as I will be this year.	28926840	1472658410172	1472658410267	s	83
55596	608121	I wasn't as prepared as I will be this year.	I wasn't as prepared as I will be this year.	28926842	1472658410275	1472658410371	n	78
55596	608121	I wasn't as prepared as I will be this year.	I wasn't as prepared as I will be this year.	28926844	1472658410395	1472658410491	'	222
55596	608121	I wasn't as prepared as I will be this year.	I wasn't as prepared as I will be this year.	28926847	1472658410483	1472658410547	t	84
55596	608121	I wasn't as prepared as I will be this year.	I wasn't as prepared as I will be this year.	28926850	1472658410555	1472658410654	 	32
55596	608121	I wasn't as prepared as I will be this year.	I wasn't as prepared as I will be this year.	28926863	1472658410652	1472658410779	a	65
55596	608121	I wasn't as prepared as I will be this year.	I wasn't as prepared as I will be this year.	28926866	1472658410716	1472658410843	s	83
55596	608121	I wasn't as prepared as I will be this year.	I wasn't as prepared as I will be this year.	28926870	1472658410835	1472658410931	 	32
55596	608121	I wasn't as prepared as I will be this year.	I wasn't as prepared as I will be this year.	28926873	1472658410947	1472658411044	p	80
55596	608121	I wasn't as prepared as I will be this year.	I wasn't as prepared as I will be this year.	28926874	1472658411029	1472658411123	r	82
55596	608121	I wasn't as prepared as I will be this year.	I wasn't as prepared as I will be this year.	28926908	1472658411083	1472658411187	e	69
55596	608121	I wasn't as prepared as I will be this year.	I wasn't as prepared as I will be this year.	28926911	1472658411299	1472658411387	p	80
55596	608121	I wasn't as prepared as I will be this year.	I wasn't as prepared as I will be this year.	28926917	1472658411395	1472658411523	a	65
55596	608121	I wasn't as prepared as I will be this year.	I wasn't as prepared as I will be this year.	28926921	1472658411531	1472658411651	r	82
55596	608121	I wasn't as prepared as I will be this year.	I wasn't as prepared as I will be this year.	28926925	1472658411667	1472658411739	e	69
55596	608121	I wasn't as prepared as I will be this year.	I wasn't as prepared as I will be this year.	28926929	1472658411811	1472658411898	d	68
55596	608121	I wasn't as prepared as I will be this year.	I wasn't as prepared as I will be this year.	28926975	1472658411883	1472658411971	 	32
55596	608121	I wasn't as prepared as I will be this year.	I wasn't as prepared as I will be this year.	28926981	1472658412083	1472658412251	a	65
55596	608121	I wasn't as prepared as I will be this year.	I wasn't as prepared as I will be this year.	28926985	1472658412203	1472658412331	s	83
55596	608121	I wasn't as prepared as I will be this year.	I wasn't as prepared as I will be this year.	28926993	1472658412339	1472658412444	 	32
55596	608121	I wasn't as prepared as I will be this year.	I wasn't as prepared as I will be this year.	28926999	1472658412427	1472658412499	i	73
55596	608121	I wasn't as prepared as I will be this year.	I wasn't as prepared as I will be this year.	28927003	1472658412691	1472658412771	BKSP	8
55596	608121	I wasn't as prepared as I will be this year.	I wasn't as prepared as I will be this year.	28927029	1472658412747	1472658412930	SHIFT	16
55596	608121	I wasn't as prepared as I will be this year.	I wasn't as prepared as I will be this year.	28927008	1472658412843	1472658412923	I	73
55596	608121	I wasn't as prepared as I will be this year.	I wasn't as prepared as I will be this year.	28927036	1472658412963	1472658413059	 	32
55596	608121	I wasn't as prepared as I will be this year.	I wasn't as prepared as I will be this year.	28927040	1472658413179	1472658413266	w	87
55596	608121	I wasn't as prepared as I will be this year.	I wasn't as prepared as I will be this year.	28927046	1472658413243	1472658413378	i	73
55596	608121	I wasn't as prepared as I will be this year.	I wasn't as prepared as I will be this year.	28927049	1472658413371	1472658413426	l	76
55596	608121	I wasn't as prepared as I will be this year.	I wasn't as prepared as I will be this year.	28927050	1472658413515	1472658413587	l	76
55596	608121	I wasn't as prepared as I will be this year.	I wasn't as prepared as I will be this year.	28927058	1472658413588	1472658413691	 	32
55596	608121	I wasn't as prepared as I will be this year.	I wasn't as prepared as I will be this year.	28927061	1472658413651	1472658413723	b	66
55596	608121	I wasn't as prepared as I will be this year.	I wasn't as prepared as I will be this year.	28927066	1472658413763	1472658413875	e	69
55596	608121	I wasn't as prepared as I will be this year.	I wasn't as prepared as I will be this year.	28927070	1472658413851	1472658413946	 	32
55596	608121	I wasn't as prepared as I will be this year.	I wasn't as prepared as I will be this year.	28927087	1472658413940	1472658413994	t	84
55596	608121	I wasn't as prepared as I will be this year.	I wasn't as prepared as I will be this year.	28927090	1472658413971	1472658414066	h	72
55596	608121	I wasn't as prepared as I will be this year.	I wasn't as prepared as I will be this year.	28927092	1472658414035	1472658414162	i	73
55596	608121	I wasn't as prepared as I will be this year.	I wasn't as prepared as I will be this year.	28927094	1472658414131	1472658414226	s	83
55596	608121	I wasn't as prepared as I will be this year.	I wasn't as prepared as I will be this year.	28927101	1472658414211	1472658414331	 	32
55596	608121	I wasn't as prepared as I will be this year.	I wasn't as prepared as I will be this year.	28927106	1472658414451	1472658414531	y	89
55596	608121	I wasn't as prepared as I will be this year.	I wasn't as prepared as I will be this year.	28927122	1472658414547	1472658414667	e	69
55596	608121	I wasn't as prepared as I will be this year.	I wasn't as prepared as I will be this year.	28927124	1472658414596	1472658414779	a	65
55596	608121	I wasn't as prepared as I will be this year.	I wasn't as prepared as I will be this year.	28927126	1472658414707	1472658414819	r	82
55596	608121	I wasn't as prepared as I will be this year.	I wasn't as prepared as I will be this year.	28927129	1472658414827	1472658414931	.	190
55596	608131	I'll call you in the morning.	I'll call you in the morning	28927273	1472658417195	1472658417363	SHIFT	16
55596	608131	I'll call you in the morning.	I'll call you in the morning	28927276	1472658417299	1472658417370	I	73
55596	608131	I'll call you in the morning.	I'll call you in the morning	28927281	1472658417467	1472658417531	'	222
55596	608131	I'll call you in the morning.	I'll call you in the morning	28927282	1472658417619	1472658417691	l	76
55596	608131	I'll call you in the morning.	I'll call you in the morning	28927284	1472658417763	1472658417882	l	76
55596	608131	I'll call you in the morning.	I'll call you in the morning	28927335	1472658417867	1472658417963	 	32
55596	608131	I'll call you in the morning.	I'll call you in the morning	28927337	1472658418019	1472658418083	c	67
55596	608131	I'll call you in the morning.	I'll call you in the morning	28927340	1472658418123	1472658418194	a	65
55596	608131	I'll call you in the morning.	I'll call you in the morning	28927345	1472658418187	1472658418243	l	76
55596	608131	I'll call you in the morning.	I'll call you in the morning	28927348	1472658418459	1472658418587	 	32
55596	608131	I'll call you in the morning.	I'll call you in the morning	28927350	1472658418811	1472658418882	BKSP	8
55596	608131	I'll call you in the morning.	I'll call you in the morning	28927353	1472658419003	1472658419083	l	76
55596	608131	I'll call you in the morning.	I'll call you in the morning	28927356	1472658419091	1472658419202	 	32
55596	608131	I'll call you in the morning.	I'll call you in the morning	28927358	1472658419179	1472658419226	y	89
55596	608131	I'll call you in the morning.	I'll call you in the morning	28927361	1472658419235	1472658419354	o	79
55596	608131	I'll call you in the morning.	I'll call you in the morning	28927364	1472658419315	1472658419410	u	85
55596	608131	I'll call you in the morning.	I'll call you in the morning	28927368	1472658419379	1472658419490	 	32
55596	608131	I'll call you in the morning.	I'll call you in the morning	28927369	1472658419459	1472658419602	i	73
55596	608131	I'll call you in the morning.	I'll call you in the morning	28927370	1472658419555	1472658419634	n	78
55596	608131	I'll call you in the morning.	I'll call you in the morning	28927372	1472658419611	1472658419699	 	32
55596	608131	I'll call you in the morning.	I'll call you in the morning	28927376	1472658419707	1472658419778	t	84
55596	608131	I'll call you in the morning.	I'll call you in the morning	28927402	1472658419747	1472658419803	h	72
55596	608131	I'll call you in the morning.	I'll call you in the morning	28927406	1472658419851	1472658419923	e	69
55596	608131	I'll call you in the morning.	I'll call you in the morning	28927411	1472658419883	1472658419970	 	32
55596	608131	I'll call you in the morning.	I'll call you in the morning	28927414	1472658420051	1472658420162	m	77
55596	608131	I'll call you in the morning.	I'll call you in the morning	28927415	1472658420131	1472658420227	o	79
55596	608131	I'll call you in the morning.	I'll call you in the morning	28927416	1472658420227	1472658420307	r	82
55596	608131	I'll call you in the morning.	I'll call you in the morning	28927443	1472658420315	1472658420395	n	78
55596	608131	I'll call you in the morning.	I'll call you in the morning	28927445	1472658420435	1472658420555	i	73
55596	608131	I'll call you in the morning.	I'll call you in the morning	28927447	1472658420531	1472658420618	n	78
55596	608131	I'll call you in the morning.	I'll call you in the morning	28927449	1472658420635	1472658420715	g	71
55596	608141	We talked quietly while everybody gathered.	We talked quietly while everybody gathered.	28927623	1472658423610	1472658423882	SHIFT	16
55596	608141	We talked quietly while everybody gathered.	We talked quietly while everybody gathered.	28927627	1472658423795	1472658423890	W	87
55596	608141	We talked quietly while everybody gathered.	We talked quietly while everybody gathered.	28927633	1472658423907	1472658424018	e	69
55596	608141	We talked quietly while everybody gathered.	We talked quietly while everybody gathered.	28927637	1472658424099	1472658424202	 	32
55596	608141	We talked quietly while everybody gathered.	We talked quietly while everybody gathered.	28927641	1472658424211	1472658424298	t	84
55596	608141	We talked quietly while everybody gathered.	We talked quietly while everybody gathered.	28927642	1472658424323	1472658424402	a	65
55596	608141	We talked quietly while everybody gathered.	We talked quietly while everybody gathered.	28927666	1472658424379	1472658424490	l	76
55596	608141	We talked quietly while everybody gathered.	We talked quietly while everybody gathered.	28927668	1472658424459	1472658424578	k	75
55596	608141	We talked quietly while everybody gathered.	We talked quietly while everybody gathered.	28927671	1472658424563	1472658424642	e	69
55596	608141	We talked quietly while everybody gathered.	We talked quietly while everybody gathered.	28927674	1472658424723	1472658424802	d	68
55596	608141	We talked quietly while everybody gathered.	We talked quietly while everybody gathered.	28927677	1472658424810	1472658424922	 	32
55596	608141	We talked quietly while everybody gathered.	We talked quietly while everybody gathered.	28927679	1472658425091	1472658425162	q	81
55596	608141	We talked quietly while everybody gathered.	We talked quietly while everybody gathered.	28927736	1472658425171	1472658425258	u	85
55596	608141	We talked quietly while everybody gathered.	We talked quietly while everybody gathered.	28927739	1472658425235	1472658425338	i	73
55596	608141	We talked quietly while everybody gathered.	We talked quietly while everybody gathered.	28927741	1472658425387	1472658425490	t	84
55596	608141	We talked quietly while everybody gathered.	We talked quietly while everybody gathered.	28927743	1472658425515	1472658425594	e	69
55596	608141	We talked quietly while everybody gathered.	We talked quietly while everybody gathered.	28927746	1472658425867	1472658425914	BKSP	8
55596	608141	We talked quietly while everybody gathered.	We talked quietly while everybody gathered.	28927750	1472658425971	1472658426042	BKSP	8
55596	608141	We talked quietly while everybody gathered.	We talked quietly while everybody gathered.	28927753	1472658426051	1472658426194	e	69
55596	608141	We talked quietly while everybody gathered.	We talked quietly while everybody gathered.	28927787	1472658426155	1472658426242	t	84
55596	608141	We talked quietly while everybody gathered.	We talked quietly while everybody gathered.	28927791	1472658426291	1472658426418	l	76
55596	608141	We talked quietly while everybody gathered.	We talked quietly while everybody gathered.	28927796	1472658426427	1472658426538	y	89
55596	608141	We talked quietly while everybody gathered.	We talked quietly while everybody gathered.	28927802	1472658426547	1472658426634	 	32
55596	608141	We talked quietly while everybody gathered.	We talked quietly while everybody gathered.	28927807	1472658426811	1472658426906	w	87
55596	608141	We talked quietly while everybody gathered.	We talked quietly while everybody gathered.	28927873	1472658426883	1472658426970	h	72
55596	608141	We talked quietly while everybody gathered.	We talked quietly while everybody gathered.	28927875	1472658426955	1472658427018	i	73
55596	608141	We talked quietly while everybody gathered.	We talked quietly while everybody gathered.	28927878	1472658427147	1472658427210	BKSP	8
55596	608141	We talked quietly while everybody gathered.	We talked quietly while everybody gathered.	28927881	1472658427275	1472658427322	BKSP	8
55596	608141	We talked quietly while everybody gathered.	We talked quietly while everybody gathered.	28927884	1472658427787	1472658427890	h	72
55596	608141	We talked quietly while everybody gathered.	We talked quietly while everybody gathered.	28927887	1472658427851	1472658428010	i	73
55596	608141	We talked quietly while everybody gathered.	We talked quietly while everybody gathered.	28927890	1472658427979	1472658428098	l	76
55596	608141	We talked quietly while everybody gathered.	We talked quietly while everybody gathered.	28927894	1472658428106	1472658428210	e	69
55596	608141	We talked quietly while everybody gathered.	We talked quietly while everybody gathered.	28927907	1472658428219	1472658428306	 	32
55596	608141	We talked quietly while everybody gathered.	We talked quietly while everybody gathered.	28927912	1472658428411	1472658428498	e	69
55596	608141	We talked quietly while everybody gathered.	We talked quietly while everybody gathered.	28927914	1472658428555	1472658428602	v	86
55596	608141	We talked quietly while everybody gathered.	We talked quietly while everybody gathered.	28927917	1472658428667	1472658428763	e	69
55596	608141	We talked quietly while everybody gathered.	We talked quietly while everybody gathered.	28927954	1472658428723	1472658428810	r	82
55596	608141	We talked quietly while everybody gathered.	We talked quietly while everybody gathered.	28927956	1472658428795	1472658428890	y	89
55596	608141	We talked quietly while everybody gathered.	We talked quietly while everybody gathered.	28927958	1472658429043	1472658429090	b	66
55596	608141	We talked quietly while everybody gathered.	We talked quietly while everybody gathered.	28927960	1472658429323	1472658429394	o	79
55596	608141	We talked quietly while everybody gathered.	We talked quietly while everybody gathered.	28927961	1472658429435	1472658429546	d	68
55596	608141	We talked quietly while everybody gathered.	We talked quietly while everybody gathered.	28928041	1472658429539	1472658429610	a	65
55596	608141	We talked quietly while everybody gathered.	We talked quietly while everybody gathered.	28928044	1472658429595	1472658429698	y	89
55596	608141	We talked quietly while everybody gathered.	We talked quietly while everybody gathered.	28928049	1472658429715	1472658429842	 	32
55596	608141	We talked quietly while everybody gathered.	We talked quietly while everybody gathered.	28928051	1472658430147	1472658430202	BKSP	8
55596	608141	We talked quietly while everybody gathered.	We talked quietly while everybody gathered.	28928053	1472658430267	1472658430330	BKSP	8
55596	608141	We talked quietly while everybody gathered.	We talked quietly while everybody gathered.	28928056	1472658430395	1472658430442	BKSP	8
55596	608141	We talked quietly while everybody gathered.	We talked quietly while everybody gathered.	28928058	1472658430498	1472658430570	BKSP	8
55596	608141	We talked quietly while everybody gathered.	We talked quietly while everybody gathered.	28928061	1472658430675	1472658430730	BKSP	8
55596	608141	We talked quietly while everybody gathered.	We talked quietly while everybody gathered.	28928063	1472658431003	1472658431106	o	79
55596	608141	We talked quietly while everybody gathered.	We talked quietly while everybody gathered.	28928066	1472658431179	1472658431290	d	68
55596	608141	We talked quietly while everybody gathered.	We talked quietly while everybody gathered.	28928069	1472658431299	1472658431330	a	65
55596	608141	We talked quietly while everybody gathered.	We talked quietly while everybody gathered.	28928122	1472658431547	1472658431604	=	187
55596	608141	We talked quietly while everybody gathered.	We talked quietly while everybody gathered.	28928121	1472658431594	1472658431595	BKSP	8
55596	608141	We talked quietly while everybody gathered.	We talked quietly while everybody gathered.	28928123	1472658431939	1472658432074	BKSP	8
55596	608141	We talked quietly while everybody gathered.	We talked quietly while everybody gathered.	28928124	1472658432187	1472658432266	y	89
55596	608141	We talked quietly while everybody gathered.	We talked quietly while everybody gathered.	28928126	1472658432355	1472658432474	 	32
55596	608141	We talked quietly while everybody gathered.	We talked quietly while everybody gathered.	28928128	1472658432611	1472658432722	g	71
55596	608141	We talked quietly while everybody gathered.	We talked quietly while everybody gathered.	28928136	1472658432771	1472658432914	a	65
55596	608141	We talked quietly while everybody gathered.	We talked quietly while everybody gathered.	28928160	1472658432891	1472658432978	t	84
55596	608141	We talked quietly while everybody gathered.	We talked quietly while everybody gathered.	28928161	1472658432986	1472658433066	h	72
55596	608141	We talked quietly while everybody gathered.	We talked quietly while everybody gathered.	28928163	1472658433059	1472658433178	e	69
55596	608141	We talked quietly while everybody gathered.	We talked quietly while everybody gathered.	28928167	1472658433139	1472658433234	r	82
55596	608141	We talked quietly while everybody gathered.	We talked quietly while everybody gathered.	28928172	1472658433370	1472658433442	e	69
55596	608141	We talked quietly while everybody gathered.	We talked quietly while everybody gathered.	28928175	1472658433531	1472658433618	d	68
55596	608141	We talked quietly while everybody gathered.	We talked quietly while everybody gathered.	28928177	1472658433659	1472658433746	.	190
55596	608153	Thanks I needed that today!	Thanks I needed that today!	28928347	1472658436850	1472658437058	SHIFT	16
55596	608153	Thanks I needed that today!	Thanks I needed that today!	28928349	1472658437035	1472658437146	T	84
55596	608153	Thanks I needed that today!	Thanks I needed that today!	28928353	1472658437179	1472658437234	h	72
55596	608153	Thanks I needed that today!	Thanks I needed that today!	28928356	1472658437259	1472658437322	a	65
55596	608153	Thanks I needed that today!	Thanks I needed that today!	28928357	1472658437379	1472658437498	n	78
55596	608153	Thanks I needed that today!	Thanks I needed that today!	28928389	1472658437474	1472658437634	k	75
55596	608153	Thanks I needed that today!	Thanks I needed that today!	28928394	1472658437675	1472658437794	s	83
55596	608153	Thanks I needed that today!	Thanks I needed that today!	28928404	1472658437811	1472658437906	 	32
55596	608153	Thanks I needed that today!	Thanks I needed that today!	28928411	1472658437954	1472658438098	SHIFT	16
55596	608153	Thanks I needed that today!	Thanks I needed that today!	28928420	1472658438051	1472658438130	I	73
55596	608153	Thanks I needed that today!	Thanks I needed that today!	28928426	1472658438178	1472658438282	 	32
55596	608153	Thanks I needed that today!	Thanks I needed that today!	28928433	1472658438323	1472658438410	n	78
55596	608153	Thanks I needed that today!	Thanks I needed that today!	28928437	1472658438427	1472658438490	e	69
55596	608153	Thanks I needed that today!	Thanks I needed that today!	28928438	1472658438563	1472658438602	e	69
55596	608153	Thanks I needed that today!	Thanks I needed that today!	28928439	1472658438691	1472658438746	d	68
55596	608153	Thanks I needed that today!	Thanks I needed that today!	28928442	1472658438827	1472658438882	e	69
55596	608153	Thanks I needed that today!	Thanks I needed that today!	28928444	1472658438955	1472658439066	d	68
55596	608153	Thanks I needed that today!	Thanks I needed that today!	28928457	1472658439074	1472658439178	 	32
55596	608153	Thanks I needed that today!	Thanks I needed that today!	28928461	1472658439163	1472658439241	t	84
55596	608153	Thanks I needed that today!	Thanks I needed that today!	28928465	1472658439235	1472658439322	h	72
55596	608153	Thanks I needed that today!	Thanks I needed that today!	28928469	1472658439291	1472658439410	a	65
55596	608153	Thanks I needed that today!	Thanks I needed that today!	28928505	1472658439371	1472658439459	t	84
55596	608153	Thanks I needed that today!	Thanks I needed that today!	28928507	1472658439418	1472658439522	 	32
55596	608153	Thanks I needed that today!	Thanks I needed that today!	28928509	1472658439563	1472658439626	d	68
55596	608153	Thanks I needed that today!	Thanks I needed that today!	28928510	1472658439811	1472658439884	BKSP	8
55596	608153	Thanks I needed that today!	Thanks I needed that today!	28928511	1472658439882	1472658439946	t	84
55596	608153	Thanks I needed that today!	Thanks I needed that today!	28928512	1472658439979	1472658440066	o	79
55596	608153	Thanks I needed that today!	Thanks I needed that today!	28928513	1472658440107	1472658440202	d	68
55596	608153	Thanks I needed that today!	Thanks I needed that today!	28928537	1472658440195	1472658440266	a	65
55596	608153	Thanks I needed that today!	Thanks I needed that today!	28928541	1472658440275	1472658440362	y	89
55596	608153	Thanks I needed that today!	Thanks I needed that today!	28928545	1472658440411	1472658440474	 	32
55596	608153	Thanks I needed that today!	Thanks I needed that today!	28928550	1472658440715	1472658440802	BKSP	8
55596	608153	Thanks I needed that today!	Thanks I needed that today!	28928552	1472658440939	1472658441042	!	49
55596	608165	That ranks fifth for the week.	That ranks fifth for the week.	28928762	1472658444690	1472658444770	T	84
55596	608165	That ranks fifth for the week.	That ranks fifth for the week.	28928768	1472658444786	1472658444866	h	72
55596	608165	That ranks fifth for the week.	That ranks fifth for the week.	28928777	1472658444890	1472658445010	a	65
55596	608165	That ranks fifth for the week.	That ranks fifth for the week.	28928780	1472658444970	1472658445066	t	84
55596	608165	That ranks fifth for the week.	That ranks fifth for the week.	28928788	1472658445067	1472658445170	 	32
55596	608165	That ranks fifth for the week.	That ranks fifth for the week.	28928798	1472658445250	1472658445330	r	82
55596	608165	That ranks fifth for the week.	That ranks fifth for the week.	28928803	1472658445338	1472658445434	a	65
55596	608165	That ranks fifth for the week.	That ranks fifth for the week.	28928807	1472658445442	1472658445546	n	78
55596	608165	That ranks fifth for the week.	That ranks fifth for the week.	28928813	1472658445522	1472658445626	k	75
55596	608165	That ranks fifth for the week.	That ranks fifth for the week.	28928820	1472658445642	1472658445697	e	69
55596	608165	That ranks fifth for the week.	That ranks fifth for the week.	28928868	1472658445890	1472658445970	BKSP	8
55596	608165	That ranks fifth for the week.	That ranks fifth for the week.	28928872	1472658445986	1472658446082	s	83
55596	608165	That ranks fifth for the week.	That ranks fifth for the week.	28928875	1472658446091	1472658446186	 	32
55596	608165	That ranks fifth for the week.	That ranks fifth for the week.	28928876	1472658446338	1472658446450	f	70
55596	608165	That ranks fifth for the week.	That ranks fifth for the week.	28928879	1472658446458	1472658446554	i	73
55596	608165	That ranks fifth for the week.	That ranks fifth for the week.	28928882	1472658446658	1472658446746	f	70
55596	608165	That ranks fifth for the week.	That ranks fifth for the week.	28928909	1472658446834	1472658446906	t	84
55596	608165	That ranks fifth for the week.	That ranks fifth for the week.	28928914	1472658446946	1472658447058	h	72
55596	608165	That ranks fifth for the week.	That ranks fifth for the week.	28928920	1472658447066	1472658447186	 	32
55596	608165	That ranks fifth for the week.	That ranks fifth for the week.	28928927	1472658447234	1472658447321	f	70
55596	608165	That ranks fifth for the week.	That ranks fifth for the week.	28928946	1472658447306	1472658447370	o	79
55596	608165	That ranks fifth for the week.	That ranks fifth for the week.	28928956	1472658447410	1472658447474	r	82
55596	608165	That ranks fifth for the week.	That ranks fifth for the week.	28928966	1472658447466	1472658447546	 	32
55596	608165	That ranks fifth for the week.	That ranks fifth for the week.	28928976	1472658447554	1472658447642	t	84
55596	608165	That ranks fifth for the week.	That ranks fifth for the week.	28928987	1472658447586	1472658447665	h	72
55596	608165	That ranks fifth for the week.	That ranks fifth for the week.	28929012	1472658447658	1472658447770	e	69
55596	608165	That ranks fifth for the week.	That ranks fifth for the week.	28929014	1472658447706	1472658447825	 	32
55596	608165	That ranks fifth for the week.	That ranks fifth for the week.	28929018	1472658447874	1472658447977	w	87
55596	608165	That ranks fifth for the week.	That ranks fifth for the week.	28929022	1472658447954	1472658448050	e	69
55596	608165	That ranks fifth for the week.	That ranks fifth for the week.	28929029	1472658448306	1472658448394	e	69
55596	608165	That ranks fifth for the week.	That ranks fifth for the week.	28929037	1472658448466	1472658448554	k	75
55596	608165	That ranks fifth for the week.	That ranks fifth for the week.	28929050	1472658448674	1472658448770	.	190
55596	608172	Binoche welcomed the movie industry to the French riviera.	Binoche welcomed the movie industry to the French riviera.	28929487	1472658455729	1472658455930	SHIFT	16
55596	608172	Binoche welcomed the movie industry to the French riviera.	Binoche welcomed the movie industry to the French riviera.	28929490	1472658455882	1472658455977	B	66
55596	608172	Binoche welcomed the movie industry to the French riviera.	Binoche welcomed the movie industry to the French riviera.	28929495	1472658456050	1472658456201	i	73
55596	608172	Binoche welcomed the movie industry to the French riviera.	Binoche welcomed the movie industry to the French riviera.	28929501	1472658456138	1472658456265	n	78
55596	608172	Binoche welcomed the movie industry to the French riviera.	Binoche welcomed the movie industry to the French riviera.	28929505	1472658456354	1472658456457	o	79
55596	608172	Binoche welcomed the movie industry to the French riviera.	Binoche welcomed the movie industry to the French riviera.	28929511	1472658456506	1472658456609	c	67
55596	608172	Binoche welcomed the movie industry to the French riviera.	Binoche welcomed the movie industry to the French riviera.	28929541	1472658456978	1472658457065	h	72
55596	608172	Binoche welcomed the movie industry to the French riviera.	Binoche welcomed the movie industry to the French riviera.	28929542	1472658457130	1472658457225	e	69
55596	608172	Binoche welcomed the movie industry to the French riviera.	Binoche welcomed the movie industry to the French riviera.	28929547	1472658457250	1472658457361	 	32
55596	608172	Binoche welcomed the movie industry to the French riviera.	Binoche welcomed the movie industry to the French riviera.	28929551	1472658457442	1472658457553	w	87
55596	608172	Binoche welcomed the movie industry to the French riviera.	Binoche welcomed the movie industry to the French riviera.	28929592	1472658457522	1472658457625	e	69
55596	608172	Binoche welcomed the movie industry to the French riviera.	Binoche welcomed the movie industry to the French riviera.	28929598	1472658457658	1472658457761	l	76
55596	608172	Binoche welcomed the movie industry to the French riviera.	Binoche welcomed the movie industry to the French riviera.	28929604	1472658457810	1472658457883	c	67
55596	608172	Binoche welcomed the movie industry to the French riviera.	Binoche welcomed the movie industry to the French riviera.	28929610	1472658457921	1472658458049	o	79
55596	608172	Binoche welcomed the movie industry to the French riviera.	Binoche welcomed the movie industry to the French riviera.	28929613	1472658458002	1472658458114	m	77
55596	608172	Binoche welcomed the movie industry to the French riviera.	Binoche welcomed the movie industry to the French riviera.	28929629	1472658458090	1472658458193	e	69
55596	608172	Binoche welcomed the movie industry to the French riviera.	Binoche welcomed the movie industry to the French riviera.	28929637	1472658458354	1472658458441	d	68
55596	608172	Binoche welcomed the movie industry to the French riviera.	Binoche welcomed the movie industry to the French riviera.	28929642	1472658458490	1472658458593	 	32
55596	608172	Binoche welcomed the movie industry to the French riviera.	Binoche welcomed the movie industry to the French riviera.	28929648	1472658458586	1472658458657	t	84
55596	608172	Binoche welcomed the movie industry to the French riviera.	Binoche welcomed the movie industry to the French riviera.	28929654	1472658458650	1472658458737	h	72
55596	608172	Binoche welcomed the movie industry to the French riviera.	Binoche welcomed the movie industry to the French riviera.	28929686	1472658458698	1472658458801	e	69
55596	608172	Binoche welcomed the movie industry to the French riviera.	Binoche welcomed the movie industry to the French riviera.	28929689	1472658458794	1472658458889	 	32
55596	608172	Binoche welcomed the movie industry to the French riviera.	Binoche welcomed the movie industry to the French riviera.	28929694	1472658458938	1472658459041	m	77
55596	608172	Binoche welcomed the movie industry to the French riviera.	Binoche welcomed the movie industry to the French riviera.	28929700	1472658459010	1472658459113	o	79
55596	608172	Binoche welcomed the movie industry to the French riviera.	Binoche welcomed the movie industry to the French riviera.	28929707	1472658459258	1472658459345	v	86
55596	608172	Binoche welcomed the movie industry to the French riviera.	Binoche welcomed the movie industry to the French riviera.	28929711	1472658459378	1472658459449	i	73
55596	608172	Binoche welcomed the movie industry to the French riviera.	Binoche welcomed the movie industry to the French riviera.	28929734	1472658459458	1472658459537	e	69
55596	608172	Binoche welcomed the movie industry to the French riviera.	Binoche welcomed the movie industry to the French riviera.	28929737	1472658459594	1472658459697	 	32
55596	608172	Binoche welcomed the movie industry to the French riviera.	Binoche welcomed the movie industry to the French riviera.	28929739	1472658460226	1472658460377	i	73
55596	608172	Binoche welcomed the movie industry to the French riviera.	Binoche welcomed the movie industry to the French riviera.	28929742	1472658460282	1472658460425	n	78
55596	608172	Binoche welcomed the movie industry to the French riviera.	Binoche welcomed the movie industry to the French riviera.	28929769	1472658460418	1472658460521	d	68
55596	608172	Binoche welcomed the movie industry to the French riviera.	Binoche welcomed the movie industry to the French riviera.	28929771	1472658460554	1472658460641	u	85
55596	608172	Binoche welcomed the movie industry to the French riviera.	Binoche welcomed the movie industry to the French riviera.	28929772	1472658460674	1472658460817	s	83
55596	608172	Binoche welcomed the movie industry to the French riviera.	Binoche welcomed the movie industry to the French riviera.	28929773	1472658460787	1472658460865	t	84
55596	608172	Binoche welcomed the movie industry to the French riviera.	Binoche welcomed the movie industry to the French riviera.	28929774	1472658460945	1472658461025	r	82
55596	608172	Binoche welcomed the movie industry to the French riviera.	Binoche welcomed the movie industry to the French riviera.	28929775	1472658461034	1472658461145	y	89
55596	608172	Binoche welcomed the movie industry to the French riviera.	Binoche welcomed the movie industry to the French riviera.	28929794	1472658461138	1472658461233	 	32
55596	608172	Binoche welcomed the movie industry to the French riviera.	Binoche welcomed the movie industry to the French riviera.	28929798	1472658461250	1472658461321	t	84
55596	608172	Binoche welcomed the movie industry to the French riviera.	Binoche welcomed the movie industry to the French riviera.	28929802	1472658461306	1472658461401	o	79
55596	608172	Binoche welcomed the movie industry to the French riviera.	Binoche welcomed the movie industry to the French riviera.	28929806	1472658461394	1472658461489	 	32
55596	608172	Binoche welcomed the movie industry to the French riviera.	Binoche welcomed the movie industry to the French riviera.	28929811	1472658461433	1472658461505	t	84
55596	608172	Binoche welcomed the movie industry to the French riviera.	Binoche welcomed the movie industry to the French riviera.	28929818	1472658461515	1472658461613	h	72
55596	608172	Binoche welcomed the movie industry to the French riviera.	Binoche welcomed the movie industry to the French riviera.	28929854	1472658461561	1472658461641	e	69
55596	608172	Binoche welcomed the movie industry to the French riviera.	Binoche welcomed the movie industry to the French riviera.	28929858	1472658461666	1472658461761	 	32
55596	608172	Binoche welcomed the movie industry to the French riviera.	Binoche welcomed the movie industry to the French riviera.	28929861	1472658461873	1472658462033	SHIFT	16
55596	608172	Binoche welcomed the movie industry to the French riviera.	Binoche welcomed the movie industry to the French riviera.	28929863	1472658461978	1472658462057	F	70
55596	608172	Binoche welcomed the movie industry to the French riviera.	Binoche welcomed the movie industry to the French riviera.	28929865	1472658462154	1472658462235	r	82
55596	608172	Binoche welcomed the movie industry to the French riviera.	Binoche welcomed the movie industry to the French riviera.	28929869	1472658462234	1472658462321	e	69
55596	608172	Binoche welcomed the movie industry to the French riviera.	Binoche welcomed the movie industry to the French riviera.	28929871	1472658462362	1472658462449	n	78
55596	608172	Binoche welcomed the movie industry to the French riviera.	Binoche welcomed the movie industry to the French riviera.	28929896	1472658462523	1472658462593	c	67
55596	608172	Binoche welcomed the movie industry to the French riviera.	Binoche welcomed the movie industry to the French riviera.	28929900	1472658462602	1472658462713	h	72
55596	608172	Binoche welcomed the movie industry to the French riviera.	Binoche welcomed the movie industry to the French riviera.	28929902	1472658462690	1472658462785	 	32
55596	608172	Binoche welcomed the movie industry to the French riviera.	Binoche welcomed the movie industry to the French riviera.	28929904	1472658463034	1472658463089	r	82
55596	608172	Binoche welcomed the movie industry to the French riviera.	Binoche welcomed the movie industry to the French riviera.	28929906	1472658463130	1472658463209	i	73
55596	608172	Binoche welcomed the movie industry to the French riviera.	Binoche welcomed the movie industry to the French riviera.	28929940	1472658463266	1472658463329	v	86
55596	608172	Binoche welcomed the movie industry to the French riviera.	Binoche welcomed the movie industry to the French riviera.	28929944	1472658463354	1472658463457	i	73
55596	608172	Binoche welcomed the movie industry to the French riviera.	Binoche welcomed the movie industry to the French riviera.	28929951	1472658463602	1472658463745	e	69
55596	608172	Binoche welcomed the movie industry to the French riviera.	Binoche welcomed the movie industry to the French riviera.	28929957	1472658463706	1472658463801	r	82
55596	608172	Binoche welcomed the movie industry to the French riviera.	Binoche welcomed the movie industry to the French riviera.	28929963	1472658463930	1472658463961	s	83
55596	608172	Binoche welcomed the movie industry to the French riviera.	Binoche welcomed the movie industry to the French riviera.	28930021	1472658464050	1472658464105	a	65
55596	608172	Binoche welcomed the movie industry to the French riviera.	Binoche welcomed the movie industry to the French riviera.	28930025	1472658464305	1472658464361	BKSP	8
55596	608172	Binoche welcomed the movie industry to the French riviera.	Binoche welcomed the movie industry to the French riviera.	28930028	1472658464418	1472658464489	BKSP	8
55596	608172	Binoche welcomed the movie industry to the French riviera.	Binoche welcomed the movie industry to the French riviera.	28930029	1472658464474	1472658464553	a	65
55596	608172	Binoche welcomed the movie industry to the French riviera.	Binoche welcomed the movie industry to the French riviera.	28930030	1472658464722	1472658464801	.	190
55596	608190	The two leading candidates signed a Civility Pact on Tuesday.	The two leading candidates signed a Civility Pact on Tuesday.	28930385	1472658471361	1472658471833	SHIFT	16
55596	608190	The two leading candidates signed a Civility Pact on Tuesday.	The two leading candidates signed a Civility Pact on Tuesday.	28930387	1472658471778	1472658471873	T	84
55596	608190	The two leading candidates signed a Civility Pact on Tuesday.	The two leading candidates signed a Civility Pact on Tuesday.	28930390	1472658471945	1472658472017	h	72
55596	608190	The two leading candidates signed a Civility Pact on Tuesday.	The two leading candidates signed a Civility Pact on Tuesday.	28930397	1472658472033	1472658472121	e	69
55596	608190	The two leading candidates signed a Civility Pact on Tuesday.	The two leading candidates signed a Civility Pact on Tuesday.	28930404	1472658472114	1472658472241	 	32
55596	608190	The two leading candidates signed a Civility Pact on Tuesday.	The two leading candidates signed a Civility Pact on Tuesday.	28930410	1472658472289	1472658472393	t	84
55596	608190	The two leading candidates signed a Civility Pact on Tuesday.	The two leading candidates signed a Civility Pact on Tuesday.	28930419	1472658472395	1472658472505	w	87
55596	608190	The two leading candidates signed a Civility Pact on Tuesday.	The two leading candidates signed a Civility Pact on Tuesday.	28930421	1472658472490	1472658472617	o	79
55596	608190	The two leading candidates signed a Civility Pact on Tuesday.	The two leading candidates signed a Civility Pact on Tuesday.	28930425	1472658472602	1472658472737	 	32
55596	608190	The two leading candidates signed a Civility Pact on Tuesday.	The two leading candidates signed a Civility Pact on Tuesday.	28930428	1472658472770	1472658472889	l	76
55596	608190	The two leading candidates signed a Civility Pact on Tuesday.	The two leading candidates signed a Civility Pact on Tuesday.	28930438	1472658472858	1472658472955	e	69
55596	608190	The two leading candidates signed a Civility Pact on Tuesday.	The two leading candidates signed a Civility Pact on Tuesday.	28930442	1472658472954	1472658473072	a	65
55596	608190	The two leading candidates signed a Civility Pact on Tuesday.	The two leading candidates signed a Civility Pact on Tuesday.	28930445	1472658473058	1472658473137	d	68
55596	608190	The two leading candidates signed a Civility Pact on Tuesday.	The two leading candidates signed a Civility Pact on Tuesday.	28930447	1472658473145	1472658473273	i	73
55596	608190	The two leading candidates signed a Civility Pact on Tuesday.	The two leading candidates signed a Civility Pact on Tuesday.	28930449	1472658473218	1472658473321	n	78
55596	608190	The two leading candidates signed a Civility Pact on Tuesday.	The two leading candidates signed a Civility Pact on Tuesday.	28930462	1472658473290	1472658473369	g	71
55596	608190	The two leading candidates signed a Civility Pact on Tuesday.	The two leading candidates signed a Civility Pact on Tuesday.	28930465	1472658473370	1472658473473	 	32
55596	608190	The two leading candidates signed a Civility Pact on Tuesday.	The two leading candidates signed a Civility Pact on Tuesday.	28930468	1472658473538	1472658473617	c	67
55596	608190	The two leading candidates signed a Civility Pact on Tuesday.	The two leading candidates signed a Civility Pact on Tuesday.	28930471	1472658473673	1472658473761	a	65
55596	608190	The two leading candidates signed a Civility Pact on Tuesday.	The two leading candidates signed a Civility Pact on Tuesday.	28930474	1472658473762	1472658473873	n	78
55596	608190	The two leading candidates signed a Civility Pact on Tuesday.	The two leading candidates signed a Civility Pact on Tuesday.	28930478	1472658473905	1472658474009	d	68
55596	608190	The two leading candidates signed a Civility Pact on Tuesday.	The two leading candidates signed a Civility Pact on Tuesday.	28930503	1472658474074	1472658474169	i	73
55596	608190	The two leading candidates signed a Civility Pact on Tuesday.	The two leading candidates signed a Civility Pact on Tuesday.	28930505	1472658474402	1472658474513	d	68
55596	608190	The two leading candidates signed a Civility Pact on Tuesday.	The two leading candidates signed a Civility Pact on Tuesday.	28930508	1472658474593	1472658474721	a	65
55596	608190	The two leading candidates signed a Civility Pact on Tuesday.	The two leading candidates signed a Civility Pact on Tuesday.	28930512	1472658474706	1472658474817	t	84
55596	608190	The two leading candidates signed a Civility Pact on Tuesday.	The two leading candidates signed a Civility Pact on Tuesday.	28930516	1472658474841	1472658474961	e	69
55596	608190	The two leading candidates signed a Civility Pact on Tuesday.	The two leading candidates signed a Civility Pact on Tuesday.	28930535	1472658474969	1472658475057	s	83
55596	608190	The two leading candidates signed a Civility Pact on Tuesday.	The two leading candidates signed a Civility Pact on Tuesday.	28930538	1472658475049	1472658475129	 	32
55596	608190	The two leading candidates signed a Civility Pact on Tuesday.	The two leading candidates signed a Civility Pact on Tuesday.	28930542	1472658475241	1472658475331	s	83
55596	608190	The two leading candidates signed a Civility Pact on Tuesday.	The two leading candidates signed a Civility Pact on Tuesday.	28930546	1472658475329	1472658475417	i	73
55596	608190	The two leading candidates signed a Civility Pact on Tuesday.	The two leading candidates signed a Civility Pact on Tuesday.	28930549	1472658475561	1472658475641	g	71
55596	608190	The two leading candidates signed a Civility Pact on Tuesday.	The two leading candidates signed a Civility Pact on Tuesday.	28930562	1472658475673	1472658475793	n	78
55596	608190	The two leading candidates signed a Civility Pact on Tuesday.	The two leading candidates signed a Civility Pact on Tuesday.	28930563	1472658475881	1472658475937	e	69
55596	608190	The two leading candidates signed a Civility Pact on Tuesday.	The two leading candidates signed a Civility Pact on Tuesday.	28930564	1472658476025	1472658476081	d	68
55596	608190	The two leading candidates signed a Civility Pact on Tuesday.	The two leading candidates signed a Civility Pact on Tuesday.	28930565	1472658476097	1472658476193	 	32
55596	608190	The two leading candidates signed a Civility Pact on Tuesday.	The two leading candidates signed a Civility Pact on Tuesday.	28930627	1472658476185	1472658476257	a	65
55596	608190	The two leading candidates signed a Civility Pact on Tuesday.	The two leading candidates signed a Civility Pact on Tuesday.	28930631	1472658476281	1472658476369	 	32
55596	608190	The two leading candidates signed a Civility Pact on Tuesday.	The two leading candidates signed a Civility Pact on Tuesday.	28930636	1472658476665	1472658477017	SHIFT	16
55596	608190	The two leading candidates signed a Civility Pact on Tuesday.	The two leading candidates signed a Civility Pact on Tuesday.	28930633	1472658476889	1472658477009	C	67
55596	608190	The two leading candidates signed a Civility Pact on Tuesday.	The two leading candidates signed a Civility Pact on Tuesday.	28930641	1472658477097	1472658477185	i	73
55596	608190	The two leading candidates signed a Civility Pact on Tuesday.	The two leading candidates signed a Civility Pact on Tuesday.	28930643	1472658477241	1472658477312	v	86
55596	608190	The two leading candidates signed a Civility Pact on Tuesday.	The two leading candidates signed a Civility Pact on Tuesday.	28930666	1472658477305	1472658477401	i	73
55596	608190	The two leading candidates signed a Civility Pact on Tuesday.	The two leading candidates signed a Civility Pact on Tuesday.	28930668	1472658477513	1472658477680	l	76
55596	608190	The two leading candidates signed a Civility Pact on Tuesday.	The two leading candidates signed a Civility Pact on Tuesday.	28930672	1472658477665	1472658477745	i	73
55596	608190	The two leading candidates signed a Civility Pact on Tuesday.	The two leading candidates signed a Civility Pact on Tuesday.	28930676	1472658477825	1472658477913	t	84
55596	608190	The two leading candidates signed a Civility Pact on Tuesday.	The two leading candidates signed a Civility Pact on Tuesday.	28930679	1472658477937	1472658478009	y	89
55596	608190	The two leading candidates signed a Civility Pact on Tuesday.	The two leading candidates signed a Civility Pact on Tuesday.	28930682	1472658478049	1472658478145	 	32
55596	608190	The two leading candidates signed a Civility Pact on Tuesday.	The two leading candidates signed a Civility Pact on Tuesday.	28930717	1472658478609	1472658478800	SHIFT	16
55596	608190	The two leading candidates signed a Civility Pact on Tuesday.	The two leading candidates signed a Civility Pact on Tuesday.	28930714	1472658478713	1472658478793	P	80
55596	608190	The two leading candidates signed a Civility Pact on Tuesday.	The two leading candidates signed a Civility Pact on Tuesday.	28930721	1472658478881	1472658478970	a	65
55596	608190	The two leading candidates signed a Civility Pact on Tuesday.	The two leading candidates signed a Civility Pact on Tuesday.	28930727	1472658479042	1472658479097	c	67
55596	608190	The two leading candidates signed a Civility Pact on Tuesday.	The two leading candidates signed a Civility Pact on Tuesday.	28930732	1472658479217	1472658479264	t	84
55596	608190	The two leading candidates signed a Civility Pact on Tuesday.	The two leading candidates signed a Civility Pact on Tuesday.	28930775	1472658479249	1472658479347	 	32
55596	608190	The two leading candidates signed a Civility Pact on Tuesday.	The two leading candidates signed a Civility Pact on Tuesday.	28930778	1472658479345	1472658479488	o	79
55596	608190	The two leading candidates signed a Civility Pact on Tuesday.	The two leading candidates signed a Civility Pact on Tuesday.	28930781	1472658479433	1472658479544	n	78
55596	608190	The two leading candidates signed a Civility Pact on Tuesday.	The two leading candidates signed a Civility Pact on Tuesday.	28930784	1472658479521	1472658479633	 	32
55596	608190	The two leading candidates signed a Civility Pact on Tuesday.	The two leading candidates signed a Civility Pact on Tuesday.	28930787	1472658479649	1472658479873	SHIFT	16
55596	608190	The two leading candidates signed a Civility Pact on Tuesday.	The two leading candidates signed a Civility Pact on Tuesday.	28930789	1472658479817	1472658479920	T	84
55596	608190	The two leading candidates signed a Civility Pact on Tuesday.	The two leading candidates signed a Civility Pact on Tuesday.	28930791	1472658479961	1472658480041	u	85
55596	608190	The two leading candidates signed a Civility Pact on Tuesday.	The two leading candidates signed a Civility Pact on Tuesday.	28930821	1472658480089	1472658480208	e	69
55596	608190	The two leading candidates signed a Civility Pact on Tuesday.	The two leading candidates signed a Civility Pact on Tuesday.	28930825	1472658480177	1472658480281	s	83
55596	608190	The two leading candidates signed a Civility Pact on Tuesday.	The two leading candidates signed a Civility Pact on Tuesday.	28930829	1472658480385	1472658480489	d	68
55596	608190	The two leading candidates signed a Civility Pact on Tuesday.	The two leading candidates signed a Civility Pact on Tuesday.	28930831	1472658480505	1472658480577	a	65
55596	608190	The two leading candidates signed a Civility Pact on Tuesday.	The two leading candidates signed a Civility Pact on Tuesday.	28930836	1472658480585	1472658480665	y	89
55596	608190	The two leading candidates signed a Civility Pact on Tuesday.	The two leading candidates signed a Civility Pact on Tuesday.	28930850	1472658480753	1472658480833	.	190
55596	608209	Isn't that about the way it could happen?	Isn't that about the way it could happen?	28931048	1472658485441	1472658485600	SHIFT	16
55596	608209	Isn't that about the way it could happen?	Isn't that about the way it could happen?	28931050	1472658485553	1472658485672	I	73
55596	608209	Isn't that about the way it could happen?	Isn't that about the way it could happen?	28931051	1472658485681	1472658485776	s	83
55596	608209	Isn't that about the way it could happen?	Isn't that about the way it could happen?	28931052	1472658485785	1472658485856	n	78
55596	608209	Isn't that about the way it could happen?	Isn't that about the way it could happen?	28931054	1472658485913	1472658485992	'	222
55596	608209	Isn't that about the way it could happen?	Isn't that about the way it could happen?	28931057	1472658486001	1472658486073	t	84
55596	608209	Isn't that about the way it could happen?	Isn't that about the way it could happen?	28931067	1472658486081	1472658486176	 	32
55596	608209	Isn't that about the way it could happen?	Isn't that about the way it could happen?	28931072	1472658486185	1472658486248	t	84
55596	608209	Isn't that about the way it could happen?	Isn't that about the way it could happen?	28931076	1472658486241	1472658486337	h	72
55596	608209	Isn't that about the way it could happen?	Isn't that about the way it could happen?	28931080	1472658486361	1472658486496	a	65
55596	608209	Isn't that about the way it could happen?	Isn't that about the way it could happen?	28931125	1472658486465	1472658486536	t	84
55596	608209	Isn't that about the way it could happen?	Isn't that about the way it could happen?	28931128	1472658486545	1472658486680	 	32
55596	608209	Isn't that about the way it could happen?	Isn't that about the way it could happen?	28931132	1472658486689	1472658486848	a	65
55596	608209	Isn't that about the way it could happen?	Isn't that about the way it could happen?	28931136	1472658486817	1472658486872	b	79
55596	608209	Isn't that about the way it could happen?	Isn't that about the way it could happen?	28931139	1472658487121	1472658487168	BKSP	8
55596	608209	Isn't that about the way it could happen?	Isn't that about the way it could happen?	28931141	1472658487225	1472658487288	BKSP	8
55596	608209	Isn't that about the way it could happen?	Isn't that about the way it could happen?	28931143	1472658487305	1472658487392	b	66
55596	608209	Isn't that about the way it could happen?	Isn't that about the way it could happen?	28931150	1472658487385	1472658487504	o	79
55596	608209	Isn't that about the way it could happen?	Isn't that about the way it could happen?	28931151	1472658487457	1472658487568	u	85
55596	608209	Isn't that about the way it could happen?	Isn't that about the way it could happen?	28931154	1472658487585	1472658487648	t	84
55596	608209	Isn't that about the way it could happen?	Isn't that about the way it could happen?	28931159	1472658487689	1472658487768	 	32
55596	608209	Isn't that about the way it could happen?	Isn't that about the way it could happen?	28931164	1472658487777	1472658487840	t	84
55596	608209	Isn't that about the way it could happen?	Isn't that about the way it could happen?	28931191	1472658487825	1472658487888	h	72
55596	608209	Isn't that about the way it could happen?	Isn't that about the way it could happen?	28931198	1472658487897	1472658487984	e	69
55596	608209	Isn't that about the way it could happen?	Isn't that about the way it could happen?	28931205	1472658487969	1472658488048	 	32
55596	608209	Isn't that about the way it could happen?	Isn't that about the way it could happen?	28931210	1472658488089	1472658488200	w	87
55596	608209	Isn't that about the way it could happen?	Isn't that about the way it could happen?	28931216	1472658488185	1472658488339	a	65
55596	608209	Isn't that about the way it could happen?	Isn't that about the way it could happen?	28931251	1472658488257	1472658488344	y	89
55596	608209	Isn't that about the way it could happen?	Isn't that about the way it could happen?	28931256	1472658488313	1472658488425	 	32
55596	608209	Isn't that about the way it could happen?	Isn't that about the way it could happen?	28931260	1472658488473	1472658488576	i	73
55596	608209	Isn't that about the way it could happen?	Isn't that about the way it could happen?	28931262	1472658488594	1472658488673	t	84
55596	608209	Isn't that about the way it could happen?	Isn't that about the way it could happen?	28931264	1472658488681	1472658488784	 	32
55596	608209	Isn't that about the way it could happen?	Isn't that about the way it could happen?	28931266	1472658488865	1472658488960	c	67
55596	608209	Isn't that about the way it could happen?	Isn't that about the way it could happen?	28931280	1472658488921	1472658488992	o	79
55596	608209	Isn't that about the way it could happen?	Isn't that about the way it could happen?	28931282	1472658488945	1472658489104	u	85
55596	608209	Isn't that about the way it could happen?	Isn't that about the way it could happen?	28931285	1472658489073	1472658489184	l	76
55596	608209	Isn't that about the way it could happen?	Isn't that about the way it could happen?	28931288	1472658489209	1472658489280	d	68
55596	608209	Isn't that about the way it could happen?	Isn't that about the way it could happen?	28931292	1472658489273	1472658489392	 	32
55596	608209	Isn't that about the way it could happen?	Isn't that about the way it could happen?	28931296	1472658489466	1472658489536	h	72
55596	608209	Isn't that about the way it could happen?	Isn't that about the way it could happen?	28931300	1472658489553	1472658489616	a	65
55596	608209	Isn't that about the way it could happen?	Isn't that about the way it could happen?	28931307	1472658489657	1472658489712	p	80
55596	608209	Isn't that about the way it could happen?	Isn't that about the way it could happen?	28931308	1472658489777	1472658489848	p	80
55596	608209	Isn't that about the way it could happen?	Isn't that about the way it could happen?	28931311	1472658489889	1472658489944	e	69
55596	608209	Isn't that about the way it could happen?	Isn't that about the way it could happen?	28931318	1472658489953	1472658490048	n	78
55596	608209	Isn't that about the way it could happen?	Isn't that about the way it could happen?	28931324	1472658490088	1472658490424	SHIFT	16
55596	608209	Isn't that about the way it could happen?	Isn't that about the way it could happen?	28931325	1472658490193	1472658490328	?	191
55596	608220	Tricia needs to know if she needs to invoice them or not.	Tricia needs to know if she needs to invoice them or not.	28931571	1472658493960	1472658494152	SHIFT	16
55596	608220	Tricia needs to know if she needs to invoice them or not.	Tricia needs to know if she needs to invoice them or not.	28931574	1472658494097	1472658494184	T	84
55596	608220	Tricia needs to know if she needs to invoice them or not.	Tricia needs to know if she needs to invoice them or not.	28931577	1472658494257	1472658494352	r	82
55596	608220	Tricia needs to know if she needs to invoice them or not.	Tricia needs to know if she needs to invoice them or not.	28931580	1472658494385	1472658494488	i	73
55596	608220	Tricia needs to know if she needs to invoice them or not.	Tricia needs to know if she needs to invoice them or not.	28931583	1472658494537	1472658494624	c	67
55596	608220	Tricia needs to know if she needs to invoice them or not.	Tricia needs to know if she needs to invoice them or not.	28931588	1472658494632	1472658494728	i	73
55596	608220	Tricia needs to know if she needs to invoice them or not.	Tricia needs to know if she needs to invoice them or not.	28931615	1472658494793	1472658494840	a	65
55596	608220	Tricia needs to know if she needs to invoice them or not.	Tricia needs to know if she needs to invoice them or not.	28931618	1472658495041	1472658495144	 	32
55596	608220	Tricia needs to know if she needs to invoice them or not.	Tricia needs to know if she needs to invoice them or not.	28931623	1472658495225	1472658495288	n	78
55596	608220	Tricia needs to know if she needs to invoice them or not.	Tricia needs to know if she needs to invoice them or not.	28931627	1472658495321	1472658495376	e	69
55596	608220	Tricia needs to know if she needs to invoice them or not.	Tricia needs to know if she needs to invoice them or not.	28931632	1472658495457	1472658495504	e	69
55596	608220	Tricia needs to know if she needs to invoice them or not.	Tricia needs to know if she needs to invoice them or not.	28931640	1472658495593	1472658495672	d	68
55596	608220	Tricia needs to know if she needs to invoice them or not.	Tricia needs to know if she needs to invoice them or not.	28931645	1472658495649	1472658495744	s	83
55596	608220	Tricia needs to know if she needs to invoice them or not.	Tricia needs to know if she needs to invoice them or not.	28931648	1472658495737	1472658495832	 	32
55596	608220	Tricia needs to know if she needs to invoice them or not.	Tricia needs to know if she needs to invoice them or not.	28931650	1472658495857	1472658495920	t	84
55596	608220	Tricia needs to know if she needs to invoice them or not.	Tricia needs to know if she needs to invoice them or not.	28931655	1472658495897	1472658495992	o	79
55596	608220	Tricia needs to know if she needs to invoice them or not.	Tricia needs to know if she needs to invoice them or not.	28931660	1472658495977	1472658496080	 	32
55596	608220	Tricia needs to know if she needs to invoice them or not.	Tricia needs to know if she needs to invoice them or not.	28931666	1472658496105	1472658496216	k	75
55596	608220	Tricia needs to know if she needs to invoice them or not.	Tricia needs to know if she needs to invoice them or not.	28931674	1472658496193	1472658496304	n	78
55596	608220	Tricia needs to know if she needs to invoice them or not.	Tricia needs to know if she needs to invoice them or not.	28931679	1472658496257	1472658496360	o	79
55596	608220	Tricia needs to know if she needs to invoice them or not.	Tricia needs to know if she needs to invoice them or not.	28931703	1472658496345	1472658496440	w	87
55596	608220	Tricia needs to know if she needs to invoice them or not.	Tricia needs to know if she needs to invoice them or not.	28931707	1472658496433	1472658496528	 	32
55596	608220	Tricia needs to know if she needs to invoice them or not.	Tricia needs to know if she needs to invoice them or not.	28931711	1472658496553	1472658496664	i	73
55596	608220	Tricia needs to know if she needs to invoice them or not.	Tricia needs to know if she needs to invoice them or not.	28931713	1472658496681	1472658496744	f	70
55596	608220	Tricia needs to know if she needs to invoice them or not.	Tricia needs to know if she needs to invoice them or not.	28931718	1472658496737	1472658496832	 	32
55596	608220	Tricia needs to know if she needs to invoice them or not.	Tricia needs to know if she needs to invoice them or not.	28931723	1472658496865	1472658496984	s	83
55596	608220	Tricia needs to know if she needs to invoice them or not.	Tricia needs to know if she needs to invoice them or not.	28931735	1472658496952	1472658497048	h	72
55596	608220	Tricia needs to know if she needs to invoice them or not.	Tricia needs to know if she needs to invoice them or not.	28931736	1472658497065	1472658497136	e	69
55596	608220	Tricia needs to know if she needs to invoice them or not.	Tricia needs to know if she needs to invoice them or not.	28931738	1472658497137	1472658497216	 	32
55596	608220	Tricia needs to know if she needs to invoice them or not.	Tricia needs to know if she needs to invoice them or not.	28931739	1472658497273	1472658497360	n	78
55596	608220	Tricia needs to know if she needs to invoice them or not.	Tricia needs to know if she needs to invoice them or not.	28931741	1472658497353	1472658497408	e	69
55596	608220	Tricia needs to know if she needs to invoice them or not.	Tricia needs to know if she needs to invoice them or not.	28931742	1472658497496	1472658497544	e	69
55596	608220	Tricia needs to know if she needs to invoice them or not.	Tricia needs to know if she needs to invoice them or not.	28931751	1472658497625	1472658497736	d	68
55596	608220	Tricia needs to know if she needs to invoice them or not.	Tricia needs to know if she needs to invoice them or not.	28931752	1472658497697	1472658497808	s	83
55596	608220	Tricia needs to know if she needs to invoice them or not.	Tricia needs to know if she needs to invoice them or not.	28931753	1472658497809	1472658497912	 	32
55596	608220	Tricia needs to know if she needs to invoice them or not.	Tricia needs to know if she needs to invoice them or not.	28931754	1472658497921	1472658497992	t	84
55596	608220	Tricia needs to know if she needs to invoice them or not.	Tricia needs to know if she needs to invoice them or not.	28931784	1472658497985	1472658498104	o	79
55596	608220	Tricia needs to know if she needs to invoice them or not.	Tricia needs to know if she needs to invoice them or not.	28931785	1472658498057	1472658498161	 	32
55596	608220	Tricia needs to know if she needs to invoice them or not.	Tricia needs to know if she needs to invoice them or not.	28931786	1472658498201	1472658498368	i	73
55596	608220	Tricia needs to know if she needs to invoice them or not.	Tricia needs to know if she needs to invoice them or not.	28931787	1472658498314	1472658498424	n	78
55596	608220	Tricia needs to know if she needs to invoice them or not.	Tricia needs to know if she needs to invoice them or not.	28931788	1472658498505	1472658498592	v	86
55596	608220	Tricia needs to know if she needs to invoice them or not.	Tricia needs to know if she needs to invoice them or not.	28931789	1472658498601	1472658498752	o	79
55596	608220	Tricia needs to know if she needs to invoice them or not.	Tricia needs to know if she needs to invoice them or not.	28931812	1472658498713	1472658498840	i	73
55596	608220	Tricia needs to know if she needs to invoice them or not.	Tricia needs to know if she needs to invoice them or not.	28931816	1472658498897	1472658498960	c	67
55596	608220	Tricia needs to know if she needs to invoice them or not.	Tricia needs to know if she needs to invoice them or not.	28931817	1472658499081	1472658499144	e	69
55596	608220	Tricia needs to know if she needs to invoice them or not.	Tricia needs to know if she needs to invoice them or not.	28931819	1472658499170	1472658499264	 	32
55596	608220	Tricia needs to know if she needs to invoice them or not.	Tricia needs to know if she needs to invoice them or not.	28931822	1472658499272	1472658499328	t	84
55596	608220	Tricia needs to know if she needs to invoice them or not.	Tricia needs to know if she needs to invoice them or not.	28931845	1472658499304	1472658499376	h	72
55596	608220	Tricia needs to know if she needs to invoice them or not.	Tricia needs to know if she needs to invoice them or not.	28931851	1472658499409	1472658499488	e	69
55596	608220	Tricia needs to know if she needs to invoice them or not.	Tricia needs to know if she needs to invoice them or not.	28931856	1472658499489	1472658499592	m	77
55596	608220	Tricia needs to know if she needs to invoice them or not.	Tricia needs to know if she needs to invoice them or not.	28931859	1472658499577	1472658499680	 	32
55596	608220	Tricia needs to know if she needs to invoice them or not.	Tricia needs to know if she needs to invoice them or not.	28931862	1472658499673	1472658499768	o	79
55596	608220	Tricia needs to know if she needs to invoice them or not.	Tricia needs to know if she needs to invoice them or not.	28931866	1472658499793	1472658499864	r	82
55596	608220	Tricia needs to know if she needs to invoice them or not.	Tricia needs to know if she needs to invoice them or not.	28931886	1472658499866	1472658499952	 	32
55596	608220	Tricia needs to know if she needs to invoice them or not.	Tricia needs to know if she needs to invoice them or not.	28931891	1472658499977	1472658500072	n	78
55596	608220	Tricia needs to know if she needs to invoice them or not.	Tricia needs to know if she needs to invoice them or not.	28931894	1472658500033	1472658500144	o	79
55596	608220	Tricia needs to know if she needs to invoice them or not.	Tricia needs to know if she needs to invoice them or not.	28931898	1472658500145	1472658500216	w	87
55596	608220	Tricia needs to know if she needs to invoice them or not.	Tricia needs to know if she needs to invoice them or not.	28931901	1472658500409	1472658500472	BKSP	8
55596	608220	Tricia needs to know if she needs to invoice them or not.	Tricia needs to know if she needs to invoice them or not.	28931904	1472658500488	1472658500552	t	84
55596	608220	Tricia needs to know if she needs to invoice them or not.	Tricia needs to know if she needs to invoice them or not.	28931907	1472658500656	1472658500744	.	190
55596	608228	Theresa, I changed the CIG fuel rate to.	Theresa, I changed the CIG fuel rate to.	28932113	1472658505072	1472658505256	SHIFT	16
55596	608228	Theresa, I changed the CIG fuel rate to.	Theresa, I changed the CIG fuel rate to.	28932116	1472658505216	1472658505330	T	84
55596	608228	Theresa, I changed the CIG fuel rate to.	Theresa, I changed the CIG fuel rate to.	28932118	1472658505328	1472658505408	h	72
55596	608228	Theresa, I changed the CIG fuel rate to.	Theresa, I changed the CIG fuel rate to.	28932121	1472658505424	1472658505544	e	69
55596	608228	Theresa, I changed the CIG fuel rate to.	Theresa, I changed the CIG fuel rate to.	28932125	1472658505521	1472658505632	r	82
55596	608228	Theresa, I changed the CIG fuel rate to.	Theresa, I changed the CIG fuel rate to.	28932176	1472658505624	1472658505728	e	69
55596	608228	Theresa, I changed the CIG fuel rate to.	Theresa, I changed the CIG fuel rate to.	28932179	1472658505936	1472658506056	s	83
55596	608228	Theresa, I changed the CIG fuel rate to.	Theresa, I changed the CIG fuel rate to.	28932182	1472658506088	1472658506168	a	65
55596	608228	Theresa, I changed the CIG fuel rate to.	Theresa, I changed the CIG fuel rate to.	28932185	1472658506296	1472658506400	,	188
55596	608228	Theresa, I changed the CIG fuel rate to.	Theresa, I changed the CIG fuel rate to.	28932190	1472658506424	1472658506536	 	32
55596	608228	Theresa, I changed the CIG fuel rate to.	Theresa, I changed the CIG fuel rate to.	28932194	1472658506528	1472658506680	SHIFT	16
55596	608228	Theresa, I changed the CIG fuel rate to.	Theresa, I changed the CIG fuel rate to.	28932207	1472658506624	1472658506696	I	73
55596	608228	Theresa, I changed the CIG fuel rate to.	Theresa, I changed the CIG fuel rate to.	28932210	1472658506736	1472658506832	 	32
55596	608228	Theresa, I changed the CIG fuel rate to.	Theresa, I changed the CIG fuel rate to.	28932214	1472658506880	1472658506967	c	67
55596	608228	Theresa, I changed the CIG fuel rate to.	Theresa, I changed the CIG fuel rate to.	28932218	1472658506944	1472658507016	h	72
55596	608228	Theresa, I changed the CIG fuel rate to.	Theresa, I changed the CIG fuel rate to.	28932225	1472658507072	1472658507159	a	65
55596	608228	Theresa, I changed the CIG fuel rate to.	Theresa, I changed the CIG fuel rate to.	28932255	1472658507128	1472658507232	n	78
55596	608228	Theresa, I changed the CIG fuel rate to.	Theresa, I changed the CIG fuel rate to.	28932258	1472658507312	1472658507376	g	71
55596	608228	Theresa, I changed the CIG fuel rate to.	Theresa, I changed the CIG fuel rate to.	28932263	1472658507432	1472658507496	e	69
55596	608228	Theresa, I changed the CIG fuel rate to.	Theresa, I changed the CIG fuel rate to.	28932268	1472658507584	1472658507640	d	68
55596	608228	Theresa, I changed the CIG fuel rate to.	Theresa, I changed the CIG fuel rate to.	28932272	1472658507649	1472658507743	 	32
55596	608228	Theresa, I changed the CIG fuel rate to.	Theresa, I changed the CIG fuel rate to.	28932288	1472658507736	1472658507802	t	84
55596	608228	Theresa, I changed the CIG fuel rate to.	Theresa, I changed the CIG fuel rate to.	28932291	1472658507800	1472658507879	h	72
55596	608228	Theresa, I changed the CIG fuel rate to.	Theresa, I changed the CIG fuel rate to.	28932297	1472658507864	1472658507975	e	69
55596	608228	Theresa, I changed the CIG fuel rate to.	Theresa, I changed the CIG fuel rate to.	28932303	1472658507928	1472658508031	 	32
55596	608228	Theresa, I changed the CIG fuel rate to.	Theresa, I changed the CIG fuel rate to.	28932353	1472658508080	1472658508727	SHIFT	16
55596	608228	Theresa, I changed the CIG fuel rate to.	Theresa, I changed the CIG fuel rate to.	28932308	1472658508273	1472658508367	C	67
55596	608228	Theresa, I changed the CIG fuel rate to.	Theresa, I changed the CIG fuel rate to.	28932347	1472658508336	1472658508448	I	73
55596	608228	Theresa, I changed the CIG fuel rate to.	Theresa, I changed the CIG fuel rate to.	28932350	1472658508576	1472658508656	G	71
55596	608228	Theresa, I changed the CIG fuel rate to.	Theresa, I changed the CIG fuel rate to.	28932356	1472658508720	1472658508832	 	32
55596	608228	Theresa, I changed the CIG fuel rate to.	Theresa, I changed the CIG fuel rate to.	28932360	1472658509056	1472658509119	f	70
55596	608228	Theresa, I changed the CIG fuel rate to.	Theresa, I changed the CIG fuel rate to.	28932364	1472658509168	1472658509191	u	85
55596	608228	Theresa, I changed the CIG fuel rate to.	Theresa, I changed the CIG fuel rate to.	28932370	1472658509272	1472658509360	e	69
55596	608228	Theresa, I changed the CIG fuel rate to.	Theresa, I changed the CIG fuel rate to.	28932400	1472658509592	1472658509648	BKSP	8
55596	608228	Theresa, I changed the CIG fuel rate to.	Theresa, I changed the CIG fuel rate to.	28932403	1472658509864	1472658509952	e	69
55596	608228	Theresa, I changed the CIG fuel rate to.	Theresa, I changed the CIG fuel rate to.	28932407	1472658509968	1472658510064	l	76
55596	608228	Theresa, I changed the CIG fuel rate to.	Theresa, I changed the CIG fuel rate to.	28932413	1472658510112	1472658510216	 	32
55596	608228	Theresa, I changed the CIG fuel rate to.	Theresa, I changed the CIG fuel rate to.	28932419	1472658510280	1472658510336	r	82
55596	608228	Theresa, I changed the CIG fuel rate to.	Theresa, I changed the CIG fuel rate to.	28932424	1472658510360	1472658510487	a	65
55596	608228	Theresa, I changed the CIG fuel rate to.	Theresa, I changed the CIG fuel rate to.	28932454	1472658510464	1472658510576	t	84
55596	608228	Theresa, I changed the CIG fuel rate to.	Theresa, I changed the CIG fuel rate to.	28932459	1472658510560	1472658510648	e	69
55596	608228	Theresa, I changed the CIG fuel rate to.	Theresa, I changed the CIG fuel rate to.	28932464	1472658510688	1472658510760	.	190
55596	608228	Theresa, I changed the CIG fuel rate to.	Theresa, I changed the CIG fuel rate to.	28932469	1472658511112	1472658511184	BKSP	8
55596	608228	Theresa, I changed the CIG fuel rate to.	Theresa, I changed the CIG fuel rate to.	28932474	1472658511273	1472658511375	 	32
55596	608228	Theresa, I changed the CIG fuel rate to.	Theresa, I changed the CIG fuel rate to.	28932477	1472658511368	1472658511439	t	84
55596	608228	Theresa, I changed the CIG fuel rate to.	Theresa, I changed the CIG fuel rate to.	28932489	1472658511432	1472658511504	o	79
55596	608228	Theresa, I changed the CIG fuel rate to.	Theresa, I changed the CIG fuel rate to.	28932492	1472658511704	1472658511776	.	190
