PARTICIPANT_ID	TEST_SECTION_ID	SENTENCE	USER_INPUT	KEYSTROKE_ID	PRESS_TIME	RELEASE_TIME	LETTER	KEYCODE
57243	626089	The first Vietnamese trainee pilots were due to arrive in June.	The first Vietnamese trainee pilots were due to arrive in June.	29779683	1472670002328	1472670002550	SHIFT	16
57243	626089	The first Vietnamese trainee pilots were due to arrive in June.	The first Vietnamese trainee pilots were due to arrive in June.	29779688	1472670002471	1472670002590	T	84
57243	626089	The first Vietnamese trainee pilots were due to arrive in June.	The first Vietnamese trainee pilots were due to arrive in June.	29779693	1472670002662	1472670002791	h	72
57243	626089	The first Vietnamese trainee pilots were due to arrive in June.	The first Vietnamese trainee pilots were due to arrive in June.	29779700	1472670002758	1472670002865	e	69
57243	626089	The first Vietnamese trainee pilots were due to arrive in June.	The first Vietnamese trainee pilots were due to arrive in June.	29779706	1472670002822	1472670002934	 	32
57243	626089	The first Vietnamese trainee pilots were due to arrive in June.	The first Vietnamese trainee pilots were due to arrive in June.	29779711	1472670002974	1472670003030	f	70
57243	626089	The first Vietnamese trainee pilots were due to arrive in June.	The first Vietnamese trainee pilots were due to arrive in June.	29779735	1472670003198	1472670003374	i	73
57243	626089	The first Vietnamese trainee pilots were due to arrive in June.	The first Vietnamese trainee pilots were due to arrive in June.	29779738	1472670003326	1472670003430	r	82
57243	626089	The first Vietnamese trainee pilots were due to arrive in June.	The first Vietnamese trainee pilots were due to arrive in June.	29779741	1472670003446	1472670003590	s	83
57243	626089	The first Vietnamese trainee pilots were due to arrive in June.	The first Vietnamese trainee pilots were due to arrive in June.	29779743	1472670003622	1472670003782	t	84
57243	626089	The first Vietnamese trainee pilots were due to arrive in June.	The first Vietnamese trainee pilots were due to arrive in June.	29779808	1472670003734	1472670003854	 	32
57243	626089	The first Vietnamese trainee pilots were due to arrive in June.	The first Vietnamese trainee pilots were due to arrive in June.	29779811	1472670004326	1472670004502	SHIFT	16
57243	626089	The first Vietnamese trainee pilots were due to arrive in June.	The first Vietnamese trainee pilots were due to arrive in June.	29779813	1472670004414	1472670004526	V	86
57243	626089	The first Vietnamese trainee pilots were due to arrive in June.	The first Vietnamese trainee pilots were due to arrive in June.	29779815	1472670004558	1472670004693	i	73
57243	626089	The first Vietnamese trainee pilots were due to arrive in June.	The first Vietnamese trainee pilots were due to arrive in June.	29779817	1472670004646	1472670004742	e	69
57243	626089	The first Vietnamese trainee pilots were due to arrive in June.	The first Vietnamese trainee pilots were due to arrive in June.	29779821	1472670004830	1472670004950	t	84
57243	626089	The first Vietnamese trainee pilots were due to arrive in June.	The first Vietnamese trainee pilots were due to arrive in June.	29779825	1472670005190	1472670005333	n	78
57243	626089	The first Vietnamese trainee pilots were due to arrive in June.	The first Vietnamese trainee pilots were due to arrive in June.	29779842	1472670005310	1472670005422	a	65
57243	626089	The first Vietnamese trainee pilots were due to arrive in June.	The first Vietnamese trainee pilots were due to arrive in June.	29779845	1472670005430	1472670005561	m	77
57243	626089	The first Vietnamese trainee pilots were due to arrive in June.	The first Vietnamese trainee pilots were due to arrive in June.	29779847	1472670005534	1472670005646	e	69
57243	626089	The first Vietnamese trainee pilots were due to arrive in June.	The first Vietnamese trainee pilots were due to arrive in June.	29779852	1472670005654	1472670005814	s	83
57243	626089	The first Vietnamese trainee pilots were due to arrive in June.	The first Vietnamese trainee pilots were due to arrive in June.	29779856	1472670005886	1472670006078	e	69
57243	626089	The first Vietnamese trainee pilots were due to arrive in June.	The first Vietnamese trainee pilots were due to arrive in June.	29779946	1472670006038	1472670006182	 	32
57243	626089	The first Vietnamese trainee pilots were due to arrive in June.	The first Vietnamese trainee pilots were due to arrive in June.	29779948	1472670006375	1472670006502	t	84
57243	626089	The first Vietnamese trainee pilots were due to arrive in June.	The first Vietnamese trainee pilots were due to arrive in June.	29779951	1472670006567	1472670006669	r	82
57243	626089	The first Vietnamese trainee pilots were due to arrive in June.	The first Vietnamese trainee pilots were due to arrive in June.	29779957	1472670006694	1472670006862	a	65
57243	626089	The first Vietnamese trainee pilots were due to arrive in June.	The first Vietnamese trainee pilots were due to arrive in June.	29779962	1472670007142	1472670007253	n	78
57243	626089	The first Vietnamese trainee pilots were due to arrive in June.	The first Vietnamese trainee pilots were due to arrive in June.	29779967	1472670007534	1472670007653	BKSP	8
57243	626089	The first Vietnamese trainee pilots were due to arrive in June.	The first Vietnamese trainee pilots were due to arrive in June.	29779971	1472670007694	1472670007797	i	73
57243	626089	The first Vietnamese trainee pilots were due to arrive in June.	The first Vietnamese trainee pilots were due to arrive in June.	29779990	1472670007878	1472670008005	n	78
57243	626089	The first Vietnamese trainee pilots were due to arrive in June.	The first Vietnamese trainee pilots were due to arrive in June.	29779992	1472670007958	1472670008038	e	69
57243	626089	The first Vietnamese trainee pilots were due to arrive in June.	The first Vietnamese trainee pilots were due to arrive in June.	29779998	1472670008110	1472670008181	e	69
57243	626089	The first Vietnamese trainee pilots were due to arrive in June.	The first Vietnamese trainee pilots were due to arrive in June.	29780004	1472670008366	1472670008485	 	32
57243	626089	The first Vietnamese trainee pilots were due to arrive in June.	The first Vietnamese trainee pilots were due to arrive in June.	29780009	1472670008534	1472670008629	p	80
57243	626089	The first Vietnamese trainee pilots were due to arrive in June.	The first Vietnamese trainee pilots were due to arrive in June.	29780029	1472670008718	1472670008814	i	73
57243	626089	The first Vietnamese trainee pilots were due to arrive in June.	The first Vietnamese trainee pilots were due to arrive in June.	29780030	1472670008918	1472670009006	l	76
57243	626089	The first Vietnamese trainee pilots were due to arrive in June.	The first Vietnamese trainee pilots were due to arrive in June.	29780031	1472670009070	1472670009222	o	79
57243	626089	The first Vietnamese trainee pilots were due to arrive in June.	The first Vietnamese trainee pilots were due to arrive in June.	29780032	1472670009142	1472670009246	t	84
57243	626089	The first Vietnamese trainee pilots were due to arrive in June.	The first Vietnamese trainee pilots were due to arrive in June.	29780034	1472670009358	1472670009485	s	83
57243	626089	The first Vietnamese trainee pilots were due to arrive in June.	The first Vietnamese trainee pilots were due to arrive in June.	29780078	1472670009446	1472670009541	 	32
57243	626089	The first Vietnamese trainee pilots were due to arrive in June.	The first Vietnamese trainee pilots were due to arrive in June.	29780081	1472670009646	1472670009749	w	87
57243	626089	The first Vietnamese trainee pilots were due to arrive in June.	The first Vietnamese trainee pilots were due to arrive in June.	29780085	1472670009830	1472670009966	e	69
57243	626089	The first Vietnamese trainee pilots were due to arrive in June.	The first Vietnamese trainee pilots were due to arrive in June.	29780089	1472670010086	1472670010181	r	82
57243	626089	The first Vietnamese trainee pilots were due to arrive in June.	The first Vietnamese trainee pilots were due to arrive in June.	29780092	1472670010278	1472670010390	e	69
57243	626089	The first Vietnamese trainee pilots were due to arrive in June.	The first Vietnamese trainee pilots were due to arrive in June.	29780123	1472670010366	1472670010454	 	32
57243	626089	The first Vietnamese trainee pilots were due to arrive in June.	The first Vietnamese trainee pilots were due to arrive in June.	29780126	1472670010502	1472670010629	t	84
57243	626089	The first Vietnamese trainee pilots were due to arrive in June.	The first Vietnamese trainee pilots were due to arrive in June.	29780128	1472670010606	1472670010741	o	79
57243	626089	The first Vietnamese trainee pilots were due to arrive in June.	The first Vietnamese trainee pilots were due to arrive in June.	29780130	1472670010918	1472670011005	BKSP	8
57243	626089	The first Vietnamese trainee pilots were due to arrive in June.	The first Vietnamese trainee pilots were due to arrive in June.	29780132	1472670011110	1472670011237	BKSP	8
57243	626089	The first Vietnamese trainee pilots were due to arrive in June.	The first Vietnamese trainee pilots were due to arrive in June.	29780133	1472670011270	1472670011358	d	68
57243	626089	The first Vietnamese trainee pilots were due to arrive in June.	The first Vietnamese trainee pilots were due to arrive in June.	29780134	1472670011366	1472670011503	u	85
57243	626089	The first Vietnamese trainee pilots were due to arrive in June.	The first Vietnamese trainee pilots were due to arrive in June.	29780147	1472670011470	1472670011566	e	69
57243	626089	The first Vietnamese trainee pilots were due to arrive in June.	The first Vietnamese trainee pilots were due to arrive in June.	29780148	1472670011670	1472670011773	 	32
57243	626089	The first Vietnamese trainee pilots were due to arrive in June.	The first Vietnamese trainee pilots were due to arrive in June.	29780150	1472670011790	1472670011893	t	84
57243	626089	The first Vietnamese trainee pilots were due to arrive in June.	The first Vietnamese trainee pilots were due to arrive in June.	29780154	1472670011862	1472670012021	o	79
57243	626089	The first Vietnamese trainee pilots were due to arrive in June.	The first Vietnamese trainee pilots were due to arrive in June.	29780160	1472670012006	1472670012109	 	32
57243	626089	The first Vietnamese trainee pilots were due to arrive in June.	The first Vietnamese trainee pilots were due to arrive in June.	29780166	1472670012486	1472670012629	a	65
57243	626089	The first Vietnamese trainee pilots were due to arrive in June.	The first Vietnamese trainee pilots were due to arrive in June.	29780211	1472670012902	1472670012989	r	82
57243	626089	The first Vietnamese trainee pilots were due to arrive in June.	The first Vietnamese trainee pilots were due to arrive in June.	29780213	1472670013070	1472670013149	r	82
57243	626089	The first Vietnamese trainee pilots were due to arrive in June.	The first Vietnamese trainee pilots were due to arrive in June.	29780216	1472670013174	1472670013317	i	73
57243	626089	The first Vietnamese trainee pilots were due to arrive in June.	The first Vietnamese trainee pilots were due to arrive in June.	29780218	1472670013278	1472670013333	v	86
57243	626089	The first Vietnamese trainee pilots were due to arrive in June.	The first Vietnamese trainee pilots were due to arrive in June.	29780220	1472670013454	1472670013549	e	69
57243	626089	The first Vietnamese trainee pilots were due to arrive in June.	The first Vietnamese trainee pilots were due to arrive in June.	29780265	1472670013526	1472670013637	 	32
57243	626089	The first Vietnamese trainee pilots were due to arrive in June.	The first Vietnamese trainee pilots were due to arrive in June.	29780267	1472670013654	1472670013733	i	73
57243	626089	The first Vietnamese trainee pilots were due to arrive in June.	The first Vietnamese trainee pilots were due to arrive in June.	29780271	1472670013814	1472670013949	n	78
57243	626089	The first Vietnamese trainee pilots were due to arrive in June.	The first Vietnamese trainee pilots were due to arrive in June.	29780273	1472670013942	1472670014045	 	32
57243	626089	The first Vietnamese trainee pilots were due to arrive in June.	The first Vietnamese trainee pilots were due to arrive in June.	29780279	1472670014254	1472670014454	SHIFT	16
57243	626089	The first Vietnamese trainee pilots were due to arrive in June.	The first Vietnamese trainee pilots were due to arrive in June.	29780284	1472670014358	1472670014461	J	74
57243	626089	The first Vietnamese trainee pilots were due to arrive in June.	The first Vietnamese trainee pilots were due to arrive in June.	29780289	1472670014566	1472670014661	u	85
57243	626089	The first Vietnamese trainee pilots were due to arrive in June.	The first Vietnamese trainee pilots were due to arrive in June.	29780347	1472670014942	1472670014989	e	69
57243	626089	The first Vietnamese trainee pilots were due to arrive in June.	The first Vietnamese trainee pilots were due to arrive in June.	29780350	1472670015118	1472670015205	BKSP	8
57243	626089	The first Vietnamese trainee pilots were due to arrive in June.	The first Vietnamese trainee pilots were due to arrive in June.	29780354	1472670015390	1472670015461	n	78
57243	626089	The first Vietnamese trainee pilots were due to arrive in June.	The first Vietnamese trainee pilots were due to arrive in June.	29780357	1472670015446	1472670015565	e	69
57243	626089	The first Vietnamese trainee pilots were due to arrive in June.	The first Vietnamese trainee pilots were due to arrive in June.	29780360	1472670015718	1472670015845	.	190
57243	626104	His party also has its sights on the posts of justice minister.	His party also has its sights on the posts of justice minister.	29780488	1472670017782	1472670018149	SHIFT	16
57243	626104	His party also has its sights on the posts of justice minister.	His party also has its sights on the posts of justice minister.	29780493	1472670018102	1472670018197	H	72
57243	626104	His party also has its sights on the posts of justice minister.	His party also has its sights on the posts of justice minister.	29780497	1472670018254	1472670018381	i	73
57243	626104	His party also has its sights on the posts of justice minister.	His party also has its sights on the posts of justice minister.	29780501	1472670018350	1472670018477	s	83
57243	626104	His party also has its sights on the posts of justice minister.	His party also has its sights on the posts of justice minister.	29780508	1472670018406	1472670018544	 	32
57243	626104	His party also has its sights on the posts of justice minister.	His party also has its sights on the posts of justice minister.	29780545	1472670018542	1472670018669	p	80
57243	626104	His party also has its sights on the posts of justice minister.	His party also has its sights on the posts of justice minister.	29780546	1472670018646	1472670018709	a	65
57243	626104	His party also has its sights on the posts of justice minister.	His party also has its sights on the posts of justice minister.	29780547	1472670018774	1472670018885	r	82
57243	626104	His party also has its sights on the posts of justice minister.	His party also has its sights on the posts of justice minister.	29780549	1472670018998	1472670019165	y	89
57243	626104	His party also has its sights on the posts of justice minister.	His party also has its sights on the posts of justice minister.	29780551	1472670019118	1472670019325	 	32
57243	626104	His party also has its sights on the posts of justice minister.	His party also has its sights on the posts of justice minister.	29780554	1472670019422	1472670019509	BKSP	8
57243	626104	His party also has its sights on the posts of justice minister.	His party also has its sights on the posts of justice minister.	29780558	1472670019581	1472670019725	BKSP	8
57243	626104	His party also has its sights on the posts of justice minister.	His party also has its sights on the posts of justice minister.	29780578	1472670019670	1472670019765	t	84
57243	626104	His party also has its sights on the posts of justice minister.	His party also has its sights on the posts of justice minister.	29780579	1472670019822	1472670019965	y	89
57243	626104	His party also has its sights on the posts of justice minister.	His party also has its sights on the posts of justice minister.	29780580	1472670019926	1472670020045	 	32
57243	626104	His party also has its sights on the posts of justice minister.	His party also has its sights on the posts of justice minister.	29780581	1472670020118	1472670020261	a	65
57243	626104	His party also has its sights on the posts of justice minister.	His party also has its sights on the posts of justice minister.	29780582	1472670020238	1472670020381	l	76
57243	626104	His party also has its sights on the posts of justice minister.	His party also has its sights on the posts of justice minister.	29780583	1472670020398	1472670020557	s	83
57243	626104	His party also has its sights on the posts of justice minister.	His party also has its sights on the posts of justice minister.	29780609	1472670020518	1472670020677	o	79
57243	626104	His party also has its sights on the posts of justice minister.	His party also has its sights on the posts of justice minister.	29780613	1472670020662	1472670020757	 	32
57243	626104	His party also has its sights on the posts of justice minister.	His party also has its sights on the posts of justice minister.	29780615	1472670020830	1472670020951	h	72
57243	626104	His party also has its sights on the posts of justice minister.	His party also has its sights on the posts of justice minister.	29780620	1472670020918	1472670021030	a	65
57243	626104	His party also has its sights on the posts of justice minister.	His party also has its sights on the posts of justice minister.	29780621	1472670021015	1472670021151	s	83
57243	626104	His party also has its sights on the posts of justice minister.	His party also has its sights on the posts of justice minister.	29780651	1472670021126	1472670021222	 	32
57243	626104	His party also has its sights on the posts of justice minister.	His party also has its sights on the posts of justice minister.	29780655	1472670021254	1472670021413	i	73
57243	626104	His party also has its sights on the posts of justice minister.	His party also has its sights on the posts of justice minister.	29780665	1472670021318	1472670021421	t	84
57243	626104	His party also has its sights on the posts of justice minister.	His party also has its sights on the posts of justice minister.	29780669	1472670021510	1472670021653	s	83
57243	626104	His party also has its sights on the posts of justice minister.	His party also has its sights on the posts of justice minister.	29780673	1472670021614	1472670021709	 	32
57243	626104	His party also has its sights on the posts of justice minister.	His party also has its sights on the posts of justice minister.	29780676	1472670021750	1472670021885	s	83
57243	626104	His party also has its sights on the posts of justice minister.	His party also has its sights on the posts of justice minister.	29780690	1472670021830	1472670021933	i	73
57243	626104	His party also has its sights on the posts of justice minister.	His party also has its sights on the posts of justice minister.	29780693	1472670021982	1472670022109	g	71
57243	626104	His party also has its sights on the posts of justice minister.	His party also has its sights on the posts of justice minister.	29780695	1472670022118	1472670022285	h	72
57243	626104	His party also has its sights on the posts of justice minister.	His party also has its sights on the posts of justice minister.	29780699	1472670022214	1472670022341	t	84
57243	626104	His party also has its sights on the posts of justice minister.	His party also has its sights on the posts of justice minister.	29780701	1472670022398	1472670022542	s	83
57243	626104	His party also has its sights on the posts of justice minister.	His party also has its sights on the posts of justice minister.	29780713	1472670022494	1472670022629	 	32
57243	626104	His party also has its sights on the posts of justice minister.	His party also has its sights on the posts of justice minister.	29780717	1472670022590	1472670022677	o	79
57243	626104	His party also has its sights on the posts of justice minister.	His party also has its sights on the posts of justice minister.	29780724	1472670022774	1472670022901	n	78
57243	626104	His party also has its sights on the posts of justice minister.	His party also has its sights on the posts of justice minister.	29780729	1472670022830	1472670022911	 	32
57243	626104	His party also has its sights on the posts of justice minister.	His party also has its sights on the posts of justice minister.	29780734	1472670022910	1472670023045	t	84
57243	626104	His party also has its sights on the posts of justice minister.	His party also has its sights on the posts of justice minister.	29780765	1472670023029	1472670023151	h	72
57243	626104	His party also has its sights on the posts of justice minister.	His party also has its sights on the posts of justice minister.	29780768	1472670023150	1472670023261	e	69
57243	626104	His party also has its sights on the posts of justice minister.	His party also has its sights on the posts of justice minister.	29780775	1472670023222	1472670023349	 	32
57243	626104	His party also has its sights on the posts of justice minister.	His party also has its sights on the posts of justice minister.	29780779	1472670023398	1472670023525	p	80
57243	626104	His party also has its sights on the posts of justice minister.	His party also has its sights on the posts of justice minister.	29780783	1472670023590	1472670023741	o	79
57243	626104	His party also has its sights on the posts of justice minister.	His party also has its sights on the posts of justice minister.	29780791	1472670023710	1472670023789	s	83
57243	626104	His party also has its sights on the posts of justice minister.	His party also has its sights on the posts of justice minister.	29780795	1472670023846	1472670023957	t	84
57243	626104	His party also has its sights on the posts of justice minister.	His party also has its sights on the posts of justice minister.	29780798	1472670024022	1472670024149	s	83
57243	626104	His party also has its sights on the posts of justice minister.	His party also has its sights on the posts of justice minister.	29780804	1472670024110	1472670024221	 	32
57243	626104	His party also has its sights on the posts of justice minister.	His party also has its sights on the posts of justice minister.	29780809	1472670024302	1472670024429	o	79
57243	626104	His party also has its sights on the posts of justice minister.	His party also has its sights on the posts of justice minister.	29780853	1472670024366	1472670024509	f	70
57243	626104	His party also has its sights on the posts of justice minister.	His party also has its sights on the posts of justice minister.	29780856	1472670024462	1472670024582	 	32
57243	626104	His party also has its sights on the posts of justice minister.	His party also has its sights on the posts of justice minister.	29780858	1472670024678	1472670024797	j	74
57243	626104	His party also has its sights on the posts of justice minister.	His party also has its sights on the posts of justice minister.	29780864	1472670024878	1472670025037	u	85
57243	626104	His party also has its sights on the posts of justice minister.	His party also has its sights on the posts of justice minister.	29780871	1472670025022	1472670025093	s	83
57243	626104	His party also has its sights on the posts of justice minister.	His party also has its sights on the posts of justice minister.	29780877	1472670025142	1472670025301	t	84
57243	626104	His party also has its sights on the posts of justice minister.	His party also has its sights on the posts of justice minister.	29780920	1472670025294	1472670025437	i	73
57243	626104	His party also has its sights on the posts of justice minister.	His party also has its sights on the posts of justice minister.	29780922	1472670025454	1472670025565	c	67
57243	626104	His party also has its sights on the posts of justice minister.	His party also has its sights on the posts of justice minister.	29780926	1472670025702	1472670025821	e	69
57243	626104	His party also has its sights on the posts of justice minister.	His party also has its sights on the posts of justice minister.	29780928	1472670025822	1472670025941	 	32
57243	626104	His party also has its sights on the posts of justice minister.	His party also has its sights on the posts of justice minister.	29780932	1472670026126	1472670026229	m	77
57243	626104	His party also has its sights on the posts of justice minister.	His party also has its sights on the posts of justice minister.	29780934	1472670026326	1472670026405	i	73
57243	626104	His party also has its sights on the posts of justice minister.	His party also has its sights on the posts of justice minister.	29780955	1472670026486	1472670026589	n	78
57243	626104	His party also has its sights on the posts of justice minister.	His party also has its sights on the posts of justice minister.	29780957	1472670026718	1472670026877	i	73
57243	626104	His party also has its sights on the posts of justice minister.	His party also has its sights on the posts of justice minister.	29780962	1472670026846	1472670026957	s	83
57243	626104	His party also has its sights on the posts of justice minister.	His party also has its sights on the posts of justice minister.	29780964	1472670026990	1472670027101	t	84
57243	626104	His party also has its sights on the posts of justice minister.	His party also has its sights on the posts of justice minister.	29780968	1472670027198	1472670027277	e	69
57243	626104	His party also has its sights on the posts of justice minister.	His party also has its sights on the posts of justice minister.	29780975	1472670027342	1472670027461	r	82
57243	626118	We tried to copy it and it worked for us.	We tried to copy it and it worked for us.	29781357	1472670027454	1472670035637	.	190
57243	626118	We tried to copy it and it worked for us.	We tried to copy it and it worked for us.	29781071	1472670029109	1472670029461	SHIFT	16
57243	626118	We tried to copy it and it worked for us.	We tried to copy it and it worked for us.	29781066	1472670029342	1472670029445	W	87
57243	626118	We tried to copy it and it worked for us.	We tried to copy it and it worked for us.	29781074	1472670029526	1472670029621	e	69
57243	626118	We tried to copy it and it worked for us.	We tried to copy it and it worked for us.	29781077	1472670029598	1472670029693	 	32
57243	626118	We tried to copy it and it worked for us.	We tried to copy it and it worked for us.	29781080	1472670029718	1472670029821	t	84
57243	626118	We tried to copy it and it worked for us.	We tried to copy it and it worked for us.	29781082	1472670029902	1472670030015	r	82
57243	626118	We tried to copy it and it worked for us.	We tried to copy it and it worked for us.	29781115	1472670030014	1472670030173	i	73
57243	626118	We tried to copy it and it worked for us.	We tried to copy it and it worked for us.	29781121	1472670030118	1472670030197	e	69
57243	626118	We tried to copy it and it worked for us.	We tried to copy it and it worked for us.	29781125	1472670030318	1472670030493	d	68
57243	626118	We tried to copy it and it worked for us.	We tried to copy it and it worked for us.	29781130	1472670030462	1472670030565	 	32
57243	626118	We tried to copy it and it worked for us.	We tried to copy it and it worked for us.	29781135	1472670030589	1472670030757	t	84
57243	626118	We tried to copy it and it worked for us.	We tried to copy it and it worked for us.	29781149	1472670030701	1472670030837	o	79
57243	626118	We tried to copy it and it worked for us.	We tried to copy it and it worked for us.	29781151	1472670030759	1472670030917	 	32
57243	626118	We tried to copy it and it worked for us.	We tried to copy it and it worked for us.	29781153	1472670030982	1472670031093	c	67
57243	626118	We tried to copy it and it worked for us.	We tried to copy it and it worked for us.	29781155	1472670031017	1472670031109	o	79
57243	626118	We tried to copy it and it worked for us.	We tried to copy it and it worked for us.	29781157	1472670031190	1472670031309	p	80
57243	626118	We tried to copy it and it worked for us.	We tried to copy it and it worked for us.	29781158	1472670031446	1472670031597	t	84
57243	626118	We tried to copy it and it worked for us.	We tried to copy it and it worked for us.	29781188	1472670031758	1472670031869	BKSP	8
57243	626118	We tried to copy it and it worked for us.	We tried to copy it and it worked for us.	29781189	1472670031846	1472670031983	y	89
57243	626118	We tried to copy it and it worked for us.	We tried to copy it and it worked for us.	29781190	1472670031950	1472670032061	 	32
57243	626118	We tried to copy it and it worked for us.	We tried to copy it and it worked for us.	29781191	1472670032150	1472670032285	i	73
57243	626118	We tried to copy it and it worked for us.	We tried to copy it and it worked for us.	29781192	1472670032214	1472670032373	t	84
57243	626118	We tried to copy it and it worked for us.	We tried to copy it and it worked for us.	29781229	1472670032302	1472670032437	 	32
57243	626118	We tried to copy it and it worked for us.	We tried to copy it and it worked for us.	29781236	1472670032549	1472670032661	a	65
57243	626118	We tried to copy it and it worked for us.	We tried to copy it and it worked for us.	29781241	1472670032694	1472670032829	n	78
57243	626118	We tried to copy it and it worked for us.	We tried to copy it and it worked for us.	29781246	1472670032750	1472670032877	d	68
57243	626118	We tried to copy it and it worked for us.	We tried to copy it and it worked for us.	29781249	1472670032846	1472670032973	 	32
57243	626118	We tried to copy it and it worked for us.	We tried to copy it and it worked for us.	29781288	1472670033005	1472670033173	t	73
57243	626118	We tried to copy it and it worked for us.	We tried to copy it and it worked for us.	29781292	1472670033502	1472670033581	 	32
57243	626118	We tried to copy it and it worked for us.	We tried to copy it and it worked for us.	29781293	1472670033614	1472670033741	w	87
57243	626118	We tried to copy it and it worked for us.	We tried to copy it and it worked for us.	29781296	1472670033694	1472670033813	o	79
57243	626118	We tried to copy it and it worked for us.	We tried to copy it and it worked for us.	29781300	1472670033845	1472670033997	r	82
57243	626118	We tried to copy it and it worked for us.	We tried to copy it and it worked for us.	29781303	1472670034150	1472670034293	k	75
57243	626118	We tried to copy it and it worked for us.	We tried to copy it and it worked for us.	29781325	1472670034269	1472670034357	e	69
57243	626118	We tried to copy it and it worked for us.	We tried to copy it and it worked for us.	29781326	1472670034445	1472670034549	d	68
57243	626118	We tried to copy it and it worked for us.	We tried to copy it and it worked for us.	29781329	1472670034502	1472670034629	 	32
57243	626118	We tried to copy it and it worked for us.	We tried to copy it and it worked for us.	29781333	1472670034798	1472670034933	f	70
57243	626118	We tried to copy it and it worked for us.	We tried to copy it and it worked for us.	29781337	1472670034910	1472670035045	o	79
57243	626118	We tried to copy it and it worked for us.	We tried to copy it and it worked for us.	29781352	1472670035030	1472670035141	r	82
57243	626118	We tried to copy it and it worked for us.	We tried to copy it and it worked for us.	29781353	1472670035086	1472670035213	 	32
57243	626118	We tried to copy it and it worked for us.	We tried to copy it and it worked for us.	29781354	1472670035253	1472670035365	u	85
57243	626118	We tried to copy it and it worked for us.	We tried to copy it and it worked for us.	29781355	1472670035350	1472670035477	s	83
57243	626127	Tax gave us the same feedback.	Tax gave us the same feedback.	29781515	1472670037373	1472670037893	SHIFT	16
57243	626127	Tax gave us the same feedback.	Tax gave us the same feedback.	29781513	1472670037772	1472670037885	T	84
57243	626127	Tax gave us the same feedback.	Tax gave us the same feedback.	29781517	1472670037990	1472670038125	a	65
57243	626127	Tax gave us the same feedback.	Tax gave us the same feedback.	29781519	1472670038157	1472670038365	x	88
57243	626127	Tax gave us the same feedback.	Tax gave us the same feedback.	29781522	1472670038573	1472670038677	 	32
57243	626127	Tax gave us the same feedback.	Tax gave us the same feedback.	29781525	1472670038909	1472670038997	h	72
57243	626127	Tax gave us the same feedback.	Tax gave us the same feedback.	29781571	1472670039125	1472670039229	BKSP	8
57243	626127	Tax gave us the same feedback.	Tax gave us the same feedback.	29781574	1472670039182	1472670039285	g	71
57243	626127	Tax gave us the same feedback.	Tax gave us the same feedback.	29781578	1472670039365	1472670039461	a	65
57243	626127	Tax gave us the same feedback.	Tax gave us the same feedback.	29781581	1472670039549	1472670039621	v	86
57243	626127	Tax gave us the same feedback.	Tax gave us the same feedback.	29781586	1472670039734	1472670039861	e	69
57243	626127	Tax gave us the same feedback.	Tax gave us the same feedback.	29781600	1472670039845	1472670039981	 	32
57243	626127	Tax gave us the same feedback.	Tax gave us the same feedback.	29781605	1472670040029	1472670040156	u	85
57243	626127	Tax gave us the same feedback.	Tax gave us the same feedback.	29781610	1472670040133	1472670040236	s	83
57243	626127	Tax gave us the same feedback.	Tax gave us the same feedback.	29781614	1472670040221	1472670040333	 	32
57243	626127	Tax gave us the same feedback.	Tax gave us the same feedback.	29781616	1472670040405	1472670040509	t	84
57243	626127	Tax gave us the same feedback.	Tax gave us the same feedback.	29781640	1472670040477	1472670040621	h	72
57243	626127	Tax gave us the same feedback.	Tax gave us the same feedback.	29781644	1472670040613	1472670040725	e	69
57243	626127	Tax gave us the same feedback.	Tax gave us the same feedback.	29781648	1472670040670	1472670040781	 	32
57243	626127	Tax gave us the same feedback.	Tax gave us the same feedback.	29781652	1472670040845	1472670041021	s	83
57243	626127	Tax gave us the same feedback.	Tax gave us the same feedback.	29781656	1472670041069	1472670041221	a	65
57243	626127	Tax gave us the same feedback.	Tax gave us the same feedback.	29781716	1472670041197	1472670041349	m	77
57243	626127	Tax gave us the same feedback.	Tax gave us the same feedback.	29781719	1472670041301	1472670041453	e	69
57243	626127	Tax gave us the same feedback.	Tax gave us the same feedback.	29781722	1472670041405	1472670041549	 	32
57243	626127	Tax gave us the same feedback.	Tax gave us the same feedback.	29781724	1472670042117	1472670042213	f	70
57243	626127	Tax gave us the same feedback.	Tax gave us the same feedback.	29781726	1472670042469	1472670042581	e	69
57243	626127	Tax gave us the same feedback.	Tax gave us the same feedback.	29781728	1472670042781	1472670042885	e	69
57243	626127	Tax gave us the same feedback.	Tax gave us the same feedback.	29781752	1472670043285	1472670043413	d	68
57243	626127	Tax gave us the same feedback.	Tax gave us the same feedback.	29781755	1472670043517	1472670043629	b	66
57243	626127	Tax gave us the same feedback.	Tax gave us the same feedback.	29781759	1472670043597	1472670043701	a	65
57243	626127	Tax gave us the same feedback.	Tax gave us the same feedback.	29781762	1472670043773	1472670043901	c	67
57243	626127	Tax gave us the same feedback.	Tax gave us the same feedback.	29781765	1472670043829	1472670043949	k	75
57243	626127	Tax gave us the same feedback.	Tax gave us the same feedback.	29781768	1472670044053	1472670044197	.	190
57243	626135	If not can I call you?	If not can I call you>?	29781884	1472670045685	1472670046157	SHIFT	16
57243	626135	If not can I call you?	If not can I call you>?	29781888	1472670046021	1472670046157	I	73
57243	626135	If not can I call you?	If not can I call you>?	29781892	1472670046165	1472670046284	f	70
57243	626135	If not can I call you?	If not can I call you>?	29781896	1472670046237	1472670046348	 	32
57243	626135	If not can I call you?	If not can I call you>?	29781898	1472670046333	1472670046437	n	78
57243	626135	If not can I call you?	If not can I call you>?	29781900	1472670046541	1472670046676	o	79
57243	626135	If not can I call you?	If not can I call you>?	29781933	1472670046645	1472670046749	t	84
57243	626135	If not can I call you?	If not can I call you>?	29781936	1472670046685	1472670046829	 	32
57243	626135	If not can I call you?	If not can I call you>?	29781940	1472670046909	1472670046989	c	67
57243	626135	If not can I call you?	If not can I call you>?	29781943	1472670047045	1472670047205	a	65
57243	626135	If not can I call you?	If not can I call you>?	29781946	1472670047157	1472670047277	n	78
57243	626135	If not can I call you?	If not can I call you>?	29781949	1472670047317	1472670047452	 	32
57243	626135	If not can I call you?	If not can I call you>?	29781982	1472670047429	1472670047716	SHIFT	16
57243	626135	If not can I call you?	If not can I call you>?	29781977	1472670047541	1472670047693	I	73
57243	626135	If not can I call you?	If not can I call you>?	29781985	1472670047709	1472670047829	 	32
57243	626135	If not can I call you?	If not can I call you>?	29781988	1472670047885	1472670047965	c	67
57243	626135	If not can I call you?	If not can I call you>?	29781991	1472670048045	1472670048191	a	65
57243	626135	If not can I call you?	If not can I call you>?	29782002	1472670048157	1472670048229	l	76
57243	626135	If not can I call you?	If not can I call you>?	29782004	1472670048301	1472670048404	l	76
57243	626135	If not can I call you?	If not can I call you>?	29782006	1472670048389	1472670048477	 	32
57243	626135	If not can I call you?	If not can I call you>?	29782008	1472670048533	1472670048637	y	89
57243	626135	If not can I call you?	If not can I call you>?	29782011	1472670048565	1472670048662	o	79
57243	626135	If not can I call you?	If not can I call you>?	29782014	1472670048741	1472670048853	u	85
57243	626135	If not can I call you?	If not can I call you>?	29782036	1472670048893	1472670049205	SHIFT	16
57243	626135	If not can I call you?	If not can I call you>?	29782033	1472670049021	1472670049052	>	190
57243	626135	If not can I call you?	If not can I call you>?	29782039	1472670049093	1472670049205	?	191
57243	626142	Opposition leaders have urged him to call off the visit.	Opposition leaders have urged him to call off the visit.	29782137	1472670050949	1472670051260	SHIFT	16
57243	626142	Opposition leaders have urged him to call off the visit.	Opposition leaders have urged him to call off the visit.	29782130	1472670051141	1472670051253	O	79
57243	626142	Opposition leaders have urged him to call off the visit.	Opposition leaders have urged him to call off the visit.	29782141	1472670051357	1472670051412	p	80
57243	626142	Opposition leaders have urged him to call off the visit.	Opposition leaders have urged him to call off the visit.	29782148	1472670051477	1472670051540	p	80
57243	626142	Opposition leaders have urged him to call off the visit.	Opposition leaders have urged him to call off the visit.	29782154	1472670051629	1472670051740	o	79
57243	626142	Opposition leaders have urged him to call off the visit.	Opposition leaders have urged him to call off the visit.	29782159	1472670051765	1472670051860	s	83
57243	626142	Opposition leaders have urged him to call off the visit.	Opposition leaders have urged him to call off the visit.	29782191	1472670051901	1472670052037	t	84
57243	626142	Opposition leaders have urged him to call off the visit.	Opposition leaders have urged him to call off the visit.	29782192	1472670052149	1472670052228	BKSP	8
57243	626142	Opposition leaders have urged him to call off the visit.	Opposition leaders have urged him to call off the visit.	29782194	1472670052261	1472670052396	i	73
57243	626142	Opposition leaders have urged him to call off the visit.	Opposition leaders have urged him to call off the visit.	29782196	1472670052349	1472670052485	t	84
57243	626142	Opposition leaders have urged him to call off the visit.	Opposition leaders have urged him to call off the visit.	29782200	1472670052477	1472670052557	i	73
57243	626142	Opposition leaders have urged him to call off the visit.	Opposition leaders have urged him to call off the visit.	29782203	1472670052637	1472670052764	o	79
57243	626142	Opposition leaders have urged him to call off the visit.	Opposition leaders have urged him to call off the visit.	29782229	1472670052853	1472670052972	n	78
57243	626142	Opposition leaders have urged him to call off the visit.	Opposition leaders have urged him to call off the visit.	29782234	1472670052957	1472670053077	 	32
57243	626142	Opposition leaders have urged him to call off the visit.	Opposition leaders have urged him to call off the visit.	29782239	1472670053285	1472670053420	l	76
57243	626142	Opposition leaders have urged him to call off the visit.	Opposition leaders have urged him to call off the visit.	29782245	1472670053397	1472670053540	e	69
57243	626142	Opposition leaders have urged him to call off the visit.	Opposition leaders have urged him to call off the visit.	29782269	1472670053517	1472670053653	a	65
57243	626142	Opposition leaders have urged him to call off the visit.	Opposition leaders have urged him to call off the visit.	29782271	1472670053693	1472670053805	d	68
57243	626142	Opposition leaders have urged him to call off the visit.	Opposition leaders have urged him to call off the visit.	29782273	1472670053877	1472670053972	e	69
57243	626142	Opposition leaders have urged him to call off the visit.	Opposition leaders have urged him to call off the visit.	29782275	1472670054029	1472670054124	r	82
57243	626142	Opposition leaders have urged him to call off the visit.	Opposition leaders have urged him to call off the visit.	29782277	1472670054173	1472670054284	s	83
57243	626142	Opposition leaders have urged him to call off the visit.	Opposition leaders have urged him to call off the visit.	29782299	1472670054277	1472670054372	 	32
57243	626142	Opposition leaders have urged him to call off the visit.	Opposition leaders have urged him to call off the visit.	29782305	1472670054437	1472670054580	h	72
57243	626142	Opposition leaders have urged him to call off the visit.	Opposition leaders have urged him to call off the visit.	29782311	1472670054565	1472670054653	a	65
57243	626142	Opposition leaders have urged him to call off the visit.	Opposition leaders have urged him to call off the visit.	29782318	1472670054749	1472670054852	v	86
57243	626142	Opposition leaders have urged him to call off the visit.	Opposition leaders have urged him to call off the visit.	29782325	1472670054941	1472670055092	e	69
57243	626142	Opposition leaders have urged him to call off the visit.	Opposition leaders have urged him to call off the visit.	29782392	1472670055061	1472670055156	 	32
57243	626142	Opposition leaders have urged him to call off the visit.	Opposition leaders have urged him to call off the visit.	29782394	1472670055701	1472670055860	u	85
57243	626142	Opposition leaders have urged him to call off the visit.	Opposition leaders have urged him to call off the visit.	29782396	1472670055925	1472670056012	r	82
57243	626142	Opposition leaders have urged him to call off the visit.	Opposition leaders have urged him to call off the visit.	29782398	1472670056093	1472670056188	g	71
57243	626142	Opposition leaders have urged him to call off the visit.	Opposition leaders have urged him to call off the visit.	29782401	1472670056285	1472670056388	e	69
57243	626142	Opposition leaders have urged him to call off the visit.	Opposition leaders have urged him to call off the visit.	29782404	1472670056493	1472670056612	d	68
57243	626142	Opposition leaders have urged him to call off the visit.	Opposition leaders have urged him to call off the visit.	29782433	1472670056573	1472670056676	 	32
57243	626142	Opposition leaders have urged him to call off the visit.	Opposition leaders have urged him to call off the visit.	29782437	1472670056781	1472670056868	i	73
57243	626142	Opposition leaders have urged him to call off the visit.	Opposition leaders have urged him to call off the visit.	29782440	1472670057061	1472670057172	BKSP	8
57243	626142	Opposition leaders have urged him to call off the visit.	Opposition leaders have urged him to call off the visit.	29782442	1472670057165	1472670057293	h	72
57243	626142	Opposition leaders have urged him to call off the visit.	Opposition leaders have urged him to call off the visit.	29782445	1472670057222	1472670057324	i	73
57243	626142	Opposition leaders have urged him to call off the visit.	Opposition leaders have urged him to call off the visit.	29782449	1472670057405	1472670057533	m	77
57243	626142	Opposition leaders have urged him to call off the visit.	Opposition leaders have urged him to call off the visit.	29782479	1472670057501	1472670057621	 	32
57243	626142	Opposition leaders have urged him to call off the visit.	Opposition leaders have urged him to call off the visit.	29782481	1472670057781	1472670057924	t	84
57243	626142	Opposition leaders have urged him to call off the visit.	Opposition leaders have urged him to call off the visit.	29782488	1472670057877	1472670057980	o	79
57243	626142	Opposition leaders have urged him to call off the visit.	Opposition leaders have urged him to call off the visit.	29782496	1472670057981	1472670058124	 	32
57243	626142	Opposition leaders have urged him to call off the visit.	Opposition leaders have urged him to call off the visit.	29782505	1472670058157	1472670058268	c	67
57243	626142	Opposition leaders have urged him to call off the visit.	Opposition leaders have urged him to call off the visit.	29782509	1472670058413	1472670058476	l	76
57243	626142	Opposition leaders have urged him to call off the visit.	Opposition leaders have urged him to call off the visit.	29782559	1472670058653	1472670058756	BKSP	8
57243	626142	Opposition leaders have urged him to call off the visit.	Opposition leaders have urged him to call off the visit.	29782561	1472670058781	1472670058940	a	65
57243	626142	Opposition leaders have urged him to call off the visit.	Opposition leaders have urged him to call off the visit.	29782563	1472670058877	1472670058948	l	76
57243	626142	Opposition leaders have urged him to call off the visit.	Opposition leaders have urged him to call off the visit.	29782570	1472670059029	1472670059158	l	76
57243	626142	Opposition leaders have urged him to call off the visit.	Opposition leaders have urged him to call off the visit.	29782575	1472670059133	1472670059300	 	32
57243	626142	Opposition leaders have urged him to call off the visit.	Opposition leaders have urged him to call off the visit.	29782578	1472670059469	1472670059596	o	79
57243	626142	Opposition leaders have urged him to call off the visit.	Opposition leaders have urged him to call off the visit.	29782615	1472670059613	1472670059692	f	70
57243	626142	Opposition leaders have urged him to call off the visit.	Opposition leaders have urged him to call off the visit.	29782621	1472670059781	1472670059868	f	70
57243	626142	Opposition leaders have urged him to call off the visit.	Opposition leaders have urged him to call off the visit.	29782629	1472670059885	1472670059980	 	32
57243	626142	Opposition leaders have urged him to call off the visit.	Opposition leaders have urged him to call off the visit.	29782639	1472670060085	1472670060172	h	72
57243	626142	Opposition leaders have urged him to call off the visit.	Opposition leaders have urged him to call off the visit.	29782649	1472670060421	1472670060524	BKSP	8
57243	626142	Opposition leaders have urged him to call off the visit.	Opposition leaders have urged him to call off the visit.	29782675	1472670060461	1472670060588	t	84
57243	626142	Opposition leaders have urged him to call off the visit.	Opposition leaders have urged him to call off the visit.	29782677	1472670060621	1472670060756	h	72
57243	626142	Opposition leaders have urged him to call off the visit.	Opposition leaders have urged him to call off the visit.	29782682	1472670060701	1472670060804	e	69
57243	626142	Opposition leaders have urged him to call off the visit.	Opposition leaders have urged him to call off the visit.	29782685	1472670060789	1472670060892	 	32
57243	626142	Opposition leaders have urged him to call off the visit.	Opposition leaders have urged him to call off the visit.	29782687	1472670061165	1472670061292	v	86
57243	626142	Opposition leaders have urged him to call off the visit.	Opposition leaders have urged him to call off the visit.	29782700	1472670061285	1472670061436	i	73
57243	626142	Opposition leaders have urged him to call off the visit.	Opposition leaders have urged him to call off the visit.	29782702	1472670061429	1472670061572	s	83
57243	626142	Opposition leaders have urged him to call off the visit.	Opposition leaders have urged him to call off the visit.	29782705	1472670061549	1472670061684	i	73
57243	626142	Opposition leaders have urged him to call off the visit.	Opposition leaders have urged him to call off the visit.	29782707	1472670061669	1472670061788	t	84
57243	626142	Opposition leaders have urged him to call off the visit.	Opposition leaders have urged him to call off the visit.	29782710	1472670061821	1472670061956	.	190
57243	626156	Now I know about them.	Now I know about them.	29782827	1472670063500	1472670064004	SHIFT	16
57243	626156	Now I know about them.	Now I know about them.	29782824	1472670063869	1472670063988	N	78
57243	626156	Now I know about them.	Now I know about them.	29782837	1472670064125	1472670064284	o	79
57243	626156	Now I know about them.	Now I know about them.	29782842	1472670064237	1472670064380	w	87
57243	626156	Now I know about them.	Now I know about them.	29782849	1472670064317	1472670064452	 	32
57243	626156	Now I know about them.	Now I know about them.	29782902	1472670064468	1472670064692	SHIFT	16
57243	626156	Now I know about them.	Now I know about them.	29782857	1472670064573	1472670064684	I	73
57243	626156	Now I know about them.	Now I know about them.	29782905	1472670064669	1472670064772	 	32
57243	626156	Now I know about them.	Now I know about them.	29782908	1472670065061	1472670065180	k	75
57243	626156	Now I know about them.	Now I know about them.	29782910	1472670065253	1472670065348	n	78
57243	626156	Now I know about them.	Now I know about them.	29782912	1472670065445	1472670065596	o	79
57243	626156	Now I know about them.	Now I know about them.	29782915	1472670065549	1472670065668	w	87
57243	626156	Now I know about them.	Now I know about them.	29782958	1472670065604	1472670065732	 	32
57243	626156	Now I know about them.	Now I know about them.	29782962	1472670066060	1472670066188	a	65
57243	626156	Now I know about them.	Now I know about them.	29782965	1472670066285	1472670066412	b	66
57243	626156	Now I know about them.	Now I know about them.	29782968	1472670066381	1472670066460	o	79
57243	626156	Now I know about them.	Now I know about them.	29782972	1472670066549	1472670066660	u	85
57243	626156	Now I know about them.	Now I know about them.	29782992	1472670066605	1472670066720	t	84
57243	626156	Now I know about them.	Now I know about them.	29782996	1472670066693	1472670066788	 	32
57243	626156	Now I know about them.	Now I know about them.	29783002	1472670066797	1472670066894	t	84
57243	626156	Now I know about them.	Now I know about them.	29783006	1472670066893	1472670066980	h	72
57243	626156	Now I know about them.	Now I know about them.	29783009	1472670066989	1472670067108	e	69
57243	626156	Now I know about them.	Now I know about them.	29783014	1472670067116	1472670067245	m	77
57243	626156	Now I know about them.	Now I know about them.	29783027	1472670067381	1472670067524	.	190
57243	626162	I think we should consider this request.	I think we should consider this request.	29783158	1472670069268	1472670069556	SHIFT	16
57243	626162	I think we should consider this request.	I think we should consider this request.	29783160	1472670069429	1472670069564	I	73
57243	626162	I think we should consider this request.	I think we should consider this request.	29783163	1472670069597	1472670069692	 	32
57243	626162	I think we should consider this request.	I think we should consider this request.	29783166	1472670069701	1472670069812	t	84
57243	626162	I think we should consider this request.	I think we should consider this request.	29783196	1472670069869	1472670070036	h	72
57243	626162	I think we should consider this request.	I think we should consider this request.	29783170	1472670069957	1472670070028	i	73
57243	626162	I think we should consider this request.	I think we should consider this request.	29783199	1472670070117	1472670070212	n	78
57243	626162	I think we should consider this request.	I think we should consider this request.	29783201	1472670070325	1472670070468	k	75
57243	626162	I think we should consider this request.	I think we should consider this request.	29783204	1472670070437	1472670070524	 	32
57243	626162	I think we should consider this request.	I think we should consider this request.	29783206	1472670070685	1472670070780	w	87
57243	626162	I think we should consider this request.	I think we should consider this request.	29783208	1472670070869	1472670070988	e	69
57243	626162	I think we should consider this request.	I think we should consider this request.	29783238	1472670070949	1472670071044	 	32
57243	626162	I think we should consider this request.	I think we should consider this request.	29783240	1472670071101	1472670071212	s	83
57243	626162	I think we should consider this request.	I think we should consider this request.	29783244	1472670071269	1472670071428	h	72
57243	626162	I think we should consider this request.	I think we should consider this request.	29783248	1472670071373	1472670071436	o	79
57243	626162	I think we should consider this request.	I think we should consider this request.	29783252	1472670071517	1472670071612	u	85
57243	626162	I think we should consider this request.	I think we should consider this request.	29783255	1472670071717	1472670071892	l	76
57243	626162	I think we should consider this request.	I think we should consider this request.	29783285	1472670071894	1472670071988	 	32
57243	626162	I think we should consider this request.	I think we should consider this request.	29783287	1472670071940	1472670072068	d	68
57243	626162	I think we should consider this request.	I think we should consider this request.	29783290	1472670072277	1472670072372	BKSP	8
57243	626162	I think we should consider this request.	I think we should consider this request.	29783294	1472670072436	1472670072556	BKSP	8
57243	626162	I think we should consider this request.	I think we should consider this request.	29783296	1472670072517	1472670072644	d	68
57243	626162	I think we should consider this request.	I think we should consider this request.	29783298	1472670072589	1472670072700	 	32
57243	626162	I think we should consider this request.	I think we should consider this request.	29783300	1472670072813	1472670072916	c	67
57243	626162	I think we should consider this request.	I think we should consider this request.	29783311	1472670072909	1472670072972	o	79
57243	626162	I think we should consider this request.	I think we should consider this request.	29783315	1472670073069	1472670073164	n	78
57243	626162	I think we should consider this request.	I think we should consider this request.	29783321	1472670073173	1472670073301	s	83
57243	626162	I think we should consider this request.	I think we should consider this request.	29783327	1472670073293	1472670073452	i	73
57243	626162	I think we should consider this request.	I think we should consider this request.	29783334	1472670073365	1472670073468	d	68
57243	626162	I think we should consider this request.	I think we should consider this request.	29783339	1472670073517	1472670073644	e	69
57243	626162	I think we should consider this request.	I think we should consider this request.	29783358	1472670073709	1472670073884	r	82
57243	626162	I think we should consider this request.	I think we should consider this request.	29783360	1472670073861	1472670073964	 	32
57243	626162	I think we should consider this request.	I think we should consider this request.	29783365	1472670073989	1472670074116	t	84
57243	626162	I think we should consider this request.	I think we should consider this request.	29783369	1472670074053	1472670074140	h	72
57243	626162	I think we should consider this request.	I think we should consider this request.	29783375	1472670074237	1472670074436	i	73
57243	626162	I think we should consider this request.	I think we should consider this request.	29783411	1472670074341	1472670074484	s	83
57243	626162	I think we should consider this request.	I think we should consider this request.	29783414	1472670074397	1472670074508	 	32
57243	626162	I think we should consider this request.	I think we should consider this request.	29783419	1472670074637	1472670074748	r	82
57243	626162	I think we should consider this request.	I think we should consider this request.	29783425	1472670074836	1472670074940	e	69
57243	626162	I think we should consider this request.	I think we should consider this request.	29783431	1472670075077	1472670075216	q	81
57243	626162	I think we should consider this request.	I think we should consider this request.	29783438	1472670075189	1472670075300	u	85
57243	626162	I think we should consider this request.	I think we should consider this request.	29783455	1472670075277	1472670075420	e	69
57243	626162	I think we should consider this request.	I think we should consider this request.	29783458	1472670075445	1472670075564	s	83
57243	626162	I think we should consider this request.	I think we should consider this request.	29783465	1472670075597	1472670075732	t	84
57243	626173	Expect him to be the Bears featured back for the rest of the year.	Expect him to be the Bears featured back for the rest of the year.	29783599	1472670077804	1472670078044	SHIFT	16
57243	626173	Expect him to be the Bears featured back for the rest of the year.	Expect him to be the Bears featured back for the rest of the year.	29783597	1472670077893	1472670078004	E	69
57243	626173	Expect him to be the Bears featured back for the rest of the year.	Expect him to be the Bears featured back for the rest of the year.	29783605	1472670078076	1472670078244	x	88
57243	626173	Expect him to be the Bears featured back for the rest of the year.	Expect him to be the Bears featured back for the rest of the year.	29783610	1472670078420	1472670078572	p	80
57243	626173	Expect him to be the Bears featured back for the rest of the year.	Expect him to be the Bears featured back for the rest of the year.	29783616	1472670078509	1472670078596	e	69
57243	626173	Expect him to be the Bears featured back for the rest of the year.	Expect him to be the Bears featured back for the rest of the year.	29783619	1472670078700	1472670078796	c	67
57243	626173	Expect him to be the Bears featured back for the rest of the year.	Expect him to be the Bears featured back for the rest of the year.	29783637	1472670078893	1472670079004	t	84
57243	626173	Expect him to be the Bears featured back for the rest of the year.	Expect him to be the Bears featured back for the rest of the year.	29783641	1472670078980	1472670079076	 	32
57243	626173	Expect him to be the Bears featured back for the rest of the year.	Expect him to be the Bears featured back for the rest of the year.	29783649	1472670079116	1472670079260	h	72
57243	626173	Expect him to be the Bears featured back for the rest of the year.	Expect him to be the Bears featured back for the rest of the year.	29783644	1472670079165	1472670079252	i	73
57243	626173	Expect him to be the Bears featured back for the rest of the year.	Expect him to be the Bears featured back for the rest of the year.	29783653	1472670079324	1472670079468	m	77
57243	626173	Expect him to be the Bears featured back for the rest of the year.	Expect him to be the Bears featured back for the rest of the year.	29783661	1472670079404	1472670079516	 	32
57243	626173	Expect him to be the Bears featured back for the rest of the year.	Expect him to be the Bears featured back for the rest of the year.	29783665	1472670079500	1472670079628	t	84
57243	626173	Expect him to be the Bears featured back for the rest of the year.	Expect him to be the Bears featured back for the rest of the year.	29783668	1472670079605	1472670079724	o	79
57243	626173	Expect him to be the Bears featured back for the rest of the year.	Expect him to be the Bears featured back for the rest of the year.	29783671	1472670079700	1472670079820	 	32
57243	626173	Expect him to be the Bears featured back for the rest of the year.	Expect him to be the Bears featured back for the rest of the year.	29783674	1472670079836	1472670079964	b	66
57243	626173	Expect him to be the Bears featured back for the rest of the year.	Expect him to be the Bears featured back for the rest of the year.	29783689	1472670079916	1472670080044	e	69
57243	626173	Expect him to be the Bears featured back for the rest of the year.	Expect him to be the Bears featured back for the rest of the year.	29783695	1472670080004	1472670080116	 	32
57243	626173	Expect him to be the Bears featured back for the rest of the year.	Expect him to be the Bears featured back for the rest of the year.	29783701	1472670080173	1472670080292	t	84
57243	626173	Expect him to be the Bears featured back for the rest of the year.	Expect him to be the Bears featured back for the rest of the year.	29783706	1472670080277	1472670080412	h	72
57243	626173	Expect him to be the Bears featured back for the rest of the year.	Expect him to be the Bears featured back for the rest of the year.	29783710	1472670080396	1472670080524	e	69
57243	626173	Expect him to be the Bears featured back for the rest of the year.	Expect him to be the Bears featured back for the rest of the year.	29783729	1472670080476	1472670080588	 	32
57243	626173	Expect him to be the Bears featured back for the rest of the year.	Expect him to be the Bears featured back for the rest of the year.	29783732	1472670080772	1472670080956	SHIFT	16
57243	626173	Expect him to be the Bears featured back for the rest of the year.	Expect him to be the Bears featured back for the rest of the year.	29783737	1472670080869	1472670080964	B	66
57243	626173	Expect him to be the Bears featured back for the rest of the year.	Expect him to be the Bears featured back for the rest of the year.	29783740	1472670081068	1472670081179	e	69
57243	626173	Expect him to be the Bears featured back for the rest of the year.	Expect him to be the Bears featured back for the rest of the year.	29783742	1472670081165	1472670081308	a	65
57243	626173	Expect him to be the Bears featured back for the rest of the year.	Expect him to be the Bears featured back for the rest of the year.	29783745	1472670081341	1472670081468	r	82
57243	626173	Expect him to be the Bears featured back for the rest of the year.	Expect him to be the Bears featured back for the rest of the year.	29783771	1472670081461	1472670081612	s	83
57243	626173	Expect him to be the Bears featured back for the rest of the year.	Expect him to be the Bears featured back for the rest of the year.	29783772	1472670081572	1472670081708	 	32
57243	626173	Expect him to be the Bears featured back for the rest of the year.	Expect him to be the Bears featured back for the rest of the year.	29783773	1472670081956	1472670082044	f	70
57243	626173	Expect him to be the Bears featured back for the rest of the year.	Expect him to be the Bears featured back for the rest of the year.	29783775	1472670082156	1472670082268	e	69
57243	626173	Expect him to be the Bears featured back for the rest of the year.	Expect him to be the Bears featured back for the rest of the year.	29783778	1472670082324	1472670082436	a	65
57243	626173	Expect him to be the Bears featured back for the rest of the year.	Expect him to be the Bears featured back for the rest of the year.	29783780	1472670082460	1472670082588	u	85
57243	626173	Expect him to be the Bears featured back for the rest of the year.	Expect him to be the Bears featured back for the rest of the year.	29783849	1472670082540	1472670082660	t	84
57243	626173	Expect him to be the Bears featured back for the rest of the year.	Expect him to be the Bears featured back for the rest of the year.	29783852	1472670082780	1472670082860	f	70
57243	626173	Expect him to be the Bears featured back for the rest of the year.	Expect him to be the Bears featured back for the rest of the year.	29783854	1472670083236	1472670083316	BKSP	8
57243	626173	Expect him to be the Bears featured back for the rest of the year.	Expect him to be the Bears featured back for the rest of the year.	29783857	1472670083828	1472670083908	BKSP	8
57243	626173	Expect him to be the Bears featured back for the rest of the year.	Expect him to be the Bears featured back for the rest of the year.	29783860	1472670083972	1472670084075	BKSP	8
57243	626173	Expect him to be the Bears featured back for the rest of the year.	Expect him to be the Bears featured back for the rest of the year.	29783862	1472670084028	1472670084132	t	84
57243	626173	Expect him to be the Bears featured back for the rest of the year.	Expect him to be the Bears featured back for the rest of the year.	29783864	1472670084180	1472670084308	u	85
57243	626173	Expect him to be the Bears featured back for the rest of the year.	Expect him to be the Bears featured back for the rest of the year.	29783868	1472670084236	1472670084340	r	82
57243	626173	Expect him to be the Bears featured back for the rest of the year.	Expect him to be the Bears featured back for the rest of the year.	29783873	1472670084428	1472670084572	e	69
57243	626173	Expect him to be the Bears featured back for the rest of the year.	Expect him to be the Bears featured back for the rest of the year.	29783898	1472670084556	1472670084660	 	32
57243	626173	Expect him to be the Bears featured back for the rest of the year.	Expect him to be the Bears featured back for the rest of the year.	29783900	1472670084860	1472670084956	BKSP	8
57243	626173	Expect him to be the Bears featured back for the rest of the year.	Expect him to be the Bears featured back for the rest of the year.	29783902	1472670084908	1472670085076	d	68
57243	626173	Expect him to be the Bears featured back for the rest of the year.	Expect him to be the Bears featured back for the rest of the year.	29783904	1472670084996	1472670085124	 	32
57243	626173	Expect him to be the Bears featured back for the rest of the year.	Expect him to be the Bears featured back for the rest of the year.	29783907	1472670085404	1472670085524	b	66
57243	626173	Expect him to be the Bears featured back for the rest of the year.	Expect him to be the Bears featured back for the rest of the year.	29783910	1472670085476	1472670085564	a	65
57243	626173	Expect him to be the Bears featured back for the rest of the year.	Expect him to be the Bears featured back for the rest of the year.	29783914	1472670085612	1472670085724	c	67
57243	626173	Expect him to be the Bears featured back for the rest of the year.	Expect him to be the Bears featured back for the rest of the year.	29783916	1472670085669	1472670085836	k	75
57243	626173	Expect him to be the Bears featured back for the rest of the year.	Expect him to be the Bears featured back for the rest of the year.	29783919	1472670085765	1472670085860	 	32
57243	626173	Expect him to be the Bears featured back for the rest of the year.	Expect him to be the Bears featured back for the rest of the year.	29783922	1472670085868	1472670086003	f	70
57243	626173	Expect him to be the Bears featured back for the rest of the year.	Expect him to be the Bears featured back for the rest of the year.	29783925	1472670085980	1472670086123	o	79
57243	626173	Expect him to be the Bears featured back for the rest of the year.	Expect him to be the Bears featured back for the rest of the year.	29783928	1472670086076	1472670086180	r	82
57243	626173	Expect him to be the Bears featured back for the rest of the year.	Expect him to be the Bears featured back for the rest of the year.	29783954	1472670086164	1472670086268	 	32
57243	626173	Expect him to be the Bears featured back for the rest of the year.	Expect him to be the Bears featured back for the rest of the year.	29783957	1472670086276	1472670086340	t	84
57243	626173	Expect him to be the Bears featured back for the rest of the year.	Expect him to be the Bears featured back for the rest of the year.	29783962	1472670086332	1472670086446	h	72
57243	626173	Expect him to be the Bears featured back for the rest of the year.	Expect him to be the Bears featured back for the rest of the year.	29783965	1472670086444	1472670086565	e	69
57243	626173	Expect him to be the Bears featured back for the rest of the year.	Expect him to be the Bears featured back for the rest of the year.	29783969	1472670086532	1472670086635	 	32
57243	626173	Expect him to be the Bears featured back for the rest of the year.	Expect him to be the Bears featured back for the rest of the year.	29783973	1472670086740	1472670086828	r	82
57243	626173	Expect him to be the Bears featured back for the rest of the year.	Expect him to be the Bears featured back for the rest of the year.	29783997	1472670086909	1472670087004	e	69
57243	626173	Expect him to be the Bears featured back for the rest of the year.	Expect him to be the Bears featured back for the rest of the year.	29784001	1472670087028	1472670087172	s	83
57243	626173	Expect him to be the Bears featured back for the rest of the year.	Expect him to be the Bears featured back for the rest of the year.	29784004	1472670087180	1472670087340	t	84
57243	626173	Expect him to be the Bears featured back for the rest of the year.	Expect him to be the Bears featured back for the rest of the year.	29784007	1472670087292	1472670087412	 	32
57243	626173	Expect him to be the Bears featured back for the rest of the year.	Expect him to be the Bears featured back for the rest of the year.	29784010	1472670087468	1472670087620	o	79
57243	626173	Expect him to be the Bears featured back for the rest of the year.	Expect him to be the Bears featured back for the rest of the year.	29784023	1472670087564	1472670087668	f	70
57243	626173	Expect him to be the Bears featured back for the rest of the year.	Expect him to be the Bears featured back for the rest of the year.	29784027	1472670087644	1472670087732	 	32
57243	626173	Expect him to be the Bears featured back for the rest of the year.	Expect him to be the Bears featured back for the rest of the year.	29784031	1472670087780	1472670087875	t	84
57243	626173	Expect him to be the Bears featured back for the rest of the year.	Expect him to be the Bears featured back for the rest of the year.	29784035	1472670087860	1472670087956	h	72
57243	626173	Expect him to be the Bears featured back for the rest of the year.	Expect him to be the Bears featured back for the rest of the year.	29784038	1472670087980	1472670088107	e	69
57243	626173	Expect him to be the Bears featured back for the rest of the year.	Expect him to be the Bears featured back for the rest of the year.	29784048	1472670088052	1472670088164	 	32
57243	626173	Expect him to be the Bears featured back for the rest of the year.	Expect him to be the Bears featured back for the rest of the year.	29784050	1472670088284	1472670088388	y	89
57243	626173	Expect him to be the Bears featured back for the rest of the year.	Expect him to be the Bears featured back for the rest of the year.	29784052	1472670088356	1472670088460	e	69
57243	626173	Expect him to be the Bears featured back for the rest of the year.	Expect him to be the Bears featured back for the rest of the year.	29784054	1472670088452	1472670088555	a	65
57243	626173	Expect him to be the Bears featured back for the rest of the year.	Expect him to be the Bears featured back for the rest of the year.	29784056	1472670088588	1472670088708	r	82
57243	626185	At 17, he enlisted in the US Navy.	At 17, he enlisted in the US NAvy.	29784151	1472670090476	1472670090700	SHIFT	16
57243	626185	At 17, he enlisted in the US Navy.	At 17, he enlisted in the US NAvy.	29784157	1472670090836	1472670091044	SHIFT	16
57243	626185	At 17, he enlisted in the US Navy.	At 17, he enlisted in the US NAvy.	29784154	1472670090932	1472670091028	A	65
57243	626185	At 17, he enlisted in the US Navy.	At 17, he enlisted in the US NAvy.	29784159	1472670091100	1472670091227	t	84
57243	626185	At 17, he enlisted in the US Navy.	At 17, he enlisted in the US NAvy.	29784160	1472670091188	1472670091284	 	32
57243	626185	At 17, he enlisted in the US Navy.	At 17, he enlisted in the US NAvy.	29784163	1472670091364	1472670091427	1	49
57243	626185	At 17, he enlisted in the US Navy.	At 17, he enlisted in the US NAvy.	29784181	1472670091420	1472670091564	7	55
57243	626185	At 17, he enlisted in the US Navy.	At 17, he enlisted in the US NAvy.	29784182	1472670091772	1472670091940	,	188
57243	626185	At 17, he enlisted in the US Navy.	At 17, he enlisted in the US NAvy.	29784183	1472670091916	1472670092012	 	32
57243	626185	At 17, he enlisted in the US Navy.	At 17, he enlisted in the US NAvy.	29784184	1472670092028	1472670092083	t	84
57243	626185	At 17, he enlisted in the US Navy.	At 17, he enlisted in the US NAvy.	29784186	1472670092276	1472670092347	BKSP	8
57243	626185	At 17, he enlisted in the US Navy.	At 17, he enlisted in the US NAvy.	29784188	1472670092404	1472670092525	h	72
57243	626185	At 17, he enlisted in the US Navy.	At 17, he enlisted in the US NAvy.	29784226	1472670092492	1472670092628	e	69
57243	626185	At 17, he enlisted in the US Navy.	At 17, he enlisted in the US NAvy.	29784229	1472670092564	1472670092654	 	32
57243	626185	At 17, he enlisted in the US Navy.	At 17, he enlisted in the US NAvy.	29784232	1472670092652	1472670092732	i	73
57243	626185	At 17, he enlisted in the US Navy.	At 17, he enlisted in the US NAvy.	29784235	1472670093068	1472670093155	BKSP	8
57243	626185	At 17, he enlisted in the US Navy.	At 17, he enlisted in the US NAvy.	29784238	1472670093140	1472670093259	e	69
57243	626185	At 17, he enlisted in the US Navy.	At 17, he enlisted in the US NAvy.	29784242	1472670093252	1472670093347	n	78
57243	626185	At 17, he enlisted in the US Navy.	At 17, he enlisted in the US NAvy.	29784246	1472670093468	1472670093564	l	76
57243	626185	At 17, he enlisted in the US Navy.	At 17, he enlisted in the US NAvy.	29784264	1472670093644	1472670093780	i	73
57243	626185	At 17, he enlisted in the US Navy.	At 17, he enlisted in the US NAvy.	29784265	1472670093732	1472670093804	s	83
57243	626185	At 17, he enlisted in the US Navy.	At 17, he enlisted in the US NAvy.	29784266	1472670093828	1472670093966	t	84
57243	626185	At 17, he enlisted in the US Navy.	At 17, he enlisted in the US NAvy.	29784268	1472670093964	1472670094068	i	73
57243	626185	At 17, he enlisted in the US Navy.	At 17, he enlisted in the US NAvy.	29784270	1472670094268	1472670094379	BKSP	8
57243	626185	At 17, he enlisted in the US Navy.	At 17, he enlisted in the US NAvy.	29784289	1472670094324	1472670094436	e	69
57243	626185	At 17, he enlisted in the US Navy.	At 17, he enlisted in the US NAvy.	29784291	1472670094492	1472670094635	d	68
57243	626185	At 17, he enlisted in the US Navy.	At 17, he enlisted in the US NAvy.	29784292	1472670094580	1472670094709	 	32
57243	626185	At 17, he enlisted in the US Navy.	At 17, he enlisted in the US NAvy.	29784293	1472670094708	1472670094796	i	73
57243	626185	At 17, he enlisted in the US Navy.	At 17, he enlisted in the US NAvy.	29784294	1472670094900	1472670094971	n	78
57243	626185	At 17, he enlisted in the US Navy.	At 17, he enlisted in the US NAvy.	29784311	1472670094940	1472670095043	 	32
57243	626185	At 17, he enlisted in the US Navy.	At 17, he enlisted in the US NAvy.	29784315	1472670095060	1472670095166	t	84
57243	626185	At 17, he enlisted in the US Navy.	At 17, he enlisted in the US NAvy.	29784320	1472670095164	1472670095278	h	72
57243	626185	At 17, he enlisted in the US Navy.	At 17, he enlisted in the US NAvy.	29784325	1472670095252	1472670095355	e	69
57243	626185	At 17, he enlisted in the US Navy.	At 17, he enlisted in the US NAvy.	29784330	1472670095332	1472670095436	 	32
57243	626185	At 17, he enlisted in the US Navy.	At 17, he enlisted in the US NAvy.	29784354	1472670095436	1472670095851	SHIFT	16
57243	626185	At 17, he enlisted in the US Navy.	At 17, he enlisted in the US NAvy.	29784334	1472670095556	1472670095707	U	85
57243	626185	At 17, he enlisted in the US Navy.	At 17, he enlisted in the US NAvy.	29784352	1472670095684	1472670095820	S	83
57243	626185	At 17, he enlisted in the US Navy.	At 17, he enlisted in the US NAvy.	29784358	1472670095836	1472670095940	 	32
57243	626185	At 17, he enlisted in the US Navy.	At 17, he enlisted in the US NAvy.	29784366	1472670095900	1472670096219	SHIFT	16
57243	626185	At 17, he enlisted in the US Navy.	At 17, he enlisted in the US NAvy.	29784362	1472670096060	1472670096187	N	78
57243	626185	At 17, he enlisted in the US Navy.	At 17, he enlisted in the US NAvy.	29784369	1472670096204	1472670096267	A	65
57243	626185	At 17, he enlisted in the US Navy.	At 17, he enlisted in the US NAvy.	29784372	1472670096380	1472670096491	v	86
57243	626185	At 17, he enlisted in the US Navy.	At 17, he enlisted in the US NAvy.	29784393	1472670096444	1472670096548	i	73
57243	626185	At 17, he enlisted in the US Navy.	At 17, he enlisted in the US NAvy.	29784394	1472670096900	1472670097011	y	89
57243	626185	At 17, he enlisted in the US Navy.	At 17, he enlisted in the US NAvy.	29784395	1472670097132	1472670097179	BKSP	8
57243	626185	At 17, he enlisted in the US Navy.	At 17, he enlisted in the US NAvy.	29784396	1472670097260	1472670097331	BKSP	8
57243	626185	At 17, he enlisted in the US Navy.	At 17, he enlisted in the US NAvy.	29784397	1472670097340	1472670097452	y	89
57243	626194	When the inspection is finished we will communicate those results.	When the inspection is finished we will communicate those results.	29784478	1472670099164	1472670099403	SHIFT	16
57243	626194	When the inspection is finished we will communicate those results.	When the inspection is finished we will communicate those results.	29784482	1472670099308	1472670099419	W	87
57243	626194	When the inspection is finished we will communicate those results.	When the inspection is finished we will communicate those results.	29784485	1472670099524	1472670099643	h	72
57243	626194	When the inspection is finished we will communicate those results.	When the inspection is finished we will communicate those results.	29784487	1472670099636	1472670099771	e	69
57243	626194	When the inspection is finished we will communicate those results.	When the inspection is finished we will communicate those results.	29784490	1472670099748	1472670099899	n	78
57243	626194	When the inspection is finished we will communicate those results.	When the inspection is finished we will communicate those results.	29784537	1472670099884	1472670099995	 	32
57243	626194	When the inspection is finished we will communicate those results.	When the inspection is finished we will communicate those results.	29784540	1472670099964	1472670100070	t	84
57243	626194	When the inspection is finished we will communicate those results.	When the inspection is finished we will communicate those results.	29784546	1472670100036	1472670100155	h	72
57243	626194	When the inspection is finished we will communicate those results.	When the inspection is finished we will communicate those results.	29784551	1472670100164	1472670100275	e	69
57243	626194	When the inspection is finished we will communicate those results.	When the inspection is finished we will communicate those results.	29784557	1472670100236	1472670100331	 	32
57243	626194	When the inspection is finished we will communicate those results.	When the inspection is finished we will communicate those results.	29784562	1472670100684	1472670100787	i	73
57243	626194	When the inspection is finished we will communicate those results.	When the inspection is finished we will communicate those results.	29784578	1472670100852	1472670100979	n	78
57243	626194	When the inspection is finished we will communicate those results.	When the inspection is finished we will communicate those results.	29784579	1472670101052	1472670101187	s	83
57243	626194	When the inspection is finished we will communicate those results.	When the inspection is finished we will communicate those results.	29784580	1472670101148	1472670101331	p	80
57243	626194	When the inspection is finished we will communicate those results.	When the inspection is finished we will communicate those results.	29784581	1472670101268	1472670101347	e	69
57243	626194	When the inspection is finished we will communicate those results.	When the inspection is finished we will communicate those results.	29784582	1472670101460	1472670101571	c	67
57243	626194	When the inspection is finished we will communicate those results.	When the inspection is finished we will communicate those results.	29784609	1472670101876	1472670102035	t	84
57243	626194	When the inspection is finished we will communicate those results.	When the inspection is finished we will communicate those results.	29784613	1472670101964	1472670102051	i	73
57243	626194	When the inspection is finished we will communicate those results.	When the inspection is finished we will communicate those results.	29784617	1472670102132	1472670102219	o	79
57243	626194	When the inspection is finished we will communicate those results.	When the inspection is finished we will communicate those results.	29784623	1472670102308	1472670102422	n	78
57243	626194	When the inspection is finished we will communicate those results.	When the inspection is finished we will communicate those results.	29784668	1472670102396	1472670102542	 	32
57243	626194	When the inspection is finished we will communicate those results.	When the inspection is finished we will communicate those results.	29784669	1472670102540	1472670102644	i	73
57243	626194	When the inspection is finished we will communicate those results.	When the inspection is finished we will communicate those results.	29784671	1472670102636	1472670102779	s	83
57243	626194	When the inspection is finished we will communicate those results.	When the inspection is finished we will communicate those results.	29784673	1472670102724	1472670102835	 	32
57243	626194	When the inspection is finished we will communicate those results.	When the inspection is finished we will communicate those results.	29784675	1472670103652	1472670103790	f	70
57243	626194	When the inspection is finished we will communicate those results.	When the inspection is finished we will communicate those results.	29784696	1472670103756	1472670103843	i	73
57243	626194	When the inspection is finished we will communicate those results.	When the inspection is finished we will communicate those results.	29784698	1472670103924	1472670104011	n	78
57243	626194	When the inspection is finished we will communicate those results.	When the inspection is finished we will communicate those results.	29784700	1472670104108	1472670104187	i	73
57243	626194	When the inspection is finished we will communicate those results.	When the inspection is finished we will communicate those results.	29784704	1472670104188	1472670104310	s	83
57243	626194	When the inspection is finished we will communicate those results.	When the inspection is finished we will communicate those results.	29784707	1472670104308	1472670104419	h	72
57243	626194	When the inspection is finished we will communicate those results.	When the inspection is finished we will communicate those results.	29784762	1472670104347	1472670104443	e	69
57243	626194	When the inspection is finished we will communicate those results.	When the inspection is finished we will communicate those results.	29784764	1472670104516	1472670104627	d	68
57243	626194	When the inspection is finished we will communicate those results.	When the inspection is finished we will communicate those results.	29784766	1472670104620	1472670104723	 	32
57243	626194	When the inspection is finished we will communicate those results.	When the inspection is finished we will communicate those results.	29784768	1472670104772	1472670104899	w	87
57243	626194	When the inspection is finished we will communicate those results.	When the inspection is finished we will communicate those results.	29784770	1472670105004	1472670105099	BKSP	8
57243	626194	When the inspection is finished we will communicate those results.	When the inspection is finished we will communicate those results.	29784772	1472670105276	1472670105387	w	87
57243	626194	When the inspection is finished we will communicate those results.	When the inspection is finished we will communicate those results.	29784775	1472670105412	1472670105555	e	69
57243	626194	When the inspection is finished we will communicate those results.	When the inspection is finished we will communicate those results.	29784791	1472670105532	1472670105643	 	32
57243	626194	When the inspection is finished we will communicate those results.	When the inspection is finished we will communicate those results.	29784793	1472670105748	1472670105867	w	87
57243	626194	When the inspection is finished we will communicate those results.	When the inspection is finished we will communicate those results.	29784795	1472670105820	1472670105907	i	73
57243	626194	When the inspection is finished we will communicate those results.	When the inspection is finished we will communicate those results.	29784796	1472670105988	1472670106043	l	76
57243	626194	When the inspection is finished we will communicate those results.	When the inspection is finished we will communicate those results.	29784798	1472670106092	1472670106179	l	76
57243	626194	When the inspection is finished we will communicate those results.	When the inspection is finished we will communicate those results.	29784800	1472670106196	1472670106275	 	32
57243	626194	When the inspection is finished we will communicate those results.	When the inspection is finished we will communicate those results.	29784848	1472670106348	1472670106483	c	67
57243	626194	When the inspection is finished we will communicate those results.	When the inspection is finished we will communicate those results.	29784853	1472670106412	1472670106483	o	79
57243	626194	When the inspection is finished we will communicate those results.	When the inspection is finished we will communicate those results.	29784857	1472670106564	1472670106659	m	77
57243	626194	When the inspection is finished we will communicate those results.	When the inspection is finished we will communicate those results.	29784862	1472670106916	1472670107011	m	77
57243	626194	When the inspection is finished we will communicate those results.	When the inspection is finished we will communicate those results.	29784866	1472670107204	1472670107315	u	85
57243	626194	When the inspection is finished we will communicate those results.	When the inspection is finished we will communicate those results.	29784895	1472670107404	1472670107523	n	78
57243	626194	When the inspection is finished we will communicate those results.	When the inspection is finished we will communicate those results.	29784897	1472670107620	1472670107787	i	73
57243	626194	When the inspection is finished we will communicate those results.	When the inspection is finished we will communicate those results.	29784901	1472670107700	1472670107795	c	67
57243	626194	When the inspection is finished we will communicate those results.	When the inspection is finished we will communicate those results.	29784907	1472670107884	1472670108003	a	65
57243	626194	When the inspection is finished we will communicate those results.	When the inspection is finished we will communicate those results.	29784912	1472670108084	1472670108187	t	84
57243	626194	When the inspection is finished we will communicate those results.	When the inspection is finished we will communicate those results.	29784950	1472670108292	1472670108414	e	69
57243	626194	When the inspection is finished we will communicate those results.	When the inspection is finished we will communicate those results.	29784952	1472670108388	1472670108499	 	32
57243	626194	When the inspection is finished we will communicate those results.	When the inspection is finished we will communicate those results.	29784953	1472670108708	1472670108811	t	84
57243	626194	When the inspection is finished we will communicate those results.	When the inspection is finished we will communicate those results.	29784954	1472670108908	1472670109012	h	72
57243	626194	When the inspection is finished we will communicate those results.	When the inspection is finished we will communicate those results.	29784955	1472670109036	1472670109179	o	79
57243	626194	When the inspection is finished we will communicate those results.	When the inspection is finished we will communicate those results.	29785042	1472670109132	1472670109275	s	83
57243	626194	When the inspection is finished we will communicate those results.	When the inspection is finished we will communicate those results.	29785045	1472670109356	1472670109435	 	32
57243	626194	When the inspection is finished we will communicate those results.	When the inspection is finished we will communicate those results.	29785052	1472670109532	1472670109675	BKSP	8
57243	626194	When the inspection is finished we will communicate those results.	When the inspection is finished we will communicate those results.	29785055	1472670109644	1472670109779	e	69
57243	626194	When the inspection is finished we will communicate those results.	When the inspection is finished we will communicate those results.	29785060	1472670109724	1472670109835	 	32
57243	626194	When the inspection is finished we will communicate those results.	When the inspection is finished we will communicate those results.	29785064	1472670110620	1472670110763	r	82
57243	626194	When the inspection is finished we will communicate those results.	When the inspection is finished we will communicate those results.	29785068	1472670110844	1472670110963	e	69
57243	626194	When the inspection is finished we will communicate those results.	When the inspection is finished we will communicate those results.	29785094	1472670110940	1472670111107	s	83
57243	626194	When the inspection is finished we will communicate those results.	When the inspection is finished we will communicate those results.	29785098	1472670111116	1472670111227	u	85
57243	626194	When the inspection is finished we will communicate those results.	When the inspection is finished we will communicate those results.	29785102	1472670111340	1472670111531	l	76
57243	626194	When the inspection is finished we will communicate those results.	When the inspection is finished we will communicate those results.	29785106	1472670111508	1472670111643	t	84
57243	626194	When the inspection is finished we will communicate those results.	When the inspection is finished we will communicate those results.	29785110	1472670111748	1472670111931	s	83
57243	626210	Theresa - Please resend.	Theresa- Please resend.	29785515	1472670111900	1472670118363	.	190
57243	626210	Theresa - Please resend.	Theresa- Please resend.	29785246	1472670113595	1472670113779	SHIFT	16
57243	626210	Theresa - Please resend.	Theresa- Please resend.	29785250	1472670113708	1472670113819	T	84
57243	626210	Theresa - Please resend.	Theresa- Please resend.	29785253	1472670113868	1472670113987	h	72
57243	626210	Theresa - Please resend.	Theresa- Please resend.	29785258	1472670113924	1472670114011	e	69
57243	626210	Theresa - Please resend.	Theresa- Please resend.	29785262	1472670114092	1472670114163	r	82
57243	626210	Theresa - Please resend.	Theresa- Please resend.	29785270	1472670114244	1472670114331	e	69
57243	626210	Theresa - Please resend.	Theresa- Please resend.	29785354	1472670114524	1472670114627	s	83
57243	626210	Theresa - Please resend.	Theresa- Please resend.	29785356	1472670114724	1472670114819	a	65
57243	626210	Theresa - Please resend.	Theresa- Please resend.	29785357	1472670114932	1472670115091	-	189
57243	626210	Theresa - Please resend.	Theresa- Please resend.	29785358	1472670115100	1472670115211	 	32
57243	626210	Theresa - Please resend.	Theresa- Please resend.	29785407	1472670115251	1472670115563	SHIFT	16
57243	626210	Theresa - Please resend.	Theresa- Please resend.	29785359	1472670115388	1472670115499	{	219
57243	626210	Theresa - Please resend.	Theresa- Please resend.	29785410	1472670115820	1472670115875	BKSP	8
57243	626210	Theresa - Please resend.	Theresa- Please resend.	29785413	1472670115987	1472670116219	SHIFT	16
57243	626210	Theresa - Please resend.	Theresa- Please resend.	29785412	1472670116076	1472670116203	P	80
57243	626210	Theresa - Please resend.	Theresa- Please resend.	29785414	1472670116276	1472670116419	l	76
57243	626210	Theresa - Please resend.	Theresa- Please resend.	29785415	1472670116364	1472670116451	e	69
57243	626210	Theresa - Please resend.	Theresa- Please resend.	29785416	1472670116467	1472670116611	a	65
57243	626210	Theresa - Please resend.	Theresa- Please resend.	29785472	1472670116580	1472670116691	s	83
57243	626210	Theresa - Please resend.	Theresa- Please resend.	29785473	1472670116772	1472670116891	e	69
57243	626210	Theresa - Please resend.	Theresa- Please resend.	29785474	1472670116844	1472670116963	 	32
57243	626210	Theresa - Please resend.	Theresa- Please resend.	29785476	1472670117228	1472670117339	r	82
57243	626210	Theresa - Please resend.	Theresa- Please resend.	29785478	1472670117443	1472670117523	e	69
57243	626210	Theresa - Please resend.	Theresa- Please resend.	29785481	1472670117603	1472670117755	s	83
57243	626210	Theresa - Please resend.	Theresa- Please resend.	29785505	1472670117771	1472670117915	e	69
57243	626210	Theresa - Please resend.	Theresa- Please resend.	29785507	1472670117956	1472670118091	n	78
57243	626210	Theresa - Please resend.	Theresa- Please resend.	29785510	1472670118107	1472670118235	d	68
57243	626222	FYI on the demand letter I signed earlier.	FYI on the demand letter I signed earlier.	29785691	1472670119851	1472670121339	SHIFT	16
57243	626222	FYI on the demand letter I signed earlier.	FYI on the demand letter I signed earlier.	29785656	1472670120019	1472670120155	F	70
57243	626222	FYI on the demand letter I signed earlier.	FYI on the demand letter I signed earlier.	29785658	1472670120244	1472670120435	Y	89
57243	626222	FYI on the demand letter I signed earlier.	FYI on the demand letter I signed earlier.	29785659	1472670120531	1472670120635	T	84
57243	626222	FYI on the demand letter I signed earlier.	FYI on the demand letter I signed earlier.	29785661	1472670120876	1472670121027	BKSP	8
57243	626222	FYI on the demand letter I signed earlier.	FYI on the demand letter I signed earlier.	29785663	1472670121068	1472670121235	I	73
57243	626222	FYI on the demand letter I signed earlier.	FYI on the demand letter I signed earlier.	29785689	1472670121211	1472670121331	 	32
57243	626222	FYI on the demand letter I signed earlier.	FYI on the demand letter I signed earlier.	29785692	1472670121452	1472670121563	o	79
57243	626222	FYI on the demand letter I signed earlier.	FYI on the demand letter I signed earlier.	29785693	1472670121644	1472670121763	n	78
57243	626222	FYI on the demand letter I signed earlier.	FYI on the demand letter I signed earlier.	29785694	1472670121724	1472670121830	 	32
57243	626222	FYI on the demand letter I signed earlier.	FYI on the demand letter I signed earlier.	29785695	1472670121828	1472670121934	t	84
57243	626222	FYI on the demand letter I signed earlier.	FYI on the demand letter I signed earlier.	29785729	1472670121907	1472670122027	h	72
57243	626222	FYI on the demand letter I signed earlier.	FYI on the demand letter I signed earlier.	29785733	1472670122036	1472670122147	e	69
57243	626222	FYI on the demand letter I signed earlier.	FYI on the demand letter I signed earlier.	29785736	1472670122107	1472670122227	 	32
57243	626222	FYI on the demand letter I signed earlier.	FYI on the demand letter I signed earlier.	29785737	1472670122259	1472670122347	d	68
57243	626222	FYI on the demand letter I signed earlier.	FYI on the demand letter I signed earlier.	29785738	1472670122436	1472670122547	e	69
57243	626222	FYI on the demand letter I signed earlier.	FYI on the demand letter I signed earlier.	29785740	1472670122563	1472670122675	m	77
57243	626222	FYI on the demand letter I signed earlier.	FYI on the demand letter I signed earlier.	29785778	1472670122891	1472670123003	a	65
57243	626222	FYI on the demand letter I signed earlier.	FYI on the demand letter I signed earlier.	29785779	1472670122996	1472670123155	n	78
57243	626222	FYI on the demand letter I signed earlier.	FYI on the demand letter I signed earlier.	29785780	1472670123076	1472670123237	d	68
57243	626222	FYI on the demand letter I signed earlier.	FYI on the demand letter I signed earlier.	29785781	1472670123203	1472670123323	 	32
57243	626222	FYI on the demand letter I signed earlier.	FYI on the demand letter I signed earlier.	29785782	1472670123556	1472670123707	l	76
57243	626222	FYI on the demand letter I signed earlier.	FYI on the demand letter I signed earlier.	29785825	1472670123611	1472670123731	e	69
57243	626222	FYI on the demand letter I signed earlier.	FYI on the demand letter I signed earlier.	29785828	1472670123844	1472670123915	t	84
57243	626222	FYI on the demand letter I signed earlier.	FYI on the demand letter I signed earlier.	29785831	1472670124004	1472670124083	t	84
57243	626222	FYI on the demand letter I signed earlier.	FYI on the demand letter I signed earlier.	29785834	1472670124196	1472670124283	e	69
57243	626222	FYI on the demand letter I signed earlier.	FYI on the demand letter I signed earlier.	29785836	1472670124364	1472670124499	r	82
57243	626222	FYI on the demand letter I signed earlier.	FYI on the demand letter I signed earlier.	29785892	1472670124460	1472670124579	 	32
57243	626222	FYI on the demand letter I signed earlier.	FYI on the demand letter I signed earlier.	29785896	1472670124572	1472670124707	i	73
57243	626222	FYI on the demand letter I signed earlier.	FYI on the demand letter I signed earlier.	29785900	1472670124963	1472670125035	BKSP	8
57243	626222	FYI on the demand letter I signed earlier.	FYI on the demand letter I signed earlier.	29785905	1472670125155	1472670125347	SHIFT	16
57243	626222	FYI on the demand letter I signed earlier.	FYI on the demand letter I signed earlier.	29785906	1472670125243	1472670125371	I	73
57243	626222	FYI on the demand letter I signed earlier.	FYI on the demand letter I signed earlier.	29785908	1472670125387	1472670125491	 	32
57243	626222	FYI on the demand letter I signed earlier.	FYI on the demand letter I signed earlier.	29785909	1472670125748	1472670125875	s	83
57243	626222	FYI on the demand letter I signed earlier.	FYI on the demand letter I signed earlier.	29785943	1472670125820	1472670125907	i	73
57243	626222	FYI on the demand letter I signed earlier.	FYI on the demand letter I signed earlier.	29785946	1472670125971	1472670126099	g	71
57243	626222	FYI on the demand letter I signed earlier.	FYI on the demand letter I signed earlier.	29785950	1472670126107	1472670126250	n	78
57243	626222	FYI on the demand letter I signed earlier.	FYI on the demand letter I signed earlier.	29785953	1472670126467	1472670126603	e	69
57243	626222	FYI on the demand letter I signed earlier.	FYI on the demand letter I signed earlier.	29785958	1472670126699	1472670126811	d	68
57243	626222	FYI on the demand letter I signed earlier.	FYI on the demand letter I signed earlier.	29786010	1472670126779	1472670126899	 	32
57243	626222	FYI on the demand letter I signed earlier.	FYI on the demand letter I signed earlier.	29786013	1472670127131	1472670127235	e	69
57243	626222	FYI on the demand letter I signed earlier.	FYI on the demand letter I signed earlier.	29786015	1472670127259	1472670127403	a	65
57243	626222	FYI on the demand letter I signed earlier.	FYI on the demand letter I signed earlier.	29786019	1472670127427	1472670127611	r	82
57243	626222	FYI on the demand letter I signed earlier.	FYI on the demand letter I signed earlier.	29786022	1472670127587	1472670127723	l	76
57243	626222	FYI on the demand letter I signed earlier.	FYI on the demand letter I signed earlier.	29786026	1472670127811	1472670127963	i	73
57243	626222	FYI on the demand letter I signed earlier.	FYI on the demand letter I signed earlier.	29786032	1472670127899	1472670128003	e	69
57243	626222	FYI on the demand letter I signed earlier.	FYI on the demand letter I signed earlier.	29786034	1472670128075	1472670128203	r	82
57243	626222	FYI on the demand letter I signed earlier.	FYI on the demand letter I signed earlier.	29786035	1472670128211	1472670128315	.	190
57243	626232	Sorry for the unfriendly greeting in the lobby.	Sorry for the unfriendly greeting in the lobby.	29786199	1472670129963	1472670130211	SHIFT	16
57243	626232	Sorry for the unfriendly greeting in the lobby.	Sorry for the unfriendly greeting in the lobby.	29786205	1472670130091	1472670130243	S	83
57243	626232	Sorry for the unfriendly greeting in the lobby.	Sorry for the unfriendly greeting in the lobby.	29786209	1472670130267	1472670130371	o	79
57243	626232	Sorry for the unfriendly greeting in the lobby.	Sorry for the unfriendly greeting in the lobby.	29786211	1472670130523	1472670130587	r	82
57243	626232	Sorry for the unfriendly greeting in the lobby.	Sorry for the unfriendly greeting in the lobby.	29786215	1472670130659	1472670130715	r	82
57243	626232	Sorry for the unfriendly greeting in the lobby.	Sorry for the unfriendly greeting in the lobby.	29786221	1472670130899	1472670131028	y	89
57243	626232	Sorry for the unfriendly greeting in the lobby.	Sorry for the unfriendly greeting in the lobby.	29786236	1472670131003	1472670131107	 	32
57243	626232	Sorry for the unfriendly greeting in the lobby.	Sorry for the unfriendly greeting in the lobby.	29786239	1472670131147	1472670131267	f	70
57243	626232	Sorry for the unfriendly greeting in the lobby.	Sorry for the unfriendly greeting in the lobby.	29786244	1472670131211	1472670131362	o	79
57243	626232	Sorry for the unfriendly greeting in the lobby.	Sorry for the unfriendly greeting in the lobby.	29786250	1472670131347	1472670131474	r	82
57243	626232	Sorry for the unfriendly greeting in the lobby.	Sorry for the unfriendly greeting in the lobby.	29786258	1472670131435	1472670131530	 	32
57243	626232	Sorry for the unfriendly greeting in the lobby.	Sorry for the unfriendly greeting in the lobby.	29786268	1472670131595	1472670131690	t	84
57243	626232	Sorry for the unfriendly greeting in the lobby.	Sorry for the unfriendly greeting in the lobby.	29786295	1472670131659	1472670131779	h	72
57243	626232	Sorry for the unfriendly greeting in the lobby.	Sorry for the unfriendly greeting in the lobby.	29786298	1472670131803	1472670131931	e	69
57243	626232	Sorry for the unfriendly greeting in the lobby.	Sorry for the unfriendly greeting in the lobby.	29786301	1472670131891	1472670132011	 	32
57243	626232	Sorry for the unfriendly greeting in the lobby.	Sorry for the unfriendly greeting in the lobby.	29786306	1472670132107	1472670132203	u	85
57243	626232	Sorry for the unfriendly greeting in the lobby.	Sorry for the unfriendly greeting in the lobby.	29786309	1472670132291	1472670132435	n	78
57243	626232	Sorry for the unfriendly greeting in the lobby.	Sorry for the unfriendly greeting in the lobby.	29786328	1472670132411	1472670132499	f	70
57243	626232	Sorry for the unfriendly greeting in the lobby.	Sorry for the unfriendly greeting in the lobby.	29786333	1472670132571	1472670132675	r	82
57243	626232	Sorry for the unfriendly greeting in the lobby.	Sorry for the unfriendly greeting in the lobby.	29786340	1472670132651	1472670132789	i	73
57243	626232	Sorry for the unfriendly greeting in the lobby.	Sorry for the unfriendly greeting in the lobby.	29786350	1472670132787	1472670132931	e	69
57243	626232	Sorry for the unfriendly greeting in the lobby.	Sorry for the unfriendly greeting in the lobby.	29786361	1472670132971	1472670133101	n	78
57243	626232	Sorry for the unfriendly greeting in the lobby.	Sorry for the unfriendly greeting in the lobby.	29786424	1472670133067	1472670133195	d	68
57243	626232	Sorry for the unfriendly greeting in the lobby.	Sorry for the unfriendly greeting in the lobby.	29786427	1472670133283	1472670133434	l	76
57243	626232	Sorry for the unfriendly greeting in the lobby.	Sorry for the unfriendly greeting in the lobby.	29786429	1472670133419	1472670133562	y	89
57243	626232	Sorry for the unfriendly greeting in the lobby.	Sorry for the unfriendly greeting in the lobby.	29786430	1472670133523	1472670133651	 	32
57243	626232	Sorry for the unfriendly greeting in the lobby.	Sorry for the unfriendly greeting in the lobby.	29786431	1472670133963	1472670134050	g	71
57243	626232	Sorry for the unfriendly greeting in the lobby.	Sorry for the unfriendly greeting in the lobby.	29786432	1472670134211	1472670134331	r	82
57243	626232	Sorry for the unfriendly greeting in the lobby.	Sorry for the unfriendly greeting in the lobby.	29786468	1472670134419	1472670134515	e	69
57243	626232	Sorry for the unfriendly greeting in the lobby.	Sorry for the unfriendly greeting in the lobby.	29786471	1472670134691	1472670134803	t	84
57243	626232	Sorry for the unfriendly greeting in the lobby.	Sorry for the unfriendly greeting in the lobby.	29786475	1472670135027	1472670135163	BKSP	8
57243	626232	Sorry for the unfriendly greeting in the lobby.	Sorry for the unfriendly greeting in the lobby.	29786477	1472670135083	1472670135170	e	69
57243	626232	Sorry for the unfriendly greeting in the lobby.	Sorry for the unfriendly greeting in the lobby.	29786482	1472670135235	1472670135372	t	84
57243	626232	Sorry for the unfriendly greeting in the lobby.	Sorry for the unfriendly greeting in the lobby.	29786514	1472670135347	1472670135443	i	73
57243	626232	Sorry for the unfriendly greeting in the lobby.	Sorry for the unfriendly greeting in the lobby.	29786516	1472670135523	1472670135635	n	78
57243	626232	Sorry for the unfriendly greeting in the lobby.	Sorry for the unfriendly greeting in the lobby.	29786520	1472670135563	1472670135666	g	71
57243	626232	Sorry for the unfriendly greeting in the lobby.	Sorry for the unfriendly greeting in the lobby.	29786522	1472670135635	1472670135738	 	32
57243	626232	Sorry for the unfriendly greeting in the lobby.	Sorry for the unfriendly greeting in the lobby.	29786523	1472670135787	1472670135939	i	73
57243	626232	Sorry for the unfriendly greeting in the lobby.	Sorry for the unfriendly greeting in the lobby.	29786527	1472670136011	1472670136122	n	78
57243	626232	Sorry for the unfriendly greeting in the lobby.	Sorry for the unfriendly greeting in the lobby.	29786540	1472670136075	1472670136170	 	32
57243	626232	Sorry for the unfriendly greeting in the lobby.	Sorry for the unfriendly greeting in the lobby.	29786543	1472670136155	1472670136267	t	84
57243	626232	Sorry for the unfriendly greeting in the lobby.	Sorry for the unfriendly greeting in the lobby.	29786550	1472670136227	1472670136331	h	72
57243	626232	Sorry for the unfriendly greeting in the lobby.	Sorry for the unfriendly greeting in the lobby.	29786552	1472670136411	1472670136514	 	32
57243	626232	Sorry for the unfriendly greeting in the lobby.	Sorry for the unfriendly greeting in the lobby.	29786609	1472670136459	1472670136563	l	76
57243	626232	Sorry for the unfriendly greeting in the lobby.	Sorry for the unfriendly greeting in the lobby.	29786610	1472670136496	1472670136570	e	69
57243	626232	Sorry for the unfriendly greeting in the lobby.	Sorry for the unfriendly greeting in the lobby.	29786612	1472670136731	1472670136795	BKSP	8
57243	626232	Sorry for the unfriendly greeting in the lobby.	Sorry for the unfriendly greeting in the lobby.	29786614	1472670136883	1472670136931	BKSP	8
57243	626232	Sorry for the unfriendly greeting in the lobby.	Sorry for the unfriendly greeting in the lobby.	29786618	1472670136995	1472670137082	BKSP	8
57243	626232	Sorry for the unfriendly greeting in the lobby.	Sorry for the unfriendly greeting in the lobby.	29786622	1472670137099	1472670137218	e	69
57243	626232	Sorry for the unfriendly greeting in the lobby.	Sorry for the unfriendly greeting in the lobby.	29786627	1472670137187	1472670137274	 	32
57243	626232	Sorry for the unfriendly greeting in the lobby.	Sorry for the unfriendly greeting in the lobby.	29786631	1472670137267	1472670137354	l	76
57243	626232	Sorry for the unfriendly greeting in the lobby.	Sorry for the unfriendly greeting in the lobby.	29786635	1472670137435	1472670137538	o	79
57243	626232	Sorry for the unfriendly greeting in the lobby.	Sorry for the unfriendly greeting in the lobby.	29786638	1472670137491	1472670137586	b	66
57243	626232	Sorry for the unfriendly greeting in the lobby.	Sorry for the unfriendly greeting in the lobby.	29786640	1472670137667	1472670137730	b	66
57243	626232	Sorry for the unfriendly greeting in the lobby.	Sorry for the unfriendly greeting in the lobby.	29786642	1472670137819	1472670137963	y	89
57243	626243	We can work around these plans if you prefer.	We can work around these plans if you prefer.	29787204	1472670137915	1472670147189	.	190
57243	626243	We can work around these plans if you prefer.	We can work around these plans if you prefer.	29786755	1472670139499	1472670139754	SHIFT	16
57243	626243	We can work around these plans if you prefer.	We can work around these plans if you prefer.	29786751	1472670139619	1472670139707	W	87
57243	626243	We can work around these plans if you prefer.	We can work around these plans if you prefer.	29786758	1472670139763	1472670139874	e	69
57243	626243	We can work around these plans if you prefer.	We can work around these plans if you prefer.	29786761	1472670139835	1472670139954	 	32
57243	626243	We can work around these plans if you prefer.	We can work around these plans if you prefer.	29786765	1472670140011	1472670140090	c	67
57243	626243	We can work around these plans if you prefer.	We can work around these plans if you prefer.	29786769	1472670140147	1472670140282	a	65
57243	626243	We can work around these plans if you prefer.	We can work around these plans if you prefer.	29786787	1472670140243	1472670140354	n	78
57243	626243	We can work around these plans if you prefer.	We can work around these plans if you prefer.	29786792	1472670140323	1472670140402	 	32
57243	626243	We can work around these plans if you prefer.	We can work around these plans if you prefer.	29786796	1472670140459	1472670140570	w	87
57243	626243	We can work around these plans if you prefer.	We can work around these plans if you prefer.	29786801	1472670140579	1472670140714	o	79
57243	626243	We can work around these plans if you prefer.	We can work around these plans if you prefer.	29786805	1472670140723	1472670140859	r	82
57243	626243	We can work around these plans if you prefer.	We can work around these plans if you prefer.	29786853	1472670140851	1472670140970	k	75
57243	626243	We can work around these plans if you prefer.	We can work around these plans if you prefer.	29786858	1472670141051	1472670141170	 	32
57243	626243	We can work around these plans if you prefer.	We can work around these plans if you prefer.	29786864	1472670141283	1472670141346	a	65
57243	626243	We can work around these plans if you prefer.	We can work around these plans if you prefer.	29786869	1472670141411	1472670141538	r	82
57243	626243	We can work around these plans if you prefer.	We can work around these plans if you prefer.	29786873	1472670141563	1472670141626	o	79
57243	626243	We can work around these plans if you prefer.	We can work around these plans if you prefer.	29786876	1472670141755	1472670141866	u	85
57243	626243	We can work around these plans if you prefer.	We can work around these plans if you prefer.	29786885	1472670141987	1472670142162	n	78
57243	626243	We can work around these plans if you prefer.	We can work around these plans if you prefer.	29786892	1472670142099	1472670142226	d	68
57243	626243	We can work around these plans if you prefer.	We can work around these plans if you prefer.	29786898	1472670142179	1472670142314	 	32
57243	626243	We can work around these plans if you prefer.	We can work around these plans if you prefer.	29786907	1472670142363	1472670142498	t	84
57243	626243	We can work around these plans if you prefer.	We can work around these plans if you prefer.	29786955	1472670142483	1472670142586	h	72
57243	626243	We can work around these plans if you prefer.	We can work around these plans if you prefer.	29786960	1472670142627	1472670142722	e	69
57243	626243	We can work around these plans if you prefer.	We can work around these plans if you prefer.	29786967	1472670142771	1472670142914	s	83
57243	626243	We can work around these plans if you prefer.	We can work around these plans if you prefer.	29786972	1472670142923	1472670143130	e	69
57243	626243	We can work around these plans if you prefer.	We can work around these plans if you prefer.	29786977	1472670143187	1472670143306	 	32
57243	626243	We can work around these plans if you prefer.	We can work around these plans if you prefer.	29786984	1472670143555	1472670143690	p	80
57243	626243	We can work around these plans if you prefer.	We can work around these plans if you prefer.	29786994	1472670143779	1472670143938	l	76
57243	626243	We can work around these plans if you prefer.	We can work around these plans if you prefer.	29786996	1472670143851	1472670143986	a	65
57243	626243	We can work around these plans if you prefer.	We can work around these plans if you prefer.	29786999	1472670144027	1472670144154	n	78
57243	626243	We can work around these plans if you prefer.	We can work around these plans if you prefer.	29787004	1472670144099	1472670144242	s	83
57243	626243	We can work around these plans if you prefer.	We can work around these plans if you prefer.	29787006	1472670144243	1472670144354	 	32
57243	626243	We can work around these plans if you prefer.	We can work around these plans if you prefer.	29787069	1472670144483	1472670144595	i	73
57243	626243	We can work around these plans if you prefer.	We can work around these plans if you prefer.	29787074	1472670144675	1472670144762	n	78
57243	626243	We can work around these plans if you prefer.	We can work around these plans if you prefer.	29787078	1472670144883	1472670145010	BKSP	8
57243	626243	We can work around these plans if you prefer.	We can work around these plans if you prefer.	29787082	1472670145003	1472670145098	f	70
57243	626243	We can work around these plans if you prefer.	We can work around these plans if you prefer.	29787084	1472670145059	1472670145154	 	32
57243	626243	We can work around these plans if you prefer.	We can work around these plans if you prefer.	29787087	1472670145203	1472670145330	y	89
57243	626243	We can work around these plans if you prefer.	We can work around these plans if you prefer.	29787134	1472670145315	1472670145394	o	79
57243	626243	We can work around these plans if you prefer.	We can work around these plans if you prefer.	29787137	1472670145467	1472670145587	u	85
57243	626243	We can work around these plans if you prefer.	We can work around these plans if you prefer.	29787140	1472670145555	1472670145650	 	32
57243	626243	We can work around these plans if you prefer.	We can work around these plans if you prefer.	29787143	1472670146123	1472670146258	p	80
57243	626243	We can work around these plans if you prefer.	We can work around these plans if you prefer.	29787146	1472670146275	1472670146346	r	82
57243	626243	We can work around these plans if you prefer.	We can work around these plans if you prefer.	29787150	1472670146443	1472670146554	e	69
57243	626243	We can work around these plans if you prefer.	We can work around these plans if you prefer.	29787186	1472670146667	1472670146738	f	70
57243	626243	We can work around these plans if you prefer.	We can work around these plans if you prefer.	29787192	1472670146851	1472670146930	e	69
57243	626243	We can work around these plans if you prefer.	We can work around these plans if you prefer.	29787199	1472670147003	1472670147090	r	82
