PARTICIPANT_ID	TEST_SECTION_ID	SENTENCE	USER_INPUT	KEYSTROKE_ID	PRESS_TIME	RELEASE_TIME	LETTER	KEYCODE
57892	633187	I bet you it will be a strong motor all day, though.	I bet you it will be a strong motor all day, though.	30116091	1472675802508	1472675802746	SHIFT	16
57892	633187	I bet you it will be a strong motor all day, though.	I bet you it will be a strong motor all day, though.	30116094	1472675802659	1472675802747	I	73
57892	633187	I bet you it will be a strong motor all day, though.	I bet you it will be a strong motor all day, though.	30116097	1472675802859	1472675802978	 	32
57892	633187	I bet you it will be a strong motor all day, though.	I bet you it will be a strong motor all day, though.	30116101	1472675802954	1472675803082	b	66
57892	633187	I bet you it will be a strong motor all day, though.	I bet you it will be a strong motor all day, though.	30116104	1472675803106	1472675803242	e	69
57892	633187	I bet you it will be a strong motor all day, though.	I bet you it will be a strong motor all day, though.	30116233	1472675803195	1472675803298	t	84
57892	633187	I bet you it will be a strong motor all day, though.	I bet you it will be a strong motor all day, though.	30116236	1472675803370	1472675803506	 	32
57892	633187	I bet you it will be a strong motor all day, though.	I bet you it will be a strong motor all day, though.	30116240	1472675803571	1472675803651	y	89
57892	633187	I bet you it will be a strong motor all day, though.	I bet you it will be a strong motor all day, though.	30116244	1472675803715	1472675803859	o	73
57892	633187	I bet you it will be a strong motor all day, though.	I bet you it will be a strong motor all day, though.	30116247	1472675804154	1472675804203	BKSP	8
57892	633187	I bet you it will be a strong motor all day, though.	I bet you it will be a strong motor all day, though.	30116249	1472675804298	1472675804371	BKSP	8
57892	633187	I bet you it will be a strong motor all day, though.	I bet you it will be a strong motor all day, though.	30116251	1472675804459	1472675804490	BKSP	8
57892	633187	I bet you it will be a strong motor all day, though.	I bet you it will be a strong motor all day, though.	30116255	1472675805443	1472675805498	y	89
57892	633187	I bet you it will be a strong motor all day, though.	I bet you it will be a strong motor all day, though.	30116272	1472675805619	1472675805746	o	79
57892	633187	I bet you it will be a strong motor all day, though.	I bet you it will be a strong motor all day, though.	30116275	1472675805682	1472675805802	u	85
57892	633187	I bet you it will be a strong motor all day, though.	I bet you it will be a strong motor all day, though.	30116280	1472675805803	1472675805914	 	32
57892	633187	I bet you it will be a strong motor all day, though.	I bet you it will be a strong motor all day, though.	30116282	1472675805962	1472675806066	i	73
57892	633187	I bet you it will be a strong motor all day, though.	I bet you it will be a strong motor all day, though.	30116286	1472675806091	1472675806170	t	84
57892	633187	I bet you it will be a strong motor all day, though.	I bet you it will be a strong motor all day, though.	30116304	1472675806210	1472675806322	 	32
57892	633187	I bet you it will be a strong motor all day, though.	I bet you it will be a strong motor all day, though.	30116305	1472675806346	1472675806418	w	87
57892	633187	I bet you it will be a strong motor all day, though.	I bet you it will be a strong motor all day, though.	30116306	1472675806450	1472675806522	i	73
57892	633187	I bet you it will be a strong motor all day, though.	I bet you it will be a strong motor all day, though.	30116307	1472675806611	1472675806675	l	76
57892	633187	I bet you it will be a strong motor all day, though.	I bet you it will be a strong motor all day, though.	30116308	1472675806763	1472675806818	l	76
57892	633187	I bet you it will be a strong motor all day, though.	I bet you it will be a strong motor all day, though.	30116332	1472675806866	1472675806978	 	32
57892	633187	I bet you it will be a strong motor all day, though.	I bet you it will be a strong motor all day, though.	30116334	1472675806978	1472675807051	b	66
57892	633187	I bet you it will be a strong motor all day, though.	I bet you it will be a strong motor all day, though.	30116335	1472675807138	1472675807234	e	69
57892	633187	I bet you it will be a strong motor all day, though.	I bet you it will be a strong motor all day, though.	30116336	1472675807323	1472675807458	 	32
57892	633187	I bet you it will be a strong motor all day, though.	I bet you it will be a strong motor all day, though.	30116339	1472675807458	1472675807538	a	65
57892	633187	I bet you it will be a strong motor all day, though.	I bet you it will be a strong motor all day, though.	30116380	1472675807579	1472675807698	 	32
57892	633187	I bet you it will be a strong motor all day, though.	I bet you it will be a strong motor all day, though.	30116383	1472675807723	1472675807811	s	83
57892	633187	I bet you it will be a strong motor all day, though.	I bet you it will be a strong motor all day, though.	30116386	1472675807858	1472675807930	t	84
57892	633187	I bet you it will be a strong motor all day, though.	I bet you it will be a strong motor all day, though.	30116389	1472675808034	1472675808130	r	82
57892	633187	I bet you it will be a strong motor all day, though.	I bet you it will be a strong motor all day, though.	30116392	1472675808226	1472675808483	o	79
57892	633187	I bet you it will be a strong motor all day, though.	I bet you it will be a strong motor all day, though.	30116414	1472675808418	1472675808562	n	78
57892	633187	I bet you it will be a strong motor all day, though.	I bet you it will be a strong motor all day, though.	30116418	1472675808586	1472675808675	g	71
57892	633187	I bet you it will be a strong motor all day, though.	I bet you it will be a strong motor all day, though.	30116422	1472675808722	1472675808842	 	32
57892	633187	I bet you it will be a strong motor all day, though.	I bet you it will be a strong motor all day, though.	30116426	1472675808882	1472675809050	m	77
57892	633187	I bet you it will be a strong motor all day, though.	I bet you it will be a strong motor all day, though.	30116432	1472675808970	1472675809074	o	79
57892	633187	I bet you it will be a strong motor all day, though.	I bet you it will be a strong motor all day, though.	30116439	1472675809106	1472675809178	t	84
57892	633187	I bet you it will be a strong motor all day, though.	I bet you it will be a strong motor all day, though.	30116476	1472675809298	1472675809418	o	79
57892	633187	I bet you it will be a strong motor all day, though.	I bet you it will be a strong motor all day, though.	30116478	1472675809466	1472675809602	r	82
57892	633187	I bet you it will be a strong motor all day, though.	I bet you it will be a strong motor all day, though.	30116481	1472675809698	1472675809818	 	32
57892	633187	I bet you it will be a strong motor all day, though.	I bet you it will be a strong motor all day, though.	30116483	1472675809851	1472675809938	a	65
57892	633187	I bet you it will be a strong motor all day, though.	I bet you it will be a strong motor all day, though.	30116484	1472675809970	1472675810043	l	76
57892	633187	I bet you it will be a strong motor all day, though.	I bet you it will be a strong motor all day, though.	30116500	1472675810138	1472675810235	l	76
57892	633187	I bet you it will be a strong motor all day, though.	I bet you it will be a strong motor all day, though.	30116504	1472675810298	1472675810435	 	32
57892	633187	I bet you it will be a strong motor all day, though.	I bet you it will be a strong motor all day, though.	30116509	1472675810435	1472675810554	d	68
57892	633187	I bet you it will be a strong motor all day, though.	I bet you it will be a strong motor all day, though.	30116515	1472675810531	1472675810619	a	65
57892	633187	I bet you it will be a strong motor all day, though.	I bet you it will be a strong motor all day, though.	30116518	1472675810619	1472675810706	y	89
57892	633187	I bet you it will be a strong motor all day, though.	I bet you it will be a strong motor all day, though.	30116556	1472675810890	1472675811002	,	188
57892	633187	I bet you it will be a strong motor all day, though.	I bet you it will be a strong motor all day, though.	30116561	1472675811026	1472675811170	 	32
57892	633187	I bet you it will be a strong motor all day, though.	I bet you it will be a strong motor all day, though.	30116566	1472675811258	1472675811314	t	84
57892	633187	I bet you it will be a strong motor all day, though.	I bet you it will be a strong motor all day, though.	30116571	1472675811395	1472675811514	h	72
57892	633187	I bet you it will be a strong motor all day, though.	I bet you it will be a strong motor all day, though.	30116576	1472675811587	1472675811674	o	79
57892	633187	I bet you it will be a strong motor all day, though.	I bet you it will be a strong motor all day, though.	30116625	1472675811987	1472675812058	u	85
57892	633187	I bet you it will be a strong motor all day, though.	I bet you it will be a strong motor all day, though.	30116628	1472675812138	1472675812195	g	71
57892	633187	I bet you it will be a strong motor all day, though.	I bet you it will be a strong motor all day, though.	30116631	1472675812234	1472675812314	h	72
57892	633187	I bet you it will be a strong motor all day, though.	I bet you it will be a strong motor all day, though.	30116634	1472675812434	1472675812514	.	190
57892	633203	Parking at the walk site will be free.	Parking at the walk site will be free.	30116812	1472675814714	1472675814938	SHIFT	16
57892	633203	Parking at the walk site will be free.	Parking at the walk site will be free.	30116818	1472675814858	1472675814938	P	80
57892	633203	Parking at the walk site will be free.	Parking at the walk site will be free.	30116822	1472675815091	1472675815202	a	65
57892	633203	Parking at the walk site will be free.	Parking at the walk site will be free.	30116826	1472675815203	1472675815291	r	82
57892	633203	Parking at the walk site will be free.	Parking at the walk site will be free.	30116830	1472675815331	1472675815434	k	75
57892	633203	Parking at the walk site will be free.	Parking at the walk site will be free.	30116833	1472675815522	1472675815626	i	73
57892	633203	Parking at the walk site will be free.	Parking at the walk site will be free.	30116876	1472675815698	1472675815762	n	78
57892	633203	Parking at the walk site will be free.	Parking at the walk site will be free.	30116881	1472675815859	1472675815986	g	71
57892	633203	Parking at the walk site will be free.	Parking at the walk site will be free.	30116889	1472675816106	1472675816234	 	32
57892	633203	Parking at the walk site will be free.	Parking at the walk site will be free.	30116897	1472675816234	1472675816362	a	65
57892	633203	Parking at the walk site will be free.	Parking at the walk site will be free.	30116902	1472675816378	1472675816466	t	84
57892	633203	Parking at the walk site will be free.	Parking at the walk site will be free.	30116921	1472675816515	1472675816634	 	32
57892	633203	Parking at the walk site will be free.	Parking at the walk site will be free.	30116923	1472675816698	1472675816770	t	84
57892	633203	Parking at the walk site will be free.	Parking at the walk site will be free.	30116927	1472675816794	1472675816914	h	72
57892	633203	Parking at the walk site will be free.	Parking at the walk site will be free.	30116931	1472675816890	1472675816954	e	69
57892	633203	Parking at the walk site will be free.	Parking at the walk site will be free.	30116937	1472675816994	1472675817122	 	32
57892	633203	Parking at the walk site will be free.	Parking at the walk site will be free.	30116953	1472675817124	1472675817210	w	87
57892	633203	Parking at the walk site will be free.	Parking at the walk site will be free.	30116957	1472675817274	1472675817386	a	65
57892	633203	Parking at the walk site will be free.	Parking at the walk site will be free.	30116961	1472675817402	1472675817546	l	76
57892	633203	Parking at the walk site will be free.	Parking at the walk site will be free.	30116963	1472675817514	1472675817682	k	75
57892	633203	Parking at the walk site will be free.	Parking at the walk site will be free.	30116967	1472675817683	1472675817811	 	32
57892	633203	Parking at the walk site will be free.	Parking at the walk site will be free.	30117005	1472675817898	1472675817978	s	83
57892	633203	Parking at the walk site will be free.	Parking at the walk site will be free.	30117007	1472675818018	1472675818106	i	73
57892	633203	Parking at the walk site will be free.	Parking at the walk site will be free.	30117011	1472675818163	1472675818242	t	84
57892	633203	Parking at the walk site will be free.	Parking at the walk site will be free.	30117017	1472675818322	1472675818410	e	69
57892	633203	Parking at the walk site will be free.	Parking at the walk site will be free.	30117023	1472675818466	1472675818594	 	32
57892	633203	Parking at the walk site will be free.	Parking at the walk site will be free.	30117033	1472675818658	1472675818723	w	87
57892	633203	Parking at the walk site will be free.	Parking at the walk site will be free.	30117035	1472675818746	1472675818818	i	73
57892	633203	Parking at the walk site will be free.	Parking at the walk site will be free.	30117041	1472675818915	1472675818970	l	76
57892	633203	Parking at the walk site will be free.	Parking at the walk site will be free.	30117049	1472675819067	1472675819122	l	76
57892	633203	Parking at the walk site will be free.	Parking at the walk site will be free.	30117053	1472675819218	1472675819370	 	32
57892	633203	Parking at the walk site will be free.	Parking at the walk site will be free.	30117073	1472675819372	1472675819434	b	66
57892	633203	Parking at the walk site will be free.	Parking at the walk site will be free.	30117075	1472675819530	1472675819626	e	69
57892	633203	Parking at the walk site will be free.	Parking at the walk site will be free.	30117077	1472675819658	1472675819787	 	32
57892	633203	Parking at the walk site will be free.	Parking at the walk site will be free.	30117081	1472675819962	1472675820050	f	70
57892	633203	Parking at the walk site will be free.	Parking at the walk site will be free.	30117085	1472675820138	1472675820250	r	82
57892	633203	Parking at the walk site will be free.	Parking at the walk site will be free.	30117130	1472675820252	1472675820418	e	69
57892	633203	Parking at the walk site will be free.	Parking at the walk site will be free.	30117134	1472675820450	1472675820634	.	190
57892	633203	Parking at the walk site will be free.	Parking at the walk site will be free.	30117139	1472675820931	1472675820970	BKSP	8
57892	633203	Parking at the walk site will be free.	Parking at the walk site will be free.	30117145	1472675821050	1472675821123	e	69
57892	633203	Parking at the walk site will be free.	Parking at the walk site will be free.	30117148	1472675821194	1472675821330	.	190
57892	633214	I'll give it to you tomorrow.	I'll give it to you tomorrow.	30117384	1472675823410	1472675823578	SHIFT	16
57892	633214	I'll give it to you tomorrow.	I'll give it to you tomorrow.	30117387	1472675823507	1472675823579	I	73
57892	633214	I'll give it to you tomorrow.	I'll give it to you tomorrow.	30117390	1472675823914	1472675824042	;	186
57892	633214	I'll give it to you tomorrow.	I'll give it to you tomorrow.	30117395	1472675824570	1472675824618	BKSP	8
57892	633214	I'll give it to you tomorrow.	I'll give it to you tomorrow.	30117401	1472675825050	1472675825150	'	222
57892	633214	I'll give it to you tomorrow.	I'll give it to you tomorrow.	30117404	1472675825226	1472675825306	l	76
57892	633214	I'll give it to you tomorrow.	I'll give it to you tomorrow.	30117408	1472675825378	1472675825459	l	76
57892	633214	I'll give it to you tomorrow.	I'll give it to you tomorrow.	30117432	1472675825522	1472675825634	 	32
57892	633214	I'll give it to you tomorrow.	I'll give it to you tomorrow.	30117434	1472675825706	1472675825778	g	71
57892	633214	I'll give it to you tomorrow.	I'll give it to you tomorrow.	30117436	1472675825821	1472675825914	i	73
57892	633214	I'll give it to you tomorrow.	I'll give it to you tomorrow.	30117439	1472675825994	1472675826074	v	86
57892	633214	I'll give it to you tomorrow.	I'll give it to you tomorrow.	30117441	1472675826339	1472675826410	e	69
57892	633214	I'll give it to you tomorrow.	I'll give it to you tomorrow.	30117463	1472675826434	1472675826547	 	32
57892	633214	I'll give it to you tomorrow.	I'll give it to you tomorrow.	30117470	1472675826603	1472675826682	i	73
57892	633214	I'll give it to you tomorrow.	I'll give it to you tomorrow.	30117477	1472675826706	1472675826826	t	84
57892	633214	I'll give it to you tomorrow.	I'll give it to you tomorrow.	30117482	1472675826827	1472675826930	 	32
57892	633214	I'll give it to you tomorrow.	I'll give it to you tomorrow.	30117485	1472675827002	1472675827098	t	84
57892	633214	I'll give it to you tomorrow.	I'll give it to you tomorrow.	30117527	1472675827130	1472675827274	o	79
57892	633214	I'll give it to you tomorrow.	I'll give it to you tomorrow.	30117530	1472675827274	1472675827394	 	32
57892	633214	I'll give it to you tomorrow.	I'll give it to you tomorrow.	30117532	1472675827690	1472675827802	y	89
57892	633214	I'll give it to you tomorrow.	I'll give it to you tomorrow.	30117533	1472675827851	1472675828011	o	79
57892	633214	I'll give it to you tomorrow.	I'll give it to you tomorrow.	30117545	1472675827930	1472675828074	u	85
57892	633214	I'll give it to you tomorrow.	I'll give it to you tomorrow.	30117547	1472675828162	1472675828290	 	32
57892	633214	I'll give it to you tomorrow.	I'll give it to you tomorrow.	30117551	1472675828387	1472675828474	t	84
57892	633214	I'll give it to you tomorrow.	I'll give it to you tomorrow.	30117554	1472675828522	1472675828619	o	79
57892	633214	I'll give it to you tomorrow.	I'll give it to you tomorrow.	30117558	1472675828650	1472675828755	m	77
57892	633214	I'll give it to you tomorrow.	I'll give it to you tomorrow.	30117561	1472675828819	1472675828906	o	79
57892	633214	I'll give it to you tomorrow.	I'll give it to you tomorrow.	30117570	1472675828946	1472675829018	r	82
57892	633214	I'll give it to you tomorrow.	I'll give it to you tomorrow.	30117571	1472675829106	1472675829218	r	82
57892	633214	I'll give it to you tomorrow.	I'll give it to you tomorrow.	30117573	1472675829250	1472675829322	o	79
57892	633214	I'll give it to you tomorrow.	I'll give it to you tomorrow.	30117578	1472675829370	1472675829434	w	87
57892	633214	I'll give it to you tomorrow.	I'll give it to you tomorrow.	30117582	1472675829466	1472675829579	.	190
57892	633223	We have been working on clay for four weeks.	We have been working on clay for four weeks.	30117724	1472675831347	1472675831538	SHIFT	16
57892	633223	We have been working on clay for four weeks.	We have been working on clay for four weeks.	30117728	1472675831474	1472675831563	W	87
57892	633223	We have been working on clay for four weeks.	We have been working on clay for four weeks.	30117734	1472675831626	1472675831698	e	69
57892	633223	We have been working on clay for four weeks.	We have been working on clay for four weeks.	30117736	1472675831810	1472675831922	 	32
57892	633223	We have been working on clay for four weeks.	We have been working on clay for four weeks.	30117741	1472675831946	1472675832066	h	72
57892	633223	We have been working on clay for four weeks.	We have been working on clay for four weeks.	30117747	1472675832066	1472675832195	a	65
57892	633223	We have been working on clay for four weeks.	We have been working on clay for four weeks.	30117772	1472675832196	1472675832283	v	86
57892	633223	We have been working on clay for four weeks.	We have been working on clay for four weeks.	30117777	1472675832338	1472675832434	e	69
57892	633223	We have been working on clay for four weeks.	We have been working on clay for four weeks.	30117783	1472675832434	1472675832563	 	32
57892	633223	We have been working on clay for four weeks.	We have been working on clay for four weeks.	30117789	1472675832627	1472675832730	b	66
57892	633223	We have been working on clay for four weeks.	We have been working on clay for four weeks.	30117797	1472675832842	1472675832914	e	69
57892	633223	We have been working on clay for four weeks.	We have been working on clay for four weeks.	30117839	1472675833002	1472675833082	e	69
57892	633223	We have been working on clay for four weeks.	We have been working on clay for four weeks.	30117842	1472675833195	1472675833338	n	78
57892	633223	We have been working on clay for four weeks.	We have been working on clay for four weeks.	30117846	1472675833290	1472675833434	 	32
57892	633223	We have been working on clay for four weeks.	We have been working on clay for four weeks.	30117849	1472675833498	1472675833595	w	87
57892	633223	We have been working on clay for four weeks.	We have been working on clay for four weeks.	30117854	1472675833618	1472675833706	o	79
57892	633223	We have been working on clay for four weeks.	We have been working on clay for four weeks.	30117877	1472675833730	1472675833826	r	82
57892	633223	We have been working on clay for four weeks.	We have been working on clay for four weeks.	30117879	1472675833826	1472675833938	k	75
57892	633223	We have been working on clay for four weeks.	We have been working on clay for four weeks.	30117885	1472675834058	1472675834162	i	73
57892	633223	We have been working on clay for four weeks.	We have been working on clay for four weeks.	30117889	1472675834115	1472675834274	n	78
57892	633223	We have been working on clay for four weeks.	We have been working on clay for four weeks.	30117895	1472675834274	1472675834354	g	71
57892	633223	We have been working on clay for four weeks.	We have been working on clay for four weeks.	30117933	1472675834356	1472675834474	 	32
57892	633223	We have been working on clay for four weeks.	We have been working on clay for four weeks.	30117938	1472675834514	1472675834651	o	79
57892	633223	We have been working on clay for four weeks.	We have been working on clay for four weeks.	30117943	1472675834618	1472675834778	n	78
57892	633223	We have been working on clay for four weeks.	We have been working on clay for four weeks.	30117951	1472675834706	1472675834866	 	32
57892	633223	We have been working on clay for four weeks.	We have been working on clay for four weeks.	30117957	1472675835018	1472675835139	c	67
57892	633223	We have been working on clay for four weeks.	We have been working on clay for four weeks.	30117996	1472675835140	1472675835250	l	76
57892	633223	We have been working on clay for four weeks.	We have been working on clay for four weeks.	30118001	1472675835290	1472675835394	a	65
57892	633223	We have been working on clay for four weeks.	We have been working on clay for four weeks.	30118011	1472675835482	1472675835594	y	89
57892	633223	We have been working on clay for four weeks.	We have been working on clay for four weeks.	30118018	1472675835618	1472675835722	 	32
57892	633223	We have been working on clay for four weeks.	We have been working on clay for four weeks.	30118023	1472675835778	1472675835874	f	70
57892	633223	We have been working on clay for four weeks.	We have been working on clay for four weeks.	30118050	1472675835875	1472675835954	o	79
57892	633223	We have been working on clay for four weeks.	We have been working on clay for four weeks.	30118052	1472675836010	1472675836090	r	82
57892	633223	We have been working on clay for four weeks.	We have been working on clay for four weeks.	30118054	1472675836090	1472675836218	 	32
57892	633223	We have been working on clay for four weeks.	We have been working on clay for four weeks.	30118058	1472675836403	1472675836490	f	70
57892	633223	We have been working on clay for four weeks.	We have been working on clay for four weeks.	30118059	1472675836546	1472675836722	o	79
57892	633223	We have been working on clay for four weeks.	We have been working on clay for four weeks.	30118092	1472675836626	1472675836795	u	85
57892	633223	We have been working on clay for four weeks.	We have been working on clay for four weeks.	30118096	1472675836818	1472675836930	r	82
57892	633223	We have been working on clay for four weeks.	We have been working on clay for four weeks.	30118101	1472675836954	1472675837098	 	32
57892	633223	We have been working on clay for four weeks.	We have been working on clay for four weeks.	30118108	1472675837186	1472675837298	w	87
57892	633223	We have been working on clay for four weeks.	We have been working on clay for four weeks.	30118113	1472675837402	1472675837490	e	69
57892	633223	We have been working on clay for four weeks.	We have been working on clay for four weeks.	30118119	1472675837554	1472675837642	e	69
57892	633223	We have been working on clay for four weeks.	We have been working on clay for four weeks.	30118178	1472675837722	1472675837858	k	75
57892	633223	We have been working on clay for four weeks.	We have been working on clay for four weeks.	30118181	1472675837859	1472675837946	d	68
57892	633223	We have been working on clay for four weeks.	We have been working on clay for four weeks.	30118184	1472675837986	1472675838010	s	83
57892	633223	We have been working on clay for four weeks.	We have been working on clay for four weeks.	30118186	1472675838195	1472675838242	BKSP	8
57892	633223	We have been working on clay for four weeks.	We have been working on clay for four weeks.	30118189	1472675838371	1472675838426	BKSP	8
57892	633223	We have been working on clay for four weeks.	We have been working on clay for four weeks.	30118190	1472675838498	1472675838578	s	83
57892	633223	We have been working on clay for four weeks.	We have been working on clay for four weeks.	30118193	1472675838602	1472675838746	.	190
57892	633233	Presumably so do you.	Presumably so do you.	30118297	1472675840826	1472675840970	SHIFT	16
57892	633233	Presumably so do you.	Presumably so do you.	30118304	1472675840923	1472675841018	P	80
57892	633233	Presumably so do you.	Presumably so do you.	30118309	1472675841114	1472675841218	r	82
57892	633233	Presumably so do you.	Presumably so do you.	30118316	1472675841186	1472675841282	e	69
57892	633233	Presumably so do you.	Presumably so do you.	30118320	1472675841402	1472675841506	s	83
57892	633233	Presumably so do you.	Presumably so do you.	30118326	1472675841554	1472675841634	u	85
57892	633233	Presumably so do you.	Presumably so do you.	30118393	1472675841899	1472675841938	a	65
57892	633233	Presumably so do you.	Presumably so do you.	30118398	1472675841939	1472675842034	m	77
57892	633233	Presumably so do you.	Presumably so do you.	30118402	1472675842258	1472675842298	BKSP	8
57892	633233	Presumably so do you.	Presumably so do you.	30118407	1472675842378	1472675842418	BKSP	8
57892	633233	Presumably so do you.	Presumably so do you.	30118410	1472675842570	1472675842674	m	77
57892	633233	Presumably so do you.	Presumably so do you.	30118412	1472675842714	1472675842818	a	65
57892	633233	Presumably so do you.	Presumably so do you.	30118415	1472675842834	1472675842938	b	66
57892	633233	Presumably so do you.	Presumably so do you.	30118449	1472675842986	1472675843138	l	76
57892	633233	Presumably so do you.	Presumably so do you.	30118455	1472675843338	1472675843466	y	89
57892	633233	Presumably so do you.	Presumably so do you.	30118460	1472675843474	1472675843594	 	32
57892	633233	Presumably so do you.	Presumably so do you.	30118466	1472675843642	1472675843738	s	83
57892	633233	Presumably so do you.	Presumably so do you.	30118477	1472675843739	1472675843826	o	79
57892	633233	Presumably so do you.	Presumably so do you.	30118514	1472675843850	1472675843970	 	32
57892	633233	Presumably so do you.	Presumably so do you.	30118517	1472675843986	1472675844075	d	68
57892	633233	Presumably so do you.	Presumably so do you.	30118520	1472675844090	1472675844210	o	79
57892	633233	Presumably so do you.	Presumably so do you.	30118522	1472675844210	1472675844338	 	32
57892	633233	Presumably so do you.	Presumably so do you.	30118526	1472675844466	1472675844562	y	89
57892	633233	Presumably so do you.	Presumably so do you.	30118555	1472675844627	1472675844730	o	79
57892	633233	Presumably so do you.	Presumably so do you.	30118559	1472675844675	1472675844794	u	85
57892	633233	Presumably so do you.	Presumably so do you.	30118564	1472675844922	1472675845010	.	190
57892	633241	What is the status of the Pemex discussions?	What is the status of the Pemex discussions?	30118759	1472675847138	1472675847346	SHIFT	16
57892	633241	What is the status of the Pemex discussions?	What is the status of the Pemex discussions?	30118763	1472675847258	1472675847361	W	87
57892	633241	What is the status of the Pemex discussions?	What is the status of the Pemex discussions?	30118767	1472675847474	1472675847554	h	72
57892	633241	What is the status of the Pemex discussions?	What is the status of the Pemex discussions?	30118769	1472675847594	1472675847706	a	65
57892	633241	What is the status of the Pemex discussions?	What is the status of the Pemex discussions?	30118772	1472675847666	1472675847762	t	84
57892	633241	What is the status of the Pemex discussions?	What is the status of the Pemex discussions?	30118775	1472675847786	1472675847906	 	32
57892	633241	What is the status of the Pemex discussions?	What is the status of the Pemex discussions?	30118795	1472675847946	1472675848058	i	73
57892	633241	What is the status of the Pemex discussions?	What is the status of the Pemex discussions?	30118804	1472675848059	1472675848130	s	83
57892	633241	What is the status of the Pemex discussions?	What is the status of the Pemex discussions?	30118811	1472675848162	1472675848274	 	32
57892	633241	What is the status of the Pemex discussions?	What is the status of the Pemex discussions?	30118816	1472675848314	1472675848394	t	84
57892	633241	What is the status of the Pemex discussions?	What is the status of the Pemex discussions?	30118822	1472675848418	1472675848530	h	72
57892	633241	What is the status of the Pemex discussions?	What is the status of the Pemex discussions?	30118855	1472675848532	1472675848602	e	69
57892	633241	What is the status of the Pemex discussions?	What is the status of the Pemex discussions?	30118864	1472675848610	1472675848746	 	32
57892	633241	What is the status of the Pemex discussions?	What is the status of the Pemex discussions?	30118868	1472675848786	1472675848906	s	83
57892	633241	What is the status of the Pemex discussions?	What is the status of the Pemex discussions?	30118875	1472675848946	1472675849042	t	84
57892	633241	What is the status of the Pemex discussions?	What is the status of the Pemex discussions?	30118881	1472675849099	1472675849202	a	65
57892	633241	What is the status of the Pemex discussions?	What is the status of the Pemex discussions?	30118930	1472675849442	1472675849514	t	84
57892	633241	What is the status of the Pemex discussions?	What is the status of the Pemex discussions?	30118935	1472675849602	1472675849706	u	85
57892	633241	What is the status of the Pemex discussions?	What is the status of the Pemex discussions?	30118939	1472675849770	1472675849866	s	83
57892	633241	What is the status of the Pemex discussions?	What is the status of the Pemex discussions?	30118943	1472675850082	1472675850186	 	32
57892	633241	What is the status of the Pemex discussions?	What is the status of the Pemex discussions?	30118948	1472675850202	1472675850306	o	79
57892	633241	What is the status of the Pemex discussions?	What is the status of the Pemex discussions?	30118961	1472675850331	1472675850426	f	70
57892	633241	What is the status of the Pemex discussions?	What is the status of the Pemex discussions?	30118962	1472675850442	1472675850546	 	32
57892	633241	What is the status of the Pemex discussions?	What is the status of the Pemex discussions?	30118964	1472675850618	1472675850714	t	84
57892	633241	What is the status of the Pemex discussions?	What is the status of the Pemex discussions?	30118966	1472675850715	1472675850818	h	72
57892	633241	What is the status of the Pemex discussions?	What is the status of the Pemex discussions?	30118968	1472675850834	1472675850898	e	69
57892	633241	What is the status of the Pemex discussions?	What is the status of the Pemex discussions?	30119085	1472675850914	1472675851050	 	32
57892	633241	What is the status of the Pemex discussions?	What is the status of the Pemex discussions?	30119091	1472675851082	1472675851298	CAPS_LOCK	20
57892	633241	What is the status of the Pemex discussions?	What is the status of the Pemex discussions?	30119097	1472675851234	1472675851298	P	80
57892	633241	What is the status of the Pemex discussions?	What is the status of the Pemex discussions?	30119103	1472675851643	1472675851715	BKSP	8
57892	633241	What is the status of the Pemex discussions?	What is the status of the Pemex discussions?	30119109	1472675852227	1472675852267	INSERT	45
57892	633241	What is the status of the Pemex discussions?	What is the status of the Pemex discussions?	30119118	1472675852579	1472675852850	SHIFT	16
57892	633241	What is the status of the Pemex discussions?	What is the status of the Pemex discussions?	30119114	1472675852731	1472675852803	p	80
57892	633241	What is the status of the Pemex discussions?	What is the status of the Pemex discussions?	30119122	1472675852979	1472675853043	E	69
57892	633241	What is the status of the Pemex discussions?	What is the status of the Pemex discussions?	30119127	1472675853099	1472675853227	M	77
57892	633241	What is the status of the Pemex discussions?	What is the status of the Pemex discussions?	30119289	1472675853555	1472675853603	BKSP	8
57892	633241	What is the status of the Pemex discussions?	What is the status of the Pemex discussions?	30119294	1472675853691	1472675853731	BKSP	8
57892	633241	What is the status of the Pemex discussions?	What is the status of the Pemex discussions?	30119298	1472675853796	1472675853859	BKSP	8
57892	633241	What is the status of the Pemex discussions?	What is the status of the Pemex discussions?	30119303	1472675853971	1472675854067	CAPS_LOCK	20
57892	633241	What is the status of the Pemex discussions?	What is the status of the Pemex discussions?	30119308	1472675854267	1472675854467	SHIFT	16
57892	633241	What is the status of the Pemex discussions?	What is the status of the Pemex discussions?	30119313	1472675854395	1472675854467	P	80
57892	633241	What is the status of the Pemex discussions?	What is the status of the Pemex discussions?	30119319	1472675854715	1472675854786	m	77
57892	633241	What is the status of the Pemex discussions?	What is the status of the Pemex discussions?	30119323	1472675854986	1472675855034	BKSP	8
57892	633241	What is the status of the Pemex discussions?	What is the status of the Pemex discussions?	30119330	1472675855115	1472675855187	e	69
57892	633241	What is the status of the Pemex discussions?	What is the status of the Pemex discussions?	30119337	1472675855210	1472675855323	m	77
57892	633241	What is the status of the Pemex discussions?	What is the status of the Pemex discussions?	30119342	1472675855627	1472675855691	e	69
57892	633241	What is the status of the Pemex discussions?	What is the status of the Pemex discussions?	30119374	1472675855819	1472675855915	x	88
57892	633241	What is the status of the Pemex discussions?	What is the status of the Pemex discussions?	30119377	1472675856171	1472675856291	 	32
57892	633241	What is the status of the Pemex discussions?	What is the status of the Pemex discussions?	30119380	1472675856331	1472675856403	d	68
57892	633241	What is the status of the Pemex discussions?	What is the status of the Pemex discussions?	30119382	1472675856467	1472675856563	i	73
57892	633241	What is the status of the Pemex discussions?	What is the status of the Pemex discussions?	30119383	1472675856660	1472675856739	s	83
57892	633241	What is the status of the Pemex discussions?	What is the status of the Pemex discussions?	30119411	1472675856996	1472675857083	c	67
57892	633241	What is the status of the Pemex discussions?	What is the status of the Pemex discussions?	30119415	1472675857147	1472675857259	u	85
57892	633241	What is the status of the Pemex discussions?	What is the status of the Pemex discussions?	30119418	1472675857403	1472675857475	s	83
57892	633241	What is the status of the Pemex discussions?	What is the status of the Pemex discussions?	30119421	1472675857571	1472675857651	s	83
57892	633241	What is the status of the Pemex discussions?	What is the status of the Pemex discussions?	30119425	1472675857707	1472675857835	i	73
57892	633241	What is the status of the Pemex discussions?	What is the status of the Pemex discussions?	30119497	1472675857804	1472675857955	o	79
57892	633241	What is the status of the Pemex discussions?	What is the status of the Pemex discussions?	30119498	1472675857899	1472675858067	n	78
57892	633241	What is the status of the Pemex discussions?	What is the status of the Pemex discussions?	30119501	1472675858355	1472675858459	s	83
57892	633241	What is the status of the Pemex discussions?	What is the status of the Pemex discussions?	30119506	1472675858603	1472675858939	SHIFT	16
57892	633241	What is the status of the Pemex discussions?	What is the status of the Pemex discussions?	30119503	1472675858763	1472675858859	?	191
57892	633260	Iraq is particularly keen on getting rid of the oil embargo.	Iraq is particularly keen on getting rid of the oil embargo.	30119736	1472675862307	1472675862491	SHIFT	16
57892	633260	Iraq is particularly keen on getting rid of the oil embargo.	Iraq is particularly keen on getting rid of the oil embargo.	30119738	1472675862451	1472675862547	I	73
57892	633260	Iraq is particularly keen on getting rid of the oil embargo.	Iraq is particularly keen on getting rid of the oil embargo.	30119739	1472675862627	1472675862763	r	82
57892	633260	Iraq is particularly keen on getting rid of the oil embargo.	Iraq is particularly keen on getting rid of the oil embargo.	30119740	1472675862723	1472675862819	a	65
57892	633260	Iraq is particularly keen on getting rid of the oil embargo.	Iraq is particularly keen on getting rid of the oil embargo.	30119742	1472675863075	1472675863171	q	81
57892	633260	Iraq is particularly keen on getting rid of the oil embargo.	Iraq is particularly keen on getting rid of the oil embargo.	30119744	1472675863267	1472675863371	 	32
57892	633260	Iraq is particularly keen on getting rid of the oil embargo.	Iraq is particularly keen on getting rid of the oil embargo.	30119760	1472675863411	1472675863515	i	73
57892	633260	Iraq is particularly keen on getting rid of the oil embargo.	Iraq is particularly keen on getting rid of the oil embargo.	30119767	1472675863515	1472675863602	s	83
57892	633260	Iraq is particularly keen on getting rid of the oil embargo.	Iraq is particularly keen on getting rid of the oil embargo.	30119773	1472675863611	1472675863739	 	32
57892	633260	Iraq is particularly keen on getting rid of the oil embargo.	Iraq is particularly keen on getting rid of the oil embargo.	30119780	1472675863819	1472675863923	p	80
57892	633260	Iraq is particularly keen on getting rid of the oil embargo.	Iraq is particularly keen on getting rid of the oil embargo.	30119789	1472675863923	1472675864051	a	65
57892	633260	Iraq is particularly keen on getting rid of the oil embargo.	Iraq is particularly keen on getting rid of the oil embargo.	30119853	1472675864035	1472675864163	r	82
57892	633260	Iraq is particularly keen on getting rid of the oil embargo.	Iraq is particularly keen on getting rid of the oil embargo.	30119858	1472675864251	1472675864339	t	84
57892	633260	Iraq is particularly keen on getting rid of the oil embargo.	Iraq is particularly keen on getting rid of the oil embargo.	30119861	1472675864467	1472675864587	i	73
57892	633260	Iraq is particularly keen on getting rid of the oil embargo.	Iraq is particularly keen on getting rid of the oil embargo.	30119866	1472675864622	1472675864747	c	67
57892	633260	Iraq is particularly keen on getting rid of the oil embargo.	Iraq is particularly keen on getting rid of the oil embargo.	30119872	1472675864851	1472675864947	u	85
57892	633260	Iraq is particularly keen on getting rid of the oil embargo.	Iraq is particularly keen on getting rid of the oil embargo.	30119875	1472675865042	1472675865130	l	76
57892	633260	Iraq is particularly keen on getting rid of the oil embargo.	Iraq is particularly keen on getting rid of the oil embargo.	30119922	1472675865194	1472675865331	a	65
57892	633260	Iraq is particularly keen on getting rid of the oil embargo.	Iraq is particularly keen on getting rid of the oil embargo.	30119925	1472675865307	1472675865411	r	82
57892	633260	Iraq is particularly keen on getting rid of the oil embargo.	Iraq is particularly keen on getting rid of the oil embargo.	30119930	1472675865499	1472675865547	r	82
57892	633260	Iraq is particularly keen on getting rid of the oil embargo.	Iraq is particularly keen on getting rid of the oil embargo.	30119933	1472675865883	1472675865931	BKSP	8
57892	633260	Iraq is particularly keen on getting rid of the oil embargo.	Iraq is particularly keen on getting rid of the oil embargo.	30119936	1472675866131	1472675866234	l	76
57892	633260	Iraq is particularly keen on getting rid of the oil embargo.	Iraq is particularly keen on getting rid of the oil embargo.	30119940	1472675866250	1472675866331	y	89
57892	633260	Iraq is particularly keen on getting rid of the oil embargo.	Iraq is particularly keen on getting rid of the oil embargo.	30119977	1472675866443	1472675866539	 	32
57892	633260	Iraq is particularly keen on getting rid of the oil embargo.	Iraq is particularly keen on getting rid of the oil embargo.	30119978	1472675866818	1472675866899	k	75
57892	633260	Iraq is particularly keen on getting rid of the oil embargo.	Iraq is particularly keen on getting rid of the oil embargo.	30119980	1472675866939	1472675867010	e	69
57892	633260	Iraq is particularly keen on getting rid of the oil embargo.	Iraq is particularly keen on getting rid of the oil embargo.	30119982	1472675867099	1472675867187	e	69
57892	633260	Iraq is particularly keen on getting rid of the oil embargo.	Iraq is particularly keen on getting rid of the oil embargo.	30119985	1472675867235	1472675867403	n	78
57892	633260	Iraq is particularly keen on getting rid of the oil embargo.	Iraq is particularly keen on getting rid of the oil embargo.	30120023	1472675867331	1472675867459	 	32
57892	633260	Iraq is particularly keen on getting rid of the oil embargo.	Iraq is particularly keen on getting rid of the oil embargo.	30120026	1472675867482	1472675867595	o	79
57892	633260	Iraq is particularly keen on getting rid of the oil embargo.	Iraq is particularly keen on getting rid of the oil embargo.	30120033	1472675867563	1472675867722	n	78
57892	633260	Iraq is particularly keen on getting rid of the oil embargo.	Iraq is particularly keen on getting rid of the oil embargo.	30120041	1472675867675	1472675867803	 	32
57892	633260	Iraq is particularly keen on getting rid of the oil embargo.	Iraq is particularly keen on getting rid of the oil embargo.	30120046	1472675867834	1472675867938	g	71
57892	633260	Iraq is particularly keen on getting rid of the oil embargo.	Iraq is particularly keen on getting rid of the oil embargo.	30120051	1472675868003	1472675868090	e	69
57892	633260	Iraq is particularly keen on getting rid of the oil embargo.	Iraq is particularly keen on getting rid of the oil embargo.	30120074	1472675868123	1472675868219	t	84
57892	633260	Iraq is particularly keen on getting rid of the oil embargo.	Iraq is particularly keen on getting rid of the oil embargo.	30120076	1472675868291	1472675868427	t	84
57892	633260	Iraq is particularly keen on getting rid of the oil embargo.	Iraq is particularly keen on getting rid of the oil embargo.	30120079	1472675868475	1472675868579	i	73
57892	633260	Iraq is particularly keen on getting rid of the oil embargo.	Iraq is particularly keen on getting rid of the oil embargo.	30120080	1472675868539	1472675868699	n	78
57892	633260	Iraq is particularly keen on getting rid of the oil embargo.	Iraq is particularly keen on getting rid of the oil embargo.	30120082	1472675868699	1472675868778	g	71
57892	633260	Iraq is particularly keen on getting rid of the oil embargo.	Iraq is particularly keen on getting rid of the oil embargo.	30120128	1472675868819	1472675868931	 	32
57892	633260	Iraq is particularly keen on getting rid of the oil embargo.	Iraq is particularly keen on getting rid of the oil embargo.	30120134	1472675869026	1472675869131	r	82
57892	633260	Iraq is particularly keen on getting rid of the oil embargo.	Iraq is particularly keen on getting rid of the oil embargo.	30120139	1472675869187	1472675869298	i	73
57892	633260	Iraq is particularly keen on getting rid of the oil embargo.	Iraq is particularly keen on getting rid of the oil embargo.	30120145	1472675869323	1472675869418	d	68
57892	633260	Iraq is particularly keen on getting rid of the oil embargo.	Iraq is particularly keen on getting rid of the oil embargo.	30120149	1472675869499	1472675869619	 	32
57892	633260	Iraq is particularly keen on getting rid of the oil embargo.	Iraq is particularly keen on getting rid of the oil embargo.	30120186	1472675869667	1472675869755	o	79
57892	633260	Iraq is particularly keen on getting rid of the oil embargo.	Iraq is particularly keen on getting rid of the oil embargo.	30120191	1472675869787	1472675869899	f	70
57892	633260	Iraq is particularly keen on getting rid of the oil embargo.	Iraq is particularly keen on getting rid of the oil embargo.	30120195	1472675869899	1472675870011	 	32
57892	633260	Iraq is particularly keen on getting rid of the oil embargo.	Iraq is particularly keen on getting rid of the oil embargo.	30120198	1472675870075	1472675870147	t	84
57892	633260	Iraq is particularly keen on getting rid of the oil embargo.	Iraq is particularly keen on getting rid of the oil embargo.	30120201	1472675870147	1472675870267	h	72
57892	633260	Iraq is particularly keen on getting rid of the oil embargo.	Iraq is particularly keen on getting rid of the oil embargo.	30120249	1472675870268	1472675870355	e	69
57892	633260	Iraq is particularly keen on getting rid of the oil embargo.	Iraq is particularly keen on getting rid of the oil embargo.	30120251	1472675870355	1472675870483	 	32
57892	633260	Iraq is particularly keen on getting rid of the oil embargo.	Iraq is particularly keen on getting rid of the oil embargo.	30120254	1472675870555	1472675870731	o	79
57892	633260	Iraq is particularly keen on getting rid of the oil embargo.	Iraq is particularly keen on getting rid of the oil embargo.	30120257	1472675870867	1472675870923	i	73
57892	633260	Iraq is particularly keen on getting rid of the oil embargo.	Iraq is particularly keen on getting rid of the oil embargo.	30120260	1472675871003	1472675871187	l	76
57892	633260	Iraq is particularly keen on getting rid of the oil embargo.	Iraq is particularly keen on getting rid of the oil embargo.	30120298	1472675871163	1472675871299	 	32
57892	633260	Iraq is particularly keen on getting rid of the oil embargo.	Iraq is particularly keen on getting rid of the oil embargo.	30120300	1472675871331	1472675871411	e	69
57892	633260	Iraq is particularly keen on getting rid of the oil embargo.	Iraq is particularly keen on getting rid of the oil embargo.	30120303	1472675871427	1472675871571	m	77
57892	633260	Iraq is particularly keen on getting rid of the oil embargo.	Iraq is particularly keen on getting rid of the oil embargo.	30120306	1472675871627	1472675871731	b	66
57892	633260	Iraq is particularly keen on getting rid of the oil embargo.	Iraq is particularly keen on getting rid of the oil embargo.	30120309	1472675871827	1472675871963	a	65
57892	633260	Iraq is particularly keen on getting rid of the oil embargo.	Iraq is particularly keen on getting rid of the oil embargo.	30120312	1472675871963	1472675872059	r	82
57892	633260	Iraq is particularly keen on getting rid of the oil embargo.	Iraq is particularly keen on getting rid of the oil embargo.	30120328	1472675872179	1472675872259	g	71
57892	633260	Iraq is particularly keen on getting rid of the oil embargo.	Iraq is particularly keen on getting rid of the oil embargo.	30120331	1472675872291	1472675872395	o	79
57892	633260	Iraq is particularly keen on getting rid of the oil embargo.	Iraq is particularly keen on getting rid of the oil embargo.	30120335	1472675872499	1472675872610	.	190
57892	633278	Are you going to join us for lunch?	Are you going to join us for lunch?	30120467	1472675874467	1472675874626	SHIFT	16
57892	633278	Are you going to join us for lunch?	Are you going to join us for lunch?	30120469	1472675874555	1472675874627	A	65
57892	633278	Are you going to join us for lunch?	Are you going to join us for lunch?	30120472	1472675874770	1472675874883	r	82
57892	633278	Are you going to join us for lunch?	Are you going to join us for lunch?	30120475	1472675874915	1472675875011	e	69
57892	633278	Are you going to join us for lunch?	Are you going to join us for lunch?	30120481	1472675875091	1472675875211	 	32
57892	633278	Are you going to join us for lunch?	Are you going to join us for lunch?	30120486	1472675875274	1472675875363	y	89
57892	633278	Are you going to join us for lunch?	Are you going to join us for lunch?	30120527	1472675875427	1472675875602	o	79
57892	633278	Are you going to join us for lunch?	Are you going to join us for lunch?	30120531	1472675875515	1472675875651	u	85
57892	633278	Are you going to join us for lunch?	Are you going to join us for lunch?	30120535	1472675875667	1472675875796	 	32
57892	633278	Are you going to join us for lunch?	Are you going to join us for lunch?	30120540	1472675875858	1472675875947	g	71
57892	633278	Are you going to join us for lunch?	Are you going to join us for lunch?	30120545	1472675875987	1472675876179	o	79
57892	633278	Are you going to join us for lunch?	Are you going to join us for lunch?	30120580	1472675876082	1472675876299	i	73
57892	633278	Are you going to join us for lunch?	Are you going to join us for lunch?	30120583	1472675876282	1472675876394	n	78
57892	633278	Are you going to join us for lunch?	Are you going to join us for lunch?	30120588	1472675876402	1472675876475	g	71
57892	633278	Are you going to join us for lunch?	Are you going to join us for lunch?	30120591	1472675876531	1472675876643	 	32
57892	633278	Are you going to join us for lunch?	Are you going to join us for lunch?	30120594	1472675876699	1472675876787	t	84
57892	633278	Are you going to join us for lunch?	Are you going to join us for lunch?	30120596	1472675876788	1472675876955	o	79
57892	633278	Are you going to join us for lunch?	Are you going to join us for lunch?	30120645	1472675876883	1472675876995	 	32
57892	633278	Are you going to join us for lunch?	Are you going to join us for lunch?	30120649	1472675877043	1472675877195	j	74
57892	633278	Are you going to join us for lunch?	Are you going to join us for lunch?	30120652	1472675877211	1472675877468	o	79
57892	633278	Are you going to join us for lunch?	Are you going to join us for lunch?	30120654	1472675877362	1472675877594	i	73
57892	633278	Are you going to join us for lunch?	Are you going to join us for lunch?	30120656	1472675877595	1472675877707	n	78
57892	633278	Are you going to join us for lunch?	Are you going to join us for lunch?	30120657	1472675877963	1472675878091	 	32
57892	633278	Are you going to join us for lunch?	Are you going to join us for lunch?	30120713	1472675878379	1472675878483	u	85
57892	633278	Are you going to join us for lunch?	Are you going to join us for lunch?	30120715	1472675878539	1472675878635	s	83
57892	633278	Are you going to join us for lunch?	Are you going to join us for lunch?	30120718	1472675878650	1472675878763	 	32
57892	633278	Are you going to join us for lunch?	Are you going to join us for lunch?	30120720	1472675878843	1472675878907	f	70
57892	633278	Are you going to join us for lunch?	Are you going to join us for lunch?	30120722	1472675878947	1472675879043	o	79
57892	633278	Are you going to join us for lunch?	Are you going to join us for lunch?	30120738	1472675879090	1472675879163	r	82
57892	633278	Are you going to join us for lunch?	Are you going to join us for lunch?	30120742	1472675879211	1472675879323	 	32
57892	633278	Are you going to join us for lunch?	Are you going to join us for lunch?	30120747	1472675879362	1472675879451	l	76
57892	633278	Are you going to join us for lunch?	Are you going to join us for lunch?	30120750	1472675879563	1472675879683	u	85
57892	633278	Are you going to join us for lunch?	Are you going to join us for lunch?	30120855	1472675879659	1472675879803	n	78
57892	633278	Are you going to join us for lunch?	Are you going to join us for lunch?	30120858	1472675879804	1472675879915	c	67
57892	633278	Are you going to join us for lunch?	Are you going to join us for lunch?	30120862	1472675879931	1472675880043	h	72
57892	633278	Are you going to join us for lunch?	Are you going to join us for lunch?	30120869	1472675880083	1472675880467	SHIFT	16
57892	633278	Are you going to join us for lunch?	Are you going to join us for lunch?	30120866	1472675880227	1472675880363	>	190
57892	633278	Are you going to join us for lunch?	Are you going to join us for lunch?	30120871	1472675880731	1472675880778	BKSP	8
57892	633278	Are you going to join us for lunch?	Are you going to join us for lunch?	30120873	1472675880883	1472675881395	SHIFT	16
57892	633278	Are you going to join us for lunch?	Are you going to join us for lunch?	30120876	1472675881339	1472675881395	?	191
57892	633287	She is a Baylor graduate and is very nice.	She is a Baylor graduate and is very nice.	30121050	1472675883851	1472675884043	SHIFT	16
57892	633287	She is a Baylor graduate and is very nice.	She is a Baylor graduate and is very nice.	30121052	1472675883947	1472675884059	S	83
57892	633287	She is a Baylor graduate and is very nice.	She is a Baylor graduate and is very nice.	30121054	1472675884203	1472675884283	h	72
57892	633287	She is a Baylor graduate and is very nice.	She is a Baylor graduate and is very nice.	30121057	1472675884378	1472675884459	e	69
57892	633287	She is a Baylor graduate and is very nice.	She is a Baylor graduate and is very nice.	30121062	1472675884515	1472675884619	 	32
57892	633287	She is a Baylor graduate and is very nice.	She is a Baylor graduate and is very nice.	30121066	1472675884643	1472675884779	i	73
57892	633287	She is a Baylor graduate and is very nice.	She is a Baylor graduate and is very nice.	30121099	1472675884780	1472675884874	s	83
57892	633287	She is a Baylor graduate and is very nice.	She is a Baylor graduate and is very nice.	30121101	1472675884875	1472675884987	 	32
57892	633287	She is a Baylor graduate and is very nice.	She is a Baylor graduate and is very nice.	30121105	1472675885042	1472675885211	SHIFT	16
57892	633287	She is a Baylor graduate and is very nice.	She is a Baylor graduate and is very nice.	30121109	1472675885403	1472675885507	a	65
57892	633287	She is a Baylor graduate and is very nice.	She is a Baylor graduate and is very nice.	30121112	1472675885563	1472675885675	 	32
57892	633287	She is a Baylor graduate and is very nice.	She is a Baylor graduate and is very nice.	30121113	1472675885715	1472675885947	SHIFT	16
57892	633287	She is a Baylor graduate and is very nice.	She is a Baylor graduate and is very nice.	30121140	1472675885858	1472675885948	B	66
57892	633287	She is a Baylor graduate and is very nice.	She is a Baylor graduate and is very nice.	30121142	1472675886050	1472675886147	a	65
57892	633287	She is a Baylor graduate and is very nice.	She is a Baylor graduate and is very nice.	30121144	1472675886195	1472675886299	y	89
57892	633287	She is a Baylor graduate and is very nice.	She is a Baylor graduate and is very nice.	30121146	1472675886443	1472675886523	l	76
57892	633287	She is a Baylor graduate and is very nice.	She is a Baylor graduate and is very nice.	30121149	1472675886635	1472675886698	o	79
57892	633287	She is a Baylor graduate and is very nice.	She is a Baylor graduate and is very nice.	30121154	1472675886755	1472675886826	r	82
57892	633287	She is a Baylor graduate and is very nice.	She is a Baylor graduate and is very nice.	30121179	1472675886859	1472675886995	 	32
57892	633287	She is a Baylor graduate and is very nice.	She is a Baylor graduate and is very nice.	30121180	1472675887083	1472675887163	g	71
57892	633287	She is a Baylor graduate and is very nice.	She is a Baylor graduate and is very nice.	30121181	1472675887275	1472675887419	r	82
57892	633287	She is a Baylor graduate and is very nice.	She is a Baylor graduate and is very nice.	30121184	1472675887419	1472675887514	a	65
57892	633287	She is a Baylor graduate and is very nice.	She is a Baylor graduate and is very nice.	30121186	1472675887611	1472675887683	d	68
57892	633287	She is a Baylor graduate and is very nice.	She is a Baylor graduate and is very nice.	30121234	1472675887707	1472675887827	u	85
57892	633287	She is a Baylor graduate and is very nice.	She is a Baylor graduate and is very nice.	30121238	1472675887866	1472675888027	a	65
57892	633287	She is a Baylor graduate and is very nice.	She is a Baylor graduate and is very nice.	30121243	1472675887995	1472675888122	t	84
57892	633287	She is a Baylor graduate and is very nice.	She is a Baylor graduate and is very nice.	30121247	1472675888235	1472675888315	e	69
57892	633287	She is a Baylor graduate and is very nice.	She is a Baylor graduate and is very nice.	30121250	1472675888403	1472675888539	 	32
57892	633287	She is a Baylor graduate and is very nice.	She is a Baylor graduate and is very nice.	30121275	1472675888611	1472675888714	a	65
57892	633287	She is a Baylor graduate and is very nice.	She is a Baylor graduate and is very nice.	30121280	1472675888763	1472675888859	n	78
57892	633287	She is a Baylor graduate and is very nice.	She is a Baylor graduate and is very nice.	30121288	1472675888907	1472675888994	d	68
57892	633287	She is a Baylor graduate and is very nice.	She is a Baylor graduate and is very nice.	30121292	1472675889027	1472675889155	 	32
57892	633287	She is a Baylor graduate and is very nice.	She is a Baylor graduate and is very nice.	30121294	1472675889163	1472675889274	i	73
57892	633287	She is a Baylor graduate and is very nice.	She is a Baylor graduate and is very nice.	30121309	1472675889315	1472675889403	s	83
57892	633287	She is a Baylor graduate and is very nice.	She is a Baylor graduate and is very nice.	30121313	1472675889434	1472675889555	 	32
57892	633287	She is a Baylor graduate and is very nice.	She is a Baylor graduate and is very nice.	30121317	1472675889658	1472675889755	v	86
57892	633287	She is a Baylor graduate and is very nice.	She is a Baylor graduate and is very nice.	30121322	1472675889867	1472675889978	e	69
57892	633287	She is a Baylor graduate and is very nice.	She is a Baylor graduate and is very nice.	30121325	1472675889979	1472675890082	r	82
57892	633287	She is a Baylor graduate and is very nice.	She is a Baylor graduate and is very nice.	30121339	1472675890130	1472675890235	y	89
57892	633287	She is a Baylor graduate and is very nice.	She is a Baylor graduate and is very nice.	30121340	1472675890235	1472675890347	 	32
57892	633287	She is a Baylor graduate and is very nice.	She is a Baylor graduate and is very nice.	30121341	1472675890418	1472675890539	n	78
57892	633287	She is a Baylor graduate and is very nice.	She is a Baylor graduate and is very nice.	30121342	1472675890539	1472675890666	i	73
57892	633287	She is a Baylor graduate and is very nice.	She is a Baylor graduate and is very nice.	30121343	1472675890642	1472675890762	c	67
57892	633287	She is a Baylor graduate and is very nice.	She is a Baylor graduate and is very nice.	30121345	1472675890738	1472675890859	e	69
57892	633287	She is a Baylor graduate and is very nice.	She is a Baylor graduate and is very nice.	30121346	1472675890899	1472675891026	.	190
57892	633300	But the pact has not entirely calmed the nation's nerves.	But the pact has not entirely calmed the nation's nerves.'	30121475	1472675893138	1472675893330	SHIFT	16
57892	633300	But the pact has not entirely calmed the nation's nerves.	But the pact has not entirely calmed the nation's nerves.'	30121477	1472675893283	1472675893379	B	66
57892	633300	But the pact has not entirely calmed the nation's nerves.	But the pact has not entirely calmed the nation's nerves.'	30121481	1472675893522	1472675893587	u	85
57892	633300	But the pact has not entirely calmed the nation's nerves.	But the pact has not entirely calmed the nation's nerves.'	30121487	1472675893643	1472675893707	t	84
57892	633300	But the pact has not entirely calmed the nation's nerves.	But the pact has not entirely calmed the nation's nerves.'	30121491	1472675893835	1472675893923	 	32
57892	633300	But the pact has not entirely calmed the nation's nerves.	But the pact has not entirely calmed the nation's nerves.'	30121496	1472675894011	1472675894091	t	84
57892	633300	But the pact has not entirely calmed the nation's nerves.	But the pact has not entirely calmed the nation's nerves.'	30121537	1472675894093	1472675894210	h	72
57892	633300	But the pact has not entirely calmed the nation's nerves.	But the pact has not entirely calmed the nation's nerves.'	30121539	1472675894235	1472675894322	e	69
57892	633300	But the pact has not entirely calmed the nation's nerves.	But the pact has not entirely calmed the nation's nerves.'	30121544	1472675894283	1472675894347	 	32
57892	633300	But the pact has not entirely calmed the nation's nerves.	But the pact has not entirely calmed the nation's nerves.'	30121549	1472675894642	1472675894739	p	80
57892	633300	But the pact has not entirely calmed the nation's nerves.	But the pact has not entirely calmed the nation's nerves.'	30121555	1472675894778	1472675894907	a	65
57892	633300	But the pact has not entirely calmed the nation's nerves.	But the pact has not entirely calmed the nation's nerves.'	30121578	1472675894909	1472675895010	c	67
57892	633300	But the pact has not entirely calmed the nation's nerves.	But the pact has not entirely calmed the nation's nerves.'	30121580	1472675895219	1472675895291	t	84
57892	633300	But the pact has not entirely calmed the nation's nerves.	But the pact has not entirely calmed the nation's nerves.'	30121583	1472675895387	1472675895483	 	32
57892	633300	But the pact has not entirely calmed the nation's nerves.	But the pact has not entirely calmed the nation's nerves.'	30121586	1472675895571	1472675895667	h	72
57892	633300	But the pact has not entirely calmed the nation's nerves.	But the pact has not entirely calmed the nation's nerves.'	30121588	1472675895691	1472675895818	a	65
57892	633300	But the pact has not entirely calmed the nation's nerves.	But the pact has not entirely calmed the nation's nerves.'	30121608	1472675895899	1472675895995	s	83
57892	633300	But the pact has not entirely calmed the nation's nerves.	But the pact has not entirely calmed the nation's nerves.'	30121610	1472675896026	1472675896138	 	32
57892	633300	But the pact has not entirely calmed the nation's nerves.	But the pact has not entirely calmed the nation's nerves.'	30121612	1472675896138	1472675896291	n	78
57892	633300	But the pact has not entirely calmed the nation's nerves.	But the pact has not entirely calmed the nation's nerves.'	30121617	1472675896243	1472675896339	o	79
57892	633300	But the pact has not entirely calmed the nation's nerves.	But the pact has not entirely calmed the nation's nerves.'	30121621	1472675896363	1472675896451	t	84
57892	633300	But the pact has not entirely calmed the nation's nerves.	But the pact has not entirely calmed the nation's nerves.'	30121670	1472675896514	1472675896610	 	32
57892	633300	But the pact has not entirely calmed the nation's nerves.	But the pact has not entirely calmed the nation's nerves.'	30121673	1472675896675	1472675896747	e	69
57892	633300	But the pact has not entirely calmed the nation's nerves.	But the pact has not entirely calmed the nation's nerves.'	30121676	1472675896819	1472675896939	n	78
57892	633300	But the pact has not entirely calmed the nation's nerves.	But the pact has not entirely calmed the nation's nerves.'	30121679	1472675897067	1472675897146	t	84
57892	633300	But the pact has not entirely calmed the nation's nerves.	But the pact has not entirely calmed the nation's nerves.'	30121684	1472675897259	1472675897394	i	73
57892	633300	But the pact has not entirely calmed the nation's nerves.	But the pact has not entirely calmed the nation's nerves.'	30121723	1472675897427	1472675897546	r	82
57892	633300	But the pact has not entirely calmed the nation's nerves.	But the pact has not entirely calmed the nation's nerves.'	30121726	1472675897514	1472675897610	e	69
57892	633300	But the pact has not entirely calmed the nation's nerves.	But the pact has not entirely calmed the nation's nerves.'	30121729	1472675897851	1472675897955	l	76
57892	633300	But the pact has not entirely calmed the nation's nerves.	But the pact has not entirely calmed the nation's nerves.'	30121732	1472675898074	1472675898170	y	89
57892	633300	But the pact has not entirely calmed the nation's nerves.	But the pact has not entirely calmed the nation's nerves.'	30121736	1472675898227	1472675898331	 	32
57892	633300	But the pact has not entirely calmed the nation's nerves.	But the pact has not entirely calmed the nation's nerves.'	30121773	1472675898427	1472675898603	c	67
57892	633300	But the pact has not entirely calmed the nation's nerves.	But the pact has not entirely calmed the nation's nerves.'	30121777	1472675898587	1472675898747	a	65
57892	633300	But the pact has not entirely calmed the nation's nerves.	But the pact has not entirely calmed the nation's nerves.'	30121779	1472675898898	1472675898995	l	76
57892	633300	But the pact has not entirely calmed the nation's nerves.	But the pact has not entirely calmed the nation's nerves.'	30121781	1472675899067	1472675899178	m	77
57892	633300	But the pact has not entirely calmed the nation's nerves.	But the pact has not entirely calmed the nation's nerves.'	30121782	1472675899379	1472675899459	e	69
57892	633300	But the pact has not entirely calmed the nation's nerves.	But the pact has not entirely calmed the nation's nerves.'	30121816	1472675899555	1472675899626	d	68
57892	633300	But the pact has not entirely calmed the nation's nerves.	But the pact has not entirely calmed the nation's nerves.'	30121820	1472675899667	1472675899770	 	32
57892	633300	But the pact has not entirely calmed the nation's nerves.	But the pact has not entirely calmed the nation's nerves.'	30121825	1472675899850	1472675899931	t	84
57892	633300	But the pact has not entirely calmed the nation's nerves.	But the pact has not entirely calmed the nation's nerves.'	30121829	1472675899931	1472675900035	h	72
57892	633300	But the pact has not entirely calmed the nation's nerves.	But the pact has not entirely calmed the nation's nerves.'	30121832	1472675900051	1472675900122	e	69
57892	633300	But the pact has not entirely calmed the nation's nerves.	But the pact has not entirely calmed the nation's nerves.'	30121844	1472675900163	1472675900259	 	32
57892	633300	But the pact has not entirely calmed the nation's nerves.	But the pact has not entirely calmed the nation's nerves.'	30121846	1472675900299	1472675900426	n	78
57892	633300	But the pact has not entirely calmed the nation's nerves.	But the pact has not entirely calmed the nation's nerves.'	30121848	1472675900387	1472675900514	a	65
57892	633300	But the pact has not entirely calmed the nation's nerves.	But the pact has not entirely calmed the nation's nerves.'	30121849	1472675900483	1472675900586	t	84
57892	633300	But the pact has not entirely calmed the nation's nerves.	But the pact has not entirely calmed the nation's nerves.'	30121850	1472675900619	1472675900771	i	73
57892	633300	But the pact has not entirely calmed the nation's nerves.	But the pact has not entirely calmed the nation's nerves.'	30121901	1472675900746	1472675900875	o	79
57892	633300	But the pact has not entirely calmed the nation's nerves.	But the pact has not entirely calmed the nation's nerves.'	30121904	1472675900826	1472675900994	n	78
57892	633300	But the pact has not entirely calmed the nation's nerves.	But the pact has not entirely calmed the nation's nerves.'	30121906	1472675901082	1472675901227	'	222
57892	633300	But the pact has not entirely calmed the nation's nerves.	But the pact has not entirely calmed the nation's nerves.'	30121908	1472675901258	1472675901347	s	83
57892	633300	But the pact has not entirely calmed the nation's nerves.	But the pact has not entirely calmed the nation's nerves.'	30121909	1472675901459	1472675901563	 	32
57892	633300	But the pact has not entirely calmed the nation's nerves.	But the pact has not entirely calmed the nation's nerves.'	30121910	1472675901626	1472675901747	n	78
57892	633300	But the pact has not entirely calmed the nation's nerves.	But the pact has not entirely calmed the nation's nerves.'	30121917	1472675901748	1472675901859	e	69
57892	633300	But the pact has not entirely calmed the nation's nerves.	But the pact has not entirely calmed the nation's nerves.'	30121918	1472675901891	1472675901987	r	82
57892	633300	But the pact has not entirely calmed the nation's nerves.	But the pact has not entirely calmed the nation's nerves.'	30121919	1472675902107	1472675902211	v	86
57892	633300	But the pact has not entirely calmed the nation's nerves.	But the pact has not entirely calmed the nation's nerves.'	30121921	1472675902347	1472675902427	e	69
57892	633300	But the pact has not entirely calmed the nation's nerves.	But the pact has not entirely calmed the nation's nerves.'	30121923	1472675902506	1472675902602	s	83
57892	633300	But the pact has not entirely calmed the nation's nerves.	But the pact has not entirely calmed the nation's nerves.'	30121931	1472675902626	1472675902778	.	190
57892	633307	The event reopens debate on the issue.	The even reopens debate on the issue.	30122036	1472675904939	1472675905058	SHIFT	16
57892	633307	The event reopens debate on the issue.	The even reopens debate on the issue.	30122038	1472675905035	1472675905123	T	84
57892	633307	The event reopens debate on the issue.	The even reopens debate on the issue.	30122040	1472675905210	1472675905306	h	72
57892	633307	The event reopens debate on the issue.	The even reopens debate on the issue.	30122042	1472675905322	1472675905387	e	69
57892	633307	The event reopens debate on the issue.	The even reopens debate on the issue.	30122044	1472675905427	1472675905523	 	32
57892	633307	The event reopens debate on the issue.	The even reopens debate on the issue.	30122045	1472675905610	1472675905691	e	69
57892	633307	The event reopens debate on the issue.	The even reopens debate on the issue.	30122073	1472675905731	1472675905843	v	86
57892	633307	The event reopens debate on the issue.	The even reopens debate on the issue.	30122075	1472675905891	1472675905986	e	69
57892	633307	The event reopens debate on the issue.	The even reopens debate on the issue.	30122077	1472675906042	1472675906178	n	78
57892	633307	The event reopens debate on the issue.	The even reopens debate on the issue.	30122078	1472675906146	1472675906291	 	32
57892	633307	The event reopens debate on the issue.	The even reopens debate on the issue.	30122080	1472675906443	1472675906547	r	82
57892	633307	The event reopens debate on the issue.	The even reopens debate on the issue.	30122125	1472675906587	1472675906675	e	69
57892	633307	The event reopens debate on the issue.	The even reopens debate on the issue.	30122126	1472675906963	1472675907051	p	80
57892	633307	The event reopens debate on the issue.	The even reopens debate on the issue.	30122127	1472675907387	1472675907451	BKSP	8
57892	633307	The event reopens debate on the issue.	The even reopens debate on the issue.	30122128	1472675907867	1472675908027	o	79
57892	633307	The event reopens debate on the issue.	The even reopens debate on the issue.	30122129	1472675908027	1472675908114	p	80
57892	633307	The event reopens debate on the issue.	The even reopens debate on the issue.	30122130	1472675908171	1472675908250	e	69
57892	633307	The event reopens debate on the issue.	The even reopens debate on the issue.	30122148	1472675908299	1472675908435	n	78
57892	633307	The event reopens debate on the issue.	The even reopens debate on the issue.	30122154	1472675908514	1472675908611	s	83
57892	633307	The event reopens debate on the issue.	The even reopens debate on the issue.	30122158	1472675908666	1472675908795	 	32
57892	633307	The event reopens debate on the issue.	The even reopens debate on the issue.	30122165	1472675908994	1472675909091	d	68
57892	633307	The event reopens debate on the issue.	The even reopens debate on the issue.	30122168	1472675909211	1472675909274	e	69
57892	633307	The event reopens debate on the issue.	The even reopens debate on the issue.	30122196	1472675909386	1472675909474	b	66
57892	633307	The event reopens debate on the issue.	The even reopens debate on the issue.	30122197	1472675909518	1472675909667	a	65
57892	633307	The event reopens debate on the issue.	The even reopens debate on the issue.	30122199	1472675909699	1472675909794	t	84
57892	633307	The event reopens debate on the issue.	The even reopens debate on the issue.	30122200	1472675909883	1472675909946	e	69
57892	633307	The event reopens debate on the issue.	The even reopens debate on the issue.	30122201	1472675910043	1472675910147	 	32
57892	633307	The event reopens debate on the issue.	The even reopens debate on the issue.	30122228	1472675910186	1472675910314	o	79
57892	633307	The event reopens debate on the issue.	The even reopens debate on the issue.	30122229	1472675910267	1472675910435	n	78
57892	633307	The event reopens debate on the issue.	The even reopens debate on the issue.	30122230	1472675910659	1472675910763	 	32
57892	633307	The event reopens debate on the issue.	The even reopens debate on the issue.	30122233	1472675910850	1472675910907	t	84
57892	633307	The event reopens debate on the issue.	The even reopens debate on the issue.	30122236	1472675910954	1472675911050	h	72
57892	633307	The event reopens debate on the issue.	The even reopens debate on the issue.	30122262	1472675911091	1472675911155	e	69
57892	633307	The event reopens debate on the issue.	The even reopens debate on the issue.	30122263	1472675911283	1472675911395	 	32
57892	633307	The event reopens debate on the issue.	The even reopens debate on the issue.	30122264	1472675911570	1472675911675	i	73
57892	633307	The event reopens debate on the issue.	The even reopens debate on the issue.	30122265	1472675911706	1472675911771	s	83
57892	633307	The event reopens debate on the issue.	The even reopens debate on the issue.	30122266	1472675911874	1472675911931	s	83
57892	633307	The event reopens debate on the issue.	The even reopens debate on the issue.	30122320	1472675912235	1472675912306	u	85
57892	633307	The event reopens debate on the issue.	The even reopens debate on the issue.	30122323	1472675912419	1472675912507	e	69
57892	633307	The event reopens debate on the issue.	The even reopens debate on the issue.	30122326	1472675912580	1472675912675	.	190
57892	633318	That's a fair trade off.	That's a fair trade off.	30122424	1472675914635	1472675914786	SHIFT	16
57892	633318	That's a fair trade off.	That's a fair trade off.	30122427	1472675914730	1472675914826	T	84
57892	633318	That's a fair trade off.	That's a fair trade off.	30122432	1472675914898	1472675915011	h	72
57892	633318	That's a fair trade off.	That's a fair trade off.	30122437	1472675915043	1472675915162	a	65
57892	633318	That's a fair trade off.	That's a fair trade off.	30122443	1472675915163	1472675915258	t	84
57892	633318	That's a fair trade off.	That's a fair trade off.	30122452	1472675915491	1472675915563	s	83
57892	633318	That's a fair trade off.	That's a fair trade off.	30122505	1472675915619	1472675915746	 	32
57892	633318	That's a fair trade off.	That's a fair trade off.	30122507	1472675915899	1472675915987	a	65
57892	633318	That's a fair trade off.	That's a fair trade off.	30122508	1472675916082	1472675916203	 	32
57892	633318	That's a fair trade off.	That's a fair trade off.	30122509	1472675916378	1472675916515	f	70
57892	633318	That's a fair trade off.	That's a fair trade off.	30122510	1472675916538	1472675916635	a	65
57892	633318	That's a fair trade off.	That's a fair trade off.	30122532	1472675916658	1472675916770	i	73
57892	633318	That's a fair trade off.	That's a fair trade off.	30122535	1472675916794	1472675916890	r	82
57892	633318	That's a fair trade off.	That's a fair trade off.	30122538	1472675916915	1472675917027	 	32
57892	633318	That's a fair trade off.	That's a fair trade off.	30122541	1472675917098	1472675917202	t	84
57892	633318	That's a fair trade off.	That's a fair trade off.	30122544	1472675917266	1472675917418	r	82
57892	633318	That's a fair trade off.	That's a fair trade off.	30122565	1472675917378	1472675917515	a	65
57892	633318	That's a fair trade off.	That's a fair trade off.	30122566	1472675917610	1472675917674	d	68
57892	633318	That's a fair trade off.	That's a fair trade off.	30122567	1472675917778	1472675917843	e	69
57892	633318	That's a fair trade off.	That's a fair trade off.	30122570	1472675917898	1472675917986	 	32
57892	633318	That's a fair trade off.	That's a fair trade off.	30122572	1472675918027	1472675918115	o	79
57892	633318	That's a fair trade off.	That's a fair trade off.	30122573	1472675918115	1472675918227	f	70
57892	633318	That's a fair trade off.	That's a fair trade off.	30122599	1472675918547	1472675918635	f	70
57892	633318	That's a fair trade off.	That's a fair trade off.	30122604	1472675918699	1472675918803	.	190
57892	633325	I just want to make sure we're both on the same schedule.	I just want to make sure we're both on the same schedule.	30122732	1472675920795	1472675920970	SHIFT	16
57892	633325	I just want to make sure we're both on the same schedule.	I just want to make sure we're both on the same schedule.	30122737	1472675920930	1472675921034	I	73
57892	633325	I just want to make sure we're both on the same schedule.	I just want to make sure we're both on the same schedule.	30122742	1472675921114	1472675921211	 	32
57892	633325	I just want to make sure we're both on the same schedule.	I just want to make sure we're both on the same schedule.	30122748	1472675921194	1472675921330	j	74
57892	633325	I just want to make sure we're both on the same schedule.	I just want to make sure we're both on the same schedule.	30122750	1472675921387	1472675921458	u	85
57892	633325	I just want to make sure we're both on the same schedule.	I just want to make sure we're both on the same schedule.	30122754	1472675921474	1472675921586	s	83
57892	633325	I just want to make sure we're both on the same schedule.	I just want to make sure we're both on the same schedule.	30122792	1472675921554	1472675921682	t	84
57892	633325	I just want to make sure we're both on the same schedule.	I just want to make sure we're both on the same schedule.	30122794	1472675921683	1472675921803	 	32
57892	633325	I just want to make sure we're both on the same schedule.	I just want to make sure we're both on the same schedule.	30122795	1472675921874	1472675921939	w	87
57892	633325	I just want to make sure we're both on the same schedule.	I just want to make sure we're both on the same schedule.	30122796	1472675922010	1472675922138	a	65
57892	633325	I just want to make sure we're both on the same schedule.	I just want to make sure we're both on the same schedule.	30122797	1472675922139	1472675922251	n	78
57892	633325	I just want to make sure we're both on the same schedule.	I just want to make sure we're both on the same schedule.	30122798	1472675922291	1472675922370	t	84
57892	633325	I just want to make sure we're both on the same schedule.	I just want to make sure we're both on the same schedule.	30122843	1472675922435	1472675922547	 	32
57892	633325	I just want to make sure we're both on the same schedule.	I just want to make sure we're both on the same schedule.	30122848	1472675922602	1472675922683	t	84
57892	633325	I just want to make sure we're both on the same schedule.	I just want to make sure we're both on the same schedule.	30122855	1472675922683	1472675922787	o	79
57892	633325	I just want to make sure we're both on the same schedule.	I just want to make sure we're both on the same schedule.	30122859	1472675922763	1472675922882	 	32
57892	633325	I just want to make sure we're both on the same schedule.	I just want to make sure we're both on the same schedule.	30122864	1472675923114	1472675923251	m	77
57892	633325	I just want to make sure we're both on the same schedule.	I just want to make sure we're both on the same schedule.	30122896	1472675923338	1472675923418	k	75
57892	633325	I just want to make sure we're both on the same schedule.	I just want to make sure we're both on the same schedule.	30122899	1472675923459	1472675923554	a	65
57892	633325	I just want to make sure we're both on the same schedule.	I just want to make sure we're both on the same schedule.	30122902	1472675923666	1472675923722	BKSP	8
57892	633325	I just want to make sure we're both on the same schedule.	I just want to make sure we're both on the same schedule.	30122909	1472675923795	1472675923859	BKSP	8
57892	633325	I just want to make sure we're both on the same schedule.	I just want to make sure we're both on the same schedule.	30122913	1472675923931	1472675924026	a	65
57892	633325	I just want to make sure we're both on the same schedule.	I just want to make sure we're both on the same schedule.	30122917	1472675924026	1472675924155	k	75
57892	633325	I just want to make sure we're both on the same schedule.	I just want to make sure we're both on the same schedule.	30122920	1472675924186	1472675924258	e	69
57892	633325	I just want to make sure we're both on the same schedule.	I just want to make sure we're both on the same schedule.	30122939	1472675924299	1472675924418	 	32
57892	633325	I just want to make sure we're both on the same schedule.	I just want to make sure we're both on the same schedule.	30122943	1472675924506	1472675924595	s	83
57892	633325	I just want to make sure we're both on the same schedule.	I just want to make sure we're both on the same schedule.	30122946	1472675924571	1472675924683	u	85
57892	633325	I just want to make sure we're both on the same schedule.	I just want to make sure we're both on the same schedule.	30122951	1472675924771	1472675924858	r	82
57892	633325	I just want to make sure we're both on the same schedule.	I just want to make sure we're both on the same schedule.	30123003	1472675924819	1472675924915	e	69
57892	633325	I just want to make sure we're both on the same schedule.	I just want to make sure we're both on the same schedule.	30123007	1472675924954	1472675925083	 	32
57892	633325	I just want to make sure we're both on the same schedule.	I just want to make sure we're both on the same schedule.	30123011	1472675925155	1472675925315	w	87
57892	633325	I just want to make sure we're both on the same schedule.	I just want to make sure we're both on the same schedule.	30123013	1472675925274	1472675925403	e	69
57892	633325	I just want to make sure we're both on the same schedule.	I just want to make sure we're both on the same schedule.	30123016	1472675925626	1472675925754	'	222
57892	633325	I just want to make sure we're both on the same schedule.	I just want to make sure we're both on the same schedule.	30123018	1472675925835	1472675925963	r	82
57892	633325	I just want to make sure we're both on the same schedule.	I just want to make sure we're both on the same schedule.	30123066	1472675925915	1472675926019	e	69
57892	633325	I just want to make sure we're both on the same schedule.	I just want to make sure we're both on the same schedule.	30123069	1472675926162	1472675926290	 	32
57892	633325	I just want to make sure we're both on the same schedule.	I just want to make sure we're both on the same schedule.	30123072	1472675926538	1472675926570	v	86
57892	633325	I just want to make sure we're both on the same schedule.	I just want to make sure we're both on the same schedule.	30123075	1472675926946	1472675927003	BKSP	8
57892	633325	I just want to make sure we're both on the same schedule.	I just want to make sure we're both on the same schedule.	30123080	1472675927099	1472675927186	b	66
57892	633325	I just want to make sure we're both on the same schedule.	I just want to make sure we're both on the same schedule.	30123083	1472675927259	1472675927347	o	79
57892	633325	I just want to make sure we're both on the same schedule.	I just want to make sure we're both on the same schedule.	30123087	1472675927410	1472675927483	t	84
57892	633325	I just want to make sure we're both on the same schedule.	I just want to make sure we're both on the same schedule.	30123102	1472675927538	1472675927658	h	72
57892	633325	I just want to make sure we're both on the same schedule.	I just want to make sure we're both on the same schedule.	30123104	1472675927659	1472675927786	 	32
57892	633325	I just want to make sure we're both on the same schedule.	I just want to make sure we're both on the same schedule.	30123110	1472675927891	1472675928027	o	79
57892	633325	I just want to make sure we're both on the same schedule.	I just want to make sure we're both on the same schedule.	30123118	1472675928019	1472675928170	n	78
57892	633325	I just want to make sure we're both on the same schedule.	I just want to make sure we're both on the same schedule.	30123157	1472675928131	1472675928267	 	32
57892	633325	I just want to make sure we're both on the same schedule.	I just want to make sure we're both on the same schedule.	30123159	1472675928355	1472675928443	t	84
57892	633325	I just want to make sure we're both on the same schedule.	I just want to make sure we're both on the same schedule.	30123161	1472675928467	1472675928571	h	72
57892	633325	I just want to make sure we're both on the same schedule.	I just want to make sure we're both on the same schedule.	30123163	1472675928602	1472675928682	e	69
57892	633325	I just want to make sure we're both on the same schedule.	I just want to make sure we're both on the same schedule.	30123169	1472675928787	1472675928931	 	32
57892	633325	I just want to make sure we're both on the same schedule.	I just want to make sure we're both on the same schedule.	30123173	1472675929034	1472675929147	s	83
57892	633325	I just want to make sure we're both on the same schedule.	I just want to make sure we're both on the same schedule.	30123197	1472675929211	1472675929307	a	65
57892	633325	I just want to make sure we're both on the same schedule.	I just want to make sure we're both on the same schedule.	30123198	1472675929307	1472675929458	m	77
57892	633325	I just want to make sure we're both on the same schedule.	I just want to make sure we're both on the same schedule.	30123200	1472675929435	1472675929514	e	69
57892	633325	I just want to make sure we're both on the same schedule.	I just want to make sure we're both on the same schedule.	30123202	1472675929626	1472675929731	 	32
57892	633325	I just want to make sure we're both on the same schedule.	I just want to make sure we're both on the same schedule.	30123204	1472675929834	1472675929931	c	67
57892	633325	I just want to make sure we're both on the same schedule.	I just want to make sure we're both on the same schedule.	30123243	1472675930171	1472675930226	BKSP	8
57892	633325	I just want to make sure we're both on the same schedule.	I just want to make sure we're both on the same schedule.	30123245	1472675930267	1472675930362	s	83
57892	633325	I just want to make sure we're both on the same schedule.	I just want to make sure we're both on the same schedule.	30123251	1472675930322	1472675930451	c	67
57892	633325	I just want to make sure we're both on the same schedule.	I just want to make sure we're both on the same schedule.	30123256	1472675930474	1472675930595	h	72
57892	633325	I just want to make sure we're both on the same schedule.	I just want to make sure we're both on the same schedule.	30123260	1472675930643	1472675930722	e	69
57892	633325	I just want to make sure we're both on the same schedule.	I just want to make sure we're both on the same schedule.	30123264	1472675930842	1472675930898	d	68
57892	633325	I just want to make sure we're both on the same schedule.	I just want to make sure we're both on the same schedule.	30123312	1472675930962	1472675931058	u	85
57892	633325	I just want to make sure we're both on the same schedule.	I just want to make sure we're both on the same schedule.	30123314	1472675931210	1472675931306	l	76
57892	633325	I just want to make sure we're both on the same schedule.	I just want to make sure we're both on the same schedule.	30123317	1472675931362	1472675931419	e	69
57892	633325	I just want to make sure we're both on the same schedule.	I just want to make sure we're both on the same schedule.	30123319	1472675931443	1472675931555	.	190
57892	633339	I am working on the November producers today as a matter of fact.	I am working on the November producers today as a matter of fact/	30123420	1472675933386	1472675933594	SHIFT	16
57892	633339	I am working on the November producers today as a matter of fact.	I am working on the November producers today as a matter of fact/	30123421	1472675933490	1472675933595	I	73
57892	633339	I am working on the November producers today as a matter of fact.	I am working on the November producers today as a matter of fact/	30123422	1472675933675	1472675933794	 	32
57892	633339	I am working on the November producers today as a matter of fact.	I am working on the November producers today as a matter of fact/	30123423	1472675933835	1472675933946	a	65
57892	633339	I am working on the November producers today as a matter of fact.	I am working on the November producers today as a matter of fact/	30123424	1472675933906	1472675934091	m	77
57892	633339	I am working on the November producers today as a matter of fact.	I am working on the November producers today as a matter of fact/	30123458	1472675934067	1472675934187	 	32
57892	633339	I am working on the November producers today as a matter of fact.	I am working on the November producers today as a matter of fact/	30123464	1472675934242	1472675934339	w	87
57892	633339	I am working on the November producers today as a matter of fact.	I am working on the November producers today as a matter of fact/	30123468	1472675934370	1472675934458	o	79
57892	633339	I am working on the November producers today as a matter of fact.	I am working on the November producers today as a matter of fact/	30123471	1472675934499	1472675934594	r	82
57892	633339	I am working on the November producers today as a matter of fact.	I am working on the November producers today as a matter of fact/	30123473	1472675934626	1472675934722	k	75
57892	633339	I am working on the November producers today as a matter of fact.	I am working on the November producers today as a matter of fact/	30123474	1472675934827	1472675934954	i	73
57892	633339	I am working on the November producers today as a matter of fact.	I am working on the November producers today as a matter of fact/	30123482	1472675934923	1472675935042	n	78
57892	633339	I am working on the November producers today as a matter of fact.	I am working on the November producers today as a matter of fact/	30123484	1472675935059	1472675935146	g	71
57892	633339	I am working on the November producers today as a matter of fact.	I am working on the November producers today as a matter of fact/	30123486	1472675935211	1472675935338	 	32
57892	633339	I am working on the November producers today as a matter of fact.	I am working on the November producers today as a matter of fact/	30123489	1472675935379	1472675935506	o	79
57892	633339	I am working on the November producers today as a matter of fact.	I am working on the November producers today as a matter of fact/	30123492	1472675935474	1472675935658	n	78
57892	633339	I am working on the November producers today as a matter of fact.	I am working on the November producers today as a matter of fact/	30123523	1472675935611	1472675935754	 	32
57892	633339	I am working on the November producers today as a matter of fact.	I am working on the November producers today as a matter of fact/	30123525	1472675935810	1472675935891	t	84
57892	633339	I am working on the November producers today as a matter of fact.	I am working on the November producers today as a matter of fact/	30123529	1472675935922	1472675936043	h	72
57892	633339	I am working on the November producers today as a matter of fact.	I am working on the November producers today as a matter of fact/	30123534	1472675936043	1472675936123	e	69
57892	633339	I am working on the November producers today as a matter of fact.	I am working on the November producers today as a matter of fact/	30123538	1472675936195	1472675936298	 	32
57892	633339	I am working on the November producers today as a matter of fact.	I am working on the November producers today as a matter of fact/	30123607	1472675936330	1472675936619	SHIFT	16
57892	633339	I am working on the November producers today as a matter of fact.	I am working on the November producers today as a matter of fact/	30123539	1472675936410	1472675936539	N	78
57892	633339	I am working on the November producers today as a matter of fact.	I am working on the November producers today as a matter of fact/	30123610	1472675936754	1472675936859	o	79
57892	633339	I am working on the November producers today as a matter of fact.	I am working on the November producers today as a matter of fact/	30123617	1472675936891	1472675936987	v	86
57892	633339	I am working on the November producers today as a matter of fact.	I am working on the November producers today as a matter of fact/	30123621	1472675937059	1472675937187	e	69
57892	633339	I am working on the November producers today as a matter of fact.	I am working on the November producers today as a matter of fact/	30123625	1472675937251	1472675937394	n	78
57892	633339	I am working on the November producers today as a matter of fact.	I am working on the November producers today as a matter of fact/	30123629	1472675937706	1472675937747	BKSP	8
57892	633339	I am working on the November producers today as a matter of fact.	I am working on the November producers today as a matter of fact/	30123633	1472675937906	1472675938002	m	77
57892	633339	I am working on the November producers today as a matter of fact.	I am working on the November producers today as a matter of fact/	30123690	1472675938067	1472675938138	b	66
57892	633339	I am working on the November producers today as a matter of fact.	I am working on the November producers today as a matter of fact/	30123695	1472675938267	1472675938411	e	69
57892	633339	I am working on the November producers today as a matter of fact.	I am working on the November producers today as a matter of fact/	30123699	1472675938450	1472675938506	r	82
57892	633339	I am working on the November producers today as a matter of fact.	I am working on the November producers today as a matter of fact/	30123703	1472675938779	1472675938899	 	32
57892	633339	I am working on the November producers today as a matter of fact.	I am working on the November producers today as a matter of fact/	30123707	1472675938899	1472675939058	p	80
57892	633339	I am working on the November producers today as a matter of fact.	I am working on the November producers today as a matter of fact/	30123756	1472675939083	1472675939178	r	82
57892	633339	I am working on the November producers today as a matter of fact.	I am working on the November producers today as a matter of fact/	30123759	1472675939179	1472675939274	e	69
57892	633339	I am working on the November producers today as a matter of fact.	I am working on the November producers today as a matter of fact/	30123761	1472675939507	1472675939579	d	68
57892	633339	I am working on the November producers today as a matter of fact.	I am working on the November producers today as a matter of fact/	30123763	1472675939763	1472675939851	u	85
57892	633339	I am working on the November producers today as a matter of fact.	I am working on the November producers today as a matter of fact/	30123766	1472675940130	1472675940186	BKSP	8
57892	633339	I am working on the November producers today as a matter of fact.	I am working on the November producers today as a matter of fact/	30123771	1472675940266	1472675940323	BKSP	8
57892	633339	I am working on the November producers today as a matter of fact.	I am working on the November producers today as a matter of fact/	30123775	1472675940386	1472675940450	BKSP	8
57892	633339	I am working on the November producers today as a matter of fact.	I am working on the November producers today as a matter of fact/	30123779	1472675940955	1472675941026	o	79
57892	633339	I am working on the November producers today as a matter of fact.	I am working on the November producers today as a matter of fact/	30123797	1472675941123	1472675941187	d	68
57892	633339	I am working on the November producers today as a matter of fact.	I am working on the November producers today as a matter of fact/	30123799	1472675941299	1472675941371	u	85
57892	633339	I am working on the November producers today as a matter of fact.	I am working on the November producers today as a matter of fact/	30123802	1472675941435	1472675941555	c	67
57892	633339	I am working on the November producers today as a matter of fact.	I am working on the November producers today as a matter of fact/	30123805	1472675941578	1472675941755	e	69
57892	633339	I am working on the November producers today as a matter of fact.	I am working on the November producers today as a matter of fact/	30123855	1472675941739	1472675941851	r	82
57892	633339	I am working on the November producers today as a matter of fact.	I am working on the November producers today as a matter of fact/	30123857	1472675941890	1472675941970	e	69
57892	633339	I am working on the November producers today as a matter of fact.	I am working on the November producers today as a matter of fact/	30123861	1472675942218	1472675942267	BKSP	8
57892	633339	I am working on the November producers today as a matter of fact.	I am working on the November producers today as a matter of fact/	30123865	1472675942322	1472675942411	s	83
57892	633339	I am working on the November producers today as a matter of fact.	I am working on the November producers today as a matter of fact/	30123871	1472675942450	1472675942578	 	32
57892	633339	I am working on the November producers today as a matter of fact.	I am working on the November producers today as a matter of fact/	30123876	1472675942658	1472675942754	t	84
57892	633339	I am working on the November producers today as a matter of fact.	I am working on the November producers today as a matter of fact/	30123882	1472675942802	1472675942906	o	79
57892	633339	I am working on the November producers today as a matter of fact.	I am working on the November producers today as a matter of fact/	30123918	1472675942995	1472675943099	d	68
57892	633339	I am working on the November producers today as a matter of fact.	I am working on the November producers today as a matter of fact/	30123920	1472675943170	1472675943266	a	65
57892	633339	I am working on the November producers today as a matter of fact.	I am working on the November producers today as a matter of fact/	30123924	1472675943299	1472675943410	y	89
57892	633339	I am working on the November producers today as a matter of fact.	I am working on the November producers today as a matter of fact/	30123928	1472675943443	1472675943555	 	32
57892	633339	I am working on the November producers today as a matter of fact.	I am working on the November producers today as a matter of fact/	30123931	1472675943626	1472675943730	a	65
57892	633339	I am working on the November producers today as a matter of fact.	I am working on the November producers today as a matter of fact/	30123992	1472675943850	1472675943955	s	83
57892	633339	I am working on the November producers today as a matter of fact.	I am working on the November producers today as a matter of fact/	30123996	1472675944034	1472675944138	 	32
57892	633339	I am working on the November producers today as a matter of fact.	I am working on the November producers today as a matter of fact/	30124002	1472675944139	1472675944228	a	65
57892	633339	I am working on the November producers today as a matter of fact.	I am working on the November producers today as a matter of fact/	30124011	1472675944282	1472675944411	m	77
57892	633339	I am working on the November producers today as a matter of fact.	I am working on the November producers today as a matter of fact/	30124017	1472675944778	1472675944818	BKSP	8
57892	633339	I am working on the November producers today as a matter of fact.	I am working on the November producers today as a matter of fact/	30124025	1472675944962	1472675945066	 	32
57892	633339	I am working on the November producers today as a matter of fact.	I am working on the November producers today as a matter of fact/	30124042	1472675945123	1472675945282	m	77
57892	633339	I am working on the November producers today as a matter of fact.	I am working on the November producers today as a matter of fact/	30124046	1472675945307	1472675945450	a	65
57892	633339	I am working on the November producers today as a matter of fact.	I am working on the November producers today as a matter of fact/	30124048	1472675945411	1472675945506	t	84
57892	633339	I am working on the November producers today as a matter of fact.	I am working on the November producers today as a matter of fact/	30124051	1472675945594	1472675945674	t	84
57892	633339	I am working on the November producers today as a matter of fact.	I am working on the November producers today as a matter of fact/	30124055	1472675945802	1472675945938	e	69
57892	633339	I am working on the November producers today as a matter of fact.	I am working on the November producers today as a matter of fact/	30124089	1472675945882	1472675945994	r	82
57892	633339	I am working on the November producers today as a matter of fact.	I am working on the November producers today as a matter of fact/	30124092	1472675946035	1472675946139	 	32
57892	633339	I am working on the November producers today as a matter of fact.	I am working on the November producers today as a matter of fact/	30124094	1472675946203	1472675946298	o	79
57892	633339	I am working on the November producers today as a matter of fact.	I am working on the November producers today as a matter of fact/	30124099	1472675946298	1472675946403	f	70
57892	633339	I am working on the November producers today as a matter of fact.	I am working on the November producers today as a matter of fact/	30124102	1472675946426	1472675946539	 	32
57892	633339	I am working on the November producers today as a matter of fact.	I am working on the November producers today as a matter of fact/	30124106	1472675946586	1472675946698	f	70
57892	633339	I am working on the November producers today as a matter of fact.	I am working on the November producers today as a matter of fact/	30124117	1472675946700	1472675946810	a	65
57892	633339	I am working on the November producers today as a matter of fact.	I am working on the November producers today as a matter of fact/	30124118	1472675946811	1472675946914	c	67
57892	633339	I am working on the November producers today as a matter of fact.	I am working on the November producers today as a matter of fact/	30124119	1472675947050	1472675947123	t	84
57892	633357	England star Paul Gascoigne was one of the recipients of the loans.	England star Paul Gascoigne was one of the recipients of the loans.	30124245	1472675949082	1472675949354	SHIFT	16
57892	633357	England star Paul Gascoigne was one of the recipients of the loans.	England star Paul Gascoigne was one of the recipients of the loans.	30124247	1472675949274	1472675949378	E	69
57892	633357	England star Paul Gascoigne was one of the recipients of the loans.	England star Paul Gascoigne was one of the recipients of the loans.	30124250	1472675949466	1472675949611	n	78
57892	633357	England star Paul Gascoigne was one of the recipients of the loans.	England star Paul Gascoigne was one of the recipients of the loans.	30124253	1472675949755	1472675949827	g	71
57892	633357	England star Paul Gascoigne was one of the recipients of the loans.	England star Paul Gascoigne was one of the recipients of the loans.	30124255	1472675949922	1472675950050	l	76
57892	633357	England star Paul Gascoigne was one of the recipients of the loans.	England star Paul Gascoigne was one of the recipients of the loans.	30124258	1472675950083	1472675950178	a	65
57892	633357	England star Paul Gascoigne was one of the recipients of the loans.	England star Paul Gascoigne was one of the recipients of the loans.	30124287	1472675950235	1472675950362	n	78
57892	633357	England star Paul Gascoigne was one of the recipients of the loans.	England star Paul Gascoigne was one of the recipients of the loans.	30124292	1472675950363	1472675950450	d	68
57892	633357	England star Paul Gascoigne was one of the recipients of the loans.	England star Paul Gascoigne was one of the recipients of the loans.	30124299	1472675950490	1472675950618	 	32
57892	633357	England star Paul Gascoigne was one of the recipients of the loans.	England star Paul Gascoigne was one of the recipients of the loans.	30124304	1472675950819	1472675950890	s	83
57892	633357	England star Paul Gascoigne was one of the recipients of the loans.	England star Paul Gascoigne was one of the recipients of the loans.	30124308	1472675950962	1472675951074	t	84
57892	633357	England star Paul Gascoigne was one of the recipients of the loans.	England star Paul Gascoigne was one of the recipients of the loans.	30124360	1472675951076	1472675951194	a	65
57892	633357	England star Paul Gascoigne was one of the recipients of the loans.	England star Paul Gascoigne was one of the recipients of the loans.	30124363	1472675951195	1472675951322	r	82
57892	633357	England star Paul Gascoigne was one of the recipients of the loans.	England star Paul Gascoigne was one of the recipients of the loans.	30124365	1472675951394	1472675951530	 	32
57892	633357	England star Paul Gascoigne was one of the recipients of the loans.	England star Paul Gascoigne was one of the recipients of the loans.	30124368	1472675951555	1472675951810	SHIFT	16
57892	633357	England star Paul Gascoigne was one of the recipients of the loans.	England star Paul Gascoigne was one of the recipients of the loans.	30124371	1472675951882	1472675952090	P	16
57892	633357	England star Paul Gascoigne was one of the recipients of the loans.	England star Paul Gascoigne was one of the recipients of the loans.	30124376	1472675952338	1472675952466	a	65
57892	633357	England star Paul Gascoigne was one of the recipients of the loans.	England star Paul Gascoigne was one of the recipients of the loans.	30124430	1472675952514	1472675952594	u	85
57892	633357	England star Paul Gascoigne was one of the recipients of the loans.	England star Paul Gascoigne was one of the recipients of the loans.	30124435	1472675952771	1472675952882	l	76
57892	633357	England star Paul Gascoigne was one of the recipients of the loans.	England star Paul Gascoigne was one of the recipients of the loans.	30124441	1472675952922	1472675953067	 	32
57892	633357	England star Paul Gascoigne was one of the recipients of the loans.	England star Paul Gascoigne was one of the recipients of the loans.	30124447	1472675953210	1472675953483	SHIFT	16
57892	633357	England star Paul Gascoigne was one of the recipients of the loans.	England star Paul Gascoigne was one of the recipients of the loans.	30124450	1472675953346	1472675953483	G	71
57892	633357	England star Paul Gascoigne was one of the recipients of the loans.	England star Paul Gascoigne was one of the recipients of the loans.	30124456	1472675953594	1472675953762	a	65
57892	633357	England star Paul Gascoigne was one of the recipients of the loans.	England star Paul Gascoigne was one of the recipients of the loans.	30124490	1472675953764	1472675953914	s	83
57892	633357	England star Paul Gascoigne was one of the recipients of the loans.	England star Paul Gascoigne was one of the recipients of the loans.	30124496	1472675954042	1472675954138	c	67
57892	633357	England star Paul Gascoigne was one of the recipients of the loans.	England star Paul Gascoigne was one of the recipients of the loans.	30124501	1472675954274	1472675954411	o	79
57892	633357	England star Paul Gascoigne was one of the recipients of the loans.	England star Paul Gascoigne was one of the recipients of the loans.	30124507	1472675954354	1472675954523	i	73
57892	633357	England star Paul Gascoigne was one of the recipients of the loans.	England star Paul Gascoigne was one of the recipients of the loans.	30124513	1472675954562	1472675954650	g	71
57892	633357	England star Paul Gascoigne was one of the recipients of the loans.	England star Paul Gascoigne was one of the recipients of the loans.	30124575	1472675954747	1472675954866	n	78
57892	633357	England star Paul Gascoigne was one of the recipients of the loans.	England star Paul Gascoigne was one of the recipients of the loans.	30124580	1472675954906	1472675954994	e	69
57892	633357	England star Paul Gascoigne was one of the recipients of the loans.	England star Paul Gascoigne was one of the recipients of the loans.	30124585	1472675955314	1472675955403	 	32
57892	633357	England star Paul Gascoigne was one of the recipients of the loans.	England star Paul Gascoigne was one of the recipients of the loans.	30124590	1472675955474	1472675955530	w	87
57892	633357	England star Paul Gascoigne was one of the recipients of the loans.	England star Paul Gascoigne was one of the recipients of the loans.	30124595	1472675955643	1472675955834	a	65
57892	633357	England star Paul Gascoigne was one of the recipients of the loans.	England star Paul Gascoigne was one of the recipients of the loans.	30124628	1472675955747	1472675955866	s	83
57892	633357	England star Paul Gascoigne was one of the recipients of the loans.	England star Paul Gascoigne was one of the recipients of the loans.	30124630	1472675955946	1472675956075	 	32
57892	633357	England star Paul Gascoigne was one of the recipients of the loans.	England star Paul Gascoigne was one of the recipients of the loans.	30124634	1472675956178	1472675956267	o	79
57892	633357	England star Paul Gascoigne was one of the recipients of the loans.	England star Paul Gascoigne was one of the recipients of the loans.	30124637	1472675956267	1472675956418	n	78
57892	633357	England star Paul Gascoigne was one of the recipients of the loans.	England star Paul Gascoigne was one of the recipients of the loans.	30124643	1472675956395	1472675956458	 	32
57892	633357	England star Paul Gascoigne was one of the recipients of the loans.	England star Paul Gascoigne was one of the recipients of the loans.	30124649	1472675956459	1472675956546	e	69
57892	633357	England star Paul Gascoigne was one of the recipients of the loans.	England star Paul Gascoigne was one of the recipients of the loans.	30124692	1472675956730	1472675956779	BKSP	8
57892	633357	England star Paul Gascoigne was one of the recipients of the loans.	England star Paul Gascoigne was one of the recipients of the loans.	30124698	1472675956858	1472675956922	BKSP	8
57892	633357	England star Paul Gascoigne was one of the recipients of the loans.	England star Paul Gascoigne was one of the recipients of the loans.	30124704	1472675957019	1472675957090	e	69
57892	633357	England star Paul Gascoigne was one of the recipients of the loans.	England star Paul Gascoigne was one of the recipients of the loans.	30124712	1472675957114	1472675957234	 	32
57892	633357	England star Paul Gascoigne was one of the recipients of the loans.	England star Paul Gascoigne was one of the recipients of the loans.	30124717	1472675957314	1472675957410	o	79
57892	633357	England star Paul Gascoigne was one of the recipients of the loans.	England star Paul Gascoigne was one of the recipients of the loans.	30124721	1472675957410	1472675957514	f	70
57892	633357	England star Paul Gascoigne was one of the recipients of the loans.	England star Paul Gascoigne was one of the recipients of the loans.	30124725	1472675957578	1472675957699	 	32
57892	633357	England star Paul Gascoigne was one of the recipients of the loans.	England star Paul Gascoigne was one of the recipients of the loans.	30124774	1472675957811	1472675957882	t	84
57892	633357	England star Paul Gascoigne was one of the recipients of the loans.	England star Paul Gascoigne was one of the recipients of the loans.	30124780	1472675957938	1472675958034	h	72
57892	633357	England star Paul Gascoigne was one of the recipients of the loans.	England star Paul Gascoigne was one of the recipients of the loans.	30124788	1472675958106	1472675958179	e	69
57892	633357	England star Paul Gascoigne was one of the recipients of the loans.	England star Paul Gascoigne was one of the recipients of the loans.	30124796	1472675958242	1472675958370	 	32
57892	633357	England star Paul Gascoigne was one of the recipients of the loans.	England star Paul Gascoigne was one of the recipients of the loans.	30124800	1472675958762	1472675958858	r	82
57892	633357	England star Paul Gascoigne was one of the recipients of the loans.	England star Paul Gascoigne was one of the recipients of the loans.	30124877	1472675958890	1472675958979	e	69
57892	633357	England star Paul Gascoigne was one of the recipients of the loans.	England star Paul Gascoigne was one of the recipients of the loans.	30124880	1472675959394	1472675959475	c	67
57892	633357	England star Paul Gascoigne was one of the recipients of the loans.	England star Paul Gascoigne was one of the recipients of the loans.	30124882	1472675959699	1472675959795	i	73
57892	633357	England star Paul Gascoigne was one of the recipients of the loans.	England star Paul Gascoigne was one of the recipients of the loans.	30124885	1472675959867	1472675959946	p	80
57892	633357	England star Paul Gascoigne was one of the recipients of the loans.	England star Paul Gascoigne was one of the recipients of the loans.	30124888	1472675960075	1472675960170	i	73
57892	633357	England star Paul Gascoigne was one of the recipients of the loans.	England star Paul Gascoigne was one of the recipients of the loans.	30124908	1472675960227	1472675960330	e	69
57892	633357	England star Paul Gascoigne was one of the recipients of the loans.	England star Paul Gascoigne was one of the recipients of the loans.	30124911	1472675960402	1472675960531	n	78
57892	633357	England star Paul Gascoigne was one of the recipients of the loans.	England star Paul Gascoigne was one of the recipients of the loans.	30124915	1472675960531	1472675960634	t	84
57892	633357	England star Paul Gascoigne was one of the recipients of the loans.	England star Paul Gascoigne was one of the recipients of the loans.	30124925	1472675960698	1472675960779	s	83
57892	633357	England star Paul Gascoigne was one of the recipients of the loans.	England star Paul Gascoigne was one of the recipients of the loans.	30124930	1472675960818	1472675960946	 	32
57892	633357	England star Paul Gascoigne was one of the recipients of the loans.	England star Paul Gascoigne was one of the recipients of the loans.	30125025	1472675961498	1472675961538	t	84
57892	633357	England star Paul Gascoigne was one of the recipients of the loans.	England star Paul Gascoigne was one of the recipients of the loans.	30125030	1472675961571	1472675961642	o	79
57892	633357	England star Paul Gascoigne was one of the recipients of the loans.	England star Paul Gascoigne was one of the recipients of the loans.	30125034	1472675961827	1472675961866	BKSP	8
57892	633357	England star Paul Gascoigne was one of the recipients of the loans.	England star Paul Gascoigne was one of the recipients of the loans.	30125040	1472675961946	1472675962003	BKSP	8
57892	633357	England star Paul Gascoigne was one of the recipients of the loans.	England star Paul Gascoigne was one of the recipients of the loans.	30125044	1472675962138	1472675962258	o	79
57892	633357	England star Paul Gascoigne was one of the recipients of the loans.	England star Paul Gascoigne was one of the recipients of the loans.	30125050	1472675962298	1472675962394	f	70
57892	633357	England star Paul Gascoigne was one of the recipients of the loans.	England star Paul Gascoigne was one of the recipients of the loans.	30125055	1472675962426	1472675962539	 	32
57892	633357	England star Paul Gascoigne was one of the recipients of the loans.	England star Paul Gascoigne was one of the recipients of the loans.	30125085	1472675962626	1472675962714	t	84
57892	633357	England star Paul Gascoigne was one of the recipients of the loans.	England star Paul Gascoigne was one of the recipients of the loans.	30125090	1472675962738	1472675962826	h	72
57892	633357	England star Paul Gascoigne was one of the recipients of the loans.	England star Paul Gascoigne was one of the recipients of the loans.	30125092	1472675962979	1472675963066	e	69
57892	633357	England star Paul Gascoigne was one of the recipients of the loans.	England star Paul Gascoigne was one of the recipients of the loans.	30125095	1472675963130	1472675963259	 	32
57892	633357	England star Paul Gascoigne was one of the recipients of the loans.	England star Paul Gascoigne was one of the recipients of the loans.	30125099	1472675963282	1472675963386	l	76
57892	633357	England star Paul Gascoigne was one of the recipients of the loans.	England star Paul Gascoigne was one of the recipients of the loans.	30125152	1472675963474	1472675963570	o	79
57892	633357	England star Paul Gascoigne was one of the recipients of the loans.	England star Paul Gascoigne was one of the recipients of the loans.	30125153	1472675963642	1472675963779	a	65
57892	633357	England star Paul Gascoigne was one of the recipients of the loans.	England star Paul Gascoigne was one of the recipients of the loans.	30125154	1472675963818	1472675963947	n	78
57892	633357	England star Paul Gascoigne was one of the recipients of the loans.	England star Paul Gascoigne was one of the recipients of the loans.	30125155	1472675964051	1472675964114	s	83
57892	633357	England star Paul Gascoigne was one of the recipients of the loans.	England star Paul Gascoigne was one of the recipients of the loans.	30125156	1472675964226	1472675964363	.	190
