PARTICIPANT_ID	TEST_SECTION_ID	SENTENCE	USER_INPUT	KEYSTROKE_ID	PRESS_TIME	RELEASE_TIME	LETTER	KEYCODE
59925	658018	I am looking forward to the salad.	I am looking forward to the salad. 	31294917	1472701279512	1472701279710	SHIFT	16
59925	658018	I am looking forward to the salad.	I am looking forward to the salad. 	31294922	1472701279630	1472701279759	NA	73
59925	658018	I am looking forward to the salad.	I am looking forward to the salad. 	31294925	1472701279730	1472701279839	NA	32
59925	658018	I am looking forward to the salad.	I am looking forward to the salad. 	31294928	1472701279869	1472701279973	NA	65
59925	658018	I am looking forward to the salad.	I am looking forward to the salad. 	31294930	1472701279970	1472701280099	NA	77
59925	658018	I am looking forward to the salad.	I am looking forward to the salad. 	31294964	1472701280079	1472701280195	NA	32
59925	658018	I am looking forward to the salad.	I am looking forward to the salad. 	31294966	1472701280250	1472701280340	NA	76
59925	658018	I am looking forward to the salad.	I am looking forward to the salad. 	31294968	1472701280421	1472701280520	NA	79
59925	658018	I am looking forward to the salad.	I am looking forward to the salad. 	31294970	1472701281030	1472701281130	NA	79
59925	658018	I am looking forward to the salad.	I am looking forward to the salad. 	31294972	1472701281277	1472701281353	NA	75
59925	658018	I am looking forward to the salad.	I am looking forward to the salad. 	31294976	1472701281451	1472701281590	NA	73
59925	658018	I am looking forward to the salad.	I am looking forward to the salad. 	31294983	1472701281541	1472701281640	NA	78
59925	658018	I am looking forward to the salad.	I am looking forward to the salad. 	31294984	1472701281660	1472701281731	NA	71
59925	658018	I am looking forward to the salad.	I am looking forward to the salad. 	31294985	1472701281709	1472701281829	NA	32
59925	658018	I am looking forward to the salad.	I am looking forward to the salad. 	31294986	1472701281885	1472701282082	NA	70
59925	658018	I am looking forward to the salad.	I am looking forward to the salad. 	31295042	1472701282082	1472701283520	NA	79
59925	658018	I am looking forward to the salad.	I am looking forward to the salad. 	31294987	1472701282179	1472701282310	NA	82
59925	658018	I am looking forward to the salad.	I am looking forward to the salad. 	31295018	1472701282461	1472701282550	NA	87
59925	658018	I am looking forward to the salad.	I am looking forward to the salad. 	31295021	1472701282683	1472701282902	NA	65
59925	658018	I am looking forward to the salad.	I am looking forward to the salad. 	31295026	1472701282851	1472701282960	NA	82
59925	658018	I am looking forward to the salad.	I am looking forward to the salad. 	31295029	1472701283080	1472701283170	NA	68
59925	658018	I am looking forward to the salad.	I am looking forward to the salad. 	31295032	1472701283190	1472701283300	NA	32
59925	658018	I am looking forward to the salad.	I am looking forward to the salad. 	31295041	1472701283330	1472701283409	NA	84
59925	658018	I am looking forward to the salad.	I am looking forward to the salad. 	31295045	1472701283481	1472701283590	NA	32
59925	658018	I am looking forward to the salad.	I am looking forward to the salad. 	31295047	1472701283630	1472701283700	NA	84
59925	658018	I am looking forward to the salad.	I am looking forward to the salad. 	31295065	1472701283680	1472701283749	NA	72
59925	658018	I am looking forward to the salad.	I am looking forward to the salad. 	31295068	1472701283820	1472701283910	NA	69
59925	658018	I am looking forward to the salad.	I am looking forward to the salad. 	31295073	1472701283911	1472701284030	NA	32
59925	658018	I am looking forward to the salad.	I am looking forward to the salad. 	31295079	1472701284040	1472701284210	NA	83
59925	658018	I am looking forward to the salad.	I am looking forward to the salad. 	31295085	1472701284171	1472701284310	NA	65
59925	658018	I am looking forward to the salad.	I am looking forward to the salad. 	31295092	1472701284479	1472701284599	NA	76
59925	658018	I am looking forward to the salad.	I am looking forward to the salad. 	31295148	1472701284760	1472701284911	NA	65
59925	658018	I am looking forward to the salad.	I am looking forward to the salad. 	31295151	1472701285038	1472701285110	NA	83
59925	658018	I am looking forward to the salad.	I am looking forward to the salad. 	31295154	1472701285310	1472701285461	NA	188
59925	658018	I am looking forward to the salad.	I am looking forward to the salad. 	31295155	1472701285751	1472701285850		8
59925	658018	I am looking forward to the salad.	I am looking forward to the salad. 	31295157	1472701285911	1472701286030		8
59925	658018	I am looking forward to the salad.	I am looking forward to the salad. 	31295252	1472701285990	1472701286110	NA	68
59925	658018	I am looking forward to the salad.	I am looking forward to the salad. 	31295257	1472701286281	1472701286410	NA	190
59925	658018	I am looking forward to the salad.	I am looking forward to the salad. 	31295262	1472701286511	1472701286619	NA	32
59925	658026	Expect him to be the Bears featured back for the rest of the year.	Expect him to be the Bears featured back for the rest of the year.	31295405	1472701290111	1472701290360	SHIFT	16
59925	658026	Expect him to be the Bears featured back for the rest of the year.	Expect him to be the Bears featured back for the rest of the year.	31295402	1472701290210	1472701290290	NA	69
59925	658026	Expect him to be the Bears featured back for the rest of the year.	Expect him to be the Bears featured back for the rest of the year.	31295407	1472701290440	1472701290540	NA	88
59925	658026	Expect him to be the Bears featured back for the rest of the year.	Expect him to be the Bears featured back for the rest of the year.	31295409	1472701290591	1472701290700	NA	80
59925	658026	Expect him to be the Bears featured back for the rest of the year.	Expect him to be the Bears featured back for the rest of the year.	31295411	1472701290760	1472701290860	NA	69
59925	658026	Expect him to be the Bears featured back for the rest of the year.	Expect him to be the Bears featured back for the rest of the year.	31295414	1472701291021	1472701291100	NA	67
59925	658026	Expect him to be the Bears featured back for the rest of the year.	Expect him to be the Bears featured back for the rest of the year.	31295443	1472701291245	1472701291280	NA	84
59925	658026	Expect him to be the Bears featured back for the rest of the year.	Expect him to be the Bears featured back for the rest of the year.	31295444	1472701291290	1472701291440	NA	32
59925	658026	Expect him to be the Bears featured back for the rest of the year.	Expect him to be the Bears featured back for the rest of the year.	31295445	1472701291529	1472701291619	NA	72
59925	658026	Expect him to be the Bears featured back for the rest of the year.	Expect him to be the Bears featured back for the rest of the year.	31295446	1472701291690	1472701291809	NA	73
59925	658026	Expect him to be the Bears featured back for the rest of the year.	Expect him to be the Bears featured back for the rest of the year.	31295476	1472701291779	1472701291940	NA	77
59925	658026	Expect him to be the Bears featured back for the rest of the year.	Expect him to be the Bears featured back for the rest of the year.	31295477	1472701291901	1472701292040	NA	32
59925	658026	Expect him to be the Bears featured back for the rest of the year.	Expect him to be the Bears featured back for the rest of the year.	31295478	1472701292090	1472701292190	NA	84
59925	658026	Expect him to be the Bears featured back for the rest of the year.	Expect him to be the Bears featured back for the rest of the year.	31295757	1472701292210	1472701298520	NA	79
59925	658026	Expect him to be the Bears featured back for the rest of the year.	Expect him to be the Bears featured back for the rest of the year.	31295480	1472701292301	1472701292460	NA	32
59925	658026	Expect him to be the Bears featured back for the rest of the year.	Expect him to be the Bears featured back for the rest of the year.	31295481	1472701292570	1472701292670	NA	66
59925	658026	Expect him to be the Bears featured back for the rest of the year.	Expect him to be the Bears featured back for the rest of the year.	31295493	1472701292721	1472701292830	NA	69
59925	658026	Expect him to be the Bears featured back for the rest of the year.	Expect him to be the Bears featured back for the rest of the year.	31295496	1472701292833	1472701292950	NA	32
59925	658026	Expect him to be the Bears featured back for the rest of the year.	Expect him to be the Bears featured back for the rest of the year.	31295499	1472701292970	1472701293052	NA	84
59925	658026	Expect him to be the Bears featured back for the rest of the year.	Expect him to be the Bears featured back for the rest of the year.	31295502	1472701293050	1472701293130	NA	72
59925	658026	Expect him to be the Bears featured back for the rest of the year.	Expect him to be the Bears featured back for the rest of the year.	31295504	1472701293170	1472701293250	NA	69
59925	658026	Expect him to be the Bears featured back for the rest of the year.	Expect him to be the Bears featured back for the rest of the year.	31295531	1472701293260	1472701293399	NA	32
59925	658026	Expect him to be the Bears featured back for the rest of the year.	Expect him to be the Bears featured back for the rest of the year.	31295542	1472701293500	1472701293739	SHIFT	16
59925	658026	Expect him to be the Bears featured back for the rest of the year.	Expect him to be the Bears featured back for the rest of the year.	31295535	1472701293609	1472701293699	NA	66
59925	658026	Expect him to be the Bears featured back for the rest of the year.	Expect him to be the Bears featured back for the rest of the year.	31295546	1472701293819	1472701293990	NA	69
59925	658026	Expect him to be the Bears featured back for the rest of the year.	Expect him to be the Bears featured back for the rest of the year.	31295550	1472701293939	1472701294121	NA	65
59925	658026	Expect him to be the Bears featured back for the rest of the year.	Expect him to be the Bears featured back for the rest of the year.	31295600	1472701294070	1472701294170	NA	82
59925	658026	Expect him to be the Bears featured back for the rest of the year.	Expect him to be the Bears featured back for the rest of the year.	31295603	1472701294280	1472701294370	NA	83
59925	658026	Expect him to be the Bears featured back for the rest of the year.	Expect him to be the Bears featured back for the rest of the year.	31295606	1472701294440	1472701294570	NA	32
59925	658026	Expect him to be the Bears featured back for the rest of the year.	Expect him to be the Bears featured back for the rest of the year.	31295610	1472701294620	1472701294740	NA	70
59925	658026	Expect him to be the Bears featured back for the rest of the year.	Expect him to be the Bears featured back for the rest of the year.	31295615	1472701294910	1472701294990	NA	69
59925	658026	Expect him to be the Bears featured back for the rest of the year.	Expect him to be the Bears featured back for the rest of the year.	31295619	1472701295130	1472701295310	NA	65
59925	658026	Expect him to be the Bears featured back for the rest of the year.	Expect him to be the Bears featured back for the rest of the year.	31295665	1472701295280	1472701295360	NA	84
59925	658026	Expect him to be the Bears featured back for the rest of the year.	Expect him to be the Bears featured back for the rest of the year.	31295667	1472701295480	1472701295569	NA	85
59925	658026	Expect him to be the Bears featured back for the rest of the year.	Expect him to be the Bears featured back for the rest of the year.	31295669	1472701295590	1472701295689	NA	82
59925	658026	Expect him to be the Bears featured back for the rest of the year.	Expect him to be the Bears featured back for the rest of the year.	31295671	1472701295949	1472701296039		8
59925	658026	Expect him to be the Bears featured back for the rest of the year.	Expect him to be the Bears featured back for the rest of the year.	31295672	1472701296770	1472701296860	NA	82
59925	658026	Expect him to be the Bears featured back for the rest of the year.	Expect him to be the Bears featured back for the rest of the year.	31295673	1472701296910	1472701296990	NA	69
59925	658026	Expect him to be the Bears featured back for the rest of the year.	Expect him to be the Bears featured back for the rest of the year.	31295702	1472701297140	1472701297220	NA	68
59925	658026	Expect him to be the Bears featured back for the rest of the year.	Expect him to be the Bears featured back for the rest of the year.	31295704	1472701297251	1472701297370	NA	32
59925	658026	Expect him to be the Bears featured back for the rest of the year.	Expect him to be the Bears featured back for the rest of the year.	31295706	1472701297480	1472701297570	NA	66
59925	658026	Expect him to be the Bears featured back for the rest of the year.	Expect him to be the Bears featured back for the rest of the year.	31295712	1472701297619	1472701297719	NA	65
59925	658026	Expect him to be the Bears featured back for the rest of the year.	Expect him to be the Bears featured back for the rest of the year.	31295716	1472701297829	1472701297909	NA	67
59925	658026	Expect him to be the Bears featured back for the rest of the year.	Expect him to be the Bears featured back for the rest of the year.	31295742	1472701297889	1472701298049	NA	75
59925	658026	Expect him to be the Bears featured back for the rest of the year.	Expect him to be the Bears featured back for the rest of the year.	31295746	1472701298009	1472701298140	NA	32
59925	658026	Expect him to be the Bears featured back for the rest of the year.	Expect him to be the Bears featured back for the rest of the year.	31295753	1472701298320	1472701298410	NA	70
59925	658026	Expect him to be the Bears featured back for the rest of the year.	Expect him to be the Bears featured back for the rest of the year.	31295884	1472701298420	1472701301380	NA	79
59925	658026	Expect him to be the Bears featured back for the rest of the year.	Expect him to be the Bears featured back for the rest of the year.	31295764	1472701298530	1472701298612	NA	82
59925	658026	Expect him to be the Bears featured back for the rest of the year.	Expect him to be the Bears featured back for the rest of the year.	31295779	1472701298600	1472701298700	NA	32
59925	658026	Expect him to be the Bears featured back for the rest of the year.	Expect him to be the Bears featured back for the rest of the year.	31295785	1472701298719	1472701298802	NA	84
59925	658026	Expect him to be the Bears featured back for the rest of the year.	Expect him to be the Bears featured back for the rest of the year.	31295787	1472701298800	1472701298880	NA	72
59925	658026	Expect him to be the Bears featured back for the rest of the year.	Expect him to be the Bears featured back for the rest of the year.	31295793	1472701298913	1472701298990	NA	69
59925	658026	Expect him to be the Bears featured back for the rest of the year.	Expect him to be the Bears featured back for the rest of the year.	31295797	1472701298970	1472701299100	NA	32
59925	658026	Expect him to be the Bears featured back for the rest of the year.	Expect him to be the Bears featured back for the rest of the year.	31295800	1472701299110	1472701299260	NA	82
59925	658026	Expect him to be the Bears featured back for the rest of the year.	Expect him to be the Bears featured back for the rest of the year.	31295830	1472701299220	1472701299380	NA	69
59925	658026	Expect him to be the Bears featured back for the rest of the year.	Expect him to be the Bears featured back for the rest of the year.	31295834	1472701299470	1472701299689	NA	90
59925	658026	Expect him to be the Bears featured back for the rest of the year.	Expect him to be the Bears featured back for the rest of the year.	31295837	1472701299511	1472701299729	NA	83
59925	658026	Expect him to be the Bears featured back for the rest of the year.	Expect him to be the Bears featured back for the rest of the year.	31295840	1472701299749	1472701299849	NA	82
59925	658026	Expect him to be the Bears featured back for the rest of the year.	Expect him to be the Bears featured back for the rest of the year.	31295843	1472701300159	1472701300270		8
59925	658026	Expect him to be the Bears featured back for the rest of the year.	Expect him to be the Bears featured back for the rest of the year.	31295855	1472701300330	1472701300430		8
59925	658026	Expect him to be the Bears featured back for the rest of the year.	Expect him to be the Bears featured back for the rest of the year.	31295860	1472701300500	1472701300620		8
59925	658026	Expect him to be the Bears featured back for the rest of the year.	Expect him to be the Bears featured back for the rest of the year.	31295864	1472701300800	1472701300924		8
59925	658026	Expect him to be the Bears featured back for the rest of the year.	Expect him to be the Bears featured back for the rest of the year.	31295868	1472701300920	1472701301090	NA	83
59925	658026	Expect him to be the Bears featured back for the rest of the year.	Expect him to be the Bears featured back for the rest of the year.	31295882	1472701301040	1472701301170	NA	84
59925	658026	Expect him to be the Bears featured back for the rest of the year.	Expect him to be the Bears featured back for the rest of the year.	31295883	1472701301120	1472701301260	NA	32
59925	658026	Expect him to be the Bears featured back for the rest of the year.	Expect him to be the Bears featured back for the rest of the year.	31295885	1472701301360	1472701301450	NA	70
59925	658026	Expect him to be the Bears featured back for the rest of the year.	Expect him to be the Bears featured back for the rest of the year.	31295887	1472701301460	1472701301550	NA	32
59925	658026	Expect him to be the Bears featured back for the rest of the year.	Expect him to be the Bears featured back for the rest of the year.	31295889	1472701301570	1472701301650	NA	84
59925	658026	Expect him to be the Bears featured back for the rest of the year.	Expect him to be the Bears featured back for the rest of the year.	31295908	1472701301630	1472701301710	NA	72
59925	658026	Expect him to be the Bears featured back for the rest of the year.	Expect him to be the Bears featured back for the rest of the year.	31295911	1472701301740	1472701301830	NA	69
59925	658026	Expect him to be the Bears featured back for the rest of the year.	Expect him to be the Bears featured back for the rest of the year.	31295916	1472701301790	1472701301900	NA	32
59925	658026	Expect him to be the Bears featured back for the rest of the year.	Expect him to be the Bears featured back for the rest of the year.	31295920	1472701301951	1472701302039	NA	89
59925	658026	Expect him to be the Bears featured back for the rest of the year.	Expect him to be the Bears featured back for the rest of the year.	31295924	1472701302059	1472701302209	NA	69
59925	658026	Expect him to be the Bears featured back for the rest of the year.	Expect him to be the Bears featured back for the rest of the year.	31295957	1472701302159	1472701302359	NA	65
59925	658026	Expect him to be the Bears featured back for the rest of the year.	Expect him to be the Bears featured back for the rest of the year.	31295960	1472701302289	1472701302419	NA	82
59925	658026	Expect him to be the Bears featured back for the rest of the year.	Expect him to be the Bears featured back for the rest of the year.	31295964	1472701302509	1472701302640	NA	190
59925	658040	He agrees that they are not showing the correct equation.	He agrees that they are not showing the correct equation.	31296046	1472701305350	1472701305510	SHIFT	16
59925	658040	He agrees that they are not showing the correct equation.	He agrees that they are not showing the correct equation.	31296049	1472701305470	1472701305549	NA	72
59925	658040	He agrees that they are not showing the correct equation.	He agrees that they are not showing the correct equation.	31296050	1472701305600	1472701305690	NA	69
59925	658040	He agrees that they are not showing the correct equation.	He agrees that they are not showing the correct equation.	31296051	1472701305740	1472701305850	NA	32
59925	658040	He agrees that they are not showing the correct equation.	He agrees that they are not showing the correct equation.	31296052	1472701305890	1472701306030	NA	65
59925	658040	He agrees that they are not showing the correct equation.	He agrees that they are not showing the correct equation.	31296053	1472701306070	1472701306160	NA	71
59925	658040	He agrees that they are not showing the correct equation.	He agrees that they are not showing the correct equation.	31296077	1472701306270	1472701306419	NA	82
59925	658040	He agrees that they are not showing the correct equation.	He agrees that they are not showing the correct equation.	31296079	1472701306350	1472701306459	NA	69
59925	658040	He agrees that they are not showing the correct equation.	He agrees that they are not showing the correct equation.	31296081	1472701306549	1472701306639	NA	69
59925	658040	He agrees that they are not showing the correct equation.	He agrees that they are not showing the correct equation.	31296083	1472701306769	1472701306879	NA	83
59925	658040	He agrees that they are not showing the correct equation.	He agrees that they are not showing the correct equation.	31296085	1472701306930	1472701307070	NA	32
59925	658040	He agrees that they are not showing the correct equation.	He agrees that they are not showing the correct equation.	31296098	1472701307130	1472701307210	NA	84
59925	658040	He agrees that they are not showing the correct equation.	He agrees that they are not showing the correct equation.	31296099	1472701307220	1472701307300	NA	72
59925	658040	He agrees that they are not showing the correct equation.	He agrees that they are not showing the correct equation.	31296100	1472701307350	1472701307510	NA	65
59925	658040	He agrees that they are not showing the correct equation.	He agrees that they are not showing the correct equation.	31296102	1472701307460	1472701307560	NA	84
59925	658040	He agrees that they are not showing the correct equation.	He agrees that they are not showing the correct equation.	31296104	1472701307660	1472701307690	NA	84
59925	658040	He agrees that they are not showing the correct equation.	He agrees that they are not showing the correct equation.	31296130	1472701308110	1472701308262		8
59925	658040	He agrees that they are not showing the correct equation.	He agrees that they are not showing the correct equation.	31296131	1472701308281	1472701308389	NA	32
59925	658040	He agrees that they are not showing the correct equation.	He agrees that they are not showing the correct equation.	31296133	1472701308439	1472701308528	NA	84
59925	658040	He agrees that they are not showing the correct equation.	He agrees that they are not showing the correct equation.	31296135	1472701308509	1472701308599	NA	72
59925	658040	He agrees that they are not showing the correct equation.	He agrees that they are not showing the correct equation.	31296137	1472701308620	1472701308709	NA	69
59925	658040	He agrees that they are not showing the correct equation.	He agrees that they are not showing the correct equation.	31296147	1472701308729	1472701308839	NA	89
59925	658040	He agrees that they are not showing the correct equation.	He agrees that they are not showing the correct equation.	31296149	1472701308841	1472701308980	NA	32
59925	658040	He agrees that they are not showing the correct equation.	He agrees that they are not showing the correct equation.	31296151	1472701308990	1472701309140	NA	65
59925	658040	He agrees that they are not showing the correct equation.	He agrees that they are not showing the correct equation.	31296153	1472701309090	1472701309230	NA	82
59925	658040	He agrees that they are not showing the correct equation.	He agrees that they are not showing the correct equation.	31296166	1472701309180	1472701309292	NA	69
59925	658040	He agrees that they are not showing the correct equation.	He agrees that they are not showing the correct equation.	31296168	1472701309260	1472701309390	NA	32
59925	658040	He agrees that they are not showing the correct equation.	He agrees that they are not showing the correct equation.	31296169	1472701309480	1472701309600	NA	78
59925	658040	He agrees that they are not showing the correct equation.	He agrees that they are not showing the correct equation.	31296221	1472701309590	1472701310959	NA	79
59925	658040	He agrees that they are not showing the correct equation.	He agrees that they are not showing the correct equation.	31296171	1472701309720	1472701309799	NA	84
59925	658040	He agrees that they are not showing the correct equation.	He agrees that they are not showing the correct equation.	31296204	1472701309780	1472701309890	NA	32
59925	658040	He agrees that they are not showing the correct equation.	He agrees that they are not showing the correct equation.	31296208	1472701310010	1472701310090	NA	72
59925	658040	He agrees that they are not showing the correct equation.	He agrees that they are not showing the correct equation.	31296211	1472701310539	1472701310649		8
59925	658040	He agrees that they are not showing the correct equation.	He agrees that they are not showing the correct equation.	31296215	1472701310650	1472701310754	NA	83
59925	658040	He agrees that they are not showing the correct equation.	He agrees that they are not showing the correct equation.	31296217	1472701310750	1472701310839	NA	72
59925	658040	He agrees that they are not showing the correct equation.	He agrees that they are not showing the correct equation.	31296281	1472701310849	1472701312200	NA	79
59925	658040	He agrees that they are not showing the correct equation.	He agrees that they are not showing the correct equation.	31296244	1472701310929	1472701311049	NA	87
59925	658040	He agrees that they are not showing the correct equation.	He agrees that they are not showing the correct equation.	31296246	1472701311059	1472701311212	NA	73
59925	658040	He agrees that they are not showing the correct equation.	He agrees that they are not showing the correct equation.	31296249	1472701311150	1472701311270	NA	78
59925	658040	He agrees that they are not showing the correct equation.	He agrees that they are not showing the correct equation.	31296252	1472701311290	1472701311370	NA	71
59925	658040	He agrees that they are not showing the correct equation.	He agrees that they are not showing the correct equation.	31296254	1472701311391	1472701311510	NA	32
59925	658040	He agrees that they are not showing the correct equation.	He agrees that they are not showing the correct equation.	31296255	1472701311550	1472701311630	NA	84
59925	658040	He agrees that they are not showing the correct equation.	He agrees that they are not showing the correct equation.	31296271	1472701311610	1472701311700	NA	72
59925	658040	He agrees that they are not showing the correct equation.	He agrees that they are not showing the correct equation.	31296273	1472701311740	1472701311820	NA	69
59925	658040	He agrees that they are not showing the correct equation.	He agrees that they are not showing the correct equation.	31296275	1472701311830	1472701311960	NA	32
59925	658040	He agrees that they are not showing the correct equation.	He agrees that they are not showing the correct equation.	31296277	1472701312000	1472701312090	NA	67
59925	658040	He agrees that they are not showing the correct equation.	He agrees that they are not showing the correct equation.	31296539	1472701312100	1472701316671	NA	79
59925	658040	He agrees that they are not showing the correct equation.	He agrees that they are not showing the correct equation.	31296284	1472701312210	1472701312280	NA	82
59925	658040	He agrees that they are not showing the correct equation.	He agrees that they are not showing the correct equation.	31296310	1472701312380	1472701312450	NA	82
59925	658040	He agrees that they are not showing the correct equation.	He agrees that they are not showing the correct equation.	31296311	1472701312569	1472701312649	NA	67
59925	658040	He agrees that they are not showing the correct equation.	He agrees that they are not showing the correct equation.	31296312	1472701312989	1472701313130		8
59925	658040	He agrees that they are not showing the correct equation.	He agrees that they are not showing the correct equation.	31296315	1472701313100	1472701313170	NA	69
59925	658040	He agrees that they are not showing the correct equation.	He agrees that they are not showing the correct equation.	31296347	1472701313310	1472701313380	NA	68
59925	658040	He agrees that they are not showing the correct equation.	He agrees that they are not showing the correct equation.	31296349	1472701313480	1472701313570	NA	84
59925	658040	He agrees that they are not showing the correct equation.	He agrees that they are not showing the correct equation.	31296354	1472701313610	1472701313710	NA	32
59925	658040	He agrees that they are not showing the correct equation.	He agrees that they are not showing the correct equation.	31296359	1472701313950	1472701314050		8
59925	658040	He agrees that they are not showing the correct equation.	He agrees that they are not showing the correct equation.	31296366	1472701314091	1472701314200		8
59925	658040	He agrees that they are not showing the correct equation.	He agrees that they are not showing the correct equation.	31296370	1472701314250	1472701314340		8
59925	658040	He agrees that they are not showing the correct equation.	He agrees that they are not showing the correct equation.	31296405	1472701314410	1472701314540		8
59925	658040	He agrees that they are not showing the correct equation.	He agrees that they are not showing the correct equation.	31296406	1472701314490	1472701314590	NA	67
59925	658040	He agrees that they are not showing the correct equation.	He agrees that they are not showing the correct equation.	31296407	1472701314689	1472701314779	NA	84
59925	658040	He agrees that they are not showing the correct equation.	He agrees that they are not showing the correct equation.	31296408	1472701314819	1472701314949	NA	32
59925	658040	He agrees that they are not showing the correct equation.	He agrees that they are not showing the correct equation.	31296410	1472701315550	1472701315690	NA	69
59925	658040	He agrees that they are not showing the correct equation.	He agrees that they are not showing the correct equation.	31296426	1472701315760	1472701315880	NA	81
59925	658040	He agrees that they are not showing the correct equation.	He agrees that they are not showing the correct equation.	31296429	1472701315970	1472701316061	NA	85
59925	658040	He agrees that they are not showing the correct equation.	He agrees that they are not showing the correct equation.	31296431	1472701316140	1472701316280	NA	65
59925	658040	He agrees that they are not showing the correct equation.	He agrees that they are not showing the correct equation.	31296436	1472701316310	1472701316400	NA	84
59925	658040	He agrees that they are not showing the correct equation.	He agrees that they are not showing the correct equation.	31296439	1472701316410	1472701316570	NA	73
59925	658040	He agrees that they are not showing the correct equation.	He agrees that they are not showing the correct equation.	31296542	1472701316600	1472701316730	NA	78
59925	658040	He agrees that they are not showing the correct equation.	He agrees that they are not showing the correct equation.	31296544	1472701316870	1472701316919	NA	188
59925	658040	He agrees that they are not showing the correct equation.	He agrees that they are not showing the correct equation.	31296546	1472701318130	1472701318211		8
59925	658040	He agrees that they are not showing the correct equation.	He agrees that they are not showing the correct equation.	31296549	1472701318750	1472701318820	NA	190
59925	658053	We are waiting on the cold front.	We are waiting on the cold front.	31296654	1472701321850	1472701322059	SHIFT	16
59925	658053	We are waiting on the cold front.	We are waiting on the cold front.	31296652	1472701321929	1472701322019	NA	87
59925	658053	We are waiting on the cold front.	We are waiting on the cold front.	31296655	1472701322109	1472701322199	NA	69
59925	658053	We are waiting on the cold front.	We are waiting on the cold front.	31296656	1472701322280	1472701322390	NA	32
59925	658053	We are waiting on the cold front.	We are waiting on the cold front.	31296657	1472701322380	1472701322510	NA	65
59925	658053	We are waiting on the cold front.	We are waiting on the cold front.	31296670	1472701322470	1472701322600	NA	82
59925	658053	We are waiting on the cold front.	We are waiting on the cold front.	31296672	1472701322540	1472701322650	NA	69
59925	658053	We are waiting on the cold front.	We are waiting on the cold front.	31296674	1472701322670	1472701322790	NA	32
59925	658053	We are waiting on the cold front.	We are waiting on the cold front.	31296677	1472701322792	1472701322890	NA	87
59925	658053	We are waiting on the cold front.	We are waiting on the cold front.	31296680	1472701322949	1472701323110	NA	65
59925	658053	We are waiting on the cold front.	We are waiting on the cold front.	31296699	1472701323070	1472701323160	NA	73
59925	658053	We are waiting on the cold front.	We are waiting on the cold front.	31296703	1472701323230	1472701323320	NA	84
59925	658053	We are waiting on the cold front.	We are waiting on the cold front.	31296706	1472701323300	1472701323469	NA	73
59925	658053	We are waiting on the cold front.	We are waiting on the cold front.	31296711	1472701323420	1472701323529	NA	78
59925	658053	We are waiting on the cold front.	We are waiting on the cold front.	31296716	1472701323549	1472701323629	NA	71
59925	658053	We are waiting on the cold front.	We are waiting on the cold front.	31296724	1472701323649	1472701323779	NA	32
59925	658053	We are waiting on the cold front.	We are waiting on the cold front.	31296791	1472701324010	1472701325140	NA	79
59925	658053	We are waiting on the cold front.	We are waiting on the cold front.	31296731	1472701324120	1472701324270	NA	78
59925	658053	We are waiting on the cold front.	We are waiting on the cold front.	31296734	1472701324210	1472701324340	NA	32
59925	658053	We are waiting on the cold front.	We are waiting on the cold front.	31296738	1472701324410	1472701324491	NA	84
59925	658053	We are waiting on the cold front.	We are waiting on the cold front.	31296781	1472701324490	1472701324570	NA	72
59925	658053	We are waiting on the cold front.	We are waiting on the cold front.	31296784	1472701324610	1472701324700	NA	69
59925	658053	We are waiting on the cold front.	We are waiting on the cold front.	31296787	1472701324710	1472701324840	NA	32
59925	658053	We are waiting on the cold front.	We are waiting on the cold front.	31296789	1472701324940	1472701325020	NA	67
59925	658053	We are waiting on the cold front.	We are waiting on the cold front.	31296895	1472701325070	1472701326250	NA	79
59925	658053	We are waiting on the cold front.	We are waiting on the cold front.	31296792	1472701325269	1472701325349	NA	76
59925	658053	We are waiting on the cold front.	We are waiting on the cold front.	31296807	1472701325369	1472701325459	NA	68
59925	658053	We are waiting on the cold front.	We are waiting on the cold front.	31296810	1472701325649	1472701325770	NA	32
59925	658053	We are waiting on the cold front.	We are waiting on the cold front.	31296812	1472701325830	1472701325910	NA	70
59925	658053	We are waiting on the cold front.	We are waiting on the cold front.	31296813	1472701326010	1472701326099	NA	82
59925	658053	We are waiting on the cold front.	We are waiting on the cold front.	31296899	1472701326210	1472701326320	NA	78
59925	658053	We are waiting on the cold front.	We are waiting on the cold front.	31296903	1472701326690	1472701326800	NA	190
59925	658053	We are waiting on the cold front.	We are waiting on the cold front.	31296905	1472701327190	1472701327309		8
59925	658053	We are waiting on the cold front.	We are waiting on the cold front.	31296909	1472701327389	1472701327479	NA	84
59925	658053	We are waiting on the cold front.	We are waiting on the cold front.	31296911	1472701327569	1472701327699	NA	190
59925	658062	He was playing only his third event on the European Tour.	He was playing only his third event on the European Tour.	31297017	1472701330500	1472701330650	SHIFT	16
59925	658062	He was playing only his third event on the European Tour.	He was playing only his third event on the European Tour.	31297020	1472701330730	1472701330999	SHIFT	16
59925	658062	He was playing only his third event on the European Tour.	He was playing only his third event on the European Tour.	31297023	1472701330930	1472701331020	NA	72
59925	658062	He was playing only his third event on the European Tour.	He was playing only his third event on the European Tour.	31297026	1472701331100	1472701331210	NA	69
59925	658062	He was playing only his third event on the European Tour.	He was playing only his third event on the European Tour.	31297027	1472701331250	1472701331350	NA	32
59925	658062	He was playing only his third event on the European Tour.	He was playing only his third event on the European Tour.	31297030	1472701331370	1472701331490	NA	87
59925	658062	He was playing only his third event on the European Tour.	He was playing only his third event on the European Tour.	31297033	1472701331580	1472701331760	NA	65
59925	658062	He was playing only his third event on the European Tour.	He was playing only his third event on the European Tour.	31297053	1472701331700	1472701331830	NA	83
59925	658062	He was playing only his third event on the European Tour.	He was playing only his third event on the European Tour.	31297056	1472701331790	1472701331889	NA	32
59925	658062	He was playing only his third event on the European Tour.	He was playing only his third event on the European Tour.	31297060	1472701331939	1472701332049	NA	80
59925	658062	He was playing only his third event on the European Tour.	He was playing only his third event on the European Tour.	31297064	1472701332149	1472701332249	NA	76
59925	658062	He was playing only his third event on the European Tour.	He was playing only his third event on the European Tour.	31297069	1472701332230	1472701332340	NA	65
59925	658062	He was playing only his third event on the European Tour.	He was playing only his third event on the European Tour.	31297072	1472701332400	1472701332471	NA	89
59925	658062	He was playing only his third event on the European Tour.	He was playing only his third event on the European Tour.	31297099	1472701332600	1472701332749	NA	73
59925	658062	He was playing only his third event on the European Tour.	He was playing only his third event on the European Tour.	31297103	1472701332691	1472701332810	NA	78
59925	658062	He was playing only his third event on the European Tour.	He was playing only his third event on the European Tour.	31297107	1472701332830	1472701332910	NA	71
59925	658062	He was playing only his third event on the European Tour.	He was playing only his third event on the European Tour.	31297110	1472701332950	1472701333080	NA	32
59925	658062	He was playing only his third event on the European Tour.	He was playing only his third event on the European Tour.	31297404	1472701333140	1472701339774	NA	79
59925	658062	He was playing only his third event on the European Tour.	He was playing only his third event on the European Tour.	31297161	1472701333250	1472701333360	NA	78
59925	658062	He was playing only his third event on the European Tour.	He was playing only his third event on the European Tour.	31297163	1472701333400	1472701333509	NA	76
59925	658062	He was playing only his third event on the European Tour.	He was playing only his third event on the European Tour.	31297166	1472701333569	1472701333679	NA	89
59925	658062	He was playing only his third event on the European Tour.	He was playing only his third event on the European Tour.	31297167	1472701333680	1472701333800	NA	32
59925	658062	He was playing only his third event on the European Tour.	He was playing only his third event on the European Tour.	31297168	1472701333820	1472701333890	NA	70
59925	658062	He was playing only his third event on the European Tour.	He was playing only his third event on the European Tour.	31297169	1472701334240	1472701334350		8
59925	658062	He was playing only his third event on the European Tour.	He was playing only his third event on the European Tour.	31297192	1472701334410	1472701334520	NA	72
59925	658062	He was playing only his third event on the European Tour.	He was playing only his third event on the European Tour.	31297194	1472701334530	1472701334640	NA	73
59925	658062	He was playing only his third event on the European Tour.	He was playing only his third event on the European Tour.	31297196	1472701334620	1472701334740	NA	83
59925	658062	He was playing only his third event on the European Tour.	He was playing only his third event on the European Tour.	31297198	1472701334751	1472701334870	NA	32
59925	658062	He was playing only his third event on the European Tour.	He was playing only his third event on the European Tour.	31297200	1472701335010	1472701335069	NA	84
59925	658062	He was playing only his third event on the European Tour.	He was playing only his third event on the European Tour.	31297236	1472701335120	1472701335198	NA	72
59925	658062	He was playing only his third event on the European Tour.	He was playing only his third event on the European Tour.	31297238	1472701335239	1472701335308	NA	82
59925	658062	He was playing only his third event on the European Tour.	He was playing only his third event on the European Tour.	31297240	1472701335329	1472701335419	NA	73
59925	658062	He was playing only his third event on the European Tour.	He was playing only his third event on the European Tour.	31297243	1472701335459	1472701335508	NA	69
59925	658062	He was playing only his third event on the European Tour.	He was playing only his third event on the European Tour.	31297246	1472701335950	1472701336020		8
59925	658062	He was playing only his third event on the European Tour.	He was playing only his third event on the European Tour.	31297267	1472701336100	1472701336190		8
59925	658062	He was playing only his third event on the European Tour.	He was playing only his third event on the European Tour.	31297270	1472701336260	1472701336370		8
59925	658062	He was playing only his third event on the European Tour.	He was playing only his third event on the European Tour.	31297273	1472701336430	1472701336530		8
59925	658062	He was playing only his third event on the European Tour.	He was playing only his third event on the European Tour.	31297276	1472701336600	1472701336690	NA	73
59925	658062	He was playing only his third event on the European Tour.	He was playing only his third event on the European Tour.	31297280	1472701337090	1472701337200		8
59925	658062	He was playing only his third event on the European Tour.	He was playing only his third event on the European Tour.	31297321	1472701337280	1472701337359	NA	72
59925	658062	He was playing only his third event on the European Tour.	He was playing only his third event on the European Tour.	31297322	1472701337400	1472701337510	NA	73
59925	658062	He was playing only his third event on the European Tour.	He was playing only his third event on the European Tour.	31297323	1472701337529	1472701337609	NA	82
59925	658062	He was playing only his third event on the European Tour.	He was playing only his third event on the European Tour.	31297325	1472701337779	1472701337869	NA	68
59925	658062	He was playing only his third event on the European Tour.	He was playing only his third event on the European Tour.	31297328	1472701338290	1472701338410	NA	32
59925	658062	He was playing only his third event on the European Tour.	He was playing only his third event on the European Tour.	31297362	1472701338520	1472701338610	NA	69
59925	658062	He was playing only his third event on the European Tour.	He was playing only his third event on the European Tour.	31297364	1472701338750	1472701338900	NA	86
59925	658062	He was playing only his third event on the European Tour.	He was playing only his third event on the European Tour.	31297368	1472701338870	1472701338990	NA	69
59925	658062	He was playing only his third event on the European Tour.	He was playing only his third event on the European Tour.	31297373	1472701339030	1472701339120	NA	78
59925	658062	He was playing only his third event on the European Tour.	He was playing only his third event on the European Tour.	31297377	1472701339160	1472701339240	NA	84
59925	658062	He was playing only his third event on the European Tour.	He was playing only his third event on the European Tour.	31297402	1472701339430	1472701339560	NA	32
59925	658062	He was playing only his third event on the European Tour.	He was playing only his third event on the European Tour.	31297515	1472701339610	1472701342139	NA	79
59925	658062	He was playing only his third event on the European Tour.	He was playing only his third event on the European Tour.	31297406	1472701339710	1472701339819	NA	78
59925	658062	He was playing only his third event on the European Tour.	He was playing only his third event on the European Tour.	31297409	1472701339770	1472701339889	NA	32
59925	658062	He was playing only his third event on the European Tour.	He was playing only his third event on the European Tour.	31297413	1472701339919	1472701340009	NA	84
59925	658062	He was playing only his third event on the European Tour.	He was playing only his third event on the European Tour.	31297461	1472701339999	1472701340079	NA	72
59925	658062	He was playing only his third event on the European Tour.	He was playing only his third event on the European Tour.	31297465	1472701340119	1472701340200	NA	69
59925	658062	He was playing only his third event on the European Tour.	He was playing only his third event on the European Tour.	31297472	1472701340179	1472701340309	NA	32
59925	658062	He was playing only his third event on the European Tour.	He was playing only his third event on the European Tour.	31297480	1472701340460	1472701340760	SHIFT	16
59925	658062	He was playing only his third event on the European Tour.	He was playing only his third event on the European Tour.	31297477	1472701340590	1472701340720	NA	69
59925	658062	He was playing only his third event on the European Tour.	He was playing only his third event on the European Tour.	31297483	1472701341120	1472701341210	NA	65
59925	658062	He was playing only his third event on the European Tour.	He was playing only his third event on the European Tour.	31297489	1472701341490	1472701341580		8
59925	658062	He was playing only his third event on the European Tour.	He was playing only his third event on the European Tour.	31297508	1472701341650	1472701341740	NA	85
59925	658062	He was playing only his third event on the European Tour.	He was playing only his third event on the European Tour.	31297511	1472701341750	1472701341901	NA	65
59925	658062	He was playing only his third event on the European Tour.	He was playing only his third event on the European Tour.	31297513	1472701341860	1472701341969	NA	82
59925	658062	He was playing only his third event on the European Tour.	He was playing only his third event on the European Tour.	31297704	1472701342019	1472701346390	NA	79
59925	658062	He was playing only his third event on the European Tour.	He was playing only his third event on the European Tour.	31297516	1472701342229	1472701342330	NA	80
59925	658062	He was playing only his third event on the European Tour.	He was playing only his third event on the European Tour.	31297597	1472701342420	1472701342600	NA	69
59925	658062	He was playing only his third event on the European Tour.	He was playing only his third event on the European Tour.	31297598	1472701342570	1472701342730	NA	65
59925	658062	He was playing only his third event on the European Tour.	He was playing only his third event on the European Tour.	31297599	1472701343550	1472701343669		8
59925	658062	He was playing only his third event on the European Tour.	He was playing only his third event on the European Tour.	31297601	1472701343699	1472701343819		8
59925	658062	He was playing only his third event on the European Tour.	He was playing only his third event on the European Tour.	31297603	1472701343899	1472701343999		8
59925	658062	He was playing only his third event on the European Tour.	He was playing only his third event on the European Tour.	31297700	1472701344060	1472701344150		8
59925	658062	He was playing only his third event on the European Tour.	He was playing only his third event on the European Tour.	31297701	1472701344210	1472701344320		8
59925	658062	He was playing only his third event on the European Tour.	He was playing only his third event on the European Tour.	31297702	1472701344371	1472701344450		8
59925	658062	He was playing only his third event on the European Tour.	He was playing only his third event on the European Tour.	31297703	1472701346140	1472701346220	NA	82
59925	658062	He was playing only his third event on the European Tour.	He was playing only his third event on the European Tour.	31297829	1472701346280	1472701348039	NA	79
59925	658062	He was playing only his third event on the European Tour.	He was playing only his third event on the European Tour.	31297739	1472701346490	1472701346610	NA	80
59925	658062	He was playing only his third event on the European Tour.	He was playing only his third event on the European Tour.	31297743	1472701346650	1472701346760	NA	69
59925	658062	He was playing only his third event on the European Tour.	He was playing only his third event on the European Tour.	31297752	1472701346840	1472701346980	NA	65
59925	658062	He was playing only his third event on the European Tour.	He was playing only his third event on the European Tour.	31297757	1472701347010	1472701347100	NA	78
59925	658062	He was playing only his third event on the European Tour.	He was playing only his third event on the European Tour.	31297762	1472701347290	1472701347440	NA	32
59925	658062	He was playing only his third event on the European Tour.	He was playing only his third event on the European Tour.	31297824	1472701347570	1472701347790	SHIFT	16
59925	658062	He was playing only his third event on the European Tour.	He was playing only his third event on the European Tour.	31297821	1472701347680	1472701347769	NA	84
59925	658062	He was playing only his third event on the European Tour.	He was playing only his third event on the European Tour.	31297835	1472701347991	1472701348099	NA	85
59925	658062	He was playing only his third event on the European Tour.	He was playing only his third event on the European Tour.	31297841	1472701348100	1472701348199	NA	82
59925	658062	He was playing only his third event on the European Tour.	He was playing only his third event on the European Tour.	31297845	1472701348360	1472701348480	NA	190
59925	658077	I decided that I am going to stay here!	I decided that I am going to stay here!	31297962	1472701350951	1472701351150	SHIFT	16
59925	658077	I decided that I am going to stay here!	I decided that I am going to stay here!	31297963	1472701351090	1472701351214	NA	73
59925	658077	I decided that I am going to stay here!	I decided that I am going to stay here!	31297964	1472701351191	1472701351310	NA	32
59925	658077	I decided that I am going to stay here!	I decided that I am going to stay here!	31297965	1472701351408	1472701351449	NA	68
59925	658077	I decided that I am going to stay here!	I decided that I am going to stay here!	31297966	1472701351552	1472701351621	NA	69
59925	658077	I decided that I am going to stay here!	I decided that I am going to stay here!	31297967	1472701351740	1472701351820	NA	67
59925	658077	I decided that I am going to stay here!	I decided that I am going to stay here!	31297991	1472701351850	1472701351940	NA	73
59925	658077	I decided that I am going to stay here!	I decided that I am going to stay here!	31297995	1472701351970	1472701352050	NA	68
59925	658077	I decided that I am going to stay here!	I decided that I am going to stay here!	31297999	1472701352130	1472701352189	NA	68
59925	658077	I decided that I am going to stay here!	I decided that I am going to stay here!	31298002	1472701352270	1472701352340	NA	69
59925	658077	I decided that I am going to stay here!	I decided that I am going to stay here!	31298004	1472701352680	1472701352759		8
59925	658077	I decided that I am going to stay here!	I decided that I am going to stay here!	31298036	1472701352819	1472701352929		8
59925	658077	I decided that I am going to stay here!	I decided that I am going to stay here!	31298037	1472701353069	1472701353138	NA	69
59925	658077	I decided that I am going to stay here!	I decided that I am going to stay here!	31298038	1472701353240	1472701353340	NA	68
59925	658077	I decided that I am going to stay here!	I decided that I am going to stay here!	31298039	1472701353381	1472701353510	NA	32
59925	658077	I decided that I am going to stay here!	I decided that I am going to stay here!	31298040	1472701353830	1472701353932	NA	84
59925	658077	I decided that I am going to stay here!	I decided that I am going to stay here!	31298069	1472701353920	1472701354005	NA	72
59925	658077	I decided that I am going to stay here!	I decided that I am going to stay here!	31298071	1472701354000	1472701354130	NA	65
59925	658077	I decided that I am going to stay here!	I decided that I am going to stay here!	31298073	1472701354090	1472701354190	NA	84
59925	658077	I decided that I am going to stay here!	I decided that I am going to stay here!	31298075	1472701354141	1472701354279	NA	32
59925	658077	I decided that I am going to stay here!	I decided that I am going to stay here!	31298077	1472701354370	1472701354580	NA	73
59925	658077	I decided that I am going to stay here!	I decided that I am going to stay here!	31298108	1472701354461	1472701354620	NA	32
59925	658077	I decided that I am going to stay here!	I decided that I am going to stay here!	31298111	1472701354750	1472701354899	NA	65
59925	658077	I decided that I am going to stay here!	I decided that I am going to stay here!	31298115	1472701354869	1472701355049	NA	77
59925	658077	I decided that I am going to stay here!	I decided that I am going to stay here!	31298118	1472701355009	1472701355169	NA	32
59925	658077	I decided that I am going to stay here!	I decided that I am going to stay here!	31298121	1472701355400	1472701355530		8
59925	658077	I decided that I am going to stay here!	I decided that I am going to stay here!	31298123	1472701355550	1472701355670		8
59925	658077	I decided that I am going to stay here!	I decided that I am going to stay here!	31298152	1472701355730	1472701355830		8
59925	658077	I decided that I am going to stay here!	I decided that I am going to stay here!	31298156	1472701355880	1472701355990		8
59925	658077	I decided that I am going to stay here!	I decided that I am going to stay here!	31298159	1472701356060	1472701356160		8
59925	658077	I decided that I am going to stay here!	I decided that I am going to stay here!	31298160	1472701356220	1472701356330		8
59925	658077	I decided that I am going to stay here!	I decided that I am going to stay here!	31298161	1472701356350	1472701356559	SHIFT	16
59925	658077	I decided that I am going to stay here!	I decided that I am going to stay here!	31298212	1472701356440	1472701356569	NA	73
59925	658077	I decided that I am going to stay here!	I decided that I am going to stay here!	31298215	1472701356869	1472701357010		8
59925	658077	I decided that I am going to stay here!	I decided that I am going to stay here!	31298221	1472701357060	1472701357181	NA	32
59925	658077	I decided that I am going to stay here!	I decided that I am going to stay here!	31298228	1472701357181	1472701357430	SHIFT	16
59925	658077	I decided that I am going to stay here!	I decided that I am going to stay here!	31298224	1472701357310	1472701357420	NA	73
59925	658077	I decided that I am going to stay here!	I decided that I am going to stay here!	31298231	1472701357470	1472701357610	NA	32
59925	658077	I decided that I am going to stay here!	I decided that I am going to stay here!	31298234	1472701357740	1472701357900	NA	65
59925	658077	I decided that I am going to stay here!	I decided that I am going to stay here!	31298254	1472701357850	1472701357979	NA	77
59925	658077	I decided that I am going to stay here!	I decided that I am going to stay here!	31298258	1472701357940	1472701358100	NA	32
59925	658077	I decided that I am going to stay here!	I decided that I am going to stay here!	31298262	1472701358400	1472701358519	NA	71
59925	658077	I decided that I am going to stay here!	I decided that I am going to stay here!	31298304	1472701358490	1472701359360	NA	79
59925	658077	I decided that I am going to stay here!	I decided that I am going to stay here!	31298287	1472701358589	1472701358798	NA	73
59925	658077	I decided that I am going to stay here!	I decided that I am going to stay here!	31298293	1472701358729	1472701358840	NA	78
59925	658077	I decided that I am going to stay here!	I decided that I am going to stay here!	31298296	1472701358870	1472701358969	NA	71
59925	658077	I decided that I am going to stay here!	I decided that I am going to stay here!	31298300	1472701358950	1472701359100	NA	32
59925	658077	I decided that I am going to stay here!	I decided that I am going to stay here!	31298302	1472701359111	1472701359219	NA	84
59925	658077	I decided that I am going to stay here!	I decided that I am going to stay here!	31298330	1472701359290	1472701359461	NA	32
59925	658077	I decided that I am going to stay here!	I decided that I am going to stay here!	31298331	1472701359660	1472701359868	NA	83
59925	658077	I decided that I am going to stay here!	I decided that I am going to stay here!	31298332	1472701359820	1472701359949	NA	84
59925	658077	I decided that I am going to stay here!	I decided that I am going to stay here!	31298333	1472701359959	1472701360100	NA	65
59925	658077	I decided that I am going to stay here!	I decided that I am going to stay here!	31298335	1472701360059	1472701360160	NA	89
59925	658077	I decided that I am going to stay here!	I decided that I am going to stay here!	31298337	1472701360230	1472701360380	NA	32
59925	658077	I decided that I am going to stay here!	I decided that I am going to stay here!	31298358	1472701360400	1472701360480	NA	87
59925	658077	I decided that I am going to stay here!	I decided that I am going to stay here!	31298361	1472701360830	1472701360960		8
59925	658077	I decided that I am going to stay here!	I decided that I am going to stay here!	31298366	1472701361010	1472701361100	NA	72
59925	658077	I decided that I am going to stay here!	I decided that I am going to stay here!	31298370	1472701361080	1472701361210	NA	69
59925	658077	I decided that I am going to stay here!	I decided that I am going to stay here!	31298629	1472701361180	1472701361330	NA	82
59925	658077	I decided that I am going to stay here!	I decided that I am going to stay here!	31298631	1472701361290	1472701361409	NA	69
59925	658077	I decided that I am going to stay here!	I decided that I am going to stay here!	31298638	1472701361739	1472701362560	SHIFT	16
59925	658077	I decided that I am going to stay here!	I decided that I am going to stay here!	31298634	1472701362372	1472701362520	NA	191
59925	658077	I decided that I am going to stay here!	I decided that I am going to stay here!	31298641	1472701363240	1472701363390		8
59925	658077	I decided that I am going to stay here!	I decided that I am going to stay here!	31298644	1472701363340	1472701365329	SHIFT	16
59925	658077	I decided that I am going to stay here!	I decided that I am going to stay here!	31298649	1472701365930	1472701366240	SHIFT	16
59925	658077	I decided that I am going to stay here!	I decided that I am going to stay here!	31298647	1472701366090	1472701366209	NA	49
59925	658094	It was great to finally meet you.	It was great to finally meet you.	31298757	1472701369330	1472701369539	SHIFT	16
59925	658094	It was great to finally meet you.	It was great to finally meet you.	31298760	1472701369450	1472701369541	NA	73
59925	658094	It was great to finally meet you.	It was great to finally meet you.	31298763	1472701369660	1472701369810	NA	84
59925	658094	It was great to finally meet you.	It was great to finally meet you.	31298765	1472701369800	1472701369953	NA	32
59925	658094	It was great to finally meet you.	It was great to finally meet you.	31298766	1472701369949	1472701370079	NA	87
59925	658094	It was great to finally meet you.	It was great to finally meet you.	31298768	1472701370169	1472701370340	NA	65
59925	658094	It was great to finally meet you.	It was great to finally meet you.	31298785	1472701370250	1472701370430	NA	83
59925	658094	It was great to finally meet you.	It was great to finally meet you.	31298789	1472701370380	1472701370530	NA	32
59925	658094	It was great to finally meet you.	It was great to finally meet you.	31298792	1472701370770	1472701370850	NA	71
59925	658094	It was great to finally meet you.	It was great to finally meet you.	31298794	1472701370940	1472701371109	NA	82
59925	658094	It was great to finally meet you.	It was great to finally meet you.	31298797	1472701371020	1472701371181	NA	69
59925	658094	It was great to finally meet you.	It was great to finally meet you.	31298816	1472701371140	1472701371339	NA	65
59925	658094	It was great to finally meet you.	It was great to finally meet you.	31298817	1472701371270	1472701371420	NA	84
59925	658094	It was great to finally meet you.	It was great to finally meet you.	31298818	1472701371480	1472701371639	NA	32
59925	658094	It was great to finally meet you.	It was great to finally meet you.	31298819	1472701371669	1472701371800	NA	84
59925	658094	It was great to finally meet you.	It was great to finally meet you.	31298919	1472701371749	1472701374520	NA	79
59925	658094	It was great to finally meet you.	It was great to finally meet you.	31298844	1472701371840	1472701372001	NA	32
59925	658094	It was great to finally meet you.	It was great to finally meet you.	31298846	1472701372082	1472701372240	NA	70
59925	658094	It was great to finally meet you.	It was great to finally meet you.	31298847	1472701372190	1472701372359	NA	73
59925	658094	It was great to finally meet you.	It was great to finally meet you.	31298848	1472701372290	1472701372440	NA	78
59925	658094	It was great to finally meet you.	It was great to finally meet you.	31298849	1472701372470	1472701372640	NA	65
59925	658094	It was great to finally meet you.	It was great to finally meet you.	31298858	1472701372570	1472701372660	NA	76
59925	658094	It was great to finally meet you.	It was great to finally meet you.	31298860	1472701372740	1472701372870	NA	76
59925	658094	It was great to finally meet you.	It was great to finally meet you.	31298863	1472701372930	1472701373090	NA	89
59925	658094	It was great to finally meet you.	It was great to finally meet you.	31298866	1472701373040	1472701373200	NA	32
59925	658094	It was great to finally meet you.	It was great to finally meet you.	31298868	1472701373339	1472701373463	NA	77
59925	658094	It was great to finally meet you.	It was great to finally meet you.	31298887	1472701373459	1472701373538	NA	69
59925	658094	It was great to finally meet you.	It was great to finally meet you.	31298890	1472701373640	1472701373730	NA	69
59925	658094	It was great to finally meet you.	It was great to finally meet you.	31298894	1472701373790	1472701373909	NA	84
59925	658094	It was great to finally meet you.	It was great to finally meet you.	31298895	1472701373970	1472701374140	NA	32
59925	658094	It was great to finally meet you.	It was great to finally meet you.	31298898	1472701374230	1472701374370	NA	89
59925	658094	It was great to finally meet you.	It was great to finally meet you.	31298921	1472701374460	1472701374610	NA	85
59925	658094	It was great to finally meet you.	It was great to finally meet you.	31298923	1472701374700	1472701374860	NA	190
59925	658099	Have not added Westport on yet.	Have not added Westport on yet.	31298986	1472701377130	1472701377319	SHIFT	16
59925	658099	Have not added Westport on yet.	Have not added Westport on yet.	31298988	1472701377229	1472701377348	NA	72
59925	658099	Have not added Westport on yet.	Have not added Westport on yet.	31298991	1472701377429	1472701377590	NA	65
59925	658099	Have not added Westport on yet.	Have not added Westport on yet.	31298993	1472701377539	1472701377689	NA	86
59925	658099	Have not added Westport on yet.	Have not added Westport on yet.	31298995	1472701377650	1472701377780	NA	69
59925	658099	Have not added Westport on yet.	Have not added Westport on yet.	31299035	1472701377740	1472701377882	NA	32
59925	658099	Have not added Westport on yet.	Have not added Westport on yet.	31299038	1472701377840	1472701377990	NA	78
59925	658099	Have not added Westport on yet.	Have not added Westport on yet.	31299195	1472701377930	1472701382370	NA	79
59925	658099	Have not added Westport on yet.	Have not added Westport on yet.	31299050	1472701378070	1472701378139	NA	84
59925	658099	Have not added Westport on yet.	Have not added Westport on yet.	31299057	1472701378210	1472701378360	NA	32
59925	658099	Have not added Westport on yet.	Have not added Westport on yet.	31299063	1472701378850	1472701378980	NA	65
59925	658099	Have not added Westport on yet.	Have not added Westport on yet.	31299086	1472701379010	1472701379089	NA	83
59925	658099	Have not added Westport on yet.	Have not added Westport on yet.	31299087	1472701379409	1472701379530		8
59925	658099	Have not added Westport on yet.	Have not added Westport on yet.	31299088	1472701379519	1472701379609	NA	68
59925	658099	Have not added Westport on yet.	Have not added Westport on yet.	31299089	1472701379680	1472701379780	NA	68
59925	658099	Have not added Westport on yet.	Have not added Westport on yet.	31299091	1472701379870	1472701379939	NA	69
59925	658099	Have not added Westport on yet.	Have not added Westport on yet.	31299160	1472701380040	1472701380160	NA	68
59925	658099	Have not added Westport on yet.	Have not added Westport on yet.	31299164	1472701380170	1472701380330	NA	32
59925	658099	Have not added Westport on yet.	Have not added Westport on yet.	31299172	1472701380720	1472701381020	SHIFT	16
59925	658099	Have not added Westport on yet.	Have not added Westport on yet.	31299168	1472701380840	1472701380980	NA	87
59925	658099	Have not added Westport on yet.	Have not added Westport on yet.	31299173	1472701381369	1472701381489	NA	69
59925	658099	Have not added Westport on yet.	Have not added Westport on yet.	31299174	1472701381549	1472701381730	NA	83
59925	658099	Have not added Westport on yet.	Have not added Westport on yet.	31299192	1472701381670	1472701381770	NA	84
59925	658099	Have not added Westport on yet.	Have not added Westport on yet.	31299193	1472701382070	1472701382160	NA	80
59925	658099	Have not added Westport on yet.	Have not added Westport on yet.	31299216	1472701382220	1472701383210	NA	79
59925	658099	Have not added Westport on yet.	Have not added Westport on yet.	31299197	1472701382350	1472701382460	NA	82
59925	658099	Have not added Westport on yet.	Have not added Westport on yet.	31299200	1472701382550	1472701382660	NA	84
59925	658099	Have not added Westport on yet.	Have not added Westport on yet.	31299204	1472701382860	1472701383020	NA	32
59925	658099	Have not added Westport on yet.	Have not added Westport on yet.	31299219	1472701383140	1472701383279	NA	78
59925	658099	Have not added Westport on yet.	Have not added Westport on yet.	31299222	1472701383210	1472701383369	NA	32
59925	658099	Have not added Westport on yet.	Have not added Westport on yet.	31299225	1472701383489	1472701383569	NA	89
59925	658099	Have not added Westport on yet.	Have not added Westport on yet.	31299242	1472701383548	1472701383730	NA	69
59925	658099	Have not added Westport on yet.	Have not added Westport on yet.	31299244	1472701383690	1472701383810	NA	84
59925	658099	Have not added Westport on yet.	Have not added Westport on yet.	31299245	1472701383990	1472701384140	NA	190
59925	658108	We are about to leave Heaven!	We are about to leave Heaven!	31299372	1472701386349	1472701386640	SHIFT	16
59925	658108	We are about to leave Heaven!	We are about to leave Heaven!	31299375	1472701386500	1472701386660	NA	87
59925	658108	We are about to leave Heaven!	We are about to leave Heaven!	31299377	1472701386820	1472701387009	NA	69
59925	658108	We are about to leave Heaven!	We are about to leave Heaven!	31299379	1472701387080	1472701387220	NA	32
59925	658108	We are about to leave Heaven!	We are about to leave Heaven!	31299382	1472701387350	1472701387459	NA	65
59925	658108	We are about to leave Heaven!	We are about to leave Heaven!	31299393	1472701387420	1472701387569	NA	82
59925	658108	We are about to leave Heaven!	We are about to leave Heaven!	31299395	1472701387499	1472701387641	NA	69
59925	658108	We are about to leave Heaven!	We are about to leave Heaven!	31299399	1472701387590	1472701387770	NA	32
59925	658108	We are about to leave Heaven!	We are about to leave Heaven!	31299404	1472701387850	1472701387990	NA	65
59925	658108	We are about to leave Heaven!	We are about to leave Heaven!	31299411	1472701388040	1472701388139	NA	66
59925	658108	We are about to leave Heaven!	We are about to leave Heaven!	31299466	1472701388089	1472701388770	NA	79
59925	658108	We are about to leave Heaven!	We are about to leave Heaven!	31299435	1472701388180	1472701388319	NA	85
59925	658108	We are about to leave Heaven!	We are about to leave Heaven!	31299438	1472701388321	1472701388430	NA	84
59925	658108	We are about to leave Heaven!	We are about to leave Heaven!	31299442	1472701388419	1472701388569	NA	32
59925	658108	We are about to leave Heaven!	We are about to leave Heaven!	31299448	1472701388559	1472701388679	NA	84
59925	658108	We are about to leave Heaven!	We are about to leave Heaven!	31299468	1472701388710	1472701388870	NA	32
59925	658108	We are about to leave Heaven!	We are about to leave Heaven!	31299472	1472701388860	1472701388989	NA	76
59925	658108	We are about to leave Heaven!	We are about to leave Heaven!	31299478	1472701388939	1472701389109	NA	69
59925	658108	We are about to leave Heaven!	We are about to leave Heaven!	31299484	1472701389060	1472701389279	NA	65
59925	658108	We are about to leave Heaven!	We are about to leave Heaven!	31299526	1472701389230	1472701389393	NA	86
59925	658108	We are about to leave Heaven!	We are about to leave Heaven!	31299531	1472701389360	1472701389480	NA	69
59925	658108	We are about to leave Heaven!	We are about to leave Heaven!	31299534	1472701389510	1472701389660	NA	32
59925	658108	We are about to leave Heaven!	We are about to leave Heaven!	31299538	1472701389790	1472701389980	SHIFT	16
59925	658108	We are about to leave Heaven!	We are about to leave Heaven!	31299541	1472701389890	1472701390000	NA	72
59925	658108	We are about to leave Heaven!	We are about to leave Heaven!	31299544	1472701390030	1472701390199	NA	69
59925	658108	We are about to leave Heaven!	We are about to leave Heaven!	31299611	1472701390150	1472701390310	NA	65
59925	658108	We are about to leave Heaven!	We are about to leave Heaven!	31299614	1472701390440	1472701390589	NA	86
59925	658108	We are about to leave Heaven!	We are about to leave Heaven!	31299621	1472701390749	1472701390903	NA	69
59925	658108	We are about to leave Heaven!	We are about to leave Heaven!	31299626	1472701390899	1472701391030	NA	78
59925	658108	We are about to leave Heaven!	We are about to leave Heaven!	31299634	1472701391410	1472701391740	SHIFT	16
59925	658108	We are about to leave Heaven!	We are about to leave Heaven!	31299631	1472701391570	1472701391710	NA	49
59925	658112	I meant to try and explain, not to redo.	I meant to try and explain, not to redo.	31299849	1472701393950	1472701394111	CTRL	17
59925	658112	I meant to try and explain, not to redo.	I meant to try and explain, not to redo.	31299848	1472701393980	1472701394111	SHIFT	16
59925	658112	I meant to try and explain, not to redo.	I meant to try and explain, not to redo.	31299850	1472701394030	1472701394192	NA	73
59925	658112	I meant to try and explain, not to redo.	I meant to try and explain, not to redo.	31299852	1472701401841	1472701402060	SHIFT	16
59925	658112	I meant to try and explain, not to redo.	I meant to try and explain, not to redo.	31299854	1472701401970	1472701402131	NA	73
59925	658112	I meant to try and explain, not to redo.	I meant to try and explain, not to redo.	31299856	1472701402123	1472701402270	NA	32
59925	658112	I meant to try and explain, not to redo.	I meant to try and explain, not to redo.	31299858	1472701402319	1472701402418	NA	77
59925	658112	I meant to try and explain, not to redo.	I meant to try and explain, not to redo.	31299868	1472701402349	1472701402479	NA	69
59925	658112	I meant to try and explain, not to redo.	I meant to try and explain, not to redo.	31299870	1472701402439	1472701402605	NA	65
59925	658112	I meant to try and explain, not to redo.	I meant to try and explain, not to redo.	31299872	1472701402605	1472701402680	NA	78
59925	658112	I meant to try and explain, not to redo.	I meant to try and explain, not to redo.	31299876	1472701402755	1472701402891	NA	84
59925	658112	I meant to try and explain, not to redo.	I meant to try and explain, not to redo.	31299877	1472701402894	1472701403040	NA	32
59925	658112	I meant to try and explain, not to redo.	I meant to try and explain, not to redo.	31299879	1472701403110	1472701403230	NA	84
59925	658112	I meant to try and explain, not to redo.	I meant to try and explain, not to redo.	31299989	1472701403160	1472701407054	NA	79
59925	658112	I meant to try and explain, not to redo.	I meant to try and explain, not to redo.	31299888	1472701403270	1472701403440	NA	32
59925	658112	I meant to try and explain, not to redo.	I meant to try and explain, not to redo.	31299890	1472701403460	1472701403565	NA	84
59925	658112	I meant to try and explain, not to redo.	I meant to try and explain, not to redo.	31299891	1472701403660	1472701403759	NA	82
59925	658112	I meant to try and explain, not to redo.	I meant to try and explain, not to redo.	31299892	1472701403729	1472701403890	NA	89
59925	658112	I meant to try and explain, not to redo.	I meant to try and explain, not to redo.	31299912	1472701403880	1472701403980	NA	32
59925	658112	I meant to try and explain, not to redo.	I meant to try and explain, not to redo.	31299916	1472701404050	1472701404179	NA	65
59925	658112	I meant to try and explain, not to redo.	I meant to try and explain, not to redo.	31299918	1472701404130	1472701404280	NA	78
59925	658112	I meant to try and explain, not to redo.	I meant to try and explain, not to redo.	31299920	1472701404260	1472701404380	NA	68
59925	658112	I meant to try and explain, not to redo.	I meant to try and explain, not to redo.	31299922	1472701404350	1472701404490	NA	32
59925	658112	I meant to try and explain, not to redo.	I meant to try and explain, not to redo.	31299923	1472701404500	1472701404590	NA	69
59925	658112	I meant to try and explain, not to redo.	I meant to try and explain, not to redo.	31299953	1472701404710	1472701404863	NA	88
59925	658112	I meant to try and explain, not to redo.	I meant to try and explain, not to redo.	31299955	1472701404849	1472701404968	NA	80
59925	658112	I meant to try and explain, not to redo.	I meant to try and explain, not to redo.	31299957	1472701405380	1472701405511	NA	76
59925	658112	I meant to try and explain, not to redo.	I meant to try and explain, not to redo.	31299959	1472701405500	1472701405660	NA	65
59925	658112	I meant to try and explain, not to redo.	I meant to try and explain, not to redo.	31299961	1472701405690	1472701405879	NA	73
59925	658112	I meant to try and explain, not to redo.	I meant to try and explain, not to redo.	31299983	1472701405810	1472701405960	NA	78
59925	658112	I meant to try and explain, not to redo.	I meant to try and explain, not to redo.	31299985	1472701406290	1472701406440	NA	188
59925	658112	I meant to try and explain, not to redo.	I meant to try and explain, not to redo.	31299987	1472701406470	1472701406620	NA	32
59925	658112	I meant to try and explain, not to redo.	I meant to try and explain, not to redo.	31299988	1472701406800	1472701406940	NA	78
59925	658112	I meant to try and explain, not to redo.	I meant to try and explain, not to redo.	31300029	1472701406909	1472701407679	NA	79
59925	658112	I meant to try and explain, not to redo.	I meant to try and explain, not to redo.	31300019	1472701407029	1472701407149	NA	84
59925	658112	I meant to try and explain, not to redo.	I meant to try and explain, not to redo.	31300022	1472701407189	1472701407359	NA	32
59925	658112	I meant to try and explain, not to redo.	I meant to try and explain, not to redo.	31300027	1472701407429	1472701407550	NA	84
59925	658112	I meant to try and explain, not to redo.	I meant to try and explain, not to redo.	31300109	1472701407489	1472701409328	NA	79
59925	658112	I meant to try and explain, not to redo.	I meant to try and explain, not to redo.	31300031	1472701407620	1472701407770	NA	32
59925	658112	I meant to try and explain, not to redo.	I meant to try and explain, not to redo.	31300033	1472701408070	1472701408120	NA	68
59925	658112	I meant to try and explain, not to redo.	I meant to try and explain, not to redo.	31300042	1472701408240	1472701408330	NA	82
59925	658112	I meant to try and explain, not to redo.	I meant to try and explain, not to redo.	31300044	1472701408510	1472701408600		8
59925	658112	I meant to try and explain, not to redo.	I meant to try and explain, not to redo.	31300046	1472701408660	1472701408770		8
59925	658112	I meant to try and explain, not to redo.	I meant to try and explain, not to redo.	31300048	1472701408710	1472701408850	NA	82
59925	658112	I meant to try and explain, not to redo.	I meant to try and explain, not to redo.	31300106	1472701408790	1472701408900	NA	69
59925	658112	I meant to try and explain, not to redo.	I meant to try and explain, not to redo.	31300108	1472701409110	1472701409230	NA	68
59925	658112	I meant to try and explain, not to redo.	I meant to try and explain, not to redo.	31300110	1472701409504	1472701409599	NA	190
59925	658127	New York's Supreme Court upheld a lower court decision.	New York's Supreme Court upheld a lower court decision.	31300199	1472701412290	1472701412481	SHIFT	16
59925	658127	New York's Supreme Court upheld a lower court decision.	New York's Supreme Court upheld a lower court decision.	31300203	1472701412400	1472701412540	NA	78
59925	658127	New York's Supreme Court upheld a lower court decision.	New York's Supreme Court upheld a lower court decision.	31300204	1472701412560	1472701412779	NA	69
59925	658127	New York's Supreme Court upheld a lower court decision.	New York's Supreme Court upheld a lower court decision.	31300205	1472701412690	1472701412870	NA	87
59925	658127	New York's Supreme Court upheld a lower court decision.	New York's Supreme Court upheld a lower court decision.	31300206	1472701412880	1472701413030	NA	32
59925	658127	New York's Supreme Court upheld a lower court decision.	New York's Supreme Court upheld a lower court decision.	31300230	1472701413140	1472701413393	SHIFT	16
59925	658127	New York's Supreme Court upheld a lower court decision.	New York's Supreme Court upheld a lower court decision.	31300207	1472701413240	1472701413350	NA	89
59925	658127	New York's Supreme Court upheld a lower court decision.	New York's Supreme Court upheld a lower court decision.	31300380	1472701413429	1472701417749	NA	79
59925	658127	New York's Supreme Court upheld a lower court decision.	New York's Supreme Court upheld a lower court decision.	31300237	1472701413550	1472701413660	NA	82
59925	658127	New York's Supreme Court upheld a lower court decision.	New York's Supreme Court upheld a lower court decision.	31300241	1472701413790	1472701413929	NA	75
59925	658127	New York's Supreme Court upheld a lower court decision.	New York's Supreme Court upheld a lower court decision.	31300244	1472701414090	1472701414239	NA	222
59925	658127	New York's Supreme Court upheld a lower court decision.	New York's Supreme Court upheld a lower court decision.	31300302	1472701414210	1472701414370	NA	83
59925	658127	New York's Supreme Court upheld a lower court decision.	New York's Supreme Court upheld a lower court decision.	31300304	1472701414340	1472701414500	NA	32
59925	658127	New York's Supreme Court upheld a lower court decision.	New York's Supreme Court upheld a lower court decision.	31300306	1472701414870	1472701415180	SHIFT	16
59925	658127	New York's Supreme Court upheld a lower court decision.	New York's Supreme Court upheld a lower court decision.	31300308	1472701415030	1472701415190	NA	83
59925	658127	New York's Supreme Court upheld a lower court decision.	New York's Supreme Court upheld a lower court decision.	31300310	1472701415450	1472701415580	NA	85
59925	658127	New York's Supreme Court upheld a lower court decision.	New York's Supreme Court upheld a lower court decision.	31300312	1472701415540	1472701415680	NA	80
59925	658127	New York's Supreme Court upheld a lower court decision.	New York's Supreme Court upheld a lower court decision.	31300314	1472701415820	1472701415959	NA	82
59925	658127	New York's Supreme Court upheld a lower court decision.	New York's Supreme Court upheld a lower court decision.	31300364	1472701415900	1472701416039	NA	69
59925	658127	New York's Supreme Court upheld a lower court decision.	New York's Supreme Court upheld a lower court decision.	31300366	1472701416139	1472701416249	NA	77
59925	658127	New York's Supreme Court upheld a lower court decision.	New York's Supreme Court upheld a lower court decision.	31300369	1472701416250	1472701416348	NA	69
59925	658127	New York's Supreme Court upheld a lower court decision.	New York's Supreme Court upheld a lower court decision.	31300372	1472701416780	1472701416920	NA	32
59925	658127	New York's Supreme Court upheld a lower court decision.	New York's Supreme Court upheld a lower court decision.	31300375	1472701417290	1472701417530	SHIFT	16
59925	658127	New York's Supreme Court upheld a lower court decision.	New York's Supreme Court upheld a lower court decision.	31300378	1472701417420	1472701417560	NA	67
59925	658127	New York's Supreme Court upheld a lower court decision.	New York's Supreme Court upheld a lower court decision.	31300492	1472701417630	1472701421509	NA	79
59925	658127	New York's Supreme Court upheld a lower court decision.	New York's Supreme Court upheld a lower court decision.	31300405	1472701417699	1472701417820	NA	85
59925	658127	New York's Supreme Court upheld a lower court decision.	New York's Supreme Court upheld a lower court decision.	31300407	1472701417830	1472701417909	NA	82
59925	658127	New York's Supreme Court upheld a lower court decision.	New York's Supreme Court upheld a lower court decision.	31300409	1472701418030	1472701418128	NA	84
59925	658127	New York's Supreme Court upheld a lower court decision.	New York's Supreme Court upheld a lower court decision.	31300411	1472701418259	1472701418430	NA	32
59925	658127	New York's Supreme Court upheld a lower court decision.	New York's Supreme Court upheld a lower court decision.	31300413	1472701418850	1472701418920	NA	85
59925	658127	New York's Supreme Court upheld a lower court decision.	New York's Supreme Court upheld a lower court decision.	31300416	1472701419270	1472701419379	NA	80
59925	658127	New York's Supreme Court upheld a lower court decision.	New York's Supreme Court upheld a lower court decision.	31300441	1472701419660	1472701419730	NA	72
59925	658127	New York's Supreme Court upheld a lower court decision.	New York's Supreme Court upheld a lower court decision.	31300443	1472701419760	1472701419861	NA	69
59925	658127	New York's Supreme Court upheld a lower court decision.	New York's Supreme Court upheld a lower court decision.	31300445	1472701419870	1472701420000	NA	76
59925	658127	New York's Supreme Court upheld a lower court decision.	New York's Supreme Court upheld a lower court decision.	31300448	1472701420419	1472701420549	NA	68
59925	658127	New York's Supreme Court upheld a lower court decision.	New York's Supreme Court upheld a lower court decision.	31300451	1472701420579	1472701420730	NA	32
59925	658127	New York's Supreme Court upheld a lower court decision.	New York's Supreme Court upheld a lower court decision.	31300464	1472701420810	1472701420950	NA	65
59925	658127	New York's Supreme Court upheld a lower court decision.	New York's Supreme Court upheld a lower court decision.	31300466	1472701420930	1472701421070	NA	32
59925	658127	New York's Supreme Court upheld a lower court decision.	New York's Supreme Court upheld a lower court decision.	31300468	1472701421130	1472701421250	NA	76
59925	658127	New York's Supreme Court upheld a lower court decision.	New York's Supreme Court upheld a lower court decision.	31300471	1472701421269	1472701421430	NA	87
59925	658127	New York's Supreme Court upheld a lower court decision.	New York's Supreme Court upheld a lower court decision.	31300541	1472701421420	1472701423030	NA	79
59925	658127	New York's Supreme Court upheld a lower court decision.	New York's Supreme Court upheld a lower court decision.	31300494	1472701421492	1472701421660	NA	69
59925	658127	New York's Supreme Court upheld a lower court decision.	New York's Supreme Court upheld a lower court decision.	31300497	1472701421610	1472701421750	NA	82
59925	658127	New York's Supreme Court upheld a lower court decision.	New York's Supreme Court upheld a lower court decision.	31300499	1472701421830	1472701421879	NA	76
59925	658127	New York's Supreme Court upheld a lower court decision.	New York's Supreme Court upheld a lower court decision.	31300501	1472701421951	1472701422050		8
59925	658127	New York's Supreme Court upheld a lower court decision.	New York's Supreme Court upheld a lower court decision.	31300503	1472701422110	1472701422210		8
59925	658127	New York's Supreme Court upheld a lower court decision.	New York's Supreme Court upheld a lower court decision.	31300532	1472701422290	1472701422370		8
59925	658127	New York's Supreme Court upheld a lower court decision.	New York's Supreme Court upheld a lower court decision.	31300534	1472701422440	1472701422530		8
59925	658127	New York's Supreme Court upheld a lower court decision.	New York's Supreme Court upheld a lower court decision.	31300538	1472701422620	1472701422719		8
59925	658127	New York's Supreme Court upheld a lower court decision.	New York's Supreme Court upheld a lower court decision.	31300584	1472701422920	1472701424560	NA	79
59925	658127	New York's Supreme Court upheld a lower court decision.	New York's Supreme Court upheld a lower court decision.	31300546	1472701423360	1472701423500	NA	87
59925	658127	New York's Supreme Court upheld a lower court decision.	New York's Supreme Court upheld a lower court decision.	31300558	1472701423630	1472701423801	NA	69
59925	658127	New York's Supreme Court upheld a lower court decision.	New York's Supreme Court upheld a lower court decision.	31300560	1472701423740	1472701423890	NA	82
59925	658127	New York's Supreme Court upheld a lower court decision.	New York's Supreme Court upheld a lower court decision.	31300563	1472701423970	1472701424110	NA	32
59925	658127	New York's Supreme Court upheld a lower court decision.	New York's Supreme Court upheld a lower court decision.	31300565	1472701424340	1472701424461	NA	67
59925	658127	New York's Supreme Court upheld a lower court decision.	New York's Supreme Court upheld a lower court decision.	31300671	1472701424450	1472701426539	NA	79
59925	658127	New York's Supreme Court upheld a lower court decision.	New York's Supreme Court upheld a lower court decision.	31300587	1472701424529	1472701424640	NA	85
59925	658127	New York's Supreme Court upheld a lower court decision.	New York's Supreme Court upheld a lower court decision.	31300591	1472701424670	1472701424759	NA	82
59925	658127	New York's Supreme Court upheld a lower court decision.	New York's Supreme Court upheld a lower court decision.	31300595	1472701424869	1472701424960	NA	84
59925	658127	New York's Supreme Court upheld a lower court decision.	New York's Supreme Court upheld a lower court decision.	31300597	1472701425030	1472701425160	NA	32
59925	658127	New York's Supreme Court upheld a lower court decision.	New York's Supreme Court upheld a lower court decision.	31300600	1472701425350	1472701425461	NA	68
59925	658127	New York's Supreme Court upheld a lower court decision.	New York's Supreme Court upheld a lower court decision.	31300617	1472701425570	1472701425620	NA	69
59925	658127	New York's Supreme Court upheld a lower court decision.	New York's Supreme Court upheld a lower court decision.	31300619	1472701425770	1472701425879	NA	67
59925	658127	New York's Supreme Court upheld a lower court decision.	New York's Supreme Court upheld a lower court decision.	31300621	1472701425940	1472701426000	NA	73
59925	658127	New York's Supreme Court upheld a lower court decision.	New York's Supreme Court upheld a lower court decision.	31300622	1472701426180	1472701426339	NA	83
59925	658127	New York's Supreme Court upheld a lower court decision.	New York's Supreme Court upheld a lower court decision.	31300668	1472701426280	1472701426430	NA	73
59925	658127	New York's Supreme Court upheld a lower court decision.	New York's Supreme Court upheld a lower court decision.	31300675	1472701426470	1472701426600	NA	78
59925	658127	New York's Supreme Court upheld a lower court decision.	New York's Supreme Court upheld a lower court decision.	31300676	1472701426710	1472701426869	NA	188
59925	658127	New York's Supreme Court upheld a lower court decision.	New York's Supreme Court upheld a lower court decision.	31300679	1472701427630	1472701427720		8
59925	658127	New York's Supreme Court upheld a lower court decision.	New York's Supreme Court upheld a lower court decision.	31300682	1472701428000	1472701428090	NA	190
59925	658139	The meteor shower was incredible last night.	The meteor shower was incredible last night.	31300764	1472701429920	1472701430222	SHIFT	16
59925	658139	The meteor shower was incredible last night.	The meteor shower was incredible last night.	31300762	1472701430080	1472701430219	NA	84
59925	658139	The meteor shower was incredible last night.	The meteor shower was incredible last night.	31300768	1472701430320	1472701430400	NA	72
59925	658139	The meteor shower was incredible last night.	The meteor shower was incredible last night.	31300772	1472701430371	1472701430470	NA	69
59925	658139	The meteor shower was incredible last night.	The meteor shower was incredible last night.	31300777	1472701430500	1472701430600	NA	32
59925	658139	The meteor shower was incredible last night.	The meteor shower was incredible last night.	31300783	1472701430700	1472701430790	NA	77
59925	658139	The meteor shower was incredible last night.	The meteor shower was incredible last night.	31300822	1472701430780	1472701430910	NA	69
59925	658139	The meteor shower was incredible last night.	The meteor shower was incredible last night.	31300823	1472701431040	1472701431092	NA	84
59925	658139	The meteor shower was incredible last night.	The meteor shower was incredible last night.	31300824	1472701431101	1472701431159	NA	84
59925	658139	The meteor shower was incredible last night.	The meteor shower was incredible last night.	31300825	1472701431330	1472701431410	NA	73
59925	658139	The meteor shower was incredible last night.	The meteor shower was incredible last night.	31300826	1472701431850	1472701431940		8
59925	658139	The meteor shower was incredible last night.	The meteor shower was incredible last night.	31300828	1472701432012	1472701432130		8
59925	658139	The meteor shower was incredible last night.	The meteor shower was incredible last night.	31300876	1472701432290	1472701432400	NA	69
59925	658139	The meteor shower was incredible last night.	The meteor shower was incredible last night.	31300905	1472701432510	1472701433710	NA	79
59925	658139	The meteor shower was incredible last night.	The meteor shower was incredible last night.	31300880	1472701432630	1472701432730	NA	82
59925	658139	The meteor shower was incredible last night.	The meteor shower was incredible last night.	31300883	1472701432850	1472701432970	NA	32
59925	658139	The meteor shower was incredible last night.	The meteor shower was incredible last night.	31300885	1472701433390	1472701433520	NA	83
59925	658139	The meteor shower was incredible last night.	The meteor shower was incredible last night.	31300901	1472701433500	1472701433600	NA	72
59925	658139	The meteor shower was incredible last night.	The meteor shower was incredible last night.	31300909	1472701433712	1472701433889	NA	87
59925	658139	The meteor shower was incredible last night.	The meteor shower was incredible last night.	31300912	1472701433840	1472701434018	NA	69
59925	658139	The meteor shower was incredible last night.	The meteor shower was incredible last night.	31300915	1472701433989	1472701434140	NA	82
59925	658139	The meteor shower was incredible last night.	The meteor shower was incredible last night.	31300917	1472701434250	1472701434380	NA	32
59925	658139	The meteor shower was incredible last night.	The meteor shower was incredible last night.	31300934	1472701434590	1472701434730	NA	87
59925	658139	The meteor shower was incredible last night.	The meteor shower was incredible last night.	31300936	1472701434780	1472701434960	NA	65
59925	658139	The meteor shower was incredible last night.	The meteor shower was incredible last night.	31300940	1472701434869	1472701435032	NA	83
59925	658139	The meteor shower was incredible last night.	The meteor shower was incredible last night.	31300945	1472701435020	1472701435170	NA	32
59925	658139	The meteor shower was incredible last night.	The meteor shower was incredible last night.	31300949	1472701435300	1472701435469	NA	73
59925	658139	The meteor shower was incredible last night.	The meteor shower was incredible last night.	31300999	1472701435379	1472701435550	NA	78
59925	658139	The meteor shower was incredible last night.	The meteor shower was incredible last night.	31301000	1472701435620	1472701435659	NA	67
59925	658139	The meteor shower was incredible last night.	The meteor shower was incredible last night.	31301001	1472701435950	1472701436120	NA	82
59925	658139	The meteor shower was incredible last night.	The meteor shower was incredible last night.	31301002	1472701436059	1472701436200	NA	69
59925	658139	The meteor shower was incredible last night.	The meteor shower was incredible last night.	31301003	1472701436480	1472701436600	NA	68
59925	658139	The meteor shower was incredible last night.	The meteor shower was incredible last night.	31301004	1472701436680	1472701436759	NA	73
59925	658139	The meteor shower was incredible last night.	The meteor shower was incredible last night.	31301029	1472701436809	1472701436920	NA	67
59925	658139	The meteor shower was incredible last night.	The meteor shower was incredible last night.	31301030	1472701437230	1472701437319	NA	76
59925	658139	The meteor shower was incredible last night.	The meteor shower was incredible last night.	31301031	1472701437600	1472701437680		8
59925	658139	The meteor shower was incredible last night.	The meteor shower was incredible last night.	31301032	1472701437760	1472701437840		8
59925	658139	The meteor shower was incredible last night.	The meteor shower was incredible last night.	31301035	1472701438029	1472701438150	NA	66
59925	658139	The meteor shower was incredible last night.	The meteor shower was incredible last night.	31301039	1472701438159	1472701438270	NA	76
59925	658139	The meteor shower was incredible last night.	The meteor shower was incredible last night.	31301041	1472701438272	1472701438380	NA	69
59925	658139	The meteor shower was incredible last night.	The meteor shower was incredible last night.	31301044	1472701438450	1472701438560	NA	32
59925	658139	The meteor shower was incredible last night.	The meteor shower was incredible last night.	31301047	1472701438830	1472701438934	NA	76
59925	658139	The meteor shower was incredible last night.	The meteor shower was incredible last night.	31301071	1472701438930	1472701439080	NA	65
59925	658139	The meteor shower was incredible last night.	The meteor shower was incredible last night.	31301074	1472701439040	1472701439200	NA	83
59925	658139	The meteor shower was incredible last night.	The meteor shower was incredible last night.	31301079	1472701439250	1472701439392	NA	84
59925	658139	The meteor shower was incredible last night.	The meteor shower was incredible last night.	31301084	1472701439399	1472701439500	NA	32
59925	658139	The meteor shower was incredible last night.	The meteor shower was incredible last night.	31301087	1472701439550	1472701439649	NA	78
59925	658139	The meteor shower was incredible last night.	The meteor shower was incredible last night.	31301090	1472701439670	1472701439784	NA	73
59925	658139	The meteor shower was incredible last night.	The meteor shower was incredible last night.	31301112	1472701439770	1472701439849	NA	71
59925	658139	The meteor shower was incredible last night.	The meteor shower was incredible last night.	31301113	1472701439870	1472701439949	NA	72
59925	658139	The meteor shower was incredible last night.	The meteor shower was incredible last night.	31301114	1472701439990	1472701440090	NA	84
59925	658139	The meteor shower was incredible last night.	The meteor shower was incredible last night.	31301115	1472701440140	1472701440320	NA	190
59925	658146	I am out of town on business.	I am out of town on business.	31301186	1472701442660	1472701442869	SHIFT	16
59925	658146	I am out of town on business.	I am out of town on business.	31301189	1472701442780	1472701442919	NA	73
59925	658146	I am out of town on business.	I am out of town on business.	31301192	1472701442879	1472701443010	NA	32
59925	658146	I am out of town on business.	I am out of town on business.	31301195	1472701443030	1472701443140	NA	65
59925	658146	I am out of town on business.	I am out of town on business.	31301199	1472701443130	1472701443260	NA	77
59925	658146	I am out of town on business.	I am out of town on business.	31301227	1472701443250	1472701443370	NA	32
59925	658146	I am out of town on business.	I am out of town on business.	31301236	1472701443660	1472701444283	NA	79
59925	658146	I am out of town on business.	I am out of town on business.	31301231	1472701443730	1472701443849	NA	85
59925	658146	I am out of town on business.	I am out of town on business.	31301233	1472701443920	1472701444009	NA	84
59925	658146	I am out of town on business.	I am out of town on business.	31301235	1472701444040	1472701444160	NA	32
59925	658146	I am out of town on business.	I am out of town on business.	31301261	1472701444170	1472701444970	NA	79
59925	658146	I am out of town on business.	I am out of town on business.	31301255	1472701444279	1472701444370	NA	70
59925	658146	I am out of town on business.	I am out of town on business.	31301257	1472701444409	1472701444530	NA	32
59925	658146	I am out of town on business.	I am out of town on business.	31301259	1472701444700	1472701444789	NA	84
59925	658146	I am out of town on business.	I am out of town on business.	31301311	1472701444860	1472701445889	NA	79
59925	658146	I am out of town on business.	I am out of town on business.	31301263	1472701444972	1472701445079	NA	87
59925	658146	I am out of town on business.	I am out of town on business.	31301265	1472701445120	1472701445279	NA	78
59925	658146	I am out of town on business.	I am out of town on business.	31301307	1472701445240	1472701445410	NA	32
59925	658146	I am out of town on business.	I am out of town on business.	31301314	1472701445830	1472701445969	NA	78
59925	658146	I am out of town on business.	I am out of town on business.	31301318	1472701445910	1472701446050	NA	32
59925	658146	I am out of town on business.	I am out of town on business.	31301321	1472701446199	1472701446290	NA	66
59925	658146	I am out of town on business.	I am out of town on business.	31301323	1472701446349	1472701446429	NA	85
59925	658146	I am out of town on business.	I am out of town on business.	31301348	1472701446490	1472701446590	NA	83
59925	658146	I am out of town on business.	I am out of town on business.	31301350	1472701446690	1472701446880	NA	73
59925	658146	I am out of town on business.	I am out of town on business.	31301353	1472701446820	1472701446960	NA	78
59925	658146	I am out of town on business.	I am out of town on business.	31301359	1472701447110	1472701447169	NA	69
59925	658146	I am out of town on business.	I am out of town on business.	31301362	1472701447310	1472701447399	NA	83
59925	658146	I am out of town on business.	I am out of town on business.	31301383	1472701447490	1472701447620	NA	83
59925	658146	I am out of town on business.	I am out of town on business.	31301384	1472701447640	1472701447760	NA	190
59925	658155	It's just very confusing at first.	It's just very confusing at first.	31301460	1472701450250	1472701450451	SHIFT	16
59925	658155	It's just very confusing at first.	It's just very confusing at first.	31301462	1472701450400	1472701450489	NA	73
59925	658155	It's just very confusing at first.	It's just very confusing at first.	31301465	1472701450630	1472701450718	NA	84
59925	658155	It's just very confusing at first.	It's just very confusing at first.	31301468	1472701451060	1472701451160	NA	222
59925	658155	It's just very confusing at first.	It's just very confusing at first.	31301471	1472701451162	1472701451260	NA	83
59925	658155	It's just very confusing at first.	It's just very confusing at first.	31301475	1472701451270	1472701451380	NA	32
59925	658155	It's just very confusing at first.	It's just very confusing at first.	31301498	1472701451440	1472701451529	NA	74
59925	658155	It's just very confusing at first.	It's just very confusing at first.	31301501	1472701451630	1472701451701	NA	85
59925	658155	It's just very confusing at first.	It's just very confusing at first.	31301503	1472701451699	1472701451829	NA	83
59925	658155	It's just very confusing at first.	It's just very confusing at first.	31301505	1472701451810	1472701451899	NA	84
59925	658155	It's just very confusing at first.	It's just very confusing at first.	31301506	1472701451940	1472701452060	NA	32
59925	658155	It's just very confusing at first.	It's just very confusing at first.	31301533	1472701452190	1472701452300	NA	86
59925	658155	It's just very confusing at first.	It's just very confusing at first.	31301538	1472701452390	1472701452529	NA	69
59925	658155	It's just very confusing at first.	It's just very confusing at first.	31301544	1472701452489	1472701452590	NA	82
59925	658155	It's just very confusing at first.	It's just very confusing at first.	31301549	1472701452610	1472701452764	NA	89
59925	658155	It's just very confusing at first.	It's just very confusing at first.	31301585	1472701452760	1472701452880	NA	32
59925	658155	It's just very confusing at first.	It's just very confusing at first.	31301587	1472701453180	1472701453279	NA	67
59925	658155	It's just very confusing at first.	It's just very confusing at first.	31301592	1472701453350	1472701453439	NA	78
59925	658155	It's just very confusing at first.	It's just very confusing at first.	31301596	1472701453510	1472701453609	NA	70
59925	658155	It's just very confusing at first.	It's just very confusing at first.	31301598	1472701453612	1472701453700	NA	85
59925	658155	It's just very confusing at first.	It's just very confusing at first.	31301631	1472701453760	1472701453873	NA	83
59925	658155	It's just very confusing at first.	It's just very confusing at first.	31301634	1472701453870	1472701454120	NA	73
59925	658155	It's just very confusing at first.	It's just very confusing at first.	31301637	1472701454030	1472701454190	NA	78
59925	658155	It's just very confusing at first.	It's just very confusing at first.	31301638	1472701454230	1472701454309	NA	71
59925	658155	It's just very confusing at first.	It's just very confusing at first.	31301641	1472701454420	1472701454550	NA	32
59925	658155	It's just very confusing at first.	It's just very confusing at first.	31301689	1472701455010	1472701455220	NA	65
59925	658155	It's just very confusing at first.	It's just very confusing at first.	31301691	1472701455180	1472701455291	NA	84
59925	658155	It's just very confusing at first.	It's just very confusing at first.	31301693	1472701455280	1472701455398	NA	32
59925	658155	It's just very confusing at first.	It's just very confusing at first.	31301696	1472701455448	1472701455559	NA	70
59925	658155	It's just very confusing at first.	It's just very confusing at first.	31301699	1472701455580	1472701455670	NA	73
59925	658155	It's just very confusing at first.	It's just very confusing at first.	31301804	1472701455690	1472701455779	NA	82
59925	658155	It's just very confusing at first.	It's just very confusing at first.	31301806	1472701455880	1472701455990	NA	83
59925	658155	It's just very confusing at first.	It's just very confusing at first.	31301807	1472701456140	1472701456210	NA	84
59925	658155	It's just very confusing at first.	It's just very confusing at first.	31301808	1472701456700	1472701456790	NA	190
59925	658164	There are some issues on which we agree.	There are some issues on which we agree.	31301917	1472701459350	1472701459599	SHIFT	16
59925	658164	There are some issues on which we agree.	There are some issues on which we agree.	31301918	1472701459530	1472701459609	NA	84
59925	658164	There are some issues on which we agree.	There are some issues on which we agree.	31301920	1472701459890	1472701459972	NA	72
59925	658164	There are some issues on which we agree.	There are some issues on which we agree.	31301922	1472701459959	1472701460059	NA	69
59925	658164	There are some issues on which we agree.	There are some issues on which we agree.	31301924	1472701460028	1472701460189	NA	82
59925	658164	There are some issues on which we agree.	There are some issues on which we agree.	31301940	1472701460159	1472701460250	NA	69
59925	658164	There are some issues on which we agree.	There are some issues on which we agree.	31301945	1472701460320	1472701460440	NA	32
59925	658164	There are some issues on which we agree.	There are some issues on which we agree.	31301947	1472701460450	1472701460589	NA	65
59925	658164	There are some issues on which we agree.	There are some issues on which we agree.	31301951	1472701460540	1472701460672	NA	82
59925	658164	There are some issues on which we agree.	There are some issues on which we agree.	31301956	1472701460630	1472701460730	NA	69
59925	658164	There are some issues on which we agree.	There are some issues on which we agree.	31301959	1472701460740	1472701460860	NA	32
59925	658164	There are some issues on which we agree.	There are some issues on which we agree.	31301968	1472701460890	1472701460979	NA	83
59925	658164	There are some issues on which we agree.	There are some issues on which we agree.	31302065	1472701460959	1472701462969	NA	79
59925	658164	There are some issues on which we agree.	There are some issues on which we agree.	31301970	1472701461060	1472701461169	NA	77
59925	658164	There are some issues on which we agree.	There are some issues on which we agree.	31301972	1472701461180	1472701461270	NA	69
59925	658164	There are some issues on which we agree.	There are some issues on which we agree.	31301974	1472701461280	1472701461422	NA	32
59925	658164	There are some issues on which we agree.	There are some issues on which we agree.	31302002	1472701461389	1472701461499	NA	73
59925	658164	There are some issues on which we agree.	There are some issues on which we agree.	31302007	1472701461520	1472701461600	NA	83
59925	658164	There are some issues on which we agree.	There are some issues on which we agree.	31302011	1472701461710	1472701461810	NA	83
59925	658164	There are some issues on which we agree.	There are some issues on which we agree.	31302017	1472701461850	1472701461929	NA	85
59925	658164	There are some issues on which we agree.	There are some issues on which we agree.	31302022	1472701462070	1472701462159	NA	69
59925	658164	There are some issues on which we agree.	There are some issues on which we agree.	31302025	1472701462270	1472701462369	NA	83
59925	658164	There are some issues on which we agree.	There are some issues on which we agree.	31302059	1472701462470	1472701462590	NA	32
59925	658164	There are some issues on which we agree.	There are some issues on which we agree.	31302070	1472701462920	1472701463039	NA	78
59925	658164	There are some issues on which we agree.	There are some issues on which we agree.	31302077	1472701462989	1472701463110	NA	32
59925	658164	There are some issues on which we agree.	There are some issues on which we agree.	31302078	1472701463240	1472701463350	NA	87
59925	658164	There are some issues on which we agree.	There are some issues on which we agree.	31302113	1472701463359	1472701463439	NA	72
59925	658164	There are some issues on which we agree.	There are some issues on which we agree.	31302117	1472701463590	1472701463670	NA	68
59925	658164	There are some issues on which we agree.	There are some issues on which we agree.	31302120	1472701463630	1472701463739	NA	73
59925	658164	There are some issues on which we agree.	There are some issues on which we agree.	31302122	1472701463920	1472701464020	NA	72
59925	658164	There are some issues on which we agree.	There are some issues on which we agree.	31302125	1472701464350	1472701464419		8
59925	658164	There are some issues on which we agree.	There are some issues on which we agree.	31302128	1472701464490	1472701464561		8
59925	658164	There are some issues on which we agree.	There are some issues on which we agree.	31302130	1472701464630	1472701464730		8
59925	658164	There are some issues on which we agree.	There are some issues on which we agree.	31302132	1472701464780	1472701464880	NA	73
59925	658164	There are some issues on which we agree.	There are some issues on which we agree.	31302134	1472701464881	1472701464958	NA	67
59925	658164	There are some issues on which we agree.	There are some issues on which we agree.	31302136	1472701464979	1472701465070	NA	72
59925	658164	There are some issues on which we agree.	There are some issues on which we agree.	31302160	1472701465140	1472701465270	NA	32
59925	658164	There are some issues on which we agree.	There are some issues on which we agree.	31302162	1472701465640	1472701465769	NA	87
59925	658164	There are some issues on which we agree.	There are some issues on which we agree.	31302163	1472701465720	1472701465850	NA	69
59925	658164	There are some issues on which we agree.	There are some issues on which we agree.	31302164	1472701465890	1472701466010	NA	32
59925	658164	There are some issues on which we agree.	There are some issues on which we agree.	31302165	1472701466090	1472701466250	NA	65
59925	658164	There are some issues on which we agree.	There are some issues on which we agree.	31302184	1472701466240	1472701466333	NA	71
59925	658164	There are some issues on which we agree.	There are some issues on which we agree.	31302183	1472701466262	1472701466329	NA	70
59925	658164	There are some issues on which we agree.	There are some issues on which we agree.	31302185	1472701466470	1472701466579	NA	82
59925	658164	There are some issues on which we agree.	There are some issues on which we agree.	31302186	1472701466532	1472701466629	NA	69
59925	658164	There are some issues on which we agree.	There are some issues on which we agree.	31302188	1472701466990	1472701467079		8
59925	658164	There are some issues on which we agree.	There are some issues on which we agree.	31302190	1472701467160	1472701467238		8
59925	658164	There are some issues on which we agree.	There are some issues on which we agree.	31302237	1472701467329	1472701467440		8
59925	658164	There are some issues on which we agree.	There are some issues on which we agree.	31302239	1472701467650	1472701467719	NA	69
59925	658164	There are some issues on which we agree.	There are some issues on which we agree.	31302242	1472701467830	1472701467930	NA	69
59925	658164	There are some issues on which we agree.	There are some issues on which we agree.	31302244	1472701468530	1472701468600		8
59925	658164	There are some issues on which we agree.	There are some issues on which we agree.	31302246	1472701468680	1472701468789		8
59925	658164	There are some issues on which we agree.	There are some issues on which we agree.	31302281	1472701468770	1472701468879	NA	82
59925	658164	There are some issues on which we agree.	There are some issues on which we agree.	31302284	1472701468839	1472701468939	NA	69
59925	658164	There are some issues on which we agree.	There are some issues on which we agree.	31302286	1472701469110	1472701469210	NA	69
59925	658164	There are some issues on which we agree.	There are some issues on which we agree.	31302288	1472701469544	1472701469641	NA	190
